ARM GAS  C:\Users\Morroway\AppData\Local\Temp\ccQwTLuy.s 			page 1


   1              		.cpu cortex-m4
   2              		.arch armv7e-m
   3              		.fpu fpv4-sp-d16
   4              		.eabi_attribute 27, 1
   5              		.eabi_attribute 28, 1
   6              		.eabi_attribute 20, 1
   7              		.eabi_attribute 21, 1
   8              		.eabi_attribute 23, 3
   9              		.eabi_attribute 24, 1
  10              		.eabi_attribute 25, 1
  11              		.eabi_attribute 26, 1
  12              		.eabi_attribute 30, 1
  13              		.eabi_attribute 34, 1
  14              		.eabi_attribute 18, 4
  15              		.file	"DEV_Config.c"
  16              		.text
  17              	.Ltext0:
  18              		.cfi_sections	.debug_frame
  19              		.section	.text.DEV_Set_GPIOMode,"ax",%progbits
  20              		.align	1
  21              		.global	DEV_Set_GPIOMode
  22              		.syntax unified
  23              		.thumb
  24              		.thumb_func
  26              	DEV_Set_GPIOMode:
  27              	.LVL0:
  28              	.LFB324:
  29              		.file 1 "Core/Src/DEV_Config.c"
   1:Core/Src/DEV_Config.c **** /*****************************************************************************
   2:Core/Src/DEV_Config.c **** * | File      	:   DEV_Config.c
   3:Core/Src/DEV_Config.c **** * | Author      :   Waveshare team
   4:Core/Src/DEV_Config.c **** * | Function    :   Hardware underlying interface
   5:Core/Src/DEV_Config.c **** * | Info        :
   6:Core/Src/DEV_Config.c **** *                Used to shield the underlying layers of each master 
   7:Core/Src/DEV_Config.c **** *                and enhance portability
   8:Core/Src/DEV_Config.c **** *----------------
   9:Core/Src/DEV_Config.c **** * |	This version:   V1.0
  10:Core/Src/DEV_Config.c **** * | Date        :   2018-11-22
  11:Core/Src/DEV_Config.c **** * | Info        :
  12:Core/Src/DEV_Config.c **** 
  13:Core/Src/DEV_Config.c **** # Permission is hereby granted, free of charge, to any person obtaining a copy
  14:Core/Src/DEV_Config.c **** # of this software and associated documnetation files (the "Software"), to deal
  15:Core/Src/DEV_Config.c **** # in the Software without restriction, including without limitation the rights
  16:Core/Src/DEV_Config.c **** # to use, copy, modify, merge, publish, distribute, sublicense, and/or sell
  17:Core/Src/DEV_Config.c **** # copies of the Software, and to permit persons to  whom the Software is
  18:Core/Src/DEV_Config.c **** # furished to do so, subject to the following conditions:
  19:Core/Src/DEV_Config.c **** #
  20:Core/Src/DEV_Config.c **** # The above copyright notice and this permission notice shall be included in
  21:Core/Src/DEV_Config.c **** # all copies or substantial portions of the Software.
  22:Core/Src/DEV_Config.c **** #
  23:Core/Src/DEV_Config.c **** # THE SOFTWARE IS PROVIDED "AS IS", WITHOUT WARRANTY OF ANY KIND, EXPRESS OR
  24:Core/Src/DEV_Config.c **** # IMPLIED, INCLUDING BUT NOT LIMITED TO THE WARRANTIES OF MERCHANTABILITY,
  25:Core/Src/DEV_Config.c **** # FITNESS OR A PARTICULAR PURPOSE AND NONINFRINGEMENT. IN NO EVENT SHALL THE
  26:Core/Src/DEV_Config.c **** # AUTHORS OR COPYRIGHT HOLDERS BE LIABLE FOR ANY CLAIM, DAMAGES OR OTHER
  27:Core/Src/DEV_Config.c **** # LIABILITY WHETHER IN AN ACTION OF CONTRACT, TORT OR OTHERWISE, ARISING FROM,
  28:Core/Src/DEV_Config.c **** # OUT OF OR IN CONNECTION WITH THE SOFTWARE OR THE USE OR OTHER DEALINGS IN
  29:Core/Src/DEV_Config.c **** # THE SOFTWARE.
ARM GAS  C:\Users\Morroway\AppData\Local\Temp\ccQwTLuy.s 			page 2


  30:Core/Src/DEV_Config.c **** #
  31:Core/Src/DEV_Config.c **** ******************************************************************************/
  32:Core/Src/DEV_Config.c **** #include "DEV_Config.h"
  33:Core/Src/DEV_Config.c **** 
  34:Core/Src/DEV_Config.c **** void DEV_Set_GPIOMode(GPIO_TypeDef* GPIO_Port, UWORD Pin, UWORD mode)
  35:Core/Src/DEV_Config.c **** {
  30              		.loc 1 35 1 view -0
  31              		.cfi_startproc
  32              		@ args = 0, pretend = 0, frame = 24
  33              		@ frame_needed = 0, uses_anonymous_args = 0
  34              		.loc 1 35 1 is_stmt 0 view .LVU1
  35 0000 00B5     		push	{lr}
  36              		.cfi_def_cfa_offset 4
  37              		.cfi_offset 14, -4
  38 0002 87B0     		sub	sp, sp, #28
  39              		.cfi_def_cfa_offset 32
  36:Core/Src/DEV_Config.c **** 	GPIO_InitTypeDef GPIO_InitStruct;
  40              		.loc 1 36 2 is_stmt 1 view .LVU2
  37:Core/Src/DEV_Config.c **** 	if(mode == 1){
  41              		.loc 1 37 2 view .LVU3
  42              		.loc 1 37 4 is_stmt 0 view .LVU4
  43 0004 012A     		cmp	r2, #1
  44 0006 03D0     		beq	.L5
  38:Core/Src/DEV_Config.c **** 		GPIO_InitStruct.Pin = Pin;
  39:Core/Src/DEV_Config.c **** 		GPIO_InitStruct.Mode = GPIO_MODE_INPUT;
  40:Core/Src/DEV_Config.c **** 		GPIO_InitStruct.Pull = GPIO_PULLUP;
  41:Core/Src/DEV_Config.c **** 		GPIO_InitStruct.Speed = GPIO_SPEED_HIGH;
  42:Core/Src/DEV_Config.c **** 		HAL_GPIO_Init(GPIO_Port, &GPIO_InitStruct);
  43:Core/Src/DEV_Config.c **** 	}
  44:Core/Src/DEV_Config.c **** 	else if(mode == 0){
  45              		.loc 1 44 7 is_stmt 1 view .LVU5
  46              		.loc 1 44 9 is_stmt 0 view .LVU6
  47 0008 6AB1     		cbz	r2, .L6
  48              	.LVL1:
  49              	.L1:
  45:Core/Src/DEV_Config.c **** 		GPIO_InitStruct.Pin = Pin;
  46:Core/Src/DEV_Config.c **** 		GPIO_InitStruct.Mode = GPIO_MODE_OUTPUT_PP;
  47:Core/Src/DEV_Config.c **** 		GPIO_InitStruct.Pull = GPIO_PULLUP;
  48:Core/Src/DEV_Config.c **** 		GPIO_InitStruct.Speed = GPIO_SPEED_HIGH;
  49:Core/Src/DEV_Config.c **** 		HAL_GPIO_Init(GPIO_Port, &GPIO_InitStruct);
  50:Core/Src/DEV_Config.c **** 	}
  51:Core/Src/DEV_Config.c **** }
  50              		.loc 1 51 1 view .LVU7
  51 000a 07B0     		add	sp, sp, #28
  52              		.cfi_remember_state
  53              		.cfi_def_cfa_offset 4
  54              		@ sp needed
  55 000c 5DF804FB 		ldr	pc, [sp], #4
  56              	.LVL2:
  57              	.L5:
  58              		.cfi_restore_state
  38:Core/Src/DEV_Config.c **** 		GPIO_InitStruct.Pin = Pin;
  59              		.loc 1 38 3 is_stmt 1 view .LVU8
  38:Core/Src/DEV_Config.c **** 		GPIO_InitStruct.Pin = Pin;
  60              		.loc 1 38 23 is_stmt 0 view .LVU9
  61 0010 0191     		str	r1, [sp, #4]
  39:Core/Src/DEV_Config.c **** 		GPIO_InitStruct.Pull = GPIO_PULLUP;
ARM GAS  C:\Users\Morroway\AppData\Local\Temp\ccQwTLuy.s 			page 3


  62              		.loc 1 39 3 is_stmt 1 view .LVU10
  39:Core/Src/DEV_Config.c **** 		GPIO_InitStruct.Pull = GPIO_PULLUP;
  63              		.loc 1 39 24 is_stmt 0 view .LVU11
  64 0012 0023     		movs	r3, #0
  65 0014 0293     		str	r3, [sp, #8]
  40:Core/Src/DEV_Config.c **** 		GPIO_InitStruct.Speed = GPIO_SPEED_HIGH;
  66              		.loc 1 40 3 is_stmt 1 view .LVU12
  40:Core/Src/DEV_Config.c **** 		GPIO_InitStruct.Speed = GPIO_SPEED_HIGH;
  67              		.loc 1 40 24 is_stmt 0 view .LVU13
  68 0016 0123     		movs	r3, #1
  69 0018 0393     		str	r3, [sp, #12]
  41:Core/Src/DEV_Config.c **** 		HAL_GPIO_Init(GPIO_Port, &GPIO_InitStruct);
  70              		.loc 1 41 3 is_stmt 1 view .LVU14
  41:Core/Src/DEV_Config.c **** 		HAL_GPIO_Init(GPIO_Port, &GPIO_InitStruct);
  71              		.loc 1 41 25 is_stmt 0 view .LVU15
  72 001a 0323     		movs	r3, #3
  73 001c 0493     		str	r3, [sp, #16]
  42:Core/Src/DEV_Config.c **** 	}
  74              		.loc 1 42 3 is_stmt 1 view .LVU16
  75 001e 01A9     		add	r1, sp, #4
  76              	.LVL3:
  42:Core/Src/DEV_Config.c **** 	}
  77              		.loc 1 42 3 is_stmt 0 view .LVU17
  78 0020 FFF7FEFF 		bl	HAL_GPIO_Init
  79              	.LVL4:
  42:Core/Src/DEV_Config.c **** 	}
  80              		.loc 1 42 3 view .LVU18
  81 0024 F1E7     		b	.L1
  82              	.LVL5:
  83              	.L6:
  45:Core/Src/DEV_Config.c **** 		GPIO_InitStruct.Mode = GPIO_MODE_OUTPUT_PP;
  84              		.loc 1 45 3 is_stmt 1 view .LVU19
  45:Core/Src/DEV_Config.c **** 		GPIO_InitStruct.Mode = GPIO_MODE_OUTPUT_PP;
  85              		.loc 1 45 23 is_stmt 0 view .LVU20
  86 0026 0191     		str	r1, [sp, #4]
  46:Core/Src/DEV_Config.c **** 		GPIO_InitStruct.Pull = GPIO_PULLUP;
  87              		.loc 1 46 3 is_stmt 1 view .LVU21
  46:Core/Src/DEV_Config.c **** 		GPIO_InitStruct.Pull = GPIO_PULLUP;
  88              		.loc 1 46 24 is_stmt 0 view .LVU22
  89 0028 0123     		movs	r3, #1
  90 002a 0293     		str	r3, [sp, #8]
  47:Core/Src/DEV_Config.c **** 		GPIO_InitStruct.Speed = GPIO_SPEED_HIGH;
  91              		.loc 1 47 3 is_stmt 1 view .LVU23
  47:Core/Src/DEV_Config.c **** 		GPIO_InitStruct.Speed = GPIO_SPEED_HIGH;
  92              		.loc 1 47 24 is_stmt 0 view .LVU24
  93 002c 0393     		str	r3, [sp, #12]
  48:Core/Src/DEV_Config.c **** 		HAL_GPIO_Init(GPIO_Port, &GPIO_InitStruct);
  94              		.loc 1 48 3 is_stmt 1 view .LVU25
  48:Core/Src/DEV_Config.c **** 		HAL_GPIO_Init(GPIO_Port, &GPIO_InitStruct);
  95              		.loc 1 48 25 is_stmt 0 view .LVU26
  96 002e 0323     		movs	r3, #3
  97 0030 0493     		str	r3, [sp, #16]
  49:Core/Src/DEV_Config.c **** 	}
  98              		.loc 1 49 3 is_stmt 1 view .LVU27
  99 0032 01A9     		add	r1, sp, #4
 100              	.LVL6:
  49:Core/Src/DEV_Config.c **** 	}
ARM GAS  C:\Users\Morroway\AppData\Local\Temp\ccQwTLuy.s 			page 4


 101              		.loc 1 49 3 is_stmt 0 view .LVU28
 102 0034 FFF7FEFF 		bl	HAL_GPIO_Init
 103              	.LVL7:
 104              		.loc 1 51 1 view .LVU29
 105 0038 E7E7     		b	.L1
 106              		.cfi_endproc
 107              	.LFE324:
 109              		.section	.text.DEV_Delay_us,"ax",%progbits
 110              		.align	1
 111              		.global	DEV_Delay_us
 112              		.syntax unified
 113              		.thumb
 114              		.thumb_func
 116              	DEV_Delay_us:
 117              	.LVL8:
 118              	.LFB325:
  52:Core/Src/DEV_Config.c **** 
  53:Core/Src/DEV_Config.c **** 
  54:Core/Src/DEV_Config.c **** void DEV_Delay_us(UDOUBLE us)
  55:Core/Src/DEV_Config.c **** {
 119              		.loc 1 55 1 is_stmt 1 view -0
 120              		.cfi_startproc
 121              		@ args = 0, pretend = 0, frame = 0
 122              		@ frame_needed = 0, uses_anonymous_args = 0
 123              		@ link register save eliminated.
  56:Core/Src/DEV_Config.c **** 	UDOUBLE i;
 124              		.loc 1 56 2 view .LVU31
  57:Core/Src/DEV_Config.c **** 	i = us * 250;
 125              		.loc 1 57 2 view .LVU32
 126              		.loc 1 57 4 is_stmt 0 view .LVU33
 127 0000 FA23     		movs	r3, #250
 128 0002 03FB00F0 		mul	r0, r3, r0
 129              	.LVL9:
  58:Core/Src/DEV_Config.c **** 	while(i--);
 130              		.loc 1 58 2 is_stmt 1 view .LVU34
 131              	.L8:
 132              		.loc 1 58 8 discriminator 1 view .LVU35
 133 0006 0346     		mov	r3, r0
 134              		.loc 1 58 9 is_stmt 0 discriminator 1 view .LVU36
 135 0008 0138     		subs	r0, r0, #1
 136              	.LVL10:
 137              		.loc 1 58 8 discriminator 1 view .LVU37
 138 000a 002B     		cmp	r3, #0
 139 000c FBD1     		bne	.L8
  59:Core/Src/DEV_Config.c **** }
 140              		.loc 1 59 1 view .LVU38
 141 000e 7047     		bx	lr
 142              		.cfi_endproc
 143              	.LFE325:
 145              		.text
 146              	.Letext0:
 147              		.file 2 "c:\\users\\morroway\\appdata\\roaming\\code\\user\\globalstorage\\bmd.stm32-for-vscode\\@
 148              		.file 3 "c:\\users\\morroway\\appdata\\roaming\\code\\user\\globalstorage\\bmd.stm32-for-vscode\\@
 149              		.file 4 "Drivers/CMSIS/Device/ST/STM32L4xx/Include/stm32l4p5xx.h"
 150              		.file 5 "Drivers/STM32L4xx_HAL_Driver/Inc/stm32l4xx_hal_gpio.h"
ARM GAS  C:\Users\Morroway\AppData\Local\Temp\ccQwTLuy.s 			page 5

