ARM GAS  C:\Users\Morroway\AppData\Local\Temp\ccIGNgOC.s 			page 1


   1              		.cpu cortex-m4
   2              		.arch armv7e-m
   3              		.fpu fpv4-sp-d16
   4              		.eabi_attribute 27, 1
   5              		.eabi_attribute 28, 1
   6              		.eabi_attribute 20, 1
   7              		.eabi_attribute 21, 1
   8              		.eabi_attribute 23, 3
   9              		.eabi_attribute 24, 1
  10              		.eabi_attribute 25, 1
  11              		.eabi_attribute 26, 1
  12              		.eabi_attribute 30, 1
  13              		.eabi_attribute 34, 1
  14              		.eabi_attribute 18, 4
  15              		.file	"GUI_Paint.c"
  16              		.text
  17              	.Ltext0:
  18              		.cfi_sections	.debug_frame
  19              		.section	.rodata.Paint_NewImage.str1.4,"aMS",%progbits,1
  20              		.align	2
  21              	.LC0:
  22 0000 57696474 		.ascii	"WidthByte = %d, HeightByte = %d\015\012\000"
  22      68427974 
  22      65203D20 
  22      25642C20 
  22      48656967 
  23 0022 0000     		.align	2
  24              	.LC1:
  25 0024 20455044 		.ascii	" EPD_WIDTH / 8 = %d\015\012\000"
  25      5F574944 
  25      5448202F 
  25      2038203D 
  25      2025640D 
  26              		.section	.text.Paint_NewImage,"ax",%progbits
  27              		.align	1
  28              		.global	Paint_NewImage
  29              		.syntax unified
  30              		.thumb
  31              		.thumb_func
  33              	Paint_NewImage:
  34              	.LVL0:
  35              	.LFB324:
  36              		.file 1 "Core/Src/GUI_Paint.c"
   1:Core/Src/GUI_Paint.c **** /*****************************************************************************
   2:Core/Src/GUI_Paint.c **** * | File      	:   GUI_Paint.c
   3:Core/Src/GUI_Paint.c **** * | Author      :   Waveshare team
   4:Core/Src/GUI_Paint.c **** * | Function    :	Achieve drawing: draw points, lines, boxes, circles and
   5:Core/Src/GUI_Paint.c **** *                   their size, solid dotted line, solid rectangle hollow
   6:Core/Src/GUI_Paint.c **** *                   rectangle, solid circle hollow circle.
   7:Core/Src/GUI_Paint.c **** * | Info        :
   8:Core/Src/GUI_Paint.c **** *   Achieve display characters: Display a single character, string, number
   9:Core/Src/GUI_Paint.c **** *   Achieve time display: adaptive size display time minutes and seconds
  10:Core/Src/GUI_Paint.c **** *----------------
  11:Core/Src/GUI_Paint.c **** * |	This version:   V2.0
  12:Core/Src/GUI_Paint.c **** * | Date        :   2018-11-15
  13:Core/Src/GUI_Paint.c **** * | Info        :
  14:Core/Src/GUI_Paint.c **** * 1.add: Paint_NewImage()
ARM GAS  C:\Users\Morroway\AppData\Local\Temp\ccIGNgOC.s 			page 2


  15:Core/Src/GUI_Paint.c **** *    Create an image's properties
  16:Core/Src/GUI_Paint.c **** * 2.add: Paint_SelectImage()
  17:Core/Src/GUI_Paint.c **** *    Select the picture to be drawn
  18:Core/Src/GUI_Paint.c **** * 3.add: Paint_SetRotate()
  19:Core/Src/GUI_Paint.c **** *    Set the direction of the cache    
  20:Core/Src/GUI_Paint.c **** * 4.add: Paint_RotateImage() 
  21:Core/Src/GUI_Paint.c **** *    Can flip the picture, Support 0-360 degrees, 
  22:Core/Src/GUI_Paint.c **** *    but only 90.180.270 rotation is better
  23:Core/Src/GUI_Paint.c **** * 4.add: Paint_SetMirroring() 
  24:Core/Src/GUI_Paint.c **** *    Can Mirroring the picture, horizontal, vertical, origin
  25:Core/Src/GUI_Paint.c **** * 5.add: Paint_DrawString_CN() 
  26:Core/Src/GUI_Paint.c **** *    Can display Chinese(GB1312)    
  27:Core/Src/GUI_Paint.c **** *
  28:Core/Src/GUI_Paint.c **** * Permission is hereby granted, free of charge, to any person obtaining a copy
  29:Core/Src/GUI_Paint.c **** * of this software and associated documnetation files (the "Software"), to deal
  30:Core/Src/GUI_Paint.c **** * in the Software without restriction, including without limitation the rights
  31:Core/Src/GUI_Paint.c **** * to use, copy, modify, merge, publish, distribute, sublicense, and/or sell
  32:Core/Src/GUI_Paint.c **** * copies of the Software, and to permit persons to  whom the Software is
  33:Core/Src/GUI_Paint.c **** * furished to do so, subject to the following conditions:
  34:Core/Src/GUI_Paint.c **** *
  35:Core/Src/GUI_Paint.c **** * The above copyright notice and this permission notice shall be included in
  36:Core/Src/GUI_Paint.c **** * all copies or substantial portions of the Software.
  37:Core/Src/GUI_Paint.c **** *
  38:Core/Src/GUI_Paint.c **** * THE SOFTWARE IS PROVIDED "AS IS", WITHOUT WARRANTY OF ANY KIND, EXPRESS OR
  39:Core/Src/GUI_Paint.c **** * IMPLIED, INCLUDING BUT NOT LIMITED TO THE WARRANTIES OF MERCHANTABILITY,
  40:Core/Src/GUI_Paint.c **** * FITNESS OR A PARTICULAR PURPOSE AND NONINFRINGEMENT. IN NO EVENT SHALL THE
  41:Core/Src/GUI_Paint.c **** * AUTHORS OR COPYRIGHT HOLDERS BE LIABLE FOR ANY CLAIM, DAMAGES OR OTHER
  42:Core/Src/GUI_Paint.c **** * LIABILITY WHETHER IN AN ACTION OF CONTRACT, TORT OR OTHERWISE, ARISING FROM,
  43:Core/Src/GUI_Paint.c **** * OUT OF OR IN CONNECTION WITH THE SOFTWARE OR THE USE OR OTHER DEALINGS IN
  44:Core/Src/GUI_Paint.c **** * THE SOFTWARE.
  45:Core/Src/GUI_Paint.c **** *
  46:Core/Src/GUI_Paint.c **** ******************************************************************************/
  47:Core/Src/GUI_Paint.c **** #include "GUI_Paint.h"
  48:Core/Src/GUI_Paint.c **** 
  49:Core/Src/GUI_Paint.c **** 
  50:Core/Src/GUI_Paint.c **** 
  51:Core/Src/GUI_Paint.c **** #include <stdint.h>
  52:Core/Src/GUI_Paint.c **** #include <stdlib.h>
  53:Core/Src/GUI_Paint.c **** #include <string.h> //memset()
  54:Core/Src/GUI_Paint.c **** #include <math.h>
  55:Core/Src/GUI_Paint.c **** 
  56:Core/Src/GUI_Paint.c **** volatile PAINT Paint;
  57:Core/Src/GUI_Paint.c **** 
  58:Core/Src/GUI_Paint.c **** /******************************************************************************
  59:Core/Src/GUI_Paint.c **** function:	Create Image
  60:Core/Src/GUI_Paint.c **** parameter:
  61:Core/Src/GUI_Paint.c ****     image   :   Pointer to the image cache
  62:Core/Src/GUI_Paint.c ****     width   :   The width of the picture
  63:Core/Src/GUI_Paint.c ****     Height  :   The height of the picture
  64:Core/Src/GUI_Paint.c ****     Color   :   Whether the picture is inverted
  65:Core/Src/GUI_Paint.c **** ******************************************************************************/
  66:Core/Src/GUI_Paint.c **** void Paint_NewImage(UWORD Width, UWORD Height, UWORD Rotate, UWORD Color)
  67:Core/Src/GUI_Paint.c **** {
  37              		.loc 1 67 1 view -0
  38              		.cfi_startproc
  39              		@ args = 0, pretend = 0, frame = 0
  40              		@ frame_needed = 0, uses_anonymous_args = 0
ARM GAS  C:\Users\Morroway\AppData\Local\Temp\ccIGNgOC.s 			page 3


  41              		.loc 1 67 1 is_stmt 0 view .LVU1
  42 0000 F8B5     		push	{r3, r4, r5, r6, r7, lr}
  43              		.cfi_def_cfa_offset 24
  44              		.cfi_offset 3, -24
  45              		.cfi_offset 4, -20
  46              		.cfi_offset 5, -16
  47              		.cfi_offset 6, -12
  48              		.cfi_offset 7, -8
  49              		.cfi_offset 14, -4
  50 0002 0546     		mov	r5, r0
  51 0004 0E46     		mov	r6, r1
  52 0006 1746     		mov	r7, r2
  68:Core/Src/GUI_Paint.c ****     Paint.WidthMemory = Width;
  53              		.loc 1 68 5 is_stmt 1 view .LVU2
  54              		.loc 1 68 23 is_stmt 0 view .LVU3
  55 0008 0F4C     		ldr	r4, .L6
  56 000a 2081     		strh	r0, [r4, #8]	@ movhi
  69:Core/Src/GUI_Paint.c ****     Paint.HeightMemory = Height;
  57              		.loc 1 69 5 is_stmt 1 view .LVU4
  58              		.loc 1 69 24 is_stmt 0 view .LVU5
  59 000c 6181     		strh	r1, [r4, #10]	@ movhi
  70:Core/Src/GUI_Paint.c ****     Paint.Color = Color;    
  60              		.loc 1 70 5 is_stmt 1 view .LVU6
  61              		.loc 1 70 17 is_stmt 0 view .LVU7
  62 000e A381     		strh	r3, [r4, #12]	@ movhi
  71:Core/Src/GUI_Paint.c ****     Paint.WidthByte = Width;
  63              		.loc 1 71 5 is_stmt 1 view .LVU8
  64              		.loc 1 71 21 is_stmt 0 view .LVU9
  65 0010 6082     		strh	r0, [r4, #18]	@ movhi
  72:Core/Src/GUI_Paint.c ****     Paint.HeightByte = Height;    
  66              		.loc 1 72 5 is_stmt 1 view .LVU10
  67              		.loc 1 72 22 is_stmt 0 view .LVU11
  68 0012 A182     		strh	r1, [r4, #20]	@ movhi
  73:Core/Src/GUI_Paint.c ****     printf("WidthByte = %d, HeightByte = %d\r\n", Paint.WidthByte, Paint.HeightByte);
  69              		.loc 1 73 5 is_stmt 1 view .LVU12
  70              		.loc 1 73 56 is_stmt 0 view .LVU13
  71 0014 618A     		ldrh	r1, [r4, #18]
  72              	.LVL1:
  73              		.loc 1 73 73 view .LVU14
  74 0016 A28A     		ldrh	r2, [r4, #20]
  75              	.LVL2:
  76              		.loc 1 73 5 view .LVU15
  77 0018 92B2     		uxth	r2, r2
  78 001a 89B2     		uxth	r1, r1
  79 001c 0B48     		ldr	r0, .L6+4
  80              	.LVL3:
  81              		.loc 1 73 5 view .LVU16
  82 001e FFF7FEFF 		bl	printf
  83              	.LVL4:
  74:Core/Src/GUI_Paint.c ****     printf(" EPD_WIDTH / 8 = %d\r\n",  122 / 8);
  84              		.loc 1 74 5 is_stmt 1 view .LVU17
  85 0022 0F21     		movs	r1, #15
  86 0024 0A48     		ldr	r0, .L6+8
  87 0026 FFF7FEFF 		bl	printf
  88              	.LVL5:
  75:Core/Src/GUI_Paint.c ****    
  76:Core/Src/GUI_Paint.c ****     Paint.Rotate = Rotate;
ARM GAS  C:\Users\Morroway\AppData\Local\Temp\ccIGNgOC.s 			page 4


  89              		.loc 1 76 5 view .LVU18
  90              		.loc 1 76 18 is_stmt 0 view .LVU19
  91 002a E781     		strh	r7, [r4, #14]	@ movhi
  77:Core/Src/GUI_Paint.c ****     Paint.Mirror = MIRROR_NONE;
  92              		.loc 1 77 5 is_stmt 1 view .LVU20
  93              		.loc 1 77 18 is_stmt 0 view .LVU21
  94 002c 0023     		movs	r3, #0
  95 002e 2382     		strh	r3, [r4, #16]	@ movhi
  78:Core/Src/GUI_Paint.c ****     
  79:Core/Src/GUI_Paint.c ****     if(Rotate == ROTATE_0 || Rotate == ROTATE_180) {
  96              		.loc 1 79 5 is_stmt 1 view .LVU22
  97              		.loc 1 79 7 is_stmt 0 view .LVU23
  98 0030 2FB1     		cbz	r7, .L2
  99              		.loc 1 79 27 discriminator 1 view .LVU24
 100 0032 B42F     		cmp	r7, #180
 101 0034 03D0     		beq	.L2
  80:Core/Src/GUI_Paint.c ****         Paint.Width = Width;
  81:Core/Src/GUI_Paint.c ****         Paint.Height = Height;
  82:Core/Src/GUI_Paint.c ****     } else {
  83:Core/Src/GUI_Paint.c ****         Paint.Width = Height;
 102              		.loc 1 83 9 is_stmt 1 view .LVU25
 103              		.loc 1 83 21 is_stmt 0 view .LVU26
 104 0036 044B     		ldr	r3, .L6
 105 0038 9E80     		strh	r6, [r3, #4]	@ movhi
  84:Core/Src/GUI_Paint.c ****         Paint.Height = Width;
 106              		.loc 1 84 9 is_stmt 1 view .LVU27
 107              		.loc 1 84 22 is_stmt 0 view .LVU28
 108 003a DD80     		strh	r5, [r3, #6]	@ movhi
  85:Core/Src/GUI_Paint.c ****     }
  86:Core/Src/GUI_Paint.c **** }
 109              		.loc 1 86 1 view .LVU29
 110 003c 02E0     		b	.L1
 111              	.L2:
  80:Core/Src/GUI_Paint.c ****         Paint.Height = Height;
 112              		.loc 1 80 9 is_stmt 1 view .LVU30
  80:Core/Src/GUI_Paint.c ****         Paint.Height = Height;
 113              		.loc 1 80 21 is_stmt 0 view .LVU31
 114 003e 024B     		ldr	r3, .L6
 115 0040 9D80     		strh	r5, [r3, #4]	@ movhi
  81:Core/Src/GUI_Paint.c ****     } else {
 116              		.loc 1 81 9 is_stmt 1 view .LVU32
  81:Core/Src/GUI_Paint.c ****     } else {
 117              		.loc 1 81 22 is_stmt 0 view .LVU33
 118 0042 DE80     		strh	r6, [r3, #6]	@ movhi
 119              	.L1:
 120              		.loc 1 86 1 view .LVU34
 121 0044 F8BD     		pop	{r3, r4, r5, r6, r7, pc}
 122              	.L7:
 123 0046 00BF     		.align	2
 124              	.L6:
 125 0048 00000000 		.word	.LANCHOR0
 126 004c 00000000 		.word	.LC0
 127 0050 24000000 		.word	.LC1
 128              		.cfi_endproc
 129              	.LFE324:
 131              		.section	.rodata.Paint_SetRotate.str1.4,"aMS",%progbits,1
 132              		.align	2
ARM GAS  C:\Users\Morroway\AppData\Local\Temp\ccIGNgOC.s 			page 5


 133              	.LC2:
 134 0000 44656275 		.ascii	"Debug : Set image Rotate %d\015\012\000"
 134      67203A20 
 134      53657420 
 134      696D6167 
 134      6520526F 
 135 001e 0000     		.align	2
 136              	.LC3:
 137 0020 44656275 		.ascii	"Debug : rotate = 0, 90, 180, 270\015\000"
 137      67203A20 
 137      726F7461 
 137      7465203D 
 137      20302C20 
 138              		.section	.text.Paint_SetRotate,"ax",%progbits
 139              		.align	1
 140              		.global	Paint_SetRotate
 141              		.syntax unified
 142              		.thumb
 143              		.thumb_func
 145              	Paint_SetRotate:
 146              	.LVL6:
 147              	.LFB325:
  87:Core/Src/GUI_Paint.c **** 
  88:Core/Src/GUI_Paint.c **** /******************************************************************************
  89:Core/Src/GUI_Paint.c **** function:	Select Image Rotate
  90:Core/Src/GUI_Paint.c **** parameter:
  91:Core/Src/GUI_Paint.c ****     Rotate   :   0,90,180,270
  92:Core/Src/GUI_Paint.c **** ******************************************************************************/
  93:Core/Src/GUI_Paint.c **** void Paint_SetRotate(UWORD Rotate)
  94:Core/Src/GUI_Paint.c **** {
 148              		.loc 1 94 1 is_stmt 1 view -0
 149              		.cfi_startproc
 150              		@ args = 0, pretend = 0, frame = 0
 151              		@ frame_needed = 0, uses_anonymous_args = 0
 152              		.loc 1 94 1 is_stmt 0 view .LVU36
 153 0000 10B5     		push	{r4, lr}
 154              		.cfi_def_cfa_offset 8
 155              		.cfi_offset 4, -8
 156              		.cfi_offset 14, -4
  95:Core/Src/GUI_Paint.c ****     if(Rotate == ROTATE_0 || Rotate == ROTATE_90 || Rotate == ROTATE_180 || Rotate == ROTATE_270) {
 157              		.loc 1 95 5 is_stmt 1 view .LVU37
 158              		.loc 1 95 7 is_stmt 0 view .LVU38
 159 0002 0446     		mov	r4, r0
 160 0004 30B1     		cbz	r0, .L9
 161              		.loc 1 95 27 discriminator 1 view .LVU39
 162 0006 5A28     		cmp	r0, #90
 163 0008 04D0     		beq	.L9
 164              		.loc 1 95 50 discriminator 2 view .LVU40
 165 000a B428     		cmp	r0, #180
 166 000c 02D0     		beq	.L9
 167              		.loc 1 95 74 discriminator 3 view .LVU41
 168 000e B0F5877F 		cmp	r0, #270
 169 0012 06D1     		bne	.L10
 170              	.L9:
  96:Core/Src/GUI_Paint.c ****         Debug("Set image Rotate %d\r\n", Rotate);
 171              		.loc 1 96 9 is_stmt 1 view .LVU42
 172 0014 2146     		mov	r1, r4
ARM GAS  C:\Users\Morroway\AppData\Local\Temp\ccIGNgOC.s 			page 6


 173 0016 0548     		ldr	r0, .L13
 174              	.LVL7:
 175              		.loc 1 96 9 is_stmt 0 view .LVU43
 176 0018 FFF7FEFF 		bl	printf
 177              	.LVL8:
  97:Core/Src/GUI_Paint.c ****         Paint.Rotate = Rotate;
 178              		.loc 1 97 9 is_stmt 1 view .LVU44
 179              		.loc 1 97 22 is_stmt 0 view .LVU45
 180 001c 044B     		ldr	r3, .L13+4
 181 001e DC81     		strh	r4, [r3, #14]	@ movhi
 182              	.L8:
  98:Core/Src/GUI_Paint.c ****     } else {
  99:Core/Src/GUI_Paint.c ****         Debug("rotate = 0, 90, 180, 270\r\n");
 100:Core/Src/GUI_Paint.c ****       //  exit(0);
 101:Core/Src/GUI_Paint.c ****     }
 102:Core/Src/GUI_Paint.c **** }
 183              		.loc 1 102 1 view .LVU46
 184 0020 10BD     		pop	{r4, pc}
 185              	.LVL9:
 186              	.L10:
  99:Core/Src/GUI_Paint.c ****       //  exit(0);
 187              		.loc 1 99 9 is_stmt 1 view .LVU47
 188 0022 0448     		ldr	r0, .L13+8
 189              	.LVL10:
  99:Core/Src/GUI_Paint.c ****       //  exit(0);
 190              		.loc 1 99 9 is_stmt 0 view .LVU48
 191 0024 FFF7FEFF 		bl	puts
 192              	.LVL11:
 193              		.loc 1 102 1 view .LVU49
 194 0028 FAE7     		b	.L8
 195              	.L14:
 196 002a 00BF     		.align	2
 197              	.L13:
 198 002c 00000000 		.word	.LC2
 199 0030 00000000 		.word	.LANCHOR0
 200 0034 20000000 		.word	.LC3
 201              		.cfi_endproc
 202              	.LFE325:
 204              		.section	.rodata.Paint_SetMirroring.str1.4,"aMS",%progbits,1
 205              		.align	2
 206              	.LC4:
 207 0000 6D697272 		.ascii	"mirror\000"
 207      6F7200
 208 0007 00       		.align	2
 209              	.LC5:
 210 0008 6E6F6E65 		.ascii	"none\000"
 210      00
 211 000d 000000   		.align	2
 212              	.LC6:
 213 0010 44656275 		.ascii	"Debug : mirror image x:%s, y:%s\015\012\000"
 213      67203A20 
 213      6D697272 
 213      6F722069 
 213      6D616765 
 214 0032 0000     		.align	2
 215              	.LC7:
 216 0034 44656275 		.ascii	"Debug : mirror should be MIRROR_NONE, MIRROR_HORIZO"
ARM GAS  C:\Users\Morroway\AppData\Local\Temp\ccIGNgOC.s 			page 7


 216      67203A20 
 216      6D697272 
 216      6F722073 
 216      686F756C 
 217 0067 4E54414C 		.ascii	"NTAL,         MIRROR_VERTICAL or MIRROR_ORIGIN\015\000"
 217      2C202020 
 217      20202020 
 217      20204D49 
 217      52524F52 
 218              		.section	.text.Paint_SetMirroring,"ax",%progbits
 219              		.align	1
 220              		.global	Paint_SetMirroring
 221              		.syntax unified
 222              		.thumb
 223              		.thumb_func
 225              	Paint_SetMirroring:
 226              	.LVL12:
 227              	.LFB326:
 103:Core/Src/GUI_Paint.c **** 
 104:Core/Src/GUI_Paint.c **** /******************************************************************************
 105:Core/Src/GUI_Paint.c **** function:	Select Image mirror
 106:Core/Src/GUI_Paint.c **** parameter:
 107:Core/Src/GUI_Paint.c ****     mirror   :       Not mirror,Horizontal mirror,Vertical mirror,Origin mirror
 108:Core/Src/GUI_Paint.c **** ******************************************************************************/
 109:Core/Src/GUI_Paint.c **** void Paint_SetMirroring(UBYTE mirror)
 110:Core/Src/GUI_Paint.c **** {
 228              		.loc 1 110 1 is_stmt 1 view -0
 229              		.cfi_startproc
 230              		@ args = 0, pretend = 0, frame = 0
 231              		@ frame_needed = 0, uses_anonymous_args = 0
 232              		.loc 1 110 1 is_stmt 0 view .LVU51
 233 0000 10B5     		push	{r4, lr}
 234              		.cfi_def_cfa_offset 8
 235              		.cfi_offset 4, -8
 236              		.cfi_offset 14, -4
 111:Core/Src/GUI_Paint.c ****     if(mirror == MIRROR_NONE || mirror == MIRROR_HORIZONTAL || 
 237              		.loc 1 111 5 is_stmt 1 view .LVU52
 238              		.loc 1 111 7 is_stmt 0 view .LVU53
 239 0002 0328     		cmp	r0, #3
 240 0004 13D8     		bhi	.L16
 241 0006 0446     		mov	r4, r0
 112:Core/Src/GUI_Paint.c ****         mirror == MIRROR_VERTICAL || mirror == MIRROR_ORIGIN) {
 113:Core/Src/GUI_Paint.c ****         Debug("mirror image x:%s, y:%s\r\n",(mirror & 0x01)? "mirror":"none", ((mirror >> 1) & 0x01
 242              		.loc 1 113 9 is_stmt 1 view .LVU54
 243 0008 10F0010F 		tst	r0, #1
 244 000c 0BD0     		beq	.L20
 245 000e 0A49     		ldr	r1, .L23
 246              	.L17:
 247              		.loc 1 113 9 is_stmt 0 discriminator 4 view .LVU55
 248 0010 14F0020F 		tst	r4, #2
 249 0014 09D0     		beq	.L21
 250              		.loc 1 113 9 view .LVU56
 251 0016 084A     		ldr	r2, .L23
 252              	.L18:
 253              		.loc 1 113 9 discriminator 8 view .LVU57
 254 0018 0848     		ldr	r0, .L23+4
 255              	.LVL13:
ARM GAS  C:\Users\Morroway\AppData\Local\Temp\ccIGNgOC.s 			page 8


 256              		.loc 1 113 9 discriminator 8 view .LVU58
 257 001a FFF7FEFF 		bl	printf
 258              	.LVL14:
 114:Core/Src/GUI_Paint.c ****         Paint.Mirror = mirror;
 259              		.loc 1 114 9 is_stmt 1 discriminator 8 view .LVU59
 260              		.loc 1 114 22 is_stmt 0 discriminator 8 view .LVU60
 261 001e A4B2     		uxth	r4, r4
 262 0020 074B     		ldr	r3, .L23+8
 263 0022 1C82     		strh	r4, [r3, #16]	@ movhi
 264              	.L15:
 115:Core/Src/GUI_Paint.c ****     } else {
 116:Core/Src/GUI_Paint.c ****         Debug("mirror should be MIRROR_NONE, MIRROR_HORIZONTAL, \
 117:Core/Src/GUI_Paint.c ****         MIRROR_VERTICAL or MIRROR_ORIGIN\r\n");
 118:Core/Src/GUI_Paint.c **** //exit(0);
 119:Core/Src/GUI_Paint.c ****     }    
 120:Core/Src/GUI_Paint.c **** }
 265              		.loc 1 120 1 view .LVU61
 266 0024 10BD     		pop	{r4, pc}
 267              	.LVL15:
 268              	.L20:
 113:Core/Src/GUI_Paint.c ****         Paint.Mirror = mirror;
 269              		.loc 1 113 9 view .LVU62
 270 0026 0749     		ldr	r1, .L23+12
 271 0028 F2E7     		b	.L17
 272              	.L21:
 273 002a 064A     		ldr	r2, .L23+12
 274 002c F4E7     		b	.L18
 275              	.L16:
 116:Core/Src/GUI_Paint.c ****         MIRROR_VERTICAL or MIRROR_ORIGIN\r\n");
 276              		.loc 1 116 9 is_stmt 1 view .LVU63
 277 002e 0648     		ldr	r0, .L23+16
 278              	.LVL16:
 116:Core/Src/GUI_Paint.c ****         MIRROR_VERTICAL or MIRROR_ORIGIN\r\n");
 279              		.loc 1 116 9 is_stmt 0 view .LVU64
 280 0030 FFF7FEFF 		bl	puts
 281              	.LVL17:
 282              		.loc 1 120 1 view .LVU65
 283 0034 F6E7     		b	.L15
 284              	.L24:
 285 0036 00BF     		.align	2
 286              	.L23:
 287 0038 00000000 		.word	.LC4
 288 003c 10000000 		.word	.LC6
 289 0040 00000000 		.word	.LANCHOR0
 290 0044 08000000 		.word	.LC5
 291 0048 34000000 		.word	.LC7
 292              		.cfi_endproc
 293              	.LFE326:
 295              		.section	.rodata.Paint_SetPixel.str1.4,"aMS",%progbits,1
 296              		.align	2
 297              	.LC8:
 298 0000 44656275 		.ascii	"Debug : Exceeding display boundaries\015\000"
 298      67203A20 
 298      45786365 
 298      6564696E 
 298      67206469 
 299              		.section	.text.Paint_SetPixel,"ax",%progbits
ARM GAS  C:\Users\Morroway\AppData\Local\Temp\ccIGNgOC.s 			page 9


 300              		.align	1
 301              		.global	Paint_SetPixel
 302              		.syntax unified
 303              		.thumb
 304              		.thumb_func
 306              	Paint_SetPixel:
 307              	.LVL18:
 308              	.LFB327:
 121:Core/Src/GUI_Paint.c **** 
 122:Core/Src/GUI_Paint.c **** /******************************************************************************
 123:Core/Src/GUI_Paint.c **** function:	Draw Pixels
 124:Core/Src/GUI_Paint.c **** parameter:
 125:Core/Src/GUI_Paint.c ****     Xpoint  :   At point X
 126:Core/Src/GUI_Paint.c ****     Ypoint  :   At point Y
 127:Core/Src/GUI_Paint.c ****     Color   :   Painted colors
 128:Core/Src/GUI_Paint.c **** ******************************************************************************/
 129:Core/Src/GUI_Paint.c **** void Paint_SetPixel(UWORD Xpoint, UWORD Ypoint, UWORD Color)
 130:Core/Src/GUI_Paint.c **** {
 309              		.loc 1 130 1 is_stmt 1 view -0
 310              		.cfi_startproc
 311              		@ args = 0, pretend = 0, frame = 0
 312              		@ frame_needed = 0, uses_anonymous_args = 0
 313              		.loc 1 130 1 is_stmt 0 view .LVU67
 314 0000 10B5     		push	{r4, lr}
 315              		.cfi_def_cfa_offset 8
 316              		.cfi_offset 4, -8
 317              		.cfi_offset 14, -4
 131:Core/Src/GUI_Paint.c ****     if(Xpoint > Paint.Width || Ypoint > Paint.Height){
 318              		.loc 1 131 5 is_stmt 1 view .LVU68
 319              		.loc 1 131 22 is_stmt 0 view .LVU69
 320 0002 384B     		ldr	r3, .L44
 321 0004 9B88     		ldrh	r3, [r3, #4]
 322 0006 9BB2     		uxth	r3, r3
 323              		.loc 1 131 7 view .LVU70
 324 0008 8342     		cmp	r3, r0
 325 000a 1ED3     		bcc	.L26
 326              		.loc 1 131 46 discriminator 1 view .LVU71
 327 000c 354B     		ldr	r3, .L44
 328 000e DB88     		ldrh	r3, [r3, #6]
 329 0010 9BB2     		uxth	r3, r3
 330              		.loc 1 131 29 discriminator 1 view .LVU72
 331 0012 8B42     		cmp	r3, r1
 332 0014 19D3     		bcc	.L26
 132:Core/Src/GUI_Paint.c ****         Debug("Exceeding display boundaries\r\n");
 133:Core/Src/GUI_Paint.c ****         return;
 134:Core/Src/GUI_Paint.c ****     }      
 135:Core/Src/GUI_Paint.c ****     UWORD X, Y;
 333              		.loc 1 135 5 is_stmt 1 view .LVU73
 136:Core/Src/GUI_Paint.c **** 
 137:Core/Src/GUI_Paint.c ****     switch(Paint.Rotate) {
 334              		.loc 1 137 5 view .LVU74
 335              		.loc 1 137 17 is_stmt 0 view .LVU75
 336 0016 334B     		ldr	r3, .L44
 337 0018 DB89     		ldrh	r3, [r3, #14]
 338 001a 9BB2     		uxth	r3, r3
 339              		.loc 1 137 5 view .LVU76
 340 001c B42B     		cmp	r3, #180
ARM GAS  C:\Users\Morroway\AppData\Local\Temp\ccIGNgOC.s 			page 10


 341 001e 24D0     		beq	.L29
 342 0020 17D8     		bhi	.L30
 343 0022 4BB1     		cbz	r3, .L31
 344 0024 5A2B     		cmp	r3, #90
 345 0026 13D1     		bne	.L25
 138:Core/Src/GUI_Paint.c ****     case 0:
 139:Core/Src/GUI_Paint.c ****         X = Xpoint;
 140:Core/Src/GUI_Paint.c ****         Y = Ypoint;  
 141:Core/Src/GUI_Paint.c ****         break;
 142:Core/Src/GUI_Paint.c ****     case 90:
 143:Core/Src/GUI_Paint.c ****         X = Paint.WidthMemory - Ypoint - 1;
 346              		.loc 1 143 9 is_stmt 1 view .LVU77
 347              		.loc 1 143 18 is_stmt 0 view .LVU78
 348 0028 2E4B     		ldr	r3, .L44
 349 002a 1B89     		ldrh	r3, [r3, #8]
 350 002c 9BB2     		uxth	r3, r3
 351              		.loc 1 143 31 view .LVU79
 352 002e 5B1A     		subs	r3, r3, r1
 353 0030 9BB2     		uxth	r3, r3
 354              		.loc 1 143 11 view .LVU80
 355 0032 013B     		subs	r3, r3, #1
 356              	.LVL19:
 144:Core/Src/GUI_Paint.c ****         Y = Xpoint;
 357              		.loc 1 144 9 is_stmt 1 view .LVU81
 145:Core/Src/GUI_Paint.c ****         break;
 358              		.loc 1 145 9 view .LVU82
 144:Core/Src/GUI_Paint.c ****         Y = Xpoint;
 359              		.loc 1 144 11 is_stmt 0 view .LVU83
 360 0034 0146     		mov	r1, r0
 361              	.LVL20:
 143:Core/Src/GUI_Paint.c ****         Y = Xpoint;
 362              		.loc 1 143 11 view .LVU84
 363 0036 98B2     		uxth	r0, r3
 364              	.LVL21:
 365              	.L31:
 146:Core/Src/GUI_Paint.c ****     case 180:
 147:Core/Src/GUI_Paint.c ****         X = Paint.WidthMemory - Xpoint - 1;
 148:Core/Src/GUI_Paint.c ****         Y = Paint.HeightMemory - Ypoint - 1;
 149:Core/Src/GUI_Paint.c ****         break;
 150:Core/Src/GUI_Paint.c ****     case 270:
 151:Core/Src/GUI_Paint.c ****         X = Ypoint;
 152:Core/Src/GUI_Paint.c ****         Y = Paint.HeightMemory - Xpoint - 1;
 153:Core/Src/GUI_Paint.c ****         break;
 154:Core/Src/GUI_Paint.c **** 
 155:Core/Src/GUI_Paint.c ****     default:
 156:Core/Src/GUI_Paint.c ****         return;
 157:Core/Src/GUI_Paint.c ****     }
 158:Core/Src/GUI_Paint.c ****     
 159:Core/Src/GUI_Paint.c ****     switch(Paint.Mirror) {
 366              		.loc 1 159 5 is_stmt 1 view .LVU85
 367              		.loc 1 159 17 is_stmt 0 view .LVU86
 368 0038 2A4B     		ldr	r3, .L44
 369 003a 1B8A     		ldrh	r3, [r3, #16]
 370 003c 9BB2     		uxth	r3, r3
 371              		.loc 1 159 5 view .LVU87
 372 003e 032B     		cmp	r3, #3
 373 0040 06D8     		bhi	.L25
ARM GAS  C:\Users\Morroway\AppData\Local\Temp\ccIGNgOC.s 			page 11


 374 0042 DFE803F0 		tbb	[pc, r3]
 375              	.L35:
 376 0046 27       		.byte	(.L38-.L35)/2
 377 0047 20       		.byte	(.L37-.L35)/2
 378 0048 35       		.byte	(.L36-.L35)/2
 379 0049 3D       		.byte	(.L34-.L35)/2
 380              	.LVL22:
 381              		.p2align 1
 382              	.L26:
 132:Core/Src/GUI_Paint.c ****         return;
 383              		.loc 1 132 9 is_stmt 1 view .LVU88
 384 004a 2748     		ldr	r0, .L44+4
 385              	.LVL23:
 132:Core/Src/GUI_Paint.c ****         return;
 386              		.loc 1 132 9 is_stmt 0 view .LVU89
 387 004c FFF7FEFF 		bl	puts
 388              	.LVL24:
 133:Core/Src/GUI_Paint.c ****     }      
 389              		.loc 1 133 9 is_stmt 1 view .LVU90
 390              	.L25:
 160:Core/Src/GUI_Paint.c ****     case MIRROR_NONE:
 161:Core/Src/GUI_Paint.c ****         break;
 162:Core/Src/GUI_Paint.c ****     case MIRROR_HORIZONTAL:
 163:Core/Src/GUI_Paint.c ****         X = Paint.WidthMemory - X - 1;
 164:Core/Src/GUI_Paint.c ****         break;
 165:Core/Src/GUI_Paint.c ****     case MIRROR_VERTICAL:
 166:Core/Src/GUI_Paint.c ****         Y = Paint.HeightMemory - Y - 1;
 167:Core/Src/GUI_Paint.c ****         break;
 168:Core/Src/GUI_Paint.c ****     case MIRROR_ORIGIN:
 169:Core/Src/GUI_Paint.c ****         X = Paint.WidthMemory - X - 1;
 170:Core/Src/GUI_Paint.c ****         Y = Paint.HeightMemory - Y - 1;
 171:Core/Src/GUI_Paint.c ****         break;
 172:Core/Src/GUI_Paint.c ****     default:
 173:Core/Src/GUI_Paint.c ****         return;
 174:Core/Src/GUI_Paint.c ****     }
 175:Core/Src/GUI_Paint.c **** 
 176:Core/Src/GUI_Paint.c ****     // printf("x = %d, y = %d\r\n", X, Y);
 177:Core/Src/GUI_Paint.c ****     if(X > Paint.WidthMemory || Y > Paint.HeightMemory){
 178:Core/Src/GUI_Paint.c ****         Debug("Exceeding display boundaries\r\n");
 179:Core/Src/GUI_Paint.c ****         return;
 180:Core/Src/GUI_Paint.c ****     }
 181:Core/Src/GUI_Paint.c ****     
 182:Core/Src/GUI_Paint.c ****    // UDOUBLE Addr = X / 8 + Y * Paint.WidthByte;
 183:Core/Src/GUI_Paint.c **** 		BSP_LCD_DrawPixel(X,Y, Color);
 184:Core/Src/GUI_Paint.c **** }
 391              		.loc 1 184 1 is_stmt 0 view .LVU91
 392 0050 10BD     		pop	{r4, pc}
 393              	.LVL25:
 394              	.L30:
 137:Core/Src/GUI_Paint.c ****     case 0:
 395              		.loc 1 137 5 view .LVU92
 396 0052 B3F5877F 		cmp	r3, #270
 397 0056 FBD1     		bne	.L25
 151:Core/Src/GUI_Paint.c ****         Y = Paint.HeightMemory - Xpoint - 1;
 398              		.loc 1 151 9 is_stmt 1 view .LVU93
 399              	.LVL26:
 152:Core/Src/GUI_Paint.c ****         break;
ARM GAS  C:\Users\Morroway\AppData\Local\Temp\ccIGNgOC.s 			page 12


 400              		.loc 1 152 9 view .LVU94
 152:Core/Src/GUI_Paint.c ****         break;
 401              		.loc 1 152 18 is_stmt 0 view .LVU95
 402 0058 224B     		ldr	r3, .L44
 403 005a 5B89     		ldrh	r3, [r3, #10]
 404 005c 9BB2     		uxth	r3, r3
 152:Core/Src/GUI_Paint.c ****         break;
 405              		.loc 1 152 32 view .LVU96
 406 005e 1B1A     		subs	r3, r3, r0
 407 0060 9BB2     		uxth	r3, r3
 152:Core/Src/GUI_Paint.c ****         break;
 408              		.loc 1 152 11 view .LVU97
 409 0062 013B     		subs	r3, r3, #1
 410              	.LVL27:
 153:Core/Src/GUI_Paint.c **** 
 411              		.loc 1 153 9 is_stmt 1 view .LVU98
 151:Core/Src/GUI_Paint.c ****         Y = Paint.HeightMemory - Xpoint - 1;
 412              		.loc 1 151 11 is_stmt 0 view .LVU99
 413 0064 0846     		mov	r0, r1
 414              	.LVL28:
 152:Core/Src/GUI_Paint.c ****         break;
 415              		.loc 1 152 11 view .LVU100
 416 0066 99B2     		uxth	r1, r3
 417              	.LVL29:
 153:Core/Src/GUI_Paint.c **** 
 418              		.loc 1 153 9 view .LVU101
 419 0068 E6E7     		b	.L31
 420              	.LVL30:
 421              	.L29:
 147:Core/Src/GUI_Paint.c ****         Y = Paint.HeightMemory - Ypoint - 1;
 422              		.loc 1 147 9 is_stmt 1 view .LVU102
 147:Core/Src/GUI_Paint.c ****         Y = Paint.HeightMemory - Ypoint - 1;
 423              		.loc 1 147 18 is_stmt 0 view .LVU103
 424 006a 1E4C     		ldr	r4, .L44
 425 006c 2389     		ldrh	r3, [r4, #8]
 426 006e 9BB2     		uxth	r3, r3
 147:Core/Src/GUI_Paint.c ****         Y = Paint.HeightMemory - Ypoint - 1;
 427              		.loc 1 147 31 view .LVU104
 428 0070 1B1A     		subs	r3, r3, r0
 429 0072 9BB2     		uxth	r3, r3
 147:Core/Src/GUI_Paint.c ****         Y = Paint.HeightMemory - Ypoint - 1;
 430              		.loc 1 147 11 view .LVU105
 431 0074 013B     		subs	r3, r3, #1
 432 0076 98B2     		uxth	r0, r3
 433              	.LVL31:
 148:Core/Src/GUI_Paint.c ****         break;
 434              		.loc 1 148 9 is_stmt 1 view .LVU106
 148:Core/Src/GUI_Paint.c ****         break;
 435              		.loc 1 148 18 is_stmt 0 view .LVU107
 436 0078 6389     		ldrh	r3, [r4, #10]
 437 007a 9BB2     		uxth	r3, r3
 148:Core/Src/GUI_Paint.c ****         break;
 438              		.loc 1 148 32 view .LVU108
 439 007c 5B1A     		subs	r3, r3, r1
 440 007e 9BB2     		uxth	r3, r3
 148:Core/Src/GUI_Paint.c ****         break;
 441              		.loc 1 148 11 view .LVU109
ARM GAS  C:\Users\Morroway\AppData\Local\Temp\ccIGNgOC.s 			page 13


 442 0080 013B     		subs	r3, r3, #1
 443 0082 99B2     		uxth	r1, r3
 444              	.LVL32:
 149:Core/Src/GUI_Paint.c ****     case 270:
 445              		.loc 1 149 9 is_stmt 1 view .LVU110
 446 0084 D8E7     		b	.L31
 447              	.L37:
 163:Core/Src/GUI_Paint.c ****         break;
 448              		.loc 1 163 9 view .LVU111
 163:Core/Src/GUI_Paint.c ****         break;
 449              		.loc 1 163 18 is_stmt 0 view .LVU112
 450 0086 174B     		ldr	r3, .L44
 451 0088 1B89     		ldrh	r3, [r3, #8]
 452 008a 9BB2     		uxth	r3, r3
 163:Core/Src/GUI_Paint.c ****         break;
 453              		.loc 1 163 31 view .LVU113
 454 008c 1B1A     		subs	r3, r3, r0
 455 008e 9BB2     		uxth	r3, r3
 163:Core/Src/GUI_Paint.c ****         break;
 456              		.loc 1 163 11 view .LVU114
 457 0090 013B     		subs	r3, r3, #1
 458 0092 98B2     		uxth	r0, r3
 459              	.LVL33:
 164:Core/Src/GUI_Paint.c ****     case MIRROR_VERTICAL:
 460              		.loc 1 164 9 is_stmt 1 view .LVU115
 461              	.L38:
 177:Core/Src/GUI_Paint.c ****         Debug("Exceeding display boundaries\r\n");
 462              		.loc 1 177 5 view .LVU116
 177:Core/Src/GUI_Paint.c ****         Debug("Exceeding display boundaries\r\n");
 463              		.loc 1 177 17 is_stmt 0 view .LVU117
 464 0094 134B     		ldr	r3, .L44
 465 0096 1B89     		ldrh	r3, [r3, #8]
 466 0098 9BB2     		uxth	r3, r3
 177:Core/Src/GUI_Paint.c ****         Debug("Exceeding display boundaries\r\n");
 467              		.loc 1 177 7 view .LVU118
 468 009a 8342     		cmp	r3, r0
 469 009c 04D3     		bcc	.L39
 177:Core/Src/GUI_Paint.c ****         Debug("Exceeding display boundaries\r\n");
 470              		.loc 1 177 42 discriminator 1 view .LVU119
 471 009e 114B     		ldr	r3, .L44
 472 00a0 5B89     		ldrh	r3, [r3, #10]
 473 00a2 9BB2     		uxth	r3, r3
 177:Core/Src/GUI_Paint.c ****         Debug("Exceeding display boundaries\r\n");
 474              		.loc 1 177 30 discriminator 1 view .LVU120
 475 00a4 8B42     		cmp	r3, r1
 476 00a6 19D2     		bcs	.L40
 477              	.L39:
 178:Core/Src/GUI_Paint.c ****         return;
 478              		.loc 1 178 9 is_stmt 1 view .LVU121
 479 00a8 0F48     		ldr	r0, .L44+4
 480              	.LVL34:
 178:Core/Src/GUI_Paint.c ****         return;
 481              		.loc 1 178 9 is_stmt 0 view .LVU122
 482 00aa FFF7FEFF 		bl	puts
 483              	.LVL35:
 179:Core/Src/GUI_Paint.c ****     }
 484              		.loc 1 179 9 is_stmt 1 view .LVU123
ARM GAS  C:\Users\Morroway\AppData\Local\Temp\ccIGNgOC.s 			page 14


 485 00ae CFE7     		b	.L25
 486              	.LVL36:
 487              	.L36:
 166:Core/Src/GUI_Paint.c ****         break;
 488              		.loc 1 166 9 view .LVU124
 166:Core/Src/GUI_Paint.c ****         break;
 489              		.loc 1 166 18 is_stmt 0 view .LVU125
 490 00b0 0C4B     		ldr	r3, .L44
 491 00b2 5B89     		ldrh	r3, [r3, #10]
 492 00b4 9BB2     		uxth	r3, r3
 166:Core/Src/GUI_Paint.c ****         break;
 493              		.loc 1 166 32 view .LVU126
 494 00b6 5B1A     		subs	r3, r3, r1
 495 00b8 9BB2     		uxth	r3, r3
 166:Core/Src/GUI_Paint.c ****         break;
 496              		.loc 1 166 11 view .LVU127
 497 00ba 013B     		subs	r3, r3, #1
 498 00bc 99B2     		uxth	r1, r3
 499              	.LVL37:
 167:Core/Src/GUI_Paint.c ****     case MIRROR_ORIGIN:
 500              		.loc 1 167 9 is_stmt 1 view .LVU128
 501 00be E9E7     		b	.L38
 502              	.L34:
 169:Core/Src/GUI_Paint.c ****         Y = Paint.HeightMemory - Y - 1;
 503              		.loc 1 169 9 view .LVU129
 169:Core/Src/GUI_Paint.c ****         Y = Paint.HeightMemory - Y - 1;
 504              		.loc 1 169 18 is_stmt 0 view .LVU130
 505 00c0 084C     		ldr	r4, .L44
 506 00c2 2389     		ldrh	r3, [r4, #8]
 507 00c4 9BB2     		uxth	r3, r3
 169:Core/Src/GUI_Paint.c ****         Y = Paint.HeightMemory - Y - 1;
 508              		.loc 1 169 31 view .LVU131
 509 00c6 1B1A     		subs	r3, r3, r0
 510 00c8 9BB2     		uxth	r3, r3
 169:Core/Src/GUI_Paint.c ****         Y = Paint.HeightMemory - Y - 1;
 511              		.loc 1 169 11 view .LVU132
 512 00ca 013B     		subs	r3, r3, #1
 513 00cc 98B2     		uxth	r0, r3
 514              	.LVL38:
 170:Core/Src/GUI_Paint.c ****         break;
 515              		.loc 1 170 9 is_stmt 1 view .LVU133
 170:Core/Src/GUI_Paint.c ****         break;
 516              		.loc 1 170 18 is_stmt 0 view .LVU134
 517 00ce 6389     		ldrh	r3, [r4, #10]
 518 00d0 9BB2     		uxth	r3, r3
 170:Core/Src/GUI_Paint.c ****         break;
 519              		.loc 1 170 32 view .LVU135
 520 00d2 5B1A     		subs	r3, r3, r1
 521 00d4 9BB2     		uxth	r3, r3
 170:Core/Src/GUI_Paint.c ****         break;
 522              		.loc 1 170 11 view .LVU136
 523 00d6 013B     		subs	r3, r3, #1
 524 00d8 99B2     		uxth	r1, r3
 525              	.LVL39:
 171:Core/Src/GUI_Paint.c ****     default:
 526              		.loc 1 171 9 is_stmt 1 view .LVU137
 527 00da DBE7     		b	.L38
ARM GAS  C:\Users\Morroway\AppData\Local\Temp\ccIGNgOC.s 			page 15


 528              	.L40:
 183:Core/Src/GUI_Paint.c **** }
 529              		.loc 1 183 3 view .LVU138
 530 00dc FFF7FEFF 		bl	BSP_LCD_DrawPixel
 531              	.LVL40:
 183:Core/Src/GUI_Paint.c **** }
 532              		.loc 1 183 3 is_stmt 0 view .LVU139
 533 00e0 B6E7     		b	.L25
 534              	.L45:
 535 00e2 00BF     		.align	2
 536              	.L44:
 537 00e4 00000000 		.word	.LANCHOR0
 538 00e8 00000000 		.word	.LC8
 539              		.cfi_endproc
 540              	.LFE327:
 542              		.section	.text.Paint_Clear,"ax",%progbits
 543              		.align	1
 544              		.global	Paint_Clear
 545              		.syntax unified
 546              		.thumb
 547              		.thumb_func
 549              	Paint_Clear:
 550              	.LVL41:
 551              	.LFB328:
 185:Core/Src/GUI_Paint.c **** 
 186:Core/Src/GUI_Paint.c **** /******************************************************************************
 187:Core/Src/GUI_Paint.c **** function:	Clear the color of the picture
 188:Core/Src/GUI_Paint.c **** parameter:
 189:Core/Src/GUI_Paint.c ****     Color   :   Painted colors
 190:Core/Src/GUI_Paint.c **** ******************************************************************************/
 191:Core/Src/GUI_Paint.c **** void Paint_Clear(UWORD Color)
 192:Core/Src/GUI_Paint.c **** {	
 552              		.loc 1 192 1 is_stmt 1 view -0
 553              		.cfi_startproc
 554              		@ args = 0, pretend = 0, frame = 0
 555              		@ frame_needed = 0, uses_anonymous_args = 0
 556              		.loc 1 192 1 is_stmt 0 view .LVU141
 557 0000 08B5     		push	{r3, lr}
 558              		.cfi_def_cfa_offset 8
 559              		.cfi_offset 3, -8
 560              		.cfi_offset 14, -4
 193:Core/Src/GUI_Paint.c **** 	BSP_LCD_Clear(Color);
 561              		.loc 1 193 2 is_stmt 1 view .LVU142
 562 0002 FFF7FEFF 		bl	BSP_LCD_Clear
 563              	.LVL42:
 194:Core/Src/GUI_Paint.c **** }
 564              		.loc 1 194 1 is_stmt 0 view .LVU143
 565 0006 08BD     		pop	{r3, pc}
 566              		.cfi_endproc
 567              	.LFE328:
 569              		.section	.text.Paint_ClearWindows,"ax",%progbits
 570              		.align	1
 571              		.global	Paint_ClearWindows
 572              		.syntax unified
 573              		.thumb
 574              		.thumb_func
 576              	Paint_ClearWindows:
ARM GAS  C:\Users\Morroway\AppData\Local\Temp\ccIGNgOC.s 			page 16


 577              	.LVL43:
 578              	.LFB329:
 195:Core/Src/GUI_Paint.c **** 
 196:Core/Src/GUI_Paint.c **** /******************************************************************************
 197:Core/Src/GUI_Paint.c **** function:	Clear the color of a window
 198:Core/Src/GUI_Paint.c **** parameter:
 199:Core/Src/GUI_Paint.c ****     Xstart :   x starting point
 200:Core/Src/GUI_Paint.c ****     Ystart :   Y starting point
 201:Core/Src/GUI_Paint.c ****     Xend   :   x end point
 202:Core/Src/GUI_Paint.c ****     Yend   :   y end point
 203:Core/Src/GUI_Paint.c **** ******************************************************************************/
 204:Core/Src/GUI_Paint.c **** void Paint_ClearWindows(UWORD Xstart, UWORD Ystart, UWORD Xend, UWORD Yend, UWORD Color)
 205:Core/Src/GUI_Paint.c **** {
 579              		.loc 1 205 1 is_stmt 1 view -0
 580              		.cfi_startproc
 581              		@ args = 4, pretend = 0, frame = 0
 582              		@ frame_needed = 0, uses_anonymous_args = 0
 583              		.loc 1 205 1 is_stmt 0 view .LVU145
 584 0000 2DE9F843 		push	{r3, r4, r5, r6, r7, r8, r9, lr}
 585              		.cfi_def_cfa_offset 32
 586              		.cfi_offset 3, -32
 587              		.cfi_offset 4, -28
 588              		.cfi_offset 5, -24
 589              		.cfi_offset 6, -20
 590              		.cfi_offset 7, -16
 591              		.cfi_offset 8, -12
 592              		.cfi_offset 9, -8
 593              		.cfi_offset 14, -4
 594 0004 8146     		mov	r9, r0
 595 0006 0D46     		mov	r5, r1
 596 0008 1746     		mov	r7, r2
 597 000a 9846     		mov	r8, r3
 598 000c BDF82060 		ldrh	r6, [sp, #32]
 206:Core/Src/GUI_Paint.c ****     UWORD X, Y;
 599              		.loc 1 206 5 is_stmt 1 view .LVU146
 207:Core/Src/GUI_Paint.c ****     for (Y = Ystart; Y < Yend; Y++) {
 600              		.loc 1 207 5 view .LVU147
 601              	.LVL44:
 602              		.loc 1 207 5 is_stmt 0 view .LVU148
 603 0010 0AE0     		b	.L49
 604              	.LVL45:
 605              	.L50:
 208:Core/Src/GUI_Paint.c ****         for (X = Xstart; X < Xend; X++) {//8 pixel =  1 byte
 209:Core/Src/GUI_Paint.c ****             Paint_SetPixel(X, Y, Color);
 606              		.loc 1 209 13 is_stmt 1 discriminator 3 view .LVU149
 607 0012 3246     		mov	r2, r6
 608 0014 2946     		mov	r1, r5
 609 0016 2046     		mov	r0, r4
 610 0018 FFF7FEFF 		bl	Paint_SetPixel
 611              	.LVL46:
 208:Core/Src/GUI_Paint.c ****         for (X = Xstart; X < Xend; X++) {//8 pixel =  1 byte
 612              		.loc 1 208 37 discriminator 3 view .LVU150
 613 001c 0134     		adds	r4, r4, #1
 614              	.LVL47:
 208:Core/Src/GUI_Paint.c ****         for (X = Xstart; X < Xend; X++) {//8 pixel =  1 byte
 615              		.loc 1 208 37 is_stmt 0 discriminator 3 view .LVU151
 616 001e A4B2     		uxth	r4, r4
ARM GAS  C:\Users\Morroway\AppData\Local\Temp\ccIGNgOC.s 			page 17


 617              	.LVL48:
 618              	.L51:
 208:Core/Src/GUI_Paint.c ****         for (X = Xstart; X < Xend; X++) {//8 pixel =  1 byte
 619              		.loc 1 208 28 is_stmt 1 discriminator 1 view .LVU152
 620 0020 BC42     		cmp	r4, r7
 621 0022 F6D3     		bcc	.L50
 207:Core/Src/GUI_Paint.c ****     for (Y = Ystart; Y < Yend; Y++) {
 622              		.loc 1 207 33 discriminator 2 view .LVU153
 623 0024 0135     		adds	r5, r5, #1
 624              	.LVL49:
 207:Core/Src/GUI_Paint.c ****     for (Y = Ystart; Y < Yend; Y++) {
 625              		.loc 1 207 33 is_stmt 0 discriminator 2 view .LVU154
 626 0026 ADB2     		uxth	r5, r5
 627              	.LVL50:
 628              	.L49:
 207:Core/Src/GUI_Paint.c ****     for (Y = Ystart; Y < Yend; Y++) {
 629              		.loc 1 207 24 is_stmt 1 discriminator 1 view .LVU155
 630 0028 4545     		cmp	r5, r8
 631 002a 01D2     		bcs	.L54
 208:Core/Src/GUI_Paint.c ****         for (X = Xstart; X < Xend; X++) {//8 pixel =  1 byte
 632              		.loc 1 208 16 is_stmt 0 view .LVU156
 633 002c 4C46     		mov	r4, r9
 634 002e F7E7     		b	.L51
 635              	.L54:
 210:Core/Src/GUI_Paint.c ****         }
 211:Core/Src/GUI_Paint.c ****     }
 212:Core/Src/GUI_Paint.c **** }
 636              		.loc 1 212 1 view .LVU157
 637 0030 BDE8F883 		pop	{r3, r4, r5, r6, r7, r8, r9, pc}
 638              		.loc 1 212 1 view .LVU158
 639              		.cfi_endproc
 640              	.LFE329:
 642              		.section	.text.Paint_DrawPoint,"ax",%progbits
 643              		.align	1
 644              		.global	Paint_DrawPoint
 645              		.syntax unified
 646              		.thumb
 647              		.thumb_func
 649              	Paint_DrawPoint:
 650              	.LVL51:
 651              	.LFB330:
 213:Core/Src/GUI_Paint.c **** 
 214:Core/Src/GUI_Paint.c **** /******************************************************************************
 215:Core/Src/GUI_Paint.c **** function:	Draw Point(Xpoint, Ypoint) Fill the color
 216:Core/Src/GUI_Paint.c **** parameter:
 217:Core/Src/GUI_Paint.c ****     Xpoint		:   The Xpoint coordinate of the point
 218:Core/Src/GUI_Paint.c ****     Ypoint		:   The Ypoint coordinate of the point
 219:Core/Src/GUI_Paint.c ****     Color		:   Set color
 220:Core/Src/GUI_Paint.c ****     Dot_Pixel	:	point size
 221:Core/Src/GUI_Paint.c **** ******************************************************************************/
 222:Core/Src/GUI_Paint.c **** void Paint_DrawPoint(UWORD Xpoint, UWORD Ypoint, UWORD Color,
 223:Core/Src/GUI_Paint.c ****                      DOT_PIXEL Dot_Pixel, DOT_STYLE DOT_STYLE)
 224:Core/Src/GUI_Paint.c **** {
 652              		.loc 1 224 1 is_stmt 1 view -0
 653              		.cfi_startproc
 654              		@ args = 4, pretend = 0, frame = 0
 655              		@ frame_needed = 0, uses_anonymous_args = 0
ARM GAS  C:\Users\Morroway\AppData\Local\Temp\ccIGNgOC.s 			page 18


 656              		.loc 1 224 1 is_stmt 0 view .LVU160
 657 0000 2DE9F84F 		push	{r3, r4, r5, r6, r7, r8, r9, r10, fp, lr}
 658              		.cfi_def_cfa_offset 40
 659              		.cfi_offset 3, -40
 660              		.cfi_offset 4, -36
 661              		.cfi_offset 5, -32
 662              		.cfi_offset 6, -28
 663              		.cfi_offset 7, -24
 664              		.cfi_offset 8, -20
 665              		.cfi_offset 9, -16
 666              		.cfi_offset 10, -12
 667              		.cfi_offset 11, -8
 668              		.cfi_offset 14, -4
 669 0004 1D46     		mov	r5, r3
 225:Core/Src/GUI_Paint.c ****     if (Xpoint > Paint.Width || Ypoint > Paint.Height) {
 670              		.loc 1 225 5 is_stmt 1 view .LVU161
 671              		.loc 1 225 23 is_stmt 0 view .LVU162
 672 0006 2E4B     		ldr	r3, .L68
 673              	.LVL52:
 674              		.loc 1 225 23 view .LVU163
 675 0008 9B88     		ldrh	r3, [r3, #4]
 676 000a 9BB2     		uxth	r3, r3
 677              		.loc 1 225 8 view .LVU164
 678 000c 8342     		cmp	r3, r0
 679 000e 55D3     		bcc	.L55
 680 0010 0646     		mov	r6, r0
 681 0012 0F46     		mov	r7, r1
 682 0014 9046     		mov	r8, r2
 683              		.loc 1 225 47 discriminator 1 view .LVU165
 684 0016 2A4B     		ldr	r3, .L68
 685 0018 DB88     		ldrh	r3, [r3, #6]
 686 001a 9BB2     		uxth	r3, r3
 687              		.loc 1 225 30 discriminator 1 view .LVU166
 688 001c 8B42     		cmp	r3, r1
 689 001e 4DD3     		bcc	.L55
 226:Core/Src/GUI_Paint.c ****         //Debug("Paint_DrawPoint Input exceeds the normal display range\r\n");
 227:Core/Src/GUI_Paint.c ****         return;
 228:Core/Src/GUI_Paint.c ****     }
 229:Core/Src/GUI_Paint.c **** 
 230:Core/Src/GUI_Paint.c ****     int16_t XDir_Num , YDir_Num;
 690              		.loc 1 230 5 is_stmt 1 view .LVU167
 231:Core/Src/GUI_Paint.c ****     if (DOT_STYLE == DOT_FILL_AROUND) {
 691              		.loc 1 231 5 view .LVU168
 692              		.loc 1 231 8 is_stmt 0 view .LVU169
 693 0020 9DF82830 		ldrb	r3, [sp, #40]	@ zero_extendqisi2
 694 0024 012B     		cmp	r3, #1
 695 0026 2AD0     		beq	.L64
 232:Core/Src/GUI_Paint.c ****         for (XDir_Num = 0; XDir_Num < 2*Dot_Pixel - 1; XDir_Num++) {
 233:Core/Src/GUI_Paint.c ****             for (YDir_Num = 0; YDir_Num < 2 * Dot_Pixel - 1; YDir_Num++) {
 234:Core/Src/GUI_Paint.c ****                 if(Xpoint + XDir_Num - Dot_Pixel < 0 || Ypoint + YDir_Num - Dot_Pixel < 0)
 235:Core/Src/GUI_Paint.c ****                     break;
 236:Core/Src/GUI_Paint.c ****                 // printf("x = %d, y = %d\r\n", Xpoint + XDir_Num - Dot_Pixel, Ypoint + YDir_Num - 
 237:Core/Src/GUI_Paint.c ****                 Paint_SetPixel(Xpoint + XDir_Num - Dot_Pixel, Ypoint + YDir_Num - Dot_Pixel, Color)
 238:Core/Src/GUI_Paint.c ****             }
 239:Core/Src/GUI_Paint.c ****         }
 240:Core/Src/GUI_Paint.c ****     } else {
 241:Core/Src/GUI_Paint.c ****         for (XDir_Num = 0; XDir_Num <  Dot_Pixel; XDir_Num++) {
ARM GAS  C:\Users\Morroway\AppData\Local\Temp\ccIGNgOC.s 			page 19


 696              		.loc 1 241 23 view .LVU170
 697 0028 4FF00009 		mov	r9, #0
 698 002c 41E0     		b	.L58
 699              	.LVL53:
 700              	.L59:
 232:Core/Src/GUI_Paint.c ****         for (XDir_Num = 0; XDir_Num < 2*Dot_Pixel - 1; XDir_Num++) {
 701              		.loc 1 232 64 is_stmt 1 discriminator 2 view .LVU171
 702 002e 0134     		adds	r4, r4, #1
 703              	.LVL54:
 232:Core/Src/GUI_Paint.c ****         for (XDir_Num = 0; XDir_Num < 2*Dot_Pixel - 1; XDir_Num++) {
 704              		.loc 1 232 64 is_stmt 0 discriminator 2 view .LVU172
 705 0030 24B2     		sxth	r4, r4
 706              	.LVL55:
 707              	.L57:
 232:Core/Src/GUI_Paint.c ****         for (XDir_Num = 0; XDir_Num < 2*Dot_Pixel - 1; XDir_Num++) {
 708              		.loc 1 232 37 is_stmt 1 discriminator 1 view .LVU173
 709 0032 A246     		mov	r10, r4
 232:Core/Src/GUI_Paint.c ****         for (XDir_Num = 0; XDir_Num < 2*Dot_Pixel - 1; XDir_Num++) {
 710              		.loc 1 232 40 is_stmt 0 discriminator 1 view .LVU174
 711 0034 4FEA4509 		lsl	r9, r5, #1
 232:Core/Src/GUI_Paint.c ****         for (XDir_Num = 0; XDir_Num < 2*Dot_Pixel - 1; XDir_Num++) {
 712              		.loc 1 232 51 discriminator 1 view .LVU175
 713 0038 09F1FF39 		add	r9, r9, #-1
 232:Core/Src/GUI_Paint.c ****         for (XDir_Num = 0; XDir_Num < 2*Dot_Pixel - 1; XDir_Num++) {
 714              		.loc 1 232 37 discriminator 1 view .LVU176
 715 003c 4C45     		cmp	r4, r9
 716 003e 3DDA     		bge	.L55
 233:Core/Src/GUI_Paint.c ****                 if(Xpoint + XDir_Num - Dot_Pixel < 0 || Ypoint + YDir_Num - Dot_Pixel < 0)
 717              		.loc 1 233 27 view .LVU177
 718 0040 0023     		movs	r3, #0
 719              	.L61:
 720              	.LVL56:
 233:Core/Src/GUI_Paint.c ****                 if(Xpoint + XDir_Num - Dot_Pixel < 0 || Ypoint + YDir_Num - Dot_Pixel < 0)
 721              		.loc 1 233 41 is_stmt 1 discriminator 1 view .LVU178
 722 0042 1A46     		mov	r2, r3
 723 0044 4B45     		cmp	r3, r9
 724 0046 F2DA     		bge	.L59
 234:Core/Src/GUI_Paint.c ****                     break;
 725              		.loc 1 234 17 view .LVU179
 234:Core/Src/GUI_Paint.c ****                     break;
 726              		.loc 1 234 27 is_stmt 0 view .LVU180
 727 0048 06EB0A01 		add	r1, r6, r10
 234:Core/Src/GUI_Paint.c ****                     break;
 728              		.loc 1 234 38 view .LVU181
 729 004c 491B     		subs	r1, r1, r5
 234:Core/Src/GUI_Paint.c ****                     break;
 730              		.loc 1 234 19 view .LVU182
 731 004e 0029     		cmp	r1, #0
 732 0050 EDDB     		blt	.L59
 234:Core/Src/GUI_Paint.c ****                     break;
 733              		.loc 1 234 64 discriminator 1 view .LVU183
 734 0052 3A44     		add	r2, r2, r7
 234:Core/Src/GUI_Paint.c ****                     break;
 735              		.loc 1 234 75 discriminator 1 view .LVU184
 736 0054 521B     		subs	r2, r2, r5
 234:Core/Src/GUI_Paint.c ****                     break;
 737              		.loc 1 234 54 discriminator 1 view .LVU185
ARM GAS  C:\Users\Morroway\AppData\Local\Temp\ccIGNgOC.s 			page 20


 738 0056 002A     		cmp	r2, #0
 739 0058 E9DB     		blt	.L59
 237:Core/Src/GUI_Paint.c ****             }
 740              		.loc 1 237 17 is_stmt 1 discriminator 2 view .LVU186
 237:Core/Src/GUI_Paint.c ****             }
 741              		.loc 1 237 39 is_stmt 0 discriminator 2 view .LVU187
 742 005a 3019     		adds	r0, r6, r4
 743 005c 80B2     		uxth	r0, r0
 237:Core/Src/GUI_Paint.c ****             }
 744              		.loc 1 237 70 discriminator 2 view .LVU188
 745 005e 1FFA83FB 		uxth	fp, r3
 746 0062 0BEB0701 		add	r1, fp, r7
 747 0066 89B2     		uxth	r1, r1
 237:Core/Src/GUI_Paint.c ****             }
 748              		.loc 1 237 17 discriminator 2 view .LVU189
 749 0068 491B     		subs	r1, r1, r5
 750 006a 401B     		subs	r0, r0, r5
 751 006c 4246     		mov	r2, r8
 752 006e 89B2     		uxth	r1, r1
 753 0070 80B2     		uxth	r0, r0
 754 0072 FFF7FEFF 		bl	Paint_SetPixel
 755              	.LVL57:
 233:Core/Src/GUI_Paint.c ****                 if(Xpoint + XDir_Num - Dot_Pixel < 0 || Ypoint + YDir_Num - Dot_Pixel < 0)
 756              		.loc 1 233 70 is_stmt 1 discriminator 2 view .LVU190
 757 0076 0BF10103 		add	r3, fp, #1
 758 007a 1BB2     		sxth	r3, r3
 759              	.LVL58:
 233:Core/Src/GUI_Paint.c ****                 if(Xpoint + XDir_Num - Dot_Pixel < 0 || Ypoint + YDir_Num - Dot_Pixel < 0)
 760              		.loc 1 233 70 is_stmt 0 discriminator 2 view .LVU191
 761 007c E1E7     		b	.L61
 762              	.LVL59:
 763              	.L64:
 232:Core/Src/GUI_Paint.c ****             for (YDir_Num = 0; YDir_Num < 2 * Dot_Pixel - 1; YDir_Num++) {
 764              		.loc 1 232 23 view .LVU192
 765 007e 0024     		movs	r4, #0
 766 0080 D7E7     		b	.L57
 767              	.LVL60:
 768              	.L62:
 242:Core/Src/GUI_Paint.c ****             for (YDir_Num = 0; YDir_Num <  Dot_Pixel; YDir_Num++) {
 243:Core/Src/GUI_Paint.c ****                 Paint_SetPixel(Xpoint + XDir_Num - 1, Ypoint + YDir_Num - 1, Color);
 769              		.loc 1 243 17 is_stmt 1 discriminator 3 view .LVU193
 770              		.loc 1 243 39 is_stmt 0 discriminator 3 view .LVU194
 771 0082 06EB0900 		add	r0, r6, r9
 772 0086 80B2     		uxth	r0, r0
 773              		.loc 1 243 62 discriminator 3 view .LVU195
 774 0088 1FFA8CF4 		uxth	r4, ip
 775 008c E119     		adds	r1, r4, r7
 776 008e 89B2     		uxth	r1, r1
 777              		.loc 1 243 17 discriminator 3 view .LVU196
 778 0090 0139     		subs	r1, r1, #1
 779 0092 0138     		subs	r0, r0, #1
 780 0094 4246     		mov	r2, r8
 781 0096 89B2     		uxth	r1, r1
 782 0098 80B2     		uxth	r0, r0
 783 009a FFF7FEFF 		bl	Paint_SetPixel
 784              	.LVL61:
 242:Core/Src/GUI_Paint.c ****             for (YDir_Num = 0; YDir_Num <  Dot_Pixel; YDir_Num++) {
ARM GAS  C:\Users\Morroway\AppData\Local\Temp\ccIGNgOC.s 			page 21


 785              		.loc 1 242 63 is_stmt 1 discriminator 3 view .LVU197
 786 009e 04F1010C 		add	ip, r4, #1
 787 00a2 0FFA8CFC 		sxth	ip, ip
 788              	.LVL62:
 789              	.L63:
 242:Core/Src/GUI_Paint.c ****             for (YDir_Num = 0; YDir_Num <  Dot_Pixel; YDir_Num++) {
 790              		.loc 1 242 41 discriminator 1 view .LVU198
 791 00a6 AC45     		cmp	ip, r5
 792 00a8 EBDB     		blt	.L62
 241:Core/Src/GUI_Paint.c ****             for (YDir_Num = 0; YDir_Num <  Dot_Pixel; YDir_Num++) {
 793              		.loc 1 241 59 discriminator 2 view .LVU199
 794 00aa 09F10109 		add	r9, r9, #1
 795              	.LVL63:
 241:Core/Src/GUI_Paint.c ****             for (YDir_Num = 0; YDir_Num <  Dot_Pixel; YDir_Num++) {
 796              		.loc 1 241 59 is_stmt 0 discriminator 2 view .LVU200
 797 00ae 0FFA89F9 		sxth	r9, r9
 798              	.LVL64:
 799              	.L58:
 241:Core/Src/GUI_Paint.c ****             for (YDir_Num = 0; YDir_Num <  Dot_Pixel; YDir_Num++) {
 800              		.loc 1 241 37 is_stmt 1 discriminator 1 view .LVU201
 801 00b2 A945     		cmp	r9, r5
 802 00b4 02DA     		bge	.L55
 242:Core/Src/GUI_Paint.c ****             for (YDir_Num = 0; YDir_Num <  Dot_Pixel; YDir_Num++) {
 803              		.loc 1 242 27 is_stmt 0 view .LVU202
 804 00b6 4FF0000C 		mov	ip, #0
 805 00ba F4E7     		b	.L63
 806              	.LVL65:
 807              	.L55:
 244:Core/Src/GUI_Paint.c ****             }
 245:Core/Src/GUI_Paint.c ****         }
 246:Core/Src/GUI_Paint.c ****     }
 247:Core/Src/GUI_Paint.c **** }
 808              		.loc 1 247 1 view .LVU203
 809 00bc BDE8F88F 		pop	{r3, r4, r5, r6, r7, r8, r9, r10, fp, pc}
 810              	.LVL66:
 811              	.L69:
 812              		.loc 1 247 1 view .LVU204
 813              		.align	2
 814              	.L68:
 815 00c0 00000000 		.word	.LANCHOR0
 816              		.cfi_endproc
 817              	.LFE330:
 819              		.section	.rodata.Paint_DrawLine.str1.4,"aMS",%progbits,1
 820              		.align	2
 821              	.LC9:
 822 0000 44656275 		.ascii	"Debug : Paint_DrawLine Input exceeds the normal dis"
 822      67203A20 
 822      5061696E 
 822      745F4472 
 822      61774C69 
 823 0033 706C6179 		.ascii	"play range\015\000"
 823      2072616E 
 823      67650D00 
 824              		.section	.text.Paint_DrawLine,"ax",%progbits
 825              		.align	1
 826              		.global	Paint_DrawLine
 827              		.syntax unified
ARM GAS  C:\Users\Morroway\AppData\Local\Temp\ccIGNgOC.s 			page 22


 828              		.thumb
 829              		.thumb_func
 831              	Paint_DrawLine:
 832              	.LVL67:
 833              	.LFB331:
 248:Core/Src/GUI_Paint.c **** 
 249:Core/Src/GUI_Paint.c **** /******************************************************************************
 250:Core/Src/GUI_Paint.c **** function:	Draw a line of arbitrary slope
 251:Core/Src/GUI_Paint.c **** parameter:
 252:Core/Src/GUI_Paint.c ****     Xstart Starting Xpoint point coordinates
 253:Core/Src/GUI_Paint.c ****     Ystart Starting Xpoint point coordinates
 254:Core/Src/GUI_Paint.c ****     Xend   End point Xpoint coordinate
 255:Core/Src/GUI_Paint.c ****     Yend   End point Ypoint coordinate
 256:Core/Src/GUI_Paint.c ****     Color  The color of the line segment
 257:Core/Src/GUI_Paint.c **** ******************************************************************************/
 258:Core/Src/GUI_Paint.c **** void Paint_DrawLine(UWORD Xstart, UWORD Ystart, UWORD Xend, UWORD Yend,
 259:Core/Src/GUI_Paint.c ****                     UWORD Color, LINE_STYLE Line_Style, DOT_PIXEL Dot_Pixel)
 260:Core/Src/GUI_Paint.c **** {		
 834              		.loc 1 260 1 is_stmt 1 view -0
 835              		.cfi_startproc
 836              		@ args = 12, pretend = 0, frame = 32
 837              		@ frame_needed = 0, uses_anonymous_args = 0
 838              		.loc 1 260 1 is_stmt 0 view .LVU206
 839 0000 2DE9F04F 		push	{r4, r5, r6, r7, r8, r9, r10, fp, lr}
 840              		.cfi_def_cfa_offset 36
 841              		.cfi_offset 4, -36
 842              		.cfi_offset 5, -32
 843              		.cfi_offset 6, -28
 844              		.cfi_offset 7, -24
 845              		.cfi_offset 8, -20
 846              		.cfi_offset 9, -16
 847              		.cfi_offset 10, -12
 848              		.cfi_offset 11, -8
 849              		.cfi_offset 14, -4
 850 0004 8BB0     		sub	sp, sp, #44
 851              		.cfi_def_cfa_offset 80
 852 0006 0546     		mov	r5, r0
 853 0008 0E46     		mov	r6, r1
 854 000a 0692     		str	r2, [sp, #24]
 855 000c 1846     		mov	r0, r3
 856              	.LVL68:
 857              		.loc 1 260 1 view .LVU207
 858 000e 0593     		str	r3, [sp, #20]
 859 0010 BDF85010 		ldrh	r1, [sp, #80]
 860              	.LVL69:
 861              		.loc 1 260 1 view .LVU208
 862 0014 0491     		str	r1, [sp, #16]
 863 0016 9DF854A0 		ldrb	r10, [sp, #84]	@ zero_extendqisi2
 864 001a 9DF85810 		ldrb	r1, [sp, #88]	@ zero_extendqisi2
 865 001e 0391     		str	r1, [sp, #12]
 261:Core/Src/GUI_Paint.c ****     if (Xstart > Paint.Width || Ystart > Paint.Height ||
 866              		.loc 1 261 5 is_stmt 1 view .LVU209
 867              		.loc 1 261 23 is_stmt 0 view .LVU210
 868 0020 3C4B     		ldr	r3, .L84
 869              	.LVL70:
 870              		.loc 1 261 23 view .LVU211
 871 0022 9B88     		ldrh	r3, [r3, #4]
ARM GAS  C:\Users\Morroway\AppData\Local\Temp\ccIGNgOC.s 			page 23


 872 0024 9BB2     		uxth	r3, r3
 873              		.loc 1 261 8 view .LVU212
 874 0026 AB42     		cmp	r3, r5
 875 0028 2DD3     		bcc	.L71
 876              		.loc 1 261 47 discriminator 1 view .LVU213
 877 002a 3A4B     		ldr	r3, .L84
 878 002c DB88     		ldrh	r3, [r3, #6]
 879 002e 9BB2     		uxth	r3, r3
 880              		.loc 1 261 30 discriminator 1 view .LVU214
 881 0030 B342     		cmp	r3, r6
 882 0032 28D3     		bcc	.L71
 262:Core/Src/GUI_Paint.c ****         Xend > Paint.Width || Yend > Paint.Height) {
 883              		.loc 1 262 21 discriminator 2 view .LVU215
 884 0034 374B     		ldr	r3, .L84
 885 0036 9B88     		ldrh	r3, [r3, #4]
 886 0038 9BB2     		uxth	r3, r3
 261:Core/Src/GUI_Paint.c ****     if (Xstart > Paint.Width || Ystart > Paint.Height ||
 887              		.loc 1 261 55 discriminator 2 view .LVU216
 888 003a 9342     		cmp	r3, r2
 889 003c 23D3     		bcc	.L71
 890              		.loc 1 262 43 view .LVU217
 891 003e 354B     		ldr	r3, .L84
 892 0040 DB88     		ldrh	r3, [r3, #6]
 893 0042 9BB2     		uxth	r3, r3
 894              		.loc 1 262 28 view .LVU218
 895 0044 8342     		cmp	r3, r0
 896 0046 1ED3     		bcc	.L71
 263:Core/Src/GUI_Paint.c ****         Debug("Paint_DrawLine Input exceeds the normal display range\r\n");
 264:Core/Src/GUI_Paint.c ****         return;
 265:Core/Src/GUI_Paint.c ****     }
 266:Core/Src/GUI_Paint.c **** 
 267:Core/Src/GUI_Paint.c ****     UWORD Xpoint = Xstart;
 897              		.loc 1 267 5 is_stmt 1 view .LVU219
 898              	.LVL71:
 268:Core/Src/GUI_Paint.c ****     UWORD Ypoint = Ystart;
 899              		.loc 1 268 5 view .LVU220
 269:Core/Src/GUI_Paint.c ****     int dx = (int)Xend - (int)Xstart >= 0 ? Xend - Xstart : Xstart - Xend;
 900              		.loc 1 269 5 view .LVU221
 901              		.loc 1 269 50 is_stmt 0 view .LVU222
 902 0048 069A     		ldr	r2, [sp, #24]
 903              	.LVL72:
 904              		.loc 1 269 50 view .LVU223
 905 004a A2EB0509 		sub	r9, r2, r5
 906              		.loc 1 269 9 view .LVU224
 907 004e B9F1000F 		cmp	r9, #0
 908 0052 B8BF     		it	lt
 909 0054 C9F10009 		rsblt	r9, r9, #0
 910              	.LVL73:
 270:Core/Src/GUI_Paint.c ****     int dy = (int)Yend - (int)Ystart <= 0 ? Yend - Ystart : Ystart - Yend;
 911              		.loc 1 270 5 is_stmt 1 view .LVU225
 912              		.loc 1 270 50 is_stmt 0 view .LVU226
 913 0058 059B     		ldr	r3, [sp, #20]
 914 005a 9B1B     		subs	r3, r3, r6
 915              		.loc 1 270 59 view .LVU227
 916 005c 83EAE371 		eor	r1, r3, r3, asr #31
 917 0060 A1EBE371 		sub	r1, r1, r3, asr #31
 918 0064 0791     		str	r1, [sp, #28]
ARM GAS  C:\Users\Morroway\AppData\Local\Temp\ccIGNgOC.s 			page 24


 919 0066 C1F1000B 		rsb	fp, r1, #0
 920              	.LVL74:
 271:Core/Src/GUI_Paint.c **** 
 272:Core/Src/GUI_Paint.c ****     // Increment direction, 1 is positive, -1 is counter;
 273:Core/Src/GUI_Paint.c ****     int XAddway = Xstart < Xend ? 1 : -1;
 921              		.loc 1 273 5 is_stmt 1 view .LVU228
 922              		.loc 1 273 37 is_stmt 0 view .LVU229
 923 006a 9542     		cmp	r5, r2
 924 006c 11D2     		bcs	.L81
 925 006e 0123     		movs	r3, #1
 926 0070 0893     		str	r3, [sp, #32]
 927              	.L74:
 928              	.LVL75:
 274:Core/Src/GUI_Paint.c ****     int YAddway = Ystart < Yend ? 1 : -1;
 929              		.loc 1 274 5 is_stmt 1 discriminator 4 view .LVU230
 930              		.loc 1 274 37 is_stmt 0 discriminator 4 view .LVU231
 931 0072 059B     		ldr	r3, [sp, #20]
 932 0074 9E42     		cmp	r6, r3
 933 0076 10D2     		bcs	.L82
 934              		.loc 1 274 37 view .LVU232
 935 0078 0123     		movs	r3, #1
 936 007a 0993     		str	r3, [sp, #36]
 937              	.L75:
 938              	.LVL76:
 275:Core/Src/GUI_Paint.c **** 
 276:Core/Src/GUI_Paint.c ****     //Cumulative error
 277:Core/Src/GUI_Paint.c ****     int Esp = dx + dy;
 939              		.loc 1 277 5 is_stmt 1 discriminator 4 view .LVU233
 940              		.loc 1 277 9 is_stmt 0 discriminator 4 view .LVU234
 941 007c 079B     		ldr	r3, [sp, #28]
 942 007e A9EB0308 		sub	r8, r9, r3
 943              	.LVL77:
 278:Core/Src/GUI_Paint.c ****     char Dotted_Len = 0;
 944              		.loc 1 278 5 is_stmt 1 discriminator 4 view .LVU235
 945              		.loc 1 278 10 is_stmt 0 discriminator 4 view .LVU236
 946 0082 0024     		movs	r4, #0
 947 0084 2BE0     		b	.L76
 948              	.LVL78:
 949              	.L71:
 263:Core/Src/GUI_Paint.c ****         return;
 950              		.loc 1 263 9 is_stmt 1 view .LVU237
 951 0086 2448     		ldr	r0, .L84+4
 952 0088 FFF7FEFF 		bl	puts
 953              	.LVL79:
 264:Core/Src/GUI_Paint.c ****     }
 954              		.loc 1 264 9 view .LVU238
 955              	.L70:
 279:Core/Src/GUI_Paint.c **** 
 280:Core/Src/GUI_Paint.c ****     for (;;) {
 281:Core/Src/GUI_Paint.c ****         Dotted_Len++;
 282:Core/Src/GUI_Paint.c ****         //Painted dotted line, 2 point is really virtual
 283:Core/Src/GUI_Paint.c ****         if (Line_Style == LINE_STYLE_DOTTED && Dotted_Len % 3 == 0) {
 284:Core/Src/GUI_Paint.c ****             //Debug("LINE_DOTTED\r\n");
 285:Core/Src/GUI_Paint.c ****             Paint_DrawPoint(Xpoint, Ypoint, IMAGE_BACKGROUND, Dot_Pixel, DOT_STYLE_DFT);
 286:Core/Src/GUI_Paint.c ****             Dotted_Len = 0;
 287:Core/Src/GUI_Paint.c ****         } else {
 288:Core/Src/GUI_Paint.c ****             Paint_DrawPoint(Xpoint, Ypoint, Color, Dot_Pixel, DOT_STYLE_DFT);
ARM GAS  C:\Users\Morroway\AppData\Local\Temp\ccIGNgOC.s 			page 25


 289:Core/Src/GUI_Paint.c ****         }
 290:Core/Src/GUI_Paint.c ****         if (2 * Esp >= dy) {
 291:Core/Src/GUI_Paint.c ****             if (Xpoint == Xend)
 292:Core/Src/GUI_Paint.c ****                 break;
 293:Core/Src/GUI_Paint.c ****             Esp += dy;
 294:Core/Src/GUI_Paint.c ****             Xpoint += XAddway;
 295:Core/Src/GUI_Paint.c ****         }
 296:Core/Src/GUI_Paint.c ****         if (2 * Esp <= dx) {
 297:Core/Src/GUI_Paint.c ****             if (Ypoint == Yend)
 298:Core/Src/GUI_Paint.c ****                 break;
 299:Core/Src/GUI_Paint.c ****             Esp += dx;
 300:Core/Src/GUI_Paint.c ****             Ypoint += YAddway;
 301:Core/Src/GUI_Paint.c ****         }
 302:Core/Src/GUI_Paint.c ****     }
 303:Core/Src/GUI_Paint.c **** }
 956              		.loc 1 303 1 is_stmt 0 view .LVU239
 957 008c 0BB0     		add	sp, sp, #44
 958              		.cfi_remember_state
 959              		.cfi_def_cfa_offset 36
 960              		@ sp needed
 961 008e BDE8F08F 		pop	{r4, r5, r6, r7, r8, r9, r10, fp, pc}
 962              	.LVL80:
 963              	.L81:
 964              		.cfi_restore_state
 273:Core/Src/GUI_Paint.c ****     int YAddway = Ystart < Yend ? 1 : -1;
 965              		.loc 1 273 37 view .LVU240
 966 0092 4FF0FF33 		mov	r3, #-1
 967 0096 0893     		str	r3, [sp, #32]
 968 0098 EBE7     		b	.L74
 969              	.LVL81:
 970              	.L82:
 274:Core/Src/GUI_Paint.c **** 
 971              		.loc 1 274 37 view .LVU241
 972 009a 4FF0FF33 		mov	r3, #-1
 973 009e 0993     		str	r3, [sp, #36]
 974 00a0 ECE7     		b	.L75
 975              	.LVL82:
 976              	.L77:
 288:Core/Src/GUI_Paint.c ****         }
 977              		.loc 1 288 13 is_stmt 1 view .LVU242
 978 00a2 0123     		movs	r3, #1
 979 00a4 0093     		str	r3, [sp]
 980 00a6 039B     		ldr	r3, [sp, #12]
 981 00a8 049A     		ldr	r2, [sp, #16]
 982 00aa 3146     		mov	r1, r6
 983 00ac 2846     		mov	r0, r5
 984 00ae FFF7FEFF 		bl	Paint_DrawPoint
 985              	.LVL83:
 986              	.L78:
 290:Core/Src/GUI_Paint.c ****             if (Xpoint == Xend)
 987              		.loc 1 290 9 view .LVU243
 290:Core/Src/GUI_Paint.c ****             if (Xpoint == Xend)
 988              		.loc 1 290 12 is_stmt 0 view .LVU244
 989 00b2 BBEB480F 		cmp	fp, r8, lsl #1
 990 00b6 08DC     		bgt	.L79
 291:Core/Src/GUI_Paint.c ****                 break;
 991              		.loc 1 291 13 is_stmt 1 view .LVU245
ARM GAS  C:\Users\Morroway\AppData\Local\Temp\ccIGNgOC.s 			page 26


 291:Core/Src/GUI_Paint.c ****                 break;
 992              		.loc 1 291 16 is_stmt 0 view .LVU246
 993 00b8 069B     		ldr	r3, [sp, #24]
 994 00ba 9D42     		cmp	r5, r3
 995 00bc E6D0     		beq	.L70
 293:Core/Src/GUI_Paint.c ****             Xpoint += XAddway;
 996              		.loc 1 293 13 is_stmt 1 view .LVU247
 997 00be 079B     		ldr	r3, [sp, #28]
 998 00c0 A8EB0308 		sub	r8, r8, r3
 999              	.LVL84:
 294:Core/Src/GUI_Paint.c ****         }
 1000              		.loc 1 294 13 view .LVU248
 294:Core/Src/GUI_Paint.c ****         }
 1001              		.loc 1 294 20 is_stmt 0 view .LVU249
 1002 00c4 089B     		ldr	r3, [sp, #32]
 1003 00c6 1D44     		add	r5, r5, r3
 1004              	.LVL85:
 294:Core/Src/GUI_Paint.c ****         }
 1005              		.loc 1 294 20 view .LVU250
 1006 00c8 ADB2     		uxth	r5, r5
 1007              	.LVL86:
 1008              	.L79:
 296:Core/Src/GUI_Paint.c ****             if (Ypoint == Yend)
 1009              		.loc 1 296 9 is_stmt 1 view .LVU251
 296:Core/Src/GUI_Paint.c ****             if (Ypoint == Yend)
 1010              		.loc 1 296 12 is_stmt 0 view .LVU252
 1011 00ca B9EB480F 		cmp	r9, r8, lsl #1
 1012 00ce 06DB     		blt	.L76
 297:Core/Src/GUI_Paint.c ****                 break;
 1013              		.loc 1 297 13 is_stmt 1 view .LVU253
 297:Core/Src/GUI_Paint.c ****                 break;
 1014              		.loc 1 297 16 is_stmt 0 view .LVU254
 1015 00d0 059B     		ldr	r3, [sp, #20]
 1016 00d2 9E42     		cmp	r6, r3
 1017 00d4 DAD0     		beq	.L70
 299:Core/Src/GUI_Paint.c ****             Ypoint += YAddway;
 1018              		.loc 1 299 13 is_stmt 1 view .LVU255
 299:Core/Src/GUI_Paint.c ****             Ypoint += YAddway;
 1019              		.loc 1 299 17 is_stmt 0 view .LVU256
 1020 00d6 C844     		add	r8, r8, r9
 1021              	.LVL87:
 300:Core/Src/GUI_Paint.c ****         }
 1022              		.loc 1 300 13 is_stmt 1 view .LVU257
 300:Core/Src/GUI_Paint.c ****         }
 1023              		.loc 1 300 20 is_stmt 0 view .LVU258
 1024 00d8 099B     		ldr	r3, [sp, #36]
 1025 00da 1E44     		add	r6, r6, r3
 1026              	.LVL88:
 300:Core/Src/GUI_Paint.c ****         }
 1027              		.loc 1 300 20 view .LVU259
 1028 00dc B6B2     		uxth	r6, r6
 1029              	.LVL89:
 1030              	.L76:
 280:Core/Src/GUI_Paint.c ****         Dotted_Len++;
 1031              		.loc 1 280 5 is_stmt 1 view .LVU260
 281:Core/Src/GUI_Paint.c ****         //Painted dotted line, 2 point is really virtual
 1032              		.loc 1 281 9 view .LVU261
ARM GAS  C:\Users\Morroway\AppData\Local\Temp\ccIGNgOC.s 			page 27


 281:Core/Src/GUI_Paint.c ****         //Painted dotted line, 2 point is really virtual
 1033              		.loc 1 281 19 is_stmt 0 view .LVU262
 1034 00de 0134     		adds	r4, r4, #1
 1035              	.LVL90:
 281:Core/Src/GUI_Paint.c ****         //Painted dotted line, 2 point is really virtual
 1036              		.loc 1 281 19 view .LVU263
 1037 00e0 E4B2     		uxtb	r4, r4
 1038              	.LVL91:
 283:Core/Src/GUI_Paint.c ****             //Debug("LINE_DOTTED\r\n");
 1039              		.loc 1 283 9 is_stmt 1 view .LVU264
 283:Core/Src/GUI_Paint.c ****             //Debug("LINE_DOTTED\r\n");
 1040              		.loc 1 283 12 is_stmt 0 view .LVU265
 1041 00e2 BAF1010F 		cmp	r10, #1
 1042 00e6 DCD1     		bne	.L77
 283:Core/Src/GUI_Paint.c ****             //Debug("LINE_DOTTED\r\n");
 1043              		.loc 1 283 63 discriminator 1 view .LVU266
 1044 00e8 0C4A     		ldr	r2, .L84+8
 1045 00ea A2FB0432 		umull	r3, r2, r2, r4
 1046 00ee 22F00103 		bic	r3, r2, #1
 1047 00f2 03EB5203 		add	r3, r3, r2, lsr #1
 1048 00f6 E31A     		subs	r3, r4, r3
 283:Core/Src/GUI_Paint.c ****             //Debug("LINE_DOTTED\r\n");
 1049              		.loc 1 283 45 discriminator 1 view .LVU267
 1050 00f8 13F0FF07 		ands	r7, r3, #255
 1051 00fc D1D1     		bne	.L77
 285:Core/Src/GUI_Paint.c ****             Dotted_Len = 0;
 1052              		.loc 1 285 13 is_stmt 1 view .LVU268
 1053 00fe 0123     		movs	r3, #1
 1054 0100 0093     		str	r3, [sp]
 1055 0102 039B     		ldr	r3, [sp, #12]
 1056 0104 4FF6FF72 		movw	r2, #65535
 1057 0108 3146     		mov	r1, r6
 1058 010a 2846     		mov	r0, r5
 1059 010c FFF7FEFF 		bl	Paint_DrawPoint
 1060              	.LVL92:
 286:Core/Src/GUI_Paint.c ****         } else {
 1061              		.loc 1 286 13 view .LVU269
 286:Core/Src/GUI_Paint.c ****         } else {
 1062              		.loc 1 286 24 is_stmt 0 view .LVU270
 1063 0110 3C46     		mov	r4, r7
 1064 0112 CEE7     		b	.L78
 1065              	.L85:
 1066              		.align	2
 1067              	.L84:
 1068 0114 00000000 		.word	.LANCHOR0
 1069 0118 00000000 		.word	.LC9
 1070 011c ABAAAAAA 		.word	-1431655765
 1071              		.cfi_endproc
 1072              	.LFE331:
 1074              		.section	.rodata.Paint_DrawRectangle.str1.4,"aMS",%progbits,1
 1075              		.align	2
 1076              	.LC10:
 1077 0000 44656275 		.ascii	"Debug : Input exceeds the normal display range\015\000"
 1077      67203A20 
 1077      496E7075 
 1077      74206578 
 1077      63656564 
ARM GAS  C:\Users\Morroway\AppData\Local\Temp\ccIGNgOC.s 			page 28


 1078              		.section	.text.Paint_DrawRectangle,"ax",%progbits
 1079              		.align	1
 1080              		.global	Paint_DrawRectangle
 1081              		.syntax unified
 1082              		.thumb
 1083              		.thumb_func
 1085              	Paint_DrawRectangle:
 1086              	.LVL93:
 1087              	.LFB332:
 304:Core/Src/GUI_Paint.c **** 
 305:Core/Src/GUI_Paint.c **** /******************************************************************************
 306:Core/Src/GUI_Paint.c **** function:	Draw a rectangle
 307:Core/Src/GUI_Paint.c **** parameter:
 308:Core/Src/GUI_Paint.c ****     Xstart Rectangular  Starting Xpoint point coordinates
 309:Core/Src/GUI_Paint.c ****     Ystart Rectangular  Starting Xpoint point coordinates
 310:Core/Src/GUI_Paint.c ****     Xend   Rectangular  End point Xpoint coordinate
 311:Core/Src/GUI_Paint.c ****     Yend   Rectangular  End point Ypoint coordinate
 312:Core/Src/GUI_Paint.c ****     Color  The color of the Rectangular segment
 313:Core/Src/GUI_Paint.c ****     Filled : Whether it is filled--- 1 solid 0empty
 314:Core/Src/GUI_Paint.c **** ******************************************************************************/
 315:Core/Src/GUI_Paint.c **** void Paint_DrawRectangle(UWORD Xstart, UWORD Ystart, UWORD Xend, UWORD Yend,
 316:Core/Src/GUI_Paint.c ****                          UWORD Color, DRAW_FILL Filled, DOT_PIXEL Dot_Pixel)
 317:Core/Src/GUI_Paint.c **** {
 1088              		.loc 1 317 1 is_stmt 1 view -0
 1089              		.cfi_startproc
 1090              		@ args = 12, pretend = 0, frame = 0
 1091              		@ frame_needed = 0, uses_anonymous_args = 0
 1092              		.loc 1 317 1 is_stmt 0 view .LVU272
 1093 0000 2DE9F047 		push	{r4, r5, r6, r7, r8, r9, r10, lr}
 1094              		.cfi_def_cfa_offset 32
 1095              		.cfi_offset 4, -32
 1096              		.cfi_offset 5, -28
 1097              		.cfi_offset 6, -24
 1098              		.cfi_offset 7, -20
 1099              		.cfi_offset 8, -16
 1100              		.cfi_offset 9, -12
 1101              		.cfi_offset 10, -8
 1102              		.cfi_offset 14, -4
 1103 0004 84B0     		sub	sp, sp, #16
 1104              		.cfi_def_cfa_offset 48
 1105 0006 1646     		mov	r6, r2
 1106 0008 1F46     		mov	r7, r3
 1107 000a BDF83080 		ldrh	r8, [sp, #48]
 1108 000e 9DF83420 		ldrb	r2, [sp, #52]	@ zero_extendqisi2
 1109              	.LVL94:
 1110              		.loc 1 317 1 view .LVU273
 1111 0012 9DF83890 		ldrb	r9, [sp, #56]	@ zero_extendqisi2
 318:Core/Src/GUI_Paint.c ****     if (Xstart > Paint.Width || Ystart > Paint.Height ||
 1112              		.loc 1 318 5 is_stmt 1 view .LVU274
 1113              		.loc 1 318 23 is_stmt 0 view .LVU275
 1114 0016 304B     		ldr	r3, .L95
 1115              	.LVL95:
 1116              		.loc 1 318 23 view .LVU276
 1117 0018 9B88     		ldrh	r3, [r3, #4]
 1118 001a 9BB2     		uxth	r3, r3
 1119              		.loc 1 318 8 view .LVU277
 1120 001c 8342     		cmp	r3, r0
ARM GAS  C:\Users\Morroway\AppData\Local\Temp\ccIGNgOC.s 			page 29


 1121 001e 43D3     		bcc	.L87
 1122 0020 0546     		mov	r5, r0
 1123 0022 0C46     		mov	r4, r1
 1124              		.loc 1 318 47 discriminator 1 view .LVU278
 1125 0024 2C4B     		ldr	r3, .L95
 1126 0026 DB88     		ldrh	r3, [r3, #6]
 1127 0028 9BB2     		uxth	r3, r3
 1128              		.loc 1 318 30 discriminator 1 view .LVU279
 1129 002a 8B42     		cmp	r3, r1
 1130 002c 3CD3     		bcc	.L87
 319:Core/Src/GUI_Paint.c ****         Xend > Paint.Width || Yend > Paint.Height) {
 1131              		.loc 1 319 21 discriminator 2 view .LVU280
 1132 002e 2A4B     		ldr	r3, .L95
 1133 0030 9B88     		ldrh	r3, [r3, #4]
 1134 0032 9BB2     		uxth	r3, r3
 318:Core/Src/GUI_Paint.c ****     if (Xstart > Paint.Width || Ystart > Paint.Height ||
 1135              		.loc 1 318 55 discriminator 2 view .LVU281
 1136 0034 B342     		cmp	r3, r6
 1137 0036 37D3     		bcc	.L87
 1138              		.loc 1 319 43 view .LVU282
 1139 0038 274B     		ldr	r3, .L95
 1140 003a DB88     		ldrh	r3, [r3, #6]
 1141 003c 9BB2     		uxth	r3, r3
 1142              		.loc 1 319 28 view .LVU283
 1143 003e BB42     		cmp	r3, r7
 1144 0040 32D3     		bcc	.L87
 320:Core/Src/GUI_Paint.c ****         Debug("Input exceeds the normal display range\r\n");
 321:Core/Src/GUI_Paint.c ****         return;
 322:Core/Src/GUI_Paint.c ****     }
 323:Core/Src/GUI_Paint.c **** 
 324:Core/Src/GUI_Paint.c ****     if (Filled ) {
 1145              		.loc 1 324 5 is_stmt 1 view .LVU284
 1146              		.loc 1 324 8 is_stmt 0 view .LVU285
 1147 0042 002A     		cmp	r2, #0
 1148 0044 44D1     		bne	.L90
 325:Core/Src/GUI_Paint.c ****         UWORD Ypoint;
 326:Core/Src/GUI_Paint.c ****         for(Ypoint = Ystart; Ypoint < Yend; Ypoint++) {
 327:Core/Src/GUI_Paint.c ****             Paint_DrawLine(Xstart, Ypoint, Xend, Ypoint, Color , LINE_STYLE_SOLID, Dot_Pixel);
 328:Core/Src/GUI_Paint.c ****         }
 329:Core/Src/GUI_Paint.c ****     } else {
 330:Core/Src/GUI_Paint.c ****         Paint_DrawLine(Xstart, Ystart, Xend, Ystart, Color , LINE_STYLE_SOLID, Dot_Pixel);
 1149              		.loc 1 330 9 is_stmt 1 view .LVU286
 1150 0046 CDF80890 		str	r9, [sp, #8]
 1151 004a 4FF0000A 		mov	r10, #0
 1152 004e CDF804A0 		str	r10, [sp, #4]
 1153 0052 CDF80080 		str	r8, [sp]
 1154 0056 0B46     		mov	r3, r1
 1155 0058 3246     		mov	r2, r6
 1156 005a FFF7FEFF 		bl	Paint_DrawLine
 1157              	.LVL96:
 331:Core/Src/GUI_Paint.c ****         Paint_DrawLine(Xstart, Ystart, Xstart, Yend, Color , LINE_STYLE_SOLID, Dot_Pixel);
 1158              		.loc 1 331 9 view .LVU287
 1159 005e CDF80890 		str	r9, [sp, #8]
 1160 0062 CDF804A0 		str	r10, [sp, #4]
 1161 0066 CDF80080 		str	r8, [sp]
 1162 006a 3B46     		mov	r3, r7
 1163 006c 2A46     		mov	r2, r5
ARM GAS  C:\Users\Morroway\AppData\Local\Temp\ccIGNgOC.s 			page 30


 1164 006e 2146     		mov	r1, r4
 1165 0070 2846     		mov	r0, r5
 1166 0072 FFF7FEFF 		bl	Paint_DrawLine
 1167              	.LVL97:
 332:Core/Src/GUI_Paint.c ****         Paint_DrawLine(Xend, Yend, Xend, Ystart, Color , LINE_STYLE_SOLID, Dot_Pixel);
 1168              		.loc 1 332 9 view .LVU288
 1169 0076 CDF80890 		str	r9, [sp, #8]
 1170 007a CDF804A0 		str	r10, [sp, #4]
 1171 007e CDF80080 		str	r8, [sp]
 1172 0082 2346     		mov	r3, r4
 1173 0084 3246     		mov	r2, r6
 1174 0086 3946     		mov	r1, r7
 1175 0088 3046     		mov	r0, r6
 1176 008a FFF7FEFF 		bl	Paint_DrawLine
 1177              	.LVL98:
 333:Core/Src/GUI_Paint.c ****         Paint_DrawLine(Xend, Yend, Xstart, Yend, Color , LINE_STYLE_SOLID, Dot_Pixel);
 1178              		.loc 1 333 9 view .LVU289
 1179 008e CDF80890 		str	r9, [sp, #8]
 1180 0092 CDF804A0 		str	r10, [sp, #4]
 1181 0096 CDF80080 		str	r8, [sp]
 1182 009a 3B46     		mov	r3, r7
 1183 009c 2A46     		mov	r2, r5
 1184 009e 3946     		mov	r1, r7
 1185 00a0 3046     		mov	r0, r6
 1186 00a2 FFF7FEFF 		bl	Paint_DrawLine
 1187              	.LVL99:
 1188 00a6 02E0     		b	.L86
 1189              	.LVL100:
 1190              	.L87:
 320:Core/Src/GUI_Paint.c ****         return;
 1191              		.loc 1 320 9 view .LVU290
 1192 00a8 0C48     		ldr	r0, .L95+4
 1193              	.LVL101:
 320:Core/Src/GUI_Paint.c ****         return;
 1194              		.loc 1 320 9 is_stmt 0 view .LVU291
 1195 00aa FFF7FEFF 		bl	puts
 1196              	.LVL102:
 321:Core/Src/GUI_Paint.c ****     }
 1197              		.loc 1 321 9 is_stmt 1 view .LVU292
 1198              	.L86:
 334:Core/Src/GUI_Paint.c ****     }
 335:Core/Src/GUI_Paint.c **** }
 1199              		.loc 1 335 1 is_stmt 0 view .LVU293
 1200 00ae 04B0     		add	sp, sp, #16
 1201              		.cfi_remember_state
 1202              		.cfi_def_cfa_offset 32
 1203              		@ sp needed
 1204 00b0 BDE8F087 		pop	{r4, r5, r6, r7, r8, r9, r10, pc}
 1205              	.LVL103:
 1206              	.L92:
 1207              		.cfi_restore_state
 1208              	.LBB2:
 327:Core/Src/GUI_Paint.c ****         }
 1209              		.loc 1 327 13 is_stmt 1 discriminator 3 view .LVU294
 1210 00b4 CDF80890 		str	r9, [sp, #8]
 1211 00b8 0023     		movs	r3, #0
 1212 00ba 0193     		str	r3, [sp, #4]
ARM GAS  C:\Users\Morroway\AppData\Local\Temp\ccIGNgOC.s 			page 31


 1213 00bc CDF80080 		str	r8, [sp]
 1214 00c0 2346     		mov	r3, r4
 1215 00c2 3246     		mov	r2, r6
 1216 00c4 2146     		mov	r1, r4
 1217 00c6 2846     		mov	r0, r5
 1218 00c8 FFF7FEFF 		bl	Paint_DrawLine
 1219              	.LVL104:
 326:Core/Src/GUI_Paint.c ****             Paint_DrawLine(Xstart, Ypoint, Xend, Ypoint, Color , LINE_STYLE_SOLID, Dot_Pixel);
 1220              		.loc 1 326 51 discriminator 3 view .LVU295
 1221 00cc 0134     		adds	r4, r4, #1
 1222              	.LVL105:
 326:Core/Src/GUI_Paint.c ****             Paint_DrawLine(Xstart, Ypoint, Xend, Ypoint, Color , LINE_STYLE_SOLID, Dot_Pixel);
 1223              		.loc 1 326 51 is_stmt 0 discriminator 3 view .LVU296
 1224 00ce A4B2     		uxth	r4, r4
 1225              	.LVL106:
 1226              	.L90:
 326:Core/Src/GUI_Paint.c ****             Paint_DrawLine(Xstart, Ypoint, Xend, Ypoint, Color , LINE_STYLE_SOLID, Dot_Pixel);
 1227              		.loc 1 326 37 is_stmt 1 discriminator 1 view .LVU297
 1228 00d0 BC42     		cmp	r4, r7
 1229 00d2 EFD3     		bcc	.L92
 1230 00d4 EBE7     		b	.L86
 1231              	.L96:
 1232 00d6 00BF     		.align	2
 1233              	.L95:
 1234 00d8 00000000 		.word	.LANCHOR0
 1235 00dc 00000000 		.word	.LC10
 1236              	.LBE2:
 1237              		.cfi_endproc
 1238              	.LFE332:
 1240              		.section	.rodata.Paint_DrawCircle.str1.4,"aMS",%progbits,1
 1241              		.align	2
 1242              	.LC11:
 1243 0000 44656275 		.ascii	"Debug : Paint_DrawCircle Input exceeds the normal d"
 1243      67203A20 
 1243      5061696E 
 1243      745F4472 
 1243      61774369 
 1244 0033 6973706C 		.ascii	"isplay range\015\000"
 1244      61792072 
 1244      616E6765 
 1244      0D00
 1245              		.section	.text.Paint_DrawCircle,"ax",%progbits
 1246              		.align	1
 1247              		.global	Paint_DrawCircle
 1248              		.syntax unified
 1249              		.thumb
 1250              		.thumb_func
 1252              	Paint_DrawCircle:
 1253              	.LVL107:
 1254              	.LFB333:
 336:Core/Src/GUI_Paint.c **** 
 337:Core/Src/GUI_Paint.c **** /******************************************************************************
 338:Core/Src/GUI_Paint.c **** function:	Use the 8-point method to draw a circle of the
 339:Core/Src/GUI_Paint.c ****             specified size at the specified position->
 340:Core/Src/GUI_Paint.c **** parameter:
 341:Core/Src/GUI_Paint.c ****     X_Center  Center X coordinate
 342:Core/Src/GUI_Paint.c ****     Y_Center  Center Y coordinate
ARM GAS  C:\Users\Morroway\AppData\Local\Temp\ccIGNgOC.s 			page 32


 343:Core/Src/GUI_Paint.c ****     Radius    circle Radius
 344:Core/Src/GUI_Paint.c ****     Color     The color of the circle segment
 345:Core/Src/GUI_Paint.c ****     Filled    : Whether it is filled: 1 filling 0Do not
 346:Core/Src/GUI_Paint.c **** ******************************************************************************/
 347:Core/Src/GUI_Paint.c **** void Paint_DrawCircle(UWORD X_Center, UWORD Y_Center, UWORD Radius,
 348:Core/Src/GUI_Paint.c ****                       UWORD Color, DRAW_FILL  Draw_Fill , DOT_PIXEL Dot_Pixel)
 349:Core/Src/GUI_Paint.c **** {
 1255              		.loc 1 349 1 view -0
 1256              		.cfi_startproc
 1257              		@ args = 8, pretend = 0, frame = 32
 1258              		@ frame_needed = 0, uses_anonymous_args = 0
 1259              		.loc 1 349 1 is_stmt 0 view .LVU299
 1260 0000 2DE9F04F 		push	{r4, r5, r6, r7, r8, r9, r10, fp, lr}
 1261              		.cfi_def_cfa_offset 36
 1262              		.cfi_offset 4, -36
 1263              		.cfi_offset 5, -32
 1264              		.cfi_offset 6, -28
 1265              		.cfi_offset 7, -24
 1266              		.cfi_offset 8, -20
 1267              		.cfi_offset 9, -16
 1268              		.cfi_offset 10, -12
 1269              		.cfi_offset 11, -8
 1270              		.cfi_offset 14, -4
 1271 0004 8BB0     		sub	sp, sp, #44
 1272              		.cfi_def_cfa_offset 80
 1273 0006 0391     		str	r1, [sp, #12]
 1274 0008 9B46     		mov	fp, r3
 1275 000a 9DF85480 		ldrb	r8, [sp, #84]	@ zero_extendqisi2
 350:Core/Src/GUI_Paint.c ****     if (X_Center > Paint.Width || Y_Center >= Paint.Height) {
 1276              		.loc 1 350 5 is_stmt 1 view .LVU300
 1277              		.loc 1 350 25 is_stmt 0 view .LVU301
 1278 000e 8E4B     		ldr	r3, .L115
 1279              	.LVL108:
 1280              		.loc 1 350 25 view .LVU302
 1281 0010 9B88     		ldrh	r3, [r3, #4]
 1282 0012 9BB2     		uxth	r3, r3
 1283              		.loc 1 350 8 view .LVU303
 1284 0014 8342     		cmp	r3, r0
 1285 0016 15D3     		bcc	.L98
 1286              		.loc 1 350 52 discriminator 1 view .LVU304
 1287 0018 8B4B     		ldr	r3, .L115
 1288 001a DB88     		ldrh	r3, [r3, #6]
 1289 001c 9BB2     		uxth	r3, r3
 1290              		.loc 1 350 32 discriminator 1 view .LVU305
 1291 001e 8B42     		cmp	r3, r1
 1292 0020 10D9     		bls	.L98
 351:Core/Src/GUI_Paint.c ****         Debug("Paint_DrawCircle Input exceeds the normal display range\r\n");
 352:Core/Src/GUI_Paint.c ****         return;
 353:Core/Src/GUI_Paint.c ****     }
 354:Core/Src/GUI_Paint.c **** 
 355:Core/Src/GUI_Paint.c ****     //Draw a circle from(0, R) as a starting point
 356:Core/Src/GUI_Paint.c ****     int16_t XCurrent, YCurrent;
 1293              		.loc 1 356 5 is_stmt 1 view .LVU306
 357:Core/Src/GUI_Paint.c ****     XCurrent = 0;
 1294              		.loc 1 357 5 view .LVU307
 1295              	.LVL109:
 358:Core/Src/GUI_Paint.c ****     YCurrent = Radius;
ARM GAS  C:\Users\Morroway\AppData\Local\Temp\ccIGNgOC.s 			page 33


 1296              		.loc 1 358 5 view .LVU308
 1297              		.loc 1 358 14 is_stmt 0 view .LVU309
 1298 0022 13B2     		sxth	r3, r2
 1299 0024 0493     		str	r3, [sp, #16]
 1300              	.LVL110:
 359:Core/Src/GUI_Paint.c **** 
 360:Core/Src/GUI_Paint.c ****     //Cumulative error,judge the next point of the logo
 361:Core/Src/GUI_Paint.c ****     int16_t Esp = 3 - (Radius << 1 );
 1301              		.loc 1 361 5 is_stmt 1 view .LVU310
 1302              		.loc 1 361 31 is_stmt 0 view .LVU311
 1303 0026 5300     		lsls	r3, r2, #1
 1304 0028 9BB2     		uxth	r3, r3
 1305              		.loc 1 361 21 view .LVU312
 1306 002a C3F10303 		rsb	r3, r3, #3
 1307              		.loc 1 361 13 view .LVU313
 1308 002e 1BB2     		sxth	r3, r3
 1309 0030 0793     		str	r3, [sp, #28]
 1310              	.LVL111:
 362:Core/Src/GUI_Paint.c **** 
 363:Core/Src/GUI_Paint.c ****     int16_t sCountY;
 1311              		.loc 1 363 5 is_stmt 1 view .LVU314
 364:Core/Src/GUI_Paint.c ****     if (Draw_Fill == DRAW_FILL_FULL) {
 1312              		.loc 1 364 5 view .LVU315
 1313              		.loc 1 364 8 is_stmt 0 view .LVU316
 1314 0032 9DF85030 		ldrb	r3, [sp, #80]	@ zero_extendqisi2
 1315 0036 012B     		cmp	r3, #1
 1316 0038 00F08980 		beq	.L110
 357:Core/Src/GUI_Paint.c ****     YCurrent = Radius;
 1317              		.loc 1 357 14 view .LVU317
 1318 003c 0023     		movs	r3, #0
 1319 003e 0593     		str	r3, [sp, #20]
 1320 0040 8246     		mov	r10, r0
 1321 0042 91E0     		b	.L102
 1322              	.LVL112:
 1323              	.L98:
 351:Core/Src/GUI_Paint.c ****         return;
 1324              		.loc 1 351 9 is_stmt 1 view .LVU318
 1325 0044 8148     		ldr	r0, .L115+4
 1326              	.LVL113:
 351:Core/Src/GUI_Paint.c ****         return;
 1327              		.loc 1 351 9 is_stmt 0 view .LVU319
 1328 0046 FFF7FEFF 		bl	puts
 1329              	.LVL114:
 352:Core/Src/GUI_Paint.c ****     }
 1330              		.loc 1 352 9 is_stmt 1 view .LVU320
 1331              	.L97:
 365:Core/Src/GUI_Paint.c ****         while (XCurrent <= YCurrent ) { //Realistic circles
 366:Core/Src/GUI_Paint.c ****             for (sCountY = XCurrent; sCountY <= YCurrent; sCountY ++ ) {
 367:Core/Src/GUI_Paint.c ****                 Paint_DrawPoint(X_Center + XCurrent, Y_Center + sCountY, Color, DOT_PIXEL_DFT, DOT_
 368:Core/Src/GUI_Paint.c ****                 Paint_DrawPoint(X_Center - XCurrent, Y_Center + sCountY, Color, DOT_PIXEL_DFT, DOT_
 369:Core/Src/GUI_Paint.c ****                 Paint_DrawPoint(X_Center - sCountY, Y_Center + XCurrent, Color, DOT_PIXEL_DFT, DOT_
 370:Core/Src/GUI_Paint.c ****                 Paint_DrawPoint(X_Center - sCountY, Y_Center - XCurrent, Color, DOT_PIXEL_DFT, DOT_
 371:Core/Src/GUI_Paint.c ****                 Paint_DrawPoint(X_Center - XCurrent, Y_Center - sCountY, Color, DOT_PIXEL_DFT, DOT_
 372:Core/Src/GUI_Paint.c ****                 Paint_DrawPoint(X_Center + XCurrent, Y_Center - sCountY, Color, DOT_PIXEL_DFT, DOT_
 373:Core/Src/GUI_Paint.c ****                 Paint_DrawPoint(X_Center + sCountY, Y_Center - XCurrent, Color, DOT_PIXEL_DFT, DOT_
 374:Core/Src/GUI_Paint.c ****                 Paint_DrawPoint(X_Center + sCountY, Y_Center + XCurrent, Color, DOT_PIXEL_DFT, DOT_
 375:Core/Src/GUI_Paint.c ****             }
ARM GAS  C:\Users\Morroway\AppData\Local\Temp\ccIGNgOC.s 			page 34


 376:Core/Src/GUI_Paint.c ****             if (Esp < 0 )
 377:Core/Src/GUI_Paint.c ****                 Esp += 4 * XCurrent + 6;
 378:Core/Src/GUI_Paint.c ****             else {
 379:Core/Src/GUI_Paint.c ****                 Esp += 10 + 4 * (XCurrent - YCurrent );
 380:Core/Src/GUI_Paint.c ****                 YCurrent --;
 381:Core/Src/GUI_Paint.c ****             }
 382:Core/Src/GUI_Paint.c ****             XCurrent ++;
 383:Core/Src/GUI_Paint.c ****         }
 384:Core/Src/GUI_Paint.c ****     } else { //Draw a hollow circle
 385:Core/Src/GUI_Paint.c ****         while (XCurrent <= YCurrent ) {
 386:Core/Src/GUI_Paint.c ****             Paint_DrawPoint(X_Center + XCurrent, Y_Center + YCurrent, Color, Dot_Pixel, DOT_STYLE_D
 387:Core/Src/GUI_Paint.c ****             Paint_DrawPoint(X_Center - XCurrent, Y_Center + YCurrent, Color, Dot_Pixel, DOT_STYLE_D
 388:Core/Src/GUI_Paint.c ****             Paint_DrawPoint(X_Center - YCurrent, Y_Center + XCurrent, Color, Dot_Pixel, DOT_STYLE_D
 389:Core/Src/GUI_Paint.c ****             Paint_DrawPoint(X_Center - YCurrent, Y_Center - XCurrent, Color, Dot_Pixel, DOT_STYLE_D
 390:Core/Src/GUI_Paint.c ****             Paint_DrawPoint(X_Center - XCurrent, Y_Center - YCurrent, Color, Dot_Pixel, DOT_STYLE_D
 391:Core/Src/GUI_Paint.c ****             Paint_DrawPoint(X_Center + XCurrent, Y_Center - YCurrent, Color, Dot_Pixel, DOT_STYLE_D
 392:Core/Src/GUI_Paint.c ****             Paint_DrawPoint(X_Center + YCurrent, Y_Center - XCurrent, Color, Dot_Pixel, DOT_STYLE_D
 393:Core/Src/GUI_Paint.c ****             Paint_DrawPoint(X_Center + YCurrent, Y_Center + XCurrent, Color, Dot_Pixel, DOT_STYLE_D
 394:Core/Src/GUI_Paint.c **** 
 395:Core/Src/GUI_Paint.c ****             if (Esp < 0 )
 396:Core/Src/GUI_Paint.c ****                 Esp += 4 * XCurrent + 6;
 397:Core/Src/GUI_Paint.c ****             else {
 398:Core/Src/GUI_Paint.c ****                 Esp += 10 + 4 * (XCurrent - YCurrent );
 399:Core/Src/GUI_Paint.c ****                 YCurrent --;
 400:Core/Src/GUI_Paint.c ****             }
 401:Core/Src/GUI_Paint.c ****             XCurrent ++;
 402:Core/Src/GUI_Paint.c ****         }
 403:Core/Src/GUI_Paint.c ****     }
 404:Core/Src/GUI_Paint.c **** }
 1332              		.loc 1 404 1 is_stmt 0 view .LVU321
 1333 004a 0BB0     		add	sp, sp, #44
 1334              		.cfi_remember_state
 1335              		.cfi_def_cfa_offset 36
 1336              		@ sp needed
 1337 004c BDE8F08F 		pop	{r4, r5, r6, r7, r8, r9, r10, fp, pc}
 1338              	.LVL115:
 1339              	.L103:
 1340              		.cfi_restore_state
 367:Core/Src/GUI_Paint.c ****                 Paint_DrawPoint(X_Center - XCurrent, Y_Center + sCountY, Color, DOT_PIXEL_DFT, DOT_
 1341              		.loc 1 367 17 is_stmt 1 discriminator 3 view .LVU322
 1342 0050 BDF81860 		ldrh	r6, [sp, #24]
 1343 0054 06EB0903 		add	r3, r6, r9
 1344 0058 98B2     		uxth	r0, r3
 1345 005a ADB2     		uxth	r5, r5
 367:Core/Src/GUI_Paint.c ****                 Paint_DrawPoint(X_Center - XCurrent, Y_Center + sCountY, Color, DOT_PIXEL_DFT, DOT_
 1346              		.loc 1 367 17 is_stmt 0 discriminator 3 view .LVU323
 1347 005c 039B     		ldr	r3, [sp, #12]
 1348 005e EF18     		adds	r7, r5, r3
 1349 0060 BFB2     		uxth	r7, r7
 1350 0062 0124     		movs	r4, #1
 1351 0064 0094     		str	r4, [sp]
 1352 0066 2346     		mov	r3, r4
 1353 0068 5A46     		mov	r2, fp
 1354 006a 3946     		mov	r1, r7
 1355 006c 0590     		str	r0, [sp, #20]
 1356 006e FFF7FEFF 		bl	Paint_DrawPoint
 1357              	.LVL116:
ARM GAS  C:\Users\Morroway\AppData\Local\Temp\ccIGNgOC.s 			page 35


 368:Core/Src/GUI_Paint.c ****                 Paint_DrawPoint(X_Center - sCountY, Y_Center + XCurrent, Color, DOT_PIXEL_DFT, DOT_
 1358              		.loc 1 368 17 is_stmt 1 discriminator 3 view .LVU324
 1359 0072 A9EB0608 		sub	r8, r9, r6
 1360 0076 1FFA88F8 		uxth	r8, r8
 1361 007a 0094     		str	r4, [sp]
 1362 007c 2346     		mov	r3, r4
 1363 007e 5A46     		mov	r2, fp
 1364 0080 3946     		mov	r1, r7
 1365 0082 4046     		mov	r0, r8
 1366 0084 FFF7FEFF 		bl	Paint_DrawPoint
 1367              	.LVL117:
 369:Core/Src/GUI_Paint.c ****                 Paint_DrawPoint(X_Center - sCountY, Y_Center - XCurrent, Color, DOT_PIXEL_DFT, DOT_
 1368              		.loc 1 369 17 discriminator 3 view .LVU325
 1369 0088 A9EB050A 		sub	r10, r9, r5
 1370 008c 1FFA8AFA 		uxth	r10, r10
 1371 0090 039B     		ldr	r3, [sp, #12]
 1372 0092 F718     		adds	r7, r6, r3
 1373 0094 BFB2     		uxth	r7, r7
 1374 0096 0094     		str	r4, [sp]
 1375 0098 2346     		mov	r3, r4
 1376 009a 5A46     		mov	r2, fp
 1377 009c 3946     		mov	r1, r7
 1378 009e 5046     		mov	r0, r10
 1379 00a0 FFF7FEFF 		bl	Paint_DrawPoint
 1380              	.LVL118:
 370:Core/Src/GUI_Paint.c ****                 Paint_DrawPoint(X_Center - XCurrent, Y_Center - sCountY, Color, DOT_PIXEL_DFT, DOT_
 1381              		.loc 1 370 17 discriminator 3 view .LVU326
 1382 00a4 039B     		ldr	r3, [sp, #12]
 1383 00a6 9E1B     		subs	r6, r3, r6
 1384 00a8 B6B2     		uxth	r6, r6
 1385 00aa 0094     		str	r4, [sp]
 1386 00ac 2346     		mov	r3, r4
 1387 00ae 5A46     		mov	r2, fp
 1388 00b0 3146     		mov	r1, r6
 1389 00b2 5046     		mov	r0, r10
 1390 00b4 FFF7FEFF 		bl	Paint_DrawPoint
 1391              	.LVL119:
 371:Core/Src/GUI_Paint.c ****                 Paint_DrawPoint(X_Center + XCurrent, Y_Center - sCountY, Color, DOT_PIXEL_DFT, DOT_
 1392              		.loc 1 371 17 discriminator 3 view .LVU327
 1393 00b8 039B     		ldr	r3, [sp, #12]
 1394 00ba A3EB050A 		sub	r10, r3, r5
 1395 00be 1FFA8AFA 		uxth	r10, r10
 1396 00c2 0094     		str	r4, [sp]
 1397 00c4 2346     		mov	r3, r4
 1398 00c6 5A46     		mov	r2, fp
 1399 00c8 5146     		mov	r1, r10
 1400 00ca 4046     		mov	r0, r8
 1401 00cc FFF7FEFF 		bl	Paint_DrawPoint
 1402              	.LVL120:
 372:Core/Src/GUI_Paint.c ****                 Paint_DrawPoint(X_Center + sCountY, Y_Center - XCurrent, Color, DOT_PIXEL_DFT, DOT_
 1403              		.loc 1 372 17 discriminator 3 view .LVU328
 1404 00d0 0094     		str	r4, [sp]
 1405 00d2 2346     		mov	r3, r4
 1406 00d4 5A46     		mov	r2, fp
 1407 00d6 5146     		mov	r1, r10
 1408 00d8 0598     		ldr	r0, [sp, #20]
 1409 00da FFF7FEFF 		bl	Paint_DrawPoint
ARM GAS  C:\Users\Morroway\AppData\Local\Temp\ccIGNgOC.s 			page 36


 1410              	.LVL121:
 373:Core/Src/GUI_Paint.c ****                 Paint_DrawPoint(X_Center + sCountY, Y_Center + XCurrent, Color, DOT_PIXEL_DFT, DOT_
 1411              		.loc 1 373 17 discriminator 3 view .LVU329
 1412 00de 05EB0908 		add	r8, r5, r9
 1413 00e2 1FFA88F8 		uxth	r8, r8
 1414 00e6 0094     		str	r4, [sp]
 1415 00e8 2346     		mov	r3, r4
 1416 00ea 5A46     		mov	r2, fp
 1417 00ec 3146     		mov	r1, r6
 1418 00ee 4046     		mov	r0, r8
 1419 00f0 FFF7FEFF 		bl	Paint_DrawPoint
 1420              	.LVL122:
 374:Core/Src/GUI_Paint.c ****             }
 1421              		.loc 1 374 17 discriminator 3 view .LVU330
 1422 00f4 0094     		str	r4, [sp]
 1423 00f6 2346     		mov	r3, r4
 1424 00f8 5A46     		mov	r2, fp
 1425 00fa 3946     		mov	r1, r7
 1426 00fc 4046     		mov	r0, r8
 1427 00fe FFF7FEFF 		bl	Paint_DrawPoint
 1428              	.LVL123:
 366:Core/Src/GUI_Paint.c ****                 Paint_DrawPoint(X_Center + XCurrent, Y_Center + sCountY, Color, DOT_PIXEL_DFT, DOT_
 1429              		.loc 1 366 67 discriminator 3 view .LVU331
 1430 0102 2544     		add	r5, r5, r4
 1431              	.LVL124:
 366:Core/Src/GUI_Paint.c ****                 Paint_DrawPoint(X_Center + XCurrent, Y_Center + sCountY, Color, DOT_PIXEL_DFT, DOT_
 1432              		.loc 1 366 67 is_stmt 0 discriminator 3 view .LVU332
 1433 0104 2DB2     		sxth	r5, r5
 1434              	.LVL125:
 1435              	.L106:
 366:Core/Src/GUI_Paint.c ****                 Paint_DrawPoint(X_Center + XCurrent, Y_Center + sCountY, Color, DOT_PIXEL_DFT, DOT_
 1436              		.loc 1 366 46 is_stmt 1 discriminator 1 view .LVU333
 1437 0106 049B     		ldr	r3, [sp, #16]
 1438 0108 AB42     		cmp	r3, r5
 1439 010a A1DA     		bge	.L103
 376:Core/Src/GUI_Paint.c ****                 Esp += 4 * XCurrent + 6;
 1440              		.loc 1 376 13 view .LVU334
 376:Core/Src/GUI_Paint.c ****                 Esp += 4 * XCurrent + 6;
 1441              		.loc 1 376 16 is_stmt 0 view .LVU335
 1442 010c 079A     		ldr	r2, [sp, #28]
 1443 010e 002A     		cmp	r2, #0
 1444 0110 15DB     		blt	.L113
 379:Core/Src/GUI_Paint.c ****                 YCurrent --;
 1445              		.loc 1 379 17 is_stmt 1 view .LVU336
 379:Core/Src/GUI_Paint.c ****                 YCurrent --;
 1446              		.loc 1 379 43 is_stmt 0 view .LVU337
 1447 0112 069B     		ldr	r3, [sp, #24]
 1448 0114 049A     		ldr	r2, [sp, #16]
 1449 0116 9B1A     		subs	r3, r3, r2
 379:Core/Src/GUI_Paint.c ****                 YCurrent --;
 1450              		.loc 1 379 21 view .LVU338
 1451 0118 0799     		ldr	r1, [sp, #28]
 1452 011a 01EB8303 		add	r3, r1, r3, lsl #2
 1453 011e 0A33     		adds	r3, r3, #10
 1454 0120 1BB2     		sxth	r3, r3
 1455 0122 0793     		str	r3, [sp, #28]
 1456              	.LVL126:
ARM GAS  C:\Users\Morroway\AppData\Local\Temp\ccIGNgOC.s 			page 37


 380:Core/Src/GUI_Paint.c ****             }
 1457              		.loc 1 380 17 is_stmt 1 view .LVU339
 380:Core/Src/GUI_Paint.c ****             }
 1458              		.loc 1 380 26 is_stmt 0 view .LVU340
 1459 0124 531E     		subs	r3, r2, #1
 1460 0126 1BB2     		sxth	r3, r3
 1461 0128 0493     		str	r3, [sp, #16]
 1462              	.LVL127:
 1463              	.L105:
 382:Core/Src/GUI_Paint.c ****         }
 1464              		.loc 1 382 13 is_stmt 1 view .LVU341
 382:Core/Src/GUI_Paint.c ****         }
 1465              		.loc 1 382 22 is_stmt 0 view .LVU342
 1466 012a 069B     		ldr	r3, [sp, #24]
 1467 012c 0133     		adds	r3, r3, #1
 1468 012e 1BB2     		sxth	r3, r3
 1469 0130 0693     		str	r3, [sp, #24]
 1470              	.LVL128:
 1471              	.L101:
 365:Core/Src/GUI_Paint.c ****             for (sCountY = XCurrent; sCountY <= YCurrent; sCountY ++ ) {
 1472              		.loc 1 365 25 is_stmt 1 view .LVU343
 1473 0132 069B     		ldr	r3, [sp, #24]
 1474 0134 049A     		ldr	r2, [sp, #16]
 1475 0136 9342     		cmp	r3, r2
 1476 0138 87DC     		bgt	.L97
 366:Core/Src/GUI_Paint.c ****                 Paint_DrawPoint(X_Center + XCurrent, Y_Center + sCountY, Color, DOT_PIXEL_DFT, DOT_
 1477              		.loc 1 366 26 is_stmt 0 view .LVU344
 1478 013a 069D     		ldr	r5, [sp, #24]
 1479 013c E3E7     		b	.L106
 1480              	.LVL129:
 1481              	.L113:
 377:Core/Src/GUI_Paint.c ****             else {
 1482              		.loc 1 377 17 is_stmt 1 view .LVU345
 377:Core/Src/GUI_Paint.c ****             else {
 1483              		.loc 1 377 26 is_stmt 0 view .LVU346
 1484 013e 069B     		ldr	r3, [sp, #24]
 1485 0140 9B00     		lsls	r3, r3, #2
 1486 0142 9BB2     		uxth	r3, r3
 377:Core/Src/GUI_Paint.c ****             else {
 1487              		.loc 1 377 21 view .LVU347
 1488 0144 1344     		add	r3, r3, r2
 1489 0146 0633     		adds	r3, r3, #6
 1490 0148 1BB2     		sxth	r3, r3
 1491 014a 0793     		str	r3, [sp, #28]
 1492              	.LVL130:
 377:Core/Src/GUI_Paint.c ****             else {
 1493              		.loc 1 377 21 view .LVU348
 1494 014c EDE7     		b	.L105
 1495              	.LVL131:
 1496              	.L110:
 357:Core/Src/GUI_Paint.c ****     YCurrent = Radius;
 1497              		.loc 1 357 14 view .LVU349
 1498 014e 0023     		movs	r3, #0
 1499 0150 0693     		str	r3, [sp, #24]
 1500 0152 8146     		mov	r9, r0
 1501 0154 EDE7     		b	.L101
 1502              	.LVL132:
ARM GAS  C:\Users\Morroway\AppData\Local\Temp\ccIGNgOC.s 			page 38


 1503              	.L114:
 396:Core/Src/GUI_Paint.c ****             else {
 1504              		.loc 1 396 17 is_stmt 1 view .LVU350
 396:Core/Src/GUI_Paint.c ****             else {
 1505              		.loc 1 396 26 is_stmt 0 view .LVU351
 1506 0156 AB00     		lsls	r3, r5, #2
 1507 0158 9BB2     		uxth	r3, r3
 396:Core/Src/GUI_Paint.c ****             else {
 1508              		.loc 1 396 21 view .LVU352
 1509 015a 1344     		add	r3, r3, r2
 1510 015c 0633     		adds	r3, r3, #6
 1511 015e 1BB2     		sxth	r3, r3
 1512 0160 0793     		str	r3, [sp, #28]
 1513              	.LVL133:
 1514              	.L108:
 401:Core/Src/GUI_Paint.c ****         }
 1515              		.loc 1 401 13 is_stmt 1 view .LVU353
 401:Core/Src/GUI_Paint.c ****         }
 1516              		.loc 1 401 22 is_stmt 0 view .LVU354
 1517 0162 0135     		adds	r5, r5, #1
 1518 0164 2BB2     		sxth	r3, r5
 1519 0166 0593     		str	r3, [sp, #20]
 1520              	.LVL134:
 1521              	.L102:
 385:Core/Src/GUI_Paint.c ****             Paint_DrawPoint(X_Center + XCurrent, Y_Center + YCurrent, Color, Dot_Pixel, DOT_STYLE_D
 1522              		.loc 1 385 25 is_stmt 1 view .LVU355
 1523 0168 059B     		ldr	r3, [sp, #20]
 1524 016a 049A     		ldr	r2, [sp, #16]
 1525 016c 9342     		cmp	r3, r2
 1526 016e 3FF76CAF 		bgt	.L97
 386:Core/Src/GUI_Paint.c ****             Paint_DrawPoint(X_Center - XCurrent, Y_Center + YCurrent, Color, Dot_Pixel, DOT_STYLE_D
 1527              		.loc 1 386 13 view .LVU356
 1528 0172 BDF81450 		ldrh	r5, [sp, #20]
 1529 0176 05EB0A03 		add	r3, r5, r10
 1530 017a 98B2     		uxth	r0, r3
 1531 017c BDF81060 		ldrh	r6, [sp, #16]
 1532 0180 039F     		ldr	r7, [sp, #12]
 1533 0182 F719     		adds	r7, r6, r7
 1534 0184 BFB2     		uxth	r7, r7
 1535 0186 0124     		movs	r4, #1
 1536 0188 0094     		str	r4, [sp]
 1537 018a 4346     		mov	r3, r8
 1538 018c 5A46     		mov	r2, fp
 1539 018e 3946     		mov	r1, r7
 1540 0190 0690     		str	r0, [sp, #24]
 1541 0192 FFF7FEFF 		bl	Paint_DrawPoint
 1542              	.LVL135:
 387:Core/Src/GUI_Paint.c ****             Paint_DrawPoint(X_Center - YCurrent, Y_Center + XCurrent, Color, Dot_Pixel, DOT_STYLE_D
 1543              		.loc 1 387 13 view .LVU357
 1544 0196 AAEB0503 		sub	r3, r10, r5
 1545 019a 9BB2     		uxth	r3, r3
 1546 019c 1846     		mov	r0, r3
 1547 019e 0094     		str	r4, [sp]
 1548 01a0 4346     		mov	r3, r8
 1549 01a2 5A46     		mov	r2, fp
 1550 01a4 3946     		mov	r1, r7
 1551 01a6 0890     		str	r0, [sp, #32]
ARM GAS  C:\Users\Morroway\AppData\Local\Temp\ccIGNgOC.s 			page 39


 1552 01a8 FFF7FEFF 		bl	Paint_DrawPoint
 1553              	.LVL136:
 388:Core/Src/GUI_Paint.c ****             Paint_DrawPoint(X_Center - YCurrent, Y_Center - XCurrent, Color, Dot_Pixel, DOT_STYLE_D
 1554              		.loc 1 388 13 view .LVU358
 1555 01ac AAEB0609 		sub	r9, r10, r6
 1556 01b0 1FFA89F9 		uxth	r9, r9
 1557 01b4 039F     		ldr	r7, [sp, #12]
 1558 01b6 EB19     		adds	r3, r5, r7
 1559 01b8 9AB2     		uxth	r2, r3
 1560 01ba 1146     		mov	r1, r2
 1561 01bc 0094     		str	r4, [sp]
 1562 01be 4346     		mov	r3, r8
 1563 01c0 5A46     		mov	r2, fp
 1564 01c2 0991     		str	r1, [sp, #36]
 1565 01c4 4846     		mov	r0, r9
 1566 01c6 FFF7FEFF 		bl	Paint_DrawPoint
 1567              	.LVL137:
 389:Core/Src/GUI_Paint.c ****             Paint_DrawPoint(X_Center - XCurrent, Y_Center - YCurrent, Color, Dot_Pixel, DOT_STYLE_D
 1568              		.loc 1 389 13 view .LVU359
 1569 01ca 0397     		str	r7, [sp, #12]
 1570 01cc 7F1B     		subs	r7, r7, r5
 1571 01ce BFB2     		uxth	r7, r7
 1572 01d0 0094     		str	r4, [sp]
 1573 01d2 4346     		mov	r3, r8
 1574 01d4 5A46     		mov	r2, fp
 1575 01d6 3946     		mov	r1, r7
 1576 01d8 4846     		mov	r0, r9
 1577 01da FFF7FEFF 		bl	Paint_DrawPoint
 1578              	.LVL138:
 390:Core/Src/GUI_Paint.c ****             Paint_DrawPoint(X_Center + XCurrent, Y_Center - YCurrent, Color, Dot_Pixel, DOT_STYLE_D
 1579              		.loc 1 390 13 view .LVU360
 1580 01de 039B     		ldr	r3, [sp, #12]
 1581 01e0 A3EB0609 		sub	r9, r3, r6
 1582 01e4 1FFA89F9 		uxth	r9, r9
 1583 01e8 0094     		str	r4, [sp]
 1584 01ea 4346     		mov	r3, r8
 1585 01ec 5A46     		mov	r2, fp
 1586 01ee 4946     		mov	r1, r9
 1587 01f0 0898     		ldr	r0, [sp, #32]
 1588 01f2 FFF7FEFF 		bl	Paint_DrawPoint
 1589              	.LVL139:
 391:Core/Src/GUI_Paint.c ****             Paint_DrawPoint(X_Center + YCurrent, Y_Center - XCurrent, Color, Dot_Pixel, DOT_STYLE_D
 1590              		.loc 1 391 13 view .LVU361
 1591 01f6 0094     		str	r4, [sp]
 1592 01f8 4346     		mov	r3, r8
 1593 01fa 5A46     		mov	r2, fp
 1594 01fc 4946     		mov	r1, r9
 1595 01fe 0698     		ldr	r0, [sp, #24]
 1596 0200 FFF7FEFF 		bl	Paint_DrawPoint
 1597              	.LVL140:
 392:Core/Src/GUI_Paint.c ****             Paint_DrawPoint(X_Center + YCurrent, Y_Center + XCurrent, Color, Dot_Pixel, DOT_STYLE_D
 1598              		.loc 1 392 13 view .LVU362
 1599 0204 06EB0A09 		add	r9, r6, r10
 1600 0208 1FFA89F9 		uxth	r9, r9
 1601 020c 0094     		str	r4, [sp]
 1602 020e 4346     		mov	r3, r8
 1603 0210 5A46     		mov	r2, fp
ARM GAS  C:\Users\Morroway\AppData\Local\Temp\ccIGNgOC.s 			page 40


 1604 0212 3946     		mov	r1, r7
 1605 0214 4846     		mov	r0, r9
 1606 0216 FFF7FEFF 		bl	Paint_DrawPoint
 1607              	.LVL141:
 393:Core/Src/GUI_Paint.c **** 
 1608              		.loc 1 393 13 view .LVU363
 1609 021a 0094     		str	r4, [sp]
 1610 021c 4346     		mov	r3, r8
 1611 021e 5A46     		mov	r2, fp
 1612 0220 0999     		ldr	r1, [sp, #36]
 1613 0222 4846     		mov	r0, r9
 1614 0224 FFF7FEFF 		bl	Paint_DrawPoint
 1615              	.LVL142:
 395:Core/Src/GUI_Paint.c ****                 Esp += 4 * XCurrent + 6;
 1616              		.loc 1 395 13 view .LVU364
 395:Core/Src/GUI_Paint.c ****                 Esp += 4 * XCurrent + 6;
 1617              		.loc 1 395 16 is_stmt 0 view .LVU365
 1618 0228 079A     		ldr	r2, [sp, #28]
 1619 022a 002A     		cmp	r2, #0
 1620 022c 93DB     		blt	.L114
 398:Core/Src/GUI_Paint.c ****                 YCurrent --;
 1621              		.loc 1 398 17 is_stmt 1 view .LVU366
 398:Core/Src/GUI_Paint.c ****                 YCurrent --;
 1622              		.loc 1 398 43 is_stmt 0 view .LVU367
 1623 022e 059B     		ldr	r3, [sp, #20]
 1624 0230 049A     		ldr	r2, [sp, #16]
 1625 0232 9B1A     		subs	r3, r3, r2
 398:Core/Src/GUI_Paint.c ****                 YCurrent --;
 1626              		.loc 1 398 21 view .LVU368
 1627 0234 079A     		ldr	r2, [sp, #28]
 1628 0236 02EB8303 		add	r3, r2, r3, lsl #2
 1629 023a 0A33     		adds	r3, r3, #10
 1630 023c 1BB2     		sxth	r3, r3
 1631 023e 0793     		str	r3, [sp, #28]
 1632              	.LVL143:
 399:Core/Src/GUI_Paint.c ****             }
 1633              		.loc 1 399 17 is_stmt 1 view .LVU369
 399:Core/Src/GUI_Paint.c ****             }
 1634              		.loc 1 399 26 is_stmt 0 view .LVU370
 1635 0240 013E     		subs	r6, r6, #1
 1636 0242 33B2     		sxth	r3, r6
 1637 0244 0493     		str	r3, [sp, #16]
 1638              	.LVL144:
 399:Core/Src/GUI_Paint.c ****             }
 1639              		.loc 1 399 26 view .LVU371
 1640 0246 8CE7     		b	.L108
 1641              	.L116:
 1642              		.align	2
 1643              	.L115:
 1644 0248 00000000 		.word	.LANCHOR0
 1645 024c 00000000 		.word	.LC11
 1646              		.cfi_endproc
 1647              	.LFE333:
 1649              		.section	.rodata.Paint_DrawChar.str1.4,"aMS",%progbits,1
 1650              		.align	2
 1651              	.LC12:
 1652 0000 44656275 		.ascii	"Debug : Paint_DrawChar Input exceeds the normal dis"
ARM GAS  C:\Users\Morroway\AppData\Local\Temp\ccIGNgOC.s 			page 41


 1652      67203A20 
 1652      5061696E 
 1652      745F4472 
 1652      61774368 
 1653 0033 706C6179 		.ascii	"play range\015\000"
 1653      2072616E 
 1653      67650D00 
 1654              		.section	.text.Paint_DrawChar,"ax",%progbits
 1655              		.align	1
 1656              		.global	Paint_DrawChar
 1657              		.syntax unified
 1658              		.thumb
 1659              		.thumb_func
 1661              	Paint_DrawChar:
 1662              	.LVL145:
 1663              	.LFB334:
 405:Core/Src/GUI_Paint.c **** 
 406:Core/Src/GUI_Paint.c **** /******************************************************************************
 407:Core/Src/GUI_Paint.c **** function:	Show English characters
 408:Core/Src/GUI_Paint.c **** parameter:
 409:Core/Src/GUI_Paint.c ****     Xpoint           X coordinate
 410:Core/Src/GUI_Paint.c ****     Ypoint           Y coordinate
 411:Core/Src/GUI_Paint.c ****     Acsii_Char       To display the English characters
 412:Core/Src/GUI_Paint.c ****     Font             A structure pointer that displays a character size
 413:Core/Src/GUI_Paint.c ****     Color_Background : Select the background color of the English character
 414:Core/Src/GUI_Paint.c ****     Color_Foreground : Select the foreground color of the English character
 415:Core/Src/GUI_Paint.c **** ******************************************************************************/
 416:Core/Src/GUI_Paint.c **** void Paint_DrawChar(UWORD Xpoint, UWORD Ypoint, const char Acsii_Char,
 417:Core/Src/GUI_Paint.c ****                     sFONT* Font, UWORD Color_Background, UWORD Color_Foreground)
 418:Core/Src/GUI_Paint.c **** {
 1664              		.loc 1 418 1 is_stmt 1 view -0
 1665              		.cfi_startproc
 1666              		@ args = 8, pretend = 0, frame = 0
 1667              		@ frame_needed = 0, uses_anonymous_args = 0
 1668              		.loc 1 418 1 is_stmt 0 view .LVU373
 1669 0000 2DE9F84F 		push	{r3, r4, r5, r6, r7, r8, r9, r10, fp, lr}
 1670              		.cfi_def_cfa_offset 40
 1671              		.cfi_offset 3, -40
 1672              		.cfi_offset 4, -36
 1673              		.cfi_offset 5, -32
 1674              		.cfi_offset 6, -28
 1675              		.cfi_offset 7, -24
 1676              		.cfi_offset 8, -20
 1677              		.cfi_offset 9, -16
 1678              		.cfi_offset 10, -12
 1679              		.cfi_offset 11, -8
 1680              		.cfi_offset 14, -4
 1681 0004 1F46     		mov	r7, r3
 1682 0006 BDF82880 		ldrh	r8, [sp, #40]
 1683 000a BDF82CB0 		ldrh	fp, [sp, #44]
 419:Core/Src/GUI_Paint.c ****     UWORD Page, Column;
 1684              		.loc 1 419 5 is_stmt 1 view .LVU374
 420:Core/Src/GUI_Paint.c **** 
 421:Core/Src/GUI_Paint.c ****     if (Xpoint > Paint.Width || Ypoint > Paint.Height) {
 1685              		.loc 1 421 5 view .LVU375
 1686              		.loc 1 421 23 is_stmt 0 view .LVU376
 1687 000e 334B     		ldr	r3, .L134
ARM GAS  C:\Users\Morroway\AppData\Local\Temp\ccIGNgOC.s 			page 42


 1688              	.LVL146:
 1689              		.loc 1 421 23 view .LVU377
 1690 0010 9B88     		ldrh	r3, [r3, #4]
 1691 0012 9BB2     		uxth	r3, r3
 1692              		.loc 1 421 8 view .LVU378
 1693 0014 8342     		cmp	r3, r0
 1694 0016 16D3     		bcc	.L118
 1695 0018 8146     		mov	r9, r0
 1696 001a 8A46     		mov	r10, r1
 1697              		.loc 1 421 47 discriminator 1 view .LVU379
 1698 001c 2F4B     		ldr	r3, .L134
 1699 001e DB88     		ldrh	r3, [r3, #6]
 1700 0020 9BB2     		uxth	r3, r3
 1701              		.loc 1 421 30 discriminator 1 view .LVU380
 1702 0022 8B42     		cmp	r3, r1
 1703 0024 0FD3     		bcc	.L118
 422:Core/Src/GUI_Paint.c ****         Debug("Paint_DrawChar Input exceeds the normal display range\r\n");
 423:Core/Src/GUI_Paint.c ****         return;
 424:Core/Src/GUI_Paint.c ****     }
 425:Core/Src/GUI_Paint.c **** 
 426:Core/Src/GUI_Paint.c ****     uint32_t Char_Offset = (Acsii_Char - ' ') * Font->Height * (Font->Width / 8 + (Font->Width % 8 
 1704              		.loc 1 426 5 is_stmt 1 view .LVU381
 1705              		.loc 1 426 40 is_stmt 0 view .LVU382
 1706 0026 203A     		subs	r2, r2, #32
 1707              	.LVL147:
 1708              		.loc 1 426 53 view .LVU383
 1709 0028 FB88     		ldrh	r3, [r7, #6]
 1710              		.loc 1 426 47 view .LVU384
 1711 002a 02FB03F3 		mul	r3, r2, r3
 1712              		.loc 1 426 69 view .LVU385
 1713 002e B988     		ldrh	r1, [r7, #4]
 1714              	.LVL148:
 1715              		.loc 1 426 104 view .LVU386
 1716 0030 11F00702 		ands	r2, r1, #7
 1717 0034 18BF     		it	ne
 1718 0036 0122     		movne	r2, #1
 1719              		.loc 1 426 81 view .LVU387
 1720 0038 02EBD102 		add	r2, r2, r1, lsr #3
 1721              	.LVL149:
 427:Core/Src/GUI_Paint.c ****     const unsigned char *ptr = &Font->table[Char_Offset];
 1722              		.loc 1 427 5 is_stmt 1 view .LVU388
 1723              		.loc 1 427 37 is_stmt 0 view .LVU389
 1724 003c 3D68     		ldr	r5, [r7]
 1725              		.loc 1 427 26 view .LVU390
 1726 003e 02FB0355 		mla	r5, r2, r3, r5
 1727              	.LVL150:
 428:Core/Src/GUI_Paint.c **** 
 429:Core/Src/GUI_Paint.c ****     for (Page = 0; Page < Font->Height; Page ++ ) {
 1728              		.loc 1 429 5 is_stmt 1 view .LVU391
 1729              		.loc 1 429 15 is_stmt 0 view .LVU392
 1730 0042 0026     		movs	r6, #0
 1731              		.loc 1 429 5 view .LVU393
 1732 0044 44E0     		b	.L121
 1733              	.LVL151:
 1734              	.L118:
 422:Core/Src/GUI_Paint.c ****         return;
 1735              		.loc 1 422 9 is_stmt 1 view .LVU394
ARM GAS  C:\Users\Morroway\AppData\Local\Temp\ccIGNgOC.s 			page 43


 1736 0046 2648     		ldr	r0, .L134+4
 1737              	.LVL152:
 422:Core/Src/GUI_Paint.c ****         return;
 1738              		.loc 1 422 9 is_stmt 0 view .LVU395
 1739 0048 FFF7FEFF 		bl	puts
 1740              	.LVL153:
 423:Core/Src/GUI_Paint.c ****     }
 1741              		.loc 1 423 9 is_stmt 1 view .LVU396
 1742              	.L117:
 430:Core/Src/GUI_Paint.c ****         for (Column = 0; Column < Font->Width; Column ++ ) {
 431:Core/Src/GUI_Paint.c **** 
 432:Core/Src/GUI_Paint.c ****             //To determine whether the font background color and screen background color is consist
 433:Core/Src/GUI_Paint.c ****             if (FONT_BACKGROUND == Color_Background) { //this process is to speed up the scan
 434:Core/Src/GUI_Paint.c ****                 if (*ptr & (0x80 >> (Column % 8)))
 435:Core/Src/GUI_Paint.c ****                     Paint_SetPixel(Xpoint + Column, Ypoint + Page, Color_Foreground);
 436:Core/Src/GUI_Paint.c ****                     // Paint_DrawPoint(Xpoint + Column, Ypoint + Page, Color_Foreground, DOT_PIXEL_
 437:Core/Src/GUI_Paint.c ****             } else {
 438:Core/Src/GUI_Paint.c ****                 if (*ptr & (0x80 >> (Column % 8))) {
 439:Core/Src/GUI_Paint.c ****                     Paint_SetPixel(Xpoint + Column, Ypoint + Page, Color_Foreground);
 440:Core/Src/GUI_Paint.c ****                     // Paint_DrawPoint(Xpoint + Column, Ypoint + Page, Color_Foreground, DOT_PIXEL_
 441:Core/Src/GUI_Paint.c ****                 } else {
 442:Core/Src/GUI_Paint.c ****                     Paint_SetPixel(Xpoint + Column, Ypoint + Page, Color_Background);
 443:Core/Src/GUI_Paint.c ****                     // Paint_DrawPoint(Xpoint + Column, Ypoint + Page, Color_Background, DOT_PIXEL_
 444:Core/Src/GUI_Paint.c ****                 }
 445:Core/Src/GUI_Paint.c ****             }
 446:Core/Src/GUI_Paint.c ****             //One pixel is 8 bits
 447:Core/Src/GUI_Paint.c ****             if (Column % 8 == 7)
 448:Core/Src/GUI_Paint.c ****                 ptr++;
 449:Core/Src/GUI_Paint.c ****         }// Write a line
 450:Core/Src/GUI_Paint.c ****         if (Font->Width % 8 != 0)
 451:Core/Src/GUI_Paint.c ****             ptr++;
 452:Core/Src/GUI_Paint.c ****     }// Write all
 453:Core/Src/GUI_Paint.c **** }
 1743              		.loc 1 453 1 is_stmt 0 view .LVU397
 1744 004c BDE8F88F 		pop	{r3, r4, r5, r6, r7, r8, r9, r10, fp, pc}
 1745              	.LVL154:
 1746              	.L133:
 434:Core/Src/GUI_Paint.c ****                     Paint_SetPixel(Xpoint + Column, Ypoint + Page, Color_Foreground);
 1747              		.loc 1 434 17 is_stmt 1 view .LVU398
 434:Core/Src/GUI_Paint.c ****                     Paint_SetPixel(Xpoint + Column, Ypoint + Page, Color_Foreground);
 1748              		.loc 1 434 21 is_stmt 0 view .LVU399
 1749 0050 2A78     		ldrb	r2, [r5]	@ zero_extendqisi2
 434:Core/Src/GUI_Paint.c ****                     Paint_SetPixel(Xpoint + Column, Ypoint + Page, Color_Foreground);
 1750              		.loc 1 434 45 view .LVU400
 1751 0052 04F00701 		and	r1, r4, #7
 434:Core/Src/GUI_Paint.c ****                     Paint_SetPixel(Xpoint + Column, Ypoint + Page, Color_Foreground);
 1752              		.loc 1 434 34 view .LVU401
 1753 0056 8023     		movs	r3, #128
 1754 0058 0B41     		asrs	r3, r3, r1
 434:Core/Src/GUI_Paint.c ****                     Paint_SetPixel(Xpoint + Column, Ypoint + Page, Color_Foreground);
 1755              		.loc 1 434 20 view .LVU402
 1756 005a 1A42     		tst	r2, r3
 1757 005c 12D0     		beq	.L123
 435:Core/Src/GUI_Paint.c ****                     // Paint_DrawPoint(Xpoint + Column, Ypoint + Page, Color_Foreground, DOT_PIXEL_
 1758              		.loc 1 435 21 is_stmt 1 view .LVU403
 1759 005e 06EB0A01 		add	r1, r6, r10
 1760 0062 04EB0900 		add	r0, r4, r9
ARM GAS  C:\Users\Morroway\AppData\Local\Temp\ccIGNgOC.s 			page 44


 1761 0066 5A46     		mov	r2, fp
 1762 0068 89B2     		uxth	r1, r1
 1763 006a 80B2     		uxth	r0, r0
 1764 006c FFF7FEFF 		bl	Paint_SetPixel
 1765              	.LVL155:
 1766 0070 08E0     		b	.L123
 1767              	.L124:
 442:Core/Src/GUI_Paint.c ****                     // Paint_DrawPoint(Xpoint + Column, Ypoint + Page, Color_Background, DOT_PIXEL_
 1768              		.loc 1 442 21 view .LVU404
 1769 0072 06EB0A01 		add	r1, r6, r10
 1770 0076 04EB0900 		add	r0, r4, r9
 1771 007a 4246     		mov	r2, r8
 1772 007c 89B2     		uxth	r1, r1
 1773 007e 80B2     		uxth	r0, r0
 1774 0080 FFF7FEFF 		bl	Paint_SetPixel
 1775              	.LVL156:
 1776              	.L123:
 447:Core/Src/GUI_Paint.c ****                 ptr++;
 1777              		.loc 1 447 13 view .LVU405
 447:Core/Src/GUI_Paint.c ****                 ptr++;
 1778              		.loc 1 447 28 is_stmt 0 view .LVU406
 1779 0084 04F00703 		and	r3, r4, #7
 447:Core/Src/GUI_Paint.c ****                 ptr++;
 1780              		.loc 1 447 16 view .LVU407
 1781 0088 072B     		cmp	r3, #7
 1782 008a 19D0     		beq	.L131
 1783              	.L125:
 430:Core/Src/GUI_Paint.c **** 
 1784              		.loc 1 430 55 is_stmt 1 discriminator 2 view .LVU408
 1785 008c 0134     		adds	r4, r4, #1
 1786              	.LVL157:
 430:Core/Src/GUI_Paint.c **** 
 1787              		.loc 1 430 55 is_stmt 0 discriminator 2 view .LVU409
 1788 008e A4B2     		uxth	r4, r4
 1789              	.LVL158:
 1790              	.L128:
 430:Core/Src/GUI_Paint.c **** 
 1791              		.loc 1 430 33 is_stmt 1 discriminator 1 view .LVU410
 430:Core/Src/GUI_Paint.c **** 
 1792              		.loc 1 430 39 is_stmt 0 discriminator 1 view .LVU411
 1793 0090 BB88     		ldrh	r3, [r7, #4]
 430:Core/Src/GUI_Paint.c **** 
 1794              		.loc 1 430 33 discriminator 1 view .LVU412
 1795 0092 A342     		cmp	r3, r4
 1796 0094 16D9     		bls	.L132
 433:Core/Src/GUI_Paint.c ****                 if (*ptr & (0x80 >> (Column % 8)))
 1797              		.loc 1 433 13 is_stmt 1 view .LVU413
 433:Core/Src/GUI_Paint.c ****                 if (*ptr & (0x80 >> (Column % 8)))
 1798              		.loc 1 433 16 is_stmt 0 view .LVU414
 1799 0096 4FF6FF73 		movw	r3, #65535
 1800 009a 9845     		cmp	r8, r3
 1801 009c D8D0     		beq	.L133
 438:Core/Src/GUI_Paint.c ****                     Paint_SetPixel(Xpoint + Column, Ypoint + Page, Color_Foreground);
 1802              		.loc 1 438 17 is_stmt 1 view .LVU415
 438:Core/Src/GUI_Paint.c ****                     Paint_SetPixel(Xpoint + Column, Ypoint + Page, Color_Foreground);
 1803              		.loc 1 438 21 is_stmt 0 view .LVU416
 1804 009e 2A78     		ldrb	r2, [r5]	@ zero_extendqisi2
ARM GAS  C:\Users\Morroway\AppData\Local\Temp\ccIGNgOC.s 			page 45


 438:Core/Src/GUI_Paint.c ****                     Paint_SetPixel(Xpoint + Column, Ypoint + Page, Color_Foreground);
 1805              		.loc 1 438 45 view .LVU417
 1806 00a0 04F00701 		and	r1, r4, #7
 438:Core/Src/GUI_Paint.c ****                     Paint_SetPixel(Xpoint + Column, Ypoint + Page, Color_Foreground);
 1807              		.loc 1 438 34 view .LVU418
 1808 00a4 8023     		movs	r3, #128
 1809 00a6 0B41     		asrs	r3, r3, r1
 438:Core/Src/GUI_Paint.c ****                     Paint_SetPixel(Xpoint + Column, Ypoint + Page, Color_Foreground);
 1810              		.loc 1 438 20 view .LVU419
 1811 00a8 1A42     		tst	r2, r3
 1812 00aa E2D0     		beq	.L124
 439:Core/Src/GUI_Paint.c ****                     // Paint_DrawPoint(Xpoint + Column, Ypoint + Page, Color_Foreground, DOT_PIXEL_
 1813              		.loc 1 439 21 is_stmt 1 view .LVU420
 1814 00ac 06EB0A01 		add	r1, r6, r10
 1815 00b0 04EB0900 		add	r0, r4, r9
 1816 00b4 5A46     		mov	r2, fp
 1817 00b6 89B2     		uxth	r1, r1
 1818 00b8 80B2     		uxth	r0, r0
 1819 00ba FFF7FEFF 		bl	Paint_SetPixel
 1820              	.LVL159:
 1821 00be E1E7     		b	.L123
 1822              	.L131:
 448:Core/Src/GUI_Paint.c ****         }// Write a line
 1823              		.loc 1 448 17 view .LVU421
 448:Core/Src/GUI_Paint.c ****         }// Write a line
 1824              		.loc 1 448 20 is_stmt 0 view .LVU422
 1825 00c0 0135     		adds	r5, r5, #1
 1826              	.LVL160:
 448:Core/Src/GUI_Paint.c ****         }// Write a line
 1827              		.loc 1 448 20 view .LVU423
 1828 00c2 E3E7     		b	.L125
 1829              	.L132:
 450:Core/Src/GUI_Paint.c ****             ptr++;
 1830              		.loc 1 450 9 is_stmt 1 view .LVU424
 450:Core/Src/GUI_Paint.c ****             ptr++;
 1831              		.loc 1 450 12 is_stmt 0 view .LVU425
 1832 00c4 13F0070F 		tst	r3, #7
 1833 00c8 00D0     		beq	.L127
 451:Core/Src/GUI_Paint.c ****     }// Write all
 1834              		.loc 1 451 13 is_stmt 1 view .LVU426
 451:Core/Src/GUI_Paint.c ****     }// Write all
 1835              		.loc 1 451 16 is_stmt 0 view .LVU427
 1836 00ca 0135     		adds	r5, r5, #1
 1837              	.LVL161:
 1838              	.L127:
 429:Core/Src/GUI_Paint.c ****         for (Column = 0; Column < Font->Width; Column ++ ) {
 1839              		.loc 1 429 46 is_stmt 1 discriminator 2 view .LVU428
 1840 00cc 0136     		adds	r6, r6, #1
 1841              	.LVL162:
 429:Core/Src/GUI_Paint.c ****         for (Column = 0; Column < Font->Width; Column ++ ) {
 1842              		.loc 1 429 46 is_stmt 0 discriminator 2 view .LVU429
 1843 00ce B6B2     		uxth	r6, r6
 1844              	.LVL163:
 1845              	.L121:
 429:Core/Src/GUI_Paint.c ****         for (Column = 0; Column < Font->Width; Column ++ ) {
 1846              		.loc 1 429 25 is_stmt 1 discriminator 1 view .LVU430
 429:Core/Src/GUI_Paint.c ****         for (Column = 0; Column < Font->Width; Column ++ ) {
ARM GAS  C:\Users\Morroway\AppData\Local\Temp\ccIGNgOC.s 			page 46


 1847              		.loc 1 429 31 is_stmt 0 discriminator 1 view .LVU431
 1848 00d0 FB88     		ldrh	r3, [r7, #6]
 429:Core/Src/GUI_Paint.c ****         for (Column = 0; Column < Font->Width; Column ++ ) {
 1849              		.loc 1 429 25 discriminator 1 view .LVU432
 1850 00d2 B342     		cmp	r3, r6
 1851 00d4 BAD9     		bls	.L117
 430:Core/Src/GUI_Paint.c **** 
 1852              		.loc 1 430 21 view .LVU433
 1853 00d6 0024     		movs	r4, #0
 1854 00d8 DAE7     		b	.L128
 1855              	.L135:
 1856 00da 00BF     		.align	2
 1857              	.L134:
 1858 00dc 00000000 		.word	.LANCHOR0
 1859 00e0 00000000 		.word	.LC12
 1860              		.cfi_endproc
 1861              	.LFE334:
 1863              		.section	.rodata.Paint_DrawString_EN.str1.4,"aMS",%progbits,1
 1864              		.align	2
 1865              	.LC13:
 1866 0000 44656275 		.ascii	"Debug : Paint_DrawString_EN Input exceeds the norma"
 1866      67203A20 
 1866      5061696E 
 1866      745F4472 
 1866      61775374 
 1867 0033 6C206469 		.ascii	"l display range\015\000"
 1867      73706C61 
 1867      79207261 
 1867      6E67650D 
 1867      00
 1868              		.section	.text.Paint_DrawString_EN,"ax",%progbits
 1869              		.align	1
 1870              		.global	Paint_DrawString_EN
 1871              		.syntax unified
 1872              		.thumb
 1873              		.thumb_func
 1875              	Paint_DrawString_EN:
 1876              	.LVL164:
 1877              	.LFB335:
 454:Core/Src/GUI_Paint.c **** 
 455:Core/Src/GUI_Paint.c **** /******************************************************************************
 456:Core/Src/GUI_Paint.c **** function:	Display the string
 457:Core/Src/GUI_Paint.c **** parameter:
 458:Core/Src/GUI_Paint.c ****     Xstart           X coordinate
 459:Core/Src/GUI_Paint.c ****     Ystart           Y coordinate
 460:Core/Src/GUI_Paint.c ****     pString          The first address of the English string to be displayed
 461:Core/Src/GUI_Paint.c ****     Font             A structure pointer that displays a character size
 462:Core/Src/GUI_Paint.c ****     Color_Background : Select the background color of the English character
 463:Core/Src/GUI_Paint.c ****     Color_Foreground : Select the foreground color of the English character
 464:Core/Src/GUI_Paint.c **** ******************************************************************************/
 465:Core/Src/GUI_Paint.c **** void Paint_DrawString_EN(UWORD Xstart, UWORD Ystart, const char * pString,
 466:Core/Src/GUI_Paint.c ****                          sFONT* Font, UWORD Color_Background, UWORD Color_Foreground )
 467:Core/Src/GUI_Paint.c **** {
 1878              		.loc 1 467 1 is_stmt 1 view -0
 1879              		.cfi_startproc
 1880              		@ args = 8, pretend = 0, frame = 0
 1881              		@ frame_needed = 0, uses_anonymous_args = 0
ARM GAS  C:\Users\Morroway\AppData\Local\Temp\ccIGNgOC.s 			page 47


 1882              		.loc 1 467 1 is_stmt 0 view .LVU435
 1883 0000 2DE9F04F 		push	{r4, r5, r6, r7, r8, r9, r10, fp, lr}
 1884              		.cfi_def_cfa_offset 36
 1885              		.cfi_offset 4, -36
 1886              		.cfi_offset 5, -32
 1887              		.cfi_offset 6, -28
 1888              		.cfi_offset 7, -24
 1889              		.cfi_offset 8, -20
 1890              		.cfi_offset 9, -16
 1891              		.cfi_offset 10, -12
 1892              		.cfi_offset 11, -8
 1893              		.cfi_offset 14, -4
 1894 0004 83B0     		sub	sp, sp, #12
 1895              		.cfi_def_cfa_offset 48
 1896 0006 1C46     		mov	r4, r3
 1897 0008 BDF830A0 		ldrh	r10, [sp, #48]
 1898 000c BDF834B0 		ldrh	fp, [sp, #52]
 468:Core/Src/GUI_Paint.c ****     UWORD Xpoint = Xstart;
 1899              		.loc 1 468 5 is_stmt 1 view .LVU436
 1900              	.LVL165:
 469:Core/Src/GUI_Paint.c ****     UWORD Ypoint = Ystart;
 1901              		.loc 1 469 5 view .LVU437
 470:Core/Src/GUI_Paint.c **** 
 471:Core/Src/GUI_Paint.c ****     if (Xstart > Paint.Width || Ystart > Paint.Height) {
 1902              		.loc 1 471 5 view .LVU438
 1903              		.loc 1 471 23 is_stmt 0 view .LVU439
 1904 0010 1D4B     		ldr	r3, .L146
 1905              	.LVL166:
 1906              		.loc 1 471 23 view .LVU440
 1907 0012 9B88     		ldrh	r3, [r3, #4]
 1908 0014 9BB2     		uxth	r3, r3
 1909              		.loc 1 471 8 view .LVU441
 1910 0016 8342     		cmp	r3, r0
 1911 0018 0AD3     		bcc	.L137
 1912 001a 8046     		mov	r8, r0
 1913 001c 8946     		mov	r9, r1
 1914 001e 1646     		mov	r6, r2
 1915              		.loc 1 471 47 discriminator 1 view .LVU442
 1916 0020 194B     		ldr	r3, .L146
 1917 0022 DB88     		ldrh	r3, [r3, #6]
 1918 0024 9BB2     		uxth	r3, r3
 1919              		.loc 1 471 30 discriminator 1 view .LVU443
 1920 0026 8B42     		cmp	r3, r1
 1921 0028 02D3     		bcc	.L137
 469:Core/Src/GUI_Paint.c ****     UWORD Ypoint = Ystart;
 1922              		.loc 1 469 11 view .LVU444
 1923 002a 0F46     		mov	r7, r1
 468:Core/Src/GUI_Paint.c ****     UWORD Ypoint = Ystart;
 1924              		.loc 1 468 11 view .LVU445
 1925 002c 0546     		mov	r5, r0
 1926 002e 1BE0     		b	.L138
 1927              	.L137:
 472:Core/Src/GUI_Paint.c ****         Debug("Paint_DrawString_EN Input exceeds the normal display range\r\n");
 1928              		.loc 1 472 9 is_stmt 1 view .LVU446
 1929 0030 1648     		ldr	r0, .L146+4
 1930              	.LVL167:
 1931              		.loc 1 472 9 is_stmt 0 view .LVU447
ARM GAS  C:\Users\Morroway\AppData\Local\Temp\ccIGNgOC.s 			page 48


 1932 0032 FFF7FEFF 		bl	puts
 1933              	.LVL168:
 473:Core/Src/GUI_Paint.c ****         return;
 1934              		.loc 1 473 9 is_stmt 1 view .LVU448
 1935              	.L136:
 474:Core/Src/GUI_Paint.c ****     }
 475:Core/Src/GUI_Paint.c **** 
 476:Core/Src/GUI_Paint.c ****     while (* pString != '\0') {
 477:Core/Src/GUI_Paint.c ****         //if X direction filled , reposition to(Xstart,Ypoint),Ypoint is Y direction plus the Heigh
 478:Core/Src/GUI_Paint.c ****         if ((Xpoint + Font->Width ) > Paint.Width ) {
 479:Core/Src/GUI_Paint.c ****             Xpoint = Xstart;
 480:Core/Src/GUI_Paint.c ****             Ypoint += Font->Height;
 481:Core/Src/GUI_Paint.c ****         }
 482:Core/Src/GUI_Paint.c **** 
 483:Core/Src/GUI_Paint.c ****         // If the Y direction is full, reposition to(Xstart, Ystart)
 484:Core/Src/GUI_Paint.c ****         if ((Ypoint  + Font->Height ) > Paint.Height ) {
 485:Core/Src/GUI_Paint.c ****             Xpoint = Xstart;
 486:Core/Src/GUI_Paint.c ****             Ypoint = Ystart;
 487:Core/Src/GUI_Paint.c ****         }
 488:Core/Src/GUI_Paint.c ****         Paint_DrawChar(Xpoint, Ypoint, * pString, Font, Color_Background, Color_Foreground);
 489:Core/Src/GUI_Paint.c **** 
 490:Core/Src/GUI_Paint.c ****         //The next character of the address
 491:Core/Src/GUI_Paint.c ****         pString ++;
 492:Core/Src/GUI_Paint.c **** 
 493:Core/Src/GUI_Paint.c ****         //The next word of the abscissa increases the font of the broadband
 494:Core/Src/GUI_Paint.c ****         Xpoint += Font->Width;
 495:Core/Src/GUI_Paint.c ****     }
 496:Core/Src/GUI_Paint.c **** }
 1936              		.loc 1 496 1 is_stmt 0 view .LVU449
 1937 0036 03B0     		add	sp, sp, #12
 1938              		.cfi_remember_state
 1939              		.cfi_def_cfa_offset 36
 1940              		@ sp needed
 1941 0038 BDE8F08F 		pop	{r4, r5, r6, r7, r8, r9, r10, fp, pc}
 1942              	.LVL169:
 1943              	.L140:
 1944              		.cfi_restore_state
 484:Core/Src/GUI_Paint.c ****             Xpoint = Xstart;
 1945              		.loc 1 484 9 is_stmt 1 view .LVU450
 484:Core/Src/GUI_Paint.c ****             Xpoint = Xstart;
 1946              		.loc 1 484 28 is_stmt 0 view .LVU451
 1947 003c E188     		ldrh	r1, [r4, #6]
 484:Core/Src/GUI_Paint.c ****             Xpoint = Xstart;
 1948              		.loc 1 484 22 view .LVU452
 1949 003e 3944     		add	r1, r1, r7
 484:Core/Src/GUI_Paint.c ****             Xpoint = Xstart;
 1950              		.loc 1 484 46 view .LVU453
 1951 0040 114B     		ldr	r3, .L146
 1952 0042 DB88     		ldrh	r3, [r3, #6]
 1953 0044 9BB2     		uxth	r3, r3
 484:Core/Src/GUI_Paint.c ****             Xpoint = Xstart;
 1954              		.loc 1 484 12 view .LVU454
 1955 0046 9942     		cmp	r1, r3
 1956 0048 01DD     		ble	.L141
 486:Core/Src/GUI_Paint.c ****         }
 1957              		.loc 1 486 20 view .LVU455
 1958 004a 4F46     		mov	r7, r9
ARM GAS  C:\Users\Morroway\AppData\Local\Temp\ccIGNgOC.s 			page 49


 1959              	.LVL170:
 485:Core/Src/GUI_Paint.c ****             Ypoint = Ystart;
 1960              		.loc 1 485 20 view .LVU456
 1961 004c 4546     		mov	r5, r8
 1962              	.LVL171:
 1963              	.L141:
 488:Core/Src/GUI_Paint.c **** 
 1964              		.loc 1 488 9 is_stmt 1 view .LVU457
 1965 004e CDF804B0 		str	fp, [sp, #4]
 1966 0052 CDF800A0 		str	r10, [sp]
 1967 0056 2346     		mov	r3, r4
 1968 0058 3946     		mov	r1, r7
 1969 005a 2846     		mov	r0, r5
 1970 005c FFF7FEFF 		bl	Paint_DrawChar
 1971              	.LVL172:
 491:Core/Src/GUI_Paint.c **** 
 1972              		.loc 1 491 9 view .LVU458
 491:Core/Src/GUI_Paint.c **** 
 1973              		.loc 1 491 17 is_stmt 0 view .LVU459
 1974 0060 0136     		adds	r6, r6, #1
 1975              	.LVL173:
 494:Core/Src/GUI_Paint.c ****     }
 1976              		.loc 1 494 9 is_stmt 1 view .LVU460
 494:Core/Src/GUI_Paint.c ****     }
 1977              		.loc 1 494 23 is_stmt 0 view .LVU461
 1978 0062 A388     		ldrh	r3, [r4, #4]
 494:Core/Src/GUI_Paint.c ****     }
 1979              		.loc 1 494 16 view .LVU462
 1980 0064 2B44     		add	r3, r3, r5
 1981 0066 9DB2     		uxth	r5, r3
 1982              	.LVL174:
 1983              	.L138:
 476:Core/Src/GUI_Paint.c ****         //if X direction filled , reposition to(Xstart,Ypoint),Ypoint is Y direction plus the Heigh
 1984              		.loc 1 476 22 is_stmt 1 view .LVU463
 476:Core/Src/GUI_Paint.c ****         //if X direction filled , reposition to(Xstart,Ypoint),Ypoint is Y direction plus the Heigh
 1985              		.loc 1 476 12 is_stmt 0 view .LVU464
 1986 0068 3278     		ldrb	r2, [r6]	@ zero_extendqisi2
 476:Core/Src/GUI_Paint.c ****         //if X direction filled , reposition to(Xstart,Ypoint),Ypoint is Y direction plus the Heigh
 1987              		.loc 1 476 22 view .LVU465
 1988 006a 002A     		cmp	r2, #0
 1989 006c E3D0     		beq	.L136
 478:Core/Src/GUI_Paint.c ****             Xpoint = Xstart;
 1990              		.loc 1 478 9 is_stmt 1 view .LVU466
 478:Core/Src/GUI_Paint.c ****             Xpoint = Xstart;
 1991              		.loc 1 478 27 is_stmt 0 view .LVU467
 1992 006e A188     		ldrh	r1, [r4, #4]
 478:Core/Src/GUI_Paint.c ****             Xpoint = Xstart;
 1993              		.loc 1 478 21 view .LVU468
 1994 0070 2944     		add	r1, r1, r5
 478:Core/Src/GUI_Paint.c ****             Xpoint = Xstart;
 1995              		.loc 1 478 44 view .LVU469
 1996 0072 054B     		ldr	r3, .L146
 1997 0074 9B88     		ldrh	r3, [r3, #4]
 1998 0076 9BB2     		uxth	r3, r3
 478:Core/Src/GUI_Paint.c ****             Xpoint = Xstart;
 1999              		.loc 1 478 12 view .LVU470
 2000 0078 9942     		cmp	r1, r3
ARM GAS  C:\Users\Morroway\AppData\Local\Temp\ccIGNgOC.s 			page 50


 2001 007a DFDD     		ble	.L140
 479:Core/Src/GUI_Paint.c ****             Ypoint += Font->Height;
 2002              		.loc 1 479 13 is_stmt 1 view .LVU471
 2003              	.LVL175:
 480:Core/Src/GUI_Paint.c ****         }
 2004              		.loc 1 480 13 view .LVU472
 480:Core/Src/GUI_Paint.c ****         }
 2005              		.loc 1 480 27 is_stmt 0 view .LVU473
 2006 007c E388     		ldrh	r3, [r4, #6]
 480:Core/Src/GUI_Paint.c ****         }
 2007              		.loc 1 480 20 view .LVU474
 2008 007e 3B44     		add	r3, r3, r7
 2009 0080 9FB2     		uxth	r7, r3
 2010              	.LVL176:
 479:Core/Src/GUI_Paint.c ****             Ypoint += Font->Height;
 2011              		.loc 1 479 20 view .LVU475
 2012 0082 4546     		mov	r5, r8
 2013 0084 DAE7     		b	.L140
 2014              	.L147:
 2015 0086 00BF     		.align	2
 2016              	.L146:
 2017 0088 00000000 		.word	.LANCHOR0
 2018 008c 00000000 		.word	.LC13
 2019              		.cfi_endproc
 2020              	.LFE335:
 2022              		.section	.text.Paint_DrawString_CN,"ax",%progbits
 2023              		.align	1
 2024              		.global	Paint_DrawString_CN
 2025              		.syntax unified
 2026              		.thumb
 2027              		.thumb_func
 2029              	Paint_DrawString_CN:
 2030              	.LVL177:
 2031              	.LFB336:
 497:Core/Src/GUI_Paint.c **** 
 498:Core/Src/GUI_Paint.c **** 
 499:Core/Src/GUI_Paint.c **** /******************************************************************************
 500:Core/Src/GUI_Paint.c **** function:	Display the string
 501:Core/Src/GUI_Paint.c **** parameter:
 502:Core/Src/GUI_Paint.c ****     Xstart           X coordinate
 503:Core/Src/GUI_Paint.c ****     Ystart           Y coordinate
 504:Core/Src/GUI_Paint.c ****     pString          The first address of the Chinese string and English
 505:Core/Src/GUI_Paint.c ****                         string to be displayed
 506:Core/Src/GUI_Paint.c ****     Font             A structure pointer that displays a character size
 507:Core/Src/GUI_Paint.c ****     Color_Background : Select the background color of the English character
 508:Core/Src/GUI_Paint.c ****     Color_Foreground : Select the foreground color of the English character
 509:Core/Src/GUI_Paint.c **** ******************************************************************************/
 510:Core/Src/GUI_Paint.c **** void Paint_DrawString_CN(UWORD Xstart, UWORD Ystart, const char * pString, cFONT* font, UWORD Color
 511:Core/Src/GUI_Paint.c **** {
 2032              		.loc 1 511 1 is_stmt 1 view -0
 2033              		.cfi_startproc
 2034              		@ args = 8, pretend = 0, frame = 8
 2035              		@ frame_needed = 0, uses_anonymous_args = 0
 2036              		.loc 1 511 1 is_stmt 0 view .LVU477
 2037 0000 2DE9F04F 		push	{r4, r5, r6, r7, r8, r9, r10, fp, lr}
 2038              		.cfi_def_cfa_offset 36
 2039              		.cfi_offset 4, -36
ARM GAS  C:\Users\Morroway\AppData\Local\Temp\ccIGNgOC.s 			page 51


 2040              		.cfi_offset 5, -32
 2041              		.cfi_offset 6, -28
 2042              		.cfi_offset 7, -24
 2043              		.cfi_offset 8, -20
 2044              		.cfi_offset 9, -16
 2045              		.cfi_offset 10, -12
 2046              		.cfi_offset 11, -8
 2047              		.cfi_offset 14, -4
 2048 0004 83B0     		sub	sp, sp, #12
 2049              		.cfi_def_cfa_offset 48
 2050 0006 8946     		mov	r9, r1
 2051 0008 0192     		str	r2, [sp, #4]
 2052 000a 1D46     		mov	r5, r3
 2053 000c BDF83070 		ldrh	r7, [sp, #48]
 2054 0010 BDF834A0 		ldrh	r10, [sp, #52]
 512:Core/Src/GUI_Paint.c ****     const char* p_text = pString;
 2055              		.loc 1 512 5 is_stmt 1 view .LVU478
 2056              	.LVL178:
 513:Core/Src/GUI_Paint.c ****     int x = Xstart, y = Ystart;
 2057              		.loc 1 513 5 view .LVU479
 2058              		.loc 1 513 9 is_stmt 0 view .LVU480
 2059 0014 8046     		mov	r8, r0
 2060              	.LVL179:
 514:Core/Src/GUI_Paint.c ****     int i, j,Num;
 2061              		.loc 1 514 5 is_stmt 1 view .LVU481
 515:Core/Src/GUI_Paint.c **** 
 516:Core/Src/GUI_Paint.c ****     /* Send the string character by character on EPD */
 517:Core/Src/GUI_Paint.c ****     while (*p_text != 0) {
 2062              		.loc 1 517 5 view .LVU482
 2063              		.loc 1 517 11 is_stmt 0 view .LVU483
 2064 0016 53E0     		b	.L149
 2065              	.LVL180:
 2066              	.L184:
 518:Core/Src/GUI_Paint.c ****         if(*p_text <= 0x7F) {  //ASCII < 126
 519:Core/Src/GUI_Paint.c ****             for(Num = 0; Num < font->size; Num++) {
 520:Core/Src/GUI_Paint.c ****                 if(*p_text== font->table[Num].index[0]) {
 521:Core/Src/GUI_Paint.c ****                     const char* ptr = &font->table[Num].matrix[0];
 522:Core/Src/GUI_Paint.c **** 
 523:Core/Src/GUI_Paint.c ****                     for (j = 0; j < font->Height; j++) {
 524:Core/Src/GUI_Paint.c ****                         for (i = 0; i < font->Width; i++) {
 525:Core/Src/GUI_Paint.c ****                             if (FONT_BACKGROUND == Color_Background) { //this process is to speed u
 526:Core/Src/GUI_Paint.c ****                                 if (*ptr & (0x80 >> (i % 8))) {
 527:Core/Src/GUI_Paint.c ****                                     Paint_SetPixel(x + i, y + j, Color_Foreground);
 528:Core/Src/GUI_Paint.c ****                                     // Paint_DrawPoint(x + i, y + j, Color_Foreground, DOT_PIXEL_DF
 529:Core/Src/GUI_Paint.c ****                                 }
 530:Core/Src/GUI_Paint.c ****                             } else {
 531:Core/Src/GUI_Paint.c ****                                 if (*ptr & (0x80 >> (i % 8))) {
 532:Core/Src/GUI_Paint.c ****                                     Paint_SetPixel(x + i, y + j, Color_Foreground);
 533:Core/Src/GUI_Paint.c ****                                     // Paint_DrawPoint(x + i, y + j, Color_Foreground, DOT_PIXEL_DF
 534:Core/Src/GUI_Paint.c ****                                 } else {
 535:Core/Src/GUI_Paint.c ****                                     Paint_SetPixel(x + i, y + j, Color_Background);
 536:Core/Src/GUI_Paint.c ****                                     // Paint_DrawPoint(x + i, y + j, Color_Background, DOT_PIXEL_DF
 537:Core/Src/GUI_Paint.c ****                                 }
 538:Core/Src/GUI_Paint.c ****                             }
 539:Core/Src/GUI_Paint.c ****                             if (i % 8 == 7) {
 540:Core/Src/GUI_Paint.c ****                                 ptr++;
 541:Core/Src/GUI_Paint.c ****                             }
ARM GAS  C:\Users\Morroway\AppData\Local\Temp\ccIGNgOC.s 			page 52


 542:Core/Src/GUI_Paint.c ****                         }
 543:Core/Src/GUI_Paint.c ****                         if (font->Width % 8 != 0) {
 544:Core/Src/GUI_Paint.c ****                             ptr++;
 545:Core/Src/GUI_Paint.c ****                         }
 546:Core/Src/GUI_Paint.c ****                     }
 547:Core/Src/GUI_Paint.c ****                     break;
 548:Core/Src/GUI_Paint.c ****                 }
 549:Core/Src/GUI_Paint.c ****             }
 550:Core/Src/GUI_Paint.c ****             /* Point on the next character */
 551:Core/Src/GUI_Paint.c ****             p_text += 1;
 552:Core/Src/GUI_Paint.c ****             /* Decrement the column position by 16 */
 553:Core/Src/GUI_Paint.c ****             x += font->ASCII_Width;
 554:Core/Src/GUI_Paint.c ****         } else {        //Chinese
 555:Core/Src/GUI_Paint.c ****             for(Num = 0; Num < font->size; Num++) {
 2067              		.loc 1 555 21 view .LVU484
 2068 0018 0022     		movs	r2, #0
 2069 001a B0E0     		b	.L151
 2070              	.LVL181:
 2071              	.L185:
 2072              	.LBB3:
 521:Core/Src/GUI_Paint.c **** 
 2073              		.loc 1 521 21 is_stmt 1 view .LVU485
 521:Core/Src/GUI_Paint.c **** 
 2074              		.loc 1 521 33 is_stmt 0 view .LVU486
 2075 001c 0236     		adds	r6, r6, #2
 2076              	.LVL182:
 523:Core/Src/GUI_Paint.c ****                         for (i = 0; i < font->Width; i++) {
 2077              		.loc 1 523 21 is_stmt 1 view .LVU487
 523:Core/Src/GUI_Paint.c ****                         for (i = 0; i < font->Width; i++) {
 2078              		.loc 1 523 28 is_stmt 0 view .LVU488
 2079 001e 4FF0000B 		mov	fp, #0
 523:Core/Src/GUI_Paint.c ****                         for (i = 0; i < font->Width; i++) {
 2080              		.loc 1 523 21 view .LVU489
 2081 0022 43E0     		b	.L153
 2082              	.LVL183:
 2083              	.L182:
 526:Core/Src/GUI_Paint.c ****                                     Paint_SetPixel(x + i, y + j, Color_Foreground);
 2084              		.loc 1 526 33 is_stmt 1 view .LVU490
 526:Core/Src/GUI_Paint.c ****                                     Paint_SetPixel(x + i, y + j, Color_Foreground);
 2085              		.loc 1 526 37 is_stmt 0 view .LVU491
 2086 0024 3278     		ldrb	r2, [r6]	@ zero_extendqisi2
 526:Core/Src/GUI_Paint.c ****                                     Paint_SetPixel(x + i, y + j, Color_Foreground);
 2087              		.loc 1 526 50 view .LVU492
 2088 0026 04F00701 		and	r1, r4, #7
 2089 002a 8023     		movs	r3, #128
 2090 002c 0B41     		asrs	r3, r3, r1
 526:Core/Src/GUI_Paint.c ****                                     Paint_SetPixel(x + i, y + j, Color_Foreground);
 2091              		.loc 1 526 36 view .LVU493
 2092 002e 1A42     		tst	r2, r3
 2093 0030 12D0     		beq	.L155
 527:Core/Src/GUI_Paint.c ****                                     // Paint_DrawPoint(x + i, y + j, Color_Foreground, DOT_PIXEL_DF
 2094              		.loc 1 527 37 is_stmt 1 view .LVU494
 2095 0032 09EB0B01 		add	r1, r9, fp
 2096 0036 08EB0400 		add	r0, r8, r4
 2097 003a 5246     		mov	r2, r10
 2098 003c 89B2     		uxth	r1, r1
 2099 003e 80B2     		uxth	r0, r0
ARM GAS  C:\Users\Morroway\AppData\Local\Temp\ccIGNgOC.s 			page 53


 2100 0040 FFF7FEFF 		bl	Paint_SetPixel
 2101              	.LVL184:
 2102 0044 08E0     		b	.L155
 2103              	.L156:
 535:Core/Src/GUI_Paint.c ****                                     // Paint_DrawPoint(x + i, y + j, Color_Background, DOT_PIXEL_DF
 2104              		.loc 1 535 37 view .LVU495
 2105 0046 09EB0B01 		add	r1, r9, fp
 2106 004a 08EB0400 		add	r0, r8, r4
 2107 004e 3A46     		mov	r2, r7
 2108 0050 89B2     		uxth	r1, r1
 2109 0052 80B2     		uxth	r0, r0
 2110 0054 FFF7FEFF 		bl	Paint_SetPixel
 2111              	.LVL185:
 2112              	.L155:
 539:Core/Src/GUI_Paint.c ****                                 ptr++;
 2113              		.loc 1 539 29 view .LVU496
 539:Core/Src/GUI_Paint.c ****                                 ptr++;
 2114              		.loc 1 539 35 is_stmt 0 view .LVU497
 2115 0058 6242     		rsbs	r2, r4, #0
 2116 005a 04F00703 		and	r3, r4, #7
 2117 005e 02F00702 		and	r2, r2, #7
 2118 0062 58BF     		it	pl
 2119 0064 5342     		rsbpl	r3, r2, #0
 539:Core/Src/GUI_Paint.c ****                                 ptr++;
 2120              		.loc 1 539 32 view .LVU498
 2121 0066 072B     		cmp	r3, #7
 2122 0068 18D0     		beq	.L180
 2123              	.L157:
 524:Core/Src/GUI_Paint.c ****                             if (FONT_BACKGROUND == Color_Background) { //this process is to speed u
 2124              		.loc 1 524 55 is_stmt 1 discriminator 2 view .LVU499
 2125 006a 0134     		adds	r4, r4, #1
 2126              	.LVL186:
 2127              	.L160:
 524:Core/Src/GUI_Paint.c ****                             if (FONT_BACKGROUND == Color_Background) { //this process is to speed u
 2128              		.loc 1 524 39 discriminator 1 view .LVU500
 524:Core/Src/GUI_Paint.c ****                             if (FONT_BACKGROUND == Color_Background) { //this process is to speed u
 2129              		.loc 1 524 45 is_stmt 0 discriminator 1 view .LVU501
 2130 006c 2B89     		ldrh	r3, [r5, #8]
 524:Core/Src/GUI_Paint.c ****                             if (FONT_BACKGROUND == Color_Background) { //this process is to speed u
 2131              		.loc 1 524 39 discriminator 1 view .LVU502
 2132 006e A342     		cmp	r3, r4
 2133 0070 16DD     		ble	.L181
 525:Core/Src/GUI_Paint.c ****                                 if (*ptr & (0x80 >> (i % 8))) {
 2134              		.loc 1 525 29 is_stmt 1 view .LVU503
 525:Core/Src/GUI_Paint.c ****                                 if (*ptr & (0x80 >> (i % 8))) {
 2135              		.loc 1 525 32 is_stmt 0 view .LVU504
 2136 0072 4FF6FF73 		movw	r3, #65535
 2137 0076 9F42     		cmp	r7, r3
 2138 0078 D4D0     		beq	.L182
 531:Core/Src/GUI_Paint.c ****                                     Paint_SetPixel(x + i, y + j, Color_Foreground);
 2139              		.loc 1 531 33 is_stmt 1 view .LVU505
 531:Core/Src/GUI_Paint.c ****                                     Paint_SetPixel(x + i, y + j, Color_Foreground);
 2140              		.loc 1 531 37 is_stmt 0 view .LVU506
 2141 007a 3278     		ldrb	r2, [r6]	@ zero_extendqisi2
 531:Core/Src/GUI_Paint.c ****                                     Paint_SetPixel(x + i, y + j, Color_Foreground);
 2142              		.loc 1 531 50 view .LVU507
 2143 007c 04F00701 		and	r1, r4, #7
ARM GAS  C:\Users\Morroway\AppData\Local\Temp\ccIGNgOC.s 			page 54


 2144 0080 8023     		movs	r3, #128
 2145 0082 0B41     		asrs	r3, r3, r1
 531:Core/Src/GUI_Paint.c ****                                     Paint_SetPixel(x + i, y + j, Color_Foreground);
 2146              		.loc 1 531 36 view .LVU508
 2147 0084 1A42     		tst	r2, r3
 2148 0086 DED0     		beq	.L156
 532:Core/Src/GUI_Paint.c ****                                     // Paint_DrawPoint(x + i, y + j, Color_Foreground, DOT_PIXEL_DF
 2149              		.loc 1 532 37 is_stmt 1 view .LVU509
 2150 0088 09EB0B01 		add	r1, r9, fp
 2151 008c 08EB0400 		add	r0, r8, r4
 2152 0090 5246     		mov	r2, r10
 2153 0092 89B2     		uxth	r1, r1
 2154 0094 80B2     		uxth	r0, r0
 2155 0096 FFF7FEFF 		bl	Paint_SetPixel
 2156              	.LVL187:
 2157 009a DDE7     		b	.L155
 2158              	.L180:
 540:Core/Src/GUI_Paint.c ****                             }
 2159              		.loc 1 540 33 view .LVU510
 540:Core/Src/GUI_Paint.c ****                             }
 2160              		.loc 1 540 36 is_stmt 0 view .LVU511
 2161 009c 0136     		adds	r6, r6, #1
 2162              	.LVL188:
 540:Core/Src/GUI_Paint.c ****                             }
 2163              		.loc 1 540 36 view .LVU512
 2164 009e E4E7     		b	.L157
 2165              	.L181:
 543:Core/Src/GUI_Paint.c ****                             ptr++;
 2166              		.loc 1 543 25 is_stmt 1 view .LVU513
 543:Core/Src/GUI_Paint.c ****                             ptr++;
 2167              		.loc 1 543 28 is_stmt 0 view .LVU514
 2168 00a0 13F0070F 		tst	r3, #7
 2169 00a4 00D0     		beq	.L159
 544:Core/Src/GUI_Paint.c ****                         }
 2170              		.loc 1 544 29 is_stmt 1 view .LVU515
 544:Core/Src/GUI_Paint.c ****                         }
 2171              		.loc 1 544 32 is_stmt 0 view .LVU516
 2172 00a6 0136     		adds	r6, r6, #1
 2173              	.LVL189:
 2174              	.L159:
 523:Core/Src/GUI_Paint.c ****                         for (i = 0; i < font->Width; i++) {
 2175              		.loc 1 523 52 is_stmt 1 discriminator 2 view .LVU517
 2176 00a8 0BF1010B 		add	fp, fp, #1
 2177              	.LVL190:
 2178              	.L153:
 523:Core/Src/GUI_Paint.c ****                         for (i = 0; i < font->Width; i++) {
 2179              		.loc 1 523 35 discriminator 1 view .LVU518
 523:Core/Src/GUI_Paint.c ****                         for (i = 0; i < font->Width; i++) {
 2180              		.loc 1 523 41 is_stmt 0 discriminator 1 view .LVU519
 2181 00ac 6B89     		ldrh	r3, [r5, #10]
 523:Core/Src/GUI_Paint.c ****                         for (i = 0; i < font->Width; i++) {
 2182              		.loc 1 523 35 discriminator 1 view .LVU520
 2183 00ae 5B45     		cmp	r3, fp
 2184 00b0 01DD     		ble	.L161
 524:Core/Src/GUI_Paint.c ****                             if (FONT_BACKGROUND == Color_Background) { //this process is to speed u
 2185              		.loc 1 524 32 view .LVU521
 2186 00b2 0024     		movs	r4, #0
ARM GAS  C:\Users\Morroway\AppData\Local\Temp\ccIGNgOC.s 			page 55


 2187 00b4 DAE7     		b	.L160
 2188              	.LVL191:
 2189              	.L161:
 524:Core/Src/GUI_Paint.c ****                             if (FONT_BACKGROUND == Color_Background) { //this process is to speed u
 2190              		.loc 1 524 32 view .LVU522
 2191              	.LBE3:
 551:Core/Src/GUI_Paint.c ****             /* Decrement the column position by 16 */
 2192              		.loc 1 551 13 is_stmt 1 view .LVU523
 551:Core/Src/GUI_Paint.c ****             /* Decrement the column position by 16 */
 2193              		.loc 1 551 20 is_stmt 0 view .LVU524
 2194 00b6 019B     		ldr	r3, [sp, #4]
 2195 00b8 0133     		adds	r3, r3, #1
 2196 00ba 0193     		str	r3, [sp, #4]
 2197              	.LVL192:
 553:Core/Src/GUI_Paint.c ****         } else {        //Chinese
 2198              		.loc 1 553 13 is_stmt 1 view .LVU525
 553:Core/Src/GUI_Paint.c ****         } else {        //Chinese
 2199              		.loc 1 553 22 is_stmt 0 view .LVU526
 2200 00bc EB88     		ldrh	r3, [r5, #6]
 2201              	.LVL193:
 553:Core/Src/GUI_Paint.c ****         } else {        //Chinese
 2202              		.loc 1 553 15 view .LVU527
 2203 00be 9844     		add	r8, r8, r3
 2204              	.LVL194:
 2205              	.L149:
 517:Core/Src/GUI_Paint.c ****         if(*p_text <= 0x7F) {  //ASCII < 126
 2206              		.loc 1 517 20 is_stmt 1 view .LVU528
 517:Core/Src/GUI_Paint.c ****         if(*p_text <= 0x7F) {  //ASCII < 126
 2207              		.loc 1 517 12 is_stmt 0 view .LVU529
 2208 00c0 019B     		ldr	r3, [sp, #4]
 2209 00c2 1878     		ldrb	r0, [r3]	@ zero_extendqisi2
 517:Core/Src/GUI_Paint.c ****         if(*p_text <= 0x7F) {  //ASCII < 126
 2210              		.loc 1 517 20 view .LVU530
 2211 00c4 0028     		cmp	r0, #0
 2212 00c6 74D0     		beq	.L183
 518:Core/Src/GUI_Paint.c ****             for(Num = 0; Num < font->size; Num++) {
 2213              		.loc 1 518 9 is_stmt 1 view .LVU531
 518:Core/Src/GUI_Paint.c ****             for(Num = 0; Num < font->size; Num++) {
 2214              		.loc 1 518 11 is_stmt 0 view .LVU532
 2215 00c8 10F0800F 		tst	r0, #128
 2216 00cc A4D1     		bne	.L184
 519:Core/Src/GUI_Paint.c ****                 if(*p_text== font->table[Num].index[0]) {
 2217              		.loc 1 519 21 view .LVU533
 2218 00ce 0022     		movs	r2, #0
 2219              	.L150:
 2220              	.LVL195:
 519:Core/Src/GUI_Paint.c ****                 if(*p_text== font->table[Num].index[0]) {
 2221              		.loc 1 519 30 is_stmt 1 discriminator 1 view .LVU534
 519:Core/Src/GUI_Paint.c ****                 if(*p_text== font->table[Num].index[0]) {
 2222              		.loc 1 519 36 is_stmt 0 discriminator 1 view .LVU535
 2223 00d0 AB88     		ldrh	r3, [r5, #4]
 519:Core/Src/GUI_Paint.c ****                 if(*p_text== font->table[Num].index[0]) {
 2224              		.loc 1 519 30 discriminator 1 view .LVU536
 2225 00d2 9342     		cmp	r3, r2
 2226 00d4 EFDD     		ble	.L161
 520:Core/Src/GUI_Paint.c ****                     const char* ptr = &font->table[Num].matrix[0];
 2227              		.loc 1 520 17 is_stmt 1 view .LVU537
ARM GAS  C:\Users\Morroway\AppData\Local\Temp\ccIGNgOC.s 			page 56


 520:Core/Src/GUI_Paint.c ****                     const char* ptr = &font->table[Num].matrix[0];
 2228              		.loc 1 520 34 is_stmt 0 view .LVU538
 2229 00d6 2968     		ldr	r1, [r5]
 520:Core/Src/GUI_Paint.c ****                     const char* ptr = &font->table[Num].matrix[0];
 2230              		.loc 1 520 41 view .LVU539
 2231 00d8 A623     		movs	r3, #166
 2232 00da 02FB03F3 		mul	r3, r2, r3
 2233 00de CE18     		adds	r6, r1, r3
 520:Core/Src/GUI_Paint.c ****                     const char* ptr = &font->table[Num].matrix[0];
 2234              		.loc 1 520 52 view .LVU540
 2235 00e0 CB5C     		ldrb	r3, [r1, r3]	@ zero_extendqisi2
 520:Core/Src/GUI_Paint.c ****                     const char* ptr = &font->table[Num].matrix[0];
 2236              		.loc 1 520 19 view .LVU541
 2237 00e2 8342     		cmp	r3, r0
 2238 00e4 9AD0     		beq	.L185
 519:Core/Src/GUI_Paint.c ****                 if(*p_text== font->table[Num].index[0]) {
 2239              		.loc 1 519 47 is_stmt 1 discriminator 2 view .LVU542
 2240 00e6 0132     		adds	r2, r2, #1
 2241              	.LVL196:
 519:Core/Src/GUI_Paint.c ****                 if(*p_text== font->table[Num].index[0]) {
 2242              		.loc 1 519 47 is_stmt 0 discriminator 2 view .LVU543
 2243 00e8 F2E7     		b	.L150
 2244              	.LVL197:
 2245              	.L188:
 2246              	.LBB4:
 556:Core/Src/GUI_Paint.c ****                 if((*p_text== font->table[Num].index[0]) && (*(p_text+1) == font->table[Num].index[
 557:Core/Src/GUI_Paint.c ****                     const char* ptr = &font->table[Num].matrix[0];
 558:Core/Src/GUI_Paint.c **** 
 559:Core/Src/GUI_Paint.c ****                     for (j = 0; j < font->Height; j++) {
 560:Core/Src/GUI_Paint.c ****                         for (i = 0; i < font->Width; i++) {
 561:Core/Src/GUI_Paint.c ****                             if (FONT_BACKGROUND == Color_Background) { //this process is to speed u
 562:Core/Src/GUI_Paint.c ****                                 if (*ptr & (0x80 >> (i % 8))) {
 2247              		.loc 1 562 33 is_stmt 1 view .LVU544
 2248              		.loc 1 562 37 is_stmt 0 view .LVU545
 2249 00ea 3278     		ldrb	r2, [r6]	@ zero_extendqisi2
 2250              		.loc 1 562 50 view .LVU546
 2251 00ec 04F00701 		and	r1, r4, #7
 2252 00f0 8023     		movs	r3, #128
 2253 00f2 0B41     		asrs	r3, r3, r1
 2254              		.loc 1 562 36 view .LVU547
 2255 00f4 1A42     		tst	r2, r3
 2256 00f6 12D0     		beq	.L167
 563:Core/Src/GUI_Paint.c ****                                     Paint_SetPixel(x + i, y + j, Color_Foreground);
 2257              		.loc 1 563 37 is_stmt 1 view .LVU548
 2258 00f8 09EB0B01 		add	r1, r9, fp
 2259 00fc 08EB0400 		add	r0, r8, r4
 2260 0100 5246     		mov	r2, r10
 2261 0102 89B2     		uxth	r1, r1
 2262 0104 80B2     		uxth	r0, r0
 2263 0106 FFF7FEFF 		bl	Paint_SetPixel
 2264              	.LVL198:
 2265 010a 08E0     		b	.L167
 2266              	.L168:
 564:Core/Src/GUI_Paint.c ****                                     // Paint_DrawPoint(x + i, y + j, Color_Foreground, DOT_PIXEL_DF
 565:Core/Src/GUI_Paint.c ****                                 }
 566:Core/Src/GUI_Paint.c ****                             } else {
 567:Core/Src/GUI_Paint.c ****                                 if (*ptr & (0x80 >> (i % 8))) {
ARM GAS  C:\Users\Morroway\AppData\Local\Temp\ccIGNgOC.s 			page 57


 568:Core/Src/GUI_Paint.c ****                                     Paint_SetPixel(x + i, y + j, Color_Foreground);
 569:Core/Src/GUI_Paint.c ****                                     // Paint_DrawPoint(x + i, y + j, Color_Foreground, DOT_PIXEL_DF
 570:Core/Src/GUI_Paint.c ****                                 } else {
 571:Core/Src/GUI_Paint.c ****                                     Paint_SetPixel(x + i, y + j, Color_Background);
 2267              		.loc 1 571 37 view .LVU549
 2268 010c 09EB0B01 		add	r1, r9, fp
 2269 0110 08EB0400 		add	r0, r8, r4
 2270 0114 3A46     		mov	r2, r7
 2271 0116 89B2     		uxth	r1, r1
 2272 0118 80B2     		uxth	r0, r0
 2273 011a FFF7FEFF 		bl	Paint_SetPixel
 2274              	.LVL199:
 2275              	.L167:
 572:Core/Src/GUI_Paint.c ****                                     // Paint_DrawPoint(x + i, y + j, Color_Background, DOT_PIXEL_DF
 573:Core/Src/GUI_Paint.c ****                                 }
 574:Core/Src/GUI_Paint.c ****                             }
 575:Core/Src/GUI_Paint.c ****                             if (i % 8 == 7) {
 2276              		.loc 1 575 29 view .LVU550
 2277              		.loc 1 575 35 is_stmt 0 view .LVU551
 2278 011e 6242     		rsbs	r2, r4, #0
 2279 0120 04F00703 		and	r3, r4, #7
 2280 0124 02F00702 		and	r2, r2, #7
 2281 0128 58BF     		it	pl
 2282 012a 5342     		rsbpl	r3, r2, #0
 2283              		.loc 1 575 32 view .LVU552
 2284 012c 072B     		cmp	r3, #7
 2285 012e 18D0     		beq	.L186
 2286              	.L169:
 560:Core/Src/GUI_Paint.c ****                             if (FONT_BACKGROUND == Color_Background) { //this process is to speed u
 2287              		.loc 1 560 55 is_stmt 1 discriminator 2 view .LVU553
 2288 0130 0134     		adds	r4, r4, #1
 2289              	.LVL200:
 2290              	.L172:
 560:Core/Src/GUI_Paint.c ****                             if (FONT_BACKGROUND == Color_Background) { //this process is to speed u
 2291              		.loc 1 560 39 discriminator 1 view .LVU554
 560:Core/Src/GUI_Paint.c ****                             if (FONT_BACKGROUND == Color_Background) { //this process is to speed u
 2292              		.loc 1 560 45 is_stmt 0 discriminator 1 view .LVU555
 2293 0132 2B89     		ldrh	r3, [r5, #8]
 560:Core/Src/GUI_Paint.c ****                             if (FONT_BACKGROUND == Color_Background) { //this process is to speed u
 2294              		.loc 1 560 39 discriminator 1 view .LVU556
 2295 0134 A342     		cmp	r3, r4
 2296 0136 16DD     		ble	.L187
 561:Core/Src/GUI_Paint.c ****                                 if (*ptr & (0x80 >> (i % 8))) {
 2297              		.loc 1 561 29 is_stmt 1 view .LVU557
 561:Core/Src/GUI_Paint.c ****                                 if (*ptr & (0x80 >> (i % 8))) {
 2298              		.loc 1 561 32 is_stmt 0 view .LVU558
 2299 0138 4FF6FF73 		movw	r3, #65535
 2300 013c 9F42     		cmp	r7, r3
 2301 013e D4D0     		beq	.L188
 567:Core/Src/GUI_Paint.c ****                                     Paint_SetPixel(x + i, y + j, Color_Foreground);
 2302              		.loc 1 567 33 is_stmt 1 view .LVU559
 567:Core/Src/GUI_Paint.c ****                                     Paint_SetPixel(x + i, y + j, Color_Foreground);
 2303              		.loc 1 567 37 is_stmt 0 view .LVU560
 2304 0140 3278     		ldrb	r2, [r6]	@ zero_extendqisi2
 567:Core/Src/GUI_Paint.c ****                                     Paint_SetPixel(x + i, y + j, Color_Foreground);
 2305              		.loc 1 567 50 view .LVU561
 2306 0142 04F00701 		and	r1, r4, #7
ARM GAS  C:\Users\Morroway\AppData\Local\Temp\ccIGNgOC.s 			page 58


 2307 0146 8023     		movs	r3, #128
 2308 0148 0B41     		asrs	r3, r3, r1
 567:Core/Src/GUI_Paint.c ****                                     Paint_SetPixel(x + i, y + j, Color_Foreground);
 2309              		.loc 1 567 36 view .LVU562
 2310 014a 1A42     		tst	r2, r3
 2311 014c DED0     		beq	.L168
 568:Core/Src/GUI_Paint.c ****                                     // Paint_DrawPoint(x + i, y + j, Color_Foreground, DOT_PIXEL_DF
 2312              		.loc 1 568 37 is_stmt 1 view .LVU563
 2313 014e 09EB0B01 		add	r1, r9, fp
 2314 0152 08EB0400 		add	r0, r8, r4
 2315 0156 5246     		mov	r2, r10
 2316 0158 89B2     		uxth	r1, r1
 2317 015a 80B2     		uxth	r0, r0
 2318 015c FFF7FEFF 		bl	Paint_SetPixel
 2319              	.LVL201:
 2320 0160 DDE7     		b	.L167
 2321              	.L186:
 576:Core/Src/GUI_Paint.c ****                                 ptr++;
 2322              		.loc 1 576 33 view .LVU564
 2323              		.loc 1 576 36 is_stmt 0 view .LVU565
 2324 0162 0136     		adds	r6, r6, #1
 2325              	.LVL202:
 2326              		.loc 1 576 36 view .LVU566
 2327 0164 E4E7     		b	.L169
 2328              	.L187:
 577:Core/Src/GUI_Paint.c ****                             }
 578:Core/Src/GUI_Paint.c ****                         }
 579:Core/Src/GUI_Paint.c ****                         if (font->Width % 8 != 0) {
 2329              		.loc 1 579 25 is_stmt 1 view .LVU567
 2330              		.loc 1 579 28 is_stmt 0 view .LVU568
 2331 0166 13F0070F 		tst	r3, #7
 2332 016a 00D0     		beq	.L171
 580:Core/Src/GUI_Paint.c ****                             ptr++;
 2333              		.loc 1 580 29 is_stmt 1 view .LVU569
 2334              		.loc 1 580 32 is_stmt 0 view .LVU570
 2335 016c 0136     		adds	r6, r6, #1
 2336              	.LVL203:
 2337              	.L171:
 559:Core/Src/GUI_Paint.c ****                         for (i = 0; i < font->Width; i++) {
 2338              		.loc 1 559 52 is_stmt 1 discriminator 2 view .LVU571
 2339 016e 0BF1010B 		add	fp, fp, #1
 2340              	.LVL204:
 2341              	.L165:
 559:Core/Src/GUI_Paint.c ****                         for (i = 0; i < font->Width; i++) {
 2342              		.loc 1 559 35 discriminator 1 view .LVU572
 559:Core/Src/GUI_Paint.c ****                         for (i = 0; i < font->Width; i++) {
 2343              		.loc 1 559 41 is_stmt 0 discriminator 1 view .LVU573
 2344 0172 6B89     		ldrh	r3, [r5, #10]
 559:Core/Src/GUI_Paint.c ****                         for (i = 0; i < font->Width; i++) {
 2345              		.loc 1 559 35 discriminator 1 view .LVU574
 2346 0174 5B45     		cmp	r3, fp
 2347 0176 16DD     		ble	.L173
 560:Core/Src/GUI_Paint.c ****                             if (FONT_BACKGROUND == Color_Background) { //this process is to speed u
 2348              		.loc 1 560 32 view .LVU575
 2349 0178 0024     		movs	r4, #0
 2350 017a DAE7     		b	.L172
 2351              	.LVL205:
ARM GAS  C:\Users\Morroway\AppData\Local\Temp\ccIGNgOC.s 			page 59


 2352              	.L164:
 560:Core/Src/GUI_Paint.c ****                             if (FONT_BACKGROUND == Color_Background) { //this process is to speed u
 2353              		.loc 1 560 32 view .LVU576
 2354              	.LBE4:
 555:Core/Src/GUI_Paint.c ****                 if((*p_text== font->table[Num].index[0]) && (*(p_text+1) == font->table[Num].index[
 2355              		.loc 1 555 47 is_stmt 1 discriminator 2 view .LVU577
 2356 017c 0132     		adds	r2, r2, #1
 2357              	.LVL206:
 2358              	.L151:
 555:Core/Src/GUI_Paint.c ****                 if((*p_text== font->table[Num].index[0]) && (*(p_text+1) == font->table[Num].index[
 2359              		.loc 1 555 30 discriminator 1 view .LVU578
 555:Core/Src/GUI_Paint.c ****                 if((*p_text== font->table[Num].index[0]) && (*(p_text+1) == font->table[Num].index[
 2360              		.loc 1 555 36 is_stmt 0 discriminator 1 view .LVU579
 2361 017e AB88     		ldrh	r3, [r5, #4]
 555:Core/Src/GUI_Paint.c ****                 if((*p_text== font->table[Num].index[0]) && (*(p_text+1) == font->table[Num].index[
 2362              		.loc 1 555 30 discriminator 1 view .LVU580
 2363 0180 9342     		cmp	r3, r2
 2364 0182 10DD     		ble	.L173
 556:Core/Src/GUI_Paint.c ****                     const char* ptr = &font->table[Num].matrix[0];
 2365              		.loc 1 556 17 is_stmt 1 view .LVU581
 556:Core/Src/GUI_Paint.c ****                     const char* ptr = &font->table[Num].matrix[0];
 2366              		.loc 1 556 35 is_stmt 0 view .LVU582
 2367 0184 2968     		ldr	r1, [r5]
 556:Core/Src/GUI_Paint.c ****                     const char* ptr = &font->table[Num].matrix[0];
 2368              		.loc 1 556 42 view .LVU583
 2369 0186 A623     		movs	r3, #166
 2370 0188 02FB03F3 		mul	r3, r2, r3
 2371 018c CE18     		adds	r6, r1, r3
 556:Core/Src/GUI_Paint.c ****                     const char* ptr = &font->table[Num].matrix[0];
 2372              		.loc 1 556 53 view .LVU584
 2373 018e CB5C     		ldrb	r3, [r1, r3]	@ zero_extendqisi2
 556:Core/Src/GUI_Paint.c ****                     const char* ptr = &font->table[Num].matrix[0];
 2374              		.loc 1 556 19 view .LVU585
 2375 0190 8342     		cmp	r3, r0
 2376 0192 F3D1     		bne	.L164
 556:Core/Src/GUI_Paint.c ****                     const char* ptr = &font->table[Num].matrix[0];
 2377              		.loc 1 556 62 discriminator 1 view .LVU586
 2378 0194 019B     		ldr	r3, [sp, #4]
 2379 0196 5978     		ldrb	r1, [r3, #1]	@ zero_extendqisi2
 556:Core/Src/GUI_Paint.c ****                     const char* ptr = &font->table[Num].matrix[0];
 2380              		.loc 1 556 99 discriminator 1 view .LVU587
 2381 0198 7378     		ldrb	r3, [r6, #1]	@ zero_extendqisi2
 556:Core/Src/GUI_Paint.c ****                     const char* ptr = &font->table[Num].matrix[0];
 2382              		.loc 1 556 58 discriminator 1 view .LVU588
 2383 019a 9942     		cmp	r1, r3
 2384 019c EED1     		bne	.L164
 2385              	.LBB5:
 557:Core/Src/GUI_Paint.c **** 
 2386              		.loc 1 557 21 is_stmt 1 view .LVU589
 557:Core/Src/GUI_Paint.c **** 
 2387              		.loc 1 557 33 is_stmt 0 view .LVU590
 2388 019e 0236     		adds	r6, r6, #2
 2389              	.LVL207:
 559:Core/Src/GUI_Paint.c ****                         for (i = 0; i < font->Width; i++) {
 2390              		.loc 1 559 21 is_stmt 1 view .LVU591
 559:Core/Src/GUI_Paint.c ****                         for (i = 0; i < font->Width; i++) {
 2391              		.loc 1 559 28 is_stmt 0 view .LVU592
ARM GAS  C:\Users\Morroway\AppData\Local\Temp\ccIGNgOC.s 			page 60


 2392 01a0 4FF0000B 		mov	fp, #0
 559:Core/Src/GUI_Paint.c ****                         for (i = 0; i < font->Width; i++) {
 2393              		.loc 1 559 21 view .LVU593
 2394 01a4 E5E7     		b	.L165
 2395              	.LVL208:
 2396              	.L173:
 559:Core/Src/GUI_Paint.c ****                         for (i = 0; i < font->Width; i++) {
 2397              		.loc 1 559 21 view .LVU594
 2398              	.LBE5:
 581:Core/Src/GUI_Paint.c ****                         }
 582:Core/Src/GUI_Paint.c ****                     }
 583:Core/Src/GUI_Paint.c ****                     break;
 584:Core/Src/GUI_Paint.c ****                 }
 585:Core/Src/GUI_Paint.c ****             }
 586:Core/Src/GUI_Paint.c ****             /* Point on the next character */
 587:Core/Src/GUI_Paint.c ****             p_text += 2;
 2399              		.loc 1 587 13 is_stmt 1 view .LVU595
 2400              		.loc 1 587 20 is_stmt 0 view .LVU596
 2401 01a6 019B     		ldr	r3, [sp, #4]
 2402 01a8 0233     		adds	r3, r3, #2
 2403 01aa 0193     		str	r3, [sp, #4]
 2404              	.LVL209:
 588:Core/Src/GUI_Paint.c ****             /* Decrement the column position by 16 */
 589:Core/Src/GUI_Paint.c ****             x += font->Width;
 2405              		.loc 1 589 13 is_stmt 1 view .LVU597
 2406              		.loc 1 589 22 is_stmt 0 view .LVU598
 2407 01ac 2B89     		ldrh	r3, [r5, #8]
 2408              	.LVL210:
 2409              		.loc 1 589 15 view .LVU599
 2410 01ae 9844     		add	r8, r8, r3
 2411              	.LVL211:
 2412              		.loc 1 589 15 view .LVU600
 2413 01b0 86E7     		b	.L149
 2414              	.LVL212:
 2415              	.L183:
 590:Core/Src/GUI_Paint.c ****         }
 591:Core/Src/GUI_Paint.c ****     }
 592:Core/Src/GUI_Paint.c **** }
 2416              		.loc 1 592 1 view .LVU601
 2417 01b2 03B0     		add	sp, sp, #12
 2418              		.cfi_def_cfa_offset 36
 2419              		@ sp needed
 2420 01b4 BDE8F08F 		pop	{r4, r5, r6, r7, r8, r9, r10, fp, pc}
 2421              		.loc 1 592 1 view .LVU602
 2422              		.cfi_endproc
 2423              	.LFE336:
 2425              		.section	.rodata.Paint_DrawNum.str1.4,"aMS",%progbits,1
 2426              		.align	2
 2427              	.LC14:
 2428 0000 44656275 		.ascii	"Debug : Paint_DisNum Input exceeds the normal displ"
 2428      67203A20 
 2428      5061696E 
 2428      745F4469 
 2428      734E756D 
 2429 0033 61792072 		.ascii	"ay range\015\000"
 2429      616E6765 
 2429      0D00
ARM GAS  C:\Users\Morroway\AppData\Local\Temp\ccIGNgOC.s 			page 61


 2430              		.section	.text.Paint_DrawNum,"ax",%progbits
 2431              		.align	1
 2432              		.global	Paint_DrawNum
 2433              		.syntax unified
 2434              		.thumb
 2435              		.thumb_func
 2437              	Paint_DrawNum:
 2438              	.LVL213:
 2439              	.LFB337:
 593:Core/Src/GUI_Paint.c **** 
 594:Core/Src/GUI_Paint.c **** /******************************************************************************
 595:Core/Src/GUI_Paint.c **** function:	Display nummber
 596:Core/Src/GUI_Paint.c **** parameter:
 597:Core/Src/GUI_Paint.c ****     Xstart           X coordinate
 598:Core/Src/GUI_Paint.c ****     Ystart           : Y coordinate
 599:Core/Src/GUI_Paint.c ****     Nummber          : The number displayed
 600:Core/Src/GUI_Paint.c ****     Font             A structure pointer that displays a character size
 601:Core/Src/GUI_Paint.c ****     Color_Background : Select the background color of the English character
 602:Core/Src/GUI_Paint.c ****     Color_Foreground : Select the foreground color of the English character
 603:Core/Src/GUI_Paint.c **** ******************************************************************************/
 604:Core/Src/GUI_Paint.c **** #define  ARRAY_LEN 255
 605:Core/Src/GUI_Paint.c **** void Paint_DrawNum(UWORD Xpoint, UWORD Ypoint, int32_t Nummber,
 606:Core/Src/GUI_Paint.c ****                    sFONT* Font, UWORD Color_Background, UWORD Color_Foreground )
 607:Core/Src/GUI_Paint.c **** {
 2440              		.loc 1 607 1 is_stmt 1 view -0
 2441              		.cfi_startproc
 2442              		@ args = 8, pretend = 0, frame = 512
 2443              		@ frame_needed = 0, uses_anonymous_args = 0
 2444              		.loc 1 607 1 is_stmt 0 view .LVU604
 2445 0000 2DE9F043 		push	{r4, r5, r6, r7, r8, r9, lr}
 2446              		.cfi_def_cfa_offset 28
 2447              		.cfi_offset 4, -28
 2448              		.cfi_offset 5, -24
 2449              		.cfi_offset 6, -20
 2450              		.cfi_offset 7, -16
 2451              		.cfi_offset 8, -12
 2452              		.cfi_offset 9, -8
 2453              		.cfi_offset 14, -4
 2454 0004 ADF5037D 		sub	sp, sp, #524
 2455              		.cfi_def_cfa_offset 552
 2456 0008 0446     		mov	r4, r0
 2457 000a 0D46     		mov	r5, r1
 2458 000c 1746     		mov	r7, r2
 2459 000e 1E46     		mov	r6, r3
 608:Core/Src/GUI_Paint.c **** 
 609:Core/Src/GUI_Paint.c ****     int16_t Num_Bit = 0, Str_Bit = 0;
 2460              		.loc 1 609 5 is_stmt 1 view .LVU605
 2461              	.LVL214:
 610:Core/Src/GUI_Paint.c ****     uint8_t Str_Array[ARRAY_LEN] = {0}, Num_Array[ARRAY_LEN] = {0};
 2462              		.loc 1 610 5 view .LVU606
 2463              		.loc 1 610 13 is_stmt 0 view .LVU607
 2464 0010 4FF00008 		mov	r8, #0
 2465 0014 CDF80881 		str	r8, [sp, #264]
 2466 0018 4FF0FB09 		mov	r9, #251
 2467 001c 4A46     		mov	r2, r9
 2468              	.LVL215:
 2469              		.loc 1 610 13 view .LVU608
ARM GAS  C:\Users\Morroway\AppData\Local\Temp\ccIGNgOC.s 			page 62


 2470 001e 4146     		mov	r1, r8
 2471              	.LVL216:
 2472              		.loc 1 610 13 view .LVU609
 2473 0020 43A8     		add	r0, sp, #268
 2474              	.LVL217:
 2475              		.loc 1 610 13 view .LVU610
 2476 0022 FFF7FEFF 		bl	memset
 2477              	.LVL218:
 2478              		.loc 1 610 41 view .LVU611
 2479 0026 CDF80880 		str	r8, [sp, #8]
 2480 002a 4A46     		mov	r2, r9
 2481 002c 4146     		mov	r1, r8
 2482 002e 03A8     		add	r0, sp, #12
 2483 0030 FFF7FEFF 		bl	memset
 2484              	.LVL219:
 611:Core/Src/GUI_Paint.c ****     uint8_t *pStr = Str_Array;
 2485              		.loc 1 611 5 is_stmt 1 view .LVU612
 612:Core/Src/GUI_Paint.c **** 
 613:Core/Src/GUI_Paint.c ****     if (Xpoint > Paint.Width || Ypoint > Paint.Height) {
 2486              		.loc 1 613 5 view .LVU613
 2487              		.loc 1 613 23 is_stmt 0 view .LVU614
 2488 0034 244B     		ldr	r3, .L198
 2489 0036 9B88     		ldrh	r3, [r3, #4]
 2490 0038 9BB2     		uxth	r3, r3
 2491              		.loc 1 613 8 view .LVU615
 2492 003a A342     		cmp	r3, r4
 2493 003c 07D3     		bcc	.L190
 2494              		.loc 1 613 47 discriminator 1 view .LVU616
 2495 003e 224B     		ldr	r3, .L198
 2496 0040 DB88     		ldrh	r3, [r3, #6]
 2497 0042 9BB2     		uxth	r3, r3
 2498              		.loc 1 613 30 discriminator 1 view .LVU617
 2499 0044 AB42     		cmp	r3, r5
 2500 0046 02D3     		bcc	.L190
 609:Core/Src/GUI_Paint.c ****     uint8_t Str_Array[ARRAY_LEN] = {0}, Num_Array[ARRAY_LEN] = {0};
 2501              		.loc 1 609 13 view .LVU618
 2502 0048 4FF0000E 		mov	lr, #0
 2503 004c 19E0     		b	.L191
 2504              	.L190:
 614:Core/Src/GUI_Paint.c ****         Debug("Paint_DisNum Input exceeds the normal display range\r\n");
 2505              		.loc 1 614 9 is_stmt 1 view .LVU619
 2506 004e 1F48     		ldr	r0, .L198+4
 2507 0050 FFF7FEFF 		bl	puts
 2508              	.LVL220:
 615:Core/Src/GUI_Paint.c ****         return;
 2509              		.loc 1 615 9 view .LVU620
 2510 0054 34E0     		b	.L189
 2511              	.LVL221:
 2512              	.L193:
 616:Core/Src/GUI_Paint.c ****     }
 617:Core/Src/GUI_Paint.c **** 
 618:Core/Src/GUI_Paint.c ****     //Converts a number to a string
 619:Core/Src/GUI_Paint.c ****     while (Nummber) {
 620:Core/Src/GUI_Paint.c ****         Num_Array[Num_Bit] = Nummber % 10 + '0';
 2513              		.loc 1 620 9 view .LVU621
 2514              		.loc 1 620 38 is_stmt 0 view .LVU622
 2515 0056 1E4B     		ldr	r3, .L198+8
ARM GAS  C:\Users\Morroway\AppData\Local\Temp\ccIGNgOC.s 			page 63


 2516 0058 83FB0723 		smull	r2, r3, r3, r7
 2517 005c 4FEAE77C 		asr	ip, r7, #31
 2518 0060 CCEBA30C 		rsb	ip, ip, r3, asr #2
 2519 0064 6346     		mov	r3, ip
 2520 0066 0CEB8C0C 		add	ip, ip, ip, lsl #2
 2521 006a A7EB4C0C 		sub	ip, r7, ip, lsl #1
 2522              		.loc 1 620 43 view .LVU623
 2523 006e 0CF1300C 		add	ip, ip, #48
 2524              		.loc 1 620 28 view .LVU624
 2525 0072 02AA     		add	r2, sp, #8
 2526 0074 02F80EC0 		strb	ip, [r2, lr]
 621:Core/Src/GUI_Paint.c ****         Num_Bit++;
 2527              		.loc 1 621 9 is_stmt 1 view .LVU625
 2528              		.loc 1 621 16 is_stmt 0 view .LVU626
 2529 0078 0EF1010E 		add	lr, lr, #1
 2530              	.LVL222:
 2531              		.loc 1 621 16 view .LVU627
 2532 007c 0FFA8EFE 		sxth	lr, lr
 2533              	.LVL223:
 622:Core/Src/GUI_Paint.c ****         Nummber /= 10;
 2534              		.loc 1 622 9 is_stmt 1 view .LVU628
 2535              		.loc 1 622 17 is_stmt 0 view .LVU629
 2536 0080 1F46     		mov	r7, r3
 2537              	.LVL224:
 2538              	.L191:
 619:Core/Src/GUI_Paint.c ****         Num_Array[Num_Bit] = Nummber % 10 + '0';
 2539              		.loc 1 619 12 is_stmt 1 view .LVU630
 2540 0082 002F     		cmp	r7, #0
 2541 0084 E7D1     		bne	.L193
 609:Core/Src/GUI_Paint.c ****     uint8_t Str_Array[ARRAY_LEN] = {0}, Num_Array[ARRAY_LEN] = {0};
 2542              		.loc 1 609 26 is_stmt 0 view .LVU631
 2543 0086 0023     		movs	r3, #0
 2544 0088 0BE0     		b	.L194
 2545              	.LVL225:
 2546              	.L195:
 623:Core/Src/GUI_Paint.c ****     }
 624:Core/Src/GUI_Paint.c **** 
 625:Core/Src/GUI_Paint.c ****     //The string is inverted
 626:Core/Src/GUI_Paint.c ****     while (Num_Bit > 0) {
 627:Core/Src/GUI_Paint.c ****         Str_Array[Str_Bit] = Num_Array[Num_Bit - 1];
 2547              		.loc 1 627 9 is_stmt 1 view .LVU632
 2548              		.loc 1 627 48 is_stmt 0 view .LVU633
 2549 008a 0EF1FF32 		add	r2, lr, #-1
 2550              		.loc 1 627 39 view .LVU634
 2551 008e 02A9     		add	r1, sp, #8
 2552 0090 895C     		ldrb	r1, [r1, r2]	@ zero_extendqisi2
 2553              		.loc 1 627 28 view .LVU635
 2554 0092 42AA     		add	r2, sp, #264
 2555              	.LVL226:
 2556              		.loc 1 627 28 view .LVU636
 2557 0094 D154     		strb	r1, [r2, r3]
 628:Core/Src/GUI_Paint.c ****         Str_Bit ++;
 2558              		.loc 1 628 9 is_stmt 1 view .LVU637
 2559              		.loc 1 628 17 is_stmt 0 view .LVU638
 2560 0096 0133     		adds	r3, r3, #1
 2561              	.LVL227:
 2562              		.loc 1 628 17 view .LVU639
ARM GAS  C:\Users\Morroway\AppData\Local\Temp\ccIGNgOC.s 			page 64


 2563 0098 1BB2     		sxth	r3, r3
 2564              	.LVL228:
 629:Core/Src/GUI_Paint.c ****         Num_Bit --;
 2565              		.loc 1 629 9 is_stmt 1 view .LVU640
 2566              		.loc 1 629 17 is_stmt 0 view .LVU641
 2567 009a 0EF1FF3E 		add	lr, lr, #-1
 2568              	.LVL229:
 2569              		.loc 1 629 17 view .LVU642
 2570 009e 0FFA8EFE 		sxth	lr, lr
 2571              	.LVL230:
 2572              	.L194:
 626:Core/Src/GUI_Paint.c ****         Str_Array[Str_Bit] = Num_Array[Num_Bit - 1];
 2573              		.loc 1 626 20 is_stmt 1 view .LVU643
 2574 00a2 BEF1000F 		cmp	lr, #0
 2575 00a6 F0DC     		bgt	.L195
 630:Core/Src/GUI_Paint.c ****     }
 631:Core/Src/GUI_Paint.c **** 
 632:Core/Src/GUI_Paint.c ****     //show
 633:Core/Src/GUI_Paint.c ****     Paint_DrawString_EN(Xpoint, Ypoint, (const char*)pStr, Font, Color_Background, Color_Foreground
 2576              		.loc 1 633 5 view .LVU644
 2577 00a8 BDF82C32 		ldrh	r3, [sp, #556]
 2578              	.LVL231:
 2579              		.loc 1 633 5 is_stmt 0 view .LVU645
 2580 00ac 0193     		str	r3, [sp, #4]
 2581 00ae BDF82832 		ldrh	r3, [sp, #552]
 2582 00b2 0093     		str	r3, [sp]
 2583 00b4 3346     		mov	r3, r6
 2584 00b6 42AA     		add	r2, sp, #264
 2585              	.LVL232:
 2586              		.loc 1 633 5 view .LVU646
 2587 00b8 2946     		mov	r1, r5
 2588 00ba 2046     		mov	r0, r4
 2589 00bc FFF7FEFF 		bl	Paint_DrawString_EN
 2590              	.LVL233:
 2591              	.L189:
 634:Core/Src/GUI_Paint.c **** }
 2592              		.loc 1 634 1 view .LVU647
 2593 00c0 0DF5037D 		add	sp, sp, #524
 2594              		.cfi_def_cfa_offset 28
 2595              		@ sp needed
 2596 00c4 BDE8F083 		pop	{r4, r5, r6, r7, r8, r9, pc}
 2597              	.LVL234:
 2598              	.L199:
 2599              		.loc 1 634 1 view .LVU648
 2600              		.align	2
 2601              	.L198:
 2602 00c8 00000000 		.word	.LANCHOR0
 2603 00cc 00000000 		.word	.LC14
 2604 00d0 67666666 		.word	1717986919
 2605              		.cfi_endproc
 2606              	.LFE337:
 2608              		.section	.rodata.Paint_DrawTime.str1.4,"aMS",%progbits,1
 2609              		.align	2
 2610              	.LC15:
 2611 0000 30313233 		.ascii	"0123456789\000"
 2611      34353637 
 2611      383900
ARM GAS  C:\Users\Morroway\AppData\Local\Temp\ccIGNgOC.s 			page 65


 2612              		.section	.text.Paint_DrawTime,"ax",%progbits
 2613              		.align	1
 2614              		.global	Paint_DrawTime
 2615              		.syntax unified
 2616              		.thumb
 2617              		.thumb_func
 2619              	Paint_DrawTime:
 2620              	.LVL235:
 2621              	.LFB338:
 635:Core/Src/GUI_Paint.c **** 
 636:Core/Src/GUI_Paint.c **** /******************************************************************************
 637:Core/Src/GUI_Paint.c **** function:	Display time
 638:Core/Src/GUI_Paint.c **** parameter:
 639:Core/Src/GUI_Paint.c ****     Xstart           X coordinate
 640:Core/Src/GUI_Paint.c ****     Ystart           : Y coordinate
 641:Core/Src/GUI_Paint.c ****     pTime            : Time-related structures
 642:Core/Src/GUI_Paint.c ****     Font             A structure pointer that displays a character size
 643:Core/Src/GUI_Paint.c ****     Color            : Select the background color of the English character
 644:Core/Src/GUI_Paint.c **** ******************************************************************************/
 645:Core/Src/GUI_Paint.c **** void Paint_DrawTime(UWORD Xstart, UWORD Ystart, PAINT_TIME *pTime, sFONT* Font,
 646:Core/Src/GUI_Paint.c ****                     UWORD Color_Background, UWORD Color_Foreground)
 647:Core/Src/GUI_Paint.c **** {
 2622              		.loc 1 647 1 is_stmt 1 view -0
 2623              		.cfi_startproc
 2624              		@ args = 8, pretend = 0, frame = 32
 2625              		@ frame_needed = 0, uses_anonymous_args = 0
 2626              		.loc 1 647 1 is_stmt 0 view .LVU650
 2627 0000 2DE9F04F 		push	{r4, r5, r6, r7, r8, r9, r10, fp, lr}
 2628              		.cfi_def_cfa_offset 36
 2629              		.cfi_offset 4, -36
 2630              		.cfi_offset 5, -32
 2631              		.cfi_offset 6, -28
 2632              		.cfi_offset 7, -24
 2633              		.cfi_offset 8, -20
 2634              		.cfi_offset 9, -16
 2635              		.cfi_offset 10, -12
 2636              		.cfi_offset 11, -8
 2637              		.cfi_offset 14, -4
 2638 0004 8BB0     		sub	sp, sp, #44
 2639              		.cfi_def_cfa_offset 80
 2640 0006 0646     		mov	r6, r0
 2641 0008 0F46     		mov	r7, r1
 2642 000a 1546     		mov	r5, r2
 2643 000c 9846     		mov	r8, r3
 2644 000e BDF85090 		ldrh	r9, [sp, #80]
 2645 0012 BDF854A0 		ldrh	r10, [sp, #84]
 648:Core/Src/GUI_Paint.c ****     uint8_t value[10] = {'0', '1', '2', '3', '4', '5', '6', '7', '8', '9'};
 2646              		.loc 1 648 5 is_stmt 1 view .LVU651
 2647              		.loc 1 648 13 is_stmt 0 view .LVU652
 2648 0016 5E4A     		ldr	r2, .L202
 2649              	.LVL236:
 2650              		.loc 1 648 13 view .LVU653
 2651 0018 07AC     		add	r4, sp, #28
 2652 001a 07CA     		ldm	r2, {r0, r1, r2}
 2653              	.LVL237:
 2654              		.loc 1 648 13 view .LVU654
 2655 001c 03C4     		stmia	r4!, {r0, r1}
ARM GAS  C:\Users\Morroway\AppData\Local\Temp\ccIGNgOC.s 			page 66


 2656 001e 2280     		strh	r2, [r4]	@ movhi
 649:Core/Src/GUI_Paint.c **** 
 650:Core/Src/GUI_Paint.c ****     UWORD Dx = Font->Width;
 2657              		.loc 1 650 5 is_stmt 1 view .LVU655
 2658              		.loc 1 650 11 is_stmt 0 view .LVU656
 2659 0020 9C88     		ldrh	r4, [r3, #4]
 2660              	.LVL238:
 651:Core/Src/GUI_Paint.c **** 
 652:Core/Src/GUI_Paint.c ****     //Write data into the cache
 653:Core/Src/GUI_Paint.c ****     Paint_DrawChar(Xstart                           , Ystart, value[pTime->Hour / 10], Font, Color_
 2661              		.loc 1 653 5 is_stmt 1 view .LVU657
 2662              		.loc 1 653 74 is_stmt 0 view .LVU658
 2663 0022 0395     		str	r5, [sp, #12]
 2664 0024 2A79     		ldrb	r2, [r5, #4]	@ zero_extendqisi2
 2665              		.loc 1 653 81 view .LVU659
 2666 0026 5B4D     		ldr	r5, .L202+4
 2667              	.LVL239:
 2668              		.loc 1 653 81 view .LVU660
 2669 0028 A5FB0212 		umull	r1, r2, r5, r2
 2670              		.loc 1 653 68 view .LVU661
 2671 002c 0AA9     		add	r1, sp, #40
 2672 002e 01EBD202 		add	r2, r1, r2, lsr #3
 2673              		.loc 1 653 5 view .LVU662
 2674 0032 CDF804A0 		str	r10, [sp, #4]
 2675 0036 CDF80090 		str	r9, [sp]
 2676 003a 12F80C2C 		ldrb	r2, [r2, #-12]	@ zero_extendqisi2
 2677 003e 3946     		mov	r1, r7
 2678 0040 3046     		mov	r0, r6
 2679 0042 FFF7FEFF 		bl	Paint_DrawChar
 2680              	.LVL240:
 654:Core/Src/GUI_Paint.c ****     Paint_DrawChar(Xstart + Dx                      , Ystart, value[pTime->Hour % 10], Font, Color_
 2681              		.loc 1 654 5 is_stmt 1 view .LVU663
 2682 0046 04EB060B 		add	fp, r4, r6
 2683 004a 1FFA8BFB 		uxth	fp, fp
 2684              		.loc 1 654 74 is_stmt 0 view .LVU664
 2685 004e 039A     		ldr	r2, [sp, #12]
 2686 0050 1379     		ldrb	r3, [r2, #4]	@ zero_extendqisi2
 2687              		.loc 1 654 81 view .LVU665
 2688 0052 A5FB0312 		umull	r1, r2, r5, r3
 2689 0056 D208     		lsrs	r2, r2, #3
 2690 0058 02EB8202 		add	r2, r2, r2, lsl #2
 2691 005c A3EB4203 		sub	r3, r3, r2, lsl #1
 2692              		.loc 1 654 68 view .LVU666
 2693 0060 0AA9     		add	r1, sp, #40
 2694 0062 51FA83F2 		uxtab	r2, r1, r3
 2695              		.loc 1 654 5 view .LVU667
 2696 0066 CDF804A0 		str	r10, [sp, #4]
 2697 006a CDF80090 		str	r9, [sp]
 2698 006e 4346     		mov	r3, r8
 2699 0070 12F80C2C 		ldrb	r2, [r2, #-12]	@ zero_extendqisi2
 2700 0074 3946     		mov	r1, r7
 2701 0076 5846     		mov	r0, fp
 2702 0078 FFF7FEFF 		bl	Paint_DrawChar
 2703              	.LVL241:
 655:Core/Src/GUI_Paint.c ****     Paint_DrawChar(Xstart + Dx  + Dx / 4 + Dx / 2   , Ystart, ':'                    , Font, Color_
 2704              		.loc 1 655 5 is_stmt 1 view .LVU668
 2705              		.loc 1 655 33 is_stmt 0 view .LVU669
ARM GAS  C:\Users\Morroway\AppData\Local\Temp\ccIGNgOC.s 			page 67


 2706 007c A308     		lsrs	r3, r4, #2
 2707 007e 0493     		str	r3, [sp, #16]
 2708 0080 0BEB9400 		add	r0, fp, r4, lsr #2
 2709              		.loc 1 655 5 view .LVU670
 2710 0084 4FEA540B 		lsr	fp, r4, #1
 2711 0088 1BFA80F0 		uxtah	r0, fp, r0
 2712 008c CDF804A0 		str	r10, [sp, #4]
 2713 0090 CDF80090 		str	r9, [sp]
 2714 0094 4346     		mov	r3, r8
 2715 0096 3A22     		movs	r2, #58
 2716 0098 3946     		mov	r1, r7
 2717 009a 80B2     		uxth	r0, r0
 2718 009c FFF7FEFF 		bl	Paint_DrawChar
 2719              	.LVL242:
 656:Core/Src/GUI_Paint.c ****     Paint_DrawChar(Xstart + Dx * 2 + Dx / 2         , Ystart, value[pTime->Min / 10] , Font, Color_
 2720              		.loc 1 656 5 is_stmt 1 view .LVU671
 2721              		.loc 1 656 27 is_stmt 0 view .LVU672
 2722 00a0 06EB4400 		add	r0, r6, r4, lsl #1
 2723              		.loc 1 656 74 view .LVU673
 2724 00a4 039A     		ldr	r2, [sp, #12]
 2725 00a6 5279     		ldrb	r2, [r2, #5]	@ zero_extendqisi2
 2726              		.loc 1 656 80 view .LVU674
 2727 00a8 A5FB0232 		umull	r3, r2, r5, r2
 2728              		.loc 1 656 68 view .LVU675
 2729 00ac 0DF1280C 		add	ip, sp, #40
 2730 00b0 0CEBD202 		add	r2, ip, r2, lsr #3
 2731              		.loc 1 656 5 view .LVU676
 2732 00b4 1BFA80F0 		uxtah	r0, fp, r0
 2733 00b8 CDF804A0 		str	r10, [sp, #4]
 2734 00bc CDF80090 		str	r9, [sp]
 2735 00c0 4346     		mov	r3, r8
 2736 00c2 12F80C2C 		ldrb	r2, [r2, #-12]	@ zero_extendqisi2
 2737 00c6 3946     		mov	r1, r7
 2738 00c8 80B2     		uxth	r0, r0
 2739 00ca FFF7FEFF 		bl	Paint_DrawChar
 2740              	.LVL243:
 657:Core/Src/GUI_Paint.c ****     Paint_DrawChar(Xstart + Dx * 3 + Dx / 2         , Ystart, value[pTime->Min % 10] , Font, Color_
 2741              		.loc 1 657 5 is_stmt 1 view .LVU677
 2742              		.loc 1 657 27 is_stmt 0 view .LVU678
 2743 00ce 04EB4403 		add	r3, r4, r4, lsl #1
 2744 00d2 0593     		str	r3, [sp, #20]
 2745 00d4 F018     		adds	r0, r6, r3
 2746              		.loc 1 657 74 view .LVU679
 2747 00d6 039A     		ldr	r2, [sp, #12]
 2748 00d8 5379     		ldrb	r3, [r2, #5]	@ zero_extendqisi2
 2749              		.loc 1 657 80 view .LVU680
 2750 00da A5FB0312 		umull	r1, r2, r5, r3
 2751 00de D208     		lsrs	r2, r2, #3
 2752 00e0 02EB8202 		add	r2, r2, r2, lsl #2
 2753 00e4 A3EB4203 		sub	r3, r3, r2, lsl #1
 2754              		.loc 1 657 68 view .LVU681
 2755 00e8 0DF1280C 		add	ip, sp, #40
 2756 00ec 5CFA83F2 		uxtab	r2, ip, r3
 2757              		.loc 1 657 5 view .LVU682
 2758 00f0 1BFA80F0 		uxtah	r0, fp, r0
 2759 00f4 CDF804A0 		str	r10, [sp, #4]
 2760 00f8 CDF80090 		str	r9, [sp]
ARM GAS  C:\Users\Morroway\AppData\Local\Temp\ccIGNgOC.s 			page 68


 2761 00fc 4346     		mov	r3, r8
 2762 00fe 12F80C2C 		ldrb	r2, [r2, #-12]	@ zero_extendqisi2
 2763 0102 3946     		mov	r1, r7
 2764 0104 80B2     		uxth	r0, r0
 2765 0106 FFF7FEFF 		bl	Paint_DrawChar
 2766              	.LVL244:
 658:Core/Src/GUI_Paint.c ****     Paint_DrawChar(Xstart + Dx * 4 + Dx / 2 - Dx / 4, Ystart, ':'                    , Font, Color_
 2767              		.loc 1 658 5 is_stmt 1 view .LVU683
 2768              		.loc 1 658 27 is_stmt 0 view .LVU684
 2769 010a 06EB8400 		add	r0, r6, r4, lsl #2
 2770              		.loc 1 658 36 view .LVU685
 2771 010e 1BFA80F0 		uxtah	r0, fp, r0
 2772 0112 80B2     		uxth	r0, r0
 2773              		.loc 1 658 5 view .LVU686
 2774 0114 0499     		ldr	r1, [sp, #16]
 2775 0116 401A     		subs	r0, r0, r1
 2776 0118 CDF804A0 		str	r10, [sp, #4]
 2777 011c CDF80090 		str	r9, [sp]
 2778 0120 4346     		mov	r3, r8
 2779 0122 3A22     		movs	r2, #58
 2780 0124 3946     		mov	r1, r7
 2781 0126 80B2     		uxth	r0, r0
 2782 0128 FFF7FEFF 		bl	Paint_DrawChar
 2783              	.LVL245:
 659:Core/Src/GUI_Paint.c ****     Paint_DrawChar(Xstart + Dx * 5                  , Ystart, value[pTime->Sec / 10] , Font, Color_
 2784              		.loc 1 659 5 is_stmt 1 view .LVU687
 2785              		.loc 1 659 74 is_stmt 0 view .LVU688
 2786 012c 039A     		ldr	r2, [sp, #12]
 2787 012e 9279     		ldrb	r2, [r2, #6]	@ zero_extendqisi2
 2788              		.loc 1 659 80 view .LVU689
 2789 0130 A5FB0232 		umull	r3, r2, r5, r2
 2790              		.loc 1 659 68 view .LVU690
 2791 0134 0AA9     		add	r1, sp, #40
 2792 0136 01EBD202 		add	r2, r1, r2, lsr #3
 2793              		.loc 1 659 5 view .LVU691
 2794 013a 04EB8404 		add	r4, r4, r4, lsl #2
 2795              	.LVL246:
 2796              		.loc 1 659 5 view .LVU692
 2797 013e 3019     		adds	r0, r6, r4
 2798 0140 CDF804A0 		str	r10, [sp, #4]
 2799 0144 CDF80090 		str	r9, [sp]
 2800 0148 4346     		mov	r3, r8
 2801 014a 12F80C2C 		ldrb	r2, [r2, #-12]	@ zero_extendqisi2
 2802 014e 3946     		mov	r1, r7
 2803 0150 80B2     		uxth	r0, r0
 2804 0152 FFF7FEFF 		bl	Paint_DrawChar
 2805              	.LVL247:
 660:Core/Src/GUI_Paint.c ****     Paint_DrawChar(Xstart + Dx * 6                  , Ystart, value[pTime->Sec % 10] , Font, Color_
 2806              		.loc 1 660 5 is_stmt 1 view .LVU693
 2807              		.loc 1 660 74 is_stmt 0 view .LVU694
 2808 0156 039A     		ldr	r2, [sp, #12]
 2809 0158 9379     		ldrb	r3, [r2, #6]	@ zero_extendqisi2
 2810              		.loc 1 660 80 view .LVU695
 2811 015a A5FB0325 		umull	r2, r5, r5, r3
 2812 015e ED08     		lsrs	r5, r5, #3
 2813 0160 05EB8505 		add	r5, r5, r5, lsl #2
 2814 0164 A3EB4503 		sub	r3, r3, r5, lsl #1
ARM GAS  C:\Users\Morroway\AppData\Local\Temp\ccIGNgOC.s 			page 69


 2815              		.loc 1 660 68 view .LVU696
 2816 0168 0AAA     		add	r2, sp, #40
 2817 016a 52FA83F2 		uxtab	r2, r2, r3
 2818              		.loc 1 660 5 view .LVU697
 2819 016e 059B     		ldr	r3, [sp, #20]
 2820 0170 06EB4300 		add	r0, r6, r3, lsl #1
 2821 0174 CDF804A0 		str	r10, [sp, #4]
 2822 0178 CDF80090 		str	r9, [sp]
 2823 017c 4346     		mov	r3, r8
 2824 017e 12F80C2C 		ldrb	r2, [r2, #-12]	@ zero_extendqisi2
 2825 0182 3946     		mov	r1, r7
 2826 0184 80B2     		uxth	r0, r0
 2827 0186 FFF7FEFF 		bl	Paint_DrawChar
 2828              	.LVL248:
 661:Core/Src/GUI_Paint.c **** }
 2829              		.loc 1 661 1 view .LVU698
 2830 018a 0BB0     		add	sp, sp, #44
 2831              		.cfi_def_cfa_offset 36
 2832              		@ sp needed
 2833 018c BDE8F08F 		pop	{r4, r5, r6, r7, r8, r9, r10, fp, pc}
 2834              	.LVL249:
 2835              	.L203:
 2836              		.loc 1 661 1 view .LVU699
 2837              		.align	2
 2838              	.L202:
 2839 0190 00000000 		.word	.LC15
 2840 0194 CDCCCCCC 		.word	-858993459
 2841              		.cfi_endproc
 2842              	.LFE338:
 2844              		.section	.text.Paint_DrawImage,"ax",%progbits
 2845              		.align	1
 2846              		.global	Paint_DrawImage
 2847              		.syntax unified
 2848              		.thumb
 2849              		.thumb_func
 2851              	Paint_DrawImage:
 2852              	.LVL250:
 2853              	.LFB339:
 662:Core/Src/GUI_Paint.c **** 
 663:Core/Src/GUI_Paint.c **** /******************************************************************************
 664:Core/Src/GUI_Paint.c **** function:	Display image
 665:Core/Src/GUI_Paint.c **** parameter:
 666:Core/Src/GUI_Paint.c ****     image            Image start address
 667:Core/Src/GUI_Paint.c ****     xStart           : X starting coordinates
 668:Core/Src/GUI_Paint.c ****     yStart           : Y starting coordinates
 669:Core/Src/GUI_Paint.c ****     xEnd             Image width
 670:Core/Src/GUI_Paint.c ****     yEnd             : Image height
 671:Core/Src/GUI_Paint.c **** ******************************************************************************/
 672:Core/Src/GUI_Paint.c **** void Paint_DrawImage(const unsigned char *image, UWORD xStart, UWORD yStart, UWORD W_Image, UWORD H
 673:Core/Src/GUI_Paint.c **** {
 2854              		.loc 1 673 1 is_stmt 1 view -0
 2855              		.cfi_startproc
 2856              		@ args = 4, pretend = 0, frame = 0
 2857              		@ frame_needed = 0, uses_anonymous_args = 0
 2858              		.loc 1 673 1 is_stmt 0 view .LVU701
 2859 0000 2DE9F047 		push	{r4, r5, r6, r7, r8, r9, r10, lr}
 2860              		.cfi_def_cfa_offset 32
ARM GAS  C:\Users\Morroway\AppData\Local\Temp\ccIGNgOC.s 			page 70


 2861              		.cfi_offset 4, -32
 2862              		.cfi_offset 5, -28
 2863              		.cfi_offset 6, -24
 2864              		.cfi_offset 7, -20
 2865              		.cfi_offset 8, -16
 2866              		.cfi_offset 9, -12
 2867              		.cfi_offset 10, -8
 2868              		.cfi_offset 14, -4
 2869 0004 8146     		mov	r9, r0
 2870 0006 0F46     		mov	r7, r1
 2871 0008 9046     		mov	r8, r2
 2872 000a 1D46     		mov	r5, r3
 2873 000c BDF820A0 		ldrh	r10, [sp, #32]
 674:Core/Src/GUI_Paint.c ****     int i,j; 
 2874              		.loc 1 674 5 is_stmt 1 view .LVU702
 675:Core/Src/GUI_Paint.c **** 		for(j = 0; j < H_Image; j++){
 2875              		.loc 1 675 3 view .LVU703
 2876              	.LVL251:
 2877              		.loc 1 675 9 is_stmt 0 view .LVU704
 2878 0010 0026     		movs	r6, #0
 2879              		.loc 1 675 3 view .LVU705
 2880 0012 21E0     		b	.L205
 2881              	.LVL252:
 2882              	.L206:
 676:Core/Src/GUI_Paint.c **** 			for(i = 0; i < W_Image; i++){
 2883              		.loc 1 676 29 is_stmt 1 discriminator 2 view .LVU706
 2884 0014 0134     		adds	r4, r4, #1
 2885              	.LVL253:
 2886              	.L208:
 2887              		.loc 1 676 17 discriminator 1 view .LVU707
 2888 0016 A542     		cmp	r5, r4
 2889 0018 1DDD     		ble	.L211
 677:Core/Src/GUI_Paint.c **** 				if(xStart+i < LCD_WIDTH  &&  yStart+j < LCD_HEIGHT)//Exceeded part does not display
 2890              		.loc 1 677 5 view .LVU708
 2891              		.loc 1 677 14 is_stmt 0 view .LVU709
 2892 001a 07EB040C 		add	ip, r7, r4
 2893              		.loc 1 677 7 view .LVU710
 2894 001e BCF5487F 		cmp	ip, #800
 2895 0022 F7DA     		bge	.L206
 2896              		.loc 1 677 40 discriminator 1 view .LVU711
 2897 0024 08EB0603 		add	r3, r8, r6
 2898              		.loc 1 677 30 discriminator 1 view .LVU712
 2899 0028 B3F5F07F 		cmp	r3, #480
 2900 002c F2DA     		bge	.L206
 678:Core/Src/GUI_Paint.c **** 					Paint_SetPixel(xStart + i, yStart + j, (*(image + j*W_Image*2 + i*2+1))<<8 | (*(image + j*W_Im
 2901              		.loc 1 678 6 is_stmt 1 view .LVU713
 2902              		.loc 1 678 57 is_stmt 0 view .LVU714
 2903 002e 06FB05F2 		mul	r2, r6, r5
 2904              		.loc 1 678 71 view .LVU715
 2905 0032 6300     		lsls	r3, r4, #1
 2906              		.loc 1 678 68 view .LVU716
 2907 0034 03EB4203 		add	r3, r3, r2, lsl #1
 2908              		.loc 1 678 73 view .LVU717
 2909 0038 5A1C     		adds	r2, r3, #1
 2910              		.loc 1 678 46 view .LVU718
 2911 003a 19F80220 		ldrb	r2, [r9, r2]	@ zero_extendqisi2
 2912              		.loc 1 678 84 view .LVU719
ARM GAS  C:\Users\Morroway\AppData\Local\Temp\ccIGNgOC.s 			page 71


 2913 003e 19F80330 		ldrb	r3, [r9, r3]	@ zero_extendqisi2
 2914              		.loc 1 678 6 view .LVU720
 2915 0042 08EB0601 		add	r1, r8, r6
 2916 0046 43EA0222 		orr	r2, r3, r2, lsl #8
 2917 004a 89B2     		uxth	r1, r1
 2918 004c 1FFA8CF0 		uxth	r0, ip
 2919 0050 FFF7FEFF 		bl	Paint_SetPixel
 2920              	.LVL254:
 2921 0054 DEE7     		b	.L206
 2922              	.L211:
 675:Core/Src/GUI_Paint.c **** 			for(i = 0; i < W_Image; i++){
 2923              		.loc 1 675 28 is_stmt 1 discriminator 2 view .LVU721
 2924 0056 0136     		adds	r6, r6, #1
 2925              	.LVL255:
 2926              	.L205:
 675:Core/Src/GUI_Paint.c **** 			for(i = 0; i < W_Image; i++){
 2927              		.loc 1 675 16 discriminator 1 view .LVU722
 2928 0058 B245     		cmp	r10, r6
 2929 005a 01DD     		ble	.L212
 676:Core/Src/GUI_Paint.c **** 				if(xStart+i < LCD_WIDTH  &&  yStart+j < LCD_HEIGHT)//Exceeded part does not display
 2930              		.loc 1 676 10 is_stmt 0 view .LVU723
 2931 005c 0024     		movs	r4, #0
 2932 005e DAE7     		b	.L208
 2933              	.L212:
 679:Core/Src/GUI_Paint.c **** 				//Using arrays is a property of sequential storage, accessing the original array by algorithm
 680:Core/Src/GUI_Paint.c **** 				//j*W_Image*2 			   Y offset
 681:Core/Src/GUI_Paint.c **** 				//i*2              	   X offset
 682:Core/Src/GUI_Paint.c **** 			}
 683:Core/Src/GUI_Paint.c **** 		}
 684:Core/Src/GUI_Paint.c **** }
 2934              		.loc 1 684 1 view .LVU724
 2935 0060 BDE8F087 		pop	{r4, r5, r6, r7, r8, r9, r10, pc}
 2936              		.loc 1 684 1 view .LVU725
 2937              		.cfi_endproc
 2938              	.LFE339:
 2940              		.section	.text.Paint_DrawImage_bitmap,"ax",%progbits
 2941              		.align	1
 2942              		.global	Paint_DrawImage_bitmap
 2943              		.syntax unified
 2944              		.thumb
 2945              		.thumb_func
 2947              	Paint_DrawImage_bitmap:
 2948              	.LVL256:
 2949              	.LFB340:
 685:Core/Src/GUI_Paint.c **** 
 686:Core/Src/GUI_Paint.c **** /******************************************************************************
 687:Core/Src/GUI_Paint.c **** function:	Convert RGB565 to bitmap and display
 688:Core/Src/GUI_Paint.c **** parameter:
 689:Core/Src/GUI_Paint.c ****     image            Image start address
 690:Core/Src/GUI_Paint.c ****     xStart           : X starting coordinates
 691:Core/Src/GUI_Paint.c ****     yStart           : Y starting coordinates
 692:Core/Src/GUI_Paint.c ****     W_Image          Image width
 693:Core/Src/GUI_Paint.c ****     H_Image          : Image height
 694:Core/Src/GUI_Paint.c **** 		background_color : background color
 695:Core/Src/GUI_Paint.c **** 		Figure_color		 Figure color
 696:Core/Src/GUI_Paint.c **** RemarksThe background color is not output when the background color value is 
 697:Core/Src/GUI_Paint.c **** 				 greater than or equal to 0x10000, and the background color is replaced 
ARM GAS  C:\Users\Morroway\AppData\Local\Temp\ccIGNgOC.s 			page 72


 698:Core/Src/GUI_Paint.c **** 				 by the original color.
 699:Core/Src/GUI_Paint.c **** ******************************************************************************/
 700:Core/Src/GUI_Paint.c **** void Paint_DrawImage_bitmap(const unsigned char *image, UWORD xStart, UWORD yStart, UWORD W_Image, 
 701:Core/Src/GUI_Paint.c **** {
 2950              		.loc 1 701 1 is_stmt 1 view -0
 2951              		.cfi_startproc
 2952              		@ args = 12, pretend = 0, frame = 0
 2953              		@ frame_needed = 0, uses_anonymous_args = 0
 2954              		.loc 1 701 1 is_stmt 0 view .LVU727
 2955 0000 2DE9F84F 		push	{r3, r4, r5, r6, r7, r8, r9, r10, fp, lr}
 2956              		.cfi_def_cfa_offset 40
 2957              		.cfi_offset 3, -40
 2958              		.cfi_offset 4, -36
 2959              		.cfi_offset 5, -32
 2960              		.cfi_offset 6, -28
 2961              		.cfi_offset 7, -24
 2962              		.cfi_offset 8, -20
 2963              		.cfi_offset 9, -16
 2964              		.cfi_offset 10, -12
 2965              		.cfi_offset 11, -8
 2966              		.cfi_offset 14, -4
 2967 0004 8146     		mov	r9, r0
 2968 0006 0F46     		mov	r7, r1
 2969 0008 9046     		mov	r8, r2
 2970 000a 1D46     		mov	r5, r3
 2971 000c BDF828B0 		ldrh	fp, [sp, #40]
 2972 0010 BDF830A0 		ldrh	r10, [sp, #48]
 702:Core/Src/GUI_Paint.c **** 	int i,j;
 2973              		.loc 1 702 2 is_stmt 1 view .LVU728
 703:Core/Src/GUI_Paint.c **** 	UWORD temp = 0;
 2974              		.loc 1 703 2 view .LVU729
 2975              	.LVL257:
 704:Core/Src/GUI_Paint.c **** 	UBYTE R,G,B;
 2976              		.loc 1 704 2 view .LVU730
 705:Core/Src/GUI_Paint.c **** 	R = G = B = 0;
 2977              		.loc 1 705 2 view .LVU731
 706:Core/Src/GUI_Paint.c **** 	for(j = 0; j < H_Image; j++){
 2978              		.loc 1 706 2 view .LVU732
 2979              		.loc 1 706 8 is_stmt 0 view .LVU733
 2980 0014 0026     		movs	r6, #0
 2981              		.loc 1 706 2 view .LVU734
 2982 0016 3AE0     		b	.L214
 2983              	.LVL258:
 2984              	.L216:
 707:Core/Src/GUI_Paint.c **** 		for(i = 0; i < W_Image; i++){
 708:Core/Src/GUI_Paint.c **** 			if(xStart+i < LCD_WIDTH  &&  yStart+j < LCD_HEIGHT){
 709:Core/Src/GUI_Paint.c **** 				temp = ((*(image + j*W_Image*2 + i*2+1))<<8 | (*(image + j*W_Image*2 + i*2)));
 710:Core/Src/GUI_Paint.c **** 			
 711:Core/Src/GUI_Paint.c **** 				R = temp >> 11;
 712:Core/Src/GUI_Paint.c **** 				G = (temp >>5) & 0x3f;
 713:Core/Src/GUI_Paint.c **** 				B = temp & 0x1f;
 714:Core/Src/GUI_Paint.c **** 			
 715:Core/Src/GUI_Paint.c **** 				if(R < 16 || G < 32 || B < 16){
 716:Core/Src/GUI_Paint.c **** 					Paint_SetPixel(xStart + i, yStart + j, Figure_color);
 2985              		.loc 1 716 6 is_stmt 1 view .LVU735
 2986 0018 08EB0601 		add	r1, r8, r6
 2987              	.LVL259:
ARM GAS  C:\Users\Morroway\AppData\Local\Temp\ccIGNgOC.s 			page 73


 2988              		.loc 1 716 6 is_stmt 0 view .LVU736
 2989 001c 3819     		adds	r0, r7, r4
 2990 001e 5246     		mov	r2, r10
 2991              	.LVL260:
 2992              		.loc 1 716 6 view .LVU737
 2993 0020 89B2     		uxth	r1, r1
 2994 0022 80B2     		uxth	r0, r0
 2995 0024 FFF7FEFF 		bl	Paint_SetPixel
 2996              	.LVL261:
 2997              	.L215:
 707:Core/Src/GUI_Paint.c **** 		for(i = 0; i < W_Image; i++){
 2998              		.loc 1 707 28 is_stmt 1 discriminator 2 view .LVU738
 2999 0028 0134     		adds	r4, r4, #1
 3000              	.LVL262:
 3001              	.L219:
 707:Core/Src/GUI_Paint.c **** 		for(i = 0; i < W_Image; i++){
 3002              		.loc 1 707 16 discriminator 1 view .LVU739
 3003 002a A542     		cmp	r5, r4
 3004 002c 2EDD     		ble	.L222
 708:Core/Src/GUI_Paint.c **** 				temp = ((*(image + j*W_Image*2 + i*2+1))<<8 | (*(image + j*W_Image*2 + i*2)));
 3005              		.loc 1 708 4 view .LVU740
 708:Core/Src/GUI_Paint.c **** 				temp = ((*(image + j*W_Image*2 + i*2+1))<<8 | (*(image + j*W_Image*2 + i*2)));
 3006              		.loc 1 708 13 is_stmt 0 view .LVU741
 3007 002e 3B19     		adds	r3, r7, r4
 708:Core/Src/GUI_Paint.c **** 				temp = ((*(image + j*W_Image*2 + i*2+1))<<8 | (*(image + j*W_Image*2 + i*2)));
 3008              		.loc 1 708 6 view .LVU742
 3009 0030 B3F5487F 		cmp	r3, #800
 3010 0034 F8DA     		bge	.L215
 708:Core/Src/GUI_Paint.c **** 				temp = ((*(image + j*W_Image*2 + i*2+1))<<8 | (*(image + j*W_Image*2 + i*2)));
 3011              		.loc 1 708 39 discriminator 1 view .LVU743
 3012 0036 08EB0603 		add	r3, r8, r6
 708:Core/Src/GUI_Paint.c **** 				temp = ((*(image + j*W_Image*2 + i*2+1))<<8 | (*(image + j*W_Image*2 + i*2)));
 3013              		.loc 1 708 29 discriminator 1 view .LVU744
 3014 003a B3F5F07F 		cmp	r3, #480
 3015 003e F3DA     		bge	.L215
 709:Core/Src/GUI_Paint.c **** 			
 3016              		.loc 1 709 5 is_stmt 1 view .LVU745
 709:Core/Src/GUI_Paint.c **** 			
 3017              		.loc 1 709 25 is_stmt 0 view .LVU746
 3018 0040 06FB05F2 		mul	r2, r6, r5
 709:Core/Src/GUI_Paint.c **** 			
 3019              		.loc 1 709 39 view .LVU747
 3020 0044 6300     		lsls	r3, r4, #1
 709:Core/Src/GUI_Paint.c **** 			
 3021              		.loc 1 709 36 view .LVU748
 3022 0046 03EB4203 		add	r3, r3, r2, lsl #1
 709:Core/Src/GUI_Paint.c **** 			
 3023              		.loc 1 709 41 view .LVU749
 3024 004a 5A1C     		adds	r2, r3, #1
 709:Core/Src/GUI_Paint.c **** 			
 3025              		.loc 1 709 14 view .LVU750
 3026 004c 19F80220 		ldrb	r2, [r9, r2]	@ zero_extendqisi2
 709:Core/Src/GUI_Paint.c **** 			
 3027              		.loc 1 709 52 view .LVU751
 3028 0050 19F80330 		ldrb	r3, [r9, r3]	@ zero_extendqisi2
 709:Core/Src/GUI_Paint.c **** 			
 3029              		.loc 1 709 49 view .LVU752
ARM GAS  C:\Users\Morroway\AppData\Local\Temp\ccIGNgOC.s 			page 74


 3030 0054 43EA0223 		orr	r3, r3, r2, lsl #8
 709:Core/Src/GUI_Paint.c **** 			
 3031              		.loc 1 709 10 view .LVU753
 3032 0058 1A46     		mov	r2, r3
 3033              	.LVL263:
 711:Core/Src/GUI_Paint.c **** 				G = (temp >>5) & 0x3f;
 3034              		.loc 1 711 5 is_stmt 1 view .LVU754
 712:Core/Src/GUI_Paint.c **** 				B = temp & 0x1f;
 3035              		.loc 1 712 5 view .LVU755
 712:Core/Src/GUI_Paint.c **** 				B = temp & 0x1f;
 3036              		.loc 1 712 20 is_stmt 0 view .LVU756
 3037 005a C3F34711 		ubfx	r1, r3, #5, #8
 3038              	.LVL264:
 713:Core/Src/GUI_Paint.c **** 			
 3039              		.loc 1 713 5 is_stmt 1 view .LVU757
 713:Core/Src/GUI_Paint.c **** 			
 3040              		.loc 1 713 14 is_stmt 0 view .LVU758
 3041 005e DBB2     		uxtb	r3, r3
 3042              	.LVL265:
 715:Core/Src/GUI_Paint.c **** 					Paint_SetPixel(xStart + i, yStart + j, Figure_color);
 3043              		.loc 1 715 5 is_stmt 1 view .LVU759
 715:Core/Src/GUI_Paint.c **** 					Paint_SetPixel(xStart + i, yStart + j, Figure_color);
 3044              		.loc 1 715 7 is_stmt 0 view .LVU760
 3045 0060 B2F5004F 		cmp	r2, #32768
 3046 0064 D8D3     		bcc	.L216
 715:Core/Src/GUI_Paint.c **** 					Paint_SetPixel(xStart + i, yStart + j, Figure_color);
 3047              		.loc 1 715 15 discriminator 1 view .LVU761
 3048 0066 11F0200F 		tst	r1, #32
 3049 006a D5D0     		beq	.L216
 715:Core/Src/GUI_Paint.c **** 					Paint_SetPixel(xStart + i, yStart + j, Figure_color);
 3050              		.loc 1 715 25 discriminator 2 view .LVU762
 3051 006c 13F0100F 		tst	r3, #16
 3052 0070 D2D0     		beq	.L216
 717:Core/Src/GUI_Paint.c **** 				}
 718:Core/Src/GUI_Paint.c **** 				else{
 719:Core/Src/GUI_Paint.c **** 					if(background_color < 0x10000){
 3053              		.loc 1 719 6 is_stmt 1 view .LVU763
 3054              		.loc 1 719 8 is_stmt 0 view .LVU764
 3055 0072 0B9B     		ldr	r3, [sp, #44]
 3056              	.LVL266:
 3057              		.loc 1 719 8 view .LVU765
 3058 0074 B3F5803F 		cmp	r3, #65536
 3059 0078 D6D2     		bcs	.L215
 720:Core/Src/GUI_Paint.c **** 						Paint_SetPixel(xStart + i, yStart + j, background_color);
 3060              		.loc 1 720 7 is_stmt 1 view .LVU766
 3061 007a 08EB0601 		add	r1, r8, r6
 3062              	.LVL267:
 3063              		.loc 1 720 7 is_stmt 0 view .LVU767
 3064 007e 3819     		adds	r0, r7, r4
 3065 0080 9AB2     		uxth	r2, r3
 3066              	.LVL268:
 3067              		.loc 1 720 7 view .LVU768
 3068 0082 89B2     		uxth	r1, r1
 3069 0084 80B2     		uxth	r0, r0
 3070 0086 FFF7FEFF 		bl	Paint_SetPixel
 3071              	.LVL269:
 3072              		.loc 1 720 7 view .LVU769
ARM GAS  C:\Users\Morroway\AppData\Local\Temp\ccIGNgOC.s 			page 75


 3073 008a CDE7     		b	.L215
 3074              	.L222:
 706:Core/Src/GUI_Paint.c **** 		for(i = 0; i < W_Image; i++){
 3075              		.loc 1 706 27 is_stmt 1 discriminator 2 view .LVU770
 3076 008c 0136     		adds	r6, r6, #1
 3077              	.LVL270:
 3078              	.L214:
 706:Core/Src/GUI_Paint.c **** 		for(i = 0; i < W_Image; i++){
 3079              		.loc 1 706 15 discriminator 1 view .LVU771
 3080 008e B345     		cmp	fp, r6
 3081 0090 01DD     		ble	.L223
 707:Core/Src/GUI_Paint.c **** 			if(xStart+i < LCD_WIDTH  &&  yStart+j < LCD_HEIGHT){
 3082              		.loc 1 707 9 is_stmt 0 view .LVU772
 3083 0092 0024     		movs	r4, #0
 3084 0094 C9E7     		b	.L219
 3085              	.L223:
 721:Core/Src/GUI_Paint.c **** 					}
 722:Core/Src/GUI_Paint.c **** 				}
 723:Core/Src/GUI_Paint.c **** 			}
 724:Core/Src/GUI_Paint.c **** 		}
 725:Core/Src/GUI_Paint.c **** 	}
 726:Core/Src/GUI_Paint.c **** }
 3086              		.loc 1 726 1 view .LVU773
 3087 0096 BDE8F88F 		pop	{r3, r4, r5, r6, r7, r8, r9, r10, fp, pc}
 3088              		.loc 1 726 1 view .LVU774
 3089              		.cfi_endproc
 3090              	.LFE340:
 3092              		.section	.text.Partial_Background_Refresh,"ax",%progbits
 3093              		.align	1
 3094              		.global	Partial_Background_Refresh
 3095              		.syntax unified
 3096              		.thumb
 3097              		.thumb_func
 3099              	Partial_Background_Refresh:
 3100              	.LVL271:
 3101              	.LFB341:
 727:Core/Src/GUI_Paint.c **** 
 728:Core/Src/GUI_Paint.c **** /******************************************************************************
 729:Core/Src/GUI_Paint.c **** function:	Partial background refresh
 730:Core/Src/GUI_Paint.c **** parameter:
 731:Core/Src/GUI_Paint.c ****     image            Background image first address
 732:Core/Src/GUI_Paint.c ****     xStart           : X starting coordinates
 733:Core/Src/GUI_Paint.c ****     yStart           : Y starting coordinates
 734:Core/Src/GUI_Paint.c ****     W_Image          Image width
 735:Core/Src/GUI_Paint.c ****     H_Image          : Image height
 736:Core/Src/GUI_Paint.c **** 		background_color : background color
 737:Core/Src/GUI_Paint.c **** 		Figure_color		 Figure color
 738:Core/Src/GUI_Paint.c **** ******************************************************************************/
 739:Core/Src/GUI_Paint.c **** void Partial_Background_Refresh(const unsigned char *image_Background, UWORD xStart, UWORD yStart, 
 740:Core/Src/GUI_Paint.c **** {
 3102              		.loc 1 740 1 is_stmt 1 view -0
 3103              		.cfi_startproc
 3104              		@ args = 4, pretend = 0, frame = 0
 3105              		@ frame_needed = 0, uses_anonymous_args = 0
 3106              		.loc 1 740 1 is_stmt 0 view .LVU776
 3107 0000 2DE9F047 		push	{r4, r5, r6, r7, r8, r9, r10, lr}
 3108              		.cfi_def_cfa_offset 32
ARM GAS  C:\Users\Morroway\AppData\Local\Temp\ccIGNgOC.s 			page 76


 3109              		.cfi_offset 4, -32
 3110              		.cfi_offset 5, -28
 3111              		.cfi_offset 6, -24
 3112              		.cfi_offset 7, -20
 3113              		.cfi_offset 8, -16
 3114              		.cfi_offset 9, -12
 3115              		.cfi_offset 10, -8
 3116              		.cfi_offset 14, -4
 3117 0004 8146     		mov	r9, r0
 3118 0006 0E46     		mov	r6, r1
 3119 0008 9046     		mov	r8, r2
 3120 000a 1F46     		mov	r7, r3
 3121 000c BDF820A0 		ldrh	r10, [sp, #32]
 741:Core/Src/GUI_Paint.c **** 	UWORD i,j;
 3122              		.loc 1 741 2 is_stmt 1 view .LVU777
 742:Core/Src/GUI_Paint.c **** 	UDOUBLE temp = 0;
 3123              		.loc 1 742 2 view .LVU778
 3124              	.LVL272:
 743:Core/Src/GUI_Paint.c **** 	for(j = 0; j < H_Image; j++){
 3125              		.loc 1 743 2 view .LVU779
 3126              		.loc 1 743 8 is_stmt 0 view .LVU780
 3127 0010 0025     		movs	r5, #0
 3128              		.loc 1 743 2 view .LVU781
 3129 0012 24E0     		b	.L225
 3130              	.LVL273:
 3131              	.L226:
 744:Core/Src/GUI_Paint.c **** 		for(i = 0; i < W_Image; i++){
 3132              		.loc 1 744 28 is_stmt 1 discriminator 2 view .LVU782
 3133 0014 0134     		adds	r4, r4, #1
 3134              	.LVL274:
 3135              		.loc 1 744 28 is_stmt 0 discriminator 2 view .LVU783
 3136 0016 A4B2     		uxth	r4, r4
 3137              	.LVL275:
 3138              	.L228:
 3139              		.loc 1 744 16 is_stmt 1 discriminator 1 view .LVU784
 3140 0018 BC42     		cmp	r4, r7
 3141 001a 1ED2     		bcs	.L231
 745:Core/Src/GUI_Paint.c **** 			if(xStart+i < LCD_WIDTH  &&  yStart+j < LCD_HEIGHT){
 3142              		.loc 1 745 4 view .LVU785
 3143              		.loc 1 745 13 is_stmt 0 view .LVU786
 3144 001c 06EB040C 		add	ip, r6, r4
 3145              		.loc 1 745 6 view .LVU787
 3146 0020 BCF5487F 		cmp	ip, #800
 3147 0024 F6DA     		bge	.L226
 3148              		.loc 1 745 39 discriminator 1 view .LVU788
 3149 0026 08EB0503 		add	r3, r8, r5
 3150              		.loc 1 745 29 discriminator 1 view .LVU789
 3151 002a B3F5F07F 		cmp	r3, #480
 3152 002e F1DA     		bge	.L226
 746:Core/Src/GUI_Paint.c **** 				temp = (yStart + j) * 800*2 + (xStart + i)*2;
 3153              		.loc 1 746 5 is_stmt 1 view .LVU790
 3154              		.loc 1 746 33 is_stmt 0 view .LVU791
 3155 0030 4FF44872 		mov	r2, #800
 3156 0034 02FB03CC 		mla	ip, r2, r3, ip
 3157 0038 4FEA4C03 		lsl	r3, ip, #1
 3158              	.LVL276:
 747:Core/Src/GUI_Paint.c **** 				Paint_SetPixel(xStart + i, yStart + j, (*(image_Background+temp+1))<<8 | (*(image_Background + 
ARM GAS  C:\Users\Morroway\AppData\Local\Temp\ccIGNgOC.s 			page 77


 3159              		.loc 1 747 5 is_stmt 1 view .LVU792
 3160              		.loc 1 747 68 is_stmt 0 view .LVU793
 3161 003c 0133     		adds	r3, r3, #1
 3162              	.LVL277:
 3163              		.loc 1 747 45 view .LVU794
 3164 003e 19F80320 		ldrb	r2, [r9, r3]	@ zero_extendqisi2
 3165              		.loc 1 747 79 view .LVU795
 3166 0042 19F81C30 		ldrb	r3, [r9, ip, lsl #1]	@ zero_extendqisi2
 3167              	.LVL278:
 3168              		.loc 1 747 5 view .LVU796
 3169 0046 05EB0801 		add	r1, r5, r8
 3170 004a A019     		adds	r0, r4, r6
 3171 004c 43EA0222 		orr	r2, r3, r2, lsl #8
 3172 0050 89B2     		uxth	r1, r1
 3173 0052 80B2     		uxth	r0, r0
 3174 0054 FFF7FEFF 		bl	Paint_SetPixel
 3175              	.LVL279:
 3176              		.loc 1 747 5 view .LVU797
 3177 0058 DCE7     		b	.L226
 3178              	.LVL280:
 3179              	.L231:
 743:Core/Src/GUI_Paint.c **** 		for(i = 0; i < W_Image; i++){
 3180              		.loc 1 743 27 is_stmt 1 discriminator 2 view .LVU798
 3181 005a 0135     		adds	r5, r5, #1
 3182              	.LVL281:
 743:Core/Src/GUI_Paint.c **** 		for(i = 0; i < W_Image; i++){
 3183              		.loc 1 743 27 is_stmt 0 discriminator 2 view .LVU799
 3184 005c ADB2     		uxth	r5, r5
 3185              	.LVL282:
 3186              	.L225:
 743:Core/Src/GUI_Paint.c **** 		for(i = 0; i < W_Image; i++){
 3187              		.loc 1 743 15 is_stmt 1 discriminator 1 view .LVU800
 3188 005e 5545     		cmp	r5, r10
 3189 0060 01D2     		bcs	.L232
 744:Core/Src/GUI_Paint.c **** 			if(xStart+i < LCD_WIDTH  &&  yStart+j < LCD_HEIGHT){
 3190              		.loc 1 744 9 is_stmt 0 view .LVU801
 3191 0062 0024     		movs	r4, #0
 3192 0064 D8E7     		b	.L228
 3193              	.L232:
 748:Core/Src/GUI_Paint.c **** 			}
 749:Core/Src/GUI_Paint.c **** 		}
 750:Core/Src/GUI_Paint.c **** 	}
 751:Core/Src/GUI_Paint.c **** }
 3194              		.loc 1 751 1 view .LVU802
 3195 0066 BDE8F087 		pop	{r4, r5, r6, r7, r8, r9, r10, pc}
 3196              		.loc 1 751 1 view .LVU803
 3197              		.cfi_endproc
 3198              	.LFE341:
 3200              		.global	Paint
 3201              		.section	.bss.Paint,"aw",%nobits
 3202              		.align	2
 3203              		.set	.LANCHOR0,. + 0
 3206              	Paint:
 3207 0000 00000000 		.space	24
 3207      00000000 
 3207      00000000 
 3207      00000000 
ARM GAS  C:\Users\Morroway\AppData\Local\Temp\ccIGNgOC.s 			page 78


 3207      00000000 
 3208              		.text
 3209              	.Letext0:
 3210              		.file 2 "c:\\users\\morroway\\appdata\\roaming\\code\\user\\globalstorage\\bmd.stm32-for-vscode\\@
 3211              		.file 3 "c:\\users\\morroway\\appdata\\roaming\\code\\user\\globalstorage\\bmd.stm32-for-vscode\\@
 3212              		.file 4 "Core/Inc/fonts.h"
 3213              		.file 5 "Core/Inc/GUI_Paint.h"
 3214              		.file 6 "Core/Inc/BSP_RGB_LCD.h"
 3215              		.file 7 "<built-in>"
 3216              		.file 8 "c:\\users\\morroway\\appdata\\roaming\\code\\user\\globalstorage\\bmd.stm32-for-vscode\\@
ARM GAS  C:\Users\Morroway\AppData\Local\Temp\ccIGNgOC.s 			page 79

