ARM GAS  C:\Users\Morroway\AppData\Local\Temp\cchp6UTK.s 			page 1


   1              		.cpu cortex-m4
   2              		.arch armv7e-m
   3              		.fpu fpv4-sp-d16
   4              		.eabi_attribute 27, 1
   5              		.eabi_attribute 28, 1
   6              		.eabi_attribute 20, 1
   7              		.eabi_attribute 21, 1
   8              		.eabi_attribute 23, 3
   9              		.eabi_attribute 24, 1
  10              		.eabi_attribute 25, 1
  11              		.eabi_attribute 26, 1
  12              		.eabi_attribute 30, 1
  13              		.eabi_attribute 34, 1
  14              		.eabi_attribute 18, 4
  15              		.file	"ltdc.c"
  16              		.text
  17              	.Ltext0:
  18              		.cfi_sections	.debug_frame
  19              		.section	.text.MX_LTDC_Init,"ax",%progbits
  20              		.align	1
  21              		.global	MX_LTDC_Init
  22              		.syntax unified
  23              		.thumb
  24              		.thumb_func
  26              	MX_LTDC_Init:
  27              	.LFB321:
  28              		.file 1 "Core/Src/ltdc.c"
   1:Core/Src/ltdc.c **** /**
   2:Core/Src/ltdc.c ****   ******************************************************************************
   3:Core/Src/ltdc.c ****   * File Name          : LTDC.c
   4:Core/Src/ltdc.c ****   * Description        : This file provides code for the configuration
   5:Core/Src/ltdc.c ****   *                      of the LTDC instances.
   6:Core/Src/ltdc.c ****   ******************************************************************************
   7:Core/Src/ltdc.c ****   ** This notice applies to any and all portions of this file
   8:Core/Src/ltdc.c ****   * that are not between comment pairs USER CODE BEGIN and
   9:Core/Src/ltdc.c ****   * USER CODE END. Other portions of this file, whether 
  10:Core/Src/ltdc.c ****   * inserted by the user or by software development tools
  11:Core/Src/ltdc.c ****   * are owned by their respective copyright owners.
  12:Core/Src/ltdc.c ****   *
  13:Core/Src/ltdc.c ****   * COPYRIGHT(c) 2019 STMicroelectronics
  14:Core/Src/ltdc.c ****   *
  15:Core/Src/ltdc.c ****   * Redistribution and use in source and binary forms, with or without modification,
  16:Core/Src/ltdc.c ****   * are permitted provided that the following conditions are met:
  17:Core/Src/ltdc.c ****   *   1. Redistributions of source code must retain the above copyright notice,
  18:Core/Src/ltdc.c ****   *      this list of conditions and the following disclaimer.
  19:Core/Src/ltdc.c ****   *   2. Redistributions in binary form must reproduce the above copyright notice,
  20:Core/Src/ltdc.c ****   *      this list of conditions and the following disclaimer in the documentation
  21:Core/Src/ltdc.c ****   *      and/or other materials provided with the distribution.
  22:Core/Src/ltdc.c ****   *   3. Neither the name of STMicroelectronics nor the names of its contributors
  23:Core/Src/ltdc.c ****   *      may be used to endorse or promote products derived from this software
  24:Core/Src/ltdc.c ****   *      without specific prior written permission.
  25:Core/Src/ltdc.c ****   *
  26:Core/Src/ltdc.c ****   * THIS SOFTWARE IS PROVIDED BY THE COPYRIGHT HOLDERS AND CONTRIBUTORS "AS IS"
  27:Core/Src/ltdc.c ****   * AND ANY EXPRESS OR IMPLIED WARRANTIES, INCLUDING, BUT NOT LIMITED TO, THE
  28:Core/Src/ltdc.c ****   * IMPLIED WARRANTIES OF MERCHANTABILITY AND FITNESS FOR A PARTICULAR PURPOSE ARE
  29:Core/Src/ltdc.c ****   * DISCLAIMED. IN NO EVENT SHALL THE COPYRIGHT HOLDER OR CONTRIBUTORS BE LIABLE
  30:Core/Src/ltdc.c ****   * FOR ANY DIRECT, INDIRECT, INCIDENTAL, SPECIAL, EXEMPLARY, OR CONSEQUENTIAL
ARM GAS  C:\Users\Morroway\AppData\Local\Temp\cchp6UTK.s 			page 2


  31:Core/Src/ltdc.c ****   * DAMAGES (INCLUDING, BUT NOT LIMITED TO, PROCUREMENT OF SUBSTITUTE GOODS OR
  32:Core/Src/ltdc.c ****   * SERVICES; LOSS OF USE, DATA, OR PROFITS; OR BUSINESS INTERRUPTION) HOWEVER
  33:Core/Src/ltdc.c ****   * CAUSED AND ON ANY THEORY OF LIABILITY, WHETHER IN CONTRACT, STRICT LIABILITY,
  34:Core/Src/ltdc.c ****   * OR TORT (INCLUDING NEGLIGENCE OR OTHERWISE) ARISING IN ANY WAY OUT OF THE USE
  35:Core/Src/ltdc.c ****   * OF THIS SOFTWARE, EVEN IF ADVISED OF THE POSSIBILITY OF SUCH DAMAGE.
  36:Core/Src/ltdc.c ****   *
  37:Core/Src/ltdc.c ****   ******************************************************************************
  38:Core/Src/ltdc.c ****   */
  39:Core/Src/ltdc.c **** 
  40:Core/Src/ltdc.c **** /* Includes ------------------------------------------------------------------*/
  41:Core/Src/ltdc.c **** #include "ltdc.h"
  42:Core/Src/ltdc.c **** 
  43:Core/Src/ltdc.c **** /* USER CODE BEGIN 0 */
  44:Core/Src/ltdc.c **** 
  45:Core/Src/ltdc.c **** /* USER CODE END 0 */
  46:Core/Src/ltdc.c **** 
  47:Core/Src/ltdc.c **** LTDC_HandleTypeDef hltdc;
  48:Core/Src/ltdc.c **** 
  49:Core/Src/ltdc.c **** /* LTDC init function */
  50:Core/Src/ltdc.c **** void MX_LTDC_Init(void)
  51:Core/Src/ltdc.c **** {
  29              		.loc 1 51 1 view -0
  30              		.cfi_startproc
  31              		@ args = 0, pretend = 0, frame = 104
  32              		@ frame_needed = 0, uses_anonymous_args = 0
  33 0000 10B5     		push	{r4, lr}
  34              		.cfi_def_cfa_offset 8
  35              		.cfi_offset 4, -8
  36              		.cfi_offset 14, -4
  37 0002 9AB0     		sub	sp, sp, #104
  38              		.cfi_def_cfa_offset 112
  52:Core/Src/ltdc.c ****   LTDC_LayerCfgTypeDef pLayerCfg = {0};
  39              		.loc 1 52 3 view .LVU1
  40              		.loc 1 52 24 is_stmt 0 view .LVU2
  41 0004 3424     		movs	r4, #52
  42 0006 2246     		mov	r2, r4
  43 0008 0021     		movs	r1, #0
  44 000a 0DEB0400 		add	r0, sp, r4
  45 000e FFF7FEFF 		bl	memset
  46              	.LVL0:
  53:Core/Src/ltdc.c ****   LTDC_LayerCfgTypeDef pLayerCfg1 = {0};
  47              		.loc 1 53 3 is_stmt 1 view .LVU3
  48              		.loc 1 53 24 is_stmt 0 view .LVU4
  49 0012 2246     		mov	r2, r4
  50 0014 0021     		movs	r1, #0
  51 0016 6846     		mov	r0, sp
  52 0018 FFF7FEFF 		bl	memset
  53              	.LVL1:
  54:Core/Src/ltdc.c **** 
  55:Core/Src/ltdc.c ****   hltdc.Instance = LTDC;
  54              		.loc 1 55 3 is_stmt 1 view .LVU5
  55              		.loc 1 55 18 is_stmt 0 view .LVU6
  56 001c 3A48     		ldr	r0, .L9
  57 001e 3B4B     		ldr	r3, .L9+4
  58 0020 0360     		str	r3, [r0]
  56:Core/Src/ltdc.c ****   hltdc.Init.HSPolarity = LTDC_HSPOLARITY_AL;
  59              		.loc 1 56 3 is_stmt 1 view .LVU7
ARM GAS  C:\Users\Morroway\AppData\Local\Temp\cchp6UTK.s 			page 3


  60              		.loc 1 56 25 is_stmt 0 view .LVU8
  61 0022 0023     		movs	r3, #0
  62 0024 4360     		str	r3, [r0, #4]
  57:Core/Src/ltdc.c ****   hltdc.Init.VSPolarity = LTDC_VSPOLARITY_AL;
  63              		.loc 1 57 3 is_stmt 1 view .LVU9
  64              		.loc 1 57 25 is_stmt 0 view .LVU10
  65 0026 8360     		str	r3, [r0, #8]
  58:Core/Src/ltdc.c ****   hltdc.Init.DEPolarity = LTDC_DEPOLARITY_AL;
  66              		.loc 1 58 3 is_stmt 1 view .LVU11
  67              		.loc 1 58 25 is_stmt 0 view .LVU12
  68 0028 C360     		str	r3, [r0, #12]
  59:Core/Src/ltdc.c ****   hltdc.Init.PCPolarity = LTDC_PCPOLARITY_IPC;
  69              		.loc 1 59 3 is_stmt 1 view .LVU13
  70              		.loc 1 59 25 is_stmt 0 view .LVU14
  71 002a 0361     		str	r3, [r0, #16]
  60:Core/Src/ltdc.c ****   hltdc.Init.HorizontalSync = 29;
  72              		.loc 1 60 3 is_stmt 1 view .LVU15
  73              		.loc 1 60 29 is_stmt 0 view .LVU16
  74 002c 1D22     		movs	r2, #29
  75 002e 4261     		str	r2, [r0, #20]
  61:Core/Src/ltdc.c ****   hltdc.Init.VerticalSync = 3;
  76              		.loc 1 61 3 is_stmt 1 view .LVU17
  77              		.loc 1 61 27 is_stmt 0 view .LVU18
  78 0030 0322     		movs	r2, #3
  79 0032 8261     		str	r2, [r0, #24]
  62:Core/Src/ltdc.c ****   hltdc.Init.AccumulatedHBP = 59;
  80              		.loc 1 62 3 is_stmt 1 view .LVU19
  81              		.loc 1 62 29 is_stmt 0 view .LVU20
  82 0034 3B22     		movs	r2, #59
  83 0036 C261     		str	r2, [r0, #28]
  63:Core/Src/ltdc.c ****   hltdc.Init.AccumulatedVBP = 7;
  84              		.loc 1 63 3 is_stmt 1 view .LVU21
  85              		.loc 1 63 29 is_stmt 0 view .LVU22
  86 0038 0722     		movs	r2, #7
  87 003a 0262     		str	r2, [r0, #32]
  64:Core/Src/ltdc.c ****   hltdc.Init.AccumulatedActiveW = 859;
  88              		.loc 1 64 3 is_stmt 1 view .LVU23
  89              		.loc 1 64 33 is_stmt 0 view .LVU24
  90 003c 40F25B32 		movw	r2, #859
  91 0040 4262     		str	r2, [r0, #36]
  65:Core/Src/ltdc.c ****   hltdc.Init.AccumulatedActiveH = 487;
  92              		.loc 1 65 3 is_stmt 1 view .LVU25
  93              		.loc 1 65 33 is_stmt 0 view .LVU26
  94 0042 40F2E712 		movw	r2, #487
  95 0046 8262     		str	r2, [r0, #40]
  66:Core/Src/ltdc.c ****   hltdc.Init.TotalWidth = 1069;
  96              		.loc 1 66 3 is_stmt 1 view .LVU27
  97              		.loc 1 66 25 is_stmt 0 view .LVU28
  98 0048 40F22D42 		movw	r2, #1069
  99 004c C262     		str	r2, [r0, #44]
  67:Core/Src/ltdc.c ****   hltdc.Init.TotalHeigh = 491;
 100              		.loc 1 67 3 is_stmt 1 view .LVU29
 101              		.loc 1 67 25 is_stmt 0 view .LVU30
 102 004e 40F2EB12 		movw	r2, #491
 103 0052 0263     		str	r2, [r0, #48]
  68:Core/Src/ltdc.c ****   hltdc.Init.Backcolor.Blue = 0;
 104              		.loc 1 68 3 is_stmt 1 view .LVU31
ARM GAS  C:\Users\Morroway\AppData\Local\Temp\cchp6UTK.s 			page 4


 105              		.loc 1 68 29 is_stmt 0 view .LVU32
 106 0054 80F83430 		strb	r3, [r0, #52]
  69:Core/Src/ltdc.c ****   hltdc.Init.Backcolor.Green = 0;
 107              		.loc 1 69 3 is_stmt 1 view .LVU33
 108              		.loc 1 69 30 is_stmt 0 view .LVU34
 109 0058 80F83530 		strb	r3, [r0, #53]
  70:Core/Src/ltdc.c ****   hltdc.Init.Backcolor.Red = 0;
 110              		.loc 1 70 3 is_stmt 1 view .LVU35
 111              		.loc 1 70 28 is_stmt 0 view .LVU36
 112 005c 80F83630 		strb	r3, [r0, #54]
  71:Core/Src/ltdc.c ****   if (HAL_LTDC_Init(&hltdc) != HAL_OK)
 113              		.loc 1 71 3 is_stmt 1 view .LVU37
 114              		.loc 1 71 7 is_stmt 0 view .LVU38
 115 0060 FFF7FEFF 		bl	HAL_LTDC_Init
 116              	.LVL2:
 117              		.loc 1 71 6 view .LVU39
 118 0064 0028     		cmp	r0, #0
 119 0066 46D1     		bne	.L6
 120              	.L2:
  72:Core/Src/ltdc.c ****   {
  73:Core/Src/ltdc.c ****     Error_Handler();
  74:Core/Src/ltdc.c ****   }
  75:Core/Src/ltdc.c ****   pLayerCfg.WindowX0 = 0;
 121              		.loc 1 75 3 is_stmt 1 view .LVU40
 122              		.loc 1 75 22 is_stmt 0 view .LVU41
 123 0068 0022     		movs	r2, #0
 124 006a 0D92     		str	r2, [sp, #52]
  76:Core/Src/ltdc.c ****   pLayerCfg.WindowX1 = 800;
 125              		.loc 1 76 3 is_stmt 1 view .LVU42
 126              		.loc 1 76 22 is_stmt 0 view .LVU43
 127 006c 4FF44871 		mov	r1, #800
 128 0070 0E91     		str	r1, [sp, #56]
  77:Core/Src/ltdc.c ****   pLayerCfg.WindowY0 = 0;
 129              		.loc 1 77 3 is_stmt 1 view .LVU44
 130              		.loc 1 77 22 is_stmt 0 view .LVU45
 131 0072 0F92     		str	r2, [sp, #60]
  78:Core/Src/ltdc.c ****   pLayerCfg.WindowY1 = 480;
 132              		.loc 1 78 3 is_stmt 1 view .LVU46
 133              		.loc 1 78 22 is_stmt 0 view .LVU47
 134 0074 4FF4F073 		mov	r3, #480
 135 0078 1093     		str	r3, [sp, #64]
  79:Core/Src/ltdc.c ****   pLayerCfg.PixelFormat = LTDC_PIXEL_FORMAT_RGB565;
 136              		.loc 1 79 3 is_stmt 1 view .LVU48
 137              		.loc 1 79 25 is_stmt 0 view .LVU49
 138 007a 0220     		movs	r0, #2
 139 007c 1190     		str	r0, [sp, #68]
  80:Core/Src/ltdc.c ****   pLayerCfg.Alpha = 255;
 140              		.loc 1 80 3 is_stmt 1 view .LVU50
 141              		.loc 1 80 19 is_stmt 0 view .LVU51
 142 007e FF20     		movs	r0, #255
 143 0080 1290     		str	r0, [sp, #72]
  81:Core/Src/ltdc.c ****   pLayerCfg.Alpha0 = 0;
 144              		.loc 1 81 3 is_stmt 1 view .LVU52
 145              		.loc 1 81 20 is_stmt 0 view .LVU53
 146 0082 1392     		str	r2, [sp, #76]
  82:Core/Src/ltdc.c ****   pLayerCfg.BlendingFactor1 = LTDC_BLENDING_FACTOR1_CA;
 147              		.loc 1 82 3 is_stmt 1 view .LVU54
ARM GAS  C:\Users\Morroway\AppData\Local\Temp\cchp6UTK.s 			page 5


 148              		.loc 1 82 29 is_stmt 0 view .LVU55
 149 0084 4FF48060 		mov	r0, #1024
 150 0088 1490     		str	r0, [sp, #80]
  83:Core/Src/ltdc.c ****   pLayerCfg.BlendingFactor2 = LTDC_BLENDING_FACTOR2_CA;
 151              		.loc 1 83 3 is_stmt 1 view .LVU56
 152              		.loc 1 83 29 is_stmt 0 view .LVU57
 153 008a 0520     		movs	r0, #5
 154 008c 1590     		str	r0, [sp, #84]
  84:Core/Src/ltdc.c ****   pLayerCfg.FBStartAdress = 0xD0000000;
 155              		.loc 1 84 3 is_stmt 1 view .LVU58
 156              		.loc 1 84 27 is_stmt 0 view .LVU59
 157 008e 4FF05040 		mov	r0, #-805306368
 158 0092 1690     		str	r0, [sp, #88]
  85:Core/Src/ltdc.c ****   pLayerCfg.ImageWidth = 800;
 159              		.loc 1 85 3 is_stmt 1 view .LVU60
 160              		.loc 1 85 24 is_stmt 0 view .LVU61
 161 0094 1791     		str	r1, [sp, #92]
  86:Core/Src/ltdc.c ****   pLayerCfg.ImageHeight = 480;
 162              		.loc 1 86 3 is_stmt 1 view .LVU62
 163              		.loc 1 86 25 is_stmt 0 view .LVU63
 164 0096 1893     		str	r3, [sp, #96]
  87:Core/Src/ltdc.c ****   pLayerCfg.Backcolor.Blue = 0;
 165              		.loc 1 87 3 is_stmt 1 view .LVU64
 166              		.loc 1 87 28 is_stmt 0 view .LVU65
 167 0098 8DF86420 		strb	r2, [sp, #100]
  88:Core/Src/ltdc.c ****   pLayerCfg.Backcolor.Green = 0;
 168              		.loc 1 88 3 is_stmt 1 view .LVU66
 169              		.loc 1 88 29 is_stmt 0 view .LVU67
 170 009c 8DF86520 		strb	r2, [sp, #101]
  89:Core/Src/ltdc.c ****   pLayerCfg.Backcolor.Red = 0;
 171              		.loc 1 89 3 is_stmt 1 view .LVU68
 172              		.loc 1 89 27 is_stmt 0 view .LVU69
 173 00a0 8DF86620 		strb	r2, [sp, #102]
  90:Core/Src/ltdc.c ****   if (HAL_LTDC_ConfigLayer(&hltdc, &pLayerCfg, 0) != HAL_OK)
 174              		.loc 1 90 3 is_stmt 1 view .LVU70
 175              		.loc 1 90 7 is_stmt 0 view .LVU71
 176 00a4 0DA9     		add	r1, sp, #52
 177 00a6 1848     		ldr	r0, .L9
 178 00a8 FFF7FEFF 		bl	HAL_LTDC_ConfigLayer
 179              	.LVL3:
 180              		.loc 1 90 6 view .LVU72
 181 00ac 30BB     		cbnz	r0, .L7
 182              	.L3:
  91:Core/Src/ltdc.c ****   {
  92:Core/Src/ltdc.c ****     Error_Handler();
  93:Core/Src/ltdc.c ****   }
  94:Core/Src/ltdc.c ****   pLayerCfg1.WindowX0 = 0;
 183              		.loc 1 94 3 is_stmt 1 view .LVU73
 184              		.loc 1 94 23 is_stmt 0 view .LVU74
 185 00ae 0023     		movs	r3, #0
 186 00b0 0093     		str	r3, [sp]
  95:Core/Src/ltdc.c ****   pLayerCfg1.WindowX1 = 800;
 187              		.loc 1 95 3 is_stmt 1 view .LVU75
 188              		.loc 1 95 23 is_stmt 0 view .LVU76
 189 00b2 4FF44871 		mov	r1, #800
 190 00b6 0191     		str	r1, [sp, #4]
  96:Core/Src/ltdc.c ****   pLayerCfg1.WindowY0 = 0;
ARM GAS  C:\Users\Morroway\AppData\Local\Temp\cchp6UTK.s 			page 6


 191              		.loc 1 96 3 is_stmt 1 view .LVU77
 192              		.loc 1 96 23 is_stmt 0 view .LVU78
 193 00b8 0293     		str	r3, [sp, #8]
  97:Core/Src/ltdc.c ****   pLayerCfg1.WindowY1 = 480;
 194              		.loc 1 97 3 is_stmt 1 view .LVU79
 195              		.loc 1 97 23 is_stmt 0 view .LVU80
 196 00ba 4FF4F072 		mov	r2, #480
 197 00be 0392     		str	r2, [sp, #12]
  98:Core/Src/ltdc.c ****   pLayerCfg1.PixelFormat = LTDC_PIXEL_FORMAT_RGB565;
 198              		.loc 1 98 3 is_stmt 1 view .LVU81
 199              		.loc 1 98 26 is_stmt 0 view .LVU82
 200 00c0 0220     		movs	r0, #2
 201 00c2 0490     		str	r0, [sp, #16]
  99:Core/Src/ltdc.c ****   pLayerCfg1.Alpha = 0;
 202              		.loc 1 99 3 is_stmt 1 view .LVU83
 203              		.loc 1 99 20 is_stmt 0 view .LVU84
 204 00c4 0593     		str	r3, [sp, #20]
 100:Core/Src/ltdc.c ****   pLayerCfg1.Alpha0 = 0;
 205              		.loc 1 100 3 is_stmt 1 view .LVU85
 206              		.loc 1 100 21 is_stmt 0 view .LVU86
 207 00c6 0693     		str	r3, [sp, #24]
 101:Core/Src/ltdc.c ****   pLayerCfg1.BlendingFactor1 = LTDC_BLENDING_FACTOR1_CA;
 208              		.loc 1 101 3 is_stmt 1 view .LVU87
 209              		.loc 1 101 30 is_stmt 0 view .LVU88
 210 00c8 4FF48060 		mov	r0, #1024
 211 00cc 0790     		str	r0, [sp, #28]
 102:Core/Src/ltdc.c ****   pLayerCfg1.BlendingFactor2 = LTDC_BLENDING_FACTOR2_CA;
 212              		.loc 1 102 3 is_stmt 1 view .LVU89
 213              		.loc 1 102 30 is_stmt 0 view .LVU90
 214 00ce 0520     		movs	r0, #5
 215 00d0 0890     		str	r0, [sp, #32]
 103:Core/Src/ltdc.c ****   pLayerCfg1.FBStartAdress = 0xD0200000;
 216              		.loc 1 103 3 is_stmt 1 view .LVU91
 217              		.loc 1 103 28 is_stmt 0 view .LVU92
 218 00d2 0F48     		ldr	r0, .L9+8
 219 00d4 0990     		str	r0, [sp, #36]
 104:Core/Src/ltdc.c ****   pLayerCfg1.ImageWidth = 800;
 220              		.loc 1 104 3 is_stmt 1 view .LVU93
 221              		.loc 1 104 25 is_stmt 0 view .LVU94
 222 00d6 0A91     		str	r1, [sp, #40]
 105:Core/Src/ltdc.c ****   pLayerCfg1.ImageHeight = 480;
 223              		.loc 1 105 3 is_stmt 1 view .LVU95
 224              		.loc 1 105 26 is_stmt 0 view .LVU96
 225 00d8 0B92     		str	r2, [sp, #44]
 106:Core/Src/ltdc.c ****   pLayerCfg1.Backcolor.Blue = 0;
 226              		.loc 1 106 3 is_stmt 1 view .LVU97
 227              		.loc 1 106 29 is_stmt 0 view .LVU98
 228 00da 8DF83030 		strb	r3, [sp, #48]
 107:Core/Src/ltdc.c ****   pLayerCfg1.Backcolor.Green = 0;
 229              		.loc 1 107 3 is_stmt 1 view .LVU99
 230              		.loc 1 107 30 is_stmt 0 view .LVU100
 231 00de 8DF83130 		strb	r3, [sp, #49]
 108:Core/Src/ltdc.c ****   pLayerCfg1.Backcolor.Red = 0;
 232              		.loc 1 108 3 is_stmt 1 view .LVU101
 233              		.loc 1 108 28 is_stmt 0 view .LVU102
 234 00e2 8DF83230 		strb	r3, [sp, #50]
 109:Core/Src/ltdc.c ****   if (HAL_LTDC_ConfigLayer(&hltdc, &pLayerCfg1, 1) != HAL_OK)
ARM GAS  C:\Users\Morroway\AppData\Local\Temp\cchp6UTK.s 			page 7


 235              		.loc 1 109 3 is_stmt 1 view .LVU103
 236              		.loc 1 109 7 is_stmt 0 view .LVU104
 237 00e6 0122     		movs	r2, #1
 238 00e8 6946     		mov	r1, sp
 239 00ea 0748     		ldr	r0, .L9
 240 00ec FFF7FEFF 		bl	HAL_LTDC_ConfigLayer
 241              	.LVL4:
 242              		.loc 1 109 6 view .LVU105
 243 00f0 38B9     		cbnz	r0, .L8
 244              	.L1:
 110:Core/Src/ltdc.c ****   {
 111:Core/Src/ltdc.c ****     Error_Handler();
 112:Core/Src/ltdc.c ****   }
 113:Core/Src/ltdc.c **** 
 114:Core/Src/ltdc.c **** }
 245              		.loc 1 114 1 view .LVU106
 246 00f2 1AB0     		add	sp, sp, #104
 247              		.cfi_remember_state
 248              		.cfi_def_cfa_offset 8
 249              		@ sp needed
 250 00f4 10BD     		pop	{r4, pc}
 251              	.L6:
 252              		.cfi_restore_state
  73:Core/Src/ltdc.c ****   }
 253              		.loc 1 73 5 is_stmt 1 view .LVU107
 254 00f6 FFF7FEFF 		bl	Error_Handler
 255              	.LVL5:
 256 00fa B5E7     		b	.L2
 257              	.L7:
  92:Core/Src/ltdc.c ****   }
 258              		.loc 1 92 5 view .LVU108
 259 00fc FFF7FEFF 		bl	Error_Handler
 260              	.LVL6:
 261 0100 D5E7     		b	.L3
 262              	.L8:
 111:Core/Src/ltdc.c ****   }
 263              		.loc 1 111 5 view .LVU109
 264 0102 FFF7FEFF 		bl	Error_Handler
 265              	.LVL7:
 266              		.loc 1 114 1 is_stmt 0 view .LVU110
 267 0106 F4E7     		b	.L1
 268              	.L10:
 269              		.align	2
 270              	.L9:
 271 0108 00000000 		.word	.LANCHOR0
 272 010c 00680140 		.word	1073833984
 273 0110 000020D0 		.word	-803209216
 274              		.cfi_endproc
 275              	.LFE321:
 277              		.section	.text.HAL_LTDC_MspInit,"ax",%progbits
 278              		.align	1
 279              		.global	HAL_LTDC_MspInit
 280              		.syntax unified
 281              		.thumb
 282              		.thumb_func
 284              	HAL_LTDC_MspInit:
 285              	.LVL8:
ARM GAS  C:\Users\Morroway\AppData\Local\Temp\cchp6UTK.s 			page 8


 286              	.LFB322:
 115:Core/Src/ltdc.c **** 
 116:Core/Src/ltdc.c **** void HAL_LTDC_MspInit(LTDC_HandleTypeDef* ltdcHandle)
 117:Core/Src/ltdc.c **** {
 287              		.loc 1 117 1 is_stmt 1 view -0
 288              		.cfi_startproc
 289              		@ args = 0, pretend = 0, frame = 56
 290              		@ frame_needed = 0, uses_anonymous_args = 0
 291              		.loc 1 117 1 is_stmt 0 view .LVU112
 292 0000 F0B5     		push	{r4, r5, r6, r7, lr}
 293              		.cfi_def_cfa_offset 20
 294              		.cfi_offset 4, -20
 295              		.cfi_offset 5, -16
 296              		.cfi_offset 6, -12
 297              		.cfi_offset 7, -8
 298              		.cfi_offset 14, -4
 299 0002 8FB0     		sub	sp, sp, #60
 300              		.cfi_def_cfa_offset 80
 118:Core/Src/ltdc.c **** 
 119:Core/Src/ltdc.c ****   GPIO_InitTypeDef GPIO_InitStruct = {0};
 301              		.loc 1 119 3 is_stmt 1 view .LVU113
 302              		.loc 1 119 20 is_stmt 0 view .LVU114
 303 0004 0023     		movs	r3, #0
 304 0006 0993     		str	r3, [sp, #36]
 305 0008 0A93     		str	r3, [sp, #40]
 306 000a 0B93     		str	r3, [sp, #44]
 307 000c 0C93     		str	r3, [sp, #48]
 308 000e 0D93     		str	r3, [sp, #52]
 120:Core/Src/ltdc.c ****   if(ltdcHandle->Instance==LTDC)
 309              		.loc 1 120 3 is_stmt 1 view .LVU115
 310              		.loc 1 120 16 is_stmt 0 view .LVU116
 311 0010 0268     		ldr	r2, [r0]
 312              		.loc 1 120 5 view .LVU117
 313 0012 4F4B     		ldr	r3, .L15
 314 0014 9A42     		cmp	r2, r3
 315 0016 01D0     		beq	.L14
 316              	.LVL9:
 317              	.L11:
 121:Core/Src/ltdc.c ****   {
 122:Core/Src/ltdc.c ****   /* USER CODE BEGIN LTDC_MspInit 0 */
 123:Core/Src/ltdc.c **** 
 124:Core/Src/ltdc.c ****   /* USER CODE END LTDC_MspInit 0 */
 125:Core/Src/ltdc.c ****     /* LTDC clock enable */
 126:Core/Src/ltdc.c ****     __HAL_RCC_LTDC_CLK_ENABLE();
 127:Core/Src/ltdc.c ****   
 128:Core/Src/ltdc.c ****     __HAL_RCC_GPIOE_CLK_ENABLE();
 129:Core/Src/ltdc.c ****     __HAL_RCC_GPIOI_CLK_ENABLE();
 130:Core/Src/ltdc.c ****     __HAL_RCC_GPIOF_CLK_ENABLE();
 131:Core/Src/ltdc.c ****     __HAL_RCC_GPIOH_CLK_ENABLE();
 132:Core/Src/ltdc.c ****     __HAL_RCC_GPIOG_CLK_ENABLE();
 133:Core/Src/ltdc.c ****     __HAL_RCC_GPIOD_CLK_ENABLE();
 134:Core/Src/ltdc.c ****     __HAL_RCC_GPIOB_CLK_ENABLE();
 135:Core/Src/ltdc.c ****     /**LTDC GPIO Configuration    
 136:Core/Src/ltdc.c ****     PE4     ------> LTDC_B0
 137:Core/Src/ltdc.c ****     PE5     ------> LTDC_G0
 138:Core/Src/ltdc.c ****     PE6     ------> LTDC_G1
 139:Core/Src/ltdc.c ****     PI9     ------> LTDC_VSYNC
ARM GAS  C:\Users\Morroway\AppData\Local\Temp\cchp6UTK.s 			page 9


 140:Core/Src/ltdc.c ****     PI10     ------> LTDC_HSYNC
 141:Core/Src/ltdc.c ****     PF10     ------> LTDC_DE
 142:Core/Src/ltdc.c ****     PH2     ------> LTDC_R0
 143:Core/Src/ltdc.c ****     PH3     ------> LTDC_R1
 144:Core/Src/ltdc.c ****     PH8     ------> LTDC_R2
 145:Core/Src/ltdc.c ****     PH9     ------> LTDC_R3
 146:Core/Src/ltdc.c ****     PH10     ------> LTDC_R4
 147:Core/Src/ltdc.c ****     PH11     ------> LTDC_R5
 148:Core/Src/ltdc.c ****     PH12     ------> LTDC_R6
 149:Core/Src/ltdc.c ****     PG6     ------> LTDC_R7
 150:Core/Src/ltdc.c ****     PG7     ------> LTDC_CLK
 151:Core/Src/ltdc.c ****     PH13     ------> LTDC_G2
 152:Core/Src/ltdc.c ****     PH14     ------> LTDC_G3
 153:Core/Src/ltdc.c ****     PH15     ------> LTDC_G4
 154:Core/Src/ltdc.c ****     PI0     ------> LTDC_G5
 155:Core/Src/ltdc.c ****     PI1     ------> LTDC_G6
 156:Core/Src/ltdc.c ****     PI2     ------> LTDC_G7
 157:Core/Src/ltdc.c ****     PD6     ------> LTDC_B2
 158:Core/Src/ltdc.c ****     PG11     ------> LTDC_B3
 159:Core/Src/ltdc.c ****     PG12     ------> LTDC_B1
 160:Core/Src/ltdc.c ****     PB8     ------> LTDC_B6
 161:Core/Src/ltdc.c ****     PB9     ------> LTDC_B7
 162:Core/Src/ltdc.c ****     PI4     ------> LTDC_B4
 163:Core/Src/ltdc.c ****     PI5     ------> LTDC_B5 
 164:Core/Src/ltdc.c ****     */
 165:Core/Src/ltdc.c ****     GPIO_InitStruct.Pin = GPIO_PIN_4|GPIO_PIN_5|GPIO_PIN_6;
 166:Core/Src/ltdc.c ****     GPIO_InitStruct.Mode = GPIO_MODE_AF_PP;
 167:Core/Src/ltdc.c ****     GPIO_InitStruct.Pull = GPIO_NOPULL;
 168:Core/Src/ltdc.c ****     GPIO_InitStruct.Speed = GPIO_SPEED_FREQ_VERY_HIGH;
 169:Core/Src/ltdc.c ****     GPIO_InitStruct.Alternate = GPIO_AF11_LTDC;
 170:Core/Src/ltdc.c ****     HAL_GPIO_Init(GPIOE, &GPIO_InitStruct);
 171:Core/Src/ltdc.c **** 
 172:Core/Src/ltdc.c ****     GPIO_InitStruct.Pin = GPIO_PIN_9|GPIO_PIN_10|GPIO_PIN_0|GPIO_PIN_1 
 173:Core/Src/ltdc.c ****                           |GPIO_PIN_2|GPIO_PIN_4|GPIO_PIN_5;
 174:Core/Src/ltdc.c ****     GPIO_InitStruct.Mode = GPIO_MODE_AF_PP;
 175:Core/Src/ltdc.c ****     GPIO_InitStruct.Pull = GPIO_NOPULL;
 176:Core/Src/ltdc.c ****     GPIO_InitStruct.Speed = GPIO_SPEED_FREQ_VERY_HIGH;
 177:Core/Src/ltdc.c ****     GPIO_InitStruct.Alternate = GPIO_AF11_LTDC;
 178:Core/Src/ltdc.c ****     HAL_GPIO_Init(GPIOI, &GPIO_InitStruct);
 179:Core/Src/ltdc.c **** 
 180:Core/Src/ltdc.c ****     GPIO_InitStruct.Pin = GPIO_PIN_10;
 181:Core/Src/ltdc.c ****     GPIO_InitStruct.Mode = GPIO_MODE_AF_PP;
 182:Core/Src/ltdc.c ****     GPIO_InitStruct.Pull = GPIO_NOPULL;
 183:Core/Src/ltdc.c ****     GPIO_InitStruct.Speed = GPIO_SPEED_FREQ_VERY_HIGH;
 184:Core/Src/ltdc.c ****     GPIO_InitStruct.Alternate = GPIO_AF11_LTDC;
 185:Core/Src/ltdc.c ****     HAL_GPIO_Init(GPIOF, &GPIO_InitStruct);
 186:Core/Src/ltdc.c **** 
 187:Core/Src/ltdc.c ****     GPIO_InitStruct.Pin = GPIO_PIN_2|GPIO_PIN_3|GPIO_PIN_8|GPIO_PIN_9 
 188:Core/Src/ltdc.c ****                           |GPIO_PIN_10|GPIO_PIN_11|GPIO_PIN_12|GPIO_PIN_13 
 189:Core/Src/ltdc.c ****                           |GPIO_PIN_14|GPIO_PIN_15;
 190:Core/Src/ltdc.c ****     GPIO_InitStruct.Mode = GPIO_MODE_AF_PP;
 191:Core/Src/ltdc.c ****     GPIO_InitStruct.Pull = GPIO_NOPULL;
 192:Core/Src/ltdc.c ****     GPIO_InitStruct.Speed = GPIO_SPEED_FREQ_VERY_HIGH;
 193:Core/Src/ltdc.c ****     GPIO_InitStruct.Alternate = GPIO_AF11_LTDC;
 194:Core/Src/ltdc.c ****     HAL_GPIO_Init(GPIOH, &GPIO_InitStruct);
 195:Core/Src/ltdc.c **** 
 196:Core/Src/ltdc.c ****     GPIO_InitStruct.Pin = GPIO_PIN_6|GPIO_PIN_7|GPIO_PIN_11|GPIO_PIN_12;
ARM GAS  C:\Users\Morroway\AppData\Local\Temp\cchp6UTK.s 			page 10


 197:Core/Src/ltdc.c ****     GPIO_InitStruct.Mode = GPIO_MODE_AF_PP;
 198:Core/Src/ltdc.c ****     GPIO_InitStruct.Pull = GPIO_NOPULL;
 199:Core/Src/ltdc.c ****     GPIO_InitStruct.Speed = GPIO_SPEED_FREQ_VERY_HIGH;
 200:Core/Src/ltdc.c ****     GPIO_InitStruct.Alternate = GPIO_AF11_LTDC;
 201:Core/Src/ltdc.c ****     HAL_GPIO_Init(GPIOG, &GPIO_InitStruct);
 202:Core/Src/ltdc.c **** 
 203:Core/Src/ltdc.c ****     GPIO_InitStruct.Pin = GPIO_PIN_6;
 204:Core/Src/ltdc.c ****     GPIO_InitStruct.Mode = GPIO_MODE_AF_PP;
 205:Core/Src/ltdc.c ****     GPIO_InitStruct.Pull = GPIO_NOPULL;
 206:Core/Src/ltdc.c ****     GPIO_InitStruct.Speed = GPIO_SPEED_FREQ_VERY_HIGH;
 207:Core/Src/ltdc.c ****     GPIO_InitStruct.Alternate = GPIO_AF11_LTDC;
 208:Core/Src/ltdc.c ****     HAL_GPIO_Init(GPIOD, &GPIO_InitStruct);
 209:Core/Src/ltdc.c **** 
 210:Core/Src/ltdc.c ****     GPIO_InitStruct.Pin = GPIO_PIN_8|GPIO_PIN_9;
 211:Core/Src/ltdc.c ****     GPIO_InitStruct.Mode = GPIO_MODE_AF_PP;
 212:Core/Src/ltdc.c ****     GPIO_InitStruct.Pull = GPIO_NOPULL;
 213:Core/Src/ltdc.c ****     GPIO_InitStruct.Speed = GPIO_SPEED_FREQ_VERY_HIGH;
 214:Core/Src/ltdc.c ****     GPIO_InitStruct.Alternate = GPIO_AF11_LTDC;
 215:Core/Src/ltdc.c ****     HAL_GPIO_Init(GPIOB, &GPIO_InitStruct);
 216:Core/Src/ltdc.c **** 
 217:Core/Src/ltdc.c ****   /* USER CODE BEGIN LTDC_MspInit 1 */
 218:Core/Src/ltdc.c **** 
 219:Core/Src/ltdc.c ****   /* USER CODE END LTDC_MspInit 1 */
 220:Core/Src/ltdc.c ****   }
 221:Core/Src/ltdc.c **** }
 318              		.loc 1 221 1 view .LVU118
 319 0018 0FB0     		add	sp, sp, #60
 320              		.cfi_remember_state
 321              		.cfi_def_cfa_offset 20
 322              		@ sp needed
 323 001a F0BD     		pop	{r4, r5, r6, r7, pc}
 324              	.LVL10:
 325              	.L14:
 326              		.cfi_restore_state
 126:Core/Src/ltdc.c ****   
 327              		.loc 1 126 5 is_stmt 1 view .LVU119
 328              	.LBB2:
 126:Core/Src/ltdc.c ****   
 329              		.loc 1 126 5 view .LVU120
 126:Core/Src/ltdc.c ****   
 330              		.loc 1 126 5 view .LVU121
 331 001c 03F52843 		add	r3, r3, #43008
 332 0020 1A6E     		ldr	r2, [r3, #96]
 333 0022 42F08062 		orr	r2, r2, #67108864
 334 0026 1A66     		str	r2, [r3, #96]
 126:Core/Src/ltdc.c ****   
 335              		.loc 1 126 5 view .LVU122
 336 0028 1A6E     		ldr	r2, [r3, #96]
 337 002a 02F08062 		and	r2, r2, #67108864
 338 002e 0192     		str	r2, [sp, #4]
 126:Core/Src/ltdc.c ****   
 339              		.loc 1 126 5 view .LVU123
 340 0030 019A     		ldr	r2, [sp, #4]
 341              	.LBE2:
 126:Core/Src/ltdc.c ****   
 342              		.loc 1 126 5 view .LVU124
 128:Core/Src/ltdc.c ****     __HAL_RCC_GPIOI_CLK_ENABLE();
ARM GAS  C:\Users\Morroway\AppData\Local\Temp\cchp6UTK.s 			page 11


 343              		.loc 1 128 5 view .LVU125
 344              	.LBB3:
 128:Core/Src/ltdc.c ****     __HAL_RCC_GPIOI_CLK_ENABLE();
 345              		.loc 1 128 5 view .LVU126
 128:Core/Src/ltdc.c ****     __HAL_RCC_GPIOI_CLK_ENABLE();
 346              		.loc 1 128 5 view .LVU127
 347 0032 DA6C     		ldr	r2, [r3, #76]
 348 0034 42F01002 		orr	r2, r2, #16
 349 0038 DA64     		str	r2, [r3, #76]
 128:Core/Src/ltdc.c ****     __HAL_RCC_GPIOI_CLK_ENABLE();
 350              		.loc 1 128 5 view .LVU128
 351 003a DA6C     		ldr	r2, [r3, #76]
 352 003c 02F01002 		and	r2, r2, #16
 353 0040 0292     		str	r2, [sp, #8]
 128:Core/Src/ltdc.c ****     __HAL_RCC_GPIOI_CLK_ENABLE();
 354              		.loc 1 128 5 view .LVU129
 355 0042 029A     		ldr	r2, [sp, #8]
 356              	.LBE3:
 128:Core/Src/ltdc.c ****     __HAL_RCC_GPIOI_CLK_ENABLE();
 357              		.loc 1 128 5 view .LVU130
 129:Core/Src/ltdc.c ****     __HAL_RCC_GPIOF_CLK_ENABLE();
 358              		.loc 1 129 5 view .LVU131
 359              	.LBB4:
 129:Core/Src/ltdc.c ****     __HAL_RCC_GPIOF_CLK_ENABLE();
 360              		.loc 1 129 5 view .LVU132
 129:Core/Src/ltdc.c ****     __HAL_RCC_GPIOF_CLK_ENABLE();
 361              		.loc 1 129 5 view .LVU133
 362 0044 DA6C     		ldr	r2, [r3, #76]
 363 0046 42F48072 		orr	r2, r2, #256
 364 004a DA64     		str	r2, [r3, #76]
 129:Core/Src/ltdc.c ****     __HAL_RCC_GPIOF_CLK_ENABLE();
 365              		.loc 1 129 5 view .LVU134
 366 004c DA6C     		ldr	r2, [r3, #76]
 367 004e 02F48072 		and	r2, r2, #256
 368 0052 0392     		str	r2, [sp, #12]
 129:Core/Src/ltdc.c ****     __HAL_RCC_GPIOF_CLK_ENABLE();
 369              		.loc 1 129 5 view .LVU135
 370 0054 039A     		ldr	r2, [sp, #12]
 371              	.LBE4:
 129:Core/Src/ltdc.c ****     __HAL_RCC_GPIOF_CLK_ENABLE();
 372              		.loc 1 129 5 view .LVU136
 130:Core/Src/ltdc.c ****     __HAL_RCC_GPIOH_CLK_ENABLE();
 373              		.loc 1 130 5 view .LVU137
 374              	.LBB5:
 130:Core/Src/ltdc.c ****     __HAL_RCC_GPIOH_CLK_ENABLE();
 375              		.loc 1 130 5 view .LVU138
 130:Core/Src/ltdc.c ****     __HAL_RCC_GPIOH_CLK_ENABLE();
 376              		.loc 1 130 5 view .LVU139
 377 0056 DA6C     		ldr	r2, [r3, #76]
 378 0058 42F02002 		orr	r2, r2, #32
 379 005c DA64     		str	r2, [r3, #76]
 130:Core/Src/ltdc.c ****     __HAL_RCC_GPIOH_CLK_ENABLE();
 380              		.loc 1 130 5 view .LVU140
 381 005e DA6C     		ldr	r2, [r3, #76]
 382 0060 02F02002 		and	r2, r2, #32
 383 0064 0492     		str	r2, [sp, #16]
 130:Core/Src/ltdc.c ****     __HAL_RCC_GPIOH_CLK_ENABLE();
ARM GAS  C:\Users\Morroway\AppData\Local\Temp\cchp6UTK.s 			page 12


 384              		.loc 1 130 5 view .LVU141
 385 0066 049A     		ldr	r2, [sp, #16]
 386              	.LBE5:
 130:Core/Src/ltdc.c ****     __HAL_RCC_GPIOH_CLK_ENABLE();
 387              		.loc 1 130 5 view .LVU142
 131:Core/Src/ltdc.c ****     __HAL_RCC_GPIOG_CLK_ENABLE();
 388              		.loc 1 131 5 view .LVU143
 389              	.LBB6:
 131:Core/Src/ltdc.c ****     __HAL_RCC_GPIOG_CLK_ENABLE();
 390              		.loc 1 131 5 view .LVU144
 131:Core/Src/ltdc.c ****     __HAL_RCC_GPIOG_CLK_ENABLE();
 391              		.loc 1 131 5 view .LVU145
 392 0068 DA6C     		ldr	r2, [r3, #76]
 393 006a 42F08002 		orr	r2, r2, #128
 394 006e DA64     		str	r2, [r3, #76]
 131:Core/Src/ltdc.c ****     __HAL_RCC_GPIOG_CLK_ENABLE();
 395              		.loc 1 131 5 view .LVU146
 396 0070 DA6C     		ldr	r2, [r3, #76]
 397 0072 02F08002 		and	r2, r2, #128
 398 0076 0592     		str	r2, [sp, #20]
 131:Core/Src/ltdc.c ****     __HAL_RCC_GPIOG_CLK_ENABLE();
 399              		.loc 1 131 5 view .LVU147
 400 0078 059A     		ldr	r2, [sp, #20]
 401              	.LBE6:
 131:Core/Src/ltdc.c ****     __HAL_RCC_GPIOG_CLK_ENABLE();
 402              		.loc 1 131 5 view .LVU148
 132:Core/Src/ltdc.c ****     __HAL_RCC_GPIOD_CLK_ENABLE();
 403              		.loc 1 132 5 view .LVU149
 404              	.LBB7:
 132:Core/Src/ltdc.c ****     __HAL_RCC_GPIOD_CLK_ENABLE();
 405              		.loc 1 132 5 view .LVU150
 132:Core/Src/ltdc.c ****     __HAL_RCC_GPIOD_CLK_ENABLE();
 406              		.loc 1 132 5 view .LVU151
 407 007a DA6C     		ldr	r2, [r3, #76]
 408 007c 42F04002 		orr	r2, r2, #64
 409 0080 DA64     		str	r2, [r3, #76]
 132:Core/Src/ltdc.c ****     __HAL_RCC_GPIOD_CLK_ENABLE();
 410              		.loc 1 132 5 view .LVU152
 411 0082 DA6C     		ldr	r2, [r3, #76]
 412 0084 02F04002 		and	r2, r2, #64
 413 0088 0692     		str	r2, [sp, #24]
 132:Core/Src/ltdc.c ****     __HAL_RCC_GPIOD_CLK_ENABLE();
 414              		.loc 1 132 5 view .LVU153
 415 008a 069A     		ldr	r2, [sp, #24]
 416              	.LBE7:
 132:Core/Src/ltdc.c ****     __HAL_RCC_GPIOD_CLK_ENABLE();
 417              		.loc 1 132 5 view .LVU154
 133:Core/Src/ltdc.c ****     __HAL_RCC_GPIOB_CLK_ENABLE();
 418              		.loc 1 133 5 view .LVU155
 419              	.LBB8:
 133:Core/Src/ltdc.c ****     __HAL_RCC_GPIOB_CLK_ENABLE();
 420              		.loc 1 133 5 view .LVU156
 133:Core/Src/ltdc.c ****     __HAL_RCC_GPIOB_CLK_ENABLE();
 421              		.loc 1 133 5 view .LVU157
 422 008c DA6C     		ldr	r2, [r3, #76]
 423 008e 42F00802 		orr	r2, r2, #8
 424 0092 DA64     		str	r2, [r3, #76]
ARM GAS  C:\Users\Morroway\AppData\Local\Temp\cchp6UTK.s 			page 13


 133:Core/Src/ltdc.c ****     __HAL_RCC_GPIOB_CLK_ENABLE();
 425              		.loc 1 133 5 view .LVU158
 426 0094 DA6C     		ldr	r2, [r3, #76]
 427 0096 02F00802 		and	r2, r2, #8
 428 009a 0792     		str	r2, [sp, #28]
 133:Core/Src/ltdc.c ****     __HAL_RCC_GPIOB_CLK_ENABLE();
 429              		.loc 1 133 5 view .LVU159
 430 009c 079A     		ldr	r2, [sp, #28]
 431              	.LBE8:
 133:Core/Src/ltdc.c ****     __HAL_RCC_GPIOB_CLK_ENABLE();
 432              		.loc 1 133 5 view .LVU160
 134:Core/Src/ltdc.c ****     /**LTDC GPIO Configuration    
 433              		.loc 1 134 5 view .LVU161
 434              	.LBB9:
 134:Core/Src/ltdc.c ****     /**LTDC GPIO Configuration    
 435              		.loc 1 134 5 view .LVU162
 134:Core/Src/ltdc.c ****     /**LTDC GPIO Configuration    
 436              		.loc 1 134 5 view .LVU163
 437 009e DA6C     		ldr	r2, [r3, #76]
 438 00a0 42F00202 		orr	r2, r2, #2
 439 00a4 DA64     		str	r2, [r3, #76]
 134:Core/Src/ltdc.c ****     /**LTDC GPIO Configuration    
 440              		.loc 1 134 5 view .LVU164
 441 00a6 DB6C     		ldr	r3, [r3, #76]
 442 00a8 03F00203 		and	r3, r3, #2
 443 00ac 0893     		str	r3, [sp, #32]
 134:Core/Src/ltdc.c ****     /**LTDC GPIO Configuration    
 444              		.loc 1 134 5 view .LVU165
 445 00ae 089B     		ldr	r3, [sp, #32]
 446              	.LBE9:
 134:Core/Src/ltdc.c ****     /**LTDC GPIO Configuration    
 447              		.loc 1 134 5 view .LVU166
 165:Core/Src/ltdc.c ****     GPIO_InitStruct.Mode = GPIO_MODE_AF_PP;
 448              		.loc 1 165 5 view .LVU167
 165:Core/Src/ltdc.c ****     GPIO_InitStruct.Mode = GPIO_MODE_AF_PP;
 449              		.loc 1 165 25 is_stmt 0 view .LVU168
 450 00b0 7023     		movs	r3, #112
 451 00b2 0993     		str	r3, [sp, #36]
 166:Core/Src/ltdc.c ****     GPIO_InitStruct.Pull = GPIO_NOPULL;
 452              		.loc 1 166 5 is_stmt 1 view .LVU169
 166:Core/Src/ltdc.c ****     GPIO_InitStruct.Pull = GPIO_NOPULL;
 453              		.loc 1 166 26 is_stmt 0 view .LVU170
 454 00b4 0226     		movs	r6, #2
 455 00b6 0A96     		str	r6, [sp, #40]
 167:Core/Src/ltdc.c ****     GPIO_InitStruct.Speed = GPIO_SPEED_FREQ_VERY_HIGH;
 456              		.loc 1 167 5 is_stmt 1 view .LVU171
 168:Core/Src/ltdc.c ****     GPIO_InitStruct.Alternate = GPIO_AF11_LTDC;
 457              		.loc 1 168 5 view .LVU172
 168:Core/Src/ltdc.c ****     GPIO_InitStruct.Alternate = GPIO_AF11_LTDC;
 458              		.loc 1 168 27 is_stmt 0 view .LVU173
 459 00b8 0325     		movs	r5, #3
 460 00ba 0C95     		str	r5, [sp, #48]
 169:Core/Src/ltdc.c ****     HAL_GPIO_Init(GPIOE, &GPIO_InitStruct);
 461              		.loc 1 169 5 is_stmt 1 view .LVU174
 169:Core/Src/ltdc.c ****     HAL_GPIO_Init(GPIOE, &GPIO_InitStruct);
 462              		.loc 1 169 31 is_stmt 0 view .LVU175
 463 00bc 0B24     		movs	r4, #11
ARM GAS  C:\Users\Morroway\AppData\Local\Temp\cchp6UTK.s 			page 14


 464 00be 0D94     		str	r4, [sp, #52]
 170:Core/Src/ltdc.c **** 
 465              		.loc 1 170 5 is_stmt 1 view .LVU176
 466 00c0 09A9     		add	r1, sp, #36
 467 00c2 2448     		ldr	r0, .L15+4
 468              	.LVL11:
 170:Core/Src/ltdc.c **** 
 469              		.loc 1 170 5 is_stmt 0 view .LVU177
 470 00c4 FFF7FEFF 		bl	HAL_GPIO_Init
 471              	.LVL12:
 172:Core/Src/ltdc.c ****                           |GPIO_PIN_2|GPIO_PIN_4|GPIO_PIN_5;
 472              		.loc 1 172 5 is_stmt 1 view .LVU178
 172:Core/Src/ltdc.c ****                           |GPIO_PIN_2|GPIO_PIN_4|GPIO_PIN_5;
 473              		.loc 1 172 25 is_stmt 0 view .LVU179
 474 00c8 40F23763 		movw	r3, #1591
 475 00cc 0993     		str	r3, [sp, #36]
 174:Core/Src/ltdc.c ****     GPIO_InitStruct.Pull = GPIO_NOPULL;
 476              		.loc 1 174 5 is_stmt 1 view .LVU180
 174:Core/Src/ltdc.c ****     GPIO_InitStruct.Pull = GPIO_NOPULL;
 477              		.loc 1 174 26 is_stmt 0 view .LVU181
 478 00ce 0A96     		str	r6, [sp, #40]
 175:Core/Src/ltdc.c ****     GPIO_InitStruct.Speed = GPIO_SPEED_FREQ_VERY_HIGH;
 479              		.loc 1 175 5 is_stmt 1 view .LVU182
 175:Core/Src/ltdc.c ****     GPIO_InitStruct.Speed = GPIO_SPEED_FREQ_VERY_HIGH;
 480              		.loc 1 175 26 is_stmt 0 view .LVU183
 481 00d0 0027     		movs	r7, #0
 482 00d2 0B97     		str	r7, [sp, #44]
 176:Core/Src/ltdc.c ****     GPIO_InitStruct.Alternate = GPIO_AF11_LTDC;
 483              		.loc 1 176 5 is_stmt 1 view .LVU184
 176:Core/Src/ltdc.c ****     GPIO_InitStruct.Alternate = GPIO_AF11_LTDC;
 484              		.loc 1 176 27 is_stmt 0 view .LVU185
 485 00d4 0C95     		str	r5, [sp, #48]
 177:Core/Src/ltdc.c ****     HAL_GPIO_Init(GPIOI, &GPIO_InitStruct);
 486              		.loc 1 177 5 is_stmt 1 view .LVU186
 177:Core/Src/ltdc.c ****     HAL_GPIO_Init(GPIOI, &GPIO_InitStruct);
 487              		.loc 1 177 31 is_stmt 0 view .LVU187
 488 00d6 0D94     		str	r4, [sp, #52]
 178:Core/Src/ltdc.c **** 
 489              		.loc 1 178 5 is_stmt 1 view .LVU188
 490 00d8 09A9     		add	r1, sp, #36
 491 00da 1F48     		ldr	r0, .L15+8
 492 00dc FFF7FEFF 		bl	HAL_GPIO_Init
 493              	.LVL13:
 180:Core/Src/ltdc.c ****     GPIO_InitStruct.Mode = GPIO_MODE_AF_PP;
 494              		.loc 1 180 5 view .LVU189
 180:Core/Src/ltdc.c ****     GPIO_InitStruct.Mode = GPIO_MODE_AF_PP;
 495              		.loc 1 180 25 is_stmt 0 view .LVU190
 496 00e0 4FF48063 		mov	r3, #1024
 497 00e4 0993     		str	r3, [sp, #36]
 181:Core/Src/ltdc.c ****     GPIO_InitStruct.Pull = GPIO_NOPULL;
 498              		.loc 1 181 5 is_stmt 1 view .LVU191
 181:Core/Src/ltdc.c ****     GPIO_InitStruct.Pull = GPIO_NOPULL;
 499              		.loc 1 181 26 is_stmt 0 view .LVU192
 500 00e6 0A96     		str	r6, [sp, #40]
 182:Core/Src/ltdc.c ****     GPIO_InitStruct.Speed = GPIO_SPEED_FREQ_VERY_HIGH;
 501              		.loc 1 182 5 is_stmt 1 view .LVU193
 182:Core/Src/ltdc.c ****     GPIO_InitStruct.Speed = GPIO_SPEED_FREQ_VERY_HIGH;
ARM GAS  C:\Users\Morroway\AppData\Local\Temp\cchp6UTK.s 			page 15


 502              		.loc 1 182 26 is_stmt 0 view .LVU194
 503 00e8 0B97     		str	r7, [sp, #44]
 183:Core/Src/ltdc.c ****     GPIO_InitStruct.Alternate = GPIO_AF11_LTDC;
 504              		.loc 1 183 5 is_stmt 1 view .LVU195
 183:Core/Src/ltdc.c ****     GPIO_InitStruct.Alternate = GPIO_AF11_LTDC;
 505              		.loc 1 183 27 is_stmt 0 view .LVU196
 506 00ea 0C95     		str	r5, [sp, #48]
 184:Core/Src/ltdc.c ****     HAL_GPIO_Init(GPIOF, &GPIO_InitStruct);
 507              		.loc 1 184 5 is_stmt 1 view .LVU197
 184:Core/Src/ltdc.c ****     HAL_GPIO_Init(GPIOF, &GPIO_InitStruct);
 508              		.loc 1 184 31 is_stmt 0 view .LVU198
 509 00ec 0D94     		str	r4, [sp, #52]
 185:Core/Src/ltdc.c **** 
 510              		.loc 1 185 5 is_stmt 1 view .LVU199
 511 00ee 09A9     		add	r1, sp, #36
 512 00f0 1A48     		ldr	r0, .L15+12
 513 00f2 FFF7FEFF 		bl	HAL_GPIO_Init
 514              	.LVL14:
 187:Core/Src/ltdc.c ****                           |GPIO_PIN_10|GPIO_PIN_11|GPIO_PIN_12|GPIO_PIN_13 
 515              		.loc 1 187 5 view .LVU200
 187:Core/Src/ltdc.c ****                           |GPIO_PIN_10|GPIO_PIN_11|GPIO_PIN_12|GPIO_PIN_13 
 516              		.loc 1 187 25 is_stmt 0 view .LVU201
 517 00f6 4FF60C73 		movw	r3, #65292
 518 00fa 0993     		str	r3, [sp, #36]
 190:Core/Src/ltdc.c ****     GPIO_InitStruct.Pull = GPIO_NOPULL;
 519              		.loc 1 190 5 is_stmt 1 view .LVU202
 190:Core/Src/ltdc.c ****     GPIO_InitStruct.Pull = GPIO_NOPULL;
 520              		.loc 1 190 26 is_stmt 0 view .LVU203
 521 00fc 0A96     		str	r6, [sp, #40]
 191:Core/Src/ltdc.c ****     GPIO_InitStruct.Speed = GPIO_SPEED_FREQ_VERY_HIGH;
 522              		.loc 1 191 5 is_stmt 1 view .LVU204
 191:Core/Src/ltdc.c ****     GPIO_InitStruct.Speed = GPIO_SPEED_FREQ_VERY_HIGH;
 523              		.loc 1 191 26 is_stmt 0 view .LVU205
 524 00fe 0B97     		str	r7, [sp, #44]
 192:Core/Src/ltdc.c ****     GPIO_InitStruct.Alternate = GPIO_AF11_LTDC;
 525              		.loc 1 192 5 is_stmt 1 view .LVU206
 192:Core/Src/ltdc.c ****     GPIO_InitStruct.Alternate = GPIO_AF11_LTDC;
 526              		.loc 1 192 27 is_stmt 0 view .LVU207
 527 0100 0C95     		str	r5, [sp, #48]
 193:Core/Src/ltdc.c ****     HAL_GPIO_Init(GPIOH, &GPIO_InitStruct);
 528              		.loc 1 193 5 is_stmt 1 view .LVU208
 193:Core/Src/ltdc.c ****     HAL_GPIO_Init(GPIOH, &GPIO_InitStruct);
 529              		.loc 1 193 31 is_stmt 0 view .LVU209
 530 0102 0D94     		str	r4, [sp, #52]
 194:Core/Src/ltdc.c **** 
 531              		.loc 1 194 5 is_stmt 1 view .LVU210
 532 0104 09A9     		add	r1, sp, #36
 533 0106 1648     		ldr	r0, .L15+16
 534 0108 FFF7FEFF 		bl	HAL_GPIO_Init
 535              	.LVL15:
 196:Core/Src/ltdc.c ****     GPIO_InitStruct.Mode = GPIO_MODE_AF_PP;
 536              		.loc 1 196 5 view .LVU211
 196:Core/Src/ltdc.c ****     GPIO_InitStruct.Mode = GPIO_MODE_AF_PP;
 537              		.loc 1 196 25 is_stmt 0 view .LVU212
 538 010c 4FF4C653 		mov	r3, #6336
 539 0110 0993     		str	r3, [sp, #36]
 197:Core/Src/ltdc.c ****     GPIO_InitStruct.Pull = GPIO_NOPULL;
ARM GAS  C:\Users\Morroway\AppData\Local\Temp\cchp6UTK.s 			page 16


 540              		.loc 1 197 5 is_stmt 1 view .LVU213
 197:Core/Src/ltdc.c ****     GPIO_InitStruct.Pull = GPIO_NOPULL;
 541              		.loc 1 197 26 is_stmt 0 view .LVU214
 542 0112 0A96     		str	r6, [sp, #40]
 198:Core/Src/ltdc.c ****     GPIO_InitStruct.Speed = GPIO_SPEED_FREQ_VERY_HIGH;
 543              		.loc 1 198 5 is_stmt 1 view .LVU215
 198:Core/Src/ltdc.c ****     GPIO_InitStruct.Speed = GPIO_SPEED_FREQ_VERY_HIGH;
 544              		.loc 1 198 26 is_stmt 0 view .LVU216
 545 0114 0B97     		str	r7, [sp, #44]
 199:Core/Src/ltdc.c ****     GPIO_InitStruct.Alternate = GPIO_AF11_LTDC;
 546              		.loc 1 199 5 is_stmt 1 view .LVU217
 199:Core/Src/ltdc.c ****     GPIO_InitStruct.Alternate = GPIO_AF11_LTDC;
 547              		.loc 1 199 27 is_stmt 0 view .LVU218
 548 0116 0C95     		str	r5, [sp, #48]
 200:Core/Src/ltdc.c ****     HAL_GPIO_Init(GPIOG, &GPIO_InitStruct);
 549              		.loc 1 200 5 is_stmt 1 view .LVU219
 200:Core/Src/ltdc.c ****     HAL_GPIO_Init(GPIOG, &GPIO_InitStruct);
 550              		.loc 1 200 31 is_stmt 0 view .LVU220
 551 0118 0D94     		str	r4, [sp, #52]
 201:Core/Src/ltdc.c **** 
 552              		.loc 1 201 5 is_stmt 1 view .LVU221
 553 011a 09A9     		add	r1, sp, #36
 554 011c 1148     		ldr	r0, .L15+20
 555 011e FFF7FEFF 		bl	HAL_GPIO_Init
 556              	.LVL16:
 203:Core/Src/ltdc.c ****     GPIO_InitStruct.Mode = GPIO_MODE_AF_PP;
 557              		.loc 1 203 5 view .LVU222
 203:Core/Src/ltdc.c ****     GPIO_InitStruct.Mode = GPIO_MODE_AF_PP;
 558              		.loc 1 203 25 is_stmt 0 view .LVU223
 559 0122 4023     		movs	r3, #64
 560 0124 0993     		str	r3, [sp, #36]
 204:Core/Src/ltdc.c ****     GPIO_InitStruct.Pull = GPIO_NOPULL;
 561              		.loc 1 204 5 is_stmt 1 view .LVU224
 204:Core/Src/ltdc.c ****     GPIO_InitStruct.Pull = GPIO_NOPULL;
 562              		.loc 1 204 26 is_stmt 0 view .LVU225
 563 0126 0A96     		str	r6, [sp, #40]
 205:Core/Src/ltdc.c ****     GPIO_InitStruct.Speed = GPIO_SPEED_FREQ_VERY_HIGH;
 564              		.loc 1 205 5 is_stmt 1 view .LVU226
 205:Core/Src/ltdc.c ****     GPIO_InitStruct.Speed = GPIO_SPEED_FREQ_VERY_HIGH;
 565              		.loc 1 205 26 is_stmt 0 view .LVU227
 566 0128 0B97     		str	r7, [sp, #44]
 206:Core/Src/ltdc.c ****     GPIO_InitStruct.Alternate = GPIO_AF11_LTDC;
 567              		.loc 1 206 5 is_stmt 1 view .LVU228
 206:Core/Src/ltdc.c ****     GPIO_InitStruct.Alternate = GPIO_AF11_LTDC;
 568              		.loc 1 206 27 is_stmt 0 view .LVU229
 569 012a 0C95     		str	r5, [sp, #48]
 207:Core/Src/ltdc.c ****     HAL_GPIO_Init(GPIOD, &GPIO_InitStruct);
 570              		.loc 1 207 5 is_stmt 1 view .LVU230
 207:Core/Src/ltdc.c ****     HAL_GPIO_Init(GPIOD, &GPIO_InitStruct);
 571              		.loc 1 207 31 is_stmt 0 view .LVU231
 572 012c 0D94     		str	r4, [sp, #52]
 208:Core/Src/ltdc.c **** 
 573              		.loc 1 208 5 is_stmt 1 view .LVU232
 574 012e 09A9     		add	r1, sp, #36
 575 0130 0D48     		ldr	r0, .L15+24
 576 0132 FFF7FEFF 		bl	HAL_GPIO_Init
 577              	.LVL17:
ARM GAS  C:\Users\Morroway\AppData\Local\Temp\cchp6UTK.s 			page 17


 210:Core/Src/ltdc.c ****     GPIO_InitStruct.Mode = GPIO_MODE_AF_PP;
 578              		.loc 1 210 5 view .LVU233
 210:Core/Src/ltdc.c ****     GPIO_InitStruct.Mode = GPIO_MODE_AF_PP;
 579              		.loc 1 210 25 is_stmt 0 view .LVU234
 580 0136 4FF44073 		mov	r3, #768
 581 013a 0993     		str	r3, [sp, #36]
 211:Core/Src/ltdc.c ****     GPIO_InitStruct.Pull = GPIO_NOPULL;
 582              		.loc 1 211 5 is_stmt 1 view .LVU235
 211:Core/Src/ltdc.c ****     GPIO_InitStruct.Pull = GPIO_NOPULL;
 583              		.loc 1 211 26 is_stmt 0 view .LVU236
 584 013c 0A96     		str	r6, [sp, #40]
 212:Core/Src/ltdc.c ****     GPIO_InitStruct.Speed = GPIO_SPEED_FREQ_VERY_HIGH;
 585              		.loc 1 212 5 is_stmt 1 view .LVU237
 212:Core/Src/ltdc.c ****     GPIO_InitStruct.Speed = GPIO_SPEED_FREQ_VERY_HIGH;
 586              		.loc 1 212 26 is_stmt 0 view .LVU238
 587 013e 0B97     		str	r7, [sp, #44]
 213:Core/Src/ltdc.c ****     GPIO_InitStruct.Alternate = GPIO_AF11_LTDC;
 588              		.loc 1 213 5 is_stmt 1 view .LVU239
 213:Core/Src/ltdc.c ****     GPIO_InitStruct.Alternate = GPIO_AF11_LTDC;
 589              		.loc 1 213 27 is_stmt 0 view .LVU240
 590 0140 0C95     		str	r5, [sp, #48]
 214:Core/Src/ltdc.c ****     HAL_GPIO_Init(GPIOB, &GPIO_InitStruct);
 591              		.loc 1 214 5 is_stmt 1 view .LVU241
 214:Core/Src/ltdc.c ****     HAL_GPIO_Init(GPIOB, &GPIO_InitStruct);
 592              		.loc 1 214 31 is_stmt 0 view .LVU242
 593 0142 0D94     		str	r4, [sp, #52]
 215:Core/Src/ltdc.c **** 
 594              		.loc 1 215 5 is_stmt 1 view .LVU243
 595 0144 09A9     		add	r1, sp, #36
 596 0146 0948     		ldr	r0, .L15+28
 597 0148 FFF7FEFF 		bl	HAL_GPIO_Init
 598              	.LVL18:
 599              		.loc 1 221 1 is_stmt 0 view .LVU244
 600 014c 64E7     		b	.L11
 601              	.L16:
 602 014e 00BF     		.align	2
 603              	.L15:
 604 0150 00680140 		.word	1073833984
 605 0154 00100048 		.word	1207963648
 606 0158 00200048 		.word	1207967744
 607 015c 00140048 		.word	1207964672
 608 0160 001C0048 		.word	1207966720
 609 0164 00180048 		.word	1207965696
 610 0168 000C0048 		.word	1207962624
 611 016c 00040048 		.word	1207960576
 612              		.cfi_endproc
 613              	.LFE322:
 615              		.section	.text.HAL_LTDC_MspDeInit,"ax",%progbits
 616              		.align	1
 617              		.global	HAL_LTDC_MspDeInit
 618              		.syntax unified
 619              		.thumb
 620              		.thumb_func
 622              	HAL_LTDC_MspDeInit:
 623              	.LVL19:
 624              	.LFB323:
 222:Core/Src/ltdc.c **** 
ARM GAS  C:\Users\Morroway\AppData\Local\Temp\cchp6UTK.s 			page 18


 223:Core/Src/ltdc.c **** void HAL_LTDC_MspDeInit(LTDC_HandleTypeDef* ltdcHandle)
 224:Core/Src/ltdc.c **** {
 625              		.loc 1 224 1 is_stmt 1 view -0
 626              		.cfi_startproc
 627              		@ args = 0, pretend = 0, frame = 0
 628              		@ frame_needed = 0, uses_anonymous_args = 0
 629              		.loc 1 224 1 is_stmt 0 view .LVU246
 630 0000 08B5     		push	{r3, lr}
 631              		.cfi_def_cfa_offset 8
 632              		.cfi_offset 3, -8
 633              		.cfi_offset 14, -4
 225:Core/Src/ltdc.c **** 
 226:Core/Src/ltdc.c ****   if(ltdcHandle->Instance==LTDC)
 634              		.loc 1 226 3 is_stmt 1 view .LVU247
 635              		.loc 1 226 16 is_stmt 0 view .LVU248
 636 0002 0268     		ldr	r2, [r0]
 637              		.loc 1 226 5 view .LVU249
 638 0004 154B     		ldr	r3, .L21
 639 0006 9A42     		cmp	r2, r3
 640 0008 00D0     		beq	.L20
 641              	.LVL20:
 642              	.L17:
 227:Core/Src/ltdc.c ****   {
 228:Core/Src/ltdc.c ****   /* USER CODE BEGIN LTDC_MspDeInit 0 */
 229:Core/Src/ltdc.c **** 
 230:Core/Src/ltdc.c ****   /* USER CODE END LTDC_MspDeInit 0 */
 231:Core/Src/ltdc.c ****     /* Peripheral clock disable */
 232:Core/Src/ltdc.c ****     __HAL_RCC_LTDC_CLK_DISABLE();
 233:Core/Src/ltdc.c ****   
 234:Core/Src/ltdc.c ****     /**LTDC GPIO Configuration    
 235:Core/Src/ltdc.c ****     PE4     ------> LTDC_B0
 236:Core/Src/ltdc.c ****     PE5     ------> LTDC_G0
 237:Core/Src/ltdc.c ****     PE6     ------> LTDC_G1
 238:Core/Src/ltdc.c ****     PI9     ------> LTDC_VSYNC
 239:Core/Src/ltdc.c ****     PI10     ------> LTDC_HSYNC
 240:Core/Src/ltdc.c ****     PF10     ------> LTDC_DE
 241:Core/Src/ltdc.c ****     PH2     ------> LTDC_R0
 242:Core/Src/ltdc.c ****     PH3     ------> LTDC_R1
 243:Core/Src/ltdc.c ****     PH8     ------> LTDC_R2
 244:Core/Src/ltdc.c ****     PH9     ------> LTDC_R3
 245:Core/Src/ltdc.c ****     PH10     ------> LTDC_R4
 246:Core/Src/ltdc.c ****     PH11     ------> LTDC_R5
 247:Core/Src/ltdc.c ****     PH12     ------> LTDC_R6
 248:Core/Src/ltdc.c ****     PG6     ------> LTDC_R7
 249:Core/Src/ltdc.c ****     PG7     ------> LTDC_CLK
 250:Core/Src/ltdc.c ****     PH13     ------> LTDC_G2
 251:Core/Src/ltdc.c ****     PH14     ------> LTDC_G3
 252:Core/Src/ltdc.c ****     PH15     ------> LTDC_G4
 253:Core/Src/ltdc.c ****     PI0     ------> LTDC_G5
 254:Core/Src/ltdc.c ****     PI1     ------> LTDC_G6
 255:Core/Src/ltdc.c ****     PI2     ------> LTDC_G7
 256:Core/Src/ltdc.c ****     PD6     ------> LTDC_B2
 257:Core/Src/ltdc.c ****     PG11     ------> LTDC_B3
 258:Core/Src/ltdc.c ****     PG12     ------> LTDC_B1
 259:Core/Src/ltdc.c ****     PB8     ------> LTDC_B6
 260:Core/Src/ltdc.c ****     PB9     ------> LTDC_B7
 261:Core/Src/ltdc.c ****     PI4     ------> LTDC_B4
ARM GAS  C:\Users\Morroway\AppData\Local\Temp\cchp6UTK.s 			page 19


 262:Core/Src/ltdc.c ****     PI5     ------> LTDC_B5 
 263:Core/Src/ltdc.c ****     */
 264:Core/Src/ltdc.c ****     HAL_GPIO_DeInit(GPIOE, GPIO_PIN_4|GPIO_PIN_5|GPIO_PIN_6);
 265:Core/Src/ltdc.c **** 
 266:Core/Src/ltdc.c ****     HAL_GPIO_DeInit(GPIOI, GPIO_PIN_9|GPIO_PIN_10|GPIO_PIN_0|GPIO_PIN_1 
 267:Core/Src/ltdc.c ****                           |GPIO_PIN_2|GPIO_PIN_4|GPIO_PIN_5);
 268:Core/Src/ltdc.c **** 
 269:Core/Src/ltdc.c ****     HAL_GPIO_DeInit(GPIOF, GPIO_PIN_10);
 270:Core/Src/ltdc.c **** 
 271:Core/Src/ltdc.c ****     HAL_GPIO_DeInit(GPIOH, GPIO_PIN_2|GPIO_PIN_3|GPIO_PIN_8|GPIO_PIN_9 
 272:Core/Src/ltdc.c ****                           |GPIO_PIN_10|GPIO_PIN_11|GPIO_PIN_12|GPIO_PIN_13 
 273:Core/Src/ltdc.c ****                           |GPIO_PIN_14|GPIO_PIN_15);
 274:Core/Src/ltdc.c **** 
 275:Core/Src/ltdc.c ****     HAL_GPIO_DeInit(GPIOG, GPIO_PIN_6|GPIO_PIN_7|GPIO_PIN_11|GPIO_PIN_12);
 276:Core/Src/ltdc.c **** 
 277:Core/Src/ltdc.c ****     HAL_GPIO_DeInit(GPIOD, GPIO_PIN_6);
 278:Core/Src/ltdc.c **** 
 279:Core/Src/ltdc.c ****     HAL_GPIO_DeInit(GPIOB, GPIO_PIN_8|GPIO_PIN_9);
 280:Core/Src/ltdc.c **** 
 281:Core/Src/ltdc.c ****   /* USER CODE BEGIN LTDC_MspDeInit 1 */
 282:Core/Src/ltdc.c **** 
 283:Core/Src/ltdc.c ****   /* USER CODE END LTDC_MspDeInit 1 */
 284:Core/Src/ltdc.c ****   }
 285:Core/Src/ltdc.c **** } 
 643              		.loc 1 285 1 view .LVU250
 644 000a 08BD     		pop	{r3, pc}
 645              	.LVL21:
 646              	.L20:
 232:Core/Src/ltdc.c ****   
 647              		.loc 1 232 5 is_stmt 1 view .LVU251
 648 000c 144A     		ldr	r2, .L21+4
 649 000e 136E     		ldr	r3, [r2, #96]
 650 0010 23F08063 		bic	r3, r3, #67108864
 651 0014 1366     		str	r3, [r2, #96]
 264:Core/Src/ltdc.c **** 
 652              		.loc 1 264 5 view .LVU252
 653 0016 7021     		movs	r1, #112
 654 0018 1248     		ldr	r0, .L21+8
 655              	.LVL22:
 264:Core/Src/ltdc.c **** 
 656              		.loc 1 264 5 is_stmt 0 view .LVU253
 657 001a FFF7FEFF 		bl	HAL_GPIO_DeInit
 658              	.LVL23:
 266:Core/Src/ltdc.c ****                           |GPIO_PIN_2|GPIO_PIN_4|GPIO_PIN_5);
 659              		.loc 1 266 5 is_stmt 1 view .LVU254
 660 001e 40F23761 		movw	r1, #1591
 661 0022 1148     		ldr	r0, .L21+12
 662 0024 FFF7FEFF 		bl	HAL_GPIO_DeInit
 663              	.LVL24:
 269:Core/Src/ltdc.c **** 
 664              		.loc 1 269 5 view .LVU255
 665 0028 4FF48061 		mov	r1, #1024
 666 002c 0F48     		ldr	r0, .L21+16
 667 002e FFF7FEFF 		bl	HAL_GPIO_DeInit
 668              	.LVL25:
 271:Core/Src/ltdc.c ****                           |GPIO_PIN_10|GPIO_PIN_11|GPIO_PIN_12|GPIO_PIN_13 
 669              		.loc 1 271 5 view .LVU256
ARM GAS  C:\Users\Morroway\AppData\Local\Temp\cchp6UTK.s 			page 20


 670 0032 4FF60C71 		movw	r1, #65292
 671 0036 0E48     		ldr	r0, .L21+20
 672 0038 FFF7FEFF 		bl	HAL_GPIO_DeInit
 673              	.LVL26:
 275:Core/Src/ltdc.c **** 
 674              		.loc 1 275 5 view .LVU257
 675 003c 4FF4C651 		mov	r1, #6336
 676 0040 0C48     		ldr	r0, .L21+24
 677 0042 FFF7FEFF 		bl	HAL_GPIO_DeInit
 678              	.LVL27:
 277:Core/Src/ltdc.c **** 
 679              		.loc 1 277 5 view .LVU258
 680 0046 4021     		movs	r1, #64
 681 0048 0B48     		ldr	r0, .L21+28
 682 004a FFF7FEFF 		bl	HAL_GPIO_DeInit
 683              	.LVL28:
 279:Core/Src/ltdc.c **** 
 684              		.loc 1 279 5 view .LVU259
 685 004e 4FF44071 		mov	r1, #768
 686 0052 0A48     		ldr	r0, .L21+32
 687 0054 FFF7FEFF 		bl	HAL_GPIO_DeInit
 688              	.LVL29:
 689              		.loc 1 285 1 is_stmt 0 view .LVU260
 690 0058 D7E7     		b	.L17
 691              	.L22:
 692 005a 00BF     		.align	2
 693              	.L21:
 694 005c 00680140 		.word	1073833984
 695 0060 00100240 		.word	1073876992
 696 0064 00100048 		.word	1207963648
 697 0068 00200048 		.word	1207967744
 698 006c 00140048 		.word	1207964672
 699 0070 001C0048 		.word	1207966720
 700 0074 00180048 		.word	1207965696
 701 0078 000C0048 		.word	1207962624
 702 007c 00040048 		.word	1207960576
 703              		.cfi_endproc
 704              	.LFE323:
 706              		.global	hltdc
 707              		.section	.bss.hltdc,"aw",%nobits
 708              		.align	2
 709              		.set	.LANCHOR0,. + 0
 712              	hltdc:
 713 0000 00000000 		.space	116
 713      00000000 
 713      00000000 
 713      00000000 
 713      00000000 
 714              		.text
 715              	.Letext0:
 716              		.file 2 "c:\\users\\morroway\\appdata\\roaming\\code\\user\\globalstorage\\bmd.stm32-for-vscode\\@
 717              		.file 3 "c:\\users\\morroway\\appdata\\roaming\\code\\user\\globalstorage\\bmd.stm32-for-vscode\\@
 718              		.file 4 "Drivers/CMSIS/Device/ST/STM32L4xx/Include/stm32l4p5xx.h"
 719              		.file 5 "Drivers/STM32L4xx_HAL_Driver/Inc/stm32l4xx_hal_def.h"
 720              		.file 6 "Drivers/STM32L4xx_HAL_Driver/Inc/stm32l4xx_hal_gpio.h"
 721              		.file 7 "Drivers/STM32L4xx_HAL_Driver/Inc/stm32l4xx_hal_ltdc.h"
 722              		.file 8 "Core/Inc/ltdc.h"
ARM GAS  C:\Users\Morroway\AppData\Local\Temp\cchp6UTK.s 			page 21


 723              		.file 9 "Core/Inc/main.h"
 724              		.file 10 "<built-in>"
ARM GAS  C:\Users\Morroway\AppData\Local\Temp\cchp6UTK.s 			page 22

