ARM GAS  C:\Users\Morroway\AppData\Local\Temp\cce713db.s 			page 1


   1              		.cpu cortex-m4
   2              		.arch armv7e-m
   3              		.fpu fpv4-sp-d16
   4              		.eabi_attribute 27, 1
   5              		.eabi_attribute 28, 1
   6              		.eabi_attribute 20, 1
   7              		.eabi_attribute 21, 1
   8              		.eabi_attribute 23, 3
   9              		.eabi_attribute 24, 1
  10              		.eabi_attribute 25, 1
  11              		.eabi_attribute 26, 1
  12              		.eabi_attribute 30, 1
  13              		.eabi_attribute 34, 1
  14              		.eabi_attribute 18, 4
  15              		.file	"usart.c"
  16              		.text
  17              	.Ltext0:
  18              		.cfi_sections	.debug_frame
  19              		.section	.text.MX_USART1_UART_Init,"ax",%progbits
  20              		.align	1
  21              		.global	MX_USART1_UART_Init
  22              		.syntax unified
  23              		.thumb
  24              		.thumb_func
  26              	MX_USART1_UART_Init:
  27              	.LFB321:
  28              		.file 1 "Core/Src/usart.c"
   1:Core/Src/usart.c **** /**
   2:Core/Src/usart.c ****   ******************************************************************************
   3:Core/Src/usart.c ****   * File Name          : USART.c
   4:Core/Src/usart.c ****   * Description        : This file provides code for the configuration
   5:Core/Src/usart.c ****   *                      of the USART instances.
   6:Core/Src/usart.c ****   ******************************************************************************
   7:Core/Src/usart.c ****   ** This notice applies to any and all portions of this file
   8:Core/Src/usart.c ****   * that are not between comment pairs USER CODE BEGIN and
   9:Core/Src/usart.c ****   * USER CODE END. Other portions of this file, whether 
  10:Core/Src/usart.c ****   * inserted by the user or by software development tools
  11:Core/Src/usart.c ****   * are owned by their respective copyright owners.
  12:Core/Src/usart.c ****   *
  13:Core/Src/usart.c ****   * COPYRIGHT(c) 2019 STMicroelectronics
  14:Core/Src/usart.c ****   *
  15:Core/Src/usart.c ****   * Redistribution and use in source and binary forms, with or without modification,
  16:Core/Src/usart.c ****   * are permitted provided that the following conditions are met:
  17:Core/Src/usart.c ****   *   1. Redistributions of source code must retain the above copyright notice,
  18:Core/Src/usart.c ****   *      this list of conditions and the following disclaimer.
  19:Core/Src/usart.c ****   *   2. Redistributions in binary form must reproduce the above copyright notice,
  20:Core/Src/usart.c ****   *      this list of conditions and the following disclaimer in the documentation
  21:Core/Src/usart.c ****   *      and/or other materials provided with the distribution.
  22:Core/Src/usart.c ****   *   3. Neither the name of STMicroelectronics nor the names of its contributors
  23:Core/Src/usart.c ****   *      may be used to endorse or promote products derived from this software
  24:Core/Src/usart.c ****   *      without specific prior written permission.
  25:Core/Src/usart.c ****   *
  26:Core/Src/usart.c ****   * THIS SOFTWARE IS PROVIDED BY THE COPYRIGHT HOLDERS AND CONTRIBUTORS "AS IS"
  27:Core/Src/usart.c ****   * AND ANY EXPRESS OR IMPLIED WARRANTIES, INCLUDING, BUT NOT LIMITED TO, THE
  28:Core/Src/usart.c ****   * IMPLIED WARRANTIES OF MERCHANTABILITY AND FITNESS FOR A PARTICULAR PURPOSE ARE
  29:Core/Src/usart.c ****   * DISCLAIMED. IN NO EVENT SHALL THE COPYRIGHT HOLDER OR CONTRIBUTORS BE LIABLE
  30:Core/Src/usart.c ****   * FOR ANY DIRECT, INDIRECT, INCIDENTAL, SPECIAL, EXEMPLARY, OR CONSEQUENTIAL
ARM GAS  C:\Users\Morroway\AppData\Local\Temp\cce713db.s 			page 2


  31:Core/Src/usart.c ****   * DAMAGES (INCLUDING, BUT NOT LIMITED TO, PROCUREMENT OF SUBSTITUTE GOODS OR
  32:Core/Src/usart.c ****   * SERVICES; LOSS OF USE, DATA, OR PROFITS; OR BUSINESS INTERRUPTION) HOWEVER
  33:Core/Src/usart.c ****   * CAUSED AND ON ANY THEORY OF LIABILITY, WHETHER IN CONTRACT, STRICT LIABILITY,
  34:Core/Src/usart.c ****   * OR TORT (INCLUDING NEGLIGENCE OR OTHERWISE) ARISING IN ANY WAY OUT OF THE USE
  35:Core/Src/usart.c ****   * OF THIS SOFTWARE, EVEN IF ADVISED OF THE POSSIBILITY OF SUCH DAMAGE.
  36:Core/Src/usart.c ****   *
  37:Core/Src/usart.c ****   ******************************************************************************
  38:Core/Src/usart.c ****   */
  39:Core/Src/usart.c **** 
  40:Core/Src/usart.c **** /* Includes ------------------------------------------------------------------*/
  41:Core/Src/usart.c **** #include "usart.h"
  42:Core/Src/usart.c **** 
  43:Core/Src/usart.c **** /* USER CODE BEGIN 0 */
  44:Core/Src/usart.c **** 
  45:Core/Src/usart.c **** /* USER CODE END 0 */
  46:Core/Src/usart.c **** 
  47:Core/Src/usart.c **** UART_HandleTypeDef huart1;
  48:Core/Src/usart.c **** 
  49:Core/Src/usart.c **** /* USART1 init function */
  50:Core/Src/usart.c **** 
  51:Core/Src/usart.c **** void MX_USART1_UART_Init(void)
  52:Core/Src/usart.c **** {
  29              		.loc 1 52 1 view -0
  30              		.cfi_startproc
  31              		@ args = 0, pretend = 0, frame = 0
  32              		@ frame_needed = 0, uses_anonymous_args = 0
  33 0000 08B5     		push	{r3, lr}
  34              		.cfi_def_cfa_offset 8
  35              		.cfi_offset 3, -8
  36              		.cfi_offset 14, -4
  53:Core/Src/usart.c **** 
  54:Core/Src/usart.c ****   huart1.Instance = USART1;
  37              		.loc 1 54 3 view .LVU1
  38              		.loc 1 54 19 is_stmt 0 view .LVU2
  39 0002 0A48     		ldr	r0, .L5
  40 0004 0A4B     		ldr	r3, .L5+4
  41 0006 0360     		str	r3, [r0]
  55:Core/Src/usart.c ****   huart1.Init.BaudRate = 115200;
  42              		.loc 1 55 3 is_stmt 1 view .LVU3
  43              		.loc 1 55 24 is_stmt 0 view .LVU4
  44 0008 4FF4E133 		mov	r3, #115200
  45 000c 4360     		str	r3, [r0, #4]
  56:Core/Src/usart.c ****   huart1.Init.WordLength = UART_WORDLENGTH_8B;
  46              		.loc 1 56 3 is_stmt 1 view .LVU5
  47              		.loc 1 56 26 is_stmt 0 view .LVU6
  48 000e 0023     		movs	r3, #0
  49 0010 8360     		str	r3, [r0, #8]
  57:Core/Src/usart.c ****   huart1.Init.StopBits = UART_STOPBITS_1;
  50              		.loc 1 57 3 is_stmt 1 view .LVU7
  51              		.loc 1 57 24 is_stmt 0 view .LVU8
  52 0012 C360     		str	r3, [r0, #12]
  58:Core/Src/usart.c ****   huart1.Init.Parity = UART_PARITY_NONE;
  53              		.loc 1 58 3 is_stmt 1 view .LVU9
  54              		.loc 1 58 22 is_stmt 0 view .LVU10
  55 0014 0361     		str	r3, [r0, #16]
  59:Core/Src/usart.c ****   huart1.Init.Mode = UART_MODE_TX_RX;
  56              		.loc 1 59 3 is_stmt 1 view .LVU11
ARM GAS  C:\Users\Morroway\AppData\Local\Temp\cce713db.s 			page 3


  57              		.loc 1 59 20 is_stmt 0 view .LVU12
  58 0016 0C22     		movs	r2, #12
  59 0018 4261     		str	r2, [r0, #20]
  60:Core/Src/usart.c ****   huart1.Init.HwFlowCtl = UART_HWCONTROL_NONE;
  60              		.loc 1 60 3 is_stmt 1 view .LVU13
  61              		.loc 1 60 25 is_stmt 0 view .LVU14
  62 001a 8361     		str	r3, [r0, #24]
  61:Core/Src/usart.c ****   huart1.Init.OverSampling = UART_OVERSAMPLING_16;
  63              		.loc 1 61 3 is_stmt 1 view .LVU15
  64              		.loc 1 61 28 is_stmt 0 view .LVU16
  65 001c C361     		str	r3, [r0, #28]
  62:Core/Src/usart.c ****   if (HAL_UART_Init(&huart1) != HAL_OK)
  66              		.loc 1 62 3 is_stmt 1 view .LVU17
  67              		.loc 1 62 7 is_stmt 0 view .LVU18
  68 001e FFF7FEFF 		bl	HAL_UART_Init
  69              	.LVL0:
  70              		.loc 1 62 6 view .LVU19
  71 0022 00B9     		cbnz	r0, .L4
  72              	.L1:
  63:Core/Src/usart.c ****   {
  64:Core/Src/usart.c ****     Error_Handler();
  65:Core/Src/usart.c ****   }
  66:Core/Src/usart.c **** 
  67:Core/Src/usart.c **** }
  73              		.loc 1 67 1 view .LVU20
  74 0024 08BD     		pop	{r3, pc}
  75              	.L4:
  64:Core/Src/usart.c ****   }
  76              		.loc 1 64 5 is_stmt 1 view .LVU21
  77 0026 FFF7FEFF 		bl	Error_Handler
  78              	.LVL1:
  79              		.loc 1 67 1 is_stmt 0 view .LVU22
  80 002a FBE7     		b	.L1
  81              	.L6:
  82              		.align	2
  83              	.L5:
  84 002c 00000000 		.word	.LANCHOR0
  85 0030 00380140 		.word	1073821696
  86              		.cfi_endproc
  87              	.LFE321:
  89              		.section	.text.HAL_UART_MspInit,"ax",%progbits
  90              		.align	1
  91              		.global	HAL_UART_MspInit
  92              		.syntax unified
  93              		.thumb
  94              		.thumb_func
  96              	HAL_UART_MspInit:
  97              	.LVL2:
  98              	.LFB322:
  68:Core/Src/usart.c **** 
  69:Core/Src/usart.c **** void HAL_UART_MspInit(UART_HandleTypeDef* uartHandle)
  70:Core/Src/usart.c **** {
  99              		.loc 1 70 1 is_stmt 1 view -0
 100              		.cfi_startproc
 101              		@ args = 0, pretend = 0, frame = 32
 102              		@ frame_needed = 0, uses_anonymous_args = 0
 103              		.loc 1 70 1 is_stmt 0 view .LVU24
ARM GAS  C:\Users\Morroway\AppData\Local\Temp\cce713db.s 			page 4


 104 0000 00B5     		push	{lr}
 105              		.cfi_def_cfa_offset 4
 106              		.cfi_offset 14, -4
 107 0002 89B0     		sub	sp, sp, #36
 108              		.cfi_def_cfa_offset 40
  71:Core/Src/usart.c **** 
  72:Core/Src/usart.c ****   GPIO_InitTypeDef GPIO_InitStruct = {0};
 109              		.loc 1 72 3 is_stmt 1 view .LVU25
 110              		.loc 1 72 20 is_stmt 0 view .LVU26
 111 0004 0023     		movs	r3, #0
 112 0006 0393     		str	r3, [sp, #12]
 113 0008 0493     		str	r3, [sp, #16]
 114 000a 0593     		str	r3, [sp, #20]
 115 000c 0693     		str	r3, [sp, #24]
 116 000e 0793     		str	r3, [sp, #28]
  73:Core/Src/usart.c ****   if(uartHandle->Instance==USART1)
 117              		.loc 1 73 3 is_stmt 1 view .LVU27
 118              		.loc 1 73 16 is_stmt 0 view .LVU28
 119 0010 0268     		ldr	r2, [r0]
 120              		.loc 1 73 5 view .LVU29
 121 0012 154B     		ldr	r3, .L11
 122 0014 9A42     		cmp	r2, r3
 123 0016 02D0     		beq	.L10
 124              	.LVL3:
 125              	.L7:
  74:Core/Src/usart.c ****   {
  75:Core/Src/usart.c ****   /* USER CODE BEGIN USART1_MspInit 0 */
  76:Core/Src/usart.c **** 
  77:Core/Src/usart.c ****   /* USER CODE END USART1_MspInit 0 */
  78:Core/Src/usart.c ****     /* USART1 clock enable */
  79:Core/Src/usart.c ****     __HAL_RCC_USART1_CLK_ENABLE();
  80:Core/Src/usart.c ****   
  81:Core/Src/usart.c ****     __HAL_RCC_GPIOA_CLK_ENABLE();
  82:Core/Src/usart.c ****     /**USART1 GPIO Configuration    
  83:Core/Src/usart.c ****     PA9     ------> USART1_TX
  84:Core/Src/usart.c ****     PA10     ------> USART1_RX 
  85:Core/Src/usart.c ****     */
  86:Core/Src/usart.c ****     GPIO_InitStruct.Pin = GPIO_PIN_9|GPIO_PIN_10;
  87:Core/Src/usart.c ****     GPIO_InitStruct.Mode = GPIO_MODE_AF_PP;
  88:Core/Src/usart.c ****     GPIO_InitStruct.Pull = GPIO_PULLUP;
  89:Core/Src/usart.c ****     GPIO_InitStruct.Speed = GPIO_SPEED_FREQ_VERY_HIGH;
  90:Core/Src/usart.c ****     GPIO_InitStruct.Alternate = GPIO_AF7_USART1;
  91:Core/Src/usart.c ****     HAL_GPIO_Init(GPIOA, &GPIO_InitStruct);
  92:Core/Src/usart.c **** 
  93:Core/Src/usart.c ****   /* USER CODE BEGIN USART1_MspInit 1 */
  94:Core/Src/usart.c **** 
  95:Core/Src/usart.c ****   /* USER CODE END USART1_MspInit 1 */
  96:Core/Src/usart.c ****   }
  97:Core/Src/usart.c **** }
 126              		.loc 1 97 1 view .LVU30
 127 0018 09B0     		add	sp, sp, #36
 128              		.cfi_remember_state
 129              		.cfi_def_cfa_offset 4
 130              		@ sp needed
 131 001a 5DF804FB 		ldr	pc, [sp], #4
 132              	.LVL4:
 133              	.L10:
ARM GAS  C:\Users\Morroway\AppData\Local\Temp\cce713db.s 			page 5


 134              		.cfi_restore_state
  79:Core/Src/usart.c ****   
 135              		.loc 1 79 5 is_stmt 1 view .LVU31
 136              	.LBB2:
  79:Core/Src/usart.c ****   
 137              		.loc 1 79 5 view .LVU32
  79:Core/Src/usart.c ****   
 138              		.loc 1 79 5 view .LVU33
 139 001e 03F55843 		add	r3, r3, #55296
 140 0022 1A6E     		ldr	r2, [r3, #96]
 141 0024 42F48042 		orr	r2, r2, #16384
 142 0028 1A66     		str	r2, [r3, #96]
  79:Core/Src/usart.c ****   
 143              		.loc 1 79 5 view .LVU34
 144 002a 1A6E     		ldr	r2, [r3, #96]
 145 002c 02F48042 		and	r2, r2, #16384
 146 0030 0192     		str	r2, [sp, #4]
  79:Core/Src/usart.c ****   
 147              		.loc 1 79 5 view .LVU35
 148 0032 019A     		ldr	r2, [sp, #4]
 149              	.LBE2:
  79:Core/Src/usart.c ****   
 150              		.loc 1 79 5 view .LVU36
  81:Core/Src/usart.c ****     /**USART1 GPIO Configuration    
 151              		.loc 1 81 5 view .LVU37
 152              	.LBB3:
  81:Core/Src/usart.c ****     /**USART1 GPIO Configuration    
 153              		.loc 1 81 5 view .LVU38
  81:Core/Src/usart.c ****     /**USART1 GPIO Configuration    
 154              		.loc 1 81 5 view .LVU39
 155 0034 DA6C     		ldr	r2, [r3, #76]
 156 0036 42F00102 		orr	r2, r2, #1
 157 003a DA64     		str	r2, [r3, #76]
  81:Core/Src/usart.c ****     /**USART1 GPIO Configuration    
 158              		.loc 1 81 5 view .LVU40
 159 003c DB6C     		ldr	r3, [r3, #76]
 160 003e 03F00103 		and	r3, r3, #1
 161 0042 0293     		str	r3, [sp, #8]
  81:Core/Src/usart.c ****     /**USART1 GPIO Configuration    
 162              		.loc 1 81 5 view .LVU41
 163 0044 029B     		ldr	r3, [sp, #8]
 164              	.LBE3:
  81:Core/Src/usart.c ****     /**USART1 GPIO Configuration    
 165              		.loc 1 81 5 view .LVU42
  86:Core/Src/usart.c ****     GPIO_InitStruct.Mode = GPIO_MODE_AF_PP;
 166              		.loc 1 86 5 view .LVU43
  86:Core/Src/usart.c ****     GPIO_InitStruct.Mode = GPIO_MODE_AF_PP;
 167              		.loc 1 86 25 is_stmt 0 view .LVU44
 168 0046 4FF4C063 		mov	r3, #1536
 169 004a 0393     		str	r3, [sp, #12]
  87:Core/Src/usart.c ****     GPIO_InitStruct.Pull = GPIO_PULLUP;
 170              		.loc 1 87 5 is_stmt 1 view .LVU45
  87:Core/Src/usart.c ****     GPIO_InitStruct.Pull = GPIO_PULLUP;
 171              		.loc 1 87 26 is_stmt 0 view .LVU46
 172 004c 0223     		movs	r3, #2
 173 004e 0493     		str	r3, [sp, #16]
  88:Core/Src/usart.c ****     GPIO_InitStruct.Speed = GPIO_SPEED_FREQ_VERY_HIGH;
ARM GAS  C:\Users\Morroway\AppData\Local\Temp\cce713db.s 			page 6


 174              		.loc 1 88 5 is_stmt 1 view .LVU47
  88:Core/Src/usart.c ****     GPIO_InitStruct.Speed = GPIO_SPEED_FREQ_VERY_HIGH;
 175              		.loc 1 88 26 is_stmt 0 view .LVU48
 176 0050 0123     		movs	r3, #1
 177 0052 0593     		str	r3, [sp, #20]
  89:Core/Src/usart.c ****     GPIO_InitStruct.Alternate = GPIO_AF7_USART1;
 178              		.loc 1 89 5 is_stmt 1 view .LVU49
  89:Core/Src/usart.c ****     GPIO_InitStruct.Alternate = GPIO_AF7_USART1;
 179              		.loc 1 89 27 is_stmt 0 view .LVU50
 180 0054 0323     		movs	r3, #3
 181 0056 0693     		str	r3, [sp, #24]
  90:Core/Src/usart.c ****     HAL_GPIO_Init(GPIOA, &GPIO_InitStruct);
 182              		.loc 1 90 5 is_stmt 1 view .LVU51
  90:Core/Src/usart.c ****     HAL_GPIO_Init(GPIOA, &GPIO_InitStruct);
 183              		.loc 1 90 31 is_stmt 0 view .LVU52
 184 0058 0723     		movs	r3, #7
 185 005a 0793     		str	r3, [sp, #28]
  91:Core/Src/usart.c **** 
 186              		.loc 1 91 5 is_stmt 1 view .LVU53
 187 005c 03A9     		add	r1, sp, #12
 188 005e 4FF09040 		mov	r0, #1207959552
 189              	.LVL5:
  91:Core/Src/usart.c **** 
 190              		.loc 1 91 5 is_stmt 0 view .LVU54
 191 0062 FFF7FEFF 		bl	HAL_GPIO_Init
 192              	.LVL6:
 193              		.loc 1 97 1 view .LVU55
 194 0066 D7E7     		b	.L7
 195              	.L12:
 196              		.align	2
 197              	.L11:
 198 0068 00380140 		.word	1073821696
 199              		.cfi_endproc
 200              	.LFE322:
 202              		.section	.text.HAL_UART_MspDeInit,"ax",%progbits
 203              		.align	1
 204              		.global	HAL_UART_MspDeInit
 205              		.syntax unified
 206              		.thumb
 207              		.thumb_func
 209              	HAL_UART_MspDeInit:
 210              	.LVL7:
 211              	.LFB323:
  98:Core/Src/usart.c **** 
  99:Core/Src/usart.c **** void HAL_UART_MspDeInit(UART_HandleTypeDef* uartHandle)
 100:Core/Src/usart.c **** {
 212              		.loc 1 100 1 is_stmt 1 view -0
 213              		.cfi_startproc
 214              		@ args = 0, pretend = 0, frame = 0
 215              		@ frame_needed = 0, uses_anonymous_args = 0
 216              		.loc 1 100 1 is_stmt 0 view .LVU57
 217 0000 08B5     		push	{r3, lr}
 218              		.cfi_def_cfa_offset 8
 219              		.cfi_offset 3, -8
 220              		.cfi_offset 14, -4
 101:Core/Src/usart.c **** 
 102:Core/Src/usart.c ****   if(uartHandle->Instance==USART1)
ARM GAS  C:\Users\Morroway\AppData\Local\Temp\cce713db.s 			page 7


 221              		.loc 1 102 3 is_stmt 1 view .LVU58
 222              		.loc 1 102 16 is_stmt 0 view .LVU59
 223 0002 0268     		ldr	r2, [r0]
 224              		.loc 1 102 5 view .LVU60
 225 0004 074B     		ldr	r3, .L17
 226 0006 9A42     		cmp	r2, r3
 227 0008 00D0     		beq	.L16
 228              	.LVL8:
 229              	.L13:
 103:Core/Src/usart.c ****   {
 104:Core/Src/usart.c ****   /* USER CODE BEGIN USART1_MspDeInit 0 */
 105:Core/Src/usart.c **** 
 106:Core/Src/usart.c ****   /* USER CODE END USART1_MspDeInit 0 */
 107:Core/Src/usart.c ****     /* Peripheral clock disable */
 108:Core/Src/usart.c ****     __HAL_RCC_USART1_CLK_DISABLE();
 109:Core/Src/usart.c ****   
 110:Core/Src/usart.c ****     /**USART1 GPIO Configuration    
 111:Core/Src/usart.c ****     PA9     ------> USART1_TX
 112:Core/Src/usart.c ****     PA10     ------> USART1_RX 
 113:Core/Src/usart.c ****     */
 114:Core/Src/usart.c ****     HAL_GPIO_DeInit(GPIOA, GPIO_PIN_9|GPIO_PIN_10);
 115:Core/Src/usart.c **** 
 116:Core/Src/usart.c ****   /* USER CODE BEGIN USART1_MspDeInit 1 */
 117:Core/Src/usart.c **** 
 118:Core/Src/usart.c ****   /* USER CODE END USART1_MspDeInit 1 */
 119:Core/Src/usart.c ****   }
 120:Core/Src/usart.c **** } 
 230              		.loc 1 120 1 view .LVU61
 231 000a 08BD     		pop	{r3, pc}
 232              	.LVL9:
 233              	.L16:
 108:Core/Src/usart.c ****   
 234              		.loc 1 108 5 is_stmt 1 view .LVU62
 235 000c 064A     		ldr	r2, .L17+4
 236 000e 136E     		ldr	r3, [r2, #96]
 237 0010 23F48043 		bic	r3, r3, #16384
 238 0014 1366     		str	r3, [r2, #96]
 114:Core/Src/usart.c **** 
 239              		.loc 1 114 5 view .LVU63
 240 0016 4FF4C061 		mov	r1, #1536
 241 001a 4FF09040 		mov	r0, #1207959552
 242              	.LVL10:
 114:Core/Src/usart.c **** 
 243              		.loc 1 114 5 is_stmt 0 view .LVU64
 244 001e FFF7FEFF 		bl	HAL_GPIO_DeInit
 245              	.LVL11:
 246              		.loc 1 120 1 view .LVU65
 247 0022 F2E7     		b	.L13
 248              	.L18:
 249              		.align	2
 250              	.L17:
 251 0024 00380140 		.word	1073821696
 252 0028 00100240 		.word	1073876992
 253              		.cfi_endproc
 254              	.LFE323:
 256              		.global	huart1
 257              		.section	.bss.huart1,"aw",%nobits
ARM GAS  C:\Users\Morroway\AppData\Local\Temp\cce713db.s 			page 8


 258              		.align	2
 259              		.set	.LANCHOR0,. + 0
 262              	huart1:
 263 0000 00000000 		.space	144
 263      00000000 
 263      00000000 
 263      00000000 
 263      00000000 
 264              		.text
 265              	.Letext0:
 266              		.file 2 "c:\\users\\morroway\\appdata\\roaming\\code\\user\\globalstorage\\bmd.stm32-for-vscode\\@
 267              		.file 3 "c:\\users\\morroway\\appdata\\roaming\\code\\user\\globalstorage\\bmd.stm32-for-vscode\\@
 268              		.file 4 "Drivers/CMSIS/Device/ST/STM32L4xx/Include/stm32l4p5xx.h"
 269              		.file 5 "Drivers/STM32L4xx_HAL_Driver/Inc/stm32l4xx_hal_def.h"
 270              		.file 6 "Drivers/STM32L4xx_HAL_Driver/Inc/stm32l4xx_hal_gpio.h"
 271              		.file 7 "Drivers/STM32L4xx_HAL_Driver/Inc/stm32l4xx_hal_dma.h"
 272              		.file 8 "Drivers/STM32L4xx_HAL_Driver/Inc/stm32l4xx_hal_uart.h"
 273              		.file 9 "Core/Inc/usart.h"
 274              		.file 10 "Core/Inc/main.h"
ARM GAS  C:\Users\Morroway\AppData\Local\Temp\cce713db.s 			page 9

