ARM GAS  C:\Users\Morroway\AppData\Local\Temp\cc9BPNKJ.s 			page 1


   1              		.cpu cortex-m4
   2              		.arch armv7e-m
   3              		.fpu fpv4-sp-d16
   4              		.eabi_attribute 27, 1
   5              		.eabi_attribute 28, 1
   6              		.eabi_attribute 20, 1
   7              		.eabi_attribute 21, 1
   8              		.eabi_attribute 23, 3
   9              		.eabi_attribute 24, 1
  10              		.eabi_attribute 25, 1
  11              		.eabi_attribute 26, 1
  12              		.eabi_attribute 30, 6
  13              		.eabi_attribute 34, 1
  14              		.eabi_attribute 18, 4
  15              		.file	"ff_gen_drv.c"
  16              		.text
  17              	.Ltext0:
  18              		.cfi_sections	.debug_frame
  19              		.section	.bss.msg_buffer,"aw",%nobits
  20              		.align	2
  23              	msg_buffer:
  24 0000 00000000 		.space	30
  24      00000000 
  24      00000000 
  24      00000000 
  24      00000000 
  25              		.section	.bss.RxBuf,"aw",%nobits
  26              		.align	2
  29              	RxBuf:
  30 0000 00000000 		.space	40
  30      00000000 
  30      00000000 
  30      00000000 
  30      00000000 
  31              		.global	disk
  32              		.section	.bss.disk,"aw",%nobits
  33              		.align	2
  36              	disk:
  37 0000 00000000 		.space	12
  37      00000000 
  37      00000000 
  38              		.section	.text.FATFS_LinkDriverEx,"ax",%progbits
  39              		.align	1
  40              		.global	FATFS_LinkDriverEx
  41              		.syntax unified
  42              		.thumb
  43              		.thumb_func
  45              	FATFS_LinkDriverEx:
  46              	.LFB321:
  47              		.file 1 "Middlewares/Third_Party/FatFs/src/ff_gen_drv.c"
   1:Middlewares/Third_Party/FatFs/src/ff_gen_drv.c **** /**
   2:Middlewares/Third_Party/FatFs/src/ff_gen_drv.c ****   ******************************************************************************
   3:Middlewares/Third_Party/FatFs/src/ff_gen_drv.c ****   * @file    ff_gen_drv.c
   4:Middlewares/Third_Party/FatFs/src/ff_gen_drv.c ****   * @author  MCD Application Team
   5:Middlewares/Third_Party/FatFs/src/ff_gen_drv.c ****   * @brief   FatFs generic low level driver.
   6:Middlewares/Third_Party/FatFs/src/ff_gen_drv.c ****   *****************************************************************************
   7:Middlewares/Third_Party/FatFs/src/ff_gen_drv.c ****   * @attention
ARM GAS  C:\Users\Morroway\AppData\Local\Temp\cc9BPNKJ.s 			page 2


   8:Middlewares/Third_Party/FatFs/src/ff_gen_drv.c ****   *
   9:Middlewares/Third_Party/FatFs/src/ff_gen_drv.c ****   * Copyright (c) 2017 STMicroelectronics. All rights reserved.
  10:Middlewares/Third_Party/FatFs/src/ff_gen_drv.c ****   *
  11:Middlewares/Third_Party/FatFs/src/ff_gen_drv.c ****   * This software component is licensed by ST under BSD 3-Clause license,
  12:Middlewares/Third_Party/FatFs/src/ff_gen_drv.c ****   * the "License"; You may not use this file except in compliance with the
  13:Middlewares/Third_Party/FatFs/src/ff_gen_drv.c ****   * License. You may obtain a copy of the License at:
  14:Middlewares/Third_Party/FatFs/src/ff_gen_drv.c ****   *                       opensource.org/licenses/BSD-3-Clause
  15:Middlewares/Third_Party/FatFs/src/ff_gen_drv.c ****   *
  16:Middlewares/Third_Party/FatFs/src/ff_gen_drv.c ****   ******************************************************************************
  17:Middlewares/Third_Party/FatFs/src/ff_gen_drv.c **** **/
  18:Middlewares/Third_Party/FatFs/src/ff_gen_drv.c **** /* Includes ------------------------------------------------------------------*/
  19:Middlewares/Third_Party/FatFs/src/ff_gen_drv.c **** #include "ff_gen_drv.h"
  20:Middlewares/Third_Party/FatFs/src/ff_gen_drv.c **** 
  21:Middlewares/Third_Party/FatFs/src/ff_gen_drv.c **** /* Private typedef -----------------------------------------------------------*/
  22:Middlewares/Third_Party/FatFs/src/ff_gen_drv.c **** /* Private define ------------------------------------------------------------*/
  23:Middlewares/Third_Party/FatFs/src/ff_gen_drv.c **** /* Private variables ---------------------------------------------------------*/
  24:Middlewares/Third_Party/FatFs/src/ff_gen_drv.c **** Disk_drvTypeDef disk = {{0},{0},{0},0};
  25:Middlewares/Third_Party/FatFs/src/ff_gen_drv.c **** 
  26:Middlewares/Third_Party/FatFs/src/ff_gen_drv.c **** /* Private function prototypes -----------------------------------------------*/
  27:Middlewares/Third_Party/FatFs/src/ff_gen_drv.c **** /* Private functions ---------------------------------------------------------*/
  28:Middlewares/Third_Party/FatFs/src/ff_gen_drv.c **** 
  29:Middlewares/Third_Party/FatFs/src/ff_gen_drv.c **** /**
  30:Middlewares/Third_Party/FatFs/src/ff_gen_drv.c ****   * @brief  Links a compatible diskio driver/lun id and increments the number of active
  31:Middlewares/Third_Party/FatFs/src/ff_gen_drv.c ****   *         linked drivers.
  32:Middlewares/Third_Party/FatFs/src/ff_gen_drv.c ****   * @note   The number of linked drivers (volumes) is up to 10 due to FatFs limits.
  33:Middlewares/Third_Party/FatFs/src/ff_gen_drv.c ****   * @param  drv: pointer to the disk IO Driver structure
  34:Middlewares/Third_Party/FatFs/src/ff_gen_drv.c ****   * @param  path: pointer to the logical drive path
  35:Middlewares/Third_Party/FatFs/src/ff_gen_drv.c ****   * @param  lun : only used for USB Key Disk to add multi-lun management
  36:Middlewares/Third_Party/FatFs/src/ff_gen_drv.c ****             else the parameter must be equal to 0
  37:Middlewares/Third_Party/FatFs/src/ff_gen_drv.c ****   * @retval Returns 0 in case of success, otherwise 1.
  38:Middlewares/Third_Party/FatFs/src/ff_gen_drv.c ****   */
  39:Middlewares/Third_Party/FatFs/src/ff_gen_drv.c **** uint8_t FATFS_LinkDriverEx(const Diskio_drvTypeDef *drv, char *path, uint8_t lun)
  40:Middlewares/Third_Party/FatFs/src/ff_gen_drv.c **** {
  48              		.loc 1 40 1
  49              		.cfi_startproc
  50              		@ args = 0, pretend = 0, frame = 24
  51              		@ frame_needed = 1, uses_anonymous_args = 0
  52              		@ link register save eliminated.
  53 0000 80B4     		push	{r7}
  54              		.cfi_def_cfa_offset 4
  55              		.cfi_offset 7, -4
  56 0002 87B0     		sub	sp, sp, #28
  57              		.cfi_def_cfa_offset 32
  58 0004 00AF     		add	r7, sp, #0
  59              		.cfi_def_cfa_register 7
  60 0006 F860     		str	r0, [r7, #12]
  61 0008 B960     		str	r1, [r7, #8]
  62 000a 1346     		mov	r3, r2
  63 000c FB71     		strb	r3, [r7, #7]
  41:Middlewares/Third_Party/FatFs/src/ff_gen_drv.c ****   uint8_t ret = 1;
  64              		.loc 1 41 11
  65 000e 0123     		movs	r3, #1
  66 0010 FB75     		strb	r3, [r7, #23]
  42:Middlewares/Third_Party/FatFs/src/ff_gen_drv.c ****   uint8_t DiskNum = 0;
  67              		.loc 1 42 11
  68 0012 0023     		movs	r3, #0
  69 0014 BB75     		strb	r3, [r7, #22]
ARM GAS  C:\Users\Morroway\AppData\Local\Temp\cc9BPNKJ.s 			page 3


  43:Middlewares/Third_Party/FatFs/src/ff_gen_drv.c **** 
  44:Middlewares/Third_Party/FatFs/src/ff_gen_drv.c ****   if(disk.nbr < _VOLUMES)
  70              		.loc 1 44 10
  71 0016 1F4B     		ldr	r3, .L4
  72 0018 5B7A     		ldrb	r3, [r3, #9]
  73 001a DBB2     		uxtb	r3, r3
  74              		.loc 1 44 5
  75 001c 002B     		cmp	r3, #0
  76 001e 31D1     		bne	.L2
  45:Middlewares/Third_Party/FatFs/src/ff_gen_drv.c ****   {
  46:Middlewares/Third_Party/FatFs/src/ff_gen_drv.c ****     disk.is_initialized[disk.nbr] = 0;
  77              		.loc 1 46 29
  78 0020 1C4B     		ldr	r3, .L4
  79 0022 5B7A     		ldrb	r3, [r3, #9]
  80 0024 DBB2     		uxtb	r3, r3
  81 0026 1A46     		mov	r2, r3
  82              		.loc 1 46 35
  83 0028 1A4B     		ldr	r3, .L4
  84 002a 0021     		movs	r1, #0
  85 002c 9954     		strb	r1, [r3, r2]
  47:Middlewares/Third_Party/FatFs/src/ff_gen_drv.c ****     disk.drv[disk.nbr] = drv;
  86              		.loc 1 47 18
  87 002e 194B     		ldr	r3, .L4
  88 0030 5B7A     		ldrb	r3, [r3, #9]
  89 0032 DBB2     		uxtb	r3, r3
  90              		.loc 1 47 24
  91 0034 174A     		ldr	r2, .L4
  92 0036 9B00     		lsls	r3, r3, #2
  93 0038 1344     		add	r3, r3, r2
  94 003a FA68     		ldr	r2, [r7, #12]
  95 003c 5A60     		str	r2, [r3, #4]
  48:Middlewares/Third_Party/FatFs/src/ff_gen_drv.c ****     disk.lun[disk.nbr] = lun;
  96              		.loc 1 48 18
  97 003e 154B     		ldr	r3, .L4
  98 0040 5B7A     		ldrb	r3, [r3, #9]
  99 0042 DBB2     		uxtb	r3, r3
 100 0044 1A46     		mov	r2, r3
 101              		.loc 1 48 24
 102 0046 134B     		ldr	r3, .L4
 103 0048 1344     		add	r3, r3, r2
 104 004a FA79     		ldrb	r2, [r7, #7]
 105 004c 1A72     		strb	r2, [r3, #8]
  49:Middlewares/Third_Party/FatFs/src/ff_gen_drv.c ****     DiskNum = disk.nbr++;
 106              		.loc 1 49 19
 107 004e 114B     		ldr	r3, .L4
 108 0050 5B7A     		ldrb	r3, [r3, #9]
 109 0052 DBB2     		uxtb	r3, r3
 110              		.loc 1 49 23
 111 0054 5A1C     		adds	r2, r3, #1
 112 0056 D1B2     		uxtb	r1, r2
 113 0058 0E4A     		ldr	r2, .L4
 114 005a 5172     		strb	r1, [r2, #9]
 115              		.loc 1 49 13
 116 005c BB75     		strb	r3, [r7, #22]
  50:Middlewares/Third_Party/FatFs/src/ff_gen_drv.c ****     path[0] = DiskNum + '0';
 117              		.loc 1 50 23
 118 005e BB7D     		ldrb	r3, [r7, #22]
ARM GAS  C:\Users\Morroway\AppData\Local\Temp\cc9BPNKJ.s 			page 4


 119 0060 3033     		adds	r3, r3, #48
 120 0062 DAB2     		uxtb	r2, r3
 121              		.loc 1 50 13
 122 0064 BB68     		ldr	r3, [r7, #8]
 123 0066 1A70     		strb	r2, [r3]
  51:Middlewares/Third_Party/FatFs/src/ff_gen_drv.c ****     path[1] = ':';
 124              		.loc 1 51 9
 125 0068 BB68     		ldr	r3, [r7, #8]
 126 006a 0133     		adds	r3, r3, #1
 127              		.loc 1 51 13
 128 006c 3A22     		movs	r2, #58
 129 006e 1A70     		strb	r2, [r3]
  52:Middlewares/Third_Party/FatFs/src/ff_gen_drv.c ****     path[2] = '/';
 130              		.loc 1 52 9
 131 0070 BB68     		ldr	r3, [r7, #8]
 132 0072 0233     		adds	r3, r3, #2
 133              		.loc 1 52 13
 134 0074 2F22     		movs	r2, #47
 135 0076 1A70     		strb	r2, [r3]
  53:Middlewares/Third_Party/FatFs/src/ff_gen_drv.c ****     path[3] = 0;
 136              		.loc 1 53 9
 137 0078 BB68     		ldr	r3, [r7, #8]
 138 007a 0333     		adds	r3, r3, #3
 139              		.loc 1 53 13
 140 007c 0022     		movs	r2, #0
 141 007e 1A70     		strb	r2, [r3]
  54:Middlewares/Third_Party/FatFs/src/ff_gen_drv.c ****     ret = 0;
 142              		.loc 1 54 9
 143 0080 0023     		movs	r3, #0
 144 0082 FB75     		strb	r3, [r7, #23]
 145              	.L2:
  55:Middlewares/Third_Party/FatFs/src/ff_gen_drv.c ****   }
  56:Middlewares/Third_Party/FatFs/src/ff_gen_drv.c **** 
  57:Middlewares/Third_Party/FatFs/src/ff_gen_drv.c ****   return ret;
 146              		.loc 1 57 10
 147 0084 FB7D     		ldrb	r3, [r7, #23]	@ zero_extendqisi2
  58:Middlewares/Third_Party/FatFs/src/ff_gen_drv.c **** }
 148              		.loc 1 58 1
 149 0086 1846     		mov	r0, r3
 150 0088 1C37     		adds	r7, r7, #28
 151              		.cfi_def_cfa_offset 4
 152 008a BD46     		mov	sp, r7
 153              		.cfi_def_cfa_register 13
 154              		@ sp needed
 155 008c 5DF8047B 		ldr	r7, [sp], #4
 156              		.cfi_restore 7
 157              		.cfi_def_cfa_offset 0
 158 0090 7047     		bx	lr
 159              	.L5:
 160 0092 00BF     		.align	2
 161              	.L4:
 162 0094 00000000 		.word	disk
 163              		.cfi_endproc
 164              	.LFE321:
 166              		.section	.text.FATFS_LinkDriver,"ax",%progbits
 167              		.align	1
 168              		.global	FATFS_LinkDriver
ARM GAS  C:\Users\Morroway\AppData\Local\Temp\cc9BPNKJ.s 			page 5


 169              		.syntax unified
 170              		.thumb
 171              		.thumb_func
 173              	FATFS_LinkDriver:
 174              	.LFB322:
  59:Middlewares/Third_Party/FatFs/src/ff_gen_drv.c **** 
  60:Middlewares/Third_Party/FatFs/src/ff_gen_drv.c **** /**
  61:Middlewares/Third_Party/FatFs/src/ff_gen_drv.c ****   * @brief  Links a compatible diskio driver and increments the number of active
  62:Middlewares/Third_Party/FatFs/src/ff_gen_drv.c ****   *         linked drivers.
  63:Middlewares/Third_Party/FatFs/src/ff_gen_drv.c ****   * @note   The number of linked drivers (volumes) is up to 10 due to FatFs limits
  64:Middlewares/Third_Party/FatFs/src/ff_gen_drv.c ****   * @param  drv: pointer to the disk IO Driver structure
  65:Middlewares/Third_Party/FatFs/src/ff_gen_drv.c ****   * @param  path: pointer to the logical drive path
  66:Middlewares/Third_Party/FatFs/src/ff_gen_drv.c ****   * @retval Returns 0 in case of success, otherwise 1.
  67:Middlewares/Third_Party/FatFs/src/ff_gen_drv.c ****   */
  68:Middlewares/Third_Party/FatFs/src/ff_gen_drv.c **** uint8_t FATFS_LinkDriver(const Diskio_drvTypeDef *drv, char *path)
  69:Middlewares/Third_Party/FatFs/src/ff_gen_drv.c **** {
 175              		.loc 1 69 1
 176              		.cfi_startproc
 177              		@ args = 0, pretend = 0, frame = 8
 178              		@ frame_needed = 1, uses_anonymous_args = 0
 179 0000 80B5     		push	{r7, lr}
 180              		.cfi_def_cfa_offset 8
 181              		.cfi_offset 7, -8
 182              		.cfi_offset 14, -4
 183 0002 82B0     		sub	sp, sp, #8
 184              		.cfi_def_cfa_offset 16
 185 0004 00AF     		add	r7, sp, #0
 186              		.cfi_def_cfa_register 7
 187 0006 7860     		str	r0, [r7, #4]
 188 0008 3960     		str	r1, [r7]
  70:Middlewares/Third_Party/FatFs/src/ff_gen_drv.c ****   return FATFS_LinkDriverEx(drv, path, 0);
 189              		.loc 1 70 10
 190 000a 0022     		movs	r2, #0
 191 000c 3968     		ldr	r1, [r7]
 192 000e 7868     		ldr	r0, [r7, #4]
 193 0010 FFF7FEFF 		bl	FATFS_LinkDriverEx
 194 0014 0346     		mov	r3, r0
  71:Middlewares/Third_Party/FatFs/src/ff_gen_drv.c **** }
 195              		.loc 1 71 1
 196 0016 1846     		mov	r0, r3
 197 0018 0837     		adds	r7, r7, #8
 198              		.cfi_def_cfa_offset 8
 199 001a BD46     		mov	sp, r7
 200              		.cfi_def_cfa_register 13
 201              		@ sp needed
 202 001c 80BD     		pop	{r7, pc}
 203              		.cfi_endproc
 204              	.LFE322:
 206              		.section	.text.FATFS_UnLinkDriverEx,"ax",%progbits
 207              		.align	1
 208              		.global	FATFS_UnLinkDriverEx
 209              		.syntax unified
 210              		.thumb
 211              		.thumb_func
 213              	FATFS_UnLinkDriverEx:
 214              	.LFB323:
  72:Middlewares/Third_Party/FatFs/src/ff_gen_drv.c **** 
ARM GAS  C:\Users\Morroway\AppData\Local\Temp\cc9BPNKJ.s 			page 6


  73:Middlewares/Third_Party/FatFs/src/ff_gen_drv.c **** /**
  74:Middlewares/Third_Party/FatFs/src/ff_gen_drv.c ****   * @brief  Unlinks a diskio driver and decrements the number of active linked
  75:Middlewares/Third_Party/FatFs/src/ff_gen_drv.c ****   *         drivers.
  76:Middlewares/Third_Party/FatFs/src/ff_gen_drv.c ****   * @param  path: pointer to the logical drive path
  77:Middlewares/Third_Party/FatFs/src/ff_gen_drv.c ****   * @param  lun : not used
  78:Middlewares/Third_Party/FatFs/src/ff_gen_drv.c ****   * @retval Returns 0 in case of success, otherwise 1.
  79:Middlewares/Third_Party/FatFs/src/ff_gen_drv.c ****   */
  80:Middlewares/Third_Party/FatFs/src/ff_gen_drv.c **** uint8_t FATFS_UnLinkDriverEx(char *path, uint8_t lun)
  81:Middlewares/Third_Party/FatFs/src/ff_gen_drv.c **** {
 215              		.loc 1 81 1
 216              		.cfi_startproc
 217              		@ args = 0, pretend = 0, frame = 16
 218              		@ frame_needed = 1, uses_anonymous_args = 0
 219              		@ link register save eliminated.
 220 0000 80B4     		push	{r7}
 221              		.cfi_def_cfa_offset 4
 222              		.cfi_offset 7, -4
 223 0002 85B0     		sub	sp, sp, #20
 224              		.cfi_def_cfa_offset 24
 225 0004 00AF     		add	r7, sp, #0
 226              		.cfi_def_cfa_register 7
 227 0006 7860     		str	r0, [r7, #4]
 228 0008 0B46     		mov	r3, r1
 229 000a FB70     		strb	r3, [r7, #3]
  82:Middlewares/Third_Party/FatFs/src/ff_gen_drv.c ****   uint8_t DiskNum = 0;
 230              		.loc 1 82 11
 231 000c 0023     		movs	r3, #0
 232 000e BB73     		strb	r3, [r7, #14]
  83:Middlewares/Third_Party/FatFs/src/ff_gen_drv.c ****   uint8_t ret = 1;
 233              		.loc 1 83 11
 234 0010 0123     		movs	r3, #1
 235 0012 FB73     		strb	r3, [r7, #15]
  84:Middlewares/Third_Party/FatFs/src/ff_gen_drv.c **** 
  85:Middlewares/Third_Party/FatFs/src/ff_gen_drv.c ****   if(disk.nbr >= 1)
 236              		.loc 1 85 10
 237 0014 154B     		ldr	r3, .L11
 238 0016 5B7A     		ldrb	r3, [r3, #9]
 239 0018 DBB2     		uxtb	r3, r3
 240              		.loc 1 85 5
 241 001a 002B     		cmp	r3, #0
 242 001c 1ED0     		beq	.L9
  86:Middlewares/Third_Party/FatFs/src/ff_gen_drv.c ****   {
  87:Middlewares/Third_Party/FatFs/src/ff_gen_drv.c ****     DiskNum = path[0] - '0';
 243              		.loc 1 87 19
 244 001e 7B68     		ldr	r3, [r7, #4]
 245 0020 1B78     		ldrb	r3, [r3]	@ zero_extendqisi2
 246              		.loc 1 87 13
 247 0022 303B     		subs	r3, r3, #48
 248 0024 BB73     		strb	r3, [r7, #14]
  88:Middlewares/Third_Party/FatFs/src/ff_gen_drv.c ****     if(disk.drv[DiskNum] != 0)
 249              		.loc 1 88 16
 250 0026 BB7B     		ldrb	r3, [r7, #14]	@ zero_extendqisi2
 251 0028 104A     		ldr	r2, .L11
 252 002a 9B00     		lsls	r3, r3, #2
 253 002c 1344     		add	r3, r3, r2
 254 002e 5B68     		ldr	r3, [r3, #4]
 255              		.loc 1 88 7
ARM GAS  C:\Users\Morroway\AppData\Local\Temp\cc9BPNKJ.s 			page 7


 256 0030 002B     		cmp	r3, #0
 257 0032 13D0     		beq	.L9
  89:Middlewares/Third_Party/FatFs/src/ff_gen_drv.c ****     {
  90:Middlewares/Third_Party/FatFs/src/ff_gen_drv.c ****       disk.drv[DiskNum] = 0;
 258              		.loc 1 90 15
 259 0034 BB7B     		ldrb	r3, [r7, #14]	@ zero_extendqisi2
 260              		.loc 1 90 25
 261 0036 0D4A     		ldr	r2, .L11
 262 0038 9B00     		lsls	r3, r3, #2
 263 003a 1344     		add	r3, r3, r2
 264 003c 0022     		movs	r2, #0
 265 003e 5A60     		str	r2, [r3, #4]
  91:Middlewares/Third_Party/FatFs/src/ff_gen_drv.c ****       disk.lun[DiskNum] = 0;
 266              		.loc 1 91 15
 267 0040 BB7B     		ldrb	r3, [r7, #14]	@ zero_extendqisi2
 268              		.loc 1 91 25
 269 0042 0A4A     		ldr	r2, .L11
 270 0044 1344     		add	r3, r3, r2
 271 0046 0022     		movs	r2, #0
 272 0048 1A72     		strb	r2, [r3, #8]
  92:Middlewares/Third_Party/FatFs/src/ff_gen_drv.c ****       disk.nbr--;
 273              		.loc 1 92 11
 274 004a 084B     		ldr	r3, .L11
 275 004c 5B7A     		ldrb	r3, [r3, #9]
 276 004e DBB2     		uxtb	r3, r3
 277              		.loc 1 92 15
 278 0050 013B     		subs	r3, r3, #1
 279 0052 DAB2     		uxtb	r2, r3
 280 0054 054B     		ldr	r3, .L11
 281 0056 5A72     		strb	r2, [r3, #9]
  93:Middlewares/Third_Party/FatFs/src/ff_gen_drv.c ****       ret = 0;
 282              		.loc 1 93 11
 283 0058 0023     		movs	r3, #0
 284 005a FB73     		strb	r3, [r7, #15]
 285              	.L9:
  94:Middlewares/Third_Party/FatFs/src/ff_gen_drv.c ****     }
  95:Middlewares/Third_Party/FatFs/src/ff_gen_drv.c ****   }
  96:Middlewares/Third_Party/FatFs/src/ff_gen_drv.c **** 
  97:Middlewares/Third_Party/FatFs/src/ff_gen_drv.c ****   return ret;
 286              		.loc 1 97 10
 287 005c FB7B     		ldrb	r3, [r7, #15]	@ zero_extendqisi2
  98:Middlewares/Third_Party/FatFs/src/ff_gen_drv.c **** }
 288              		.loc 1 98 1
 289 005e 1846     		mov	r0, r3
 290 0060 1437     		adds	r7, r7, #20
 291              		.cfi_def_cfa_offset 4
 292 0062 BD46     		mov	sp, r7
 293              		.cfi_def_cfa_register 13
 294              		@ sp needed
 295 0064 5DF8047B 		ldr	r7, [sp], #4
 296              		.cfi_restore 7
 297              		.cfi_def_cfa_offset 0
 298 0068 7047     		bx	lr
 299              	.L12:
 300 006a 00BF     		.align	2
 301              	.L11:
 302 006c 00000000 		.word	disk
ARM GAS  C:\Users\Morroway\AppData\Local\Temp\cc9BPNKJ.s 			page 8


 303              		.cfi_endproc
 304              	.LFE323:
 306              		.section	.text.FATFS_UnLinkDriver,"ax",%progbits
 307              		.align	1
 308              		.global	FATFS_UnLinkDriver
 309              		.syntax unified
 310              		.thumb
 311              		.thumb_func
 313              	FATFS_UnLinkDriver:
 314              	.LFB324:
  99:Middlewares/Third_Party/FatFs/src/ff_gen_drv.c **** 
 100:Middlewares/Third_Party/FatFs/src/ff_gen_drv.c **** /**
 101:Middlewares/Third_Party/FatFs/src/ff_gen_drv.c ****   * @brief  Unlinks a diskio driver and decrements the number of active linked
 102:Middlewares/Third_Party/FatFs/src/ff_gen_drv.c ****   *         drivers.
 103:Middlewares/Third_Party/FatFs/src/ff_gen_drv.c ****   * @param  path: pointer to the logical drive path
 104:Middlewares/Third_Party/FatFs/src/ff_gen_drv.c ****   * @retval Returns 0 in case of success, otherwise 1.
 105:Middlewares/Third_Party/FatFs/src/ff_gen_drv.c ****   */
 106:Middlewares/Third_Party/FatFs/src/ff_gen_drv.c **** uint8_t FATFS_UnLinkDriver(char *path)
 107:Middlewares/Third_Party/FatFs/src/ff_gen_drv.c **** {
 315              		.loc 1 107 1
 316              		.cfi_startproc
 317              		@ args = 0, pretend = 0, frame = 8
 318              		@ frame_needed = 1, uses_anonymous_args = 0
 319 0000 80B5     		push	{r7, lr}
 320              		.cfi_def_cfa_offset 8
 321              		.cfi_offset 7, -8
 322              		.cfi_offset 14, -4
 323 0002 82B0     		sub	sp, sp, #8
 324              		.cfi_def_cfa_offset 16
 325 0004 00AF     		add	r7, sp, #0
 326              		.cfi_def_cfa_register 7
 327 0006 7860     		str	r0, [r7, #4]
 108:Middlewares/Third_Party/FatFs/src/ff_gen_drv.c ****   return FATFS_UnLinkDriverEx(path, 0);
 328              		.loc 1 108 10
 329 0008 0021     		movs	r1, #0
 330 000a 7868     		ldr	r0, [r7, #4]
 331 000c FFF7FEFF 		bl	FATFS_UnLinkDriverEx
 332 0010 0346     		mov	r3, r0
 109:Middlewares/Third_Party/FatFs/src/ff_gen_drv.c **** }
 333              		.loc 1 109 1
 334 0012 1846     		mov	r0, r3
 335 0014 0837     		adds	r7, r7, #8
 336              		.cfi_def_cfa_offset 8
 337 0016 BD46     		mov	sp, r7
 338              		.cfi_def_cfa_register 13
 339              		@ sp needed
 340 0018 80BD     		pop	{r7, pc}
 341              		.cfi_endproc
 342              	.LFE324:
 344              		.section	.text.FATFS_GetAttachedDriversNbr,"ax",%progbits
 345              		.align	1
 346              		.global	FATFS_GetAttachedDriversNbr
 347              		.syntax unified
 348              		.thumb
 349              		.thumb_func
 351              	FATFS_GetAttachedDriversNbr:
 352              	.LFB325:
ARM GAS  C:\Users\Morroway\AppData\Local\Temp\cc9BPNKJ.s 			page 9


 110:Middlewares/Third_Party/FatFs/src/ff_gen_drv.c **** 
 111:Middlewares/Third_Party/FatFs/src/ff_gen_drv.c **** /**
 112:Middlewares/Third_Party/FatFs/src/ff_gen_drv.c ****   * @brief  Gets number of linked drivers to the FatFs module.
 113:Middlewares/Third_Party/FatFs/src/ff_gen_drv.c ****   * @param  None
 114:Middlewares/Third_Party/FatFs/src/ff_gen_drv.c ****   * @retval Number of attached drivers.
 115:Middlewares/Third_Party/FatFs/src/ff_gen_drv.c ****   */
 116:Middlewares/Third_Party/FatFs/src/ff_gen_drv.c **** uint8_t FATFS_GetAttachedDriversNbr(void)
 117:Middlewares/Third_Party/FatFs/src/ff_gen_drv.c **** {
 353              		.loc 1 117 1
 354              		.cfi_startproc
 355              		@ args = 0, pretend = 0, frame = 0
 356              		@ frame_needed = 1, uses_anonymous_args = 0
 357              		@ link register save eliminated.
 358 0000 80B4     		push	{r7}
 359              		.cfi_def_cfa_offset 4
 360              		.cfi_offset 7, -4
 361 0002 00AF     		add	r7, sp, #0
 362              		.cfi_def_cfa_register 7
 118:Middlewares/Third_Party/FatFs/src/ff_gen_drv.c ****   return disk.nbr;
 363              		.loc 1 118 14
 364 0004 034B     		ldr	r3, .L17
 365 0006 5B7A     		ldrb	r3, [r3, #9]
 366 0008 DBB2     		uxtb	r3, r3
 119:Middlewares/Third_Party/FatFs/src/ff_gen_drv.c **** }
 367              		.loc 1 119 1
 368 000a 1846     		mov	r0, r3
 369 000c BD46     		mov	sp, r7
 370              		.cfi_def_cfa_register 13
 371              		@ sp needed
 372 000e 5DF8047B 		ldr	r7, [sp], #4
 373              		.cfi_restore 7
 374              		.cfi_def_cfa_offset 0
 375 0012 7047     		bx	lr
 376              	.L18:
 377              		.align	2
 378              	.L17:
 379 0014 00000000 		.word	disk
 380              		.cfi_endproc
 381              	.LFE325:
 383              		.text
 384              	.Letext0:
 385              		.file 2 "Middlewares/Third_Party/FatFs/src/integer.h"
 386              		.file 3 "Middlewares/Third_Party/FatFs/src/diskio.h"
 387              		.file 4 "c:\\users\\morroway\\appdata\\roaming\\code\\user\\globalstorage\\bmd.stm32-for-vscode\\@
 388              		.file 5 "c:\\users\\morroway\\appdata\\roaming\\code\\user\\globalstorage\\bmd.stm32-for-vscode\\@
 389              		.file 6 "Core/Inc/main.h"
 390              		.file 7 "Middlewares/Third_Party/FatFs/src/ff_gen_drv.h"
ARM GAS  C:\Users\Morroway\AppData\Local\Temp\cc9BPNKJ.s 			page 10

