ARM GAS  C:\Users\Morroway\AppData\Local\Temp\cchw5OoZ.s 			page 1


   1              		.cpu cortex-m4
   2              		.arch armv7e-m
   3              		.fpu fpv4-sp-d16
   4              		.eabi_attribute 27, 1
   5              		.eabi_attribute 28, 1
   6              		.eabi_attribute 20, 1
   7              		.eabi_attribute 21, 1
   8              		.eabi_attribute 23, 3
   9              		.eabi_attribute 24, 1
  10              		.eabi_attribute 25, 1
  11              		.eabi_attribute 26, 1
  12              		.eabi_attribute 30, 1
  13              		.eabi_attribute 34, 1
  14              		.eabi_attribute 18, 4
  15              		.file	"Functions.c"
  16              		.text
  17              	.Ltext0:
  18              		.cfi_sections	.debug_frame
  19              		.section	.text.DelayMicrosecond,"ax",%progbits
  20              		.align	1
  21              		.global	DelayMicrosecond
  22              		.syntax unified
  23              		.thumb
  24              		.thumb_func
  26              	DelayMicrosecond:
  27              	.LVL0:
  28              	.LFB321:
  29              		.file 1 "Core/Src/Functions.c"
   1:Core/Src/Functions.c **** #include "Functions.h"
   2:Core/Src/Functions.c **** 
   3:Core/Src/Functions.c **** void DelayMicrosecond(TIM_HandleTypeDef *timer, uint8_t time)
   4:Core/Src/Functions.c **** {
  30              		.loc 1 4 1 view -0
  31              		.cfi_startproc
  32              		@ args = 0, pretend = 0, frame = 0
  33              		@ frame_needed = 0, uses_anonymous_args = 0
  34              		@ link register save eliminated.
   5:Core/Src/Functions.c ****     __HAL_TIM_SET_COUNTER(timer,0);
  35              		.loc 1 5 5 view .LVU1
  36 0000 0368     		ldr	r3, [r0]
  37 0002 0022     		movs	r2, #0
  38 0004 5A62     		str	r2, [r3, #36]
   6:Core/Src/Functions.c **** 	while (__HAL_TIM_GET_COUNTER(timer) < time);
  39              		.loc 1 6 2 view .LVU2
  40              	.L2:
  41              		.loc 1 6 38 discriminator 1 view .LVU3
  42              		.loc 1 6 9 is_stmt 0 discriminator 1 view .LVU4
  43 0006 0368     		ldr	r3, [r0]
  44 0008 5B6A     		ldr	r3, [r3, #36]
  45              		.loc 1 6 38 discriminator 1 view .LVU5
  46 000a 8B42     		cmp	r3, r1
  47 000c FBD3     		bcc	.L2
   7:Core/Src/Functions.c **** }
  48              		.loc 1 7 1 view .LVU6
  49 000e 7047     		bx	lr
  50              		.cfi_endproc
  51              	.LFE321:
ARM GAS  C:\Users\Morroway\AppData\Local\Temp\cchw5OoZ.s 			page 2


  53              		.section	.text.SelectDriver,"ax",%progbits
  54              		.align	1
  55              		.global	SelectDriver
  56              		.syntax unified
  57              		.thumb
  58              		.thumb_func
  60              	SelectDriver:
  61              	.LVL1:
  62              	.LFB322:
   8:Core/Src/Functions.c **** void SelectDriver(uint8_t axis)
   9:Core/Src/Functions.c **** {
  63              		.loc 1 9 1 is_stmt 1 view -0
  64              		.cfi_startproc
  65              		@ args = 0, pretend = 0, frame = 0
  66              		@ frame_needed = 0, uses_anonymous_args = 0
  67              		.loc 1 9 1 is_stmt 0 view .LVU8
  68 0000 10B5     		push	{r4, lr}
  69              		.cfi_def_cfa_offset 8
  70              		.cfi_offset 4, -8
  71              		.cfi_offset 14, -4
  10:Core/Src/Functions.c ****     switch(axis)
  72              		.loc 1 10 5 is_stmt 1 view .LVU9
  73 0002 0328     		cmp	r0, #3
  74 0004 0ED8     		bhi	.L3
  75 0006 DFE800F0 		tbb	[pc, r0]
  76              	.L6:
  77 000a 02       		.byte	(.L9-.L6)/2
  78 000b 0E       		.byte	(.L8-.L6)/2
  79 000c 1A       		.byte	(.L7-.L6)/2
  80 000d 26       		.byte	(.L5-.L6)/2
  81              		.p2align 1
  82              	.L9:
  11:Core/Src/Functions.c ****     {
  12:Core/Src/Functions.c ****         case X_AXIS:
  13:Core/Src/Functions.c ****             WRITE_PIN(MPLX_PIN_A, 0);
  83              		.loc 1 13 13 view .LVU10
  84 000e 184C     		ldr	r4, .L12
  85 0010 0022     		movs	r2, #0
  86 0012 4021     		movs	r1, #64
  87 0014 2046     		mov	r0, r4
  88              	.LVL2:
  89              		.loc 1 13 13 is_stmt 0 view .LVU11
  90 0016 FFF7FEFF 		bl	HAL_GPIO_WritePin
  91              	.LVL3:
  14:Core/Src/Functions.c ****             WRITE_PIN(MPLX_PIN_B, 0);
  92              		.loc 1 14 13 is_stmt 1 view .LVU12
  93 001a 0022     		movs	r2, #0
  94 001c 8021     		movs	r1, #128
  95 001e 2046     		mov	r0, r4
  96 0020 FFF7FEFF 		bl	HAL_GPIO_WritePin
  97              	.LVL4:
  15:Core/Src/Functions.c ****             break;
  98              		.loc 1 15 13 view .LVU13
  99              	.L3:
  16:Core/Src/Functions.c ****         case Y_AXIS:
  17:Core/Src/Functions.c ****             WRITE_PIN(MPLX_PIN_A, 1);
  18:Core/Src/Functions.c ****             WRITE_PIN(MPLX_PIN_B, 0);
ARM GAS  C:\Users\Morroway\AppData\Local\Temp\cchw5OoZ.s 			page 3


  19:Core/Src/Functions.c ****             break;
  20:Core/Src/Functions.c ****         case E_AXIS:
  21:Core/Src/Functions.c ****             WRITE_PIN(MPLX_PIN_A, 0);
  22:Core/Src/Functions.c ****             WRITE_PIN(MPLX_PIN_B, 1);
  23:Core/Src/Functions.c ****             break;
  24:Core/Src/Functions.c ****         case Z_AXIS:
  25:Core/Src/Functions.c ****             WRITE_PIN(MPLX_PIN_A, 1);
  26:Core/Src/Functions.c ****             WRITE_PIN(MPLX_PIN_B, 1);
  27:Core/Src/Functions.c ****             break;
  28:Core/Src/Functions.c ****     }
  29:Core/Src/Functions.c **** }
 100              		.loc 1 29 1 is_stmt 0 view .LVU14
 101 0024 10BD     		pop	{r4, pc}
 102              	.LVL5:
 103              	.L8:
  17:Core/Src/Functions.c ****             WRITE_PIN(MPLX_PIN_B, 0);
 104              		.loc 1 17 13 is_stmt 1 view .LVU15
 105 0026 124C     		ldr	r4, .L12
 106 0028 0122     		movs	r2, #1
 107 002a 4021     		movs	r1, #64
 108 002c 2046     		mov	r0, r4
 109              	.LVL6:
  17:Core/Src/Functions.c ****             WRITE_PIN(MPLX_PIN_B, 0);
 110              		.loc 1 17 13 is_stmt 0 view .LVU16
 111 002e FFF7FEFF 		bl	HAL_GPIO_WritePin
 112              	.LVL7:
  18:Core/Src/Functions.c ****             break;
 113              		.loc 1 18 13 is_stmt 1 view .LVU17
 114 0032 0022     		movs	r2, #0
 115 0034 8021     		movs	r1, #128
 116 0036 2046     		mov	r0, r4
 117 0038 FFF7FEFF 		bl	HAL_GPIO_WritePin
 118              	.LVL8:
  19:Core/Src/Functions.c ****         case E_AXIS:
 119              		.loc 1 19 13 view .LVU18
 120 003c F2E7     		b	.L3
 121              	.LVL9:
 122              	.L7:
  21:Core/Src/Functions.c ****             WRITE_PIN(MPLX_PIN_B, 1);
 123              		.loc 1 21 13 view .LVU19
 124 003e 0C4C     		ldr	r4, .L12
 125 0040 0022     		movs	r2, #0
 126 0042 4021     		movs	r1, #64
 127 0044 2046     		mov	r0, r4
 128              	.LVL10:
  21:Core/Src/Functions.c ****             WRITE_PIN(MPLX_PIN_B, 1);
 129              		.loc 1 21 13 is_stmt 0 view .LVU20
 130 0046 FFF7FEFF 		bl	HAL_GPIO_WritePin
 131              	.LVL11:
  22:Core/Src/Functions.c ****             break;
 132              		.loc 1 22 13 is_stmt 1 view .LVU21
 133 004a 0122     		movs	r2, #1
 134 004c 8021     		movs	r1, #128
 135 004e 2046     		mov	r0, r4
 136 0050 FFF7FEFF 		bl	HAL_GPIO_WritePin
 137              	.LVL12:
  23:Core/Src/Functions.c ****         case Z_AXIS:
ARM GAS  C:\Users\Morroway\AppData\Local\Temp\cchw5OoZ.s 			page 4


 138              		.loc 1 23 13 view .LVU22
 139 0054 E6E7     		b	.L3
 140              	.LVL13:
 141              	.L5:
  25:Core/Src/Functions.c ****             WRITE_PIN(MPLX_PIN_B, 1);
 142              		.loc 1 25 13 view .LVU23
 143 0056 064C     		ldr	r4, .L12
 144 0058 0122     		movs	r2, #1
 145 005a 4021     		movs	r1, #64
 146 005c 2046     		mov	r0, r4
 147              	.LVL14:
  25:Core/Src/Functions.c ****             WRITE_PIN(MPLX_PIN_B, 1);
 148              		.loc 1 25 13 is_stmt 0 view .LVU24
 149 005e FFF7FEFF 		bl	HAL_GPIO_WritePin
 150              	.LVL15:
  26:Core/Src/Functions.c ****             break;
 151              		.loc 1 26 13 is_stmt 1 view .LVU25
 152 0062 0122     		movs	r2, #1
 153 0064 8021     		movs	r1, #128
 154 0066 2046     		mov	r0, r4
 155 0068 FFF7FEFF 		bl	HAL_GPIO_WritePin
 156              	.LVL16:
  27:Core/Src/Functions.c ****     }
 157              		.loc 1 27 13 view .LVU26
 158              		.loc 1 29 1 is_stmt 0 view .LVU27
 159 006c DAE7     		b	.L3
 160              	.L13:
 161 006e 00BF     		.align	2
 162              	.L12:
 163 0070 00140048 		.word	1207964672
 164              		.cfi_endproc
 165              	.LFE322:
 167              		.global	__aeabi_i2d
 168              		.global	__aeabi_dmul
 169              		.global	__aeabi_dsub
 170              		.global	__aeabi_ddiv
 171              		.global	__aeabi_dadd
 172              		.section	.text.GetTemperature,"ax",%progbits
 173              		.align	1
 174              		.global	GetTemperature
 175              		.syntax unified
 176              		.thumb
 177              		.thumb_func
 179              	GetTemperature:
 180              	.LVL17:
 181              	.LFB323:
  30:Core/Src/Functions.c **** 
  31:Core/Src/Functions.c **** double GetTemperature(uint8_t adc, uint16_t value)
  32:Core/Src/Functions.c **** {
 182              		.loc 1 32 1 is_stmt 1 view -0
 183              		.cfi_startproc
 184              		@ args = 0, pretend = 0, frame = 0
 185              		@ frame_needed = 0, uses_anonymous_args = 0
  33:Core/Src/Functions.c ****     double resistance, val;
 186              		.loc 1 33 5 view .LVU29
  34:Core/Src/Functions.c ****     switch (adc)
 187              		.loc 1 34 5 view .LVU30
ARM GAS  C:\Users\Morroway\AppData\Local\Temp\cchw5OoZ.s 			page 5


 188 0000 0128     		cmp	r0, #1
 189 0002 00D0     		beq	.L20
  35:Core/Src/Functions.c ****     {
  36:Core/Src/Functions.c ****         case ADC_HOT_END:
  37:Core/Src/Functions.c ****             val = (ADC_VOLTAGE/ADC_SAMPLING)*value;
  38:Core/Src/Functions.c ****             resistance = val/((ADC_VOLTAGE-val)/HOT_END_RESISTANCE);
  39:Core/Src/Functions.c ****             return 1/(HOT_END_THERM_A+HOT_END_THERM_B*log(resistance)+HOT_END_THERM_C*pow(log(resis
  40:Core/Src/Functions.c ****             break;
 190              		.loc 1 40 13 view .LVU31
  41:Core/Src/Functions.c ****     }
  42:Core/Src/Functions.c **** }...
 191              		.loc 1 42 1 is_stmt 0 view .LVU32
 192 0004 7047     		bx	lr
 193              	.L20:
  32:Core/Src/Functions.c **** {
 194              		.loc 1 32 1 view .LVU33
 195 0006 38B5     		push	{r3, r4, r5, lr}
 196              		.cfi_def_cfa_offset 16
 197              		.cfi_offset 3, -16
 198              		.cfi_offset 4, -12
 199              		.cfi_offset 5, -8
 200              		.cfi_offset 14, -4
 201 0008 2DED028B 		vpush.64	{d8}
 202              		.cfi_def_cfa_offset 24
 203              		.cfi_offset 80, -24
 204              		.cfi_offset 81, -20
  37:Core/Src/Functions.c ****             val = (ADC_VOLTAGE/ADC_SAMPLING)*value;
 205              		.loc 1 37 13 is_stmt 1 view .LVU34
  37:Core/Src/Functions.c ****             val = (ADC_VOLTAGE/ADC_SAMPLING)*value;
 206              		.loc 1 37 45 is_stmt 0 view .LVU35
 207 000c 0846     		mov	r0, r1
 208              	.LVL18:
  37:Core/Src/Functions.c ****             val = (ADC_VOLTAGE/ADC_SAMPLING)*value;
 209              		.loc 1 37 45 view .LVU36
 210 000e FFF7FEFF 		bl	__aeabi_i2d
 211              	.LVL19:
  37:Core/Src/Functions.c ****             val = (ADC_VOLTAGE/ADC_SAMPLING)*value;
 212              		.loc 1 37 17 view .LVU37
 213 0012 30A3     		adr	r3, .L21+20
 214 0014 D3E90023 		ldrd	r2, [r3]
 215 0018 FFF7FEFF 		bl	__aeabi_dmul
 216              	.LVL20:
 217 001c 0446     		mov	r4, r0
 218 001e 0D46     		mov	r5, r1
 219              	.LVL21:
  38:Core/Src/Functions.c ****             resistance = val/((ADC_VOLTAGE-val)/HOT_END_RESISTANCE);
 220              		.loc 1 38 13 is_stmt 1 view .LVU38
  38:Core/Src/Functions.c ****             resistance = val/((ADC_VOLTAGE-val)/HOT_END_RESISTANCE);
 221              		.loc 1 38 43 is_stmt 0 view .LVU39
 222 0020 0246     		mov	r2, r0
 223 0022 0B46     		mov	r3, r1
 224 0024 2DA1     		adr	r1, .L21+28
 225 0026 D1E90001 		ldrd	r0, [r1]
 226 002a FFF7FEFF 		bl	__aeabi_dsub
 227              	.LVL22:
  38:Core/Src/Functions.c ****             resistance = val/((ADC_VOLTAGE-val)/HOT_END_RESISTANCE);
 228              		.loc 1 38 48 view .LVU40
ARM GAS  C:\Users\Morroway\AppData\Local\Temp\cchw5OoZ.s 			page 6


 229 002e 2DA3     		adr	r3, .L21+36
 230 0030 D3E90023 		ldrd	r2, [r3]
 231 0034 FFF7FEFF 		bl	__aeabi_ddiv
 232              	.LVL23:
 233 0038 0246     		mov	r2, r0
 234 003a 0B46     		mov	r3, r1
  38:Core/Src/Functions.c ****             resistance = val/((ADC_VOLTAGE-val)/HOT_END_RESISTANCE);
 235              		.loc 1 38 24 view .LVU41
 236 003c 2046     		mov	r0, r4
 237 003e 2946     		mov	r1, r5
 238 0040 FFF7FEFF 		bl	__aeabi_ddiv
 239              	.LVL24:
 240 0044 41EC180B 		vmov	d8, r0, r1
 241              	.LVL25:
  39:Core/Src/Functions.c ****             return 1/(HOT_END_THERM_A+HOT_END_THERM_B*log(resistance)+HOT_END_THERM_C*pow(log(resis
 242              		.loc 1 39 13 is_stmt 1 view .LVU42
  39:Core/Src/Functions.c ****             return 1/(HOT_END_THERM_A+HOT_END_THERM_B*log(resistance)+HOT_END_THERM_C*pow(log(resis
 243              		.loc 1 39 55 is_stmt 0 view .LVU43
 244 0048 41EC100B 		vmov	d0, r0, r1
 245 004c FFF7FEFF 		bl	log
 246              	.LVL26:
  39:Core/Src/Functions.c ****             return 1/(HOT_END_THERM_A+HOT_END_THERM_B*log(resistance)+HOT_END_THERM_C*pow(log(resis
 247              		.loc 1 39 55 view .LVU44
 248 0050 51EC100B 		vmov	r0, r1, d0
  39:Core/Src/Functions.c ****             return 1/(HOT_END_THERM_A+HOT_END_THERM_B*log(resistance)+HOT_END_THERM_C*pow(log(resis
 249              		.loc 1 39 54 view .LVU45
 250 0054 25A3     		adr	r3, .L21+44
 251 0056 D3E90023 		ldrd	r2, [r3]
 252 005a FFF7FEFF 		bl	__aeabi_dmul
 253              	.LVL27:
  39:Core/Src/Functions.c ****             return 1/(HOT_END_THERM_A+HOT_END_THERM_B*log(resistance)+HOT_END_THERM_C*pow(log(resis
 254              		.loc 1 39 38 view .LVU46
 255 005e 25A3     		adr	r3, .L21+52
 256 0060 D3E90023 		ldrd	r2, [r3]
 257 0064 FFF7FEFF 		bl	__aeabi_dadd
 258              	.LVL28:
 259 0068 0446     		mov	r4, r0
 260              	.LVL29:
  39:Core/Src/Functions.c ****             return 1/(HOT_END_THERM_A+HOT_END_THERM_B*log(resistance)+HOT_END_THERM_C*pow(log(resis
 261              		.loc 1 39 38 view .LVU47
 262 006a 0D46     		mov	r5, r1
  39:Core/Src/Functions.c ****             return 1/(HOT_END_THERM_A+HOT_END_THERM_B*log(resistance)+HOT_END_THERM_C*pow(log(resis
 263              		.loc 1 39 87 view .LVU48
 264 006c B0EE480A 		vmov.f32	s0, s16
 265 0070 F0EE680A 		vmov.f32	s1, s17
 266 0074 FFF7FEFF 		bl	log
 267              	.LVL30:
 268 0078 9FED111B 		vldr.64	d1, .L21
 269 007c FFF7FEFF 		bl	pow
 270              	.LVL31:
 271 0080 51EC100B 		vmov	r0, r1, d0
  39:Core/Src/Functions.c ****             return 1/(HOT_END_THERM_A+HOT_END_THERM_B*log(resistance)+HOT_END_THERM_C*pow(log(resis
 272              		.loc 1 39 86 view .LVU49
 273 0084 1DA3     		adr	r3, .L21+60
 274 0086 D3E90023 		ldrd	r2, [r3]
 275 008a FFF7FEFF 		bl	__aeabi_dmul
 276              	.LVL32:
ARM GAS  C:\Users\Morroway\AppData\Local\Temp\cchw5OoZ.s 			page 7


 277 008e 0246     		mov	r2, r0
 278 0090 0B46     		mov	r3, r1
  39:Core/Src/Functions.c ****             return 1/(HOT_END_THERM_A+HOT_END_THERM_B*log(resistance)+HOT_END_THERM_C*pow(log(resis
 279              		.loc 1 39 70 view .LVU50
 280 0092 2046     		mov	r0, r4
 281 0094 2946     		mov	r1, r5
 282 0096 FFF7FEFF 		bl	__aeabi_dadd
 283              	.LVL33:
 284 009a 0246     		mov	r2, r0
 285 009c 0B46     		mov	r3, r1
  39:Core/Src/Functions.c ****             return 1/(HOT_END_THERM_A+HOT_END_THERM_B*log(resistance)+HOT_END_THERM_C*pow(log(resis
 286              		.loc 1 39 21 view .LVU51
 287 009e 0020     		movs	r0, #0
 288 00a0 0B49     		ldr	r1, .L21+16
 289 00a2 FFF7FEFF 		bl	__aeabi_ddiv
 290              	.LVL34:
  39:Core/Src/Functions.c ****             return 1/(HOT_END_THERM_A+HOT_END_THERM_B*log(resistance)+HOT_END_THERM_C*pow(log(resis
 291              		.loc 1 39 110 view .LVU52
 292 00a6 08A3     		adr	r3, .L21+8
 293 00a8 D3E90023 		ldrd	r2, [r3]
 294 00ac FFF7FEFF 		bl	__aeabi_dsub
 295              	.LVL35:
 296 00b0 41EC100B 		vmov	d0, r0, r1
 297              		.loc 1 42 1 view .LVU53
 298 00b4 BDEC028B 		vldm	sp!, {d8}
 299              		.cfi_restore 80
 300              		.cfi_restore 81
 301              		.cfi_def_cfa_offset 16
 302              	.LVL36:
 303              		.loc 1 42 1 view .LVU54
 304 00b8 38BD     		pop	{r3, r4, r5, pc}
 305              	.L22:
 306 00ba 00BFAFF3 		.align	3
 306      0080
 307              	.L21:
 308 00c0 00000000 		.word	0
 309 00c4 00000840 		.word	1074266112
 310 00c8 66666666 		.word	1717986918
 311 00cc 66027140 		.word	1081148006
 312 00d0 0000F03F 		.word	1072693248
 313 00d4 66666666 		.word	1717986918
 314 00d8 66660A3F 		.word	1057646182
 315 00dc 66666666 		.word	1717986918
 316 00e0 66660A40 		.word	1074423398
 317 00e4 00000000 		.word	0
 318 00e8 0088C340 		.word	1086556160
 319 00ec 2829B000 		.word	11544872
 320 00f0 A60C2C3F 		.word	1059851430
 321 00f4 A019C407 		.word	130292128
 322 00f8 76FC473F 		.word	1061682294
 323 00fc C1EE20E8 		.word	-400494911
 324 0100 FBB87C3E 		.word	1048361211
 325              		.cfi_endproc
 326              	.LFE323:
 328              		.text
 329              	.Letext0:
 330              		.file 2 "c:\\users\\morroway\\appdata\\roaming\\code\\user\\globalstorage\\bmd.stm32-for-vscode\\@
ARM GAS  C:\Users\Morroway\AppData\Local\Temp\cchw5OoZ.s 			page 8


 331              		.file 3 "c:\\users\\morroway\\appdata\\roaming\\code\\user\\globalstorage\\bmd.stm32-for-vscode\\@
 332              		.file 4 "Drivers/CMSIS/Device/ST/STM32L4xx/Include/stm32l4p5xx.h"
 333              		.file 5 "Drivers/STM32L4xx_HAL_Driver/Inc/stm32l4xx_hal_def.h"
 334              		.file 6 "Drivers/STM32L4xx_HAL_Driver/Inc/stm32l4xx_hal_gpio.h"
 335              		.file 7 "Drivers/STM32L4xx_HAL_Driver/Inc/stm32l4xx_hal_dma.h"
 336              		.file 8 "Drivers/STM32L4xx_HAL_Driver/Inc/stm32l4xx_hal_tim.h"
 337              		.file 9 "c:\\users\\morroway\\appdata\\roaming\\code\\user\\globalstorage\\bmd.stm32-for-vscode\\@
ARM GAS  C:\Users\Morroway\AppData\Local\Temp\cchw5OoZ.s 			page 9

