ARM GAS  C:\Users\Morroway\AppData\Local\Temp\ccMa7pUl.s 			page 1


   1              		.cpu cortex-m4
   2              		.arch armv7e-m
   3              		.fpu fpv4-sp-d16
   4              		.eabi_attribute 27, 1
   5              		.eabi_attribute 28, 1
   6              		.eabi_attribute 20, 1
   7              		.eabi_attribute 21, 1
   8              		.eabi_attribute 23, 3
   9              		.eabi_attribute 24, 1
  10              		.eabi_attribute 25, 1
  11              		.eabi_attribute 26, 1
  12              		.eabi_attribute 30, 6
  13              		.eabi_attribute 34, 1
  14              		.eabi_attribute 18, 4
  15              		.file	"GCodes.c"
  16              		.text
  17              	.Ltext0:
  18              		.cfi_sections	.debug_frame
  19              		.section	.bss.msg_buffer,"aw",%nobits
  20              		.align	2
  23              	msg_buffer:
  24 0000 00000000 		.space	30
  24      00000000 
  24      00000000 
  24      00000000 
  24      00000000 
  25              		.section	.bss.value,"aw",%nobits
  26              		.align	2
  29              	value:
  30 0000 00000000 		.space	12
  30      00000000 
  30      00000000 
  31              		.section	.bss.RxBuf,"aw",%nobits
  32              		.align	2
  35              	RxBuf:
  36 0000 00000000 		.space	20
  36      00000000 
  36      00000000 
  36      00000000 
  36      00000000 
  37              		.section	.text.M105,"ax",%progbits
  38              		.align	1
  39              		.global	M105
  40              		.syntax unified
  41              		.thumb
  42              		.thumb_func
  44              	M105:
  45              	.LFB321:
  46              		.file 1 "Core/Src/GCodes.c"
   1:Core/Src/GCodes.c **** #include "GCodes.h"
   2:Core/Src/GCodes.c **** 
   3:Core/Src/GCodes.c **** void M105(int R, int T)
   4:Core/Src/GCodes.c **** {
  47              		.loc 1 4 1
  48              		.cfi_startproc
  49              		@ args = 0, pretend = 0, frame = 8
  50              		@ frame_needed = 1, uses_anonymous_args = 0
ARM GAS  C:\Users\Morroway\AppData\Local\Temp\ccMa7pUl.s 			page 2


  51 0000 80B5     		push	{r7, lr}
  52              		.cfi_def_cfa_offset 8
  53              		.cfi_offset 7, -8
  54              		.cfi_offset 14, -4
  55 0002 82B0     		sub	sp, sp, #8
  56              		.cfi_def_cfa_offset 16
  57 0004 00AF     		add	r7, sp, #0
  58              		.cfi_def_cfa_register 7
  59 0006 7860     		str	r0, [r7, #4]
  60 0008 3960     		str	r1, [r7]
   5:Core/Src/GCodes.c ****     print();
  61              		.loc 1 5 5
  62 000a FFF7FEFF 		bl	print
   6:Core/Src/GCodes.c **** }
  63              		.loc 1 6 1
  64 000e 00BF     		nop
  65 0010 0837     		adds	r7, r7, #8
  66              		.cfi_def_cfa_offset 8
  67 0012 BD46     		mov	sp, r7
  68              		.cfi_def_cfa_register 13
  69              		@ sp needed
  70 0014 80BD     		pop	{r7, pc}
  71              		.cfi_endproc
  72              	.LFE321:
  74              		.section	.text.M155,"ax",%progbits
  75              		.align	1
  76              		.global	M155
  77              		.syntax unified
  78              		.thumb
  79              		.thumb_func
  81              	M155:
  82              	.LFB322:
   7:Core/Src/GCodes.c **** 
   8:Core/Src/GCodes.c **** int M155(int S)
   9:Core/Src/GCodes.c **** {
  83              		.loc 1 9 1
  84              		.cfi_startproc
  85              		@ args = 0, pretend = 0, frame = 8
  86              		@ frame_needed = 1, uses_anonymous_args = 0
  87              		@ link register save eliminated.
  88 0000 80B4     		push	{r7}
  89              		.cfi_def_cfa_offset 4
  90              		.cfi_offset 7, -4
  91 0002 83B0     		sub	sp, sp, #12
  92              		.cfi_def_cfa_offset 16
  93 0004 00AF     		add	r7, sp, #0
  94              		.cfi_def_cfa_register 7
  95 0006 7860     		str	r0, [r7, #4]
  10:Core/Src/GCodes.c ****     return S*1000;
  96              		.loc 1 10 13
  97 0008 7B68     		ldr	r3, [r7, #4]
  98 000a 4FF47A72 		mov	r2, #1000
  99 000e 02FB03F3 		mul	r3, r2, r3
  11:Core/Src/GCodes.c ****     /*if(S != 0)
  12:Core/Src/GCodes.c ****     {
  13:Core/Src/GCodes.c ****         print();
  14:Core/Src/GCodes.c ****     }*/
ARM GAS  C:\Users\Morroway\AppData\Local\Temp\ccMa7pUl.s 			page 3


  15:Core/Src/GCodes.c **** }...
 100              		.loc 1 15 1
 101 0012 1846     		mov	r0, r3
 102 0014 0C37     		adds	r7, r7, #12
 103              		.cfi_def_cfa_offset 4
 104 0016 BD46     		mov	sp, r7
 105              		.cfi_def_cfa_register 13
 106              		@ sp needed
 107 0018 5DF8047B 		ldr	r7, [sp], #4
 108              		.cfi_restore 7
 109              		.cfi_def_cfa_offset 0
 110 001c 7047     		bx	lr
 111              		.cfi_endproc
 112              	.LFE322:
 114              		.text
 115              	.Letext0:
 116              		.file 2 "c:\\users\\morroway\\appdata\\roaming\\code\\user\\globalstorage\\bmd.stm32-for-vscode\\@
 117              		.file 3 "c:\\users\\morroway\\appdata\\roaming\\code\\user\\globalstorage\\bmd.stm32-for-vscode\\@
 118              		.file 4 "Core/Inc/main.h"
ARM GAS  C:\Users\Morroway\AppData\Local\Temp\ccMa7pUl.s 			page 4

