ARM GAS  C:\Users\Morroway\AppData\Local\Temp\ccmEzGWd.s 			page 1


   1              		.cpu cortex-m4
   2              		.arch armv7e-m
   3              		.fpu fpv4-sp-d16
   4              		.eabi_attribute 27, 1
   5              		.eabi_attribute 28, 1
   6              		.eabi_attribute 20, 1
   7              		.eabi_attribute 21, 1
   8              		.eabi_attribute 23, 3
   9              		.eabi_attribute 24, 1
  10              		.eabi_attribute 25, 1
  11              		.eabi_attribute 26, 1
  12              		.eabi_attribute 30, 6
  13              		.eabi_attribute 34, 1
  14              		.eabi_attribute 18, 4
  15              		.file	"GCodes.c"
  16              		.text
  17              	.Ltext0:
  18              		.cfi_sections	.debug_frame
  19              		.section	.bss.msg_buffer,"aw",%nobits
  20              		.align	2
  23              	msg_buffer:
  24 0000 00000000 		.space	30
  24      00000000 
  24      00000000 
  24      00000000 
  24      00000000 
  25              		.section	.bss.RxBuf,"aw",%nobits
  26              		.align	2
  29              	RxBuf:
  30 0000 00000000 		.space	20
  30      00000000 
  30      00000000 
  30      00000000 
  30      00000000 
  31              		.global	Cur_E
  32              		.section	.bss.Cur_E,"aw",%nobits
  33              		.align	3
  36              	Cur_E:
  37 0000 00000000 		.space	8
  37      00000000 
  38              		.global	Cur_X
  39              		.section	.bss.Cur_X,"aw",%nobits
  40              		.align	3
  43              	Cur_X:
  44 0000 00000000 		.space	8
  44      00000000 
  45              		.global	Cur_Y
  46              		.section	.bss.Cur_Y,"aw",%nobits
  47              		.align	3
  50              	Cur_Y:
  51 0000 00000000 		.space	8
  51      00000000 
  52              		.global	Cur_Z
  53              		.section	.bss.Cur_Z,"aw",%nobits
  54              		.align	3
  57              	Cur_Z:
  58 0000 00000000 		.space	8
ARM GAS  C:\Users\Morroway\AppData\Local\Temp\ccmEzGWd.s 			page 2


  58      00000000 
  59              		.global	Cur_F
  60              		.section	.bss.Cur_F,"aw",%nobits
  61              		.align	1
  64              	Cur_F:
  65 0000 0000     		.space	2
  66              		.global	isRunning
  67              		.section	.bss.isRunning,"aw",%nobits
  70              	isRunning:
  71 0000 00       		.space	1
  72              		.global	last_time_E
  73              		.section	.bss.last_time_E,"aw",%nobits
  74              		.align	2
  77              	last_time_E:
  78 0000 00000000 		.space	4
  79              		.global	last_time_X
  80              		.section	.bss.last_time_X,"aw",%nobits
  81              		.align	2
  84              	last_time_X:
  85 0000 00000000 		.space	4
  86              		.global	last_time_Y
  87              		.section	.bss.last_time_Y,"aw",%nobits
  88              		.align	2
  91              	last_time_Y:
  92 0000 00000000 		.space	4
  93              		.section	.text.M105,"ax",%progbits
  94              		.align	1
  95              		.global	M105
  96              		.syntax unified
  97              		.thumb
  98              		.thumb_func
 100              	M105:
 101              	.LFB321:
 102              		.file 1 "Core/Src/GCodes.c"
   1:Core/Src/GCodes.c **** #include "GCodes.h"
   2:Core/Src/GCodes.c **** 
   3:Core/Src/GCodes.c **** double Cur_E = 0;
   4:Core/Src/GCodes.c **** double Cur_X = 0;
   5:Core/Src/GCodes.c **** double Cur_Y = 0;
   6:Core/Src/GCodes.c **** double Cur_Z = 0;
   7:Core/Src/GCodes.c **** uint16_t Cur_F = 0;
   8:Core/Src/GCodes.c **** bool isRunning = false;
   9:Core/Src/GCodes.c **** uint32_t last_time_E = 0;
  10:Core/Src/GCodes.c **** uint32_t last_time_X = 0;
  11:Core/Src/GCodes.c **** uint32_t last_time_Y = 0;
  12:Core/Src/GCodes.c **** 
  13:Core/Src/GCodes.c **** void M105(uint16_t R, uint16_t T)
  14:Core/Src/GCodes.c **** {
 103              		.loc 1 14 1
 104              		.cfi_startproc
 105              		@ args = 0, pretend = 0, frame = 8
 106              		@ frame_needed = 1, uses_anonymous_args = 0
 107 0000 80B5     		push	{r7, lr}
 108              		.cfi_def_cfa_offset 8
 109              		.cfi_offset 7, -8
 110              		.cfi_offset 14, -4
 111 0002 82B0     		sub	sp, sp, #8
ARM GAS  C:\Users\Morroway\AppData\Local\Temp\ccmEzGWd.s 			page 3


 112              		.cfi_def_cfa_offset 16
 113 0004 00AF     		add	r7, sp, #0
 114              		.cfi_def_cfa_register 7
 115 0006 0346     		mov	r3, r0
 116 0008 0A46     		mov	r2, r1
 117 000a FB80     		strh	r3, [r7, #6]	@ movhi
 118 000c 1346     		mov	r3, r2	@ movhi
 119 000e BB80     		strh	r3, [r7, #4]	@ movhi
  15:Core/Src/GCodes.c ****     print_temperature();
 120              		.loc 1 15 5
 121 0010 FFF7FEFF 		bl	print_temperature
  16:Core/Src/GCodes.c **** #ifdef REDUNDANT_TEMP_SENSOR
  17:Core/Src/GCodes.c ****     if (R != -1)
  18:Core/Src/GCodes.c ****     {
  19:Core/Src/GCodes.c ****     }
  20:Core/Src/GCodes.c **** #endif
  21:Core/Src/GCodes.c **** }
 122              		.loc 1 21 1
 123 0014 00BF     		nop
 124 0016 0837     		adds	r7, r7, #8
 125              		.cfi_def_cfa_offset 8
 126 0018 BD46     		mov	sp, r7
 127              		.cfi_def_cfa_register 13
 128              		@ sp needed
 129 001a 80BD     		pop	{r7, pc}
 130              		.cfi_endproc
 131              	.LFE321:
 133              		.section	.text.M155,"ax",%progbits
 134              		.align	1
 135              		.global	M155
 136              		.syntax unified
 137              		.thumb
 138              		.thumb_func
 140              	M155:
 141              	.LFB322:
  22:Core/Src/GCodes.c **** 
  23:Core/Src/GCodes.c **** uint16_t M155(uint16_t S)
  24:Core/Src/GCodes.c **** {
 142              		.loc 1 24 1
 143              		.cfi_startproc
 144              		@ args = 0, pretend = 0, frame = 8
 145              		@ frame_needed = 1, uses_anonymous_args = 0
 146              		@ link register save eliminated.
 147 0000 80B4     		push	{r7}
 148              		.cfi_def_cfa_offset 4
 149              		.cfi_offset 7, -4
 150 0002 83B0     		sub	sp, sp, #12
 151              		.cfi_def_cfa_offset 16
 152 0004 00AF     		add	r7, sp, #0
 153              		.cfi_def_cfa_register 7
 154 0006 0346     		mov	r3, r0
 155 0008 FB80     		strh	r3, [r7, #6]	@ movhi
  25:Core/Src/GCodes.c ****     return S * 1000;
 156              		.loc 1 25 14
 157 000a FB88     		ldrh	r3, [r7, #6]	@ movhi
 158 000c 1A46     		mov	r2, r3	@ movhi
 159 000e 5201     		lsls	r2, r2, #5
ARM GAS  C:\Users\Morroway\AppData\Local\Temp\ccmEzGWd.s 			page 4


 160 0010 D21A     		subs	r2, r2, r3
 161 0012 9200     		lsls	r2, r2, #2
 162 0014 1344     		add	r3, r3, r2
 163 0016 DB00     		lsls	r3, r3, #3
 164 0018 9BB2     		uxth	r3, r3
  26:Core/Src/GCodes.c **** }
 165              		.loc 1 26 1
 166 001a 1846     		mov	r0, r3
 167 001c 0C37     		adds	r7, r7, #12
 168              		.cfi_def_cfa_offset 4
 169 001e BD46     		mov	sp, r7
 170              		.cfi_def_cfa_register 13
 171              		@ sp needed
 172 0020 5DF8047B 		ldr	r7, [sp], #4
 173              		.cfi_restore 7
 174              		.cfi_def_cfa_offset 0
 175 0024 7047     		bx	lr
 176              		.cfi_endproc
 177              	.LFE322:
 179              		.global	__aeabi_dsub
 180              		.global	__aeabi_ui2d
 181              		.global	__aeabi_ddiv
 182              		.global	__aeabi_dmul
 183              		.global	__aeabi_d2uiz
 184              		.section	.text.G0,"ax",%progbits
 185              		.align	1
 186              		.global	G0
 187              		.syntax unified
 188              		.thumb
 189              		.thumb_func
 191              	G0:
 192              	.LFB323:
  27:Core/Src/GCodes.c **** 
  28:Core/Src/GCodes.c **** void G0()
  29:Core/Src/GCodes.c **** {
 193              		.loc 1 29 1
 194              		.cfi_startproc
 195              		@ args = 0, pretend = 0, frame = 32
 196              		@ frame_needed = 1, uses_anonymous_args = 0
 197 0000 80B5     		push	{r7, lr}
 198              		.cfi_def_cfa_offset 8
 199              		.cfi_offset 7, -8
 200              		.cfi_offset 14, -4
 201 0002 88B0     		sub	sp, sp, #32
 202              		.cfi_def_cfa_offset 40
 203 0004 00AF     		add	r7, sp, #0
 204              		.cfi_def_cfa_register 7
  30:Core/Src/GCodes.c ****     double E_dif = E - Cur_E;
 205              		.loc 1 30 22
 206 0006 3E4B     		ldr	r3, .L5+16
 207 0008 D3E90001 		ldrd	r0, [r3]
 208 000c 3D4B     		ldr	r3, .L5+20
 209 000e D3E90023 		ldrd	r2, [r3]
 210              		.loc 1 30 12
 211 0012 FFF7FEFF 		bl	__aeabi_dsub
 212 0016 0246     		mov	r2, r0
 213 0018 0B46     		mov	r3, r1
ARM GAS  C:\Users\Morroway\AppData\Local\Temp\ccmEzGWd.s 			page 5


 214 001a C7E90623 		strd	r2, [r7, #24]
  31:Core/Src/GCodes.c ****     double X_dif = X - Cur_X;
 215              		.loc 1 31 22
 216 001e 3A4B     		ldr	r3, .L5+24
 217 0020 D3E90001 		ldrd	r0, [r3]
 218 0024 394B     		ldr	r3, .L5+28
 219 0026 D3E90023 		ldrd	r2, [r3]
 220              		.loc 1 31 12
 221 002a FFF7FEFF 		bl	__aeabi_dsub
 222 002e 0246     		mov	r2, r0
 223 0030 0B46     		mov	r3, r1
 224 0032 C7E90423 		strd	r2, [r7, #16]
  32:Core/Src/GCodes.c ****     double Y_dif = Y - Cur_Y;
 225              		.loc 1 32 22
 226 0036 364B     		ldr	r3, .L5+32
 227 0038 D3E90001 		ldrd	r0, [r3]
 228 003c 354B     		ldr	r3, .L5+36
 229 003e D3E90023 		ldrd	r2, [r3]
 230              		.loc 1 32 12
 231 0042 FFF7FEFF 		bl	__aeabi_dsub
 232 0046 0246     		mov	r2, r0
 233 0048 0B46     		mov	r3, r1
 234 004a C7E90223 		strd	r2, [r7, #8]
  33:Core/Src/GCodes.c ****     uint16_t speed = (double)1 / (double)F * (double)60 * E_MM_PER_REV / STEPS_PER_REV * (double)10
 235              		.loc 1 33 34
 236 004e 324B     		ldr	r3, .L5+40
 237 0050 1B88     		ldrh	r3, [r3]
 238 0052 1846     		mov	r0, r3
 239 0054 FFF7FEFF 		bl	__aeabi_ui2d
 240 0058 0246     		mov	r2, r0
 241 005a 0B46     		mov	r3, r1
 242              		.loc 1 33 32
 243 005c 4FF00000 		mov	r0, #0
 244 0060 2E49     		ldr	r1, .L5+44
 245 0062 FFF7FEFF 		bl	__aeabi_ddiv
 246 0066 0246     		mov	r2, r0
 247 0068 0B46     		mov	r3, r1
 248 006a 1046     		mov	r0, r2
 249 006c 1946     		mov	r1, r3
 250              		.loc 1 33 44
 251 006e 4FF00002 		mov	r2, #0
 252 0072 2B4B     		ldr	r3, .L5+48
 253 0074 FFF7FEFF 		bl	__aeabi_dmul
 254 0078 0246     		mov	r2, r0
 255 007a 0B46     		mov	r3, r1
 256 007c 1046     		mov	r0, r2
 257 007e 1946     		mov	r1, r3
 258              		.loc 1 33 57
 259 0080 4FF00002 		mov	r2, #0
 260 0084 274B     		ldr	r3, .L5+52
 261 0086 FFF7FEFF 		bl	__aeabi_dmul
 262 008a 0246     		mov	r2, r0
 263 008c 0B46     		mov	r3, r1
 264 008e 1046     		mov	r0, r2
 265 0090 1946     		mov	r1, r3
 266              		.loc 1 33 72
 267 0092 17A3     		adr	r3, .L5
ARM GAS  C:\Users\Morroway\AppData\Local\Temp\ccmEzGWd.s 			page 6


 268 0094 D3E90023 		ldrd	r2, [r3]
 269 0098 FFF7FEFF 		bl	__aeabi_ddiv
 270 009c 0246     		mov	r2, r0
 271 009e 0B46     		mov	r3, r1
 272 00a0 1046     		mov	r0, r2
 273 00a2 1946     		mov	r1, r3
 274              		.loc 1 33 88
 275 00a4 14A3     		adr	r3, .L5+8
 276 00a6 D3E90023 		ldrd	r2, [r3]
 277 00aa FFF7FEFF 		bl	__aeabi_dmul
 278 00ae 0246     		mov	r2, r0
 279 00b0 0B46     		mov	r3, r1
 280              		.loc 1 33 14
 281 00b2 1046     		mov	r0, r2
 282 00b4 1946     		mov	r1, r3
 283 00b6 FFF7FEFF 		bl	__aeabi_d2uiz
 284 00ba 0346     		mov	r3, r0
 285 00bc FB80     		strh	r3, [r7, #6]	@ movhi
  34:Core/Src/GCodes.c **** 
  35:Core/Src/GCodes.c ****     Move(E_dif, last_time_E, E_AXIS, speed);
 286              		.loc 1 35 5
 287 00be 1A4B     		ldr	r3, .L5+56
 288 00c0 1B68     		ldr	r3, [r3]
 289 00c2 FA88     		ldrh	r2, [r7, #6]
 290 00c4 0221     		movs	r1, #2
 291 00c6 1846     		mov	r0, r3
 292 00c8 97ED060B 		vldr.64	d0, [r7, #24]
 293 00cc FFF7FEFF 		bl	Move
  36:Core/Src/GCodes.c ****     Move(X_dif, last_time_X, X_AXIS, speed);
 294              		.loc 1 36 5
 295 00d0 164B     		ldr	r3, .L5+60
 296 00d2 1B68     		ldr	r3, [r3]
 297 00d4 FA88     		ldrh	r2, [r7, #6]
 298 00d6 0021     		movs	r1, #0
 299 00d8 1846     		mov	r0, r3
 300 00da 97ED040B 		vldr.64	d0, [r7, #16]
 301 00de FFF7FEFF 		bl	Move
  37:Core/Src/GCodes.c **** }
 302              		.loc 1 37 1
 303 00e2 00BF     		nop
 304 00e4 2037     		adds	r7, r7, #32
 305              		.cfi_def_cfa_offset 8
 306 00e6 BD46     		mov	sp, r7
 307              		.cfi_def_cfa_register 13
 308              		@ sp needed
 309 00e8 80BD     		pop	{r7, pc}
 310              	.L6:
 311 00ea 00BFAFF3 		.align	3
 311      0080
 312              	.L5:
 313 00f0 00000000 		.word	0
 314 00f4 00CED240 		.word	1087557120
 315 00f8 00000000 		.word	0
 316 00fc 80842E41 		.word	1093567616
 317 0100 00000000 		.word	E
 318 0104 00000000 		.word	Cur_E
 319 0108 00000000 		.word	X
ARM GAS  C:\Users\Morroway\AppData\Local\Temp\ccmEzGWd.s 			page 7


 320 010c 00000000 		.word	Cur_X
 321 0110 00000000 		.word	Y
 322 0114 00000000 		.word	Cur_Y
 323 0118 00000000 		.word	F
 324 011c 0000F03F 		.word	1072693248
 325 0120 00004E40 		.word	1078853632
 326 0124 00003740 		.word	1077346304
 327 0128 00000000 		.word	last_time_E
 328 012c 00000000 		.word	last_time_X
 329              		.cfi_endproc
 330              	.LFE323:
 332              		.global	__aeabi_dadd
 333              		.section	.text.M104,"ax",%progbits
 334              		.align	1
 335              		.global	M104
 336              		.syntax unified
 337              		.thumb
 338              		.thumb_func
 340              	M104:
 341              	.LFB324:
  38:Core/Src/GCodes.c **** 
  39:Core/Src/GCodes.c **** void M104()
  40:Core/Src/GCodes.c **** {
 342              		.loc 1 40 1
 343              		.cfi_startproc
 344              		@ args = 0, pretend = 0, frame = 0
 345              		@ frame_needed = 1, uses_anonymous_args = 0
 346 0000 B0B5     		push	{r4, r5, r7, lr}
 347              		.cfi_def_cfa_offset 16
 348              		.cfi_offset 4, -16
 349              		.cfi_offset 5, -12
 350              		.cfi_offset 7, -8
 351              		.cfi_offset 14, -4
 352 0002 00AF     		add	r7, sp, #0
 353              		.cfi_def_cfa_register 7
  41:Core/Src/GCodes.c ****     Cur_temp = GetTemperature(ADC_HOT_END, value[ADC_HOT_END]);
 354              		.loc 1 41 49
 355 0004 284B     		ldr	r3, .L11+8
 356 0006 5B68     		ldr	r3, [r3, #4]
 357              		.loc 1 41 16
 358 0008 9BB2     		uxth	r3, r3
 359 000a 1946     		mov	r1, r3
 360 000c 0120     		movs	r0, #1
 361 000e FFF7FEFF 		bl	GetTemperature
 362 0012 53EC102B 		vmov	r2, r3, d0
 363              		.loc 1 41 14
 364 0016 1046     		mov	r0, r2
 365 0018 1946     		mov	r1, r3
 366 001a FFF7FEFF 		bl	__aeabi_d2uiz
 367 001e 0346     		mov	r3, r0
 368 0020 9AB2     		uxth	r2, r3
 369 0022 224B     		ldr	r3, .L11+12
 370 0024 1A80     		strh	r2, [r3]	@ movhi
  42:Core/Src/GCodes.c ****     if (Cur_temp <= temp_goal)
 371              		.loc 1 42 18
 372 0026 214B     		ldr	r3, .L11+12
 373 0028 1A88     		ldrh	r2, [r3]
ARM GAS  C:\Users\Morroway\AppData\Local\Temp\ccmEzGWd.s 			page 8


 374 002a 214B     		ldr	r3, .L11+16
 375 002c 1B88     		ldrh	r3, [r3]
 376              		.loc 1 42 8
 377 002e 9A42     		cmp	r2, r3
 378 0030 2ED8     		bhi	.L8
  43:Core/Src/GCodes.c ****     {
  44:Core/Src/GCodes.c ****         SetHeating(HOT_END, -9.0f / 10.0f * (double)Cur_temp + (double)temp_goal + 100.0f);
 379              		.loc 1 44 45
 380 0032 1E4B     		ldr	r3, .L11+12
 381 0034 1B88     		ldrh	r3, [r3]
 382 0036 1846     		mov	r0, r3
 383 0038 FFF7FEFF 		bl	__aeabi_ui2d
 384              		.loc 1 44 43
 385 003c 18A3     		adr	r3, .L11
 386 003e D3E90023 		ldrd	r2, [r3]
 387 0042 FFF7FEFF 		bl	__aeabi_dmul
 388 0046 0246     		mov	r2, r0
 389 0048 0B46     		mov	r3, r1
 390 004a 1446     		mov	r4, r2
 391 004c 1D46     		mov	r5, r3
 392              		.loc 1 44 64
 393 004e 184B     		ldr	r3, .L11+16
 394 0050 1B88     		ldrh	r3, [r3]
 395 0052 1846     		mov	r0, r3
 396 0054 FFF7FEFF 		bl	__aeabi_ui2d
 397 0058 0246     		mov	r2, r0
 398 005a 0B46     		mov	r3, r1
 399              		.loc 1 44 62
 400 005c 2046     		mov	r0, r4
 401 005e 2946     		mov	r1, r5
 402 0060 FFF7FEFF 		bl	__aeabi_dadd
 403 0064 0246     		mov	r2, r0
 404 0066 0B46     		mov	r3, r1
 405 0068 1046     		mov	r0, r2
 406 006a 1946     		mov	r1, r3
 407              		.loc 1 44 82
 408 006c 4FF00002 		mov	r2, #0
 409 0070 104B     		ldr	r3, .L11+20
 410 0072 FFF7FEFF 		bl	__aeabi_dadd
 411 0076 0246     		mov	r2, r0
 412 0078 0B46     		mov	r3, r1
 413              		.loc 1 44 9
 414 007a 1046     		mov	r0, r2
 415 007c 1946     		mov	r1, r3
 416 007e FFF7FEFF 		bl	__aeabi_d2uiz
 417 0082 0346     		mov	r3, r0
 418 0084 9BB2     		uxth	r3, r3
 419 0086 1946     		mov	r1, r3
 420 0088 0020     		movs	r0, #0
 421 008a FFF7FEFF 		bl	SetHeating
  45:Core/Src/GCodes.c ****     }
  46:Core/Src/GCodes.c ****     else
  47:Core/Src/GCodes.c ****     {
  48:Core/Src/GCodes.c ****         SetHeating(HOT_END, 0);
  49:Core/Src/GCodes.c ****     }
  50:Core/Src/GCodes.c **** }
 422              		.loc 1 50 1
ARM GAS  C:\Users\Morroway\AppData\Local\Temp\ccmEzGWd.s 			page 9


 423 008e 03E0     		b	.L10
 424              	.L8:
  48:Core/Src/GCodes.c ****     }
 425              		.loc 1 48 9
 426 0090 0021     		movs	r1, #0
 427 0092 0020     		movs	r0, #0
 428 0094 FFF7FEFF 		bl	SetHeating
 429              	.L10:
 430              		.loc 1 50 1
 431 0098 00BF     		nop
 432 009a B0BD     		pop	{r4, r5, r7, pc}
 433              	.L12:
 434 009c AFF30080 		.align	3
 435              	.L11:
 436 00a0 000000C0 		.word	-1073741824
 437 00a4 CCCCECBF 		.word	-1075000116
 438 00a8 00000000 		.word	value
 439 00ac 00000000 		.word	Cur_temp
 440 00b0 00000000 		.word	temp_goal
 441 00b4 00005940 		.word	1079574528
 442              		.cfi_endproc
 443              	.LFE324:
 445              		.section	.text.M106,"ax",%progbits
 446              		.align	1
 447              		.global	M106
 448              		.syntax unified
 449              		.thumb
 450              		.thumb_func
 452              	M106:
 453              	.LFB325:
  51:Core/Src/GCodes.c **** 
  52:Core/Src/GCodes.c **** void M106(uint16_t S)
  53:Core/Src/GCodes.c **** {
 454              		.loc 1 53 1
 455              		.cfi_startproc
 456              		@ args = 0, pretend = 0, frame = 8
 457              		@ frame_needed = 1, uses_anonymous_args = 0
 458 0000 80B5     		push	{r7, lr}
 459              		.cfi_def_cfa_offset 8
 460              		.cfi_offset 7, -8
 461              		.cfi_offset 14, -4
 462 0002 82B0     		sub	sp, sp, #8
 463              		.cfi_def_cfa_offset 16
 464 0004 00AF     		add	r7, sp, #0
 465              		.cfi_def_cfa_register 7
 466 0006 0346     		mov	r3, r0
 467 0008 FB80     		strh	r3, [r7, #6]	@ movhi
  54:Core/Src/GCodes.c **** 
  55:Core/Src/GCodes.c ****     SetFanSpeed(HOT_END_FAN, S);
 468              		.loc 1 55 5
 469 000a FB88     		ldrh	r3, [r7, #6]
 470 000c 1946     		mov	r1, r3
 471 000e 0020     		movs	r0, #0
 472 0010 FFF7FEFF 		bl	SetFanSpeed
  56:Core/Src/GCodes.c **** }
 473              		.loc 1 56 1
 474 0014 00BF     		nop
ARM GAS  C:\Users\Morroway\AppData\Local\Temp\ccmEzGWd.s 			page 10


 475 0016 0837     		adds	r7, r7, #8
 476              		.cfi_def_cfa_offset 8
 477 0018 BD46     		mov	sp, r7
 478              		.cfi_def_cfa_register 13
 479              		@ sp needed
 480 001a 80BD     		pop	{r7, pc}
 481              		.cfi_endproc
 482              	.LFE325:
 484              		.text
 485              	.Letext0:
 486              		.file 2 "c:\\users\\morroway\\appdata\\roaming\\code\\user\\globalstorage\\bmd.stm32-for-vscode\\@
 487              		.file 3 "c:\\users\\morroway\\appdata\\roaming\\code\\user\\globalstorage\\bmd.stm32-for-vscode\\@
 488              		.file 4 "Core/Inc/Parser.h"
 489              		.file 5 "Core/Inc/main.h"
 490              		.file 6 "Core/Inc/GCodes.h"
 491              		.file 7 "Core/Inc/Functions.h"
ARM GAS  C:\Users\Morroway\AppData\Local\Temp\ccmEzGWd.s 			page 11


DEFINED SYMBOLS
                            *ABS*:0000000000000000 GCodes.c
C:\Users\Morroway\AppData\Local\Temp\ccmEzGWd.s:20     .bss.msg_buffer:0000000000000000 $d
C:\Users\Morroway\AppData\Local\Temp\ccmEzGWd.s:23     .bss.msg_buffer:0000000000000000 msg_buffer
C:\Users\Morroway\AppData\Local\Temp\ccmEzGWd.s:26     .bss.RxBuf:0000000000000000 $d
C:\Users\Morroway\AppData\Local\Temp\ccmEzGWd.s:29     .bss.RxBuf:0000000000000000 RxBuf
C:\Users\Morroway\AppData\Local\Temp\ccmEzGWd.s:36     .bss.Cur_E:0000000000000000 Cur_E
C:\Users\Morroway\AppData\Local\Temp\ccmEzGWd.s:33     .bss.Cur_E:0000000000000000 $d
C:\Users\Morroway\AppData\Local\Temp\ccmEzGWd.s:43     .bss.Cur_X:0000000000000000 Cur_X
C:\Users\Morroway\AppData\Local\Temp\ccmEzGWd.s:40     .bss.Cur_X:0000000000000000 $d
C:\Users\Morroway\AppData\Local\Temp\ccmEzGWd.s:50     .bss.Cur_Y:0000000000000000 Cur_Y
C:\Users\Morroway\AppData\Local\Temp\ccmEzGWd.s:47     .bss.Cur_Y:0000000000000000 $d
C:\Users\Morroway\AppData\Local\Temp\ccmEzGWd.s:57     .bss.Cur_Z:0000000000000000 Cur_Z
C:\Users\Morroway\AppData\Local\Temp\ccmEzGWd.s:54     .bss.Cur_Z:0000000000000000 $d
C:\Users\Morroway\AppData\Local\Temp\ccmEzGWd.s:64     .bss.Cur_F:0000000000000000 Cur_F
C:\Users\Morroway\AppData\Local\Temp\ccmEzGWd.s:61     .bss.Cur_F:0000000000000000 $d
C:\Users\Morroway\AppData\Local\Temp\ccmEzGWd.s:70     .bss.isRunning:0000000000000000 isRunning
C:\Users\Morroway\AppData\Local\Temp\ccmEzGWd.s:71     .bss.isRunning:0000000000000000 $d
C:\Users\Morroway\AppData\Local\Temp\ccmEzGWd.s:77     .bss.last_time_E:0000000000000000 last_time_E
C:\Users\Morroway\AppData\Local\Temp\ccmEzGWd.s:74     .bss.last_time_E:0000000000000000 $d
C:\Users\Morroway\AppData\Local\Temp\ccmEzGWd.s:84     .bss.last_time_X:0000000000000000 last_time_X
C:\Users\Morroway\AppData\Local\Temp\ccmEzGWd.s:81     .bss.last_time_X:0000000000000000 $d
C:\Users\Morroway\AppData\Local\Temp\ccmEzGWd.s:91     .bss.last_time_Y:0000000000000000 last_time_Y
C:\Users\Morroway\AppData\Local\Temp\ccmEzGWd.s:88     .bss.last_time_Y:0000000000000000 $d
C:\Users\Morroway\AppData\Local\Temp\ccmEzGWd.s:94     .text.M105:0000000000000000 $t
C:\Users\Morroway\AppData\Local\Temp\ccmEzGWd.s:100    .text.M105:0000000000000000 M105
C:\Users\Morroway\AppData\Local\Temp\ccmEzGWd.s:134    .text.M155:0000000000000000 $t
C:\Users\Morroway\AppData\Local\Temp\ccmEzGWd.s:140    .text.M155:0000000000000000 M155
C:\Users\Morroway\AppData\Local\Temp\ccmEzGWd.s:185    .text.G0:0000000000000000 $t
C:\Users\Morroway\AppData\Local\Temp\ccmEzGWd.s:191    .text.G0:0000000000000000 G0
C:\Users\Morroway\AppData\Local\Temp\ccmEzGWd.s:313    .text.G0:00000000000000f0 $d
C:\Users\Morroway\AppData\Local\Temp\ccmEzGWd.s:334    .text.M104:0000000000000000 $t
C:\Users\Morroway\AppData\Local\Temp\ccmEzGWd.s:340    .text.M104:0000000000000000 M104
C:\Users\Morroway\AppData\Local\Temp\ccmEzGWd.s:436    .text.M104:00000000000000a0 $d
C:\Users\Morroway\AppData\Local\Temp\ccmEzGWd.s:446    .text.M106:0000000000000000 $t
C:\Users\Morroway\AppData\Local\Temp\ccmEzGWd.s:452    .text.M106:0000000000000000 M106

UNDEFINED SYMBOLS
print_temperature
__aeabi_dsub
__aeabi_ui2d
__aeabi_ddiv
__aeabi_dmul
__aeabi_d2uiz
Move
E
X
Y
F
__aeabi_dadd
GetTemperature
SetHeating
value
Cur_temp
temp_goal
SetFanSpeed
