ARM GAS  C:\Users\Morroway\AppData\Local\Temp\ccvFtUI1.s 			page 1


   1              		.cpu cortex-m4
   2              		.arch armv7e-m
   3              		.fpu fpv4-sp-d16
   4              		.eabi_attribute 27, 1
   5              		.eabi_attribute 28, 1
   6              		.eabi_attribute 20, 1
   7              		.eabi_attribute 21, 1
   8              		.eabi_attribute 23, 3
   9              		.eabi_attribute 24, 1
  10              		.eabi_attribute 25, 1
  11              		.eabi_attribute 26, 1
  12              		.eabi_attribute 30, 6
  13              		.eabi_attribute 34, 1
  14              		.eabi_attribute 18, 4
  15              		.file	"GCodes.c"
  16              		.text
  17              	.Ltext0:
  18              		.cfi_sections	.debug_frame
  19              		.section	.bss.msg_buffer,"aw",%nobits
  20              		.align	2
  23              	msg_buffer:
  24 0000 00000000 		.space	30
  24      00000000 
  24      00000000 
  24      00000000 
  24      00000000 
  25              		.section	.bss.RxBuf,"aw",%nobits
  26              		.align	2
  29              	RxBuf:
  30 0000 00000000 		.space	40
  30      00000000 
  30      00000000 
  30      00000000 
  30      00000000 
  31              		.global	Cur_E
  32              		.section	.bss.Cur_E,"aw",%nobits
  33              		.align	3
  36              	Cur_E:
  37 0000 00000000 		.space	8
  37      00000000 
  38              		.global	Cur_X
  39              		.section	.bss.Cur_X,"aw",%nobits
  40              		.align	3
  43              	Cur_X:
  44 0000 00000000 		.space	8
  44      00000000 
  45              		.global	Cur_Y
  46              		.section	.bss.Cur_Y,"aw",%nobits
  47              		.align	3
  50              	Cur_Y:
  51 0000 00000000 		.space	8
  51      00000000 
  52              		.global	Cur_Z
  53              		.section	.bss.Cur_Z,"aw",%nobits
  54              		.align	3
  57              	Cur_Z:
  58 0000 00000000 		.space	8
ARM GAS  C:\Users\Morroway\AppData\Local\Temp\ccvFtUI1.s 			page 2


  58      00000000 
  59              		.global	Cur_F
  60              		.section	.bss.Cur_F,"aw",%nobits
  61              		.align	1
  64              	Cur_F:
  65 0000 0000     		.space	2
  66              		.global	isRunning
  67              		.section	.bss.isRunning,"aw",%nobits
  70              	isRunning:
  71 0000 00       		.space	1
  72              		.global	last_time_E
  73              		.section	.bss.last_time_E,"aw",%nobits
  74              		.align	2
  77              	last_time_E:
  78 0000 00000000 		.space	4
  79              		.global	last_time_X
  80              		.section	.bss.last_time_X,"aw",%nobits
  81              		.align	2
  84              	last_time_X:
  85 0000 00000000 		.space	4
  86              		.global	last_time_Y
  87              		.section	.bss.last_time_Y,"aw",%nobits
  88              		.align	2
  91              	last_time_Y:
  92 0000 00000000 		.space	4
  93              		.global	last_time_Z
  94              		.section	.bss.last_time_Z,"aw",%nobits
  95              		.align	2
  98              	last_time_Z:
  99 0000 00000000 		.space	4
 100              		.global	last_tick_A
 101              		.section	.bss.last_tick_A,"aw",%nobits
 102              		.align	2
 105              	last_tick_A:
 106 0000 00000000 		.space	4
 107              		.global	last_tick_B
 108              		.section	.bss.last_tick_B,"aw",%nobits
 109              		.align	2
 112              	last_tick_B:
 113 0000 00000000 		.space	4
 114              		.global	last_tick_AB
 115              		.section	.bss.last_tick_AB,"aw",%nobits
 116              		.align	2
 119              	last_tick_AB:
 120 0000 00000000 		.space	4
 121              		.section	.text.M105,"ax",%progbits
 122              		.align	1
 123              		.global	M105
 124              		.syntax unified
 125              		.thumb
 126              		.thumb_func
 128              	M105:
 129              	.LFB321:
 130              		.file 1 "Core/Src/GCodes.c"
   1:Core/Src/GCodes.c **** #include "GCodes.h"
   2:Core/Src/GCodes.c **** 
   3:Core/Src/GCodes.c **** double Cur_E = 0;
ARM GAS  C:\Users\Morroway\AppData\Local\Temp\ccvFtUI1.s 			page 3


   4:Core/Src/GCodes.c **** double Cur_X = 0;
   5:Core/Src/GCodes.c **** double Cur_Y = 0;
   6:Core/Src/GCodes.c **** double Cur_Z = 0;
   7:Core/Src/GCodes.c **** uint16_t Cur_F = 0;
   8:Core/Src/GCodes.c **** bool isRunning = false;
   9:Core/Src/GCodes.c **** uint32_t last_time_E = 0;
  10:Core/Src/GCodes.c **** uint32_t last_time_X = 0;
  11:Core/Src/GCodes.c **** uint32_t last_time_Y = 0;
  12:Core/Src/GCodes.c **** uint32_t last_time_Z = 0;
  13:Core/Src/GCodes.c **** uint32_t last_tick_A = 0;
  14:Core/Src/GCodes.c **** uint32_t last_tick_B = 0;
  15:Core/Src/GCodes.c **** uint32_t last_tick_AB = 0;
  16:Core/Src/GCodes.c **** 
  17:Core/Src/GCodes.c **** void M105(uint16_t R, uint16_t T)
  18:Core/Src/GCodes.c **** {
 131              		.loc 1 18 1
 132              		.cfi_startproc
 133              		@ args = 0, pretend = 0, frame = 8
 134              		@ frame_needed = 1, uses_anonymous_args = 0
 135 0000 80B5     		push	{r7, lr}
 136              		.cfi_def_cfa_offset 8
 137              		.cfi_offset 7, -8
 138              		.cfi_offset 14, -4
 139 0002 82B0     		sub	sp, sp, #8
 140              		.cfi_def_cfa_offset 16
 141 0004 00AF     		add	r7, sp, #0
 142              		.cfi_def_cfa_register 7
 143 0006 0346     		mov	r3, r0
 144 0008 0A46     		mov	r2, r1
 145 000a FB80     		strh	r3, [r7, #6]	@ movhi
 146 000c 1346     		mov	r3, r2	@ movhi
 147 000e BB80     		strh	r3, [r7, #4]	@ movhi
  19:Core/Src/GCodes.c ****     print_temperature();
 148              		.loc 1 19 5
 149 0010 FFF7FEFF 		bl	print_temperature
  20:Core/Src/GCodes.c **** #ifdef REDUNDANT_TEMP_SENSOR
  21:Core/Src/GCodes.c ****     if (R != -1)
  22:Core/Src/GCodes.c ****     {
  23:Core/Src/GCodes.c ****     }
  24:Core/Src/GCodes.c **** #endif
  25:Core/Src/GCodes.c **** }
 150              		.loc 1 25 1
 151 0014 00BF     		nop
 152 0016 0837     		adds	r7, r7, #8
 153              		.cfi_def_cfa_offset 8
 154 0018 BD46     		mov	sp, r7
 155              		.cfi_def_cfa_register 13
 156              		@ sp needed
 157 001a 80BD     		pop	{r7, pc}
 158              		.cfi_endproc
 159              	.LFE321:
 161              		.section	.text.M155,"ax",%progbits
 162              		.align	1
 163              		.global	M155
 164              		.syntax unified
 165              		.thumb
 166              		.thumb_func
ARM GAS  C:\Users\Morroway\AppData\Local\Temp\ccvFtUI1.s 			page 4


 168              	M155:
 169              	.LFB322:
  26:Core/Src/GCodes.c **** 
  27:Core/Src/GCodes.c **** uint16_t M155(uint16_t S)
  28:Core/Src/GCodes.c **** {
 170              		.loc 1 28 1
 171              		.cfi_startproc
 172              		@ args = 0, pretend = 0, frame = 8
 173              		@ frame_needed = 1, uses_anonymous_args = 0
 174              		@ link register save eliminated.
 175 0000 80B4     		push	{r7}
 176              		.cfi_def_cfa_offset 4
 177              		.cfi_offset 7, -4
 178 0002 83B0     		sub	sp, sp, #12
 179              		.cfi_def_cfa_offset 16
 180 0004 00AF     		add	r7, sp, #0
 181              		.cfi_def_cfa_register 7
 182 0006 0346     		mov	r3, r0
 183 0008 FB80     		strh	r3, [r7, #6]	@ movhi
  29:Core/Src/GCodes.c ****     return S * 1000;
 184              		.loc 1 29 14
 185 000a FB88     		ldrh	r3, [r7, #6]	@ movhi
 186 000c 1A46     		mov	r2, r3	@ movhi
 187 000e 5201     		lsls	r2, r2, #5
 188 0010 D21A     		subs	r2, r2, r3
 189 0012 9200     		lsls	r2, r2, #2
 190 0014 1344     		add	r3, r3, r2
 191 0016 DB00     		lsls	r3, r3, #3
 192 0018 9BB2     		uxth	r3, r3
  30:Core/Src/GCodes.c **** }
 193              		.loc 1 30 1
 194 001a 1846     		mov	r0, r3
 195 001c 0C37     		adds	r7, r7, #12
 196              		.cfi_def_cfa_offset 4
 197 001e BD46     		mov	sp, r7
 198              		.cfi_def_cfa_register 13
 199              		@ sp needed
 200 0020 5DF8047B 		ldr	r7, [sp], #4
 201              		.cfi_restore 7
 202              		.cfi_def_cfa_offset 0
 203 0024 7047     		bx	lr
 204              		.cfi_endproc
 205              	.LFE322:
 207              		.global	__aeabi_dsub
 208              		.global	__aeabi_dmul
 209              		.global	__aeabi_dadd
 210              		.global	__aeabi_ddiv
 211              		.global	__aeabi_ui2d
 212              		.global	__aeabi_d2uiz
 213              		.global	__aeabi_dcmpeq
 214              		.section	.text.G0,"ax",%progbits
 215              		.align	1
 216              		.global	G0
 217              		.syntax unified
 218              		.thumb
 219              		.thumb_func
 221              	G0:
ARM GAS  C:\Users\Morroway\AppData\Local\Temp\ccvFtUI1.s 			page 5


 222              	.LFB323:
  31:Core/Src/GCodes.c **** 
  32:Core/Src/GCodes.c **** void G0()
  33:Core/Src/GCodes.c **** {
 223              		.loc 1 33 1
 224              		.cfi_startproc
 225              		@ args = 0, pretend = 0, frame = 64
 226              		@ frame_needed = 1, uses_anonymous_args = 0
 227 0000 2DE9B043 		push	{r4, r5, r7, r8, r9, lr}
 228              		.cfi_def_cfa_offset 24
 229              		.cfi_offset 4, -24
 230              		.cfi_offset 5, -20
 231              		.cfi_offset 7, -16
 232              		.cfi_offset 8, -12
 233              		.cfi_offset 9, -8
 234              		.cfi_offset 14, -4
 235 0004 90B0     		sub	sp, sp, #64
 236              		.cfi_def_cfa_offset 88
 237 0006 00AF     		add	r7, sp, #0
 238              		.cfi_def_cfa_register 7
  34:Core/Src/GCodes.c ****     // isRunning = true;
  35:Core/Src/GCodes.c ****     double E_dif = E - Cur_E;
 239              		.loc 1 35 22
 240 0008 774B     		ldr	r3, .L15+16
 241 000a D3E90001 		ldrd	r0, [r3]
 242 000e 774B     		ldr	r3, .L15+20
 243 0010 D3E90023 		ldrd	r2, [r3]
 244              		.loc 1 35 12
 245 0014 FFF7FEFF 		bl	__aeabi_dsub
 246 0018 0246     		mov	r2, r0
 247 001a 0B46     		mov	r3, r1
 248 001c C7E90E23 		strd	r2, [r7, #56]
  36:Core/Src/GCodes.c ****     // double Z_dif = Z - Cur_Z;
  37:Core/Src/GCodes.c ****     // double E_dif = 0;
  38:Core/Src/GCodes.c ****     double Z_dif = 0;
 249              		.loc 1 38 12
 250 0020 4FF00002 		mov	r2, #0
 251 0024 4FF00003 		mov	r3, #0
 252 0028 C7E90C23 		strd	r2, [r7, #48]
  39:Core/Src/GCodes.c ****     double dif_x = X - Cur_X;
 253              		.loc 1 39 22
 254 002c 704B     		ldr	r3, .L15+24
 255 002e D3E90001 		ldrd	r0, [r3]
 256 0032 704B     		ldr	r3, .L15+28
 257 0034 D3E90023 		ldrd	r2, [r3]
 258              		.loc 1 39 12
 259 0038 FFF7FEFF 		bl	__aeabi_dsub
 260 003c 0246     		mov	r2, r0
 261 003e 0B46     		mov	r3, r1
 262 0040 C7E90A23 		strd	r2, [r7, #40]
  40:Core/Src/GCodes.c ****     double dif_y = Y - Cur_Y;
 263              		.loc 1 40 22
 264 0044 6C4B     		ldr	r3, .L15+32
 265 0046 D3E90001 		ldrd	r0, [r3]
 266 004a 6C4B     		ldr	r3, .L15+36
 267 004c D3E90023 		ldrd	r2, [r3]
 268              		.loc 1 40 12
ARM GAS  C:\Users\Morroway\AppData\Local\Temp\ccvFtUI1.s 			page 6


 269 0050 FFF7FEFF 		bl	__aeabi_dsub
 270 0054 0246     		mov	r2, r0
 271 0056 0B46     		mov	r3, r1
 272 0058 C7E90823 		strd	r2, [r7, #32]
  41:Core/Src/GCodes.c ****     double xy_len = sqrt(dif_x * dif_x + dif_y * dif_y);
 273              		.loc 1 41 32
 274 005c D7E90A23 		ldrd	r2, [r7, #40]
 275 0060 D7E90A01 		ldrd	r0, [r7, #40]
 276 0064 FFF7FEFF 		bl	__aeabi_dmul
 277 0068 0246     		mov	r2, r0
 278 006a 0B46     		mov	r3, r1
 279 006c 9046     		mov	r8, r2
 280 006e 9946     		mov	r9, r3
 281              		.loc 1 41 48
 282 0070 D7E90823 		ldrd	r2, [r7, #32]
 283 0074 D7E90801 		ldrd	r0, [r7, #32]
 284 0078 FFF7FEFF 		bl	__aeabi_dmul
 285 007c 0246     		mov	r2, r0
 286 007e 0B46     		mov	r3, r1
 287              		.loc 1 41 21
 288 0080 4046     		mov	r0, r8
 289 0082 4946     		mov	r1, r9
 290 0084 FFF7FEFF 		bl	__aeabi_dadd
 291 0088 0246     		mov	r2, r0
 292 008a 0B46     		mov	r3, r1
 293 008c 43EC172B 		vmov	d7, r2, r3
 294 0090 B0EE470A 		vmov.f32	s0, s14
 295 0094 F0EE670A 		vmov.f32	s1, s15
 296 0098 FFF7FEFF 		bl	sqrt
 297 009c 87ED060B 		vstr.64	d0, [r7, #24]
  42:Core/Src/GCodes.c ****     double dir_x = dif_x / xy_len;
 298              		.loc 1 42 12
 299 00a0 D7E90623 		ldrd	r2, [r7, #24]
 300 00a4 D7E90A01 		ldrd	r0, [r7, #40]
 301 00a8 FFF7FEFF 		bl	__aeabi_ddiv
 302 00ac 0246     		mov	r2, r0
 303 00ae 0B46     		mov	r3, r1
 304 00b0 C7E90423 		strd	r2, [r7, #16]
  43:Core/Src/GCodes.c ****     double dir_y = dif_y / xy_len;
 305              		.loc 1 43 12
 306 00b4 D7E90623 		ldrd	r2, [r7, #24]
 307 00b8 D7E90801 		ldrd	r0, [r7, #32]
 308 00bc FFF7FEFF 		bl	__aeabi_ddiv
 309 00c0 0246     		mov	r2, r0
 310 00c2 0B46     		mov	r3, r1
 311 00c4 C7E90223 		strd	r2, [r7, #8]
  44:Core/Src/GCodes.c ****     uint32_t speed = (double)1 / (double)F * (double)60 * E_MM_PER_REV / STEPS_PER_REV * (double)10
 312              		.loc 1 44 34
 313 00c8 4D4B     		ldr	r3, .L15+40
 314 00ca 1B88     		ldrh	r3, [r3]
 315 00cc 1846     		mov	r0, r3
 316 00ce FFF7FEFF 		bl	__aeabi_ui2d
 317 00d2 0246     		mov	r2, r0
 318 00d4 0B46     		mov	r3, r1
 319              		.loc 1 44 32
 320 00d6 4FF00000 		mov	r0, #0
 321 00da 4A49     		ldr	r1, .L15+44
ARM GAS  C:\Users\Morroway\AppData\Local\Temp\ccvFtUI1.s 			page 7


 322 00dc FFF7FEFF 		bl	__aeabi_ddiv
 323 00e0 0246     		mov	r2, r0
 324 00e2 0B46     		mov	r3, r1
 325 00e4 1046     		mov	r0, r2
 326 00e6 1946     		mov	r1, r3
 327              		.loc 1 44 44
 328 00e8 4FF00002 		mov	r2, #0
 329 00ec 464B     		ldr	r3, .L15+48
 330 00ee FFF7FEFF 		bl	__aeabi_dmul
 331 00f2 0246     		mov	r2, r0
 332 00f4 0B46     		mov	r3, r1
 333 00f6 1046     		mov	r0, r2
 334 00f8 1946     		mov	r1, r3
 335              		.loc 1 44 57
 336 00fa 4FF00002 		mov	r2, #0
 337 00fe 434B     		ldr	r3, .L15+52
 338 0100 FFF7FEFF 		bl	__aeabi_dmul
 339 0104 0246     		mov	r2, r0
 340 0106 0B46     		mov	r3, r1
 341 0108 1046     		mov	r0, r2
 342 010a 1946     		mov	r1, r3
 343              		.loc 1 44 72
 344 010c 32A3     		adr	r3, .L15
 345 010e D3E90023 		ldrd	r2, [r3]
 346 0112 FFF7FEFF 		bl	__aeabi_ddiv
 347 0116 0246     		mov	r2, r0
 348 0118 0B46     		mov	r3, r1
 349 011a 1046     		mov	r0, r2
 350 011c 1946     		mov	r1, r3
 351              		.loc 1 44 88
 352 011e 30A3     		adr	r3, .L15+8
 353 0120 D3E90023 		ldrd	r2, [r3]
 354 0124 FFF7FEFF 		bl	__aeabi_dmul
 355 0128 0246     		mov	r2, r0
 356 012a 0B46     		mov	r3, r1
 357              		.loc 1 44 14
 358 012c 1046     		mov	r0, r2
 359 012e 1946     		mov	r1, r3
 360 0130 FFF7FEFF 		bl	__aeabi_d2uiz
 361 0134 0346     		mov	r3, r0
 362 0136 7B60     		str	r3, [r7, #4]
  45:Core/Src/GCodes.c ****     Move(Z_dif, last_time_Z, Z_AXIS, speed);
 363              		.loc 1 45 5
 364 0138 354B     		ldr	r3, .L15+56
 365 013a 1B68     		ldr	r3, [r3]
 366 013c 7A68     		ldr	r2, [r7, #4]
 367 013e 92B2     		uxth	r2, r2
 368 0140 0321     		movs	r1, #3
 369 0142 1846     		mov	r0, r3
 370 0144 97ED0C0B 		vldr.64	d0, [r7, #48]
 371 0148 FFF7FEFF 		bl	Move
  46:Core/Src/GCodes.c ****     // Move(E_dif, last_time_E, E_AXIS, speed);
  47:Core/Src/GCodes.c ****     Move2(E_dif);
 372              		.loc 1 47 5
 373 014c 97ED0E0B 		vldr.64	d0, [r7, #56]
 374 0150 FFF7FEFF 		bl	Move2
  48:Core/Src/GCodes.c ****     MoveXY2(1 * dif_x, -1 * dif_y);
ARM GAS  C:\Users\Morroway\AppData\Local\Temp\ccvFtUI1.s 			page 8


 375              		.loc 1 48 5
 376 0154 3C6A     		ldr	r4, [r7, #32]
 377 0156 7B6A     		ldr	r3, [r7, #36]
 378 0158 83F00045 		eor	r5, r3, #-2147483648
 379 015c 45EC114B 		vmov	d1, r4, r5
 380 0160 97ED0A0B 		vldr.64	d0, [r7, #40]
 381 0164 FFF7FEFF 		bl	MoveXY2
  49:Core/Src/GCodes.c ****     if (E_dif == 0 && Z_dif == 0 && dif_x == 0 && dif_y == 0)
 382              		.loc 1 49 8
 383 0168 4FF00002 		mov	r2, #0
 384 016c 4FF00003 		mov	r3, #0
 385 0170 D7E90E01 		ldrd	r0, [r7, #56]
 386 0174 FFF7FEFF 		bl	__aeabi_dcmpeq
 387 0178 0346     		mov	r3, r0
 388 017a 002B     		cmp	r3, #0
 389 017c 00D1     		bne	.L10
  50:Core/Src/GCodes.c ****     {
  51:Core/Src/GCodes.c ****         isRunning = false;
  52:Core/Src/GCodes.c ****     }
  53:Core/Src/GCodes.c **** }
 390              		.loc 1 53 1
 391 017e 26E0     		b	.L14
 392              	.L10:
  49:Core/Src/GCodes.c ****     if (E_dif == 0 && Z_dif == 0 && dif_x == 0 && dif_y == 0)
 393              		.loc 1 49 20 discriminator 1
 394 0180 4FF00002 		mov	r2, #0
 395 0184 4FF00003 		mov	r3, #0
 396 0188 D7E90C01 		ldrd	r0, [r7, #48]
 397 018c FFF7FEFF 		bl	__aeabi_dcmpeq
 398 0190 0346     		mov	r3, r0
 399 0192 002B     		cmp	r3, #0
 400 0194 00D1     		bne	.L11
 401              		.loc 1 53 1 discriminator 1
 402 0196 1AE0     		b	.L14
 403              	.L11:
  49:Core/Src/GCodes.c ****     if (E_dif == 0 && Z_dif == 0 && dif_x == 0 && dif_y == 0)
 404              		.loc 1 49 34 discriminator 2
 405 0198 4FF00002 		mov	r2, #0
 406 019c 4FF00003 		mov	r3, #0
 407 01a0 D7E90A01 		ldrd	r0, [r7, #40]
 408 01a4 FFF7FEFF 		bl	__aeabi_dcmpeq
 409 01a8 0346     		mov	r3, r0
 410 01aa 002B     		cmp	r3, #0
 411 01ac 00D1     		bne	.L12
 412              		.loc 1 53 1 discriminator 2
 413 01ae 0EE0     		b	.L14
 414              	.L12:
  49:Core/Src/GCodes.c ****     if (E_dif == 0 && Z_dif == 0 && dif_x == 0 && dif_y == 0)
 415              		.loc 1 49 48 discriminator 3
 416 01b0 4FF00002 		mov	r2, #0
 417 01b4 4FF00003 		mov	r3, #0
 418 01b8 D7E90801 		ldrd	r0, [r7, #32]
 419 01bc FFF7FEFF 		bl	__aeabi_dcmpeq
 420 01c0 0346     		mov	r3, r0
 421 01c2 002B     		cmp	r3, #0
 422 01c4 00D1     		bne	.L13
 423              		.loc 1 53 1 discriminator 3
ARM GAS  C:\Users\Morroway\AppData\Local\Temp\ccvFtUI1.s 			page 9


 424 01c6 02E0     		b	.L14
 425              	.L13:
  51:Core/Src/GCodes.c ****     }
 426              		.loc 1 51 19
 427 01c8 124B     		ldr	r3, .L15+60
 428 01ca 0022     		movs	r2, #0
 429 01cc 1A70     		strb	r2, [r3]
 430              	.L14:
 431              		.loc 1 53 1
 432 01ce 00BF     		nop
 433 01d0 4037     		adds	r7, r7, #64
 434              		.cfi_def_cfa_offset 24
 435 01d2 BD46     		mov	sp, r7
 436              		.cfi_def_cfa_register 13
 437              		@ sp needed
 438 01d4 BDE8B083 		pop	{r4, r5, r7, r8, r9, pc}
 439              	.L16:
 440              		.align	3
 441              	.L15:
 442 01d8 00000000 		.word	0
 443 01dc 00CED240 		.word	1087557120
 444 01e0 00000000 		.word	0
 445 01e4 80842E41 		.word	1093567616
 446 01e8 00000000 		.word	E
 447 01ec 00000000 		.word	Cur_E
 448 01f0 00000000 		.word	X
 449 01f4 00000000 		.word	Cur_X
 450 01f8 00000000 		.word	Y
 451 01fc 00000000 		.word	Cur_Y
 452 0200 00000000 		.word	F
 453 0204 0000F03F 		.word	1072693248
 454 0208 00004E40 		.word	1078853632
 455 020c 00003740 		.word	1077346304
 456 0210 00000000 		.word	last_time_Z
 457 0214 00000000 		.word	isRunning
 458              		.cfi_endproc
 459              	.LFE323:
 461              		.section	.text.M104,"ax",%progbits
 462              		.align	1
 463              		.global	M104
 464              		.syntax unified
 465              		.thumb
 466              		.thumb_func
 468              	M104:
 469              	.LFB324:
  54:Core/Src/GCodes.c **** 
  55:Core/Src/GCodes.c **** void M104()
  56:Core/Src/GCodes.c **** {
 470              		.loc 1 56 1
 471              		.cfi_startproc
 472              		@ args = 0, pretend = 0, frame = 8
 473              		@ frame_needed = 1, uses_anonymous_args = 0
 474 0000 B0B5     		push	{r4, r5, r7, lr}
 475              		.cfi_def_cfa_offset 16
 476              		.cfi_offset 4, -16
 477              		.cfi_offset 5, -12
 478              		.cfi_offset 7, -8
ARM GAS  C:\Users\Morroway\AppData\Local\Temp\ccvFtUI1.s 			page 10


 479              		.cfi_offset 14, -4
 480 0002 82B0     		sub	sp, sp, #8
 481              		.cfi_def_cfa_offset 24
 482 0004 00AF     		add	r7, sp, #0
 483              		.cfi_def_cfa_register 7
  57:Core/Src/GCodes.c ****     uint16_t Cur_temp = GetTemperature(ADC_HOT_END, value[ADC_HOT_END]);
 484              		.loc 1 57 58
 485 0006 284B     		ldr	r3, .L21+8
 486 0008 5B68     		ldr	r3, [r3, #4]
 487              		.loc 1 57 25
 488 000a 9BB2     		uxth	r3, r3
 489 000c 1946     		mov	r1, r3
 490 000e 0120     		movs	r0, #1
 491 0010 FFF7FEFF 		bl	GetTemperature
 492 0014 53EC102B 		vmov	r2, r3, d0
 493              		.loc 1 57 14
 494 0018 1046     		mov	r0, r2
 495 001a 1946     		mov	r1, r3
 496 001c FFF7FEFF 		bl	__aeabi_d2uiz
 497 0020 0346     		mov	r3, r0
 498 0022 FB80     		strh	r3, [r7, #6]	@ movhi
  58:Core/Src/GCodes.c ****     if (Cur_temp <= hot_end_temp_goal)
 499              		.loc 1 58 18
 500 0024 214B     		ldr	r3, .L21+12
 501 0026 1B88     		ldrh	r3, [r3]
 502              		.loc 1 58 8
 503 0028 FA88     		ldrh	r2, [r7, #6]
 504 002a 9A42     		cmp	r2, r3
 505 002c 2DD8     		bhi	.L18
  59:Core/Src/GCodes.c ****     {
  60:Core/Src/GCodes.c ****         SetHeating(HOT_END, -9.0f / 10.0f * (double)Cur_temp + (double)hot_end_temp_goal + 100.0f);
 506              		.loc 1 60 45
 507 002e FB88     		ldrh	r3, [r7, #6]
 508 0030 1846     		mov	r0, r3
 509 0032 FFF7FEFF 		bl	__aeabi_ui2d
 510              		.loc 1 60 43
 511 0036 1AA3     		adr	r3, .L21
 512 0038 D3E90023 		ldrd	r2, [r3]
 513 003c FFF7FEFF 		bl	__aeabi_dmul
 514 0040 0246     		mov	r2, r0
 515 0042 0B46     		mov	r3, r1
 516 0044 1446     		mov	r4, r2
 517 0046 1D46     		mov	r5, r3
 518              		.loc 1 60 64
 519 0048 184B     		ldr	r3, .L21+12
 520 004a 1B88     		ldrh	r3, [r3]
 521 004c 1846     		mov	r0, r3
 522 004e FFF7FEFF 		bl	__aeabi_ui2d
 523 0052 0246     		mov	r2, r0
 524 0054 0B46     		mov	r3, r1
 525              		.loc 1 60 62
 526 0056 2046     		mov	r0, r4
 527 0058 2946     		mov	r1, r5
 528 005a FFF7FEFF 		bl	__aeabi_dadd
 529 005e 0246     		mov	r2, r0
 530 0060 0B46     		mov	r3, r1
 531 0062 1046     		mov	r0, r2
ARM GAS  C:\Users\Morroway\AppData\Local\Temp\ccvFtUI1.s 			page 11


 532 0064 1946     		mov	r1, r3
 533              		.loc 1 60 90
 534 0066 4FF00002 		mov	r2, #0
 535 006a 114B     		ldr	r3, .L21+16
 536 006c FFF7FEFF 		bl	__aeabi_dadd
 537 0070 0246     		mov	r2, r0
 538 0072 0B46     		mov	r3, r1
 539              		.loc 1 60 9
 540 0074 1046     		mov	r0, r2
 541 0076 1946     		mov	r1, r3
 542 0078 FFF7FEFF 		bl	__aeabi_d2uiz
 543 007c 0346     		mov	r3, r0
 544 007e 9BB2     		uxth	r3, r3
 545 0080 1946     		mov	r1, r3
 546 0082 0020     		movs	r0, #0
 547 0084 FFF7FEFF 		bl	SetHeating
  61:Core/Src/GCodes.c ****     }
  62:Core/Src/GCodes.c ****     else
  63:Core/Src/GCodes.c ****     {
  64:Core/Src/GCodes.c ****         SetHeating(HOT_END, 0);
  65:Core/Src/GCodes.c ****     }
  66:Core/Src/GCodes.c **** }
 548              		.loc 1 66 1
 549 0088 03E0     		b	.L20
 550              	.L18:
  64:Core/Src/GCodes.c ****     }
 551              		.loc 1 64 9
 552 008a 0021     		movs	r1, #0
 553 008c 0020     		movs	r0, #0
 554 008e FFF7FEFF 		bl	SetHeating
 555              	.L20:
 556              		.loc 1 66 1
 557 0092 00BF     		nop
 558 0094 0837     		adds	r7, r7, #8
 559              		.cfi_def_cfa_offset 16
 560 0096 BD46     		mov	sp, r7
 561              		.cfi_def_cfa_register 13
 562              		@ sp needed
 563 0098 B0BD     		pop	{r4, r5, r7, pc}
 564              	.L22:
 565 009a 00BFAFF3 		.align	3
 565      0080
 566              	.L21:
 567 00a0 000000C0 		.word	-1073741824
 568 00a4 CCCCECBF 		.word	-1075000116
 569 00a8 00000000 		.word	value
 570 00ac 00000000 		.word	hot_end_temp_goal
 571 00b0 00005940 		.word	1079574528
 572              		.cfi_endproc
 573              	.LFE324:
 575              		.section	.text.M106,"ax",%progbits
 576              		.align	1
 577              		.global	M106
 578              		.syntax unified
 579              		.thumb
 580              		.thumb_func
 582              	M106:
ARM GAS  C:\Users\Morroway\AppData\Local\Temp\ccvFtUI1.s 			page 12


 583              	.LFB325:
  67:Core/Src/GCodes.c **** 
  68:Core/Src/GCodes.c **** void M106(uint16_t S)
  69:Core/Src/GCodes.c **** {
 584              		.loc 1 69 1
 585              		.cfi_startproc
 586              		@ args = 0, pretend = 0, frame = 8
 587              		@ frame_needed = 1, uses_anonymous_args = 0
 588 0000 80B5     		push	{r7, lr}
 589              		.cfi_def_cfa_offset 8
 590              		.cfi_offset 7, -8
 591              		.cfi_offset 14, -4
 592 0002 82B0     		sub	sp, sp, #8
 593              		.cfi_def_cfa_offset 16
 594 0004 00AF     		add	r7, sp, #0
 595              		.cfi_def_cfa_register 7
 596 0006 0346     		mov	r3, r0
 597 0008 FB80     		strh	r3, [r7, #6]	@ movhi
  70:Core/Src/GCodes.c **** 
  71:Core/Src/GCodes.c ****     SetFanSpeed(HOT_END_FAN, S);
 598              		.loc 1 71 5
 599 000a FB88     		ldrh	r3, [r7, #6]
 600 000c 1946     		mov	r1, r3
 601 000e 0020     		movs	r0, #0
 602 0010 FFF7FEFF 		bl	SetFanSpeed
  72:Core/Src/GCodes.c **** }
 603              		.loc 1 72 1
 604 0014 00BF     		nop
 605 0016 0837     		adds	r7, r7, #8
 606              		.cfi_def_cfa_offset 8
 607 0018 BD46     		mov	sp, r7
 608              		.cfi_def_cfa_register 13
 609              		@ sp needed
 610 001a 80BD     		pop	{r7, pc}
 611              		.cfi_endproc
 612              	.LFE325:
 614              		.section	.text.M140,"ax",%progbits
 615              		.align	1
 616              		.global	M140
 617              		.syntax unified
 618              		.thumb
 619              		.thumb_func
 621              	M140:
 622              	.LFB326:
  73:Core/Src/GCodes.c **** 
  74:Core/Src/GCodes.c **** void M140()
  75:Core/Src/GCodes.c **** {
 623              		.loc 1 75 1
 624              		.cfi_startproc
 625              		@ args = 0, pretend = 0, frame = 8
 626              		@ frame_needed = 1, uses_anonymous_args = 0
 627 0000 B0B5     		push	{r4, r5, r7, lr}
 628              		.cfi_def_cfa_offset 16
 629              		.cfi_offset 4, -16
 630              		.cfi_offset 5, -12
 631              		.cfi_offset 7, -8
 632              		.cfi_offset 14, -4
ARM GAS  C:\Users\Morroway\AppData\Local\Temp\ccvFtUI1.s 			page 13


 633 0002 82B0     		sub	sp, sp, #8
 634              		.cfi_def_cfa_offset 24
 635 0004 00AF     		add	r7, sp, #0
 636              		.cfi_def_cfa_register 7
  76:Core/Src/GCodes.c ****     uint16_t Cur_temp = GetTemperature(ADC_BED, value[ADC_BED]);
 637              		.loc 1 76 54
 638 0006 284B     		ldr	r3, .L28+8
 639 0008 1B68     		ldr	r3, [r3]
 640              		.loc 1 76 25
 641 000a 9BB2     		uxth	r3, r3
 642 000c 1946     		mov	r1, r3
 643 000e 0020     		movs	r0, #0
 644 0010 FFF7FEFF 		bl	GetTemperature
 645 0014 53EC102B 		vmov	r2, r3, d0
 646              		.loc 1 76 14
 647 0018 1046     		mov	r0, r2
 648 001a 1946     		mov	r1, r3
 649 001c FFF7FEFF 		bl	__aeabi_d2uiz
 650 0020 0346     		mov	r3, r0
 651 0022 FB80     		strh	r3, [r7, #6]	@ movhi
  77:Core/Src/GCodes.c ****     if (Cur_temp <= hot_bed_temp_goal)
 652              		.loc 1 77 18
 653 0024 214B     		ldr	r3, .L28+12
 654 0026 1B88     		ldrh	r3, [r3]
 655              		.loc 1 77 8
 656 0028 FA88     		ldrh	r2, [r7, #6]
 657 002a 9A42     		cmp	r2, r3
 658 002c 2DD8     		bhi	.L25
  78:Core/Src/GCodes.c ****     {
  79:Core/Src/GCodes.c ****         SetHeating(HOT_BED, -9.0f / 10.0f * (double)Cur_temp + (double)hot_bed_temp_goal + 100.0f);
 659              		.loc 1 79 45
 660 002e FB88     		ldrh	r3, [r7, #6]
 661 0030 1846     		mov	r0, r3
 662 0032 FFF7FEFF 		bl	__aeabi_ui2d
 663              		.loc 1 79 43
 664 0036 1AA3     		adr	r3, .L28
 665 0038 D3E90023 		ldrd	r2, [r3]
 666 003c FFF7FEFF 		bl	__aeabi_dmul
 667 0040 0246     		mov	r2, r0
 668 0042 0B46     		mov	r3, r1
 669 0044 1446     		mov	r4, r2
 670 0046 1D46     		mov	r5, r3
 671              		.loc 1 79 64
 672 0048 184B     		ldr	r3, .L28+12
 673 004a 1B88     		ldrh	r3, [r3]
 674 004c 1846     		mov	r0, r3
 675 004e FFF7FEFF 		bl	__aeabi_ui2d
 676 0052 0246     		mov	r2, r0
 677 0054 0B46     		mov	r3, r1
 678              		.loc 1 79 62
 679 0056 2046     		mov	r0, r4
 680 0058 2946     		mov	r1, r5
 681 005a FFF7FEFF 		bl	__aeabi_dadd
 682 005e 0246     		mov	r2, r0
 683 0060 0B46     		mov	r3, r1
 684 0062 1046     		mov	r0, r2
 685 0064 1946     		mov	r1, r3
ARM GAS  C:\Users\Morroway\AppData\Local\Temp\ccvFtUI1.s 			page 14


 686              		.loc 1 79 90
 687 0066 4FF00002 		mov	r2, #0
 688 006a 114B     		ldr	r3, .L28+16
 689 006c FFF7FEFF 		bl	__aeabi_dadd
 690 0070 0246     		mov	r2, r0
 691 0072 0B46     		mov	r3, r1
 692              		.loc 1 79 9
 693 0074 1046     		mov	r0, r2
 694 0076 1946     		mov	r1, r3
 695 0078 FFF7FEFF 		bl	__aeabi_d2uiz
 696 007c 0346     		mov	r3, r0
 697 007e 9BB2     		uxth	r3, r3
 698 0080 1946     		mov	r1, r3
 699 0082 0120     		movs	r0, #1
 700 0084 FFF7FEFF 		bl	SetHeating
  80:Core/Src/GCodes.c ****     }
  81:Core/Src/GCodes.c ****     else
  82:Core/Src/GCodes.c ****     {
  83:Core/Src/GCodes.c ****         SetHeating(HOT_BED, 0);
  84:Core/Src/GCodes.c ****     }
  85:Core/Src/GCodes.c **** }
 701              		.loc 1 85 1
 702 0088 03E0     		b	.L27
 703              	.L25:
  83:Core/Src/GCodes.c ****     }
 704              		.loc 1 83 9
 705 008a 0021     		movs	r1, #0
 706 008c 0120     		movs	r0, #1
 707 008e FFF7FEFF 		bl	SetHeating
 708              	.L27:
 709              		.loc 1 85 1
 710 0092 00BF     		nop
 711 0094 0837     		adds	r7, r7, #8
 712              		.cfi_def_cfa_offset 16
 713 0096 BD46     		mov	sp, r7
 714              		.cfi_def_cfa_register 13
 715              		@ sp needed
 716 0098 B0BD     		pop	{r4, r5, r7, pc}
 717              	.L29:
 718 009a 00BFAFF3 		.align	3
 718      0080
 719              	.L28:
 720 00a0 000000C0 		.word	-1073741824
 721 00a4 CCCCECBF 		.word	-1075000116
 722 00a8 00000000 		.word	value
 723 00ac 00000000 		.word	hot_bed_temp_goal
 724 00b0 00005940 		.word	1079574528
 725              		.cfi_endproc
 726              	.LFE326:
 728              		.section	.text.G28,"ax",%progbits
 729              		.align	1
 730              		.global	G28
 731              		.syntax unified
 732              		.thumb
 733              		.thumb_func
 735              	G28:
 736              	.LFB327:
ARM GAS  C:\Users\Morroway\AppData\Local\Temp\ccvFtUI1.s 			page 15


  86:Core/Src/GCodes.c **** 
  87:Core/Src/GCodes.c **** void G28()
  88:Core/Src/GCodes.c **** {
 737              		.loc 1 88 1
 738              		.cfi_startproc
 739              		@ args = 0, pretend = 0, frame = 0
 740              		@ frame_needed = 1, uses_anonymous_args = 0
 741              		@ link register save eliminated.
 742 0000 80B4     		push	{r7}
 743              		.cfi_def_cfa_offset 4
 744              		.cfi_offset 7, -4
 745 0002 00AF     		add	r7, sp, #0
 746              		.cfi_def_cfa_register 7
  89:Core/Src/GCodes.c ****     isRunning = true;
 747              		.loc 1 89 15
 748 0004 1A4B     		ldr	r3, .L31
 749 0006 0122     		movs	r2, #1
 750 0008 1A70     		strb	r2, [r3]
  90:Core/Src/GCodes.c ****     Cur_E = 0;
 751              		.loc 1 90 11
 752 000a 1A49     		ldr	r1, .L31+4
 753 000c 4FF00002 		mov	r2, #0
 754 0010 4FF00003 		mov	r3, #0
 755 0014 C1E90023 		strd	r2, [r1]
  91:Core/Src/GCodes.c ****     E = 0;
 756              		.loc 1 91 7
 757 0018 1749     		ldr	r1, .L31+8
 758 001a 4FF00002 		mov	r2, #0
 759 001e 4FF00003 		mov	r3, #0
 760 0022 C1E90023 		strd	r2, [r1]
  92:Core/Src/GCodes.c ****     // MoveAndWait(1, 400, X_AXIS, COUNTERCLOCKWISE, COUNTERCLOCKWISE);
  93:Core/Src/GCodes.c ****     // MoveAndWait(0, 300, X_AXIS, CLOCKWISE, CLOCKWISE);
  94:Core/Src/GCodes.c ****     // MoveAndWait(1, 300, X_AXIS, CLOCKWISE, CLOCKWISE);
  95:Core/Src/GCodes.c ****     // MoveAndWait(0, 300, X_AXIS, COUNTERCLOCKWISE, COUNTERCLOCKWISE);
  96:Core/Src/GCodes.c ****     Cur_X = 0;
 761              		.loc 1 96 11
 762 0026 1549     		ldr	r1, .L31+12
 763 0028 4FF00002 		mov	r2, #0
 764 002c 4FF00003 		mov	r3, #0
 765 0030 C1E90023 		strd	r2, [r1]
  97:Core/Src/GCodes.c ****     X = 0;
 766              		.loc 1 97 7
 767 0034 1249     		ldr	r1, .L31+16
 768 0036 4FF00002 		mov	r2, #0
 769 003a 4FF00003 		mov	r3, #0
 770 003e C1E90023 		strd	r2, [r1]
  98:Core/Src/GCodes.c ****     // MoveAndWait(1, 400, Y_AXIS, CLOCKWISE, COUNTERCLOCKWISE);
  99:Core/Src/GCodes.c ****     // MoveAndWait(0, 300, Y_AXIS, COUNTERCLOCKWISE, CLOCKWISE);
 100:Core/Src/GCodes.c ****     // MoveAndWait(1, 300, Y_AXIS, CLOCKWISE, COUNTERCLOCKWISE);
 101:Core/Src/GCodes.c ****     // MoveAndWait(0, 300, Y_AXIS, COUNTERCLOCKWISE, CLOCKWISE);
 102:Core/Src/GCodes.c ****     Cur_Y = 0;
 771              		.loc 1 102 11
 772 0042 1049     		ldr	r1, .L31+20
 773 0044 4FF00002 		mov	r2, #0
 774 0048 4FF00003 		mov	r3, #0
 775 004c C1E90023 		strd	r2, [r1]
 103:Core/Src/GCodes.c ****     Y = 0;
ARM GAS  C:\Users\Morroway\AppData\Local\Temp\ccvFtUI1.s 			page 16


 776              		.loc 1 103 7
 777 0050 0D49     		ldr	r1, .L31+24
 778 0052 4FF00002 		mov	r2, #0
 779 0056 4FF00003 		mov	r3, #0
 780 005a C1E90023 		strd	r2, [r1]
 104:Core/Src/GCodes.c ****     isRunning = false;
 781              		.loc 1 104 15
 782 005e 044B     		ldr	r3, .L31
 783 0060 0022     		movs	r2, #0
 784 0062 1A70     		strb	r2, [r3]
 105:Core/Src/GCodes.c **** }...
 785              		.loc 1 105 1
 786 0064 00BF     		nop
 787 0066 BD46     		mov	sp, r7
 788              		.cfi_def_cfa_register 13
 789              		@ sp needed
 790 0068 5DF8047B 		ldr	r7, [sp], #4
 791              		.cfi_restore 7
 792              		.cfi_def_cfa_offset 0
 793 006c 7047     		bx	lr
 794              	.L32:
 795 006e 00BF     		.align	2
 796              	.L31:
 797 0070 00000000 		.word	isRunning
 798 0074 00000000 		.word	Cur_E
 799 0078 00000000 		.word	E
 800 007c 00000000 		.word	Cur_X
 801 0080 00000000 		.word	X
 802 0084 00000000 		.word	Cur_Y
 803 0088 00000000 		.word	Y
 804              		.cfi_endproc
 805              	.LFE327:
 807              		.text
 808              	.Letext0:
 809              		.file 2 "c:\\users\\morroway\\appdata\\roaming\\code\\user\\globalstorage\\bmd.stm32-for-vscode\\@
 810              		.file 3 "c:\\users\\morroway\\appdata\\roaming\\code\\user\\globalstorage\\bmd.stm32-for-vscode\\@
 811              		.file 4 "Core/Inc/Parser.h"
 812              		.file 5 "Core/Inc/main.h"
 813              		.file 6 "Core/Inc/GCodes.h"
 814              		.file 7 "Core/Inc/Functions.h"
 815              		.file 8 "c:\\users\\morroway\\appdata\\roaming\\code\\user\\globalstorage\\bmd.stm32-for-vscode\\@
ARM GAS  C:\Users\Morroway\AppData\Local\Temp\ccvFtUI1.s 			page 17


DEFINED SYMBOLS
                            *ABS*:0000000000000000 GCodes.c
C:\Users\Morroway\AppData\Local\Temp\ccvFtUI1.s:20     .bss.msg_buffer:0000000000000000 $d
C:\Users\Morroway\AppData\Local\Temp\ccvFtUI1.s:23     .bss.msg_buffer:0000000000000000 msg_buffer
C:\Users\Morroway\AppData\Local\Temp\ccvFtUI1.s:26     .bss.RxBuf:0000000000000000 $d
C:\Users\Morroway\AppData\Local\Temp\ccvFtUI1.s:29     .bss.RxBuf:0000000000000000 RxBuf
C:\Users\Morroway\AppData\Local\Temp\ccvFtUI1.s:36     .bss.Cur_E:0000000000000000 Cur_E
C:\Users\Morroway\AppData\Local\Temp\ccvFtUI1.s:33     .bss.Cur_E:0000000000000000 $d
C:\Users\Morroway\AppData\Local\Temp\ccvFtUI1.s:43     .bss.Cur_X:0000000000000000 Cur_X
C:\Users\Morroway\AppData\Local\Temp\ccvFtUI1.s:40     .bss.Cur_X:0000000000000000 $d
C:\Users\Morroway\AppData\Local\Temp\ccvFtUI1.s:50     .bss.Cur_Y:0000000000000000 Cur_Y
C:\Users\Morroway\AppData\Local\Temp\ccvFtUI1.s:47     .bss.Cur_Y:0000000000000000 $d
C:\Users\Morroway\AppData\Local\Temp\ccvFtUI1.s:57     .bss.Cur_Z:0000000000000000 Cur_Z
C:\Users\Morroway\AppData\Local\Temp\ccvFtUI1.s:54     .bss.Cur_Z:0000000000000000 $d
C:\Users\Morroway\AppData\Local\Temp\ccvFtUI1.s:64     .bss.Cur_F:0000000000000000 Cur_F
C:\Users\Morroway\AppData\Local\Temp\ccvFtUI1.s:61     .bss.Cur_F:0000000000000000 $d
C:\Users\Morroway\AppData\Local\Temp\ccvFtUI1.s:70     .bss.isRunning:0000000000000000 isRunning
C:\Users\Morroway\AppData\Local\Temp\ccvFtUI1.s:71     .bss.isRunning:0000000000000000 $d
C:\Users\Morroway\AppData\Local\Temp\ccvFtUI1.s:77     .bss.last_time_E:0000000000000000 last_time_E
C:\Users\Morroway\AppData\Local\Temp\ccvFtUI1.s:74     .bss.last_time_E:0000000000000000 $d
C:\Users\Morroway\AppData\Local\Temp\ccvFtUI1.s:84     .bss.last_time_X:0000000000000000 last_time_X
C:\Users\Morroway\AppData\Local\Temp\ccvFtUI1.s:81     .bss.last_time_X:0000000000000000 $d
C:\Users\Morroway\AppData\Local\Temp\ccvFtUI1.s:91     .bss.last_time_Y:0000000000000000 last_time_Y
C:\Users\Morroway\AppData\Local\Temp\ccvFtUI1.s:88     .bss.last_time_Y:0000000000000000 $d
C:\Users\Morroway\AppData\Local\Temp\ccvFtUI1.s:98     .bss.last_time_Z:0000000000000000 last_time_Z
C:\Users\Morroway\AppData\Local\Temp\ccvFtUI1.s:95     .bss.last_time_Z:0000000000000000 $d
C:\Users\Morroway\AppData\Local\Temp\ccvFtUI1.s:105    .bss.last_tick_A:0000000000000000 last_tick_A
C:\Users\Morroway\AppData\Local\Temp\ccvFtUI1.s:102    .bss.last_tick_A:0000000000000000 $d
C:\Users\Morroway\AppData\Local\Temp\ccvFtUI1.s:112    .bss.last_tick_B:0000000000000000 last_tick_B
C:\Users\Morroway\AppData\Local\Temp\ccvFtUI1.s:109    .bss.last_tick_B:0000000000000000 $d
C:\Users\Morroway\AppData\Local\Temp\ccvFtUI1.s:119    .bss.last_tick_AB:0000000000000000 last_tick_AB
C:\Users\Morroway\AppData\Local\Temp\ccvFtUI1.s:116    .bss.last_tick_AB:0000000000000000 $d
C:\Users\Morroway\AppData\Local\Temp\ccvFtUI1.s:122    .text.M105:0000000000000000 $t
C:\Users\Morroway\AppData\Local\Temp\ccvFtUI1.s:128    .text.M105:0000000000000000 M105
C:\Users\Morroway\AppData\Local\Temp\ccvFtUI1.s:162    .text.M155:0000000000000000 $t
C:\Users\Morroway\AppData\Local\Temp\ccvFtUI1.s:168    .text.M155:0000000000000000 M155
C:\Users\Morroway\AppData\Local\Temp\ccvFtUI1.s:215    .text.G0:0000000000000000 $t
C:\Users\Morroway\AppData\Local\Temp\ccvFtUI1.s:221    .text.G0:0000000000000000 G0
C:\Users\Morroway\AppData\Local\Temp\ccvFtUI1.s:442    .text.G0:00000000000001d8 $d
C:\Users\Morroway\AppData\Local\Temp\ccvFtUI1.s:462    .text.M104:0000000000000000 $t
C:\Users\Morroway\AppData\Local\Temp\ccvFtUI1.s:468    .text.M104:0000000000000000 M104
C:\Users\Morroway\AppData\Local\Temp\ccvFtUI1.s:567    .text.M104:00000000000000a0 $d
C:\Users\Morroway\AppData\Local\Temp\ccvFtUI1.s:576    .text.M106:0000000000000000 $t
C:\Users\Morroway\AppData\Local\Temp\ccvFtUI1.s:582    .text.M106:0000000000000000 M106
C:\Users\Morroway\AppData\Local\Temp\ccvFtUI1.s:615    .text.M140:0000000000000000 $t
C:\Users\Morroway\AppData\Local\Temp\ccvFtUI1.s:621    .text.M140:0000000000000000 M140
C:\Users\Morroway\AppData\Local\Temp\ccvFtUI1.s:720    .text.M140:00000000000000a0 $d
C:\Users\Morroway\AppData\Local\Temp\ccvFtUI1.s:729    .text.G28:0000000000000000 $t
C:\Users\Morroway\AppData\Local\Temp\ccvFtUI1.s:735    .text.G28:0000000000000000 G28
C:\Users\Morroway\AppData\Local\Temp\ccvFtUI1.s:797    .text.G28:0000000000000070 $d

UNDEFINED SYMBOLS
print_temperature
__aeabi_dsub
__aeabi_dmul
__aeabi_dadd
__aeabi_ddiv
ARM GAS  C:\Users\Morroway\AppData\Local\Temp\ccvFtUI1.s 			page 18


__aeabi_ui2d
__aeabi_d2uiz
__aeabi_dcmpeq
sqrt
Move
Move2
MoveXY2
E
X
Y
F
GetTemperature
SetHeating
value
hot_end_temp_goal
SetFanSpeed
hot_bed_temp_goal
