ARM GAS  C:\Users\Morroway\AppData\Local\Temp\cc8F5pJm.s 			page 1


   1              		.cpu cortex-m4
   2              		.arch armv7e-m
   3              		.fpu fpv4-sp-d16
   4              		.eabi_attribute 27, 1
   5              		.eabi_attribute 28, 1
   6              		.eabi_attribute 20, 1
   7              		.eabi_attribute 21, 1
   8              		.eabi_attribute 23, 3
   9              		.eabi_attribute 24, 1
  10              		.eabi_attribute 25, 1
  11              		.eabi_attribute 26, 1
  12              		.eabi_attribute 30, 6
  13              		.eabi_attribute 34, 1
  14              		.eabi_attribute 18, 4
  15              		.file	"ILI9341_STM32_Driver.c"
  16              		.text
  17              	.Ltext0:
  18              		.cfi_sections	.debug_frame
  19              		.section	.bss.msg_buffer,"aw",%nobits
  20              		.align	2
  23              	msg_buffer:
  24 0000 00000000 		.space	30
  24      00000000 
  24      00000000 
  24      00000000 
  24      00000000 
  25              		.section	.bss.RxBuf,"aw",%nobits
  26              		.align	2
  29              	RxBuf:
  30 0000 00000000 		.space	40
  30      00000000 
  30      00000000 
  30      00000000 
  30      00000000 
  31              		.global	LCD_HEIGHT
  32              		.section	.data.LCD_HEIGHT,"aw"
  33              		.align	1
  36              	LCD_HEIGHT:
  37 0000 F000     		.short	240
  38              		.global	LCD_WIDTH
  39              		.section	.data.LCD_WIDTH,"aw"
  40              		.align	1
  43              	LCD_WIDTH:
  44 0000 4001     		.short	320
  45              		.section	.text.ILI9341_SPI_Init,"ax",%progbits
  46              		.align	1
  47              		.global	ILI9341_SPI_Init
  48              		.syntax unified
  49              		.thumb
  50              		.thumb_func
  52              	ILI9341_SPI_Init:
  53              	.LFB321:
  54              		.file 1 "Drivers/IL9341/src/ILI9341_STM32_Driver.c"
   1:Drivers/IL9341/src/ILI9341_STM32_Driver.c **** 
   2:Drivers/IL9341/src/ILI9341_STM32_Driver.c **** //	MIT License
   3:Drivers/IL9341/src/ILI9341_STM32_Driver.c **** //
   4:Drivers/IL9341/src/ILI9341_STM32_Driver.c **** //	Copyright (c) 2017 Matej Artnak
ARM GAS  C:\Users\Morroway\AppData\Local\Temp\cc8F5pJm.s 			page 2


   5:Drivers/IL9341/src/ILI9341_STM32_Driver.c **** //
   6:Drivers/IL9341/src/ILI9341_STM32_Driver.c **** //	Permission is hereby granted, free of charge, to any person obtaining a copy
   7:Drivers/IL9341/src/ILI9341_STM32_Driver.c **** //	of this software and associated documentation files (the "Software"), to deal
   8:Drivers/IL9341/src/ILI9341_STM32_Driver.c **** //	in the Software without restriction, including without limitation the rights
   9:Drivers/IL9341/src/ILI9341_STM32_Driver.c **** //	to use, copy, modify, merge, publish, distribute, sublicense, and/or sell
  10:Drivers/IL9341/src/ILI9341_STM32_Driver.c **** //	copies of the Software, and to permit persons to whom the Software is
  11:Drivers/IL9341/src/ILI9341_STM32_Driver.c **** //	furnished to do so, subject to the following conditions:
  12:Drivers/IL9341/src/ILI9341_STM32_Driver.c **** //
  13:Drivers/IL9341/src/ILI9341_STM32_Driver.c **** //	The above copyright notice and this permission notice shall be included in all
  14:Drivers/IL9341/src/ILI9341_STM32_Driver.c **** //	copies or substantial portions of the Software.
  15:Drivers/IL9341/src/ILI9341_STM32_Driver.c **** //
  16:Drivers/IL9341/src/ILI9341_STM32_Driver.c **** //	THE SOFTWARE IS PROVIDED "AS IS", WITHOUT WARRANTY OF ANY KIND, EXPRESS OR
  17:Drivers/IL9341/src/ILI9341_STM32_Driver.c **** //	IMPLIED, INCLUDING BUT NOT LIMITED TO THE WARRANTIES OF MERCHANTABILITY,
  18:Drivers/IL9341/src/ILI9341_STM32_Driver.c **** //	FITNESS FOR A PARTICULAR PURPOSE AND NONINFRINGEMENT. IN NO EVENT SHALL THE
  19:Drivers/IL9341/src/ILI9341_STM32_Driver.c **** //	AUTHORS OR COPYRIGHT HOLDERS BE LIABLE FOR ANY CLAIM, DAMAGES OR OTHER
  20:Drivers/IL9341/src/ILI9341_STM32_Driver.c **** //	LIABILITY, WHETHER IN AN ACTION OF CONTRACT, TORT OR OTHERWISE, ARISING FROM,
  21:Drivers/IL9341/src/ILI9341_STM32_Driver.c **** //	OUT OF OR IN CONNECTION WITH THE SOFTWARE OR THE USE OR OTHER DEALINGS IN THE
  22:Drivers/IL9341/src/ILI9341_STM32_Driver.c **** //	SOFTWARE.
  23:Drivers/IL9341/src/ILI9341_STM32_Driver.c **** //
  24:Drivers/IL9341/src/ILI9341_STM32_Driver.c **** //
  25:Drivers/IL9341/src/ILI9341_STM32_Driver.c **** //
  26:Drivers/IL9341/src/ILI9341_STM32_Driver.c **** //-----------------------------------
  27:Drivers/IL9341/src/ILI9341_STM32_Driver.c **** //	ILI9341 Driver library for STM32
  28:Drivers/IL9341/src/ILI9341_STM32_Driver.c **** //-----------------------------------
  29:Drivers/IL9341/src/ILI9341_STM32_Driver.c **** //
  30:Drivers/IL9341/src/ILI9341_STM32_Driver.c **** //	While there are other libraries for ILI9341 they mostly require either interrupts, DMA or both f
  31:Drivers/IL9341/src/ILI9341_STM32_Driver.c **** //	The intent of this library is to offer a simple yet still reasonably fast alternatives for those
  32:Drivers/IL9341/src/ILI9341_STM32_Driver.c **** //	do not wish to use interrupts or DMA in their projects.
  33:Drivers/IL9341/src/ILI9341_STM32_Driver.c **** //
  34:Drivers/IL9341/src/ILI9341_STM32_Driver.c **** //	Library is written for STM32 HAL library and supports STM32CUBEMX. To use the library with Cube 
  35:Drivers/IL9341/src/ILI9341_STM32_Driver.c **** //	you need to tick the box that generates peripheral initialization code in their own respective .
  36:Drivers/IL9341/src/ILI9341_STM32_Driver.c **** //
  37:Drivers/IL9341/src/ILI9341_STM32_Driver.c **** //
  38:Drivers/IL9341/src/ILI9341_STM32_Driver.c **** //-----------------------------------
  39:Drivers/IL9341/src/ILI9341_STM32_Driver.c **** //	Performance
  40:Drivers/IL9341/src/ILI9341_STM32_Driver.c **** //-----------------------------------
  41:Drivers/IL9341/src/ILI9341_STM32_Driver.c **** //	Settings:	
  42:Drivers/IL9341/src/ILI9341_STM32_Driver.c **** //	--SPI @ 50MHz 
  43:Drivers/IL9341/src/ILI9341_STM32_Driver.c **** //	--STM32F746ZG Nucleo board
  44:Drivers/IL9341/src/ILI9341_STM32_Driver.c **** //	--Redraw entire screen
  45:Drivers/IL9341/src/ILI9341_STM32_Driver.c **** //
  46:Drivers/IL9341/src/ILI9341_STM32_Driver.c **** //	++		Theoretical maximum FPS with 50Mhz SPI calculated to be 40.69 FPS
  47:Drivers/IL9341/src/ILI9341_STM32_Driver.c **** //	++		320*240 = 76800 pixels, each pixel contains 16bit colour information (2x8)
  48:Drivers/IL9341/src/ILI9341_STM32_Driver.c **** //	++		Theoretical Max FPS: 1/((320*240*16)/50000000)
  49:Drivers/IL9341/src/ILI9341_STM32_Driver.c **** //
  50:Drivers/IL9341/src/ILI9341_STM32_Driver.c **** //	With ART Accelerator, instruction prefetch, CPI ICACHE and CPU DCACHE enabled:
  51:Drivers/IL9341/src/ILI9341_STM32_Driver.c **** //
  52:Drivers/IL9341/src/ILI9341_STM32_Driver.c **** //	-FPS:									39.62
  53:Drivers/IL9341/src/ILI9341_STM32_Driver.c **** //	-SPI utilization:			97.37%
  54:Drivers/IL9341/src/ILI9341_STM32_Driver.c **** //	-MB/Second:						6.09
  55:Drivers/IL9341/src/ILI9341_STM32_Driver.c **** //
  56:Drivers/IL9341/src/ILI9341_STM32_Driver.c **** //	With ART Accelerator, instruction prefetch, CPI ICACHE and CPU DCACHE disabled:
  57:Drivers/IL9341/src/ILI9341_STM32_Driver.c **** //
  58:Drivers/IL9341/src/ILI9341_STM32_Driver.c **** //	-FPS:									35.45
  59:Drivers/IL9341/src/ILI9341_STM32_Driver.c **** //	-SPI utilization:			87.12%
  60:Drivers/IL9341/src/ILI9341_STM32_Driver.c **** //	-MB/Second:						5.44
  61:Drivers/IL9341/src/ILI9341_STM32_Driver.c **** //	
ARM GAS  C:\Users\Morroway\AppData\Local\Temp\cc8F5pJm.s 			page 3


  62:Drivers/IL9341/src/ILI9341_STM32_Driver.c **** //	ART Accelerator, instruction prefetch, CPI ICACHE and CPU DCACHE settings found in MXCUBE under 
  63:Drivers/IL9341/src/ILI9341_STM32_Driver.c **** //
  64:Drivers/IL9341/src/ILI9341_STM32_Driver.c **** //
  65:Drivers/IL9341/src/ILI9341_STM32_Driver.c **** //
  66:Drivers/IL9341/src/ILI9341_STM32_Driver.c **** //-----------------------------------
  67:Drivers/IL9341/src/ILI9341_STM32_Driver.c **** //	How to use this library
  68:Drivers/IL9341/src/ILI9341_STM32_Driver.c **** //-----------------------------------
  69:Drivers/IL9341/src/ILI9341_STM32_Driver.c **** //
  70:Drivers/IL9341/src/ILI9341_STM32_Driver.c **** //	-generate SPI peripheral and 3 GPIO_SPEED_FREQ_VERY_HIGH GPIO outputs
  71:Drivers/IL9341/src/ILI9341_STM32_Driver.c **** //	 		++Library reinitializes GPIOs and SPIs generated by gpio.c/.h and spi.c/.h using MX_X_Init();
  72:Drivers/IL9341/src/ILI9341_STM32_Driver.c **** //			++reinitialization will not clash with previous initialization so generated initializations ca
  73:Drivers/IL9341/src/ILI9341_STM32_Driver.c **** //	-If using MCUs other than STM32F7 you will have to change the #include "stm32f7xx_hal.h" in the 
  74:Drivers/IL9341/src/ILI9341_STM32_Driver.c **** //	-define your HSPI_INSTANCE in ILI9341_STM32_Driver.h
  75:Drivers/IL9341/src/ILI9341_STM32_Driver.c **** //	-define your CS, DC and RST outputs in ILI9341_STM32_Driver.h
  76:Drivers/IL9341/src/ILI9341_STM32_Driver.c **** //	-check if ILI9341_SCREEN_HEIGHT and ILI9341_SCREEN_WIDTH match your LCD size
  77:Drivers/IL9341/src/ILI9341_STM32_Driver.c **** //			++Library was written and tested for 320x240 screen size. Other sizes might have issues**
  78:Drivers/IL9341/src/ILI9341_STM32_Driver.c **** //	-in your main program initialize LCD with ILI9341_Init();
  79:Drivers/IL9341/src/ILI9341_STM32_Driver.c **** //	-library is now ready to be used. Driver library has only basic functions, for more advanced fun
  80:Drivers/IL9341/src/ILI9341_STM32_Driver.c **** //
  81:Drivers/IL9341/src/ILI9341_STM32_Driver.c **** //-----------------------------------
  82:Drivers/IL9341/src/ILI9341_STM32_Driver.c **** 
  83:Drivers/IL9341/src/ILI9341_STM32_Driver.c **** /* Includes ------------------------------------------------------------------*/
  84:Drivers/IL9341/src/ILI9341_STM32_Driver.c **** #include "ILI9341_STM32_Driver.h"
  85:Drivers/IL9341/src/ILI9341_STM32_Driver.c **** // #include "spi.h"
  86:Drivers/IL9341/src/ILI9341_STM32_Driver.c **** // #include "gpio.h"
  87:Drivers/IL9341/src/ILI9341_STM32_Driver.c **** 
  88:Drivers/IL9341/src/ILI9341_STM32_Driver.c **** /* Global Variables ------------------------------------------------------------------*/
  89:Drivers/IL9341/src/ILI9341_STM32_Driver.c **** volatile uint16_t LCD_HEIGHT = ILI9341_SCREEN_HEIGHT;
  90:Drivers/IL9341/src/ILI9341_STM32_Driver.c **** volatile uint16_t LCD_WIDTH	 = ILI9341_SCREEN_WIDTH;
  91:Drivers/IL9341/src/ILI9341_STM32_Driver.c **** 
  92:Drivers/IL9341/src/ILI9341_STM32_Driver.c **** /* Initialize SPI */
  93:Drivers/IL9341/src/ILI9341_STM32_Driver.c **** void ILI9341_SPI_Init(void)
  94:Drivers/IL9341/src/ILI9341_STM32_Driver.c **** {
  55              		.loc 1 94 1
  56              		.cfi_startproc
  57              		@ args = 0, pretend = 0, frame = 0
  58              		@ frame_needed = 1, uses_anonymous_args = 0
  59 0000 80B5     		push	{r7, lr}
  60              		.cfi_def_cfa_offset 8
  61              		.cfi_offset 7, -8
  62              		.cfi_offset 14, -4
  63 0002 00AF     		add	r7, sp, #0
  64              		.cfi_def_cfa_register 7
  95:Drivers/IL9341/src/ILI9341_STM32_Driver.c **** // MX_SPI1_Init();																							//SPI INIT
  96:Drivers/IL9341/src/ILI9341_STM32_Driver.c **** // MX_GPIO_Init();																							//GPIO INIT
  97:Drivers/IL9341/src/ILI9341_STM32_Driver.c **** HAL_GPIO_WritePin(LCD_CS_PORT, LCD_CS_PIN, GPIO_PIN_RESET);	//CS OFF
  65              		.loc 1 97 1
  66 0004 0022     		movs	r2, #0
  67 0006 4FF48051 		mov	r1, #4096
  68 000a 0248     		ldr	r0, .L2
  69 000c FFF7FEFF 		bl	HAL_GPIO_WritePin
  98:Drivers/IL9341/src/ILI9341_STM32_Driver.c **** }
  70              		.loc 1 98 1
  71 0010 00BF     		nop
  72 0012 80BD     		pop	{r7, pc}
  73              	.L3:
  74              		.align	2
ARM GAS  C:\Users\Morroway\AppData\Local\Temp\cc8F5pJm.s 			page 4


  75              	.L2:
  76 0014 00180048 		.word	1207965696
  77              		.cfi_endproc
  78              	.LFE321:
  80              		.section	.text.ILI9341_SPI_Send,"ax",%progbits
  81              		.align	1
  82              		.global	ILI9341_SPI_Send
  83              		.syntax unified
  84              		.thumb
  85              		.thumb_func
  87              	ILI9341_SPI_Send:
  88              	.LFB322:
  99:Drivers/IL9341/src/ILI9341_STM32_Driver.c **** 
 100:Drivers/IL9341/src/ILI9341_STM32_Driver.c **** /*Send data (char) to LCD*/
 101:Drivers/IL9341/src/ILI9341_STM32_Driver.c **** void ILI9341_SPI_Send(unsigned char SPI_Data)
 102:Drivers/IL9341/src/ILI9341_STM32_Driver.c **** {
  89              		.loc 1 102 1
  90              		.cfi_startproc
  91              		@ args = 0, pretend = 0, frame = 8
  92              		@ frame_needed = 1, uses_anonymous_args = 0
  93 0000 80B5     		push	{r7, lr}
  94              		.cfi_def_cfa_offset 8
  95              		.cfi_offset 7, -8
  96              		.cfi_offset 14, -4
  97 0002 82B0     		sub	sp, sp, #8
  98              		.cfi_def_cfa_offset 16
  99 0004 00AF     		add	r7, sp, #0
 100              		.cfi_def_cfa_register 7
 101 0006 0346     		mov	r3, r0
 102 0008 FB71     		strb	r3, [r7, #7]
 103:Drivers/IL9341/src/ILI9341_STM32_Driver.c **** SPI_Transmit(SPI_Data, 1, 1);
 103              		.loc 1 103 1
 104 000a FB79     		ldrb	r3, [r7, #7]	@ zero_extendqisi2
 105 000c 0122     		movs	r2, #1
 106 000e 0121     		movs	r1, #1
 107 0010 1846     		mov	r0, r3
 108 0012 FFF7FEFF 		bl	SPI_Transmit
 104:Drivers/IL9341/src/ILI9341_STM32_Driver.c **** }
 109              		.loc 1 104 1
 110 0016 00BF     		nop
 111 0018 0837     		adds	r7, r7, #8
 112              		.cfi_def_cfa_offset 8
 113 001a BD46     		mov	sp, r7
 114              		.cfi_def_cfa_register 13
 115              		@ sp needed
 116 001c 80BD     		pop	{r7, pc}
 117              		.cfi_endproc
 118              	.LFE322:
 120              		.section	.text.ILI9341_Write_Command,"ax",%progbits
 121              		.align	1
 122              		.global	ILI9341_Write_Command
 123              		.syntax unified
 124              		.thumb
 125              		.thumb_func
 127              	ILI9341_Write_Command:
 128              	.LFB323:
 105:Drivers/IL9341/src/ILI9341_STM32_Driver.c **** 
ARM GAS  C:\Users\Morroway\AppData\Local\Temp\cc8F5pJm.s 			page 5


 106:Drivers/IL9341/src/ILI9341_STM32_Driver.c **** /* Send command (char) to LCD */
 107:Drivers/IL9341/src/ILI9341_STM32_Driver.c **** void ILI9341_Write_Command(uint8_t Command)
 108:Drivers/IL9341/src/ILI9341_STM32_Driver.c **** {
 129              		.loc 1 108 1
 130              		.cfi_startproc
 131              		@ args = 0, pretend = 0, frame = 8
 132              		@ frame_needed = 1, uses_anonymous_args = 0
 133 0000 80B5     		push	{r7, lr}
 134              		.cfi_def_cfa_offset 8
 135              		.cfi_offset 7, -8
 136              		.cfi_offset 14, -4
 137 0002 82B0     		sub	sp, sp, #8
 138              		.cfi_def_cfa_offset 16
 139 0004 00AF     		add	r7, sp, #0
 140              		.cfi_def_cfa_register 7
 141 0006 0346     		mov	r3, r0
 142 0008 FB71     		strb	r3, [r7, #7]
 109:Drivers/IL9341/src/ILI9341_STM32_Driver.c **** HAL_GPIO_WritePin(LCD_CS_PORT, LCD_CS_PIN, GPIO_PIN_RESET);
 143              		.loc 1 109 1
 144 000a 0022     		movs	r2, #0
 145 000c 4FF48051 		mov	r1, #4096
 146 0010 0B48     		ldr	r0, .L6
 147 0012 FFF7FEFF 		bl	HAL_GPIO_WritePin
 110:Drivers/IL9341/src/ILI9341_STM32_Driver.c **** HAL_GPIO_WritePin(LCD_DC_PORT, LCD_DC_PIN, GPIO_PIN_RESET);	
 148              		.loc 1 110 1
 149 0016 0022     		movs	r2, #0
 150 0018 4FF40051 		mov	r1, #8192
 151 001c 0848     		ldr	r0, .L6
 152 001e FFF7FEFF 		bl	HAL_GPIO_WritePin
 111:Drivers/IL9341/src/ILI9341_STM32_Driver.c **** ILI9341_SPI_Send(Command);
 153              		.loc 1 111 1
 154 0022 FB79     		ldrb	r3, [r7, #7]	@ zero_extendqisi2
 155 0024 1846     		mov	r0, r3
 156 0026 FFF7FEFF 		bl	ILI9341_SPI_Send
 112:Drivers/IL9341/src/ILI9341_STM32_Driver.c **** HAL_GPIO_WritePin(LCD_CS_PORT, LCD_CS_PIN, GPIO_PIN_SET);		
 157              		.loc 1 112 1
 158 002a 0122     		movs	r2, #1
 159 002c 4FF48051 		mov	r1, #4096
 160 0030 0348     		ldr	r0, .L6
 161 0032 FFF7FEFF 		bl	HAL_GPIO_WritePin
 113:Drivers/IL9341/src/ILI9341_STM32_Driver.c **** }
 162              		.loc 1 113 1
 163 0036 00BF     		nop
 164 0038 0837     		adds	r7, r7, #8
 165              		.cfi_def_cfa_offset 8
 166 003a BD46     		mov	sp, r7
 167              		.cfi_def_cfa_register 13
 168              		@ sp needed
 169 003c 80BD     		pop	{r7, pc}
 170              	.L7:
 171 003e 00BF     		.align	2
 172              	.L6:
 173 0040 00180048 		.word	1207965696
 174              		.cfi_endproc
 175              	.LFE323:
 177              		.section	.text.ILI9341_Write_Data,"ax",%progbits
 178              		.align	1
ARM GAS  C:\Users\Morroway\AppData\Local\Temp\cc8F5pJm.s 			page 6


 179              		.global	ILI9341_Write_Data
 180              		.syntax unified
 181              		.thumb
 182              		.thumb_func
 184              	ILI9341_Write_Data:
 185              	.LFB324:
 114:Drivers/IL9341/src/ILI9341_STM32_Driver.c **** 
 115:Drivers/IL9341/src/ILI9341_STM32_Driver.c **** /* Send Data (char) to LCD */
 116:Drivers/IL9341/src/ILI9341_STM32_Driver.c **** void ILI9341_Write_Data(uint8_t Data)
 117:Drivers/IL9341/src/ILI9341_STM32_Driver.c **** {
 186              		.loc 1 117 1
 187              		.cfi_startproc
 188              		@ args = 0, pretend = 0, frame = 8
 189              		@ frame_needed = 1, uses_anonymous_args = 0
 190 0000 80B5     		push	{r7, lr}
 191              		.cfi_def_cfa_offset 8
 192              		.cfi_offset 7, -8
 193              		.cfi_offset 14, -4
 194 0002 82B0     		sub	sp, sp, #8
 195              		.cfi_def_cfa_offset 16
 196 0004 00AF     		add	r7, sp, #0
 197              		.cfi_def_cfa_register 7
 198 0006 0346     		mov	r3, r0
 199 0008 FB71     		strb	r3, [r7, #7]
 118:Drivers/IL9341/src/ILI9341_STM32_Driver.c **** HAL_GPIO_WritePin(LCD_DC_PORT, LCD_DC_PIN, GPIO_PIN_SET);	
 200              		.loc 1 118 1
 201 000a 0122     		movs	r2, #1
 202 000c 4FF40051 		mov	r1, #8192
 203 0010 0B48     		ldr	r0, .L9
 204 0012 FFF7FEFF 		bl	HAL_GPIO_WritePin
 119:Drivers/IL9341/src/ILI9341_STM32_Driver.c **** HAL_GPIO_WritePin(LCD_CS_PORT, LCD_CS_PIN, GPIO_PIN_RESET);
 205              		.loc 1 119 1
 206 0016 0022     		movs	r2, #0
 207 0018 4FF48051 		mov	r1, #4096
 208 001c 0848     		ldr	r0, .L9
 209 001e FFF7FEFF 		bl	HAL_GPIO_WritePin
 120:Drivers/IL9341/src/ILI9341_STM32_Driver.c **** ILI9341_SPI_Send(Data);	
 210              		.loc 1 120 1
 211 0022 FB79     		ldrb	r3, [r7, #7]	@ zero_extendqisi2
 212 0024 1846     		mov	r0, r3
 213 0026 FFF7FEFF 		bl	ILI9341_SPI_Send
 121:Drivers/IL9341/src/ILI9341_STM32_Driver.c **** HAL_GPIO_WritePin(LCD_CS_PORT, LCD_CS_PIN, GPIO_PIN_SET);
 214              		.loc 1 121 1
 215 002a 0122     		movs	r2, #1
 216 002c 4FF48051 		mov	r1, #4096
 217 0030 0348     		ldr	r0, .L9
 218 0032 FFF7FEFF 		bl	HAL_GPIO_WritePin
 122:Drivers/IL9341/src/ILI9341_STM32_Driver.c **** }
 219              		.loc 1 122 1
 220 0036 00BF     		nop
 221 0038 0837     		adds	r7, r7, #8
 222              		.cfi_def_cfa_offset 8
 223 003a BD46     		mov	sp, r7
 224              		.cfi_def_cfa_register 13
 225              		@ sp needed
 226 003c 80BD     		pop	{r7, pc}
 227              	.L10:
ARM GAS  C:\Users\Morroway\AppData\Local\Temp\cc8F5pJm.s 			page 7


 228 003e 00BF     		.align	2
 229              	.L9:
 230 0040 00180048 		.word	1207965696
 231              		.cfi_endproc
 232              	.LFE324:
 234              		.section	.text.ILI9341_Set_Address,"ax",%progbits
 235              		.align	1
 236              		.global	ILI9341_Set_Address
 237              		.syntax unified
 238              		.thumb
 239              		.thumb_func
 241              	ILI9341_Set_Address:
 242              	.LFB325:
 123:Drivers/IL9341/src/ILI9341_STM32_Driver.c **** 
 124:Drivers/IL9341/src/ILI9341_STM32_Driver.c **** /* Set Address - Location block - to draw into */
 125:Drivers/IL9341/src/ILI9341_STM32_Driver.c **** void ILI9341_Set_Address(uint16_t X1, uint16_t Y1, uint16_t X2, uint16_t Y2)
 126:Drivers/IL9341/src/ILI9341_STM32_Driver.c **** {
 243              		.loc 1 126 1
 244              		.cfi_startproc
 245              		@ args = 0, pretend = 0, frame = 8
 246              		@ frame_needed = 1, uses_anonymous_args = 0
 247 0000 90B5     		push	{r4, r7, lr}
 248              		.cfi_def_cfa_offset 12
 249              		.cfi_offset 4, -12
 250              		.cfi_offset 7, -8
 251              		.cfi_offset 14, -4
 252 0002 83B0     		sub	sp, sp, #12
 253              		.cfi_def_cfa_offset 24
 254 0004 00AF     		add	r7, sp, #0
 255              		.cfi_def_cfa_register 7
 256 0006 0446     		mov	r4, r0
 257 0008 0846     		mov	r0, r1
 258 000a 1146     		mov	r1, r2
 259 000c 1A46     		mov	r2, r3
 260 000e 2346     		mov	r3, r4	@ movhi
 261 0010 FB80     		strh	r3, [r7, #6]	@ movhi
 262 0012 0346     		mov	r3, r0	@ movhi
 263 0014 BB80     		strh	r3, [r7, #4]	@ movhi
 264 0016 0B46     		mov	r3, r1	@ movhi
 265 0018 7B80     		strh	r3, [r7, #2]	@ movhi
 266 001a 1346     		mov	r3, r2	@ movhi
 267 001c 3B80     		strh	r3, [r7]	@ movhi
 127:Drivers/IL9341/src/ILI9341_STM32_Driver.c **** ILI9341_Write_Command(0x2A);
 268              		.loc 1 127 1
 269 001e 2A20     		movs	r0, #42
 270 0020 FFF7FEFF 		bl	ILI9341_Write_Command
 128:Drivers/IL9341/src/ILI9341_STM32_Driver.c **** ILI9341_Write_Data(X1>>8);
 271              		.loc 1 128 1
 272 0024 FB88     		ldrh	r3, [r7, #6]
 273 0026 1B0A     		lsrs	r3, r3, #8
 274 0028 9BB2     		uxth	r3, r3
 275 002a DBB2     		uxtb	r3, r3
 276 002c 1846     		mov	r0, r3
 277 002e FFF7FEFF 		bl	ILI9341_Write_Data
 129:Drivers/IL9341/src/ILI9341_STM32_Driver.c **** ILI9341_Write_Data(X1);
 278              		.loc 1 129 1
 279 0032 FB88     		ldrh	r3, [r7, #6]	@ movhi
ARM GAS  C:\Users\Morroway\AppData\Local\Temp\cc8F5pJm.s 			page 8


 280 0034 DBB2     		uxtb	r3, r3
 281 0036 1846     		mov	r0, r3
 282 0038 FFF7FEFF 		bl	ILI9341_Write_Data
 130:Drivers/IL9341/src/ILI9341_STM32_Driver.c **** ILI9341_Write_Data(X2>>8);
 283              		.loc 1 130 1
 284 003c 7B88     		ldrh	r3, [r7, #2]
 285 003e 1B0A     		lsrs	r3, r3, #8
 286 0040 9BB2     		uxth	r3, r3
 287 0042 DBB2     		uxtb	r3, r3
 288 0044 1846     		mov	r0, r3
 289 0046 FFF7FEFF 		bl	ILI9341_Write_Data
 131:Drivers/IL9341/src/ILI9341_STM32_Driver.c **** ILI9341_Write_Data(X2);
 290              		.loc 1 131 1
 291 004a 7B88     		ldrh	r3, [r7, #2]	@ movhi
 292 004c DBB2     		uxtb	r3, r3
 293 004e 1846     		mov	r0, r3
 294 0050 FFF7FEFF 		bl	ILI9341_Write_Data
 132:Drivers/IL9341/src/ILI9341_STM32_Driver.c **** 
 133:Drivers/IL9341/src/ILI9341_STM32_Driver.c **** ILI9341_Write_Command(0x2B);
 295              		.loc 1 133 1
 296 0054 2B20     		movs	r0, #43
 297 0056 FFF7FEFF 		bl	ILI9341_Write_Command
 134:Drivers/IL9341/src/ILI9341_STM32_Driver.c **** ILI9341_Write_Data(Y1>>8);
 298              		.loc 1 134 1
 299 005a BB88     		ldrh	r3, [r7, #4]
 300 005c 1B0A     		lsrs	r3, r3, #8
 301 005e 9BB2     		uxth	r3, r3
 302 0060 DBB2     		uxtb	r3, r3
 303 0062 1846     		mov	r0, r3
 304 0064 FFF7FEFF 		bl	ILI9341_Write_Data
 135:Drivers/IL9341/src/ILI9341_STM32_Driver.c **** ILI9341_Write_Data(Y1);
 305              		.loc 1 135 1
 306 0068 BB88     		ldrh	r3, [r7, #4]	@ movhi
 307 006a DBB2     		uxtb	r3, r3
 308 006c 1846     		mov	r0, r3
 309 006e FFF7FEFF 		bl	ILI9341_Write_Data
 136:Drivers/IL9341/src/ILI9341_STM32_Driver.c **** ILI9341_Write_Data(Y2>>8);
 310              		.loc 1 136 1
 311 0072 3B88     		ldrh	r3, [r7]
 312 0074 1B0A     		lsrs	r3, r3, #8
 313 0076 9BB2     		uxth	r3, r3
 314 0078 DBB2     		uxtb	r3, r3
 315 007a 1846     		mov	r0, r3
 316 007c FFF7FEFF 		bl	ILI9341_Write_Data
 137:Drivers/IL9341/src/ILI9341_STM32_Driver.c **** ILI9341_Write_Data(Y2);
 317              		.loc 1 137 1
 318 0080 3B88     		ldrh	r3, [r7]	@ movhi
 319 0082 DBB2     		uxtb	r3, r3
 320 0084 1846     		mov	r0, r3
 321 0086 FFF7FEFF 		bl	ILI9341_Write_Data
 138:Drivers/IL9341/src/ILI9341_STM32_Driver.c **** 
 139:Drivers/IL9341/src/ILI9341_STM32_Driver.c **** ILI9341_Write_Command(0x2C);
 322              		.loc 1 139 1
 323 008a 2C20     		movs	r0, #44
 324 008c FFF7FEFF 		bl	ILI9341_Write_Command
 140:Drivers/IL9341/src/ILI9341_STM32_Driver.c **** }
 325              		.loc 1 140 1
ARM GAS  C:\Users\Morroway\AppData\Local\Temp\cc8F5pJm.s 			page 9


 326 0090 00BF     		nop
 327 0092 0C37     		adds	r7, r7, #12
 328              		.cfi_def_cfa_offset 12
 329 0094 BD46     		mov	sp, r7
 330              		.cfi_def_cfa_register 13
 331              		@ sp needed
 332 0096 90BD     		pop	{r4, r7, pc}
 333              		.cfi_endproc
 334              	.LFE325:
 336              		.section	.text.ILI9341_Reset,"ax",%progbits
 337              		.align	1
 338              		.global	ILI9341_Reset
 339              		.syntax unified
 340              		.thumb
 341              		.thumb_func
 343              	ILI9341_Reset:
 344              	.LFB326:
 141:Drivers/IL9341/src/ILI9341_STM32_Driver.c **** 
 142:Drivers/IL9341/src/ILI9341_STM32_Driver.c **** /*HARDWARE RESET*/
 143:Drivers/IL9341/src/ILI9341_STM32_Driver.c **** void ILI9341_Reset(void)
 144:Drivers/IL9341/src/ILI9341_STM32_Driver.c **** {
 345              		.loc 1 144 1
 346              		.cfi_startproc
 347              		@ args = 0, pretend = 0, frame = 0
 348              		@ frame_needed = 1, uses_anonymous_args = 0
 349 0000 80B5     		push	{r7, lr}
 350              		.cfi_def_cfa_offset 8
 351              		.cfi_offset 7, -8
 352              		.cfi_offset 14, -4
 353 0002 00AF     		add	r7, sp, #0
 354              		.cfi_def_cfa_register 7
 145:Drivers/IL9341/src/ILI9341_STM32_Driver.c **** HAL_GPIO_WritePin(LCD_RST_PORT, LCD_RST_PIN, GPIO_PIN_SET);
 355              		.loc 1 145 1
 356 0004 0122     		movs	r2, #1
 357 0006 4FF48041 		mov	r1, #16384
 358 000a 0B48     		ldr	r0, .L13
 359 000c FFF7FEFF 		bl	HAL_GPIO_WritePin
 146:Drivers/IL9341/src/ILI9341_STM32_Driver.c **** HAL_Delay(200);
 360              		.loc 1 146 1
 361 0010 C820     		movs	r0, #200
 362 0012 FFF7FEFF 		bl	HAL_Delay
 147:Drivers/IL9341/src/ILI9341_STM32_Driver.c **** HAL_GPIO_WritePin(LCD_CS_PORT, LCD_CS_PIN, GPIO_PIN_RESET);
 363              		.loc 1 147 1
 364 0016 0022     		movs	r2, #0
 365 0018 4FF48051 		mov	r1, #4096
 366 001c 0648     		ldr	r0, .L13
 367 001e FFF7FEFF 		bl	HAL_GPIO_WritePin
 148:Drivers/IL9341/src/ILI9341_STM32_Driver.c **** HAL_Delay(200);
 368              		.loc 1 148 1
 369 0022 C820     		movs	r0, #200
 370 0024 FFF7FEFF 		bl	HAL_Delay
 149:Drivers/IL9341/src/ILI9341_STM32_Driver.c **** HAL_GPIO_WritePin(LCD_RST_PORT, LCD_RST_PIN, GPIO_PIN_SET);	
 371              		.loc 1 149 1
 372 0028 0122     		movs	r2, #1
 373 002a 4FF48041 		mov	r1, #16384
 374 002e 0248     		ldr	r0, .L13
 375 0030 FFF7FEFF 		bl	HAL_GPIO_WritePin
ARM GAS  C:\Users\Morroway\AppData\Local\Temp\cc8F5pJm.s 			page 10


 150:Drivers/IL9341/src/ILI9341_STM32_Driver.c **** }
 376              		.loc 1 150 1
 377 0034 00BF     		nop
 378 0036 80BD     		pop	{r7, pc}
 379              	.L14:
 380              		.align	2
 381              	.L13:
 382 0038 00180048 		.word	1207965696
 383              		.cfi_endproc
 384              	.LFE326:
 386              		.section	.text.ILI9341_Set_Rotation,"ax",%progbits
 387              		.align	1
 388              		.global	ILI9341_Set_Rotation
 389              		.syntax unified
 390              		.thumb
 391              		.thumb_func
 393              	ILI9341_Set_Rotation:
 394              	.LFB327:
 151:Drivers/IL9341/src/ILI9341_STM32_Driver.c **** 
 152:Drivers/IL9341/src/ILI9341_STM32_Driver.c **** /*Ser rotation of the screen - changes x0 and y0*/
 153:Drivers/IL9341/src/ILI9341_STM32_Driver.c **** void ILI9341_Set_Rotation(uint8_t Rotation) 
 154:Drivers/IL9341/src/ILI9341_STM32_Driver.c **** {
 395              		.loc 1 154 1
 396              		.cfi_startproc
 397              		@ args = 0, pretend = 0, frame = 16
 398              		@ frame_needed = 1, uses_anonymous_args = 0
 399 0000 80B5     		push	{r7, lr}
 400              		.cfi_def_cfa_offset 8
 401              		.cfi_offset 7, -8
 402              		.cfi_offset 14, -4
 403 0002 84B0     		sub	sp, sp, #16
 404              		.cfi_def_cfa_offset 24
 405 0004 00AF     		add	r7, sp, #0
 406              		.cfi_def_cfa_register 7
 407 0006 0346     		mov	r3, r0
 408 0008 FB71     		strb	r3, [r7, #7]
 155:Drivers/IL9341/src/ILI9341_STM32_Driver.c **** 	
 156:Drivers/IL9341/src/ILI9341_STM32_Driver.c **** uint8_t screen_rotation = Rotation;
 409              		.loc 1 156 9
 410 000a FB79     		ldrb	r3, [r7, #7]
 411 000c FB73     		strb	r3, [r7, #15]
 157:Drivers/IL9341/src/ILI9341_STM32_Driver.c **** 
 158:Drivers/IL9341/src/ILI9341_STM32_Driver.c **** ILI9341_Write_Command(0x36);
 412              		.loc 1 158 1
 413 000e 3620     		movs	r0, #54
 414 0010 FFF7FEFF 		bl	ILI9341_Write_Command
 159:Drivers/IL9341/src/ILI9341_STM32_Driver.c **** HAL_Delay(1);
 415              		.loc 1 159 1
 416 0014 0120     		movs	r0, #1
 417 0016 FFF7FEFF 		bl	HAL_Delay
 160:Drivers/IL9341/src/ILI9341_STM32_Driver.c **** 	
 161:Drivers/IL9341/src/ILI9341_STM32_Driver.c **** switch(screen_rotation) 
 418              		.loc 1 161 1
 419 001a FB7B     		ldrb	r3, [r7, #15]	@ zero_extendqisi2
 420 001c 032B     		cmp	r3, #3
 421 001e 37D8     		bhi	.L23
 422 0020 01A2     		adr	r2, .L18
ARM GAS  C:\Users\Morroway\AppData\Local\Temp\cc8F5pJm.s 			page 11


 423 0022 52F823F0 		ldr	pc, [r2, r3, lsl #2]
 424 0026 00BF     		.p2align 2
 425              	.L18:
 426 0028 39000000 		.word	.L21+1
 427 002c 4F000000 		.word	.L20+1
 428 0030 65000000 		.word	.L19+1
 429 0034 7B000000 		.word	.L17+1
 430              		.p2align 1
 431              	.L21:
 162:Drivers/IL9341/src/ILI9341_STM32_Driver.c **** 	{
 163:Drivers/IL9341/src/ILI9341_STM32_Driver.c **** 		case SCREEN_VERTICAL_1:
 164:Drivers/IL9341/src/ILI9341_STM32_Driver.c **** 			ILI9341_Write_Data(0x40|0x08);
 432              		.loc 1 164 4
 433 0038 4820     		movs	r0, #72
 434 003a FFF7FEFF 		bl	ILI9341_Write_Data
 165:Drivers/IL9341/src/ILI9341_STM32_Driver.c **** 			LCD_WIDTH = 240;
 435              		.loc 1 165 14
 436 003e 174B     		ldr	r3, .L24
 437 0040 F022     		movs	r2, #240
 438 0042 1A80     		strh	r2, [r3]	@ movhi
 166:Drivers/IL9341/src/ILI9341_STM32_Driver.c **** 			LCD_HEIGHT = 320;
 439              		.loc 1 166 15
 440 0044 164B     		ldr	r3, .L24+4
 441 0046 4FF4A072 		mov	r2, #320
 442 004a 1A80     		strh	r2, [r3]	@ movhi
 167:Drivers/IL9341/src/ILI9341_STM32_Driver.c **** 			break;
 443              		.loc 1 167 4
 444 004c 21E0     		b	.L22
 445              	.L20:
 168:Drivers/IL9341/src/ILI9341_STM32_Driver.c **** 		case SCREEN_HORIZONTAL_1:
 169:Drivers/IL9341/src/ILI9341_STM32_Driver.c **** 			ILI9341_Write_Data(0x20|0x08);
 446              		.loc 1 169 4
 447 004e 2820     		movs	r0, #40
 448 0050 FFF7FEFF 		bl	ILI9341_Write_Data
 170:Drivers/IL9341/src/ILI9341_STM32_Driver.c **** 			LCD_WIDTH  = 320;
 449              		.loc 1 170 15
 450 0054 114B     		ldr	r3, .L24
 451 0056 4FF4A072 		mov	r2, #320
 452 005a 1A80     		strh	r2, [r3]	@ movhi
 171:Drivers/IL9341/src/ILI9341_STM32_Driver.c **** 			LCD_HEIGHT = 240;
 453              		.loc 1 171 15
 454 005c 104B     		ldr	r3, .L24+4
 455 005e F022     		movs	r2, #240
 456 0060 1A80     		strh	r2, [r3]	@ movhi
 172:Drivers/IL9341/src/ILI9341_STM32_Driver.c **** 			break;
 457              		.loc 1 172 4
 458 0062 16E0     		b	.L22
 459              	.L19:
 173:Drivers/IL9341/src/ILI9341_STM32_Driver.c **** 		case SCREEN_VERTICAL_2:
 174:Drivers/IL9341/src/ILI9341_STM32_Driver.c **** 			ILI9341_Write_Data(0x80|0x08);
 460              		.loc 1 174 4
 461 0064 8820     		movs	r0, #136
 462 0066 FFF7FEFF 		bl	ILI9341_Write_Data
 175:Drivers/IL9341/src/ILI9341_STM32_Driver.c **** 			LCD_WIDTH  = 240;
 463              		.loc 1 175 15
 464 006a 0C4B     		ldr	r3, .L24
 465 006c F022     		movs	r2, #240
ARM GAS  C:\Users\Morroway\AppData\Local\Temp\cc8F5pJm.s 			page 12


 466 006e 1A80     		strh	r2, [r3]	@ movhi
 176:Drivers/IL9341/src/ILI9341_STM32_Driver.c **** 			LCD_HEIGHT = 320;
 467              		.loc 1 176 15
 468 0070 0B4B     		ldr	r3, .L24+4
 469 0072 4FF4A072 		mov	r2, #320
 470 0076 1A80     		strh	r2, [r3]	@ movhi
 177:Drivers/IL9341/src/ILI9341_STM32_Driver.c **** 			break;
 471              		.loc 1 177 4
 472 0078 0BE0     		b	.L22
 473              	.L17:
 178:Drivers/IL9341/src/ILI9341_STM32_Driver.c **** 		case SCREEN_HORIZONTAL_2:
 179:Drivers/IL9341/src/ILI9341_STM32_Driver.c **** 			ILI9341_Write_Data(0x40|0x80|0x20|0x08);
 474              		.loc 1 179 4
 475 007a E820     		movs	r0, #232
 476 007c FFF7FEFF 		bl	ILI9341_Write_Data
 180:Drivers/IL9341/src/ILI9341_STM32_Driver.c **** 			LCD_WIDTH  = 320;
 477              		.loc 1 180 15
 478 0080 064B     		ldr	r3, .L24
 479 0082 4FF4A072 		mov	r2, #320
 480 0086 1A80     		strh	r2, [r3]	@ movhi
 181:Drivers/IL9341/src/ILI9341_STM32_Driver.c **** 			LCD_HEIGHT = 240;
 481              		.loc 1 181 15
 482 0088 054B     		ldr	r3, .L24+4
 483 008a F022     		movs	r2, #240
 484 008c 1A80     		strh	r2, [r3]	@ movhi
 182:Drivers/IL9341/src/ILI9341_STM32_Driver.c **** 			break;
 485              		.loc 1 182 4
 486 008e 00E0     		b	.L22
 487              	.L23:
 183:Drivers/IL9341/src/ILI9341_STM32_Driver.c **** 		default:
 184:Drivers/IL9341/src/ILI9341_STM32_Driver.c **** 			//EXIT IF SCREEN ROTATION NOT VALID!
 185:Drivers/IL9341/src/ILI9341_STM32_Driver.c **** 			break;
 488              		.loc 1 185 4
 489 0090 00BF     		nop
 490              	.L22:
 186:Drivers/IL9341/src/ILI9341_STM32_Driver.c **** 	}
 187:Drivers/IL9341/src/ILI9341_STM32_Driver.c **** }
 491              		.loc 1 187 1
 492 0092 00BF     		nop
 493 0094 1037     		adds	r7, r7, #16
 494              		.cfi_def_cfa_offset 8
 495 0096 BD46     		mov	sp, r7
 496              		.cfi_def_cfa_register 13
 497              		@ sp needed
 498 0098 80BD     		pop	{r7, pc}
 499              	.L25:
 500 009a 00BF     		.align	2
 501              	.L24:
 502 009c 00000000 		.word	LCD_WIDTH
 503 00a0 00000000 		.word	LCD_HEIGHT
 504              		.cfi_endproc
 505              	.LFE327:
 507              		.section	.text.ILI9341_Enable,"ax",%progbits
 508              		.align	1
 509              		.global	ILI9341_Enable
 510              		.syntax unified
 511              		.thumb
ARM GAS  C:\Users\Morroway\AppData\Local\Temp\cc8F5pJm.s 			page 13


 512              		.thumb_func
 514              	ILI9341_Enable:
 515              	.LFB328:
 188:Drivers/IL9341/src/ILI9341_STM32_Driver.c **** 
 189:Drivers/IL9341/src/ILI9341_STM32_Driver.c **** /*Enable LCD display*/
 190:Drivers/IL9341/src/ILI9341_STM32_Driver.c **** void ILI9341_Enable(void)
 191:Drivers/IL9341/src/ILI9341_STM32_Driver.c **** {
 516              		.loc 1 191 1
 517              		.cfi_startproc
 518              		@ args = 0, pretend = 0, frame = 0
 519              		@ frame_needed = 1, uses_anonymous_args = 0
 520 0000 80B5     		push	{r7, lr}
 521              		.cfi_def_cfa_offset 8
 522              		.cfi_offset 7, -8
 523              		.cfi_offset 14, -4
 524 0002 00AF     		add	r7, sp, #0
 525              		.cfi_def_cfa_register 7
 192:Drivers/IL9341/src/ILI9341_STM32_Driver.c **** HAL_GPIO_WritePin(LCD_RST_PORT, LCD_RST_PIN, GPIO_PIN_SET);
 526              		.loc 1 192 1
 527 0004 0122     		movs	r2, #1
 528 0006 4FF48041 		mov	r1, #16384
 529 000a 0248     		ldr	r0, .L27
 530 000c FFF7FEFF 		bl	HAL_GPIO_WritePin
 193:Drivers/IL9341/src/ILI9341_STM32_Driver.c **** }
 531              		.loc 1 193 1
 532 0010 00BF     		nop
 533 0012 80BD     		pop	{r7, pc}
 534              	.L28:
 535              		.align	2
 536              	.L27:
 537 0014 00180048 		.word	1207965696
 538              		.cfi_endproc
 539              	.LFE328:
 541              		.section	.text.ILI9341_Init,"ax",%progbits
 542              		.align	1
 543              		.global	ILI9341_Init
 544              		.syntax unified
 545              		.thumb
 546              		.thumb_func
 548              	ILI9341_Init:
 549              	.LFB329:
 194:Drivers/IL9341/src/ILI9341_STM32_Driver.c **** 
 195:Drivers/IL9341/src/ILI9341_STM32_Driver.c **** /*Initialize LCD display*/
 196:Drivers/IL9341/src/ILI9341_STM32_Driver.c **** void ILI9341_Init(void)
 197:Drivers/IL9341/src/ILI9341_STM32_Driver.c **** {
 550              		.loc 1 197 1
 551              		.cfi_startproc
 552              		@ args = 0, pretend = 0, frame = 0
 553              		@ frame_needed = 1, uses_anonymous_args = 0
 554 0000 80B5     		push	{r7, lr}
 555              		.cfi_def_cfa_offset 8
 556              		.cfi_offset 7, -8
 557              		.cfi_offset 14, -4
 558 0002 00AF     		add	r7, sp, #0
 559              		.cfi_def_cfa_register 7
 198:Drivers/IL9341/src/ILI9341_STM32_Driver.c **** 
 199:Drivers/IL9341/src/ILI9341_STM32_Driver.c **** ILI9341_Enable();
ARM GAS  C:\Users\Morroway\AppData\Local\Temp\cc8F5pJm.s 			page 14


 560              		.loc 1 199 1
 561 0004 FFF7FEFF 		bl	ILI9341_Enable
 200:Drivers/IL9341/src/ILI9341_STM32_Driver.c **** ILI9341_SPI_Init();
 562              		.loc 1 200 1
 563 0008 FFF7FEFF 		bl	ILI9341_SPI_Init
 201:Drivers/IL9341/src/ILI9341_STM32_Driver.c **** ILI9341_Reset();
 564              		.loc 1 201 1
 565 000c FFF7FEFF 		bl	ILI9341_Reset
 202:Drivers/IL9341/src/ILI9341_STM32_Driver.c **** 
 203:Drivers/IL9341/src/ILI9341_STM32_Driver.c **** //SOFTWARE RESET
 204:Drivers/IL9341/src/ILI9341_STM32_Driver.c **** ILI9341_Write_Command(0x01);
 566              		.loc 1 204 1
 567 0010 0120     		movs	r0, #1
 568 0012 FFF7FEFF 		bl	ILI9341_Write_Command
 205:Drivers/IL9341/src/ILI9341_STM32_Driver.c **** HAL_Delay(1000);
 569              		.loc 1 205 1
 570 0016 4FF47A70 		mov	r0, #1000
 571 001a FFF7FEFF 		bl	HAL_Delay
 206:Drivers/IL9341/src/ILI9341_STM32_Driver.c **** 	
 207:Drivers/IL9341/src/ILI9341_STM32_Driver.c **** //POWER CONTROL A
 208:Drivers/IL9341/src/ILI9341_STM32_Driver.c **** ILI9341_Write_Command(0xCB);
 572              		.loc 1 208 1
 573 001e CB20     		movs	r0, #203
 574 0020 FFF7FEFF 		bl	ILI9341_Write_Command
 209:Drivers/IL9341/src/ILI9341_STM32_Driver.c **** ILI9341_Write_Data(0x39);
 575              		.loc 1 209 1
 576 0024 3920     		movs	r0, #57
 577 0026 FFF7FEFF 		bl	ILI9341_Write_Data
 210:Drivers/IL9341/src/ILI9341_STM32_Driver.c **** ILI9341_Write_Data(0x2C);
 578              		.loc 1 210 1
 579 002a 2C20     		movs	r0, #44
 580 002c FFF7FEFF 		bl	ILI9341_Write_Data
 211:Drivers/IL9341/src/ILI9341_STM32_Driver.c **** ILI9341_Write_Data(0x00);
 581              		.loc 1 211 1
 582 0030 0020     		movs	r0, #0
 583 0032 FFF7FEFF 		bl	ILI9341_Write_Data
 212:Drivers/IL9341/src/ILI9341_STM32_Driver.c **** ILI9341_Write_Data(0x34);
 584              		.loc 1 212 1
 585 0036 3420     		movs	r0, #52
 586 0038 FFF7FEFF 		bl	ILI9341_Write_Data
 213:Drivers/IL9341/src/ILI9341_STM32_Driver.c **** ILI9341_Write_Data(0x02);
 587              		.loc 1 213 1
 588 003c 0220     		movs	r0, #2
 589 003e FFF7FEFF 		bl	ILI9341_Write_Data
 214:Drivers/IL9341/src/ILI9341_STM32_Driver.c **** 
 215:Drivers/IL9341/src/ILI9341_STM32_Driver.c **** //POWER CONTROL B
 216:Drivers/IL9341/src/ILI9341_STM32_Driver.c **** ILI9341_Write_Command(0xCF);
 590              		.loc 1 216 1
 591 0042 CF20     		movs	r0, #207
 592 0044 FFF7FEFF 		bl	ILI9341_Write_Command
 217:Drivers/IL9341/src/ILI9341_STM32_Driver.c **** ILI9341_Write_Data(0x00);
 593              		.loc 1 217 1
 594 0048 0020     		movs	r0, #0
 595 004a FFF7FEFF 		bl	ILI9341_Write_Data
 218:Drivers/IL9341/src/ILI9341_STM32_Driver.c **** ILI9341_Write_Data(0xC1);
 596              		.loc 1 218 1
 597 004e C120     		movs	r0, #193
ARM GAS  C:\Users\Morroway\AppData\Local\Temp\cc8F5pJm.s 			page 15


 598 0050 FFF7FEFF 		bl	ILI9341_Write_Data
 219:Drivers/IL9341/src/ILI9341_STM32_Driver.c **** ILI9341_Write_Data(0x30);
 599              		.loc 1 219 1
 600 0054 3020     		movs	r0, #48
 601 0056 FFF7FEFF 		bl	ILI9341_Write_Data
 220:Drivers/IL9341/src/ILI9341_STM32_Driver.c **** 
 221:Drivers/IL9341/src/ILI9341_STM32_Driver.c **** //DRIVER TIMING CONTROL A
 222:Drivers/IL9341/src/ILI9341_STM32_Driver.c **** ILI9341_Write_Command(0xE8);
 602              		.loc 1 222 1
 603 005a E820     		movs	r0, #232
 604 005c FFF7FEFF 		bl	ILI9341_Write_Command
 223:Drivers/IL9341/src/ILI9341_STM32_Driver.c **** ILI9341_Write_Data(0x85);
 605              		.loc 1 223 1
 606 0060 8520     		movs	r0, #133
 607 0062 FFF7FEFF 		bl	ILI9341_Write_Data
 224:Drivers/IL9341/src/ILI9341_STM32_Driver.c **** ILI9341_Write_Data(0x00);
 608              		.loc 1 224 1
 609 0066 0020     		movs	r0, #0
 610 0068 FFF7FEFF 		bl	ILI9341_Write_Data
 225:Drivers/IL9341/src/ILI9341_STM32_Driver.c **** ILI9341_Write_Data(0x78);
 611              		.loc 1 225 1
 612 006c 7820     		movs	r0, #120
 613 006e FFF7FEFF 		bl	ILI9341_Write_Data
 226:Drivers/IL9341/src/ILI9341_STM32_Driver.c **** 
 227:Drivers/IL9341/src/ILI9341_STM32_Driver.c **** //DRIVER TIMING CONTROL B
 228:Drivers/IL9341/src/ILI9341_STM32_Driver.c **** ILI9341_Write_Command(0xEA);
 614              		.loc 1 228 1
 615 0072 EA20     		movs	r0, #234
 616 0074 FFF7FEFF 		bl	ILI9341_Write_Command
 229:Drivers/IL9341/src/ILI9341_STM32_Driver.c **** ILI9341_Write_Data(0x00);
 617              		.loc 1 229 1
 618 0078 0020     		movs	r0, #0
 619 007a FFF7FEFF 		bl	ILI9341_Write_Data
 230:Drivers/IL9341/src/ILI9341_STM32_Driver.c **** ILI9341_Write_Data(0x00);
 620              		.loc 1 230 1
 621 007e 0020     		movs	r0, #0
 622 0080 FFF7FEFF 		bl	ILI9341_Write_Data
 231:Drivers/IL9341/src/ILI9341_STM32_Driver.c **** 
 232:Drivers/IL9341/src/ILI9341_STM32_Driver.c **** //POWER ON SEQUENCE CONTROL
 233:Drivers/IL9341/src/ILI9341_STM32_Driver.c **** ILI9341_Write_Command(0xED);
 623              		.loc 1 233 1
 624 0084 ED20     		movs	r0, #237
 625 0086 FFF7FEFF 		bl	ILI9341_Write_Command
 234:Drivers/IL9341/src/ILI9341_STM32_Driver.c **** ILI9341_Write_Data(0x64);
 626              		.loc 1 234 1
 627 008a 6420     		movs	r0, #100
 628 008c FFF7FEFF 		bl	ILI9341_Write_Data
 235:Drivers/IL9341/src/ILI9341_STM32_Driver.c **** ILI9341_Write_Data(0x03);
 629              		.loc 1 235 1
 630 0090 0320     		movs	r0, #3
 631 0092 FFF7FEFF 		bl	ILI9341_Write_Data
 236:Drivers/IL9341/src/ILI9341_STM32_Driver.c **** ILI9341_Write_Data(0x12);
 632              		.loc 1 236 1
 633 0096 1220     		movs	r0, #18
 634 0098 FFF7FEFF 		bl	ILI9341_Write_Data
 237:Drivers/IL9341/src/ILI9341_STM32_Driver.c **** ILI9341_Write_Data(0x81);
 635              		.loc 1 237 1
ARM GAS  C:\Users\Morroway\AppData\Local\Temp\cc8F5pJm.s 			page 16


 636 009c 8120     		movs	r0, #129
 637 009e FFF7FEFF 		bl	ILI9341_Write_Data
 238:Drivers/IL9341/src/ILI9341_STM32_Driver.c **** 
 239:Drivers/IL9341/src/ILI9341_STM32_Driver.c **** //PUMP RATIO CONTROL
 240:Drivers/IL9341/src/ILI9341_STM32_Driver.c **** ILI9341_Write_Command(0xF7);
 638              		.loc 1 240 1
 639 00a2 F720     		movs	r0, #247
 640 00a4 FFF7FEFF 		bl	ILI9341_Write_Command
 241:Drivers/IL9341/src/ILI9341_STM32_Driver.c **** ILI9341_Write_Data(0x20);
 641              		.loc 1 241 1
 642 00a8 2020     		movs	r0, #32
 643 00aa FFF7FEFF 		bl	ILI9341_Write_Data
 242:Drivers/IL9341/src/ILI9341_STM32_Driver.c **** 
 243:Drivers/IL9341/src/ILI9341_STM32_Driver.c **** //POWER CONTROL,VRH[5:0]
 244:Drivers/IL9341/src/ILI9341_STM32_Driver.c **** ILI9341_Write_Command(0xC0);
 644              		.loc 1 244 1
 645 00ae C020     		movs	r0, #192
 646 00b0 FFF7FEFF 		bl	ILI9341_Write_Command
 245:Drivers/IL9341/src/ILI9341_STM32_Driver.c **** ILI9341_Write_Data(0x23);
 647              		.loc 1 245 1
 648 00b4 2320     		movs	r0, #35
 649 00b6 FFF7FEFF 		bl	ILI9341_Write_Data
 246:Drivers/IL9341/src/ILI9341_STM32_Driver.c **** 
 247:Drivers/IL9341/src/ILI9341_STM32_Driver.c **** //POWER CONTROL,SAP[2:0];BT[3:0]
 248:Drivers/IL9341/src/ILI9341_STM32_Driver.c **** ILI9341_Write_Command(0xC1);
 650              		.loc 1 248 1
 651 00ba C120     		movs	r0, #193
 652 00bc FFF7FEFF 		bl	ILI9341_Write_Command
 249:Drivers/IL9341/src/ILI9341_STM32_Driver.c **** ILI9341_Write_Data(0x10);
 653              		.loc 1 249 1
 654 00c0 1020     		movs	r0, #16
 655 00c2 FFF7FEFF 		bl	ILI9341_Write_Data
 250:Drivers/IL9341/src/ILI9341_STM32_Driver.c **** 
 251:Drivers/IL9341/src/ILI9341_STM32_Driver.c **** //VCM CONTROL
 252:Drivers/IL9341/src/ILI9341_STM32_Driver.c **** ILI9341_Write_Command(0xC5);
 656              		.loc 1 252 1
 657 00c6 C520     		movs	r0, #197
 658 00c8 FFF7FEFF 		bl	ILI9341_Write_Command
 253:Drivers/IL9341/src/ILI9341_STM32_Driver.c **** ILI9341_Write_Data(0x3E);
 659              		.loc 1 253 1
 660 00cc 3E20     		movs	r0, #62
 661 00ce FFF7FEFF 		bl	ILI9341_Write_Data
 254:Drivers/IL9341/src/ILI9341_STM32_Driver.c **** ILI9341_Write_Data(0x28);
 662              		.loc 1 254 1
 663 00d2 2820     		movs	r0, #40
 664 00d4 FFF7FEFF 		bl	ILI9341_Write_Data
 255:Drivers/IL9341/src/ILI9341_STM32_Driver.c **** 
 256:Drivers/IL9341/src/ILI9341_STM32_Driver.c **** //VCM CONTROL 2
 257:Drivers/IL9341/src/ILI9341_STM32_Driver.c **** ILI9341_Write_Command(0xC7);
 665              		.loc 1 257 1
 666 00d8 C720     		movs	r0, #199
 667 00da FFF7FEFF 		bl	ILI9341_Write_Command
 258:Drivers/IL9341/src/ILI9341_STM32_Driver.c **** ILI9341_Write_Data(0x86);
 668              		.loc 1 258 1
 669 00de 8620     		movs	r0, #134
 670 00e0 FFF7FEFF 		bl	ILI9341_Write_Data
 259:Drivers/IL9341/src/ILI9341_STM32_Driver.c **** 
ARM GAS  C:\Users\Morroway\AppData\Local\Temp\cc8F5pJm.s 			page 17


 260:Drivers/IL9341/src/ILI9341_STM32_Driver.c **** //MEMORY ACCESS CONTROL
 261:Drivers/IL9341/src/ILI9341_STM32_Driver.c **** ILI9341_Write_Command(0x36);
 671              		.loc 1 261 1
 672 00e4 3620     		movs	r0, #54
 673 00e6 FFF7FEFF 		bl	ILI9341_Write_Command
 262:Drivers/IL9341/src/ILI9341_STM32_Driver.c **** ILI9341_Write_Data(0x48);
 674              		.loc 1 262 1
 675 00ea 4820     		movs	r0, #72
 676 00ec FFF7FEFF 		bl	ILI9341_Write_Data
 263:Drivers/IL9341/src/ILI9341_STM32_Driver.c **** 
 264:Drivers/IL9341/src/ILI9341_STM32_Driver.c **** //PIXEL FORMAT
 265:Drivers/IL9341/src/ILI9341_STM32_Driver.c **** ILI9341_Write_Command(0x3A);
 677              		.loc 1 265 1
 678 00f0 3A20     		movs	r0, #58
 679 00f2 FFF7FEFF 		bl	ILI9341_Write_Command
 266:Drivers/IL9341/src/ILI9341_STM32_Driver.c **** ILI9341_Write_Data(0x55);
 680              		.loc 1 266 1
 681 00f6 5520     		movs	r0, #85
 682 00f8 FFF7FEFF 		bl	ILI9341_Write_Data
 267:Drivers/IL9341/src/ILI9341_STM32_Driver.c **** 
 268:Drivers/IL9341/src/ILI9341_STM32_Driver.c **** //FRAME RATIO CONTROL, STANDARD RGB COLOR
 269:Drivers/IL9341/src/ILI9341_STM32_Driver.c **** ILI9341_Write_Command(0xB1);
 683              		.loc 1 269 1
 684 00fc B120     		movs	r0, #177
 685 00fe FFF7FEFF 		bl	ILI9341_Write_Command
 270:Drivers/IL9341/src/ILI9341_STM32_Driver.c **** ILI9341_Write_Data(0x00);
 686              		.loc 1 270 1
 687 0102 0020     		movs	r0, #0
 688 0104 FFF7FEFF 		bl	ILI9341_Write_Data
 271:Drivers/IL9341/src/ILI9341_STM32_Driver.c **** ILI9341_Write_Data(0x18);
 689              		.loc 1 271 1
 690 0108 1820     		movs	r0, #24
 691 010a FFF7FEFF 		bl	ILI9341_Write_Data
 272:Drivers/IL9341/src/ILI9341_STM32_Driver.c **** 
 273:Drivers/IL9341/src/ILI9341_STM32_Driver.c **** //DISPLAY FUNCTION CONTROL
 274:Drivers/IL9341/src/ILI9341_STM32_Driver.c **** ILI9341_Write_Command(0xB6);
 692              		.loc 1 274 1
 693 010e B620     		movs	r0, #182
 694 0110 FFF7FEFF 		bl	ILI9341_Write_Command
 275:Drivers/IL9341/src/ILI9341_STM32_Driver.c **** ILI9341_Write_Data(0x08);
 695              		.loc 1 275 1
 696 0114 0820     		movs	r0, #8
 697 0116 FFF7FEFF 		bl	ILI9341_Write_Data
 276:Drivers/IL9341/src/ILI9341_STM32_Driver.c **** ILI9341_Write_Data(0x82);
 698              		.loc 1 276 1
 699 011a 8220     		movs	r0, #130
 700 011c FFF7FEFF 		bl	ILI9341_Write_Data
 277:Drivers/IL9341/src/ILI9341_STM32_Driver.c **** ILI9341_Write_Data(0x27);
 701              		.loc 1 277 1
 702 0120 2720     		movs	r0, #39
 703 0122 FFF7FEFF 		bl	ILI9341_Write_Data
 278:Drivers/IL9341/src/ILI9341_STM32_Driver.c **** 
 279:Drivers/IL9341/src/ILI9341_STM32_Driver.c **** //3GAMMA FUNCTION DISABLE
 280:Drivers/IL9341/src/ILI9341_STM32_Driver.c **** ILI9341_Write_Command(0xF2);
 704              		.loc 1 280 1
 705 0126 F220     		movs	r0, #242
 706 0128 FFF7FEFF 		bl	ILI9341_Write_Command
ARM GAS  C:\Users\Morroway\AppData\Local\Temp\cc8F5pJm.s 			page 18


 281:Drivers/IL9341/src/ILI9341_STM32_Driver.c **** ILI9341_Write_Data(0x00);
 707              		.loc 1 281 1
 708 012c 0020     		movs	r0, #0
 709 012e FFF7FEFF 		bl	ILI9341_Write_Data
 282:Drivers/IL9341/src/ILI9341_STM32_Driver.c **** 
 283:Drivers/IL9341/src/ILI9341_STM32_Driver.c **** //GAMMA CURVE SELECTED
 284:Drivers/IL9341/src/ILI9341_STM32_Driver.c **** ILI9341_Write_Command(0x26);
 710              		.loc 1 284 1
 711 0132 2620     		movs	r0, #38
 712 0134 FFF7FEFF 		bl	ILI9341_Write_Command
 285:Drivers/IL9341/src/ILI9341_STM32_Driver.c **** ILI9341_Write_Data(0x01);
 713              		.loc 1 285 1
 714 0138 0120     		movs	r0, #1
 715 013a FFF7FEFF 		bl	ILI9341_Write_Data
 286:Drivers/IL9341/src/ILI9341_STM32_Driver.c **** 
 287:Drivers/IL9341/src/ILI9341_STM32_Driver.c **** //POSITIVE GAMMA CORRECTION
 288:Drivers/IL9341/src/ILI9341_STM32_Driver.c **** ILI9341_Write_Command(0xE0);
 716              		.loc 1 288 1
 717 013e E020     		movs	r0, #224
 718 0140 FFF7FEFF 		bl	ILI9341_Write_Command
 289:Drivers/IL9341/src/ILI9341_STM32_Driver.c **** ILI9341_Write_Data(0x0F);
 719              		.loc 1 289 1
 720 0144 0F20     		movs	r0, #15
 721 0146 FFF7FEFF 		bl	ILI9341_Write_Data
 290:Drivers/IL9341/src/ILI9341_STM32_Driver.c **** ILI9341_Write_Data(0x31);
 722              		.loc 1 290 1
 723 014a 3120     		movs	r0, #49
 724 014c FFF7FEFF 		bl	ILI9341_Write_Data
 291:Drivers/IL9341/src/ILI9341_STM32_Driver.c **** ILI9341_Write_Data(0x2B);
 725              		.loc 1 291 1
 726 0150 2B20     		movs	r0, #43
 727 0152 FFF7FEFF 		bl	ILI9341_Write_Data
 292:Drivers/IL9341/src/ILI9341_STM32_Driver.c **** ILI9341_Write_Data(0x0C);
 728              		.loc 1 292 1
 729 0156 0C20     		movs	r0, #12
 730 0158 FFF7FEFF 		bl	ILI9341_Write_Data
 293:Drivers/IL9341/src/ILI9341_STM32_Driver.c **** ILI9341_Write_Data(0x0E);
 731              		.loc 1 293 1
 732 015c 0E20     		movs	r0, #14
 733 015e FFF7FEFF 		bl	ILI9341_Write_Data
 294:Drivers/IL9341/src/ILI9341_STM32_Driver.c **** ILI9341_Write_Data(0x08);
 734              		.loc 1 294 1
 735 0162 0820     		movs	r0, #8
 736 0164 FFF7FEFF 		bl	ILI9341_Write_Data
 295:Drivers/IL9341/src/ILI9341_STM32_Driver.c **** ILI9341_Write_Data(0x4E);
 737              		.loc 1 295 1
 738 0168 4E20     		movs	r0, #78
 739 016a FFF7FEFF 		bl	ILI9341_Write_Data
 296:Drivers/IL9341/src/ILI9341_STM32_Driver.c **** ILI9341_Write_Data(0xF1);
 740              		.loc 1 296 1
 741 016e F120     		movs	r0, #241
 742 0170 FFF7FEFF 		bl	ILI9341_Write_Data
 297:Drivers/IL9341/src/ILI9341_STM32_Driver.c **** ILI9341_Write_Data(0x37);
 743              		.loc 1 297 1
 744 0174 3720     		movs	r0, #55
 745 0176 FFF7FEFF 		bl	ILI9341_Write_Data
 298:Drivers/IL9341/src/ILI9341_STM32_Driver.c **** ILI9341_Write_Data(0x07);
ARM GAS  C:\Users\Morroway\AppData\Local\Temp\cc8F5pJm.s 			page 19


 746              		.loc 1 298 1
 747 017a 0720     		movs	r0, #7
 748 017c FFF7FEFF 		bl	ILI9341_Write_Data
 299:Drivers/IL9341/src/ILI9341_STM32_Driver.c **** ILI9341_Write_Data(0x10);
 749              		.loc 1 299 1
 750 0180 1020     		movs	r0, #16
 751 0182 FFF7FEFF 		bl	ILI9341_Write_Data
 300:Drivers/IL9341/src/ILI9341_STM32_Driver.c **** ILI9341_Write_Data(0x03);
 752              		.loc 1 300 1
 753 0186 0320     		movs	r0, #3
 754 0188 FFF7FEFF 		bl	ILI9341_Write_Data
 301:Drivers/IL9341/src/ILI9341_STM32_Driver.c **** ILI9341_Write_Data(0x0E);
 755              		.loc 1 301 1
 756 018c 0E20     		movs	r0, #14
 757 018e FFF7FEFF 		bl	ILI9341_Write_Data
 302:Drivers/IL9341/src/ILI9341_STM32_Driver.c **** ILI9341_Write_Data(0x09);
 758              		.loc 1 302 1
 759 0192 0920     		movs	r0, #9
 760 0194 FFF7FEFF 		bl	ILI9341_Write_Data
 303:Drivers/IL9341/src/ILI9341_STM32_Driver.c **** ILI9341_Write_Data(0x00);
 761              		.loc 1 303 1
 762 0198 0020     		movs	r0, #0
 763 019a FFF7FEFF 		bl	ILI9341_Write_Data
 304:Drivers/IL9341/src/ILI9341_STM32_Driver.c **** 
 305:Drivers/IL9341/src/ILI9341_STM32_Driver.c **** //NEGATIVE GAMMA CORRECTION
 306:Drivers/IL9341/src/ILI9341_STM32_Driver.c **** ILI9341_Write_Command(0xE1);
 764              		.loc 1 306 1
 765 019e E120     		movs	r0, #225
 766 01a0 FFF7FEFF 		bl	ILI9341_Write_Command
 307:Drivers/IL9341/src/ILI9341_STM32_Driver.c **** ILI9341_Write_Data(0x00);
 767              		.loc 1 307 1
 768 01a4 0020     		movs	r0, #0
 769 01a6 FFF7FEFF 		bl	ILI9341_Write_Data
 308:Drivers/IL9341/src/ILI9341_STM32_Driver.c **** ILI9341_Write_Data(0x0E);
 770              		.loc 1 308 1
 771 01aa 0E20     		movs	r0, #14
 772 01ac FFF7FEFF 		bl	ILI9341_Write_Data
 309:Drivers/IL9341/src/ILI9341_STM32_Driver.c **** ILI9341_Write_Data(0x14);
 773              		.loc 1 309 1
 774 01b0 1420     		movs	r0, #20
 775 01b2 FFF7FEFF 		bl	ILI9341_Write_Data
 310:Drivers/IL9341/src/ILI9341_STM32_Driver.c **** ILI9341_Write_Data(0x03);
 776              		.loc 1 310 1
 777 01b6 0320     		movs	r0, #3
 778 01b8 FFF7FEFF 		bl	ILI9341_Write_Data
 311:Drivers/IL9341/src/ILI9341_STM32_Driver.c **** ILI9341_Write_Data(0x11);
 779              		.loc 1 311 1
 780 01bc 1120     		movs	r0, #17
 781 01be FFF7FEFF 		bl	ILI9341_Write_Data
 312:Drivers/IL9341/src/ILI9341_STM32_Driver.c **** ILI9341_Write_Data(0x07);
 782              		.loc 1 312 1
 783 01c2 0720     		movs	r0, #7
 784 01c4 FFF7FEFF 		bl	ILI9341_Write_Data
 313:Drivers/IL9341/src/ILI9341_STM32_Driver.c **** ILI9341_Write_Data(0x31);
 785              		.loc 1 313 1
 786 01c8 3120     		movs	r0, #49
 787 01ca FFF7FEFF 		bl	ILI9341_Write_Data
ARM GAS  C:\Users\Morroway\AppData\Local\Temp\cc8F5pJm.s 			page 20


 314:Drivers/IL9341/src/ILI9341_STM32_Driver.c **** ILI9341_Write_Data(0xC1);
 788              		.loc 1 314 1
 789 01ce C120     		movs	r0, #193
 790 01d0 FFF7FEFF 		bl	ILI9341_Write_Data
 315:Drivers/IL9341/src/ILI9341_STM32_Driver.c **** ILI9341_Write_Data(0x48);
 791              		.loc 1 315 1
 792 01d4 4820     		movs	r0, #72
 793 01d6 FFF7FEFF 		bl	ILI9341_Write_Data
 316:Drivers/IL9341/src/ILI9341_STM32_Driver.c **** ILI9341_Write_Data(0x08);
 794              		.loc 1 316 1
 795 01da 0820     		movs	r0, #8
 796 01dc FFF7FEFF 		bl	ILI9341_Write_Data
 317:Drivers/IL9341/src/ILI9341_STM32_Driver.c **** ILI9341_Write_Data(0x0F);
 797              		.loc 1 317 1
 798 01e0 0F20     		movs	r0, #15
 799 01e2 FFF7FEFF 		bl	ILI9341_Write_Data
 318:Drivers/IL9341/src/ILI9341_STM32_Driver.c **** ILI9341_Write_Data(0x0C);
 800              		.loc 1 318 1
 801 01e6 0C20     		movs	r0, #12
 802 01e8 FFF7FEFF 		bl	ILI9341_Write_Data
 319:Drivers/IL9341/src/ILI9341_STM32_Driver.c **** ILI9341_Write_Data(0x31);
 803              		.loc 1 319 1
 804 01ec 3120     		movs	r0, #49
 805 01ee FFF7FEFF 		bl	ILI9341_Write_Data
 320:Drivers/IL9341/src/ILI9341_STM32_Driver.c **** ILI9341_Write_Data(0x36);
 806              		.loc 1 320 1
 807 01f2 3620     		movs	r0, #54
 808 01f4 FFF7FEFF 		bl	ILI9341_Write_Data
 321:Drivers/IL9341/src/ILI9341_STM32_Driver.c **** ILI9341_Write_Data(0x0F);
 809              		.loc 1 321 1
 810 01f8 0F20     		movs	r0, #15
 811 01fa FFF7FEFF 		bl	ILI9341_Write_Data
 322:Drivers/IL9341/src/ILI9341_STM32_Driver.c **** 
 323:Drivers/IL9341/src/ILI9341_STM32_Driver.c **** //EXIT SLEEP
 324:Drivers/IL9341/src/ILI9341_STM32_Driver.c **** ILI9341_Write_Command(0x11);
 812              		.loc 1 324 1
 813 01fe 1120     		movs	r0, #17
 814 0200 FFF7FEFF 		bl	ILI9341_Write_Command
 325:Drivers/IL9341/src/ILI9341_STM32_Driver.c **** HAL_Delay(120);
 815              		.loc 1 325 1
 816 0204 7820     		movs	r0, #120
 817 0206 FFF7FEFF 		bl	HAL_Delay
 326:Drivers/IL9341/src/ILI9341_STM32_Driver.c **** 
 327:Drivers/IL9341/src/ILI9341_STM32_Driver.c **** //TURN ON DISPLAY
 328:Drivers/IL9341/src/ILI9341_STM32_Driver.c **** ILI9341_Write_Command(0x29);
 818              		.loc 1 328 1
 819 020a 2920     		movs	r0, #41
 820 020c FFF7FEFF 		bl	ILI9341_Write_Command
 329:Drivers/IL9341/src/ILI9341_STM32_Driver.c **** 
 330:Drivers/IL9341/src/ILI9341_STM32_Driver.c **** //STARTING ROTATION
 331:Drivers/IL9341/src/ILI9341_STM32_Driver.c **** ILI9341_Set_Rotation(SCREEN_VERTICAL_1);
 821              		.loc 1 331 1
 822 0210 0020     		movs	r0, #0
 823 0212 FFF7FEFF 		bl	ILI9341_Set_Rotation
 332:Drivers/IL9341/src/ILI9341_STM32_Driver.c **** }
 824              		.loc 1 332 1
 825 0216 00BF     		nop
ARM GAS  C:\Users\Morroway\AppData\Local\Temp\cc8F5pJm.s 			page 21


 826 0218 80BD     		pop	{r7, pc}
 827              		.cfi_endproc
 828              	.LFE329:
 830              		.section	.text.ILI9341_Draw_Colour,"ax",%progbits
 831              		.align	1
 832              		.global	ILI9341_Draw_Colour
 833              		.syntax unified
 834              		.thumb
 835              		.thumb_func
 837              	ILI9341_Draw_Colour:
 838              	.LFB330:
 333:Drivers/IL9341/src/ILI9341_STM32_Driver.c **** 
 334:Drivers/IL9341/src/ILI9341_STM32_Driver.c **** //INTERNAL FUNCTION OF LIBRARY, USAGE NOT RECOMENDED, USE Draw_Pixel INSTEAD
 335:Drivers/IL9341/src/ILI9341_STM32_Driver.c **** /*Sends single pixel colour information to LCD*/
 336:Drivers/IL9341/src/ILI9341_STM32_Driver.c **** void ILI9341_Draw_Colour(uint16_t Colour)
 337:Drivers/IL9341/src/ILI9341_STM32_Driver.c **** {
 839              		.loc 1 337 1
 840              		.cfi_startproc
 841              		@ args = 0, pretend = 0, frame = 16
 842              		@ frame_needed = 1, uses_anonymous_args = 0
 843 0000 80B5     		push	{r7, lr}
 844              		.cfi_def_cfa_offset 8
 845              		.cfi_offset 7, -8
 846              		.cfi_offset 14, -4
 847 0002 84B0     		sub	sp, sp, #16
 848              		.cfi_def_cfa_offset 24
 849 0004 00AF     		add	r7, sp, #0
 850              		.cfi_def_cfa_register 7
 851 0006 0346     		mov	r3, r0
 852 0008 FB80     		strh	r3, [r7, #6]	@ movhi
 338:Drivers/IL9341/src/ILI9341_STM32_Driver.c **** //SENDS COLOUR
 339:Drivers/IL9341/src/ILI9341_STM32_Driver.c **** unsigned char TempBuffer[2] = {Colour>>8, Colour};	
 853              		.loc 1 339 15
 854 000a FB88     		ldrh	r3, [r7, #6]
 855 000c 1B0A     		lsrs	r3, r3, #8
 856 000e 9BB2     		uxth	r3, r3
 857 0010 DBB2     		uxtb	r3, r3
 858 0012 3B73     		strb	r3, [r7, #12]
 859 0014 FB88     		ldrh	r3, [r7, #6]	@ movhi
 860 0016 DBB2     		uxtb	r3, r3
 861 0018 7B73     		strb	r3, [r7, #13]
 340:Drivers/IL9341/src/ILI9341_STM32_Driver.c **** HAL_GPIO_WritePin(LCD_DC_PORT, LCD_DC_PIN, GPIO_PIN_SET);	
 862              		.loc 1 340 1
 863 001a 0122     		movs	r2, #1
 864 001c 4FF40051 		mov	r1, #8192
 865 0020 0C48     		ldr	r0, .L31
 866 0022 FFF7FEFF 		bl	HAL_GPIO_WritePin
 341:Drivers/IL9341/src/ILI9341_STM32_Driver.c **** HAL_GPIO_WritePin(LCD_CS_PORT, LCD_CS_PIN, GPIO_PIN_RESET);
 867              		.loc 1 341 1
 868 0026 0022     		movs	r2, #0
 869 0028 4FF48051 		mov	r1, #4096
 870 002c 0948     		ldr	r0, .L31
 871 002e FFF7FEFF 		bl	HAL_GPIO_WritePin
 342:Drivers/IL9341/src/ILI9341_STM32_Driver.c **** SPI_Transmit(TempBuffer, 2, 1);	
 872              		.loc 1 342 1
 873 0032 07F10C03 		add	r3, r7, #12
 874 0036 0122     		movs	r2, #1
ARM GAS  C:\Users\Morroway\AppData\Local\Temp\cc8F5pJm.s 			page 22


 875 0038 0221     		movs	r1, #2
 876 003a 1846     		mov	r0, r3
 877 003c FFF7FEFF 		bl	SPI_Transmit
 343:Drivers/IL9341/src/ILI9341_STM32_Driver.c **** HAL_GPIO_WritePin(LCD_CS_PORT, LCD_CS_PIN, GPIO_PIN_SET);
 878              		.loc 1 343 1
 879 0040 0122     		movs	r2, #1
 880 0042 4FF48051 		mov	r1, #4096
 881 0046 0348     		ldr	r0, .L31
 882 0048 FFF7FEFF 		bl	HAL_GPIO_WritePin
 344:Drivers/IL9341/src/ILI9341_STM32_Driver.c **** }
 883              		.loc 1 344 1
 884 004c 00BF     		nop
 885 004e 1037     		adds	r7, r7, #16
 886              		.cfi_def_cfa_offset 8
 887 0050 BD46     		mov	sp, r7
 888              		.cfi_def_cfa_register 13
 889              		@ sp needed
 890 0052 80BD     		pop	{r7, pc}
 891              	.L32:
 892              		.align	2
 893              	.L31:
 894 0054 00180048 		.word	1207965696
 895              		.cfi_endproc
 896              	.LFE330:
 898              		.section	.text.ILI9341_Draw_Colour_Burst,"ax",%progbits
 899              		.align	1
 900              		.global	ILI9341_Draw_Colour_Burst
 901              		.syntax unified
 902              		.thumb
 903              		.thumb_func
 905              	ILI9341_Draw_Colour_Burst:
 906              	.LFB331:
 345:Drivers/IL9341/src/ILI9341_STM32_Driver.c **** 
 346:Drivers/IL9341/src/ILI9341_STM32_Driver.c **** //INTERNAL FUNCTION OF LIBRARY
 347:Drivers/IL9341/src/ILI9341_STM32_Driver.c **** /*Sends block colour information to LCD*/
 348:Drivers/IL9341/src/ILI9341_STM32_Driver.c **** void ILI9341_Draw_Colour_Burst(uint16_t Colour, uint32_t Size)
 349:Drivers/IL9341/src/ILI9341_STM32_Driver.c **** {
 907              		.loc 1 349 1
 908              		.cfi_startproc
 909              		@ args = 0, pretend = 0, frame = 48
 910              		@ frame_needed = 1, uses_anonymous_args = 0
 911 0000 2DE9F043 		push	{r4, r5, r6, r7, r8, r9, lr}
 912              		.cfi_def_cfa_offset 28
 913              		.cfi_offset 4, -28
 914              		.cfi_offset 5, -24
 915              		.cfi_offset 6, -20
 916              		.cfi_offset 7, -16
 917              		.cfi_offset 8, -12
 918              		.cfi_offset 9, -8
 919              		.cfi_offset 14, -4
 920 0004 8DB0     		sub	sp, sp, #52
 921              		.cfi_def_cfa_offset 80
 922 0006 00AF     		add	r7, sp, #0
 923              		.cfi_def_cfa_register 7
 924 0008 0346     		mov	r3, r0
 925 000a 3960     		str	r1, [r7]
 926 000c FB80     		strh	r3, [r7, #6]	@ movhi
ARM GAS  C:\Users\Morroway\AppData\Local\Temp\cc8F5pJm.s 			page 23


 927              		.loc 1 349 1
 928 000e 6B46     		mov	r3, sp
 929 0010 1E46     		mov	r6, r3
 350:Drivers/IL9341/src/ILI9341_STM32_Driver.c **** //SENDS COLOUR
 351:Drivers/IL9341/src/ILI9341_STM32_Driver.c **** uint32_t Buffer_Size = 0;
 930              		.loc 1 351 10
 931 0012 0023     		movs	r3, #0
 932 0014 FB62     		str	r3, [r7, #44]
 352:Drivers/IL9341/src/ILI9341_STM32_Driver.c **** if((Size*2) < BURST_MAX_SIZE)
 933              		.loc 1 352 9
 934 0016 3B68     		ldr	r3, [r7]
 935 0018 5B00     		lsls	r3, r3, #1
 936              		.loc 1 352 3
 937 001a B3F5207F 		cmp	r3, #640
 938 001e 02D2     		bcs	.L34
 353:Drivers/IL9341/src/ILI9341_STM32_Driver.c **** {
 354:Drivers/IL9341/src/ILI9341_STM32_Driver.c **** 	Buffer_Size = Size;
 939              		.loc 1 354 14
 940 0020 3B68     		ldr	r3, [r7]
 941 0022 FB62     		str	r3, [r7, #44]
 942 0024 02E0     		b	.L35
 943              	.L34:
 355:Drivers/IL9341/src/ILI9341_STM32_Driver.c **** }
 356:Drivers/IL9341/src/ILI9341_STM32_Driver.c **** else
 357:Drivers/IL9341/src/ILI9341_STM32_Driver.c **** {
 358:Drivers/IL9341/src/ILI9341_STM32_Driver.c **** 	Buffer_Size = BURST_MAX_SIZE;
 944              		.loc 1 358 14
 945 0026 4FF42073 		mov	r3, #640
 946 002a FB62     		str	r3, [r7, #44]
 947              	.L35:
 359:Drivers/IL9341/src/ILI9341_STM32_Driver.c **** }
 360:Drivers/IL9341/src/ILI9341_STM32_Driver.c **** 	
 361:Drivers/IL9341/src/ILI9341_STM32_Driver.c **** HAL_GPIO_WritePin(LCD_DC_PORT, LCD_DC_PIN, GPIO_PIN_SET);	
 948              		.loc 1 361 1
 949 002c 0122     		movs	r2, #1
 950 002e 4FF40051 		mov	r1, #8192
 951 0032 4048     		ldr	r0, .L41
 952 0034 FFF7FEFF 		bl	HAL_GPIO_WritePin
 362:Drivers/IL9341/src/ILI9341_STM32_Driver.c **** HAL_GPIO_WritePin(LCD_CS_PORT, LCD_CS_PIN, GPIO_PIN_RESET);
 953              		.loc 1 362 1
 954 0038 0022     		movs	r2, #0
 955 003a 4FF48051 		mov	r1, #4096
 956 003e 3D48     		ldr	r0, .L41
 957 0040 FFF7FEFF 		bl	HAL_GPIO_WritePin
 363:Drivers/IL9341/src/ILI9341_STM32_Driver.c **** 
 364:Drivers/IL9341/src/ILI9341_STM32_Driver.c **** unsigned char chifted = 	Colour>>8;;
 958              		.loc 1 364 15
 959 0044 FB88     		ldrh	r3, [r7, #6]
 960 0046 1B0A     		lsrs	r3, r3, #8
 961 0048 9BB2     		uxth	r3, r3
 962 004a 87F82330 		strb	r3, [r7, #35]
 365:Drivers/IL9341/src/ILI9341_STM32_Driver.c **** unsigned char burst_buffer[Buffer_Size];
 963              		.loc 1 365 1
 964 004e F96A     		ldr	r1, [r7, #44]
 965              		.loc 1 365 15
 966 0050 0B46     		mov	r3, r1
 967 0052 013B     		subs	r3, r3, #1
ARM GAS  C:\Users\Morroway\AppData\Local\Temp\cc8F5pJm.s 			page 24


 968 0054 FB61     		str	r3, [r7, #28]
 969 0056 0023     		movs	r3, #0
 970 0058 8846     		mov	r8, r1
 971 005a 9946     		mov	r9, r3
 972 005c 4FF00002 		mov	r2, #0
 973 0060 4FF00003 		mov	r3, #0
 974 0064 4FEAC903 		lsl	r3, r9, #3
 975 0068 43EA5873 		orr	r3, r3, r8, lsr #29
 976 006c 4FEAC802 		lsl	r2, r8, #3
 977 0070 0023     		movs	r3, #0
 978 0072 0C46     		mov	r4, r1
 979 0074 1D46     		mov	r5, r3
 980 0076 4FF00002 		mov	r2, #0
 981 007a 4FF00003 		mov	r3, #0
 982 007e EB00     		lsls	r3, r5, #3
 983 0080 43EA5473 		orr	r3, r3, r4, lsr #29
 984 0084 E200     		lsls	r2, r4, #3
 985 0086 CB1D     		adds	r3, r1, #7
 986 0088 DB08     		lsrs	r3, r3, #3
 987 008a DB00     		lsls	r3, r3, #3
 988 008c ADEB030D 		sub	sp, sp, r3
 989 0090 6B46     		mov	r3, sp
 990 0092 0033     		adds	r3, r3, #0
 991 0094 BB61     		str	r3, [r7, #24]
 992              	.LBB2:
 366:Drivers/IL9341/src/ILI9341_STM32_Driver.c **** for(uint32_t j = 0; j < Buffer_Size; j+=2)
 993              		.loc 1 366 14
 994 0096 0023     		movs	r3, #0
 995 0098 BB62     		str	r3, [r7, #40]
 996              		.loc 1 366 1
 997 009a 0EE0     		b	.L36
 998              	.L37:
 367:Drivers/IL9341/src/ILI9341_STM32_Driver.c **** 	{
 368:Drivers/IL9341/src/ILI9341_STM32_Driver.c **** 		burst_buffer[j] = 	chifted;
 999              		.loc 1 368 19 discriminator 3
 1000 009c BA69     		ldr	r2, [r7, #24]
 1001 009e BB6A     		ldr	r3, [r7, #40]
 1002 00a0 1344     		add	r3, r3, r2
 1003 00a2 97F82320 		ldrb	r2, [r7, #35]
 1004 00a6 1A70     		strb	r2, [r3]
 369:Drivers/IL9341/src/ILI9341_STM32_Driver.c **** 		burst_buffer[j+1] = Colour;
 1005              		.loc 1 369 17 discriminator 3
 1006 00a8 BB6A     		ldr	r3, [r7, #40]
 1007 00aa 0133     		adds	r3, r3, #1
 1008              		.loc 1 369 21 discriminator 3
 1009 00ac FA88     		ldrh	r2, [r7, #6]	@ movhi
 1010 00ae D1B2     		uxtb	r1, r2
 1011 00b0 BA69     		ldr	r2, [r7, #24]
 1012 00b2 D154     		strb	r1, [r2, r3]
 366:Drivers/IL9341/src/ILI9341_STM32_Driver.c **** for(uint32_t j = 0; j < Buffer_Size; j+=2)
 1013              		.loc 1 366 39 discriminator 3
 1014 00b4 BB6A     		ldr	r3, [r7, #40]
 1015 00b6 0233     		adds	r3, r3, #2
 1016 00b8 BB62     		str	r3, [r7, #40]
 1017              	.L36:
 366:Drivers/IL9341/src/ILI9341_STM32_Driver.c **** for(uint32_t j = 0; j < Buffer_Size; j+=2)
 1018              		.loc 1 366 23 discriminator 1
ARM GAS  C:\Users\Morroway\AppData\Local\Temp\cc8F5pJm.s 			page 25


 1019 00ba BA6A     		ldr	r2, [r7, #40]
 1020 00bc FB6A     		ldr	r3, [r7, #44]
 1021 00be 9A42     		cmp	r2, r3
 1022 00c0 ECD3     		bcc	.L37
 1023              	.LBE2:
 370:Drivers/IL9341/src/ILI9341_STM32_Driver.c **** 	}
 371:Drivers/IL9341/src/ILI9341_STM32_Driver.c **** 
 372:Drivers/IL9341/src/ILI9341_STM32_Driver.c **** uint32_t Sending_Size = Size *2;
 1024              		.loc 1 372 10
 1025 00c2 3B68     		ldr	r3, [r7]
 1026 00c4 5B00     		lsls	r3, r3, #1
 1027 00c6 7B61     		str	r3, [r7, #20]
 373:Drivers/IL9341/src/ILI9341_STM32_Driver.c **** uint32_t Sending_in_Block = Sending_Size/Buffer_Size;
 1028              		.loc 1 373 10
 1029 00c8 7A69     		ldr	r2, [r7, #20]
 1030 00ca FB6A     		ldr	r3, [r7, #44]
 1031 00cc B2FBF3F3 		udiv	r3, r2, r3
 1032 00d0 3B61     		str	r3, [r7, #16]
 374:Drivers/IL9341/src/ILI9341_STM32_Driver.c **** uint32_t Remainder_from_block = Sending_Size%Buffer_Size;
 1033              		.loc 1 374 10
 1034 00d2 7B69     		ldr	r3, [r7, #20]
 1035 00d4 FA6A     		ldr	r2, [r7, #44]
 1036 00d6 B3FBF2F2 		udiv	r2, r3, r2
 1037 00da F96A     		ldr	r1, [r7, #44]
 1038 00dc 01FB02F2 		mul	r2, r1, r2
 1039 00e0 9B1A     		subs	r3, r3, r2
 1040 00e2 FB60     		str	r3, [r7, #12]
 375:Drivers/IL9341/src/ILI9341_STM32_Driver.c **** // unsigned char burst_buffer2[4] = {chifted, chifted, chifted, chifted};
 376:Drivers/IL9341/src/ILI9341_STM32_Driver.c **** // SPI_Transmit( burst_buffer, 20, 50);
 377:Drivers/IL9341/src/ILI9341_STM32_Driver.c **** if(Sending_in_Block != 0)
 1041              		.loc 1 377 3
 1042 00e4 3B69     		ldr	r3, [r7, #16]
 1043 00e6 002B     		cmp	r3, #0
 1044 00e8 10D0     		beq	.L38
 1045              	.LBB3:
 378:Drivers/IL9341/src/ILI9341_STM32_Driver.c **** {
 379:Drivers/IL9341/src/ILI9341_STM32_Driver.c **** 	for(uint32_t j = 0; j < (Sending_in_Block); j++)
 1046              		.loc 1 379 15
 1047 00ea 0023     		movs	r3, #0
 1048 00ec 7B62     		str	r3, [r7, #36]
 1049              		.loc 1 379 2
 1050 00ee 09E0     		b	.L39
 1051              	.L40:
 380:Drivers/IL9341/src/ILI9341_STM32_Driver.c **** 		{
 381:Drivers/IL9341/src/ILI9341_STM32_Driver.c **** 		
 382:Drivers/IL9341/src/ILI9341_STM32_Driver.c **** 		// ILI9341_Set_Address(0,j,LCD_WIDTH,LCD_HEIGHT);	
 383:Drivers/IL9341/src/ILI9341_STM32_Driver.c **** 
 384:Drivers/IL9341/src/ILI9341_STM32_Driver.c **** 
 385:Drivers/IL9341/src/ILI9341_STM32_Driver.c **** 		SPI_Transmit( (unsigned char *)burst_buffer, Buffer_Size, 10);	
 1052              		.loc 1 385 3 discriminator 3
 1053 00f0 FB6A     		ldr	r3, [r7, #44]
 1054 00f2 9BB2     		uxth	r3, r3
 1055 00f4 0A22     		movs	r2, #10
 1056 00f6 1946     		mov	r1, r3
 1057 00f8 B869     		ldr	r0, [r7, #24]
 1058 00fa FFF7FEFF 		bl	SPI_Transmit
 379:Drivers/IL9341/src/ILI9341_STM32_Driver.c **** 		{
ARM GAS  C:\Users\Morroway\AppData\Local\Temp\cc8F5pJm.s 			page 26


 1059              		.loc 1 379 47 discriminator 3
 1060 00fe 7B6A     		ldr	r3, [r7, #36]
 1061 0100 0133     		adds	r3, r3, #1
 1062 0102 7B62     		str	r3, [r7, #36]
 1063              	.L39:
 379:Drivers/IL9341/src/ILI9341_STM32_Driver.c **** 		{
 1064              		.loc 1 379 24 discriminator 1
 1065 0104 7A6A     		ldr	r2, [r7, #36]
 1066 0106 3B69     		ldr	r3, [r7, #16]
 1067 0108 9A42     		cmp	r2, r3
 1068 010a F1D3     		bcc	.L40
 1069              	.L38:
 1070              	.LBE3:
 386:Drivers/IL9341/src/ILI9341_STM32_Driver.c **** 		}
 387:Drivers/IL9341/src/ILI9341_STM32_Driver.c **** }
 388:Drivers/IL9341/src/ILI9341_STM32_Driver.c **** 
 389:Drivers/IL9341/src/ILI9341_STM32_Driver.c **** //REMAINDER!
 390:Drivers/IL9341/src/ILI9341_STM32_Driver.c **** // SPI_Transmit( (unsigned char *)burst_buffer, j*8, 50);	
 391:Drivers/IL9341/src/ILI9341_STM32_Driver.c **** SPI_Transmit( (unsigned char *)burst_buffer, Remainder_from_block, 10);	
 1071              		.loc 1 391 1
 1072 010c FB68     		ldr	r3, [r7, #12]
 1073 010e 9BB2     		uxth	r3, r3
 1074 0110 0A22     		movs	r2, #10
 1075 0112 1946     		mov	r1, r3
 1076 0114 B869     		ldr	r0, [r7, #24]
 1077 0116 FFF7FEFF 		bl	SPI_Transmit
 392:Drivers/IL9341/src/ILI9341_STM32_Driver.c **** 
 393:Drivers/IL9341/src/ILI9341_STM32_Driver.c **** HAL_GPIO_WritePin(LCD_CS_PORT, LCD_CS_PIN, GPIO_PIN_SET);
 1078              		.loc 1 393 1
 1079 011a 0122     		movs	r2, #1
 1080 011c 4FF48051 		mov	r1, #4096
 1081 0120 0448     		ldr	r0, .L41
 1082 0122 FFF7FEFF 		bl	HAL_GPIO_WritePin
 1083 0126 B546     		mov	sp, r6
 394:Drivers/IL9341/src/ILI9341_STM32_Driver.c **** }
 1084              		.loc 1 394 1
 1085 0128 00BF     		nop
 1086 012a 3437     		adds	r7, r7, #52
 1087              		.cfi_def_cfa_offset 28
 1088 012c BD46     		mov	sp, r7
 1089              		.cfi_def_cfa_register 13
 1090              		@ sp needed
 1091 012e BDE8F083 		pop	{r4, r5, r6, r7, r8, r9, pc}
 1092              	.L42:
 1093 0132 00BF     		.align	2
 1094              	.L41:
 1095 0134 00180048 		.word	1207965696
 1096              		.cfi_endproc
 1097              	.LFE331:
 1099              		.section	.text.ILI9341_Fill_Screen,"ax",%progbits
 1100              		.align	1
 1101              		.global	ILI9341_Fill_Screen
 1102              		.syntax unified
 1103              		.thumb
 1104              		.thumb_func
 1106              	ILI9341_Fill_Screen:
 1107              	.LFB332:
ARM GAS  C:\Users\Morroway\AppData\Local\Temp\cc8F5pJm.s 			page 27


 395:Drivers/IL9341/src/ILI9341_STM32_Driver.c **** 
 396:Drivers/IL9341/src/ILI9341_STM32_Driver.c **** //FILL THE ENTIRE SCREEN WITH SELECTED COLOUR (either #define-d ones or custom 16bit)
 397:Drivers/IL9341/src/ILI9341_STM32_Driver.c **** /*Sets address (entire screen) and Sends Height*Width ammount of colour information to LCD*/
 398:Drivers/IL9341/src/ILI9341_STM32_Driver.c **** void ILI9341_Fill_Screen(uint16_t Colour)
 399:Drivers/IL9341/src/ILI9341_STM32_Driver.c **** {
 1108              		.loc 1 399 1
 1109              		.cfi_startproc
 1110              		@ args = 0, pretend = 0, frame = 8
 1111              		@ frame_needed = 1, uses_anonymous_args = 0
 1112 0000 80B5     		push	{r7, lr}
 1113              		.cfi_def_cfa_offset 8
 1114              		.cfi_offset 7, -8
 1115              		.cfi_offset 14, -4
 1116 0002 82B0     		sub	sp, sp, #8
 1117              		.cfi_def_cfa_offset 16
 1118 0004 00AF     		add	r7, sp, #0
 1119              		.cfi_def_cfa_register 7
 1120 0006 0346     		mov	r3, r0
 1121 0008 FB80     		strh	r3, [r7, #6]	@ movhi
 400:Drivers/IL9341/src/ILI9341_STM32_Driver.c **** ILI9341_Set_Address(0,0,LCD_WIDTH,LCD_HEIGHT);	
 1122              		.loc 1 400 1
 1123 000a 0E4B     		ldr	r3, .L44
 1124 000c 1B88     		ldrh	r3, [r3]	@ movhi
 1125 000e 9AB2     		uxth	r2, r3
 1126 0010 0D4B     		ldr	r3, .L44+4
 1127 0012 1B88     		ldrh	r3, [r3]	@ movhi
 1128 0014 9BB2     		uxth	r3, r3
 1129 0016 0021     		movs	r1, #0
 1130 0018 0020     		movs	r0, #0
 1131 001a FFF7FEFF 		bl	ILI9341_Set_Address
 401:Drivers/IL9341/src/ILI9341_STM32_Driver.c **** ILI9341_Draw_Colour_Burst(Colour, LCD_WIDTH*LCD_HEIGHT);	
 1132              		.loc 1 401 44
 1133 001e 094B     		ldr	r3, .L44
 1134 0020 1B88     		ldrh	r3, [r3]	@ movhi
 1135 0022 9BB2     		uxth	r3, r3
 1136 0024 1A46     		mov	r2, r3
 1137 0026 084B     		ldr	r3, .L44+4
 1138 0028 1B88     		ldrh	r3, [r3]	@ movhi
 1139 002a 9BB2     		uxth	r3, r3
 1140 002c 02FB03F3 		mul	r3, r2, r3
 1141              		.loc 1 401 1
 1142 0030 1A46     		mov	r2, r3
 1143 0032 FB88     		ldrh	r3, [r7, #6]
 1144 0034 1146     		mov	r1, r2
 1145 0036 1846     		mov	r0, r3
 1146 0038 FFF7FEFF 		bl	ILI9341_Draw_Colour_Burst
 402:Drivers/IL9341/src/ILI9341_STM32_Driver.c **** }
 1147              		.loc 1 402 1
 1148 003c 00BF     		nop
 1149 003e 0837     		adds	r7, r7, #8
 1150              		.cfi_def_cfa_offset 8
 1151 0040 BD46     		mov	sp, r7
 1152              		.cfi_def_cfa_register 13
 1153              		@ sp needed
 1154 0042 80BD     		pop	{r7, pc}
 1155              	.L45:
 1156              		.align	2
ARM GAS  C:\Users\Morroway\AppData\Local\Temp\cc8F5pJm.s 			page 28


 1157              	.L44:
 1158 0044 00000000 		.word	LCD_WIDTH
 1159 0048 00000000 		.word	LCD_HEIGHT
 1160              		.cfi_endproc
 1161              	.LFE332:
 1163              		.section	.text.ILI9341_Draw_Pixel,"ax",%progbits
 1164              		.align	1
 1165              		.global	ILI9341_Draw_Pixel
 1166              		.syntax unified
 1167              		.thumb
 1168              		.thumb_func
 1170              	ILI9341_Draw_Pixel:
 1171              	.LFB333:
 403:Drivers/IL9341/src/ILI9341_STM32_Driver.c **** 
 404:Drivers/IL9341/src/ILI9341_STM32_Driver.c **** //DRAW PIXEL AT XY POSITION WITH SELECTED COLOUR
 405:Drivers/IL9341/src/ILI9341_STM32_Driver.c **** //
 406:Drivers/IL9341/src/ILI9341_STM32_Driver.c **** //Location is dependant on screen orientation. x0 and y0 locations change with orientations.
 407:Drivers/IL9341/src/ILI9341_STM32_Driver.c **** //Using pixels to draw big simple structures is not recommended as it is really slow
 408:Drivers/IL9341/src/ILI9341_STM32_Driver.c **** //Try using either rectangles or lines if possible
 409:Drivers/IL9341/src/ILI9341_STM32_Driver.c **** //
 410:Drivers/IL9341/src/ILI9341_STM32_Driver.c **** void ILI9341_Draw_Pixel(uint16_t X,uint16_t Y,uint16_t Colour) 
 411:Drivers/IL9341/src/ILI9341_STM32_Driver.c **** {
 1172              		.loc 1 411 1
 1173              		.cfi_startproc
 1174              		@ args = 0, pretend = 0, frame = 24
 1175              		@ frame_needed = 1, uses_anonymous_args = 0
 1176 0000 80B5     		push	{r7, lr}
 1177              		.cfi_def_cfa_offset 8
 1178              		.cfi_offset 7, -8
 1179              		.cfi_offset 14, -4
 1180 0002 86B0     		sub	sp, sp, #24
 1181              		.cfi_def_cfa_offset 32
 1182 0004 00AF     		add	r7, sp, #0
 1183              		.cfi_def_cfa_register 7
 1184 0006 0346     		mov	r3, r0
 1185 0008 FB80     		strh	r3, [r7, #6]	@ movhi
 1186 000a 0B46     		mov	r3, r1	@ movhi
 1187 000c BB80     		strh	r3, [r7, #4]	@ movhi
 1188 000e 1346     		mov	r3, r2	@ movhi
 1189 0010 7B80     		strh	r3, [r7, #2]	@ movhi
 412:Drivers/IL9341/src/ILI9341_STM32_Driver.c **** if((X >=LCD_WIDTH) || (Y >=LCD_HEIGHT)) return;	//OUT OF BOUNDS!
 1190              		.loc 1 412 7
 1191 0012 644B     		ldr	r3, .L51
 1192 0014 1B88     		ldrh	r3, [r3]	@ movhi
 1193 0016 9BB2     		uxth	r3, r3
 1194              		.loc 1 412 3
 1195 0018 FA88     		ldrh	r2, [r7, #6]
 1196 001a 9A42     		cmp	r2, r3
 1197 001c 80F0BE80 		bcs	.L50
 1198              		.loc 1 412 26 discriminator 2
 1199 0020 614B     		ldr	r3, .L51+4
 1200 0022 1B88     		ldrh	r3, [r3]	@ movhi
 1201 0024 9BB2     		uxth	r3, r3
 1202              		.loc 1 412 20 discriminator 2
 1203 0026 BA88     		ldrh	r2, [r7, #4]
 1204 0028 9A42     		cmp	r2, r3
 1205 002a 80F0B780 		bcs	.L50
ARM GAS  C:\Users\Morroway\AppData\Local\Temp\cc8F5pJm.s 			page 29


 413:Drivers/IL9341/src/ILI9341_STM32_Driver.c **** 	
 414:Drivers/IL9341/src/ILI9341_STM32_Driver.c **** //ADDRESS
 415:Drivers/IL9341/src/ILI9341_STM32_Driver.c **** HAL_GPIO_WritePin(LCD_DC_PORT, LCD_DC_PIN, GPIO_PIN_RESET);	
 1206              		.loc 1 415 1
 1207 002e 0022     		movs	r2, #0
 1208 0030 4FF40051 		mov	r1, #8192
 1209 0034 5D48     		ldr	r0, .L51+8
 1210 0036 FFF7FEFF 		bl	HAL_GPIO_WritePin
 416:Drivers/IL9341/src/ILI9341_STM32_Driver.c **** HAL_GPIO_WritePin(LCD_CS_PORT, LCD_CS_PIN, GPIO_PIN_RESET);
 1211              		.loc 1 416 1
 1212 003a 0022     		movs	r2, #0
 1213 003c 4FF48051 		mov	r1, #4096
 1214 0040 5A48     		ldr	r0, .L51+8
 1215 0042 FFF7FEFF 		bl	HAL_GPIO_WritePin
 417:Drivers/IL9341/src/ILI9341_STM32_Driver.c **** ILI9341_SPI_Send(0x2A);
 1216              		.loc 1 417 1
 1217 0046 2A20     		movs	r0, #42
 1218 0048 FFF7FEFF 		bl	ILI9341_SPI_Send
 418:Drivers/IL9341/src/ILI9341_STM32_Driver.c **** HAL_GPIO_WritePin(LCD_DC_PORT, LCD_DC_PIN, GPIO_PIN_SET);	
 1219              		.loc 1 418 1
 1220 004c 0122     		movs	r2, #1
 1221 004e 4FF40051 		mov	r1, #8192
 1222 0052 5648     		ldr	r0, .L51+8
 1223 0054 FFF7FEFF 		bl	HAL_GPIO_WritePin
 419:Drivers/IL9341/src/ILI9341_STM32_Driver.c **** HAL_GPIO_WritePin(LCD_CS_PORT, LCD_CS_PIN, GPIO_PIN_SET);		
 1224              		.loc 1 419 1
 1225 0058 0122     		movs	r2, #1
 1226 005a 4FF48051 		mov	r1, #4096
 1227 005e 5348     		ldr	r0, .L51+8
 1228 0060 FFF7FEFF 		bl	HAL_GPIO_WritePin
 420:Drivers/IL9341/src/ILI9341_STM32_Driver.c **** 
 421:Drivers/IL9341/src/ILI9341_STM32_Driver.c **** //XDATA
 422:Drivers/IL9341/src/ILI9341_STM32_Driver.c **** HAL_GPIO_WritePin(LCD_CS_PORT, LCD_CS_PIN, GPIO_PIN_RESET);	
 1229              		.loc 1 422 1
 1230 0064 0022     		movs	r2, #0
 1231 0066 4FF48051 		mov	r1, #4096
 1232 006a 5048     		ldr	r0, .L51+8
 1233 006c FFF7FEFF 		bl	HAL_GPIO_WritePin
 423:Drivers/IL9341/src/ILI9341_STM32_Driver.c **** unsigned char Temp_Buffer[4] = {X>>8,X, (X+1)>>8, (X+1)};
 1234              		.loc 1 423 15
 1235 0070 FB88     		ldrh	r3, [r7, #6]
 1236 0072 1B0A     		lsrs	r3, r3, #8
 1237 0074 9BB2     		uxth	r3, r3
 1238 0076 DBB2     		uxtb	r3, r3
 1239 0078 3B75     		strb	r3, [r7, #20]
 1240 007a FB88     		ldrh	r3, [r7, #6]	@ movhi
 1241 007c DBB2     		uxtb	r3, r3
 1242 007e 7B75     		strb	r3, [r7, #21]
 1243              		.loc 1 423 43
 1244 0080 FB88     		ldrh	r3, [r7, #6]
 1245 0082 0133     		adds	r3, r3, #1
 1246              		.loc 1 423 46
 1247 0084 1B12     		asrs	r3, r3, #8
 1248              		.loc 1 423 15
 1249 0086 DBB2     		uxtb	r3, r3
 1250 0088 BB75     		strb	r3, [r7, #22]
 1251              		.loc 1 423 53
ARM GAS  C:\Users\Morroway\AppData\Local\Temp\cc8F5pJm.s 			page 30


 1252 008a FB88     		ldrh	r3, [r7, #6]	@ movhi
 1253 008c DBB2     		uxtb	r3, r3
 1254 008e 0133     		adds	r3, r3, #1
 1255 0090 DBB2     		uxtb	r3, r3
 1256              		.loc 1 423 15
 1257 0092 FB75     		strb	r3, [r7, #23]
 424:Drivers/IL9341/src/ILI9341_STM32_Driver.c **** SPI_Transmit(Temp_Buffer, 4, 1);
 1258              		.loc 1 424 1
 1259 0094 07F11403 		add	r3, r7, #20
 1260 0098 0122     		movs	r2, #1
 1261 009a 0421     		movs	r1, #4
 1262 009c 1846     		mov	r0, r3
 1263 009e FFF7FEFF 		bl	SPI_Transmit
 425:Drivers/IL9341/src/ILI9341_STM32_Driver.c **** HAL_GPIO_WritePin(LCD_CS_PORT, LCD_CS_PIN, GPIO_PIN_SET);
 1264              		.loc 1 425 1
 1265 00a2 0122     		movs	r2, #1
 1266 00a4 4FF48051 		mov	r1, #4096
 1267 00a8 4048     		ldr	r0, .L51+8
 1268 00aa FFF7FEFF 		bl	HAL_GPIO_WritePin
 426:Drivers/IL9341/src/ILI9341_STM32_Driver.c **** 
 427:Drivers/IL9341/src/ILI9341_STM32_Driver.c **** //ADDRESS
 428:Drivers/IL9341/src/ILI9341_STM32_Driver.c **** HAL_GPIO_WritePin(LCD_DC_PORT, LCD_DC_PIN, GPIO_PIN_RESET);	
 1269              		.loc 1 428 1
 1270 00ae 0022     		movs	r2, #0
 1271 00b0 4FF40051 		mov	r1, #8192
 1272 00b4 3D48     		ldr	r0, .L51+8
 1273 00b6 FFF7FEFF 		bl	HAL_GPIO_WritePin
 429:Drivers/IL9341/src/ILI9341_STM32_Driver.c **** HAL_GPIO_WritePin(LCD_CS_PORT, LCD_CS_PIN, GPIO_PIN_RESET);	
 1274              		.loc 1 429 1
 1275 00ba 0022     		movs	r2, #0
 1276 00bc 4FF48051 		mov	r1, #4096
 1277 00c0 3A48     		ldr	r0, .L51+8
 1278 00c2 FFF7FEFF 		bl	HAL_GPIO_WritePin
 430:Drivers/IL9341/src/ILI9341_STM32_Driver.c **** ILI9341_SPI_Send(0x2B);
 1279              		.loc 1 430 1
 1280 00c6 2B20     		movs	r0, #43
 1281 00c8 FFF7FEFF 		bl	ILI9341_SPI_Send
 431:Drivers/IL9341/src/ILI9341_STM32_Driver.c **** HAL_GPIO_WritePin(LCD_DC_PORT, LCD_DC_PIN, GPIO_PIN_SET);			
 1282              		.loc 1 431 1
 1283 00cc 0122     		movs	r2, #1
 1284 00ce 4FF40051 		mov	r1, #8192
 1285 00d2 3648     		ldr	r0, .L51+8
 1286 00d4 FFF7FEFF 		bl	HAL_GPIO_WritePin
 432:Drivers/IL9341/src/ILI9341_STM32_Driver.c **** HAL_GPIO_WritePin(LCD_CS_PORT, LCD_CS_PIN, GPIO_PIN_SET);			
 1287              		.loc 1 432 1
 1288 00d8 0122     		movs	r2, #1
 1289 00da 4FF48051 		mov	r1, #4096
 1290 00de 3348     		ldr	r0, .L51+8
 1291 00e0 FFF7FEFF 		bl	HAL_GPIO_WritePin
 433:Drivers/IL9341/src/ILI9341_STM32_Driver.c **** 
 434:Drivers/IL9341/src/ILI9341_STM32_Driver.c **** //YDATA
 435:Drivers/IL9341/src/ILI9341_STM32_Driver.c **** HAL_GPIO_WritePin(LCD_CS_PORT, LCD_CS_PIN, GPIO_PIN_RESET);
 1292              		.loc 1 435 1
 1293 00e4 0022     		movs	r2, #0
 1294 00e6 4FF48051 		mov	r1, #4096
 1295 00ea 3048     		ldr	r0, .L51+8
 1296 00ec FFF7FEFF 		bl	HAL_GPIO_WritePin
ARM GAS  C:\Users\Morroway\AppData\Local\Temp\cc8F5pJm.s 			page 31


 436:Drivers/IL9341/src/ILI9341_STM32_Driver.c **** unsigned char Temp_Buffer1[4] = {Y>>8,Y, (Y+1)>>8, (Y+1)};
 1297              		.loc 1 436 15
 1298 00f0 BB88     		ldrh	r3, [r7, #4]
 1299 00f2 1B0A     		lsrs	r3, r3, #8
 1300 00f4 9BB2     		uxth	r3, r3
 1301 00f6 DBB2     		uxtb	r3, r3
 1302 00f8 3B74     		strb	r3, [r7, #16]
 1303 00fa BB88     		ldrh	r3, [r7, #4]	@ movhi
 1304 00fc DBB2     		uxtb	r3, r3
 1305 00fe 7B74     		strb	r3, [r7, #17]
 1306              		.loc 1 436 44
 1307 0100 BB88     		ldrh	r3, [r7, #4]
 1308 0102 0133     		adds	r3, r3, #1
 1309              		.loc 1 436 47
 1310 0104 1B12     		asrs	r3, r3, #8
 1311              		.loc 1 436 15
 1312 0106 DBB2     		uxtb	r3, r3
 1313 0108 BB74     		strb	r3, [r7, #18]
 1314              		.loc 1 436 54
 1315 010a BB88     		ldrh	r3, [r7, #4]	@ movhi
 1316 010c DBB2     		uxtb	r3, r3
 1317 010e 0133     		adds	r3, r3, #1
 1318 0110 DBB2     		uxtb	r3, r3
 1319              		.loc 1 436 15
 1320 0112 FB74     		strb	r3, [r7, #19]
 437:Drivers/IL9341/src/ILI9341_STM32_Driver.c **** SPI_Transmit( Temp_Buffer1, 4, 1);
 1321              		.loc 1 437 1
 1322 0114 07F11003 		add	r3, r7, #16
 1323 0118 0122     		movs	r2, #1
 1324 011a 0421     		movs	r1, #4
 1325 011c 1846     		mov	r0, r3
 1326 011e FFF7FEFF 		bl	SPI_Transmit
 438:Drivers/IL9341/src/ILI9341_STM32_Driver.c **** HAL_GPIO_WritePin(LCD_CS_PORT, LCD_CS_PIN, GPIO_PIN_SET);
 1327              		.loc 1 438 1
 1328 0122 0122     		movs	r2, #1
 1329 0124 4FF48051 		mov	r1, #4096
 1330 0128 2048     		ldr	r0, .L51+8
 1331 012a FFF7FEFF 		bl	HAL_GPIO_WritePin
 439:Drivers/IL9341/src/ILI9341_STM32_Driver.c **** 
 440:Drivers/IL9341/src/ILI9341_STM32_Driver.c **** //ADDRESS	
 441:Drivers/IL9341/src/ILI9341_STM32_Driver.c **** HAL_GPIO_WritePin(LCD_DC_PORT, LCD_DC_PIN, GPIO_PIN_RESET);	
 1332              		.loc 1 441 1
 1333 012e 0022     		movs	r2, #0
 1334 0130 4FF40051 		mov	r1, #8192
 1335 0134 1D48     		ldr	r0, .L51+8
 1336 0136 FFF7FEFF 		bl	HAL_GPIO_WritePin
 442:Drivers/IL9341/src/ILI9341_STM32_Driver.c **** HAL_GPIO_WritePin(LCD_CS_PORT, LCD_CS_PIN, GPIO_PIN_RESET);	
 1337              		.loc 1 442 1
 1338 013a 0022     		movs	r2, #0
 1339 013c 4FF48051 		mov	r1, #4096
 1340 0140 1A48     		ldr	r0, .L51+8
 1341 0142 FFF7FEFF 		bl	HAL_GPIO_WritePin
 443:Drivers/IL9341/src/ILI9341_STM32_Driver.c **** ILI9341_SPI_Send(0x2C);
 1342              		.loc 1 443 1
 1343 0146 2C20     		movs	r0, #44
 1344 0148 FFF7FEFF 		bl	ILI9341_SPI_Send
 444:Drivers/IL9341/src/ILI9341_STM32_Driver.c **** HAL_GPIO_WritePin(LCD_DC_PORT, LCD_DC_PIN, GPIO_PIN_SET);			
ARM GAS  C:\Users\Morroway\AppData\Local\Temp\cc8F5pJm.s 			page 32


 1345              		.loc 1 444 1
 1346 014c 0122     		movs	r2, #1
 1347 014e 4FF40051 		mov	r1, #8192
 1348 0152 1648     		ldr	r0, .L51+8
 1349 0154 FFF7FEFF 		bl	HAL_GPIO_WritePin
 445:Drivers/IL9341/src/ILI9341_STM32_Driver.c **** HAL_GPIO_WritePin(LCD_CS_PORT, LCD_CS_PIN, GPIO_PIN_SET);			
 1350              		.loc 1 445 1
 1351 0158 0122     		movs	r2, #1
 1352 015a 4FF48051 		mov	r1, #4096
 1353 015e 1348     		ldr	r0, .L51+8
 1354 0160 FFF7FEFF 		bl	HAL_GPIO_WritePin
 446:Drivers/IL9341/src/ILI9341_STM32_Driver.c **** 
 447:Drivers/IL9341/src/ILI9341_STM32_Driver.c **** //COLOUR	
 448:Drivers/IL9341/src/ILI9341_STM32_Driver.c **** HAL_GPIO_WritePin(LCD_CS_PORT, LCD_CS_PIN, GPIO_PIN_RESET);
 1355              		.loc 1 448 1
 1356 0164 0022     		movs	r2, #0
 1357 0166 4FF48051 		mov	r1, #4096
 1358 016a 1048     		ldr	r0, .L51+8
 1359 016c FFF7FEFF 		bl	HAL_GPIO_WritePin
 449:Drivers/IL9341/src/ILI9341_STM32_Driver.c **** unsigned char Temp_Buffer2[2] = {Colour>>8, Colour};
 1360              		.loc 1 449 15
 1361 0170 7B88     		ldrh	r3, [r7, #2]
 1362 0172 1B0A     		lsrs	r3, r3, #8
 1363 0174 9BB2     		uxth	r3, r3
 1364 0176 DBB2     		uxtb	r3, r3
 1365 0178 3B73     		strb	r3, [r7, #12]
 1366 017a 7B88     		ldrh	r3, [r7, #2]	@ movhi
 1367 017c DBB2     		uxtb	r3, r3
 1368 017e 7B73     		strb	r3, [r7, #13]
 450:Drivers/IL9341/src/ILI9341_STM32_Driver.c **** SPI_Transmit( Temp_Buffer2, 2, 1);
 1369              		.loc 1 450 1
 1370 0180 07F10C03 		add	r3, r7, #12
 1371 0184 0122     		movs	r2, #1
 1372 0186 0221     		movs	r1, #2
 1373 0188 1846     		mov	r0, r3
 1374 018a FFF7FEFF 		bl	SPI_Transmit
 451:Drivers/IL9341/src/ILI9341_STM32_Driver.c **** HAL_GPIO_WritePin(LCD_CS_PORT, LCD_CS_PIN, GPIO_PIN_SET);
 1375              		.loc 1 451 1
 1376 018e 0122     		movs	r2, #1
 1377 0190 4FF48051 		mov	r1, #4096
 1378 0194 0548     		ldr	r0, .L51+8
 1379 0196 FFF7FEFF 		bl	HAL_GPIO_WritePin
 1380 019a 00E0     		b	.L46
 1381              	.L50:
 412:Drivers/IL9341/src/ILI9341_STM32_Driver.c **** 	
 1382              		.loc 1 412 41
 1383 019c 00BF     		nop
 1384              	.L46:
 452:Drivers/IL9341/src/ILI9341_STM32_Driver.c **** 	
 453:Drivers/IL9341/src/ILI9341_STM32_Driver.c **** }
 1385              		.loc 1 453 1
 1386 019e 1837     		adds	r7, r7, #24
 1387              		.cfi_def_cfa_offset 8
 1388 01a0 BD46     		mov	sp, r7
 1389              		.cfi_def_cfa_register 13
 1390              		@ sp needed
 1391 01a2 80BD     		pop	{r7, pc}
ARM GAS  C:\Users\Morroway\AppData\Local\Temp\cc8F5pJm.s 			page 33


 1392              	.L52:
 1393              		.align	2
 1394              	.L51:
 1395 01a4 00000000 		.word	LCD_WIDTH
 1396 01a8 00000000 		.word	LCD_HEIGHT
 1397 01ac 00180048 		.word	1207965696
 1398              		.cfi_endproc
 1399              	.LFE333:
 1401              		.section	.text.ILI9341_Draw_Rectangle,"ax",%progbits
 1402              		.align	1
 1403              		.global	ILI9341_Draw_Rectangle
 1404              		.syntax unified
 1405              		.thumb
 1406              		.thumb_func
 1408              	ILI9341_Draw_Rectangle:
 1409              	.LFB334:
 454:Drivers/IL9341/src/ILI9341_STM32_Driver.c **** 
 455:Drivers/IL9341/src/ILI9341_STM32_Driver.c **** //DRAW RECTANGLE OF SET SIZE AND HEIGTH AT X and Y POSITION WITH CUSTOM COLOUR
 456:Drivers/IL9341/src/ILI9341_STM32_Driver.c **** //
 457:Drivers/IL9341/src/ILI9341_STM32_Driver.c **** //Rectangle is hollow. X and Y positions mark the upper left corner of rectangle
 458:Drivers/IL9341/src/ILI9341_STM32_Driver.c **** //As with all other draw calls x0 and y0 locations dependant on screen orientation
 459:Drivers/IL9341/src/ILI9341_STM32_Driver.c **** //
 460:Drivers/IL9341/src/ILI9341_STM32_Driver.c **** 
 461:Drivers/IL9341/src/ILI9341_STM32_Driver.c **** void ILI9341_Draw_Rectangle(uint16_t X, uint16_t Y, uint16_t Width, uint16_t Height, uint16_t Colou
 462:Drivers/IL9341/src/ILI9341_STM32_Driver.c **** {
 1410              		.loc 1 462 1
 1411              		.cfi_startproc
 1412              		@ args = 4, pretend = 0, frame = 8
 1413              		@ frame_needed = 1, uses_anonymous_args = 0
 1414 0000 90B5     		push	{r4, r7, lr}
 1415              		.cfi_def_cfa_offset 12
 1416              		.cfi_offset 4, -12
 1417              		.cfi_offset 7, -8
 1418              		.cfi_offset 14, -4
 1419 0002 83B0     		sub	sp, sp, #12
 1420              		.cfi_def_cfa_offset 24
 1421 0004 00AF     		add	r7, sp, #0
 1422              		.cfi_def_cfa_register 7
 1423 0006 0446     		mov	r4, r0
 1424 0008 0846     		mov	r0, r1
 1425 000a 1146     		mov	r1, r2
 1426 000c 1A46     		mov	r2, r3
 1427 000e 2346     		mov	r3, r4	@ movhi
 1428 0010 FB80     		strh	r3, [r7, #6]	@ movhi
 1429 0012 0346     		mov	r3, r0	@ movhi
 1430 0014 BB80     		strh	r3, [r7, #4]	@ movhi
 1431 0016 0B46     		mov	r3, r1	@ movhi
 1432 0018 7B80     		strh	r3, [r7, #2]	@ movhi
 1433 001a 1346     		mov	r3, r2	@ movhi
 1434 001c 3B80     		strh	r3, [r7]	@ movhi
 463:Drivers/IL9341/src/ILI9341_STM32_Driver.c **** if((X >=LCD_WIDTH) || (Y >=LCD_HEIGHT)) return;
 1435              		.loc 1 463 7
 1436 001e 244B     		ldr	r3, .L60
 1437 0020 1B88     		ldrh	r3, [r3]	@ movhi
 1438 0022 9BB2     		uxth	r3, r3
 1439              		.loc 1 463 3
 1440 0024 FA88     		ldrh	r2, [r7, #6]
ARM GAS  C:\Users\Morroway\AppData\Local\Temp\cc8F5pJm.s 			page 34


 1441 0026 9A42     		cmp	r2, r3
 1442 0028 3DD2     		bcs	.L59
 1443              		.loc 1 463 26 discriminator 2
 1444 002a 224B     		ldr	r3, .L60+4
 1445 002c 1B88     		ldrh	r3, [r3]	@ movhi
 1446 002e 9BB2     		uxth	r3, r3
 1447              		.loc 1 463 20 discriminator 2
 1448 0030 BA88     		ldrh	r2, [r7, #4]
 1449 0032 9A42     		cmp	r2, r3
 1450 0034 37D2     		bcs	.L59
 464:Drivers/IL9341/src/ILI9341_STM32_Driver.c **** if((X+Width-1)>=LCD_WIDTH)
 1451              		.loc 1 464 6
 1452 0036 FA88     		ldrh	r2, [r7, #6]
 1453 0038 7B88     		ldrh	r3, [r7, #2]
 1454 003a 1344     		add	r3, r3, r2
 1455              		.loc 1 464 15
 1456 003c 1C4A     		ldr	r2, .L60
 1457 003e 1288     		ldrh	r2, [r2]	@ movhi
 1458 0040 92B2     		uxth	r2, r2
 1459              		.loc 1 464 3
 1460 0042 9342     		cmp	r3, r2
 1461 0044 05DD     		ble	.L57
 465:Drivers/IL9341/src/ILI9341_STM32_Driver.c **** 	{
 466:Drivers/IL9341/src/ILI9341_STM32_Driver.c **** 		Width=LCD_WIDTH-X;
 1462              		.loc 1 466 18
 1463 0046 1A4B     		ldr	r3, .L60
 1464 0048 1B88     		ldrh	r3, [r3]	@ movhi
 1465 004a 9AB2     		uxth	r2, r3
 1466              		.loc 1 466 8
 1467 004c FB88     		ldrh	r3, [r7, #6]	@ movhi
 1468 004e D31A     		subs	r3, r2, r3
 1469 0050 7B80     		strh	r3, [r7, #2]	@ movhi
 1470              	.L57:
 467:Drivers/IL9341/src/ILI9341_STM32_Driver.c **** 	}
 468:Drivers/IL9341/src/ILI9341_STM32_Driver.c **** if((Y+Height-1)>=LCD_HEIGHT)
 1471              		.loc 1 468 6
 1472 0052 BA88     		ldrh	r2, [r7, #4]
 1473 0054 3B88     		ldrh	r3, [r7]
 1474 0056 1344     		add	r3, r3, r2
 1475              		.loc 1 468 16
 1476 0058 164A     		ldr	r2, .L60+4
 1477 005a 1288     		ldrh	r2, [r2]	@ movhi
 1478 005c 92B2     		uxth	r2, r2
 1479              		.loc 1 468 3
 1480 005e 9342     		cmp	r3, r2
 1481 0060 05DD     		ble	.L58
 469:Drivers/IL9341/src/ILI9341_STM32_Driver.c **** 	{
 470:Drivers/IL9341/src/ILI9341_STM32_Driver.c **** 		Height=LCD_HEIGHT-Y;
 1482              		.loc 1 470 20
 1483 0062 144B     		ldr	r3, .L60+4
 1484 0064 1B88     		ldrh	r3, [r3]	@ movhi
 1485 0066 9AB2     		uxth	r2, r3
 1486              		.loc 1 470 9
 1487 0068 BB88     		ldrh	r3, [r7, #4]	@ movhi
 1488 006a D31A     		subs	r3, r2, r3
 1489 006c 3B80     		strh	r3, [r7]	@ movhi
 1490              	.L58:
ARM GAS  C:\Users\Morroway\AppData\Local\Temp\cc8F5pJm.s 			page 35


 471:Drivers/IL9341/src/ILI9341_STM32_Driver.c **** 	}
 472:Drivers/IL9341/src/ILI9341_STM32_Driver.c **** ILI9341_Set_Address(X, Y, X+Width-1, Y+Height-1);
 1491              		.loc 1 472 28
 1492 006e FA88     		ldrh	r2, [r7, #6]	@ movhi
 1493 0070 7B88     		ldrh	r3, [r7, #2]	@ movhi
 1494 0072 1344     		add	r3, r3, r2
 1495 0074 9BB2     		uxth	r3, r3
 1496              		.loc 1 472 1
 1497 0076 013B     		subs	r3, r3, #1
 1498 0078 9CB2     		uxth	r4, r3
 1499              		.loc 1 472 39
 1500 007a BA88     		ldrh	r2, [r7, #4]	@ movhi
 1501 007c 3B88     		ldrh	r3, [r7]	@ movhi
 1502 007e 1344     		add	r3, r3, r2
 1503 0080 9BB2     		uxth	r3, r3
 1504              		.loc 1 472 1
 1505 0082 013B     		subs	r3, r3, #1
 1506 0084 9BB2     		uxth	r3, r3
 1507 0086 B988     		ldrh	r1, [r7, #4]
 1508 0088 F888     		ldrh	r0, [r7, #6]
 1509 008a 2246     		mov	r2, r4
 1510 008c FFF7FEFF 		bl	ILI9341_Set_Address
 473:Drivers/IL9341/src/ILI9341_STM32_Driver.c **** ILI9341_Draw_Colour_Burst(Colour, Height*Width);
 1511              		.loc 1 473 41
 1512 0090 3B88     		ldrh	r3, [r7]
 1513 0092 7A88     		ldrh	r2, [r7, #2]
 1514 0094 02FB03F3 		mul	r3, r2, r3
 1515              		.loc 1 473 1
 1516 0098 1A46     		mov	r2, r3
 1517 009a 3B8B     		ldrh	r3, [r7, #24]
 1518 009c 1146     		mov	r1, r2
 1519 009e 1846     		mov	r0, r3
 1520 00a0 FFF7FEFF 		bl	ILI9341_Draw_Colour_Burst
 1521 00a4 00E0     		b	.L53
 1522              	.L59:
 463:Drivers/IL9341/src/ILI9341_STM32_Driver.c **** if((X+Width-1)>=LCD_WIDTH)
 1523              		.loc 1 463 41
 1524 00a6 00BF     		nop
 1525              	.L53:
 474:Drivers/IL9341/src/ILI9341_STM32_Driver.c **** }
 1526              		.loc 1 474 1
 1527 00a8 0C37     		adds	r7, r7, #12
 1528              		.cfi_def_cfa_offset 12
 1529 00aa BD46     		mov	sp, r7
 1530              		.cfi_def_cfa_register 13
 1531              		@ sp needed
 1532 00ac 90BD     		pop	{r4, r7, pc}
 1533              	.L61:
 1534 00ae 00BF     		.align	2
 1535              	.L60:
 1536 00b0 00000000 		.word	LCD_WIDTH
 1537 00b4 00000000 		.word	LCD_HEIGHT
 1538              		.cfi_endproc
 1539              	.LFE334:
 1541              		.section	.text.ILI9341_Draw_Horizontal_Line,"ax",%progbits
 1542              		.align	1
 1543              		.global	ILI9341_Draw_Horizontal_Line
ARM GAS  C:\Users\Morroway\AppData\Local\Temp\cc8F5pJm.s 			page 36


 1544              		.syntax unified
 1545              		.thumb
 1546              		.thumb_func
 1548              	ILI9341_Draw_Horizontal_Line:
 1549              	.LFB335:
 475:Drivers/IL9341/src/ILI9341_STM32_Driver.c **** 
 476:Drivers/IL9341/src/ILI9341_STM32_Driver.c **** //DRAW LINE FROM X,Y LOCATION to X+Width,Y LOCATION
 477:Drivers/IL9341/src/ILI9341_STM32_Driver.c **** void ILI9341_Draw_Horizontal_Line(uint16_t X, uint16_t Y, uint16_t Width, uint16_t Colour)
 478:Drivers/IL9341/src/ILI9341_STM32_Driver.c **** {
 1550              		.loc 1 478 1
 1551              		.cfi_startproc
 1552              		@ args = 0, pretend = 0, frame = 8
 1553              		@ frame_needed = 1, uses_anonymous_args = 0
 1554 0000 90B5     		push	{r4, r7, lr}
 1555              		.cfi_def_cfa_offset 12
 1556              		.cfi_offset 4, -12
 1557              		.cfi_offset 7, -8
 1558              		.cfi_offset 14, -4
 1559 0002 83B0     		sub	sp, sp, #12
 1560              		.cfi_def_cfa_offset 24
 1561 0004 00AF     		add	r7, sp, #0
 1562              		.cfi_def_cfa_register 7
 1563 0006 0446     		mov	r4, r0
 1564 0008 0846     		mov	r0, r1
 1565 000a 1146     		mov	r1, r2
 1566 000c 1A46     		mov	r2, r3
 1567 000e 2346     		mov	r3, r4	@ movhi
 1568 0010 FB80     		strh	r3, [r7, #6]	@ movhi
 1569 0012 0346     		mov	r3, r0	@ movhi
 1570 0014 BB80     		strh	r3, [r7, #4]	@ movhi
 1571 0016 0B46     		mov	r3, r1	@ movhi
 1572 0018 7B80     		strh	r3, [r7, #2]	@ movhi
 1573 001a 1346     		mov	r3, r2	@ movhi
 1574 001c 3B80     		strh	r3, [r7]	@ movhi
 479:Drivers/IL9341/src/ILI9341_STM32_Driver.c **** if((X >=LCD_WIDTH) || (Y >=LCD_HEIGHT)) return;
 1575              		.loc 1 479 7
 1576 001e 184B     		ldr	r3, .L68
 1577 0020 1B88     		ldrh	r3, [r3]	@ movhi
 1578 0022 9BB2     		uxth	r3, r3
 1579              		.loc 1 479 3
 1580 0024 FA88     		ldrh	r2, [r7, #6]
 1581 0026 9A42     		cmp	r2, r3
 1582 0028 25D2     		bcs	.L67
 1583              		.loc 1 479 26 discriminator 2
 1584 002a 164B     		ldr	r3, .L68+4
 1585 002c 1B88     		ldrh	r3, [r3]	@ movhi
 1586 002e 9BB2     		uxth	r3, r3
 1587              		.loc 1 479 20 discriminator 2
 1588 0030 BA88     		ldrh	r2, [r7, #4]
 1589 0032 9A42     		cmp	r2, r3
 1590 0034 1FD2     		bcs	.L67
 480:Drivers/IL9341/src/ILI9341_STM32_Driver.c **** if((X+Width-1)>=LCD_WIDTH)
 1591              		.loc 1 480 6
 1592 0036 FA88     		ldrh	r2, [r7, #6]
 1593 0038 7B88     		ldrh	r3, [r7, #2]
 1594 003a 1344     		add	r3, r3, r2
 1595              		.loc 1 480 15
ARM GAS  C:\Users\Morroway\AppData\Local\Temp\cc8F5pJm.s 			page 37


 1596 003c 104A     		ldr	r2, .L68
 1597 003e 1288     		ldrh	r2, [r2]	@ movhi
 1598 0040 92B2     		uxth	r2, r2
 1599              		.loc 1 480 3
 1600 0042 9342     		cmp	r3, r2
 1601 0044 05DD     		ble	.L66
 481:Drivers/IL9341/src/ILI9341_STM32_Driver.c **** 	{
 482:Drivers/IL9341/src/ILI9341_STM32_Driver.c **** 		Width=LCD_WIDTH-X;
 1602              		.loc 1 482 18
 1603 0046 0E4B     		ldr	r3, .L68
 1604 0048 1B88     		ldrh	r3, [r3]	@ movhi
 1605 004a 9AB2     		uxth	r2, r3
 1606              		.loc 1 482 8
 1607 004c FB88     		ldrh	r3, [r7, #6]	@ movhi
 1608 004e D31A     		subs	r3, r2, r3
 1609 0050 7B80     		strh	r3, [r7, #2]	@ movhi
 1610              	.L66:
 483:Drivers/IL9341/src/ILI9341_STM32_Driver.c **** 	}
 484:Drivers/IL9341/src/ILI9341_STM32_Driver.c **** ILI9341_Set_Address(X, Y, X+Width-1, Y);
 1611              		.loc 1 484 28
 1612 0052 FA88     		ldrh	r2, [r7, #6]	@ movhi
 1613 0054 7B88     		ldrh	r3, [r7, #2]	@ movhi
 1614 0056 1344     		add	r3, r3, r2
 1615 0058 9BB2     		uxth	r3, r3
 1616              		.loc 1 484 1
 1617 005a 013B     		subs	r3, r3, #1
 1618 005c 9AB2     		uxth	r2, r3
 1619 005e BB88     		ldrh	r3, [r7, #4]
 1620 0060 B988     		ldrh	r1, [r7, #4]
 1621 0062 F888     		ldrh	r0, [r7, #6]
 1622 0064 FFF7FEFF 		bl	ILI9341_Set_Address
 485:Drivers/IL9341/src/ILI9341_STM32_Driver.c **** ILI9341_Draw_Colour_Burst(Colour, Width);
 1623              		.loc 1 485 1
 1624 0068 7A88     		ldrh	r2, [r7, #2]
 1625 006a 3B88     		ldrh	r3, [r7]
 1626 006c 1146     		mov	r1, r2
 1627 006e 1846     		mov	r0, r3
 1628 0070 FFF7FEFF 		bl	ILI9341_Draw_Colour_Burst
 1629 0074 00E0     		b	.L62
 1630              	.L67:
 479:Drivers/IL9341/src/ILI9341_STM32_Driver.c **** if((X+Width-1)>=LCD_WIDTH)
 1631              		.loc 1 479 41
 1632 0076 00BF     		nop
 1633              	.L62:
 486:Drivers/IL9341/src/ILI9341_STM32_Driver.c **** }
 1634              		.loc 1 486 1
 1635 0078 0C37     		adds	r7, r7, #12
 1636              		.cfi_def_cfa_offset 12
 1637 007a BD46     		mov	sp, r7
 1638              		.cfi_def_cfa_register 13
 1639              		@ sp needed
 1640 007c 90BD     		pop	{r4, r7, pc}
 1641              	.L69:
 1642 007e 00BF     		.align	2
 1643              	.L68:
 1644 0080 00000000 		.word	LCD_WIDTH
 1645 0084 00000000 		.word	LCD_HEIGHT
ARM GAS  C:\Users\Morroway\AppData\Local\Temp\cc8F5pJm.s 			page 38


 1646              		.cfi_endproc
 1647              	.LFE335:
 1649              		.section	.text.ILI9341_Draw_Vertical_Line,"ax",%progbits
 1650              		.align	1
 1651              		.global	ILI9341_Draw_Vertical_Line
 1652              		.syntax unified
 1653              		.thumb
 1654              		.thumb_func
 1656              	ILI9341_Draw_Vertical_Line:
 1657              	.LFB336:
 487:Drivers/IL9341/src/ILI9341_STM32_Driver.c **** 
 488:Drivers/IL9341/src/ILI9341_STM32_Driver.c **** //DRAW LINE FROM X,Y LOCATION to X,Y+Height LOCATION
 489:Drivers/IL9341/src/ILI9341_STM32_Driver.c **** void ILI9341_Draw_Vertical_Line(uint16_t X, uint16_t Y, uint16_t Height, uint16_t Colour)
 490:Drivers/IL9341/src/ILI9341_STM32_Driver.c **** {
 1658              		.loc 1 490 1
 1659              		.cfi_startproc
 1660              		@ args = 0, pretend = 0, frame = 8
 1661              		@ frame_needed = 1, uses_anonymous_args = 0
 1662 0000 90B5     		push	{r4, r7, lr}
 1663              		.cfi_def_cfa_offset 12
 1664              		.cfi_offset 4, -12
 1665              		.cfi_offset 7, -8
 1666              		.cfi_offset 14, -4
 1667 0002 83B0     		sub	sp, sp, #12
 1668              		.cfi_def_cfa_offset 24
 1669 0004 00AF     		add	r7, sp, #0
 1670              		.cfi_def_cfa_register 7
 1671 0006 0446     		mov	r4, r0
 1672 0008 0846     		mov	r0, r1
 1673 000a 1146     		mov	r1, r2
 1674 000c 1A46     		mov	r2, r3
 1675 000e 2346     		mov	r3, r4	@ movhi
 1676 0010 FB80     		strh	r3, [r7, #6]	@ movhi
 1677 0012 0346     		mov	r3, r0	@ movhi
 1678 0014 BB80     		strh	r3, [r7, #4]	@ movhi
 1679 0016 0B46     		mov	r3, r1	@ movhi
 1680 0018 7B80     		strh	r3, [r7, #2]	@ movhi
 1681 001a 1346     		mov	r3, r2	@ movhi
 1682 001c 3B80     		strh	r3, [r7]	@ movhi
 491:Drivers/IL9341/src/ILI9341_STM32_Driver.c **** if((X >=LCD_WIDTH) || (Y >=LCD_HEIGHT)) return;
 1683              		.loc 1 491 7
 1684 001e 184B     		ldr	r3, .L76
 1685 0020 1B88     		ldrh	r3, [r3]	@ movhi
 1686 0022 9BB2     		uxth	r3, r3
 1687              		.loc 1 491 3
 1688 0024 FA88     		ldrh	r2, [r7, #6]
 1689 0026 9A42     		cmp	r2, r3
 1690 0028 25D2     		bcs	.L75
 1691              		.loc 1 491 26 discriminator 2
 1692 002a 164B     		ldr	r3, .L76+4
 1693 002c 1B88     		ldrh	r3, [r3]	@ movhi
 1694 002e 9BB2     		uxth	r3, r3
 1695              		.loc 1 491 20 discriminator 2
 1696 0030 BA88     		ldrh	r2, [r7, #4]
 1697 0032 9A42     		cmp	r2, r3
 1698 0034 1FD2     		bcs	.L75
 492:Drivers/IL9341/src/ILI9341_STM32_Driver.c **** if((Y+Height-1)>=LCD_HEIGHT)
ARM GAS  C:\Users\Morroway\AppData\Local\Temp\cc8F5pJm.s 			page 39


 1699              		.loc 1 492 6
 1700 0036 BA88     		ldrh	r2, [r7, #4]
 1701 0038 7B88     		ldrh	r3, [r7, #2]
 1702 003a 1344     		add	r3, r3, r2
 1703              		.loc 1 492 16
 1704 003c 114A     		ldr	r2, .L76+4
 1705 003e 1288     		ldrh	r2, [r2]	@ movhi
 1706 0040 92B2     		uxth	r2, r2
 1707              		.loc 1 492 3
 1708 0042 9342     		cmp	r3, r2
 1709 0044 05DD     		ble	.L74
 493:Drivers/IL9341/src/ILI9341_STM32_Driver.c **** 	{
 494:Drivers/IL9341/src/ILI9341_STM32_Driver.c **** 		Height=LCD_HEIGHT-Y;
 1710              		.loc 1 494 20
 1711 0046 0F4B     		ldr	r3, .L76+4
 1712 0048 1B88     		ldrh	r3, [r3]	@ movhi
 1713 004a 9AB2     		uxth	r2, r3
 1714              		.loc 1 494 9
 1715 004c BB88     		ldrh	r3, [r7, #4]	@ movhi
 1716 004e D31A     		subs	r3, r2, r3
 1717 0050 7B80     		strh	r3, [r7, #2]	@ movhi
 1718              	.L74:
 495:Drivers/IL9341/src/ILI9341_STM32_Driver.c **** 	}
 496:Drivers/IL9341/src/ILI9341_STM32_Driver.c **** ILI9341_Set_Address(X, Y, X, Y+Height-1);
 1719              		.loc 1 496 31
 1720 0052 BA88     		ldrh	r2, [r7, #4]	@ movhi
 1721 0054 7B88     		ldrh	r3, [r7, #2]	@ movhi
 1722 0056 1344     		add	r3, r3, r2
 1723 0058 9BB2     		uxth	r3, r3
 1724              		.loc 1 496 1
 1725 005a 013B     		subs	r3, r3, #1
 1726 005c 9BB2     		uxth	r3, r3
 1727 005e FA88     		ldrh	r2, [r7, #6]
 1728 0060 B988     		ldrh	r1, [r7, #4]
 1729 0062 F888     		ldrh	r0, [r7, #6]
 1730 0064 FFF7FEFF 		bl	ILI9341_Set_Address
 497:Drivers/IL9341/src/ILI9341_STM32_Driver.c **** ILI9341_Draw_Colour_Burst(Colour, Height);
 1731              		.loc 1 497 1
 1732 0068 7A88     		ldrh	r2, [r7, #2]
 1733 006a 3B88     		ldrh	r3, [r7]
 1734 006c 1146     		mov	r1, r2
 1735 006e 1846     		mov	r0, r3
 1736 0070 FFF7FEFF 		bl	ILI9341_Draw_Colour_Burst
 1737 0074 00E0     		b	.L70
 1738              	.L75:
 491:Drivers/IL9341/src/ILI9341_STM32_Driver.c **** if((Y+Height-1)>=LCD_HEIGHT)
 1739              		.loc 1 491 41
 1740 0076 00BF     		nop
 1741              	.L70:
 498:Drivers/IL9341/src/ILI9341_STM32_Driver.c **** }
 1742              		.loc 1 498 1
 1743 0078 0C37     		adds	r7, r7, #12
 1744              		.cfi_def_cfa_offset 12
 1745 007a BD46     		mov	sp, r7
 1746              		.cfi_def_cfa_register 13
 1747              		@ sp needed
 1748 007c 90BD     		pop	{r4, r7, pc}
ARM GAS  C:\Users\Morroway\AppData\Local\Temp\cc8F5pJm.s 			page 40


 1749              	.L77:
 1750 007e 00BF     		.align	2
 1751              	.L76:
 1752 0080 00000000 		.word	LCD_WIDTH
 1753 0084 00000000 		.word	LCD_HEIGHT
 1754              		.cfi_endproc
 1755              	.LFE336:
 1757              		.text
 1758              	.Letext0:
 1759              		.file 2 "c:\\users\\morroway\\appdata\\roaming\\code\\user\\globalstorage\\bmd.stm32-for-vscode\\@
 1760              		.file 3 "c:\\users\\morroway\\appdata\\roaming\\code\\user\\globalstorage\\bmd.stm32-for-vscode\\@
 1761              		.file 4 "Drivers/CMSIS/Device/ST/STM32L4xx/Include/stm32l4p5xx.h"
 1762              		.file 5 "Drivers/STM32L4xx_HAL_Driver/Inc/stm32l4xx_hal_gpio.h"
 1763              		.file 6 "Core/Inc/main.h"
 1764              		.file 7 "Drivers/STM32L4xx_HAL_Driver/Inc/stm32l4xx_hal.h"
ARM GAS  C:\Users\Morroway\AppData\Local\Temp\cc8F5pJm.s 			page 41


DEFINED SYMBOLS
                            *ABS*:0000000000000000 ILI9341_STM32_Driver.c
C:\Users\Morroway\AppData\Local\Temp\cc8F5pJm.s:20     .bss.msg_buffer:0000000000000000 $d
C:\Users\Morroway\AppData\Local\Temp\cc8F5pJm.s:23     .bss.msg_buffer:0000000000000000 msg_buffer
C:\Users\Morroway\AppData\Local\Temp\cc8F5pJm.s:26     .bss.RxBuf:0000000000000000 $d
C:\Users\Morroway\AppData\Local\Temp\cc8F5pJm.s:29     .bss.RxBuf:0000000000000000 RxBuf
C:\Users\Morroway\AppData\Local\Temp\cc8F5pJm.s:36     .data.LCD_HEIGHT:0000000000000000 LCD_HEIGHT
C:\Users\Morroway\AppData\Local\Temp\cc8F5pJm.s:33     .data.LCD_HEIGHT:0000000000000000 $d
C:\Users\Morroway\AppData\Local\Temp\cc8F5pJm.s:43     .data.LCD_WIDTH:0000000000000000 LCD_WIDTH
C:\Users\Morroway\AppData\Local\Temp\cc8F5pJm.s:40     .data.LCD_WIDTH:0000000000000000 $d
C:\Users\Morroway\AppData\Local\Temp\cc8F5pJm.s:46     .text.ILI9341_SPI_Init:0000000000000000 $t
C:\Users\Morroway\AppData\Local\Temp\cc8F5pJm.s:52     .text.ILI9341_SPI_Init:0000000000000000 ILI9341_SPI_Init
C:\Users\Morroway\AppData\Local\Temp\cc8F5pJm.s:76     .text.ILI9341_SPI_Init:0000000000000014 $d
C:\Users\Morroway\AppData\Local\Temp\cc8F5pJm.s:81     .text.ILI9341_SPI_Send:0000000000000000 $t
C:\Users\Morroway\AppData\Local\Temp\cc8F5pJm.s:87     .text.ILI9341_SPI_Send:0000000000000000 ILI9341_SPI_Send
C:\Users\Morroway\AppData\Local\Temp\cc8F5pJm.s:121    .text.ILI9341_Write_Command:0000000000000000 $t
C:\Users\Morroway\AppData\Local\Temp\cc8F5pJm.s:127    .text.ILI9341_Write_Command:0000000000000000 ILI9341_Write_Command
C:\Users\Morroway\AppData\Local\Temp\cc8F5pJm.s:173    .text.ILI9341_Write_Command:0000000000000040 $d
C:\Users\Morroway\AppData\Local\Temp\cc8F5pJm.s:178    .text.ILI9341_Write_Data:0000000000000000 $t
C:\Users\Morroway\AppData\Local\Temp\cc8F5pJm.s:184    .text.ILI9341_Write_Data:0000000000000000 ILI9341_Write_Data
C:\Users\Morroway\AppData\Local\Temp\cc8F5pJm.s:230    .text.ILI9341_Write_Data:0000000000000040 $d
C:\Users\Morroway\AppData\Local\Temp\cc8F5pJm.s:235    .text.ILI9341_Set_Address:0000000000000000 $t
C:\Users\Morroway\AppData\Local\Temp\cc8F5pJm.s:241    .text.ILI9341_Set_Address:0000000000000000 ILI9341_Set_Address
C:\Users\Morroway\AppData\Local\Temp\cc8F5pJm.s:337    .text.ILI9341_Reset:0000000000000000 $t
C:\Users\Morroway\AppData\Local\Temp\cc8F5pJm.s:343    .text.ILI9341_Reset:0000000000000000 ILI9341_Reset
C:\Users\Morroway\AppData\Local\Temp\cc8F5pJm.s:382    .text.ILI9341_Reset:0000000000000038 $d
C:\Users\Morroway\AppData\Local\Temp\cc8F5pJm.s:387    .text.ILI9341_Set_Rotation:0000000000000000 $t
C:\Users\Morroway\AppData\Local\Temp\cc8F5pJm.s:393    .text.ILI9341_Set_Rotation:0000000000000000 ILI9341_Set_Rotation
C:\Users\Morroway\AppData\Local\Temp\cc8F5pJm.s:426    .text.ILI9341_Set_Rotation:0000000000000028 $d
C:\Users\Morroway\AppData\Local\Temp\cc8F5pJm.s:430    .text.ILI9341_Set_Rotation:0000000000000038 $t
C:\Users\Morroway\AppData\Local\Temp\cc8F5pJm.s:502    .text.ILI9341_Set_Rotation:000000000000009c $d
C:\Users\Morroway\AppData\Local\Temp\cc8F5pJm.s:508    .text.ILI9341_Enable:0000000000000000 $t
C:\Users\Morroway\AppData\Local\Temp\cc8F5pJm.s:514    .text.ILI9341_Enable:0000000000000000 ILI9341_Enable
C:\Users\Morroway\AppData\Local\Temp\cc8F5pJm.s:537    .text.ILI9341_Enable:0000000000000014 $d
C:\Users\Morroway\AppData\Local\Temp\cc8F5pJm.s:542    .text.ILI9341_Init:0000000000000000 $t
C:\Users\Morroway\AppData\Local\Temp\cc8F5pJm.s:548    .text.ILI9341_Init:0000000000000000 ILI9341_Init
C:\Users\Morroway\AppData\Local\Temp\cc8F5pJm.s:831    .text.ILI9341_Draw_Colour:0000000000000000 $t
C:\Users\Morroway\AppData\Local\Temp\cc8F5pJm.s:837    .text.ILI9341_Draw_Colour:0000000000000000 ILI9341_Draw_Colour
C:\Users\Morroway\AppData\Local\Temp\cc8F5pJm.s:894    .text.ILI9341_Draw_Colour:0000000000000054 $d
C:\Users\Morroway\AppData\Local\Temp\cc8F5pJm.s:899    .text.ILI9341_Draw_Colour_Burst:0000000000000000 $t
C:\Users\Morroway\AppData\Local\Temp\cc8F5pJm.s:905    .text.ILI9341_Draw_Colour_Burst:0000000000000000 ILI9341_Draw_Colour_Burst
C:\Users\Morroway\AppData\Local\Temp\cc8F5pJm.s:1095   .text.ILI9341_Draw_Colour_Burst:0000000000000134 $d
C:\Users\Morroway\AppData\Local\Temp\cc8F5pJm.s:1100   .text.ILI9341_Fill_Screen:0000000000000000 $t
C:\Users\Morroway\AppData\Local\Temp\cc8F5pJm.s:1106   .text.ILI9341_Fill_Screen:0000000000000000 ILI9341_Fill_Screen
C:\Users\Morroway\AppData\Local\Temp\cc8F5pJm.s:1158   .text.ILI9341_Fill_Screen:0000000000000044 $d
C:\Users\Morroway\AppData\Local\Temp\cc8F5pJm.s:1164   .text.ILI9341_Draw_Pixel:0000000000000000 $t
C:\Users\Morroway\AppData\Local\Temp\cc8F5pJm.s:1170   .text.ILI9341_Draw_Pixel:0000000000000000 ILI9341_Draw_Pixel
C:\Users\Morroway\AppData\Local\Temp\cc8F5pJm.s:1395   .text.ILI9341_Draw_Pixel:00000000000001a4 $d
C:\Users\Morroway\AppData\Local\Temp\cc8F5pJm.s:1402   .text.ILI9341_Draw_Rectangle:0000000000000000 $t
C:\Users\Morroway\AppData\Local\Temp\cc8F5pJm.s:1408   .text.ILI9341_Draw_Rectangle:0000000000000000 ILI9341_Draw_Rectangle
C:\Users\Morroway\AppData\Local\Temp\cc8F5pJm.s:1536   .text.ILI9341_Draw_Rectangle:00000000000000b0 $d
C:\Users\Morroway\AppData\Local\Temp\cc8F5pJm.s:1542   .text.ILI9341_Draw_Horizontal_Line:0000000000000000 $t
C:\Users\Morroway\AppData\Local\Temp\cc8F5pJm.s:1548   .text.ILI9341_Draw_Horizontal_Line:0000000000000000 ILI9341_Draw_Horizontal_Line
C:\Users\Morroway\AppData\Local\Temp\cc8F5pJm.s:1644   .text.ILI9341_Draw_Horizontal_Line:0000000000000080 $d
C:\Users\Morroway\AppData\Local\Temp\cc8F5pJm.s:1650   .text.ILI9341_Draw_Vertical_Line:0000000000000000 $t
C:\Users\Morroway\AppData\Local\Temp\cc8F5pJm.s:1656   .text.ILI9341_Draw_Vertical_Line:0000000000000000 ILI9341_Draw_Vertical_Line
C:\Users\Morroway\AppData\Local\Temp\cc8F5pJm.s:1752   .text.ILI9341_Draw_Vertical_Line:0000000000000080 $d
ARM GAS  C:\Users\Morroway\AppData\Local\Temp\cc8F5pJm.s 			page 42



UNDEFINED SYMBOLS
HAL_GPIO_WritePin
SPI_Transmit
HAL_Delay
