ARM GAS  C:\Users\Morroway\AppData\Local\Temp\ccDRKoO5.s 			page 1


   1              		.cpu cortex-m4
   2              		.arch armv7e-m
   3              		.fpu fpv4-sp-d16
   4              		.eabi_attribute 27, 1
   5              		.eabi_attribute 28, 1
   6              		.eabi_attribute 20, 1
   7              		.eabi_attribute 21, 1
   8              		.eabi_attribute 23, 3
   9              		.eabi_attribute 24, 1
  10              		.eabi_attribute 25, 1
  11              		.eabi_attribute 26, 1
  12              		.eabi_attribute 30, 6
  13              		.eabi_attribute 34, 1
  14              		.eabi_attribute 18, 4
  15              		.file	"main.c"
  16              		.text
  17              	.Ltext0:
  18              		.cfi_sections	.debug_frame
  19              		.section	.bss.msg_buffer,"aw",%nobits
  20              		.align	2
  23              	msg_buffer:
  24 0000 00000000 		.space	30
  24      00000000 
  24      00000000 
  24      00000000 
  24      00000000 
  25              		.section	.bss.RxBuf,"aw",%nobits
  26              		.align	2
  29              	RxBuf:
  30 0000 00000000 		.space	20
  30      00000000 
  30      00000000 
  30      00000000 
  30      00000000 
  31              		.global	hadc1
  32              		.section	.bss.hadc1,"aw",%nobits
  33              		.align	2
  36              	hadc1:
  37 0000 00000000 		.space	104
  37      00000000 
  37      00000000 
  37      00000000 
  37      00000000 
  38              		.global	hdma_adc1
  39              		.section	.bss.hdma_adc1,"aw",%nobits
  40              		.align	2
  43              	hdma_adc1:
  44 0000 00000000 		.space	96
  44      00000000 
  44      00000000 
  44      00000000 
  44      00000000 
  45              		.global	hlpuart1
  46              		.section	.bss.hlpuart1,"aw",%nobits
  47              		.align	2
  50              	hlpuart1:
  51 0000 00000000 		.space	144
ARM GAS  C:\Users\Morroway\AppData\Local\Temp\ccDRKoO5.s 			page 2


  51      00000000 
  51      00000000 
  51      00000000 
  51      00000000 
  52              		.global	huart4
  53              		.section	.bss.huart4,"aw",%nobits
  54              		.align	2
  57              	huart4:
  58 0000 00000000 		.space	144
  58      00000000 
  58      00000000 
  58      00000000 
  58      00000000 
  59              		.global	hdma_lpuart1_rx
  60              		.section	.bss.hdma_lpuart1_rx,"aw",%nobits
  61              		.align	2
  64              	hdma_lpuart1_rx:
  65 0000 00000000 		.space	96
  65      00000000 
  65      00000000 
  65      00000000 
  65      00000000 
  66              		.global	htim3
  67              		.section	.bss.htim3,"aw",%nobits
  68              		.align	2
  71              	htim3:
  72 0000 00000000 		.space	76
  72      00000000 
  72      00000000 
  72      00000000 
  72      00000000 
  73              		.global	htim4
  74              		.section	.bss.htim4,"aw",%nobits
  75              		.align	2
  78              	htim4:
  79 0000 00000000 		.space	76
  79      00000000 
  79      00000000 
  79      00000000 
  79      00000000 
  80              		.global	htim5
  81              		.section	.bss.htim5,"aw",%nobits
  82              		.align	2
  85              	htim5:
  86 0000 00000000 		.space	76
  86      00000000 
  86      00000000 
  86      00000000 
  86      00000000 
  87              		.global	hpcd_USB_OTG_FS
  88              		.section	.bss.hpcd_USB_OTG_FS,"aw",%nobits
  89              		.align	2
  92              	hpcd_USB_OTG_FS:
  93 0000 00000000 		.space	1292
  93      00000000 
  93      00000000 
  93      00000000 
ARM GAS  C:\Users\Morroway\AppData\Local\Temp\ccDRKoO5.s 			page 3


  93      00000000 
  94              		.global	step
  95              		.section	.bss.step,"aw",%nobits
  96              		.align	1
  99              	step:
 100 0000 0000     		.space	2
 101              		.global	last_time
 102              		.section	.bss.last_time,"aw",%nobits
 103              		.align	2
 106              	last_time:
 107 0000 00000000 		.space	4
 108              		.global	value
 109              		.section	.bss.value,"aw",%nobits
 110              		.align	2
 113              	value:
 114 0000 00000000 		.space	12
 114      00000000 
 114      00000000 
 115              		.section	.text.HAL_UARTEx_RxEventCallback,"ax",%progbits
 116              		.align	1
 117              		.global	HAL_UARTEx_RxEventCallback
 118              		.syntax unified
 119              		.thumb
 120              		.thumb_func
 122              	HAL_UARTEx_RxEventCallback:
 123              	.LFB325:
 124              		.file 1 "Core/Src/main.c"
   1:Core/Src/main.c **** /* USER CODE BEGIN Header */
   2:Core/Src/main.c **** /**
   3:Core/Src/main.c ****  ******************************************************************************
   4:Core/Src/main.c ****  * @file           : main.c
   5:Core/Src/main.c ****  * @brief          : Main program body
   6:Core/Src/main.c ****  ******************************************************************************
   7:Core/Src/main.c ****  * @attention
   8:Core/Src/main.c ****  *
   9:Core/Src/main.c ****  * Copyright (c) 2022 STMicroelectronics.
  10:Core/Src/main.c ****  * All rights reserved.
  11:Core/Src/main.c ****  *
  12:Core/Src/main.c ****  * This software is licensed under terms that can be found in the LICENSE file
  13:Core/Src/main.c ****  * in the root directory of this software component.
  14:Core/Src/main.c ****  * If no LICENSE file comes with this software, it is provided AS-IS.
  15:Core/Src/main.c ****  *
  16:Core/Src/main.c ****  ******************************************************************************
  17:Core/Src/main.c ****  */
  18:Core/Src/main.c **** /* USER CODE END Header */
  19:Core/Src/main.c **** /* Includes ------------------------------------------------------------------*/
  20:Core/Src/main.c **** #include "main.h"
  21:Core/Src/main.c **** 
  22:Core/Src/main.c **** /* Private includes ----------------------------------------------------------*/
  23:Core/Src/main.c **** /* USER CODE BEGIN Includes */
  24:Core/Src/main.c **** #include "Functions.h"
  25:Core/Src/main.c **** #include <stdio.h>
  26:Core/Src/main.c **** #include <string.h>
  27:Core/Src/main.c **** #include <ctype.h>
  28:Core/Src/main.c **** // #include "Parser.h"
  29:Core/Src/main.c **** /* USER CODE END Includes */
  30:Core/Src/main.c **** 
ARM GAS  C:\Users\Morroway\AppData\Local\Temp\ccDRKoO5.s 			page 4


  31:Core/Src/main.c **** /* Private typedef -----------------------------------------------------------*/
  32:Core/Src/main.c **** /* USER CODE BEGIN PTD */
  33:Core/Src/main.c **** 
  34:Core/Src/main.c **** /* USER CODE END PTD */
  35:Core/Src/main.c **** 
  36:Core/Src/main.c **** /* Private define ------------------------------------------------------------*/
  37:Core/Src/main.c **** /* USER CODE BEGIN PD */
  38:Core/Src/main.c **** /* USER CODE END PD */
  39:Core/Src/main.c **** 
  40:Core/Src/main.c **** /* Private macro -------------------------------------------------------------*/
  41:Core/Src/main.c **** /* USER CODE BEGIN PM */
  42:Core/Src/main.c **** 
  43:Core/Src/main.c **** /* USER CODE END PM */
  44:Core/Src/main.c **** 
  45:Core/Src/main.c **** /* Private variables ---------------------------------------------------------*/
  46:Core/Src/main.c **** ADC_HandleTypeDef hadc1;
  47:Core/Src/main.c **** DMA_HandleTypeDef hdma_adc1;
  48:Core/Src/main.c **** 
  49:Core/Src/main.c **** UART_HandleTypeDef hlpuart1;
  50:Core/Src/main.c **** UART_HandleTypeDef huart4;
  51:Core/Src/main.c **** DMA_HandleTypeDef hdma_lpuart1_rx;
  52:Core/Src/main.c **** 
  53:Core/Src/main.c **** TIM_HandleTypeDef htim3;
  54:Core/Src/main.c **** TIM_HandleTypeDef htim4;
  55:Core/Src/main.c **** TIM_HandleTypeDef htim5;
  56:Core/Src/main.c **** 
  57:Core/Src/main.c **** PCD_HandleTypeDef hpcd_USB_OTG_FS;
  58:Core/Src/main.c **** 
  59:Core/Src/main.c **** /* USER CODE BEGIN PV */
  60:Core/Src/main.c **** uint16_t step = 0;
  61:Core/Src/main.c **** uint32_t last_time = 0;
  62:Core/Src/main.c **** uint32_t value[ADC_CHANNELS];
  63:Core/Src/main.c **** /* USER CODE END PV */
  64:Core/Src/main.c **** 
  65:Core/Src/main.c **** /* Private function prototypes -----------------------------------------------*/
  66:Core/Src/main.c **** void SystemClock_Config(void);
  67:Core/Src/main.c **** static void MX_GPIO_Init(void);
  68:Core/Src/main.c **** static void MX_DMA_Init(void);
  69:Core/Src/main.c **** static void MX_LPUART1_UART_Init(void);
  70:Core/Src/main.c **** static void MX_USB_OTG_FS_PCD_Init(void);
  71:Core/Src/main.c **** static void MX_TIM4_Init(void);
  72:Core/Src/main.c **** static void MX_UART4_Init(void);
  73:Core/Src/main.c **** static void MX_TIM3_Init(void);
  74:Core/Src/main.c **** static void MX_ADC1_Init(void);
  75:Core/Src/main.c **** static void MX_TIM5_Init(void);
  76:Core/Src/main.c **** /* USER CODE BEGIN PFP */
  77:Core/Src/main.c **** /* USER CODE END PFP */
  78:Core/Src/main.c **** 
  79:Core/Src/main.c **** /* Private user code ---------------------------------------------------------*/
  80:Core/Src/main.c **** /* USER CODE BEGIN 0 */
  81:Core/Src/main.c **** 
  82:Core/Src/main.c **** void HAL_UARTEx_RxEventCallback(UART_HandleTypeDef *huart, uint16_t Size)
  83:Core/Src/main.c **** {
 125              		.loc 1 83 1
 126              		.cfi_startproc
 127              		@ args = 0, pretend = 0, frame = 8
 128              		@ frame_needed = 1, uses_anonymous_args = 0
ARM GAS  C:\Users\Morroway\AppData\Local\Temp\ccDRKoO5.s 			page 5


 129 0000 80B5     		push	{r7, lr}
 130              		.cfi_def_cfa_offset 8
 131              		.cfi_offset 7, -8
 132              		.cfi_offset 14, -4
 133 0002 82B0     		sub	sp, sp, #8
 134              		.cfi_def_cfa_offset 16
 135 0004 00AF     		add	r7, sp, #0
 136              		.cfi_def_cfa_register 7
 137 0006 7860     		str	r0, [r7, #4]
 138 0008 0B46     		mov	r3, r1
 139 000a 7B80     		strh	r3, [r7, #2]	@ movhi
  84:Core/Src/main.c ****   if (huart->Instance == LPUART1)
 140              		.loc 1 84 12
 141 000c 7B68     		ldr	r3, [r7, #4]
 142 000e 1B68     		ldr	r3, [r3]
 143              		.loc 1 84 6
 144 0010 094A     		ldr	r2, .L4
 145 0012 9342     		cmp	r3, r2
 146 0014 0CD1     		bne	.L3
  85:Core/Src/main.c ****   {
  86:Core/Src/main.c ****     HAL_UARTEx_ReceiveToIdle_DMA(&hlpuart1, (uint8_t *)RxBuf, RxBuf_SIZE);
 147              		.loc 1 86 5
 148 0016 1422     		movs	r2, #20
 149 0018 0849     		ldr	r1, .L4+4
 150 001a 0948     		ldr	r0, .L4+8
 151 001c FFF7FEFF 		bl	HAL_UARTEx_ReceiveToIdle_DMA
  87:Core/Src/main.c ****     __HAL_DMA_DISABLE_IT(&hdma_lpuart1_rx, DMA_IT_HT);
 152              		.loc 1 87 5
 153 0020 084B     		ldr	r3, .L4+12
 154 0022 1B68     		ldr	r3, [r3]
 155 0024 1A68     		ldr	r2, [r3]
 156 0026 074B     		ldr	r3, .L4+12
 157 0028 1B68     		ldr	r3, [r3]
 158 002a 22F00402 		bic	r2, r2, #4
 159 002e 1A60     		str	r2, [r3]
 160              	.L3:
  88:Core/Src/main.c ****   }
  89:Core/Src/main.c **** }
 161              		.loc 1 89 1
 162 0030 00BF     		nop
 163 0032 0837     		adds	r7, r7, #8
 164              		.cfi_def_cfa_offset 8
 165 0034 BD46     		mov	sp, r7
 166              		.cfi_def_cfa_register 13
 167              		@ sp needed
 168 0036 80BD     		pop	{r7, pc}
 169              	.L5:
 170              		.align	2
 171              	.L4:
 172 0038 00800040 		.word	1073774592
 173 003c 00000000 		.word	RxBuf
 174 0040 00000000 		.word	hlpuart1
 175 0044 00000000 		.word	hdma_lpuart1_rx
 176              		.cfi_endproc
 177              	.LFE325:
 179              		.section	.text.DelayMicrosecond,"ax",%progbits
 180              		.align	1
ARM GAS  C:\Users\Morroway\AppData\Local\Temp\ccDRKoO5.s 			page 6


 181              		.global	DelayMicrosecond
 182              		.syntax unified
 183              		.thumb
 184              		.thumb_func
 186              	DelayMicrosecond:
 187              	.LFB326:
  90:Core/Src/main.c **** 
  91:Core/Src/main.c **** void DelayMicrosecond(uint16_t time)
  92:Core/Src/main.c **** {
 188              		.loc 1 92 1
 189              		.cfi_startproc
 190              		@ args = 0, pretend = 0, frame = 8
 191              		@ frame_needed = 1, uses_anonymous_args = 0
 192              		@ link register save eliminated.
 193 0000 80B4     		push	{r7}
 194              		.cfi_def_cfa_offset 4
 195              		.cfi_offset 7, -4
 196 0002 83B0     		sub	sp, sp, #12
 197              		.cfi_def_cfa_offset 16
 198 0004 00AF     		add	r7, sp, #0
 199              		.cfi_def_cfa_register 7
 200 0006 0346     		mov	r3, r0
 201 0008 FB80     		strh	r3, [r7, #6]	@ movhi
  93:Core/Src/main.c ****   __HAL_TIM_SET_COUNTER(&htim4, 0);
 202              		.loc 1 93 3
 203 000a 094B     		ldr	r3, .L8
 204 000c 1B68     		ldr	r3, [r3]
 205 000e 0022     		movs	r2, #0
 206 0010 5A62     		str	r2, [r3, #36]
  94:Core/Src/main.c ****   while (__HAL_TIM_GET_COUNTER(&htim4) < time);
 207              		.loc 1 94 9
 208 0012 00BF     		nop
 209              	.L7:
 210              		.loc 1 94 10 discriminator 1
 211 0014 064B     		ldr	r3, .L8
 212 0016 1B68     		ldr	r3, [r3]
 213 0018 5A6A     		ldr	r2, [r3, #36]
 214              		.loc 1 94 40 discriminator 1
 215 001a FB88     		ldrh	r3, [r7, #6]
 216 001c 9A42     		cmp	r2, r3
 217 001e F9D3     		bcc	.L7
  95:Core/Src/main.c **** }
 218              		.loc 1 95 1
 219 0020 00BF     		nop
 220 0022 00BF     		nop
 221 0024 0C37     		adds	r7, r7, #12
 222              		.cfi_def_cfa_offset 4
 223 0026 BD46     		mov	sp, r7
 224              		.cfi_def_cfa_register 13
 225              		@ sp needed
 226 0028 5DF8047B 		ldr	r7, [sp], #4
 227              		.cfi_restore 7
 228              		.cfi_def_cfa_offset 0
 229 002c 7047     		bx	lr
 230              	.L9:
 231 002e 00BF     		.align	2
 232              	.L8:
ARM GAS  C:\Users\Morroway\AppData\Local\Temp\ccDRKoO5.s 			page 7


 233 0030 00000000 		.word	htim4
 234              		.cfi_endproc
 235              	.LFE326:
 237              		.section	.text.GetTicks,"ax",%progbits
 238              		.align	1
 239              		.global	GetTicks
 240              		.syntax unified
 241              		.thumb
 242              		.thumb_func
 244              	GetTicks:
 245              	.LFB327:
  96:Core/Src/main.c **** 
  97:Core/Src/main.c **** int GetTicks()
  98:Core/Src/main.c **** {
 246              		.loc 1 98 1
 247              		.cfi_startproc
 248              		@ args = 0, pretend = 0, frame = 0
 249              		@ frame_needed = 1, uses_anonymous_args = 0
 250              		@ link register save eliminated.
 251 0000 80B4     		push	{r7}
 252              		.cfi_def_cfa_offset 4
 253              		.cfi_offset 7, -4
 254 0002 00AF     		add	r7, sp, #0
 255              		.cfi_def_cfa_register 7
  99:Core/Src/main.c ****   return __HAL_TIM_GET_COUNTER(&htim5);
 256              		.loc 1 99 10
 257 0004 034B     		ldr	r3, .L12
 258 0006 1B68     		ldr	r3, [r3]
 259 0008 5B6A     		ldr	r3, [r3, #36]
 100:Core/Src/main.c **** }
 260              		.loc 1 100 1
 261 000a 1846     		mov	r0, r3
 262 000c BD46     		mov	sp, r7
 263              		.cfi_def_cfa_register 13
 264              		@ sp needed
 265 000e 5DF8047B 		ldr	r7, [sp], #4
 266              		.cfi_restore 7
 267              		.cfi_def_cfa_offset 0
 268 0012 7047     		bx	lr
 269              	.L13:
 270              		.align	2
 271              	.L12:
 272 0014 00000000 		.word	htim5
 273              		.cfi_endproc
 274              	.LFE327:
 276              		.section	.rodata
 277              		.align	2
 278              	.LC0:
 279 0000 74656D70 		.ascii	"temp: %f, value: %d\015\012\000"
 279      3A202566 
 279      2C207661 
 279      6C75653A 
 279      2025640D 
 280              		.section	.text.print_temperature,"ax",%progbits
 281              		.align	1
 282              		.global	print_temperature
 283              		.syntax unified
ARM GAS  C:\Users\Morroway\AppData\Local\Temp\ccDRKoO5.s 			page 8


 284              		.thumb
 285              		.thumb_func
 287              	print_temperature:
 288              	.LFB328:
 101:Core/Src/main.c **** 
 102:Core/Src/main.c **** void print_temperature()
 103:Core/Src/main.c **** {
 289              		.loc 1 103 1
 290              		.cfi_startproc
 291              		@ args = 0, pretend = 0, frame = 0
 292              		@ frame_needed = 1, uses_anonymous_args = 0
 293 0000 80B5     		push	{r7, lr}
 294              		.cfi_def_cfa_offset 8
 295              		.cfi_offset 7, -8
 296              		.cfi_offset 14, -4
 297 0002 82B0     		sub	sp, sp, #8
 298              		.cfi_def_cfa_offset 16
 299 0004 02AF     		add	r7, sp, #8
 300              		.cfi_def_cfa 7, 8
 104:Core/Src/main.c ****   sprintf(msg_buffer, "temp: %f, value: %d\r\n", GetTemperature(ADC_HOT_END, value[ADC_HOT_END]), v
 301              		.loc 1 104 83
 302 0006 104B     		ldr	r3, .L15
 303 0008 5B68     		ldr	r3, [r3, #4]
 304              		.loc 1 104 3
 305 000a 9BB2     		uxth	r3, r3
 306 000c 1946     		mov	r1, r3
 307 000e 0120     		movs	r0, #1
 308 0010 FFF7FEFF 		bl	GetTemperature
 309 0014 51EC100B 		vmov	r0, r1, d0
 310 0018 0B4B     		ldr	r3, .L15
 311 001a 5B68     		ldr	r3, [r3, #4]
 312 001c 0093     		str	r3, [sp]
 313 001e 0246     		mov	r2, r0
 314 0020 0B46     		mov	r3, r1
 315 0022 0A49     		ldr	r1, .L15+4
 316 0024 0A48     		ldr	r0, .L15+8
 317 0026 FFF7FEFF 		bl	sprintf
 105:Core/Src/main.c ****   HAL_UART_Transmit(&hlpuart1, (uint16_t *)msg_buffer, strlen(msg_buffer), HAL_MAX_DELAY);
 318              		.loc 1 105 56
 319 002a 0948     		ldr	r0, .L15+8
 320 002c FFF7FEFF 		bl	strlen
 321 0030 0346     		mov	r3, r0
 322              		.loc 1 105 3
 323 0032 9AB2     		uxth	r2, r3
 324 0034 4FF0FF33 		mov	r3, #-1
 325 0038 0549     		ldr	r1, .L15+8
 326 003a 0648     		ldr	r0, .L15+12
 327 003c FFF7FEFF 		bl	HAL_UART_Transmit
 106:Core/Src/main.c **** }
 328              		.loc 1 106 1
 329 0040 00BF     		nop
 330 0042 BD46     		mov	sp, r7
 331              		.cfi_def_cfa_register 13
 332              		@ sp needed
 333 0044 80BD     		pop	{r7, pc}
 334              	.L16:
 335 0046 00BF     		.align	2
ARM GAS  C:\Users\Morroway\AppData\Local\Temp\ccDRKoO5.s 			page 9


 336              	.L15:
 337 0048 00000000 		.word	value
 338 004c 00000000 		.word	.LC0
 339 0050 00000000 		.word	msg_buffer
 340 0054 00000000 		.word	hlpuart1
 341              		.cfi_endproc
 342              	.LFE328:
 344              		.section	.text.main,"ax",%progbits
 345              		.align	1
 346              		.global	main
 347              		.syntax unified
 348              		.thumb
 349              		.thumb_func
 351              	main:
 352              	.LFB329:
 107:Core/Src/main.c **** /* USER CODE END 0 */
 108:Core/Src/main.c **** 
 109:Core/Src/main.c **** /**
 110:Core/Src/main.c ****   * @brief  The application entry point.
 111:Core/Src/main.c ****   * @retval int
 112:Core/Src/main.c ****   */
 113:Core/Src/main.c **** int main(void)
 114:Core/Src/main.c **** {
 353              		.loc 1 114 1
 354              		.cfi_startproc
 355              		@ args = 0, pretend = 0, frame = 0
 356              		@ frame_needed = 1, uses_anonymous_args = 0
 357 0000 80B5     		push	{r7, lr}
 358              		.cfi_def_cfa_offset 8
 359              		.cfi_offset 7, -8
 360              		.cfi_offset 14, -4
 361 0002 00AF     		add	r7, sp, #0
 362              		.cfi_def_cfa_register 7
 115:Core/Src/main.c ****   /* USER CODE BEGIN 1 */
 116:Core/Src/main.c ****   // last_time = HAL_GetTick();
 117:Core/Src/main.c ****   /* USER CODE END 1 */
 118:Core/Src/main.c **** 
 119:Core/Src/main.c ****   /* MCU Configuration--------------------------------------------------------*/
 120:Core/Src/main.c **** 
 121:Core/Src/main.c ****   /* Reset of all peripherals, Initializes the Flash interface and the Systick. */
 122:Core/Src/main.c ****   HAL_Init();
 363              		.loc 1 122 3
 364 0004 FFF7FEFF 		bl	HAL_Init
 123:Core/Src/main.c **** 
 124:Core/Src/main.c ****   /* USER CODE BEGIN Init */
 125:Core/Src/main.c **** 
 126:Core/Src/main.c ****   /* USER CODE END Init */
 127:Core/Src/main.c **** 
 128:Core/Src/main.c ****   /* Configure the system clock */
 129:Core/Src/main.c ****   SystemClock_Config();
 365              		.loc 1 129 3
 366 0008 FFF7FEFF 		bl	SystemClock_Config
 130:Core/Src/main.c **** 
 131:Core/Src/main.c ****   /* USER CODE BEGIN SysInit */
 132:Core/Src/main.c **** 
 133:Core/Src/main.c ****   /* USER CODE END SysInit */
 134:Core/Src/main.c **** 
ARM GAS  C:\Users\Morroway\AppData\Local\Temp\ccDRKoO5.s 			page 10


 135:Core/Src/main.c ****   /* Initialize all configured peripherals */
 136:Core/Src/main.c ****   MX_GPIO_Init();
 367              		.loc 1 136 3
 368 000c FFF7FEFF 		bl	MX_GPIO_Init
 137:Core/Src/main.c ****   MX_DMA_Init();
 369              		.loc 1 137 3
 370 0010 FFF7FEFF 		bl	MX_DMA_Init
 138:Core/Src/main.c ****   MX_LPUART1_UART_Init();
 371              		.loc 1 138 3
 372 0014 FFF7FEFF 		bl	MX_LPUART1_UART_Init
 139:Core/Src/main.c ****   MX_USB_OTG_FS_PCD_Init();
 373              		.loc 1 139 3
 374 0018 FFF7FEFF 		bl	MX_USB_OTG_FS_PCD_Init
 140:Core/Src/main.c ****   MX_TIM4_Init();
 375              		.loc 1 140 3
 376 001c FFF7FEFF 		bl	MX_TIM4_Init
 141:Core/Src/main.c ****   MX_UART4_Init();
 377              		.loc 1 141 3
 378 0020 FFF7FEFF 		bl	MX_UART4_Init
 142:Core/Src/main.c ****   MX_TIM3_Init();
 379              		.loc 1 142 3
 380 0024 FFF7FEFF 		bl	MX_TIM3_Init
 143:Core/Src/main.c ****   MX_ADC1_Init();
 381              		.loc 1 143 3
 382 0028 FFF7FEFF 		bl	MX_ADC1_Init
 144:Core/Src/main.c ****   MX_TIM5_Init();
 383              		.loc 1 144 3
 384 002c FFF7FEFF 		bl	MX_TIM5_Init
 145:Core/Src/main.c ****   /* USER CODE BEGIN 2 */
 146:Core/Src/main.c ****   HAL_TIM_PWM_Start(&htim3, TIM_CHANNEL_1);
 385              		.loc 1 146 3
 386 0030 0021     		movs	r1, #0
 387 0032 2C48     		ldr	r0, .L21
 388 0034 FFF7FEFF 		bl	HAL_TIM_PWM_Start
 147:Core/Src/main.c ****   HAL_TIM_PWM_Start(&htim3, TIM_CHANNEL_2);
 389              		.loc 1 147 3
 390 0038 0421     		movs	r1, #4
 391 003a 2A48     		ldr	r0, .L21
 392 003c FFF7FEFF 		bl	HAL_TIM_PWM_Start
 148:Core/Src/main.c ****   HAL_TIM_PWM_Start(&htim3, TIM_CHANNEL_3);
 393              		.loc 1 148 3
 394 0040 0821     		movs	r1, #8
 395 0042 2848     		ldr	r0, .L21
 396 0044 FFF7FEFF 		bl	HAL_TIM_PWM_Start
 149:Core/Src/main.c ****   HAL_ADC_Start_DMA(&hadc1, value, ADC_CHANNELS);
 397              		.loc 1 149 3
 398 0048 0322     		movs	r2, #3
 399 004a 2749     		ldr	r1, .L21+4
 400 004c 2748     		ldr	r0, .L21+8
 401 004e FFF7FEFF 		bl	HAL_ADC_Start_DMA
 150:Core/Src/main.c ****   HAL_TIM_Base_Start(&htim4);
 402              		.loc 1 150 3
 403 0052 2748     		ldr	r0, .L21+12
 404 0054 FFF7FEFF 		bl	HAL_TIM_Base_Start
 151:Core/Src/main.c ****   HAL_TIM_Base_Start(&htim5);
 405              		.loc 1 151 3
 406 0058 2648     		ldr	r0, .L21+16
ARM GAS  C:\Users\Morroway\AppData\Local\Temp\ccDRKoO5.s 			page 11


 407 005a FFF7FEFF 		bl	HAL_TIM_Base_Start
 152:Core/Src/main.c ****   HAL_UARTEx_ReceiveToIdle_DMA(&hlpuart1, RxBuf, RxBuf_SIZE);
 408              		.loc 1 152 3
 409 005e 1422     		movs	r2, #20
 410 0060 2549     		ldr	r1, .L21+20
 411 0062 2648     		ldr	r0, .L21+24
 412 0064 FFF7FEFF 		bl	HAL_UARTEx_ReceiveToIdle_DMA
 153:Core/Src/main.c ****   __HAL_DMA_DISABLE_IT(&hdma_lpuart1_rx, DMA_IT_HT);
 413              		.loc 1 153 3
 414 0068 254B     		ldr	r3, .L21+28
 415 006a 1B68     		ldr	r3, [r3]
 416 006c 1A68     		ldr	r2, [r3]
 417 006e 244B     		ldr	r3, .L21+28
 418 0070 1B68     		ldr	r3, [r3]
 419 0072 22F00402 		bic	r2, r2, #4
 420 0076 1A60     		str	r2, [r3]
 154:Core/Src/main.c ****   memset(&RxBuf[0], 0, sizeof(RxBuf));
 421              		.loc 1 154 3
 422 0078 1422     		movs	r2, #20
 423 007a 0021     		movs	r1, #0
 424 007c 1E48     		ldr	r0, .L21+20
 425 007e FFF7FEFF 		bl	memset
 155:Core/Src/main.c ****   reset_args();
 426              		.loc 1 155 3
 427 0082 FFF7FEFF 		bl	reset_args
 428              	.L20:
 156:Core/Src/main.c ****   /* USER CODE END 2 */
 157:Core/Src/main.c **** 
 158:Core/Src/main.c ****   /* Infinite loop */
 159:Core/Src/main.c ****   /* USER CODE BEGIN WHILE */
 160:Core/Src/main.c ****   while (1)
 161:Core/Src/main.c ****   {
 162:Core/Src/main.c ****     if (RxBuf[0] != 0 && isRunning == false)
 429              		.loc 1 162 14
 430 0086 1C4B     		ldr	r3, .L21+20
 431 0088 1B78     		ldrb	r3, [r3]	@ zero_extendqisi2
 432              		.loc 1 162 8
 433 008a 002B     		cmp	r3, #0
 434 008c 0ED0     		beq	.L18
 435              		.loc 1 162 36 discriminator 1
 436 008e 1D4B     		ldr	r3, .L21+32
 437 0090 1B78     		ldrb	r3, [r3]	@ zero_extendqisi2
 438 0092 83F00103 		eor	r3, r3, #1
 439 0096 DBB2     		uxtb	r3, r3
 440              		.loc 1 162 23 discriminator 1
 441 0098 002B     		cmp	r3, #0
 442 009a 07D0     		beq	.L18
 163:Core/Src/main.c ****     {
 164:Core/Src/main.c ****       get_command(RxBuf);
 443              		.loc 1 164 7
 444 009c 1648     		ldr	r0, .L21+20
 445 009e FFF7FEFF 		bl	get_command
 165:Core/Src/main.c ****       memset(&RxBuf[0], 0, sizeof(RxBuf));
 446              		.loc 1 165 7
 447 00a2 1422     		movs	r2, #20
 448 00a4 0021     		movs	r1, #0
 449 00a6 1448     		ldr	r0, .L21+20
ARM GAS  C:\Users\Morroway\AppData\Local\Temp\ccDRKoO5.s 			page 12


 450 00a8 FFF7FEFF 		bl	memset
 451              	.L18:
 166:Core/Src/main.c ****     }
 167:Core/Src/main.c **** 
 168:Core/Src/main.c ****     if (HAL_GetTick() - last_time > interval && interval > 0)
 452              		.loc 1 168 9
 453 00ac FFF7FEFF 		bl	HAL_GetTick
 454 00b0 0246     		mov	r2, r0
 455              		.loc 1 168 23
 456 00b2 154B     		ldr	r3, .L21+36
 457 00b4 1B68     		ldr	r3, [r3]
 458 00b6 D31A     		subs	r3, r2, r3
 459              		.loc 1 168 35
 460 00b8 144A     		ldr	r2, .L21+40
 461 00ba 1288     		ldrh	r2, [r2]
 462              		.loc 1 168 8
 463 00bc 9342     		cmp	r3, r2
 464 00be 0CD9     		bls	.L19
 465              		.loc 1 168 58 discriminator 1
 466 00c0 124B     		ldr	r3, .L21+40
 467 00c2 1B88     		ldrh	r3, [r3]
 468              		.loc 1 168 46 discriminator 1
 469 00c4 002B     		cmp	r3, #0
 470 00c6 08D0     		beq	.L19
 169:Core/Src/main.c ****     {
 170:Core/Src/main.c ****       M105(0, 0);
 471              		.loc 1 170 7
 472 00c8 0021     		movs	r1, #0
 473 00ca 0020     		movs	r0, #0
 474 00cc FFF7FEFF 		bl	M105
 171:Core/Src/main.c ****       last_time = HAL_GetTick();
 475              		.loc 1 171 19
 476 00d0 FFF7FEFF 		bl	HAL_GetTick
 477 00d4 0346     		mov	r3, r0
 478              		.loc 1 171 17
 479 00d6 0C4A     		ldr	r2, .L21+36
 480 00d8 1360     		str	r3, [r2]
 481              	.L19:
 172:Core/Src/main.c ****     }
 173:Core/Src/main.c **** 
 174:Core/Src/main.c ****     G0();
 482              		.loc 1 174 5
 483 00da FFF7FEFF 		bl	G0
 175:Core/Src/main.c ****     M104();
 484              		.loc 1 175 5
 485 00de FFF7FEFF 		bl	M104
 162:Core/Src/main.c ****     {
 486              		.loc 1 162 8
 487 00e2 D0E7     		b	.L20
 488              	.L22:
 489              		.align	2
 490              	.L21:
 491 00e4 00000000 		.word	htim3
 492 00e8 00000000 		.word	value
 493 00ec 00000000 		.word	hadc1
 494 00f0 00000000 		.word	htim4
 495 00f4 00000000 		.word	htim5
ARM GAS  C:\Users\Morroway\AppData\Local\Temp\ccDRKoO5.s 			page 13


 496 00f8 00000000 		.word	RxBuf
 497 00fc 00000000 		.word	hlpuart1
 498 0100 00000000 		.word	hdma_lpuart1_rx
 499 0104 00000000 		.word	isRunning
 500 0108 00000000 		.word	last_time
 501 010c 00000000 		.word	interval
 502              		.cfi_endproc
 503              	.LFE329:
 505              		.section	.text.SystemClock_Config,"ax",%progbits
 506              		.align	1
 507              		.global	SystemClock_Config
 508              		.syntax unified
 509              		.thumb
 510              		.thumb_func
 512              	SystemClock_Config:
 513              	.LFB330:
 176:Core/Src/main.c ****     /* USER CODE END WHILE */
 177:Core/Src/main.c **** 
 178:Core/Src/main.c ****     /* USER CODE BEGIN 3 */
 179:Core/Src/main.c ****   }
 180:Core/Src/main.c ****   /* USER CODE END 3 */
 181:Core/Src/main.c **** }
 182:Core/Src/main.c **** 
 183:Core/Src/main.c **** /**
 184:Core/Src/main.c ****   * @brief System Clock Configuration
 185:Core/Src/main.c ****   * @retval None
 186:Core/Src/main.c ****   */
 187:Core/Src/main.c **** void SystemClock_Config(void)
 188:Core/Src/main.c **** {
 514              		.loc 1 188 1
 515              		.cfi_startproc
 516              		@ args = 0, pretend = 0, frame = 96
 517              		@ frame_needed = 1, uses_anonymous_args = 0
 518 0000 80B5     		push	{r7, lr}
 519              		.cfi_def_cfa_offset 8
 520              		.cfi_offset 7, -8
 521              		.cfi_offset 14, -4
 522 0002 98B0     		sub	sp, sp, #96
 523              		.cfi_def_cfa_offset 104
 524 0004 00AF     		add	r7, sp, #0
 525              		.cfi_def_cfa_register 7
 189:Core/Src/main.c ****   RCC_OscInitTypeDef RCC_OscInitStruct = {0};
 526              		.loc 1 189 22
 527 0006 07F11803 		add	r3, r7, #24
 528 000a 4822     		movs	r2, #72
 529 000c 0021     		movs	r1, #0
 530 000e 1846     		mov	r0, r3
 531 0010 FFF7FEFF 		bl	memset
 190:Core/Src/main.c ****   RCC_ClkInitTypeDef RCC_ClkInitStruct = {0};
 532              		.loc 1 190 22
 533 0014 3B1D     		adds	r3, r7, #4
 534 0016 0022     		movs	r2, #0
 535 0018 1A60     		str	r2, [r3]
 536 001a 5A60     		str	r2, [r3, #4]
 537 001c 9A60     		str	r2, [r3, #8]
 538 001e DA60     		str	r2, [r3, #12]
 539 0020 1A61     		str	r2, [r3, #16]
ARM GAS  C:\Users\Morroway\AppData\Local\Temp\ccDRKoO5.s 			page 14


 191:Core/Src/main.c **** 
 192:Core/Src/main.c ****   /** Configure the main internal regulator output voltage
 193:Core/Src/main.c ****   */
 194:Core/Src/main.c ****   if (HAL_PWREx_ControlVoltageScaling(PWR_REGULATOR_VOLTAGE_SCALE1_BOOST) != HAL_OK)
 540              		.loc 1 194 7
 541 0022 0020     		movs	r0, #0
 542 0024 FFF7FEFF 		bl	HAL_PWREx_ControlVoltageScaling
 543 0028 0346     		mov	r3, r0
 544              		.loc 1 194 6
 545 002a 002B     		cmp	r3, #0
 546 002c 01D0     		beq	.L24
 195:Core/Src/main.c ****   {
 196:Core/Src/main.c ****     Error_Handler();
 547              		.loc 1 196 5
 548 002e FFF7FEFF 		bl	Error_Handler
 549              	.L24:
 197:Core/Src/main.c ****   }
 198:Core/Src/main.c **** 
 199:Core/Src/main.c ****   /** Initializes the RCC Oscillators according to the specified parameters
 200:Core/Src/main.c ****   * in the RCC_OscInitTypeDef structure.
 201:Core/Src/main.c ****   */
 202:Core/Src/main.c ****   RCC_OscInitStruct.OscillatorType = RCC_OSCILLATORTYPE_HSI48|RCC_OSCILLATORTYPE_MSI;
 550              		.loc 1 202 36
 551 0032 3023     		movs	r3, #48
 552 0034 BB61     		str	r3, [r7, #24]
 203:Core/Src/main.c ****   RCC_OscInitStruct.HSI48State = RCC_HSI48_ON;
 553              		.loc 1 203 32
 554 0036 0123     		movs	r3, #1
 555 0038 3B64     		str	r3, [r7, #64]
 204:Core/Src/main.c ****   RCC_OscInitStruct.MSIState = RCC_MSI_ON;
 556              		.loc 1 204 30
 557 003a 0123     		movs	r3, #1
 558 003c 7B63     		str	r3, [r7, #52]
 205:Core/Src/main.c ****   RCC_OscInitStruct.MSICalibrationValue = 0;
 559              		.loc 1 205 41
 560 003e 0023     		movs	r3, #0
 561 0040 BB63     		str	r3, [r7, #56]
 206:Core/Src/main.c ****   RCC_OscInitStruct.MSIClockRange = RCC_MSIRANGE_6;
 562              		.loc 1 206 35
 563 0042 6023     		movs	r3, #96
 564 0044 FB63     		str	r3, [r7, #60]
 207:Core/Src/main.c ****   RCC_OscInitStruct.PLL.PLLState = RCC_PLL_ON;
 565              		.loc 1 207 34
 566 0046 0223     		movs	r3, #2
 567 0048 7B64     		str	r3, [r7, #68]
 208:Core/Src/main.c ****   RCC_OscInitStruct.PLL.PLLSource = RCC_PLLSOURCE_MSI;
 568              		.loc 1 208 35
 569 004a 0123     		movs	r3, #1
 570 004c BB64     		str	r3, [r7, #72]
 209:Core/Src/main.c ****   RCC_OscInitStruct.PLL.PLLM = 1;
 571              		.loc 1 209 30
 572 004e 0123     		movs	r3, #1
 573 0050 FB64     		str	r3, [r7, #76]
 210:Core/Src/main.c ****   RCC_OscInitStruct.PLL.PLLN = 60;
 574              		.loc 1 210 30
 575 0052 3C23     		movs	r3, #60
 576 0054 3B65     		str	r3, [r7, #80]
ARM GAS  C:\Users\Morroway\AppData\Local\Temp\ccDRKoO5.s 			page 15


 211:Core/Src/main.c ****   RCC_OscInitStruct.PLL.PLLP = RCC_PLLP_DIV2;
 577              		.loc 1 211 30
 578 0056 0223     		movs	r3, #2
 579 0058 7B65     		str	r3, [r7, #84]
 212:Core/Src/main.c ****   RCC_OscInitStruct.PLL.PLLQ = RCC_PLLQ_DIV2;
 580              		.loc 1 212 30
 581 005a 0223     		movs	r3, #2
 582 005c BB65     		str	r3, [r7, #88]
 213:Core/Src/main.c ****   RCC_OscInitStruct.PLL.PLLR = RCC_PLLR_DIV2;
 583              		.loc 1 213 30
 584 005e 0223     		movs	r3, #2
 585 0060 FB65     		str	r3, [r7, #92]
 214:Core/Src/main.c ****   if (HAL_RCC_OscConfig(&RCC_OscInitStruct) != HAL_OK)
 586              		.loc 1 214 7
 587 0062 07F11803 		add	r3, r7, #24
 588 0066 1846     		mov	r0, r3
 589 0068 FFF7FEFF 		bl	HAL_RCC_OscConfig
 590 006c 0346     		mov	r3, r0
 591              		.loc 1 214 6
 592 006e 002B     		cmp	r3, #0
 593 0070 01D0     		beq	.L25
 215:Core/Src/main.c ****   {
 216:Core/Src/main.c ****     Error_Handler();
 594              		.loc 1 216 5
 595 0072 FFF7FEFF 		bl	Error_Handler
 596              	.L25:
 217:Core/Src/main.c ****   }
 218:Core/Src/main.c **** 
 219:Core/Src/main.c ****   /** Initializes the CPU, AHB and APB buses clocks
 220:Core/Src/main.c ****   */
 221:Core/Src/main.c ****   RCC_ClkInitStruct.ClockType = RCC_CLOCKTYPE_HCLK|RCC_CLOCKTYPE_SYSCLK
 597              		.loc 1 221 31
 598 0076 0F23     		movs	r3, #15
 599 0078 7B60     		str	r3, [r7, #4]
 222:Core/Src/main.c ****                               |RCC_CLOCKTYPE_PCLK1|RCC_CLOCKTYPE_PCLK2;
 223:Core/Src/main.c ****   RCC_ClkInitStruct.SYSCLKSource = RCC_SYSCLKSOURCE_PLLCLK;
 600              		.loc 1 223 34
 601 007a 0323     		movs	r3, #3
 602 007c BB60     		str	r3, [r7, #8]
 224:Core/Src/main.c ****   RCC_ClkInitStruct.AHBCLKDivider = RCC_SYSCLK_DIV1;
 603              		.loc 1 224 35
 604 007e 0023     		movs	r3, #0
 605 0080 FB60     		str	r3, [r7, #12]
 225:Core/Src/main.c ****   RCC_ClkInitStruct.APB1CLKDivider = RCC_HCLK_DIV1;
 606              		.loc 1 225 36
 607 0082 0023     		movs	r3, #0
 608 0084 3B61     		str	r3, [r7, #16]
 226:Core/Src/main.c ****   RCC_ClkInitStruct.APB2CLKDivider = RCC_HCLK_DIV1;
 609              		.loc 1 226 36
 610 0086 0023     		movs	r3, #0
 611 0088 7B61     		str	r3, [r7, #20]
 227:Core/Src/main.c **** 
 228:Core/Src/main.c ****   if (HAL_RCC_ClockConfig(&RCC_ClkInitStruct, FLASH_LATENCY_5) != HAL_OK)
 612              		.loc 1 228 7
 613 008a 3B1D     		adds	r3, r7, #4
 614 008c 0521     		movs	r1, #5
 615 008e 1846     		mov	r0, r3
ARM GAS  C:\Users\Morroway\AppData\Local\Temp\ccDRKoO5.s 			page 16


 616 0090 FFF7FEFF 		bl	HAL_RCC_ClockConfig
 617 0094 0346     		mov	r3, r0
 618              		.loc 1 228 6
 619 0096 002B     		cmp	r3, #0
 620 0098 01D0     		beq	.L27
 229:Core/Src/main.c ****   {
 230:Core/Src/main.c ****     Error_Handler();
 621              		.loc 1 230 5
 622 009a FFF7FEFF 		bl	Error_Handler
 623              	.L27:
 231:Core/Src/main.c ****   }
 232:Core/Src/main.c **** }
 624              		.loc 1 232 1
 625 009e 00BF     		nop
 626 00a0 6037     		adds	r7, r7, #96
 627              		.cfi_def_cfa_offset 8
 628 00a2 BD46     		mov	sp, r7
 629              		.cfi_def_cfa_register 13
 630              		@ sp needed
 631 00a4 80BD     		pop	{r7, pc}
 632              		.cfi_endproc
 633              	.LFE330:
 635              		.section	.text.MX_ADC1_Init,"ax",%progbits
 636              		.align	1
 637              		.syntax unified
 638              		.thumb
 639              		.thumb_func
 641              	MX_ADC1_Init:
 642              	.LFB331:
 233:Core/Src/main.c **** 
 234:Core/Src/main.c **** /**
 235:Core/Src/main.c ****   * @brief ADC1 Initialization Function
 236:Core/Src/main.c ****   * @param None
 237:Core/Src/main.c ****   * @retval None
 238:Core/Src/main.c ****   */
 239:Core/Src/main.c **** static void MX_ADC1_Init(void)
 240:Core/Src/main.c **** {
 643              		.loc 1 240 1
 644              		.cfi_startproc
 645              		@ args = 0, pretend = 0, frame = 40
 646              		@ frame_needed = 1, uses_anonymous_args = 0
 647 0000 80B5     		push	{r7, lr}
 648              		.cfi_def_cfa_offset 8
 649              		.cfi_offset 7, -8
 650              		.cfi_offset 14, -4
 651 0002 8AB0     		sub	sp, sp, #40
 652              		.cfi_def_cfa_offset 48
 653 0004 00AF     		add	r7, sp, #0
 654              		.cfi_def_cfa_register 7
 241:Core/Src/main.c **** 
 242:Core/Src/main.c ****   /* USER CODE BEGIN ADC1_Init 0 */
 243:Core/Src/main.c **** 
 244:Core/Src/main.c ****   /* USER CODE END ADC1_Init 0 */
 245:Core/Src/main.c **** 
 246:Core/Src/main.c ****   ADC_MultiModeTypeDef multimode = {0};
 655              		.loc 1 246 24
 656 0006 07F11C03 		add	r3, r7, #28
ARM GAS  C:\Users\Morroway\AppData\Local\Temp\ccDRKoO5.s 			page 17


 657 000a 0022     		movs	r2, #0
 658 000c 1A60     		str	r2, [r3]
 659 000e 5A60     		str	r2, [r3, #4]
 660 0010 9A60     		str	r2, [r3, #8]
 247:Core/Src/main.c ****   ADC_ChannelConfTypeDef sConfig = {0};
 661              		.loc 1 247 26
 662 0012 3B1D     		adds	r3, r7, #4
 663 0014 0022     		movs	r2, #0
 664 0016 1A60     		str	r2, [r3]
 665 0018 5A60     		str	r2, [r3, #4]
 666 001a 9A60     		str	r2, [r3, #8]
 667 001c DA60     		str	r2, [r3, #12]
 668 001e 1A61     		str	r2, [r3, #16]
 669 0020 5A61     		str	r2, [r3, #20]
 248:Core/Src/main.c **** 
 249:Core/Src/main.c ****   /* USER CODE BEGIN ADC1_Init 1 */
 250:Core/Src/main.c **** 
 251:Core/Src/main.c ****   /* USER CODE END ADC1_Init 1 */
 252:Core/Src/main.c **** 
 253:Core/Src/main.c ****   /** Common config
 254:Core/Src/main.c ****   */
 255:Core/Src/main.c ****   hadc1.Instance = ADC1;
 670              		.loc 1 255 18
 671 0022 434B     		ldr	r3, .L35
 672 0024 434A     		ldr	r2, .L35+4
 673 0026 1A60     		str	r2, [r3]
 256:Core/Src/main.c ****   hadc1.Init.ClockPrescaler = ADC_CLOCK_ASYNC_DIV1;
 674              		.loc 1 256 29
 675 0028 414B     		ldr	r3, .L35
 676 002a 0022     		movs	r2, #0
 677 002c 5A60     		str	r2, [r3, #4]
 257:Core/Src/main.c ****   hadc1.Init.Resolution = ADC_RESOLUTION_12B;
 678              		.loc 1 257 25
 679 002e 404B     		ldr	r3, .L35
 680 0030 0022     		movs	r2, #0
 681 0032 9A60     		str	r2, [r3, #8]
 258:Core/Src/main.c ****   hadc1.Init.DataAlign = ADC_DATAALIGN_RIGHT;
 682              		.loc 1 258 24
 683 0034 3E4B     		ldr	r3, .L35
 684 0036 0022     		movs	r2, #0
 685 0038 DA60     		str	r2, [r3, #12]
 259:Core/Src/main.c ****   hadc1.Init.ScanConvMode = ADC_SCAN_ENABLE;
 686              		.loc 1 259 27
 687 003a 3D4B     		ldr	r3, .L35
 688 003c 0122     		movs	r2, #1
 689 003e 1A61     		str	r2, [r3, #16]
 260:Core/Src/main.c ****   hadc1.Init.EOCSelection = ADC_EOC_SINGLE_CONV;
 690              		.loc 1 260 27
 691 0040 3B4B     		ldr	r3, .L35
 692 0042 0422     		movs	r2, #4
 693 0044 5A61     		str	r2, [r3, #20]
 261:Core/Src/main.c ****   hadc1.Init.LowPowerAutoWait = DISABLE;
 694              		.loc 1 261 31
 695 0046 3A4B     		ldr	r3, .L35
 696 0048 0022     		movs	r2, #0
 697 004a 1A76     		strb	r2, [r3, #24]
 262:Core/Src/main.c ****   hadc1.Init.ContinuousConvMode = ENABLE;
ARM GAS  C:\Users\Morroway\AppData\Local\Temp\ccDRKoO5.s 			page 18


 698              		.loc 1 262 33
 699 004c 384B     		ldr	r3, .L35
 700 004e 0122     		movs	r2, #1
 701 0050 5A76     		strb	r2, [r3, #25]
 263:Core/Src/main.c ****   hadc1.Init.NbrOfConversion = 3;
 702              		.loc 1 263 30
 703 0052 374B     		ldr	r3, .L35
 704 0054 0322     		movs	r2, #3
 705 0056 DA61     		str	r2, [r3, #28]
 264:Core/Src/main.c ****   hadc1.Init.DiscontinuousConvMode = DISABLE;
 706              		.loc 1 264 36
 707 0058 354B     		ldr	r3, .L35
 708 005a 0022     		movs	r2, #0
 709 005c 83F82020 		strb	r2, [r3, #32]
 265:Core/Src/main.c ****   hadc1.Init.ExternalTrigConv = ADC_SOFTWARE_START;
 710              		.loc 1 265 31
 711 0060 334B     		ldr	r3, .L35
 712 0062 0022     		movs	r2, #0
 713 0064 9A62     		str	r2, [r3, #40]
 266:Core/Src/main.c ****   hadc1.Init.ExternalTrigConvEdge = ADC_EXTERNALTRIGCONVEDGE_NONE;
 714              		.loc 1 266 35
 715 0066 324B     		ldr	r3, .L35
 716 0068 0022     		movs	r2, #0
 717 006a DA62     		str	r2, [r3, #44]
 267:Core/Src/main.c ****   hadc1.Init.DMAContinuousRequests = ENABLE;
 718              		.loc 1 267 36
 719 006c 304B     		ldr	r3, .L35
 720 006e 0122     		movs	r2, #1
 721 0070 83F83020 		strb	r2, [r3, #48]
 268:Core/Src/main.c ****   hadc1.Init.Overrun = ADC_OVR_DATA_PRESERVED;
 722              		.loc 1 268 22
 723 0074 2E4B     		ldr	r3, .L35
 724 0076 0022     		movs	r2, #0
 725 0078 5A63     		str	r2, [r3, #52]
 269:Core/Src/main.c ****   hadc1.Init.OversamplingMode = ENABLE;
 726              		.loc 1 269 31
 727 007a 2D4B     		ldr	r3, .L35
 728 007c 0122     		movs	r2, #1
 729 007e 83F83820 		strb	r2, [r3, #56]
 270:Core/Src/main.c ****   hadc1.Init.Oversampling.Ratio = ADC_OVERSAMPLING_RATIO_16;
 730              		.loc 1 270 33
 731 0082 2B4B     		ldr	r3, .L35
 732 0084 0C22     		movs	r2, #12
 733 0086 DA63     		str	r2, [r3, #60]
 271:Core/Src/main.c ****   hadc1.Init.Oversampling.RightBitShift = ADC_RIGHTBITSHIFT_NONE;
 734              		.loc 1 271 41
 735 0088 294B     		ldr	r3, .L35
 736 008a 0022     		movs	r2, #0
 737 008c 1A64     		str	r2, [r3, #64]
 272:Core/Src/main.c ****   hadc1.Init.Oversampling.TriggeredMode = ADC_TRIGGEREDMODE_SINGLE_TRIGGER;
 738              		.loc 1 272 41
 739 008e 284B     		ldr	r3, .L35
 740 0090 0022     		movs	r2, #0
 741 0092 5A64     		str	r2, [r3, #68]
 273:Core/Src/main.c ****   hadc1.Init.Oversampling.OversamplingStopReset = ADC_REGOVERSAMPLING_CONTINUED_MODE;
 742              		.loc 1 273 49
 743 0094 264B     		ldr	r3, .L35
ARM GAS  C:\Users\Morroway\AppData\Local\Temp\ccDRKoO5.s 			page 19


 744 0096 0122     		movs	r2, #1
 745 0098 9A64     		str	r2, [r3, #72]
 274:Core/Src/main.c ****   if (HAL_ADC_Init(&hadc1) != HAL_OK)
 746              		.loc 1 274 7
 747 009a 2548     		ldr	r0, .L35
 748 009c FFF7FEFF 		bl	HAL_ADC_Init
 749 00a0 0346     		mov	r3, r0
 750              		.loc 1 274 6
 751 00a2 002B     		cmp	r3, #0
 752 00a4 01D0     		beq	.L29
 275:Core/Src/main.c ****   {
 276:Core/Src/main.c ****     Error_Handler();
 753              		.loc 1 276 5
 754 00a6 FFF7FEFF 		bl	Error_Handler
 755              	.L29:
 277:Core/Src/main.c ****   }
 278:Core/Src/main.c **** 
 279:Core/Src/main.c ****   /** Configure the ADC multi-mode
 280:Core/Src/main.c ****   */
 281:Core/Src/main.c ****   multimode.Mode = ADC_MODE_INDEPENDENT;
 756              		.loc 1 281 18
 757 00aa 0023     		movs	r3, #0
 758 00ac FB61     		str	r3, [r7, #28]
 282:Core/Src/main.c ****   if (HAL_ADCEx_MultiModeConfigChannel(&hadc1, &multimode) != HAL_OK)
 759              		.loc 1 282 7
 760 00ae 07F11C03 		add	r3, r7, #28
 761 00b2 1946     		mov	r1, r3
 762 00b4 1E48     		ldr	r0, .L35
 763 00b6 FFF7FEFF 		bl	HAL_ADCEx_MultiModeConfigChannel
 764 00ba 0346     		mov	r3, r0
 765              		.loc 1 282 6
 766 00bc 002B     		cmp	r3, #0
 767 00be 01D0     		beq	.L30
 283:Core/Src/main.c ****   {
 284:Core/Src/main.c ****     Error_Handler();
 768              		.loc 1 284 5
 769 00c0 FFF7FEFF 		bl	Error_Handler
 770              	.L30:
 285:Core/Src/main.c ****   }
 286:Core/Src/main.c **** 
 287:Core/Src/main.c ****   /** Configure Regular Channel
 288:Core/Src/main.c ****   */
 289:Core/Src/main.c ****   sConfig.Channel = ADC_CHANNEL_1;
 771              		.loc 1 289 19
 772 00c4 1C4B     		ldr	r3, .L35+8
 773 00c6 7B60     		str	r3, [r7, #4]
 290:Core/Src/main.c ****   sConfig.Rank = ADC_REGULAR_RANK_1;
 774              		.loc 1 290 16
 775 00c8 0623     		movs	r3, #6
 776 00ca BB60     		str	r3, [r7, #8]
 291:Core/Src/main.c ****   sConfig.SamplingTime = ADC_SAMPLETIME_247CYCLES_5;
 777              		.loc 1 291 24
 778 00cc 0623     		movs	r3, #6
 779 00ce FB60     		str	r3, [r7, #12]
 292:Core/Src/main.c ****   sConfig.SingleDiff = ADC_SINGLE_ENDED;
 780              		.loc 1 292 22
 781 00d0 7F23     		movs	r3, #127
ARM GAS  C:\Users\Morroway\AppData\Local\Temp\ccDRKoO5.s 			page 20


 782 00d2 3B61     		str	r3, [r7, #16]
 293:Core/Src/main.c ****   sConfig.OffsetNumber = ADC_OFFSET_NONE;
 783              		.loc 1 293 24
 784 00d4 0423     		movs	r3, #4
 785 00d6 7B61     		str	r3, [r7, #20]
 294:Core/Src/main.c ****   sConfig.Offset = 0;
 786              		.loc 1 294 18
 787 00d8 0023     		movs	r3, #0
 788 00da BB61     		str	r3, [r7, #24]
 295:Core/Src/main.c ****   if (HAL_ADC_ConfigChannel(&hadc1, &sConfig) != HAL_OK)
 789              		.loc 1 295 7
 790 00dc 3B1D     		adds	r3, r7, #4
 791 00de 1946     		mov	r1, r3
 792 00e0 1348     		ldr	r0, .L35
 793 00e2 FFF7FEFF 		bl	HAL_ADC_ConfigChannel
 794 00e6 0346     		mov	r3, r0
 795              		.loc 1 295 6
 796 00e8 002B     		cmp	r3, #0
 797 00ea 01D0     		beq	.L31
 296:Core/Src/main.c ****   {
 297:Core/Src/main.c ****     Error_Handler();
 798              		.loc 1 297 5
 799 00ec FFF7FEFF 		bl	Error_Handler
 800              	.L31:
 298:Core/Src/main.c ****   }
 299:Core/Src/main.c **** 
 300:Core/Src/main.c ****   /** Configure Regular Channel
 301:Core/Src/main.c ****   */
 302:Core/Src/main.c ****   sConfig.Channel = ADC_CHANNEL_2;
 801              		.loc 1 302 19
 802 00f0 124B     		ldr	r3, .L35+12
 803 00f2 7B60     		str	r3, [r7, #4]
 303:Core/Src/main.c ****   sConfig.Rank = ADC_REGULAR_RANK_2;
 804              		.loc 1 303 16
 805 00f4 0C23     		movs	r3, #12
 806 00f6 BB60     		str	r3, [r7, #8]
 304:Core/Src/main.c ****   if (HAL_ADC_ConfigChannel(&hadc1, &sConfig) != HAL_OK)
 807              		.loc 1 304 7
 808 00f8 3B1D     		adds	r3, r7, #4
 809 00fa 1946     		mov	r1, r3
 810 00fc 0C48     		ldr	r0, .L35
 811 00fe FFF7FEFF 		bl	HAL_ADC_ConfigChannel
 812 0102 0346     		mov	r3, r0
 813              		.loc 1 304 6
 814 0104 002B     		cmp	r3, #0
 815 0106 01D0     		beq	.L32
 305:Core/Src/main.c ****   {
 306:Core/Src/main.c ****     Error_Handler();
 816              		.loc 1 306 5
 817 0108 FFF7FEFF 		bl	Error_Handler
 818              	.L32:
 307:Core/Src/main.c ****   }
 308:Core/Src/main.c **** 
 309:Core/Src/main.c ****   /** Configure Regular Channel
 310:Core/Src/main.c ****   */
 311:Core/Src/main.c ****   sConfig.Channel = ADC_CHANNEL_TEMPSENSOR;
 819              		.loc 1 311 19
ARM GAS  C:\Users\Morroway\AppData\Local\Temp\ccDRKoO5.s 			page 21


 820 010c 0C4B     		ldr	r3, .L35+16
 821 010e 7B60     		str	r3, [r7, #4]
 312:Core/Src/main.c ****   sConfig.Rank = ADC_REGULAR_RANK_3;
 822              		.loc 1 312 16
 823 0110 1223     		movs	r3, #18
 824 0112 BB60     		str	r3, [r7, #8]
 313:Core/Src/main.c ****   if (HAL_ADC_ConfigChannel(&hadc1, &sConfig) != HAL_OK)
 825              		.loc 1 313 7
 826 0114 3B1D     		adds	r3, r7, #4
 827 0116 1946     		mov	r1, r3
 828 0118 0548     		ldr	r0, .L35
 829 011a FFF7FEFF 		bl	HAL_ADC_ConfigChannel
 830 011e 0346     		mov	r3, r0
 831              		.loc 1 313 6
 832 0120 002B     		cmp	r3, #0
 833 0122 01D0     		beq	.L34
 314:Core/Src/main.c ****   {
 315:Core/Src/main.c ****     Error_Handler();
 834              		.loc 1 315 5
 835 0124 FFF7FEFF 		bl	Error_Handler
 836              	.L34:
 316:Core/Src/main.c ****   }
 317:Core/Src/main.c ****   /* USER CODE BEGIN ADC1_Init 2 */
 318:Core/Src/main.c **** 
 319:Core/Src/main.c ****   /* USER CODE END ADC1_Init 2 */
 320:Core/Src/main.c **** 
 321:Core/Src/main.c **** }
 837              		.loc 1 321 1
 838 0128 00BF     		nop
 839 012a 2837     		adds	r7, r7, #40
 840              		.cfi_def_cfa_offset 8
 841 012c BD46     		mov	sp, r7
 842              		.cfi_def_cfa_register 13
 843              		@ sp needed
 844 012e 80BD     		pop	{r7, pc}
 845              	.L36:
 846              		.align	2
 847              	.L35:
 848 0130 00000000 		.word	hadc1
 849 0134 00000450 		.word	1342439424
 850 0138 02003004 		.word	70254594
 851 013c 04006008 		.word	140509188
 852 0140 000052C7 		.word	-950927360
 853              		.cfi_endproc
 854              	.LFE331:
 856              		.section	.text.MX_LPUART1_UART_Init,"ax",%progbits
 857              		.align	1
 858              		.syntax unified
 859              		.thumb
 860              		.thumb_func
 862              	MX_LPUART1_UART_Init:
 863              	.LFB332:
 322:Core/Src/main.c **** 
 323:Core/Src/main.c **** /**
 324:Core/Src/main.c ****   * @brief LPUART1 Initialization Function
 325:Core/Src/main.c ****   * @param None
 326:Core/Src/main.c ****   * @retval None
ARM GAS  C:\Users\Morroway\AppData\Local\Temp\ccDRKoO5.s 			page 22


 327:Core/Src/main.c ****   */
 328:Core/Src/main.c **** static void MX_LPUART1_UART_Init(void)
 329:Core/Src/main.c **** {
 864              		.loc 1 329 1
 865              		.cfi_startproc
 866              		@ args = 0, pretend = 0, frame = 0
 867              		@ frame_needed = 1, uses_anonymous_args = 0
 868 0000 80B5     		push	{r7, lr}
 869              		.cfi_def_cfa_offset 8
 870              		.cfi_offset 7, -8
 871              		.cfi_offset 14, -4
 872 0002 00AF     		add	r7, sp, #0
 873              		.cfi_def_cfa_register 7
 330:Core/Src/main.c **** 
 331:Core/Src/main.c ****   /* USER CODE BEGIN LPUART1_Init 0 */
 332:Core/Src/main.c **** 
 333:Core/Src/main.c ****   /* USER CODE END LPUART1_Init 0 */
 334:Core/Src/main.c **** 
 335:Core/Src/main.c ****   /* USER CODE BEGIN LPUART1_Init 1 */
 336:Core/Src/main.c **** 
 337:Core/Src/main.c ****   /* USER CODE END LPUART1_Init 1 */
 338:Core/Src/main.c ****   hlpuart1.Instance = LPUART1;
 874              		.loc 1 338 21
 875 0004 244B     		ldr	r3, .L43
 876 0006 254A     		ldr	r2, .L43+4
 877 0008 1A60     		str	r2, [r3]
 339:Core/Src/main.c ****   hlpuart1.Init.BaudRate = 115200;
 878              		.loc 1 339 26
 879 000a 234B     		ldr	r3, .L43
 880 000c 4FF4E132 		mov	r2, #115200
 881 0010 5A60     		str	r2, [r3, #4]
 340:Core/Src/main.c ****   hlpuart1.Init.WordLength = UART_WORDLENGTH_8B;
 882              		.loc 1 340 28
 883 0012 214B     		ldr	r3, .L43
 884 0014 0022     		movs	r2, #0
 885 0016 9A60     		str	r2, [r3, #8]
 341:Core/Src/main.c ****   hlpuart1.Init.StopBits = UART_STOPBITS_1;
 886              		.loc 1 341 26
 887 0018 1F4B     		ldr	r3, .L43
 888 001a 0022     		movs	r2, #0
 889 001c DA60     		str	r2, [r3, #12]
 342:Core/Src/main.c ****   hlpuart1.Init.Parity = UART_PARITY_NONE;
 890              		.loc 1 342 24
 891 001e 1E4B     		ldr	r3, .L43
 892 0020 0022     		movs	r2, #0
 893 0022 1A61     		str	r2, [r3, #16]
 343:Core/Src/main.c ****   hlpuart1.Init.Mode = UART_MODE_TX_RX;
 894              		.loc 1 343 22
 895 0024 1C4B     		ldr	r3, .L43
 896 0026 0C22     		movs	r2, #12
 897 0028 5A61     		str	r2, [r3, #20]
 344:Core/Src/main.c ****   hlpuart1.Init.HwFlowCtl = UART_HWCONTROL_NONE;
 898              		.loc 1 344 27
 899 002a 1B4B     		ldr	r3, .L43
 900 002c 0022     		movs	r2, #0
 901 002e 9A61     		str	r2, [r3, #24]
 345:Core/Src/main.c ****   hlpuart1.Init.OneBitSampling = UART_ONE_BIT_SAMPLE_DISABLE;
ARM GAS  C:\Users\Morroway\AppData\Local\Temp\ccDRKoO5.s 			page 23


 902              		.loc 1 345 32
 903 0030 194B     		ldr	r3, .L43
 904 0032 0022     		movs	r2, #0
 905 0034 1A62     		str	r2, [r3, #32]
 346:Core/Src/main.c ****   hlpuart1.Init.ClockPrescaler = UART_PRESCALER_DIV1;
 906              		.loc 1 346 32
 907 0036 184B     		ldr	r3, .L43
 908 0038 0022     		movs	r2, #0
 909 003a 5A62     		str	r2, [r3, #36]
 347:Core/Src/main.c ****   hlpuart1.AdvancedInit.AdvFeatureInit = UART_ADVFEATURE_RXOVERRUNDISABLE_INIT;
 910              		.loc 1 347 40
 911 003c 164B     		ldr	r3, .L43
 912 003e 1022     		movs	r2, #16
 913 0040 9A62     		str	r2, [r3, #40]
 348:Core/Src/main.c ****   hlpuart1.AdvancedInit.OverrunDisable = UART_ADVFEATURE_OVERRUN_DISABLE;
 914              		.loc 1 348 40
 915 0042 154B     		ldr	r3, .L43
 916 0044 4FF48052 		mov	r2, #4096
 917 0048 DA63     		str	r2, [r3, #60]
 349:Core/Src/main.c ****   hlpuart1.FifoMode = UART_FIFOMODE_DISABLE;
 918              		.loc 1 349 21
 919 004a 134B     		ldr	r3, .L43
 920 004c 0022     		movs	r2, #0
 921 004e 5A66     		str	r2, [r3, #100]
 350:Core/Src/main.c ****   if (HAL_UART_Init(&hlpuart1) != HAL_OK)
 922              		.loc 1 350 7
 923 0050 1148     		ldr	r0, .L43
 924 0052 FFF7FEFF 		bl	HAL_UART_Init
 925 0056 0346     		mov	r3, r0
 926              		.loc 1 350 6
 927 0058 002B     		cmp	r3, #0
 928 005a 01D0     		beq	.L38
 351:Core/Src/main.c ****   {
 352:Core/Src/main.c ****     Error_Handler();
 929              		.loc 1 352 5
 930 005c FFF7FEFF 		bl	Error_Handler
 931              	.L38:
 353:Core/Src/main.c ****   }
 354:Core/Src/main.c ****   if (HAL_UARTEx_SetTxFifoThreshold(&hlpuart1, UART_TXFIFO_THRESHOLD_1_8) != HAL_OK)
 932              		.loc 1 354 7
 933 0060 0021     		movs	r1, #0
 934 0062 0D48     		ldr	r0, .L43
 935 0064 FFF7FEFF 		bl	HAL_UARTEx_SetTxFifoThreshold
 936 0068 0346     		mov	r3, r0
 937              		.loc 1 354 6
 938 006a 002B     		cmp	r3, #0
 939 006c 01D0     		beq	.L39
 355:Core/Src/main.c ****   {
 356:Core/Src/main.c ****     Error_Handler();
 940              		.loc 1 356 5
 941 006e FFF7FEFF 		bl	Error_Handler
 942              	.L39:
 357:Core/Src/main.c ****   }
 358:Core/Src/main.c ****   if (HAL_UARTEx_SetRxFifoThreshold(&hlpuart1, UART_RXFIFO_THRESHOLD_1_8) != HAL_OK)
 943              		.loc 1 358 7
 944 0072 0021     		movs	r1, #0
 945 0074 0848     		ldr	r0, .L43
ARM GAS  C:\Users\Morroway\AppData\Local\Temp\ccDRKoO5.s 			page 24


 946 0076 FFF7FEFF 		bl	HAL_UARTEx_SetRxFifoThreshold
 947 007a 0346     		mov	r3, r0
 948              		.loc 1 358 6
 949 007c 002B     		cmp	r3, #0
 950 007e 01D0     		beq	.L40
 359:Core/Src/main.c ****   {
 360:Core/Src/main.c ****     Error_Handler();
 951              		.loc 1 360 5
 952 0080 FFF7FEFF 		bl	Error_Handler
 953              	.L40:
 361:Core/Src/main.c ****   }
 362:Core/Src/main.c ****   if (HAL_UARTEx_DisableFifoMode(&hlpuart1) != HAL_OK)
 954              		.loc 1 362 7
 955 0084 0448     		ldr	r0, .L43
 956 0086 FFF7FEFF 		bl	HAL_UARTEx_DisableFifoMode
 957 008a 0346     		mov	r3, r0
 958              		.loc 1 362 6
 959 008c 002B     		cmp	r3, #0
 960 008e 01D0     		beq	.L42
 363:Core/Src/main.c ****   {
 364:Core/Src/main.c ****     Error_Handler();
 961              		.loc 1 364 5
 962 0090 FFF7FEFF 		bl	Error_Handler
 963              	.L42:
 365:Core/Src/main.c ****   }
 366:Core/Src/main.c ****   /* USER CODE BEGIN LPUART1_Init 2 */
 367:Core/Src/main.c **** 
 368:Core/Src/main.c ****   /* USER CODE END LPUART1_Init 2 */
 369:Core/Src/main.c **** 
 370:Core/Src/main.c **** }
 964              		.loc 1 370 1
 965 0094 00BF     		nop
 966 0096 80BD     		pop	{r7, pc}
 967              	.L44:
 968              		.align	2
 969              	.L43:
 970 0098 00000000 		.word	hlpuart1
 971 009c 00800040 		.word	1073774592
 972              		.cfi_endproc
 973              	.LFE332:
 975              		.section	.text.MX_UART4_Init,"ax",%progbits
 976              		.align	1
 977              		.syntax unified
 978              		.thumb
 979              		.thumb_func
 981              	MX_UART4_Init:
 982              	.LFB333:
 371:Core/Src/main.c **** 
 372:Core/Src/main.c **** /**
 373:Core/Src/main.c ****   * @brief UART4 Initialization Function
 374:Core/Src/main.c ****   * @param None
 375:Core/Src/main.c ****   * @retval None
 376:Core/Src/main.c ****   */
 377:Core/Src/main.c **** static void MX_UART4_Init(void)
 378:Core/Src/main.c **** {
 983              		.loc 1 378 1
 984              		.cfi_startproc
ARM GAS  C:\Users\Morroway\AppData\Local\Temp\ccDRKoO5.s 			page 25


 985              		@ args = 0, pretend = 0, frame = 0
 986              		@ frame_needed = 1, uses_anonymous_args = 0
 987 0000 80B5     		push	{r7, lr}
 988              		.cfi_def_cfa_offset 8
 989              		.cfi_offset 7, -8
 990              		.cfi_offset 14, -4
 991 0002 00AF     		add	r7, sp, #0
 992              		.cfi_def_cfa_register 7
 379:Core/Src/main.c **** 
 380:Core/Src/main.c ****   /* USER CODE BEGIN UART4_Init 0 */
 381:Core/Src/main.c **** 
 382:Core/Src/main.c ****   /* USER CODE END UART4_Init 0 */
 383:Core/Src/main.c **** 
 384:Core/Src/main.c ****   /* USER CODE BEGIN UART4_Init 1 */
 385:Core/Src/main.c **** 
 386:Core/Src/main.c ****   /* USER CODE END UART4_Init 1 */
 387:Core/Src/main.c ****   huart4.Instance = UART4;
 993              		.loc 1 387 19
 994 0004 224B     		ldr	r3, .L51
 995 0006 234A     		ldr	r2, .L51+4
 996 0008 1A60     		str	r2, [r3]
 388:Core/Src/main.c ****   huart4.Init.BaudRate = 115200;
 997              		.loc 1 388 24
 998 000a 214B     		ldr	r3, .L51
 999 000c 4FF4E132 		mov	r2, #115200
 1000 0010 5A60     		str	r2, [r3, #4]
 389:Core/Src/main.c ****   huart4.Init.WordLength = UART_WORDLENGTH_8B;
 1001              		.loc 1 389 26
 1002 0012 1F4B     		ldr	r3, .L51
 1003 0014 0022     		movs	r2, #0
 1004 0016 9A60     		str	r2, [r3, #8]
 390:Core/Src/main.c ****   huart4.Init.StopBits = UART_STOPBITS_1;
 1005              		.loc 1 390 24
 1006 0018 1D4B     		ldr	r3, .L51
 1007 001a 0022     		movs	r2, #0
 1008 001c DA60     		str	r2, [r3, #12]
 391:Core/Src/main.c ****   huart4.Init.Parity = UART_PARITY_NONE;
 1009              		.loc 1 391 22
 1010 001e 1C4B     		ldr	r3, .L51
 1011 0020 0022     		movs	r2, #0
 1012 0022 1A61     		str	r2, [r3, #16]
 392:Core/Src/main.c ****   huart4.Init.Mode = UART_MODE_TX_RX;
 1013              		.loc 1 392 20
 1014 0024 1A4B     		ldr	r3, .L51
 1015 0026 0C22     		movs	r2, #12
 1016 0028 5A61     		str	r2, [r3, #20]
 393:Core/Src/main.c ****   huart4.Init.HwFlowCtl = UART_HWCONTROL_NONE;
 1017              		.loc 1 393 25
 1018 002a 194B     		ldr	r3, .L51
 1019 002c 0022     		movs	r2, #0
 1020 002e 9A61     		str	r2, [r3, #24]
 394:Core/Src/main.c ****   huart4.Init.OverSampling = UART_OVERSAMPLING_16;
 1021              		.loc 1 394 28
 1022 0030 174B     		ldr	r3, .L51
 1023 0032 0022     		movs	r2, #0
 1024 0034 DA61     		str	r2, [r3, #28]
 395:Core/Src/main.c ****   huart4.Init.OneBitSampling = UART_ONE_BIT_SAMPLE_DISABLE;
ARM GAS  C:\Users\Morroway\AppData\Local\Temp\ccDRKoO5.s 			page 26


 1025              		.loc 1 395 30
 1026 0036 164B     		ldr	r3, .L51
 1027 0038 0022     		movs	r2, #0
 1028 003a 1A62     		str	r2, [r3, #32]
 396:Core/Src/main.c ****   huart4.Init.ClockPrescaler = UART_PRESCALER_DIV1;
 1029              		.loc 1 396 30
 1030 003c 144B     		ldr	r3, .L51
 1031 003e 0022     		movs	r2, #0
 1032 0040 5A62     		str	r2, [r3, #36]
 397:Core/Src/main.c ****   huart4.AdvancedInit.AdvFeatureInit = UART_ADVFEATURE_NO_INIT;
 1033              		.loc 1 397 38
 1034 0042 134B     		ldr	r3, .L51
 1035 0044 0022     		movs	r2, #0
 1036 0046 9A62     		str	r2, [r3, #40]
 398:Core/Src/main.c ****   if (HAL_UART_Init(&huart4) != HAL_OK)
 1037              		.loc 1 398 7
 1038 0048 1148     		ldr	r0, .L51
 1039 004a FFF7FEFF 		bl	HAL_UART_Init
 1040 004e 0346     		mov	r3, r0
 1041              		.loc 1 398 6
 1042 0050 002B     		cmp	r3, #0
 1043 0052 01D0     		beq	.L46
 399:Core/Src/main.c ****   {
 400:Core/Src/main.c ****     Error_Handler();
 1044              		.loc 1 400 5
 1045 0054 FFF7FEFF 		bl	Error_Handler
 1046              	.L46:
 401:Core/Src/main.c ****   }
 402:Core/Src/main.c ****   if (HAL_UARTEx_SetTxFifoThreshold(&huart4, UART_TXFIFO_THRESHOLD_1_8) != HAL_OK)
 1047              		.loc 1 402 7
 1048 0058 0021     		movs	r1, #0
 1049 005a 0D48     		ldr	r0, .L51
 1050 005c FFF7FEFF 		bl	HAL_UARTEx_SetTxFifoThreshold
 1051 0060 0346     		mov	r3, r0
 1052              		.loc 1 402 6
 1053 0062 002B     		cmp	r3, #0
 1054 0064 01D0     		beq	.L47
 403:Core/Src/main.c ****   {
 404:Core/Src/main.c ****     Error_Handler();
 1055              		.loc 1 404 5
 1056 0066 FFF7FEFF 		bl	Error_Handler
 1057              	.L47:
 405:Core/Src/main.c ****   }
 406:Core/Src/main.c ****   if (HAL_UARTEx_SetRxFifoThreshold(&huart4, UART_RXFIFO_THRESHOLD_1_8) != HAL_OK)
 1058              		.loc 1 406 7
 1059 006a 0021     		movs	r1, #0
 1060 006c 0848     		ldr	r0, .L51
 1061 006e FFF7FEFF 		bl	HAL_UARTEx_SetRxFifoThreshold
 1062 0072 0346     		mov	r3, r0
 1063              		.loc 1 406 6
 1064 0074 002B     		cmp	r3, #0
 1065 0076 01D0     		beq	.L48
 407:Core/Src/main.c ****   {
 408:Core/Src/main.c ****     Error_Handler();
 1066              		.loc 1 408 5
 1067 0078 FFF7FEFF 		bl	Error_Handler
 1068              	.L48:
ARM GAS  C:\Users\Morroway\AppData\Local\Temp\ccDRKoO5.s 			page 27


 409:Core/Src/main.c ****   }
 410:Core/Src/main.c ****   if (HAL_UARTEx_DisableFifoMode(&huart4) != HAL_OK)
 1069              		.loc 1 410 7
 1070 007c 0448     		ldr	r0, .L51
 1071 007e FFF7FEFF 		bl	HAL_UARTEx_DisableFifoMode
 1072 0082 0346     		mov	r3, r0
 1073              		.loc 1 410 6
 1074 0084 002B     		cmp	r3, #0
 1075 0086 01D0     		beq	.L50
 411:Core/Src/main.c ****   {
 412:Core/Src/main.c ****     Error_Handler();
 1076              		.loc 1 412 5
 1077 0088 FFF7FEFF 		bl	Error_Handler
 1078              	.L50:
 413:Core/Src/main.c ****   }
 414:Core/Src/main.c ****   /* USER CODE BEGIN UART4_Init 2 */
 415:Core/Src/main.c **** 
 416:Core/Src/main.c ****   /* USER CODE END UART4_Init 2 */
 417:Core/Src/main.c **** 
 418:Core/Src/main.c **** }
 1079              		.loc 1 418 1
 1080 008c 00BF     		nop
 1081 008e 80BD     		pop	{r7, pc}
 1082              	.L52:
 1083              		.align	2
 1084              	.L51:
 1085 0090 00000000 		.word	huart4
 1086 0094 004C0040 		.word	1073761280
 1087              		.cfi_endproc
 1088              	.LFE333:
 1090              		.section	.text.MX_TIM3_Init,"ax",%progbits
 1091              		.align	1
 1092              		.syntax unified
 1093              		.thumb
 1094              		.thumb_func
 1096              	MX_TIM3_Init:
 1097              	.LFB334:
 419:Core/Src/main.c **** 
 420:Core/Src/main.c **** /**
 421:Core/Src/main.c ****   * @brief TIM3 Initialization Function
 422:Core/Src/main.c ****   * @param None
 423:Core/Src/main.c ****   * @retval None
 424:Core/Src/main.c ****   */
 425:Core/Src/main.c **** static void MX_TIM3_Init(void)
 426:Core/Src/main.c **** {
 1098              		.loc 1 426 1
 1099              		.cfi_startproc
 1100              		@ args = 0, pretend = 0, frame = 56
 1101              		@ frame_needed = 1, uses_anonymous_args = 0
 1102 0000 80B5     		push	{r7, lr}
 1103              		.cfi_def_cfa_offset 8
 1104              		.cfi_offset 7, -8
 1105              		.cfi_offset 14, -4
 1106 0002 8EB0     		sub	sp, sp, #56
 1107              		.cfi_def_cfa_offset 64
 1108 0004 00AF     		add	r7, sp, #0
 1109              		.cfi_def_cfa_register 7
ARM GAS  C:\Users\Morroway\AppData\Local\Temp\ccDRKoO5.s 			page 28


 427:Core/Src/main.c **** 
 428:Core/Src/main.c ****   /* USER CODE BEGIN TIM3_Init 0 */
 429:Core/Src/main.c **** 
 430:Core/Src/main.c ****   /* USER CODE END TIM3_Init 0 */
 431:Core/Src/main.c **** 
 432:Core/Src/main.c ****   TIM_ClockConfigTypeDef sClockSourceConfig = {0};
 1110              		.loc 1 432 26
 1111 0006 07F12803 		add	r3, r7, #40
 1112 000a 0022     		movs	r2, #0
 1113 000c 1A60     		str	r2, [r3]
 1114 000e 5A60     		str	r2, [r3, #4]
 1115 0010 9A60     		str	r2, [r3, #8]
 1116 0012 DA60     		str	r2, [r3, #12]
 433:Core/Src/main.c ****   TIM_MasterConfigTypeDef sMasterConfig = {0};
 1117              		.loc 1 433 27
 1118 0014 07F11C03 		add	r3, r7, #28
 1119 0018 0022     		movs	r2, #0
 1120 001a 1A60     		str	r2, [r3]
 1121 001c 5A60     		str	r2, [r3, #4]
 1122 001e 9A60     		str	r2, [r3, #8]
 434:Core/Src/main.c ****   TIM_OC_InitTypeDef sConfigOC = {0};
 1123              		.loc 1 434 22
 1124 0020 3B46     		mov	r3, r7
 1125 0022 0022     		movs	r2, #0
 1126 0024 1A60     		str	r2, [r3]
 1127 0026 5A60     		str	r2, [r3, #4]
 1128 0028 9A60     		str	r2, [r3, #8]
 1129 002a DA60     		str	r2, [r3, #12]
 1130 002c 1A61     		str	r2, [r3, #16]
 1131 002e 5A61     		str	r2, [r3, #20]
 1132 0030 9A61     		str	r2, [r3, #24]
 435:Core/Src/main.c **** 
 436:Core/Src/main.c ****   /* USER CODE BEGIN TIM3_Init 1 */
 437:Core/Src/main.c **** 
 438:Core/Src/main.c ****   /* USER CODE END TIM3_Init 1 */
 439:Core/Src/main.c ****   htim3.Instance = TIM3;
 1133              		.loc 1 439 18
 1134 0032 374B     		ldr	r3, .L61
 1135 0034 374A     		ldr	r2, .L61+4
 1136 0036 1A60     		str	r2, [r3]
 440:Core/Src/main.c ****   htim3.Init.Prescaler = 119;
 1137              		.loc 1 440 24
 1138 0038 354B     		ldr	r3, .L61
 1139 003a 7722     		movs	r2, #119
 1140 003c 5A60     		str	r2, [r3, #4]
 441:Core/Src/main.c ****   htim3.Init.CounterMode = TIM_COUNTERMODE_UP;
 1141              		.loc 1 441 26
 1142 003e 344B     		ldr	r3, .L61
 1143 0040 0022     		movs	r2, #0
 1144 0042 9A60     		str	r2, [r3, #8]
 442:Core/Src/main.c ****   htim3.Init.Period = 255;
 1145              		.loc 1 442 21
 1146 0044 324B     		ldr	r3, .L61
 1147 0046 FF22     		movs	r2, #255
 1148 0048 DA60     		str	r2, [r3, #12]
 443:Core/Src/main.c ****   htim3.Init.ClockDivision = TIM_CLOCKDIVISION_DIV1;
 1149              		.loc 1 443 28
ARM GAS  C:\Users\Morroway\AppData\Local\Temp\ccDRKoO5.s 			page 29


 1150 004a 314B     		ldr	r3, .L61
 1151 004c 0022     		movs	r2, #0
 1152 004e 1A61     		str	r2, [r3, #16]
 444:Core/Src/main.c ****   htim3.Init.AutoReloadPreload = TIM_AUTORELOAD_PRELOAD_ENABLE;
 1153              		.loc 1 444 32
 1154 0050 2F4B     		ldr	r3, .L61
 1155 0052 8022     		movs	r2, #128
 1156 0054 9A61     		str	r2, [r3, #24]
 445:Core/Src/main.c ****   if (HAL_TIM_Base_Init(&htim3) != HAL_OK)
 1157              		.loc 1 445 7
 1158 0056 2E48     		ldr	r0, .L61
 1159 0058 FFF7FEFF 		bl	HAL_TIM_Base_Init
 1160 005c 0346     		mov	r3, r0
 1161              		.loc 1 445 6
 1162 005e 002B     		cmp	r3, #0
 1163 0060 01D0     		beq	.L54
 446:Core/Src/main.c ****   {
 447:Core/Src/main.c ****     Error_Handler();
 1164              		.loc 1 447 5
 1165 0062 FFF7FEFF 		bl	Error_Handler
 1166              	.L54:
 448:Core/Src/main.c ****   }
 449:Core/Src/main.c ****   sClockSourceConfig.ClockSource = TIM_CLOCKSOURCE_INTERNAL;
 1167              		.loc 1 449 34
 1168 0066 4FF48053 		mov	r3, #4096
 1169 006a BB62     		str	r3, [r7, #40]
 450:Core/Src/main.c ****   if (HAL_TIM_ConfigClockSource(&htim3, &sClockSourceConfig) != HAL_OK)
 1170              		.loc 1 450 7
 1171 006c 07F12803 		add	r3, r7, #40
 1172 0070 1946     		mov	r1, r3
 1173 0072 2748     		ldr	r0, .L61
 1174 0074 FFF7FEFF 		bl	HAL_TIM_ConfigClockSource
 1175 0078 0346     		mov	r3, r0
 1176              		.loc 1 450 6
 1177 007a 002B     		cmp	r3, #0
 1178 007c 01D0     		beq	.L55
 451:Core/Src/main.c ****   {
 452:Core/Src/main.c ****     Error_Handler();
 1179              		.loc 1 452 5
 1180 007e FFF7FEFF 		bl	Error_Handler
 1181              	.L55:
 453:Core/Src/main.c ****   }
 454:Core/Src/main.c ****   if (HAL_TIM_PWM_Init(&htim3) != HAL_OK)
 1182              		.loc 1 454 7
 1183 0082 2348     		ldr	r0, .L61
 1184 0084 FFF7FEFF 		bl	HAL_TIM_PWM_Init
 1185 0088 0346     		mov	r3, r0
 1186              		.loc 1 454 6
 1187 008a 002B     		cmp	r3, #0
 1188 008c 01D0     		beq	.L56
 455:Core/Src/main.c ****   {
 456:Core/Src/main.c ****     Error_Handler();
 1189              		.loc 1 456 5
 1190 008e FFF7FEFF 		bl	Error_Handler
 1191              	.L56:
 457:Core/Src/main.c ****   }
 458:Core/Src/main.c ****   sMasterConfig.MasterOutputTrigger = TIM_TRGO_RESET;
ARM GAS  C:\Users\Morroway\AppData\Local\Temp\ccDRKoO5.s 			page 30


 1192              		.loc 1 458 37
 1193 0092 0023     		movs	r3, #0
 1194 0094 FB61     		str	r3, [r7, #28]
 459:Core/Src/main.c ****   sMasterConfig.MasterSlaveMode = TIM_MASTERSLAVEMODE_DISABLE;
 1195              		.loc 1 459 33
 1196 0096 0023     		movs	r3, #0
 1197 0098 7B62     		str	r3, [r7, #36]
 460:Core/Src/main.c ****   if (HAL_TIMEx_MasterConfigSynchronization(&htim3, &sMasterConfig) != HAL_OK)
 1198              		.loc 1 460 7
 1199 009a 07F11C03 		add	r3, r7, #28
 1200 009e 1946     		mov	r1, r3
 1201 00a0 1B48     		ldr	r0, .L61
 1202 00a2 FFF7FEFF 		bl	HAL_TIMEx_MasterConfigSynchronization
 1203 00a6 0346     		mov	r3, r0
 1204              		.loc 1 460 6
 1205 00a8 002B     		cmp	r3, #0
 1206 00aa 01D0     		beq	.L57
 461:Core/Src/main.c ****   {
 462:Core/Src/main.c ****     Error_Handler();
 1207              		.loc 1 462 5
 1208 00ac FFF7FEFF 		bl	Error_Handler
 1209              	.L57:
 463:Core/Src/main.c ****   }
 464:Core/Src/main.c ****   sConfigOC.OCMode = TIM_OCMODE_PWM1;
 1210              		.loc 1 464 20
 1211 00b0 6023     		movs	r3, #96
 1212 00b2 3B60     		str	r3, [r7]
 465:Core/Src/main.c ****   sConfigOC.Pulse = 0;
 1213              		.loc 1 465 19
 1214 00b4 0023     		movs	r3, #0
 1215 00b6 7B60     		str	r3, [r7, #4]
 466:Core/Src/main.c ****   sConfigOC.OCPolarity = TIM_OCPOLARITY_HIGH;
 1216              		.loc 1 466 24
 1217 00b8 0023     		movs	r3, #0
 1218 00ba BB60     		str	r3, [r7, #8]
 467:Core/Src/main.c ****   sConfigOC.OCFastMode = TIM_OCFAST_DISABLE;
 1219              		.loc 1 467 24
 1220 00bc 0023     		movs	r3, #0
 1221 00be 3B61     		str	r3, [r7, #16]
 468:Core/Src/main.c ****   if (HAL_TIM_PWM_ConfigChannel(&htim3, &sConfigOC, TIM_CHANNEL_1) != HAL_OK)
 1222              		.loc 1 468 7
 1223 00c0 3B46     		mov	r3, r7
 1224 00c2 0022     		movs	r2, #0
 1225 00c4 1946     		mov	r1, r3
 1226 00c6 1248     		ldr	r0, .L61
 1227 00c8 FFF7FEFF 		bl	HAL_TIM_PWM_ConfigChannel
 1228 00cc 0346     		mov	r3, r0
 1229              		.loc 1 468 6
 1230 00ce 002B     		cmp	r3, #0
 1231 00d0 01D0     		beq	.L58
 469:Core/Src/main.c ****   {
 470:Core/Src/main.c ****     Error_Handler();
 1232              		.loc 1 470 5
 1233 00d2 FFF7FEFF 		bl	Error_Handler
 1234              	.L58:
 471:Core/Src/main.c ****   }
 472:Core/Src/main.c ****   if (HAL_TIM_PWM_ConfigChannel(&htim3, &sConfigOC, TIM_CHANNEL_2) != HAL_OK)
ARM GAS  C:\Users\Morroway\AppData\Local\Temp\ccDRKoO5.s 			page 31


 1235              		.loc 1 472 7
 1236 00d6 3B46     		mov	r3, r7
 1237 00d8 0422     		movs	r2, #4
 1238 00da 1946     		mov	r1, r3
 1239 00dc 0C48     		ldr	r0, .L61
 1240 00de FFF7FEFF 		bl	HAL_TIM_PWM_ConfigChannel
 1241 00e2 0346     		mov	r3, r0
 1242              		.loc 1 472 6
 1243 00e4 002B     		cmp	r3, #0
 1244 00e6 01D0     		beq	.L59
 473:Core/Src/main.c ****   {
 474:Core/Src/main.c ****     Error_Handler();
 1245              		.loc 1 474 5
 1246 00e8 FFF7FEFF 		bl	Error_Handler
 1247              	.L59:
 475:Core/Src/main.c ****   }
 476:Core/Src/main.c ****   if (HAL_TIM_PWM_ConfigChannel(&htim3, &sConfigOC, TIM_CHANNEL_3) != HAL_OK)
 1248              		.loc 1 476 7
 1249 00ec 3B46     		mov	r3, r7
 1250 00ee 0822     		movs	r2, #8
 1251 00f0 1946     		mov	r1, r3
 1252 00f2 0748     		ldr	r0, .L61
 1253 00f4 FFF7FEFF 		bl	HAL_TIM_PWM_ConfigChannel
 1254 00f8 0346     		mov	r3, r0
 1255              		.loc 1 476 6
 1256 00fa 002B     		cmp	r3, #0
 1257 00fc 01D0     		beq	.L60
 477:Core/Src/main.c ****   {
 478:Core/Src/main.c ****     Error_Handler();
 1258              		.loc 1 478 5
 1259 00fe FFF7FEFF 		bl	Error_Handler
 1260              	.L60:
 479:Core/Src/main.c ****   }
 480:Core/Src/main.c ****   /* USER CODE BEGIN TIM3_Init 2 */
 481:Core/Src/main.c **** 
 482:Core/Src/main.c ****   /* USER CODE END TIM3_Init 2 */
 483:Core/Src/main.c ****   HAL_TIM_MspPostInit(&htim3);
 1261              		.loc 1 483 3
 1262 0102 0348     		ldr	r0, .L61
 1263 0104 FFF7FEFF 		bl	HAL_TIM_MspPostInit
 484:Core/Src/main.c **** 
 485:Core/Src/main.c **** }
 1264              		.loc 1 485 1
 1265 0108 00BF     		nop
 1266 010a 3837     		adds	r7, r7, #56
 1267              		.cfi_def_cfa_offset 8
 1268 010c BD46     		mov	sp, r7
 1269              		.cfi_def_cfa_register 13
 1270              		@ sp needed
 1271 010e 80BD     		pop	{r7, pc}
 1272              	.L62:
 1273              		.align	2
 1274              	.L61:
 1275 0110 00000000 		.word	htim3
 1276 0114 00040040 		.word	1073742848
 1277              		.cfi_endproc
 1278              	.LFE334:
ARM GAS  C:\Users\Morroway\AppData\Local\Temp\ccDRKoO5.s 			page 32


 1280              		.section	.text.MX_TIM4_Init,"ax",%progbits
 1281              		.align	1
 1282              		.syntax unified
 1283              		.thumb
 1284              		.thumb_func
 1286              	MX_TIM4_Init:
 1287              	.LFB335:
 486:Core/Src/main.c **** 
 487:Core/Src/main.c **** /**
 488:Core/Src/main.c ****   * @brief TIM4 Initialization Function
 489:Core/Src/main.c ****   * @param None
 490:Core/Src/main.c ****   * @retval None
 491:Core/Src/main.c ****   */
 492:Core/Src/main.c **** static void MX_TIM4_Init(void)
 493:Core/Src/main.c **** {
 1288              		.loc 1 493 1
 1289              		.cfi_startproc
 1290              		@ args = 0, pretend = 0, frame = 32
 1291              		@ frame_needed = 1, uses_anonymous_args = 0
 1292 0000 80B5     		push	{r7, lr}
 1293              		.cfi_def_cfa_offset 8
 1294              		.cfi_offset 7, -8
 1295              		.cfi_offset 14, -4
 1296 0002 88B0     		sub	sp, sp, #32
 1297              		.cfi_def_cfa_offset 40
 1298 0004 00AF     		add	r7, sp, #0
 1299              		.cfi_def_cfa_register 7
 494:Core/Src/main.c **** 
 495:Core/Src/main.c ****   /* USER CODE BEGIN TIM4_Init 0 */
 496:Core/Src/main.c **** 
 497:Core/Src/main.c ****   /* USER CODE END TIM4_Init 0 */
 498:Core/Src/main.c **** 
 499:Core/Src/main.c ****   TIM_ClockConfigTypeDef sClockSourceConfig = {0};
 1300              		.loc 1 499 26
 1301 0006 07F11003 		add	r3, r7, #16
 1302 000a 0022     		movs	r2, #0
 1303 000c 1A60     		str	r2, [r3]
 1304 000e 5A60     		str	r2, [r3, #4]
 1305 0010 9A60     		str	r2, [r3, #8]
 1306 0012 DA60     		str	r2, [r3, #12]
 500:Core/Src/main.c ****   TIM_MasterConfigTypeDef sMasterConfig = {0};
 1307              		.loc 1 500 27
 1308 0014 3B1D     		adds	r3, r7, #4
 1309 0016 0022     		movs	r2, #0
 1310 0018 1A60     		str	r2, [r3]
 1311 001a 5A60     		str	r2, [r3, #4]
 1312 001c 9A60     		str	r2, [r3, #8]
 501:Core/Src/main.c **** 
 502:Core/Src/main.c ****   /* USER CODE BEGIN TIM4_Init 1 */
 503:Core/Src/main.c **** 
 504:Core/Src/main.c ****   /* USER CODE END TIM4_Init 1 */
 505:Core/Src/main.c ****   htim4.Instance = TIM4;
 1313              		.loc 1 505 18
 1314 001e 1D4B     		ldr	r3, .L68
 1315 0020 1D4A     		ldr	r2, .L68+4
 1316 0022 1A60     		str	r2, [r3]
 506:Core/Src/main.c ****   htim4.Init.Prescaler = 119;
ARM GAS  C:\Users\Morroway\AppData\Local\Temp\ccDRKoO5.s 			page 33


 1317              		.loc 1 506 24
 1318 0024 1B4B     		ldr	r3, .L68
 1319 0026 7722     		movs	r2, #119
 1320 0028 5A60     		str	r2, [r3, #4]
 507:Core/Src/main.c ****   htim4.Init.CounterMode = TIM_COUNTERMODE_UP;
 1321              		.loc 1 507 26
 1322 002a 1A4B     		ldr	r3, .L68
 1323 002c 0022     		movs	r2, #0
 1324 002e 9A60     		str	r2, [r3, #8]
 508:Core/Src/main.c ****   htim4.Init.Period = 65535;
 1325              		.loc 1 508 21
 1326 0030 184B     		ldr	r3, .L68
 1327 0032 4FF6FF72 		movw	r2, #65535
 1328 0036 DA60     		str	r2, [r3, #12]
 509:Core/Src/main.c ****   htim4.Init.ClockDivision = TIM_CLOCKDIVISION_DIV1;
 1329              		.loc 1 509 28
 1330 0038 164B     		ldr	r3, .L68
 1331 003a 0022     		movs	r2, #0
 1332 003c 1A61     		str	r2, [r3, #16]
 510:Core/Src/main.c ****   htim4.Init.AutoReloadPreload = TIM_AUTORELOAD_PRELOAD_DISABLE;
 1333              		.loc 1 510 32
 1334 003e 154B     		ldr	r3, .L68
 1335 0040 0022     		movs	r2, #0
 1336 0042 9A61     		str	r2, [r3, #24]
 511:Core/Src/main.c ****   if (HAL_TIM_Base_Init(&htim4) != HAL_OK)
 1337              		.loc 1 511 7
 1338 0044 1348     		ldr	r0, .L68
 1339 0046 FFF7FEFF 		bl	HAL_TIM_Base_Init
 1340 004a 0346     		mov	r3, r0
 1341              		.loc 1 511 6
 1342 004c 002B     		cmp	r3, #0
 1343 004e 01D0     		beq	.L64
 512:Core/Src/main.c ****   {
 513:Core/Src/main.c ****     Error_Handler();
 1344              		.loc 1 513 5
 1345 0050 FFF7FEFF 		bl	Error_Handler
 1346              	.L64:
 514:Core/Src/main.c ****   }
 515:Core/Src/main.c ****   sClockSourceConfig.ClockSource = TIM_CLOCKSOURCE_INTERNAL;
 1347              		.loc 1 515 34
 1348 0054 4FF48053 		mov	r3, #4096
 1349 0058 3B61     		str	r3, [r7, #16]
 516:Core/Src/main.c ****   if (HAL_TIM_ConfigClockSource(&htim4, &sClockSourceConfig) != HAL_OK)
 1350              		.loc 1 516 7
 1351 005a 07F11003 		add	r3, r7, #16
 1352 005e 1946     		mov	r1, r3
 1353 0060 0C48     		ldr	r0, .L68
 1354 0062 FFF7FEFF 		bl	HAL_TIM_ConfigClockSource
 1355 0066 0346     		mov	r3, r0
 1356              		.loc 1 516 6
 1357 0068 002B     		cmp	r3, #0
 1358 006a 01D0     		beq	.L65
 517:Core/Src/main.c ****   {
 518:Core/Src/main.c ****     Error_Handler();
 1359              		.loc 1 518 5
 1360 006c FFF7FEFF 		bl	Error_Handler
 1361              	.L65:
ARM GAS  C:\Users\Morroway\AppData\Local\Temp\ccDRKoO5.s 			page 34


 519:Core/Src/main.c ****   }
 520:Core/Src/main.c ****   sMasterConfig.MasterOutputTrigger = TIM_TRGO_RESET;
 1362              		.loc 1 520 37
 1363 0070 0023     		movs	r3, #0
 1364 0072 7B60     		str	r3, [r7, #4]
 521:Core/Src/main.c ****   sMasterConfig.MasterSlaveMode = TIM_MASTERSLAVEMODE_DISABLE;
 1365              		.loc 1 521 33
 1366 0074 0023     		movs	r3, #0
 1367 0076 FB60     		str	r3, [r7, #12]
 522:Core/Src/main.c ****   if (HAL_TIMEx_MasterConfigSynchronization(&htim4, &sMasterConfig) != HAL_OK)
 1368              		.loc 1 522 7
 1369 0078 3B1D     		adds	r3, r7, #4
 1370 007a 1946     		mov	r1, r3
 1371 007c 0548     		ldr	r0, .L68
 1372 007e FFF7FEFF 		bl	HAL_TIMEx_MasterConfigSynchronization
 1373 0082 0346     		mov	r3, r0
 1374              		.loc 1 522 6
 1375 0084 002B     		cmp	r3, #0
 1376 0086 01D0     		beq	.L67
 523:Core/Src/main.c ****   {
 524:Core/Src/main.c ****     Error_Handler();
 1377              		.loc 1 524 5
 1378 0088 FFF7FEFF 		bl	Error_Handler
 1379              	.L67:
 525:Core/Src/main.c ****   }
 526:Core/Src/main.c ****   /* USER CODE BEGIN TIM4_Init 2 */
 527:Core/Src/main.c **** 
 528:Core/Src/main.c ****   /* USER CODE END TIM4_Init 2 */
 529:Core/Src/main.c **** 
 530:Core/Src/main.c **** }
 1380              		.loc 1 530 1
 1381 008c 00BF     		nop
 1382 008e 2037     		adds	r7, r7, #32
 1383              		.cfi_def_cfa_offset 8
 1384 0090 BD46     		mov	sp, r7
 1385              		.cfi_def_cfa_register 13
 1386              		@ sp needed
 1387 0092 80BD     		pop	{r7, pc}
 1388              	.L69:
 1389              		.align	2
 1390              	.L68:
 1391 0094 00000000 		.word	htim4
 1392 0098 00080040 		.word	1073743872
 1393              		.cfi_endproc
 1394              	.LFE335:
 1396              		.section	.text.MX_TIM5_Init,"ax",%progbits
 1397              		.align	1
 1398              		.syntax unified
 1399              		.thumb
 1400              		.thumb_func
 1402              	MX_TIM5_Init:
 1403              	.LFB336:
 531:Core/Src/main.c **** 
 532:Core/Src/main.c **** /**
 533:Core/Src/main.c ****   * @brief TIM5 Initialization Function
 534:Core/Src/main.c ****   * @param None
 535:Core/Src/main.c ****   * @retval None
ARM GAS  C:\Users\Morroway\AppData\Local\Temp\ccDRKoO5.s 			page 35


 536:Core/Src/main.c ****   */
 537:Core/Src/main.c **** static void MX_TIM5_Init(void)
 538:Core/Src/main.c **** {
 1404              		.loc 1 538 1
 1405              		.cfi_startproc
 1406              		@ args = 0, pretend = 0, frame = 32
 1407              		@ frame_needed = 1, uses_anonymous_args = 0
 1408 0000 80B5     		push	{r7, lr}
 1409              		.cfi_def_cfa_offset 8
 1410              		.cfi_offset 7, -8
 1411              		.cfi_offset 14, -4
 1412 0002 88B0     		sub	sp, sp, #32
 1413              		.cfi_def_cfa_offset 40
 1414 0004 00AF     		add	r7, sp, #0
 1415              		.cfi_def_cfa_register 7
 539:Core/Src/main.c **** 
 540:Core/Src/main.c ****   /* USER CODE BEGIN TIM5_Init 0 */
 541:Core/Src/main.c **** 
 542:Core/Src/main.c ****   /* USER CODE END TIM5_Init 0 */
 543:Core/Src/main.c **** 
 544:Core/Src/main.c ****   TIM_ClockConfigTypeDef sClockSourceConfig = {0};
 1416              		.loc 1 544 26
 1417 0006 07F11003 		add	r3, r7, #16
 1418 000a 0022     		movs	r2, #0
 1419 000c 1A60     		str	r2, [r3]
 1420 000e 5A60     		str	r2, [r3, #4]
 1421 0010 9A60     		str	r2, [r3, #8]
 1422 0012 DA60     		str	r2, [r3, #12]
 545:Core/Src/main.c ****   TIM_MasterConfigTypeDef sMasterConfig = {0};
 1423              		.loc 1 545 27
 1424 0014 3B1D     		adds	r3, r7, #4
 1425 0016 0022     		movs	r2, #0
 1426 0018 1A60     		str	r2, [r3]
 1427 001a 5A60     		str	r2, [r3, #4]
 1428 001c 9A60     		str	r2, [r3, #8]
 546:Core/Src/main.c **** 
 547:Core/Src/main.c ****   /* USER CODE BEGIN TIM5_Init 1 */
 548:Core/Src/main.c **** 
 549:Core/Src/main.c ****   /* USER CODE END TIM5_Init 1 */
 550:Core/Src/main.c ****   htim5.Instance = TIM5;
 1429              		.loc 1 550 18
 1430 001e 1D4B     		ldr	r3, .L75
 1431 0020 1D4A     		ldr	r2, .L75+4
 1432 0022 1A60     		str	r2, [r3]
 551:Core/Src/main.c ****   htim5.Init.Prescaler = 119;
 1433              		.loc 1 551 24
 1434 0024 1B4B     		ldr	r3, .L75
 1435 0026 7722     		movs	r2, #119
 1436 0028 5A60     		str	r2, [r3, #4]
 552:Core/Src/main.c ****   htim5.Init.CounterMode = TIM_COUNTERMODE_UP;
 1437              		.loc 1 552 26
 1438 002a 1A4B     		ldr	r3, .L75
 1439 002c 0022     		movs	r2, #0
 1440 002e 9A60     		str	r2, [r3, #8]
 553:Core/Src/main.c ****   htim5.Init.Period = 4294967295;
 1441              		.loc 1 553 21
 1442 0030 184B     		ldr	r3, .L75
ARM GAS  C:\Users\Morroway\AppData\Local\Temp\ccDRKoO5.s 			page 36


 1443 0032 4FF0FF32 		mov	r2, #-1
 1444 0036 DA60     		str	r2, [r3, #12]
 554:Core/Src/main.c ****   htim5.Init.ClockDivision = TIM_CLOCKDIVISION_DIV1;
 1445              		.loc 1 554 28
 1446 0038 164B     		ldr	r3, .L75
 1447 003a 0022     		movs	r2, #0
 1448 003c 1A61     		str	r2, [r3, #16]
 555:Core/Src/main.c ****   htim5.Init.AutoReloadPreload = TIM_AUTORELOAD_PRELOAD_DISABLE;
 1449              		.loc 1 555 32
 1450 003e 154B     		ldr	r3, .L75
 1451 0040 0022     		movs	r2, #0
 1452 0042 9A61     		str	r2, [r3, #24]
 556:Core/Src/main.c ****   if (HAL_TIM_Base_Init(&htim5) != HAL_OK)
 1453              		.loc 1 556 7
 1454 0044 1348     		ldr	r0, .L75
 1455 0046 FFF7FEFF 		bl	HAL_TIM_Base_Init
 1456 004a 0346     		mov	r3, r0
 1457              		.loc 1 556 6
 1458 004c 002B     		cmp	r3, #0
 1459 004e 01D0     		beq	.L71
 557:Core/Src/main.c ****   {
 558:Core/Src/main.c ****     Error_Handler();
 1460              		.loc 1 558 5
 1461 0050 FFF7FEFF 		bl	Error_Handler
 1462              	.L71:
 559:Core/Src/main.c ****   }
 560:Core/Src/main.c ****   sClockSourceConfig.ClockSource = TIM_CLOCKSOURCE_INTERNAL;
 1463              		.loc 1 560 34
 1464 0054 4FF48053 		mov	r3, #4096
 1465 0058 3B61     		str	r3, [r7, #16]
 561:Core/Src/main.c ****   if (HAL_TIM_ConfigClockSource(&htim5, &sClockSourceConfig) != HAL_OK)
 1466              		.loc 1 561 7
 1467 005a 07F11003 		add	r3, r7, #16
 1468 005e 1946     		mov	r1, r3
 1469 0060 0C48     		ldr	r0, .L75
 1470 0062 FFF7FEFF 		bl	HAL_TIM_ConfigClockSource
 1471 0066 0346     		mov	r3, r0
 1472              		.loc 1 561 6
 1473 0068 002B     		cmp	r3, #0
 1474 006a 01D0     		beq	.L72
 562:Core/Src/main.c ****   {
 563:Core/Src/main.c ****     Error_Handler();
 1475              		.loc 1 563 5
 1476 006c FFF7FEFF 		bl	Error_Handler
 1477              	.L72:
 564:Core/Src/main.c ****   }
 565:Core/Src/main.c ****   sMasterConfig.MasterOutputTrigger = TIM_TRGO_RESET;
 1478              		.loc 1 565 37
 1479 0070 0023     		movs	r3, #0
 1480 0072 7B60     		str	r3, [r7, #4]
 566:Core/Src/main.c ****   sMasterConfig.MasterSlaveMode = TIM_MASTERSLAVEMODE_DISABLE;
 1481              		.loc 1 566 33
 1482 0074 0023     		movs	r3, #0
 1483 0076 FB60     		str	r3, [r7, #12]
 567:Core/Src/main.c ****   if (HAL_TIMEx_MasterConfigSynchronization(&htim5, &sMasterConfig) != HAL_OK)
 1484              		.loc 1 567 7
 1485 0078 3B1D     		adds	r3, r7, #4
ARM GAS  C:\Users\Morroway\AppData\Local\Temp\ccDRKoO5.s 			page 37


 1486 007a 1946     		mov	r1, r3
 1487 007c 0548     		ldr	r0, .L75
 1488 007e FFF7FEFF 		bl	HAL_TIMEx_MasterConfigSynchronization
 1489 0082 0346     		mov	r3, r0
 1490              		.loc 1 567 6
 1491 0084 002B     		cmp	r3, #0
 1492 0086 01D0     		beq	.L74
 568:Core/Src/main.c ****   {
 569:Core/Src/main.c ****     Error_Handler();
 1493              		.loc 1 569 5
 1494 0088 FFF7FEFF 		bl	Error_Handler
 1495              	.L74:
 570:Core/Src/main.c ****   }
 571:Core/Src/main.c ****   /* USER CODE BEGIN TIM5_Init 2 */
 572:Core/Src/main.c **** 
 573:Core/Src/main.c ****   /* USER CODE END TIM5_Init 2 */
 574:Core/Src/main.c **** 
 575:Core/Src/main.c **** }
 1496              		.loc 1 575 1
 1497 008c 00BF     		nop
 1498 008e 2037     		adds	r7, r7, #32
 1499              		.cfi_def_cfa_offset 8
 1500 0090 BD46     		mov	sp, r7
 1501              		.cfi_def_cfa_register 13
 1502              		@ sp needed
 1503 0092 80BD     		pop	{r7, pc}
 1504              	.L76:
 1505              		.align	2
 1506              	.L75:
 1507 0094 00000000 		.word	htim5
 1508 0098 000C0040 		.word	1073744896
 1509              		.cfi_endproc
 1510              	.LFE336:
 1512              		.section	.text.MX_USB_OTG_FS_PCD_Init,"ax",%progbits
 1513              		.align	1
 1514              		.syntax unified
 1515              		.thumb
 1516              		.thumb_func
 1518              	MX_USB_OTG_FS_PCD_Init:
 1519              	.LFB337:
 576:Core/Src/main.c **** 
 577:Core/Src/main.c **** /**
 578:Core/Src/main.c ****   * @brief USB_OTG_FS Initialization Function
 579:Core/Src/main.c ****   * @param None
 580:Core/Src/main.c ****   * @retval None
 581:Core/Src/main.c ****   */
 582:Core/Src/main.c **** static void MX_USB_OTG_FS_PCD_Init(void)
 583:Core/Src/main.c **** {
 1520              		.loc 1 583 1
 1521              		.cfi_startproc
 1522              		@ args = 0, pretend = 0, frame = 0
 1523              		@ frame_needed = 1, uses_anonymous_args = 0
 1524 0000 80B5     		push	{r7, lr}
 1525              		.cfi_def_cfa_offset 8
 1526              		.cfi_offset 7, -8
 1527              		.cfi_offset 14, -4
 1528 0002 00AF     		add	r7, sp, #0
ARM GAS  C:\Users\Morroway\AppData\Local\Temp\ccDRKoO5.s 			page 38


 1529              		.cfi_def_cfa_register 7
 584:Core/Src/main.c **** 
 585:Core/Src/main.c ****   /* USER CODE BEGIN USB_OTG_FS_Init 0 */
 586:Core/Src/main.c **** 
 587:Core/Src/main.c ****   /* USER CODE END USB_OTG_FS_Init 0 */
 588:Core/Src/main.c **** 
 589:Core/Src/main.c ****   /* USER CODE BEGIN USB_OTG_FS_Init 1 */
 590:Core/Src/main.c **** 
 591:Core/Src/main.c ****   /* USER CODE END USB_OTG_FS_Init 1 */
 592:Core/Src/main.c ****   hpcd_USB_OTG_FS.Instance = USB_OTG_FS;
 1530              		.loc 1 592 28
 1531 0004 124B     		ldr	r3, .L80
 1532 0006 4FF0A042 		mov	r2, #1342177280
 1533 000a 1A60     		str	r2, [r3]
 593:Core/Src/main.c ****   hpcd_USB_OTG_FS.Init.dev_endpoints = 6;
 1534              		.loc 1 593 38
 1535 000c 104B     		ldr	r3, .L80
 1536 000e 0622     		movs	r2, #6
 1537 0010 5A60     		str	r2, [r3, #4]
 594:Core/Src/main.c ****   hpcd_USB_OTG_FS.Init.phy_itface = PCD_PHY_EMBEDDED;
 1538              		.loc 1 594 35
 1539 0012 0F4B     		ldr	r3, .L80
 1540 0014 0222     		movs	r2, #2
 1541 0016 9A61     		str	r2, [r3, #24]
 595:Core/Src/main.c ****   hpcd_USB_OTG_FS.Init.Sof_enable = ENABLE;
 1542              		.loc 1 595 35
 1543 0018 0D4B     		ldr	r3, .L80
 1544 001a 0122     		movs	r2, #1
 1545 001c DA61     		str	r2, [r3, #28]
 596:Core/Src/main.c ****   hpcd_USB_OTG_FS.Init.low_power_enable = DISABLE;
 1546              		.loc 1 596 41
 1547 001e 0C4B     		ldr	r3, .L80
 1548 0020 0022     		movs	r2, #0
 1549 0022 1A62     		str	r2, [r3, #32]
 597:Core/Src/main.c ****   hpcd_USB_OTG_FS.Init.lpm_enable = DISABLE;
 1550              		.loc 1 597 35
 1551 0024 0A4B     		ldr	r3, .L80
 1552 0026 0022     		movs	r2, #0
 1553 0028 5A62     		str	r2, [r3, #36]
 598:Core/Src/main.c ****   hpcd_USB_OTG_FS.Init.battery_charging_enable = ENABLE;
 1554              		.loc 1 598 48
 1555 002a 094B     		ldr	r3, .L80
 1556 002c 0122     		movs	r2, #1
 1557 002e 9A62     		str	r2, [r3, #40]
 599:Core/Src/main.c ****   hpcd_USB_OTG_FS.Init.use_dedicated_ep1 = DISABLE;
 1558              		.loc 1 599 42
 1559 0030 074B     		ldr	r3, .L80
 1560 0032 0022     		movs	r2, #0
 1561 0034 1A63     		str	r2, [r3, #48]
 600:Core/Src/main.c ****   hpcd_USB_OTG_FS.Init.vbus_sensing_enable = ENABLE;
 1562              		.loc 1 600 44
 1563 0036 064B     		ldr	r3, .L80
 1564 0038 0122     		movs	r2, #1
 1565 003a DA62     		str	r2, [r3, #44]
 601:Core/Src/main.c ****   if (HAL_PCD_Init(&hpcd_USB_OTG_FS) != HAL_OK)
 1566              		.loc 1 601 7
 1567 003c 0448     		ldr	r0, .L80
ARM GAS  C:\Users\Morroway\AppData\Local\Temp\ccDRKoO5.s 			page 39


 1568 003e FFF7FEFF 		bl	HAL_PCD_Init
 1569 0042 0346     		mov	r3, r0
 1570              		.loc 1 601 6
 1571 0044 002B     		cmp	r3, #0
 1572 0046 01D0     		beq	.L79
 602:Core/Src/main.c ****   {
 603:Core/Src/main.c ****     Error_Handler();
 1573              		.loc 1 603 5
 1574 0048 FFF7FEFF 		bl	Error_Handler
 1575              	.L79:
 604:Core/Src/main.c ****   }
 605:Core/Src/main.c ****   /* USER CODE BEGIN USB_OTG_FS_Init 2 */
 606:Core/Src/main.c **** 
 607:Core/Src/main.c ****   /* USER CODE END USB_OTG_FS_Init 2 */
 608:Core/Src/main.c **** 
 609:Core/Src/main.c **** }
 1576              		.loc 1 609 1
 1577 004c 00BF     		nop
 1578 004e 80BD     		pop	{r7, pc}
 1579              	.L81:
 1580              		.align	2
 1581              	.L80:
 1582 0050 00000000 		.word	hpcd_USB_OTG_FS
 1583              		.cfi_endproc
 1584              	.LFE337:
 1586              		.section	.text.MX_DMA_Init,"ax",%progbits
 1587              		.align	1
 1588              		.syntax unified
 1589              		.thumb
 1590              		.thumb_func
 1592              	MX_DMA_Init:
 1593              	.LFB338:
 610:Core/Src/main.c **** 
 611:Core/Src/main.c **** /**
 612:Core/Src/main.c ****   * Enable DMA controller clock
 613:Core/Src/main.c ****   */
 614:Core/Src/main.c **** static void MX_DMA_Init(void)
 615:Core/Src/main.c **** {
 1594              		.loc 1 615 1
 1595              		.cfi_startproc
 1596              		@ args = 0, pretend = 0, frame = 8
 1597              		@ frame_needed = 1, uses_anonymous_args = 0
 1598 0000 80B5     		push	{r7, lr}
 1599              		.cfi_def_cfa_offset 8
 1600              		.cfi_offset 7, -8
 1601              		.cfi_offset 14, -4
 1602 0002 82B0     		sub	sp, sp, #8
 1603              		.cfi_def_cfa_offset 16
 1604 0004 00AF     		add	r7, sp, #0
 1605              		.cfi_def_cfa_register 7
 1606              	.LBB4:
 616:Core/Src/main.c **** 
 617:Core/Src/main.c ****   /* DMA controller clock enable */
 618:Core/Src/main.c ****   __HAL_RCC_DMAMUX1_CLK_ENABLE();
 1607              		.loc 1 618 3
 1608 0006 164B     		ldr	r3, .L83
 1609 0008 9B6C     		ldr	r3, [r3, #72]
ARM GAS  C:\Users\Morroway\AppData\Local\Temp\ccDRKoO5.s 			page 40


 1610 000a 154A     		ldr	r2, .L83
 1611 000c 43F00403 		orr	r3, r3, #4
 1612 0010 9364     		str	r3, [r2, #72]
 1613 0012 134B     		ldr	r3, .L83
 1614 0014 9B6C     		ldr	r3, [r3, #72]
 1615 0016 03F00403 		and	r3, r3, #4
 1616 001a 7B60     		str	r3, [r7, #4]
 1617 001c 7B68     		ldr	r3, [r7, #4]
 1618              	.LBE4:
 1619              	.LBB5:
 619:Core/Src/main.c ****   __HAL_RCC_DMA1_CLK_ENABLE();
 1620              		.loc 1 619 3
 1621 001e 104B     		ldr	r3, .L83
 1622 0020 9B6C     		ldr	r3, [r3, #72]
 1623 0022 0F4A     		ldr	r2, .L83
 1624 0024 43F00103 		orr	r3, r3, #1
 1625 0028 9364     		str	r3, [r2, #72]
 1626 002a 0D4B     		ldr	r3, .L83
 1627 002c 9B6C     		ldr	r3, [r3, #72]
 1628 002e 03F00103 		and	r3, r3, #1
 1629 0032 3B60     		str	r3, [r7]
 1630 0034 3B68     		ldr	r3, [r7]
 1631              	.LBE5:
 620:Core/Src/main.c **** 
 621:Core/Src/main.c ****   /* DMA interrupt init */
 622:Core/Src/main.c ****   /* DMA1_Channel1_IRQn interrupt configuration */
 623:Core/Src/main.c ****   HAL_NVIC_SetPriority(DMA1_Channel1_IRQn, 0, 0);
 1632              		.loc 1 623 3
 1633 0036 0022     		movs	r2, #0
 1634 0038 0021     		movs	r1, #0
 1635 003a 0B20     		movs	r0, #11
 1636 003c FFF7FEFF 		bl	HAL_NVIC_SetPriority
 624:Core/Src/main.c ****   HAL_NVIC_EnableIRQ(DMA1_Channel1_IRQn);
 1637              		.loc 1 624 3
 1638 0040 0B20     		movs	r0, #11
 1639 0042 FFF7FEFF 		bl	HAL_NVIC_EnableIRQ
 625:Core/Src/main.c ****   /* DMA1_Channel2_IRQn interrupt configuration */
 626:Core/Src/main.c ****   HAL_NVIC_SetPriority(DMA1_Channel2_IRQn, 0, 0);
 1640              		.loc 1 626 3
 1641 0046 0022     		movs	r2, #0
 1642 0048 0021     		movs	r1, #0
 1643 004a 0C20     		movs	r0, #12
 1644 004c FFF7FEFF 		bl	HAL_NVIC_SetPriority
 627:Core/Src/main.c ****   HAL_NVIC_EnableIRQ(DMA1_Channel2_IRQn);
 1645              		.loc 1 627 3
 1646 0050 0C20     		movs	r0, #12
 1647 0052 FFF7FEFF 		bl	HAL_NVIC_EnableIRQ
 628:Core/Src/main.c **** 
 629:Core/Src/main.c **** }
 1648              		.loc 1 629 1
 1649 0056 00BF     		nop
 1650 0058 0837     		adds	r7, r7, #8
 1651              		.cfi_def_cfa_offset 8
 1652 005a BD46     		mov	sp, r7
 1653              		.cfi_def_cfa_register 13
 1654              		@ sp needed
 1655 005c 80BD     		pop	{r7, pc}
ARM GAS  C:\Users\Morroway\AppData\Local\Temp\ccDRKoO5.s 			page 41


 1656              	.L84:
 1657 005e 00BF     		.align	2
 1658              	.L83:
 1659 0060 00100240 		.word	1073876992
 1660              		.cfi_endproc
 1661              	.LFE338:
 1663              		.section	.text.MX_GPIO_Init,"ax",%progbits
 1664              		.align	1
 1665              		.syntax unified
 1666              		.thumb
 1667              		.thumb_func
 1669              	MX_GPIO_Init:
 1670              	.LFB339:
 630:Core/Src/main.c **** 
 631:Core/Src/main.c **** /**
 632:Core/Src/main.c ****   * @brief GPIO Initialization Function
 633:Core/Src/main.c ****   * @param None
 634:Core/Src/main.c ****   * @retval None
 635:Core/Src/main.c ****   */
 636:Core/Src/main.c **** static void MX_GPIO_Init(void)
 637:Core/Src/main.c **** {
 1671              		.loc 1 637 1
 1672              		.cfi_startproc
 1673              		@ args = 0, pretend = 0, frame = 48
 1674              		@ frame_needed = 1, uses_anonymous_args = 0
 1675 0000 80B5     		push	{r7, lr}
 1676              		.cfi_def_cfa_offset 8
 1677              		.cfi_offset 7, -8
 1678              		.cfi_offset 14, -4
 1679 0002 8CB0     		sub	sp, sp, #48
 1680              		.cfi_def_cfa_offset 56
 1681 0004 00AF     		add	r7, sp, #0
 1682              		.cfi_def_cfa_register 7
 638:Core/Src/main.c ****   GPIO_InitTypeDef GPIO_InitStruct = {0};
 1683              		.loc 1 638 20
 1684 0006 07F11C03 		add	r3, r7, #28
 1685 000a 0022     		movs	r2, #0
 1686 000c 1A60     		str	r2, [r3]
 1687 000e 5A60     		str	r2, [r3, #4]
 1688 0010 9A60     		str	r2, [r3, #8]
 1689 0012 DA60     		str	r2, [r3, #12]
 1690 0014 1A61     		str	r2, [r3, #16]
 1691              	.LBB6:
 639:Core/Src/main.c **** 
 640:Core/Src/main.c ****   /* GPIO Ports Clock Enable */
 641:Core/Src/main.c ****   __HAL_RCC_GPIOE_CLK_ENABLE();
 1692              		.loc 1 641 3
 1693 0016 714B     		ldr	r3, .L86
 1694 0018 DB6C     		ldr	r3, [r3, #76]
 1695 001a 704A     		ldr	r2, .L86
 1696 001c 43F01003 		orr	r3, r3, #16
 1697 0020 D364     		str	r3, [r2, #76]
 1698 0022 6E4B     		ldr	r3, .L86
 1699 0024 DB6C     		ldr	r3, [r3, #76]
 1700 0026 03F01003 		and	r3, r3, #16
 1701 002a BB61     		str	r3, [r7, #24]
 1702 002c BB69     		ldr	r3, [r7, #24]
ARM GAS  C:\Users\Morroway\AppData\Local\Temp\ccDRKoO5.s 			page 42


 1703              	.LBE6:
 1704              	.LBB7:
 642:Core/Src/main.c ****   __HAL_RCC_GPIOC_CLK_ENABLE();
 1705              		.loc 1 642 3
 1706 002e 6B4B     		ldr	r3, .L86
 1707 0030 DB6C     		ldr	r3, [r3, #76]
 1708 0032 6A4A     		ldr	r2, .L86
 1709 0034 43F00403 		orr	r3, r3, #4
 1710 0038 D364     		str	r3, [r2, #76]
 1711 003a 684B     		ldr	r3, .L86
 1712 003c DB6C     		ldr	r3, [r3, #76]
 1713 003e 03F00403 		and	r3, r3, #4
 1714 0042 7B61     		str	r3, [r7, #20]
 1715 0044 7B69     		ldr	r3, [r7, #20]
 1716              	.LBE7:
 1717              	.LBB8:
 643:Core/Src/main.c ****   __HAL_RCC_GPIOF_CLK_ENABLE();
 1718              		.loc 1 643 3
 1719 0046 654B     		ldr	r3, .L86
 1720 0048 DB6C     		ldr	r3, [r3, #76]
 1721 004a 644A     		ldr	r2, .L86
 1722 004c 43F02003 		orr	r3, r3, #32
 1723 0050 D364     		str	r3, [r2, #76]
 1724 0052 624B     		ldr	r3, .L86
 1725 0054 DB6C     		ldr	r3, [r3, #76]
 1726 0056 03F02003 		and	r3, r3, #32
 1727 005a 3B61     		str	r3, [r7, #16]
 1728 005c 3B69     		ldr	r3, [r7, #16]
 1729              	.LBE8:
 1730              	.LBB9:
 644:Core/Src/main.c ****   __HAL_RCC_GPIOH_CLK_ENABLE();
 1731              		.loc 1 644 3
 1732 005e 5F4B     		ldr	r3, .L86
 1733 0060 DB6C     		ldr	r3, [r3, #76]
 1734 0062 5E4A     		ldr	r2, .L86
 1735 0064 43F08003 		orr	r3, r3, #128
 1736 0068 D364     		str	r3, [r2, #76]
 1737 006a 5C4B     		ldr	r3, .L86
 1738 006c DB6C     		ldr	r3, [r3, #76]
 1739 006e 03F08003 		and	r3, r3, #128
 1740 0072 FB60     		str	r3, [r7, #12]
 1741 0074 FB68     		ldr	r3, [r7, #12]
 1742              	.LBE9:
 1743              	.LBB10:
 645:Core/Src/main.c ****   __HAL_RCC_GPIOA_CLK_ENABLE();
 1744              		.loc 1 645 3
 1745 0076 594B     		ldr	r3, .L86
 1746 0078 DB6C     		ldr	r3, [r3, #76]
 1747 007a 584A     		ldr	r2, .L86
 1748 007c 43F00103 		orr	r3, r3, #1
 1749 0080 D364     		str	r3, [r2, #76]
 1750 0082 564B     		ldr	r3, .L86
 1751 0084 DB6C     		ldr	r3, [r3, #76]
 1752 0086 03F00103 		and	r3, r3, #1
 1753 008a BB60     		str	r3, [r7, #8]
 1754 008c BB68     		ldr	r3, [r7, #8]
 1755              	.LBE10:
ARM GAS  C:\Users\Morroway\AppData\Local\Temp\ccDRKoO5.s 			page 43


 1756              	.LBB11:
 646:Core/Src/main.c ****   __HAL_RCC_GPIOB_CLK_ENABLE();
 1757              		.loc 1 646 3
 1758 008e 534B     		ldr	r3, .L86
 1759 0090 DB6C     		ldr	r3, [r3, #76]
 1760 0092 524A     		ldr	r2, .L86
 1761 0094 43F00203 		orr	r3, r3, #2
 1762 0098 D364     		str	r3, [r2, #76]
 1763 009a 504B     		ldr	r3, .L86
 1764 009c DB6C     		ldr	r3, [r3, #76]
 1765 009e 03F00203 		and	r3, r3, #2
 1766 00a2 7B60     		str	r3, [r7, #4]
 1767 00a4 7B68     		ldr	r3, [r7, #4]
 1768              	.LBE11:
 1769              	.LBB12:
 647:Core/Src/main.c ****   __HAL_RCC_GPIOG_CLK_ENABLE();
 1770              		.loc 1 647 3
 1771 00a6 4D4B     		ldr	r3, .L86
 1772 00a8 DB6C     		ldr	r3, [r3, #76]
 1773 00aa 4C4A     		ldr	r2, .L86
 1774 00ac 43F04003 		orr	r3, r3, #64
 1775 00b0 D364     		str	r3, [r2, #76]
 1776 00b2 4A4B     		ldr	r3, .L86
 1777 00b4 DB6C     		ldr	r3, [r3, #76]
 1778 00b6 03F04003 		and	r3, r3, #64
 1779 00ba 3B60     		str	r3, [r7]
 1780 00bc 3B68     		ldr	r3, [r7]
 1781              	.LBE12:
 648:Core/Src/main.c ****   HAL_PWREx_EnableVddIO2();
 1782              		.loc 1 648 3
 1783 00be FFF7FEFF 		bl	HAL_PWREx_EnableVddIO2
 649:Core/Src/main.c **** 
 650:Core/Src/main.c ****   /*Configure GPIO pin Output Level */
 651:Core/Src/main.c ****   HAL_GPIO_WritePin(GPIOF, GPIO_PIN_3|GPIO_PIN_6|GPIO_PIN_7, GPIO_PIN_RESET);
 1784              		.loc 1 651 3
 1785 00c2 0022     		movs	r2, #0
 1786 00c4 C821     		movs	r1, #200
 1787 00c6 4648     		ldr	r0, .L86+4
 1788 00c8 FFF7FEFF 		bl	HAL_GPIO_WritePin
 652:Core/Src/main.c **** 
 653:Core/Src/main.c ****   /*Configure GPIO pin Output Level */
 654:Core/Src/main.c ****   HAL_GPIO_WritePin(GPIOA, GPIO_PIN_7, GPIO_PIN_RESET);
 1789              		.loc 1 654 3
 1790 00cc 0022     		movs	r2, #0
 1791 00ce 8021     		movs	r1, #128
 1792 00d0 4FF09040 		mov	r0, #1207959552
 1793 00d4 FFF7FEFF 		bl	HAL_GPIO_WritePin
 655:Core/Src/main.c **** 
 656:Core/Src/main.c ****   /*Configure GPIO pin Output Level */
 657:Core/Src/main.c ****   HAL_GPIO_WritePin(GPIOB, GPIO_PIN_0|GPIO_PIN_1|LD3_Pin|LD2_Pin, GPIO_PIN_RESET);
 1794              		.loc 1 657 3
 1795 00d8 0022     		movs	r2, #0
 1796 00da 44F28301 		movw	r1, #16515
 1797 00de 4148     		ldr	r0, .L86+8
 1798 00e0 FFF7FEFF 		bl	HAL_GPIO_WritePin
 658:Core/Src/main.c **** 
 659:Core/Src/main.c ****   /*Configure GPIO pin Output Level */
ARM GAS  C:\Users\Morroway\AppData\Local\Temp\ccDRKoO5.s 			page 44


 660:Core/Src/main.c ****   HAL_GPIO_WritePin(USB_PowerSwitchOn_GPIO_Port, USB_PowerSwitchOn_Pin, GPIO_PIN_RESET);
 1799              		.loc 1 660 3
 1800 00e4 0022     		movs	r2, #0
 1801 00e6 4021     		movs	r1, #64
 1802 00e8 3F48     		ldr	r0, .L86+12
 1803 00ea FFF7FEFF 		bl	HAL_GPIO_WritePin
 661:Core/Src/main.c **** 
 662:Core/Src/main.c ****   /*Configure GPIO pin Output Level */
 663:Core/Src/main.c ****   HAL_GPIO_WritePin(GPIOC, GPIO_PIN_6, GPIO_PIN_RESET);
 1804              		.loc 1 663 3
 1805 00ee 0022     		movs	r2, #0
 1806 00f0 4021     		movs	r1, #64
 1807 00f2 3E48     		ldr	r0, .L86+16
 1808 00f4 FFF7FEFF 		bl	HAL_GPIO_WritePin
 664:Core/Src/main.c **** 
 665:Core/Src/main.c ****   /*Configure GPIO pin : B1_Pin */
 666:Core/Src/main.c ****   GPIO_InitStruct.Pin = B1_Pin;
 1809              		.loc 1 666 23
 1810 00f8 4FF40053 		mov	r3, #8192
 1811 00fc FB61     		str	r3, [r7, #28]
 667:Core/Src/main.c ****   GPIO_InitStruct.Mode = GPIO_MODE_IT_RISING;
 1812              		.loc 1 667 24
 1813 00fe 4FF48813 		mov	r3, #1114112
 1814 0102 3B62     		str	r3, [r7, #32]
 668:Core/Src/main.c ****   GPIO_InitStruct.Pull = GPIO_NOPULL;
 1815              		.loc 1 668 24
 1816 0104 0023     		movs	r3, #0
 1817 0106 7B62     		str	r3, [r7, #36]
 669:Core/Src/main.c ****   HAL_GPIO_Init(B1_GPIO_Port, &GPIO_InitStruct);
 1818              		.loc 1 669 3
 1819 0108 07F11C03 		add	r3, r7, #28
 1820 010c 1946     		mov	r1, r3
 1821 010e 3748     		ldr	r0, .L86+16
 1822 0110 FFF7FEFF 		bl	HAL_GPIO_Init
 670:Core/Src/main.c **** 
 671:Core/Src/main.c ****   /*Configure GPIO pin : PF0 */
 672:Core/Src/main.c ****   GPIO_InitStruct.Pin = GPIO_PIN_0;
 1823              		.loc 1 672 23
 1824 0114 0123     		movs	r3, #1
 1825 0116 FB61     		str	r3, [r7, #28]
 673:Core/Src/main.c ****   GPIO_InitStruct.Mode = GPIO_MODE_INPUT;
 1826              		.loc 1 673 24
 1827 0118 0023     		movs	r3, #0
 1828 011a 3B62     		str	r3, [r7, #32]
 674:Core/Src/main.c ****   GPIO_InitStruct.Pull = GPIO_NOPULL;
 1829              		.loc 1 674 24
 1830 011c 0023     		movs	r3, #0
 1831 011e 7B62     		str	r3, [r7, #36]
 675:Core/Src/main.c ****   HAL_GPIO_Init(GPIOF, &GPIO_InitStruct);
 1832              		.loc 1 675 3
 1833 0120 07F11C03 		add	r3, r7, #28
 1834 0124 1946     		mov	r1, r3
 1835 0126 2E48     		ldr	r0, .L86+4
 1836 0128 FFF7FEFF 		bl	HAL_GPIO_Init
 676:Core/Src/main.c **** 
 677:Core/Src/main.c ****   /*Configure GPIO pins : PF3 PF6 PF7 */
 678:Core/Src/main.c ****   GPIO_InitStruct.Pin = GPIO_PIN_3|GPIO_PIN_6|GPIO_PIN_7;
ARM GAS  C:\Users\Morroway\AppData\Local\Temp\ccDRKoO5.s 			page 45


 1837              		.loc 1 678 23
 1838 012c C823     		movs	r3, #200
 1839 012e FB61     		str	r3, [r7, #28]
 679:Core/Src/main.c ****   GPIO_InitStruct.Mode = GPIO_MODE_OUTPUT_PP;
 1840              		.loc 1 679 24
 1841 0130 0123     		movs	r3, #1
 1842 0132 3B62     		str	r3, [r7, #32]
 680:Core/Src/main.c ****   GPIO_InitStruct.Pull = GPIO_NOPULL;
 1843              		.loc 1 680 24
 1844 0134 0023     		movs	r3, #0
 1845 0136 7B62     		str	r3, [r7, #36]
 681:Core/Src/main.c ****   GPIO_InitStruct.Speed = GPIO_SPEED_FREQ_LOW;
 1846              		.loc 1 681 25
 1847 0138 0023     		movs	r3, #0
 1848 013a BB62     		str	r3, [r7, #40]
 682:Core/Src/main.c ****   HAL_GPIO_Init(GPIOF, &GPIO_InitStruct);
 1849              		.loc 1 682 3
 1850 013c 07F11C03 		add	r3, r7, #28
 1851 0140 1946     		mov	r1, r3
 1852 0142 2748     		ldr	r0, .L86+4
 1853 0144 FFF7FEFF 		bl	HAL_GPIO_Init
 683:Core/Src/main.c **** 
 684:Core/Src/main.c ****   /*Configure GPIO pin : PA7 */
 685:Core/Src/main.c ****   GPIO_InitStruct.Pin = GPIO_PIN_7;
 1854              		.loc 1 685 23
 1855 0148 8023     		movs	r3, #128
 1856 014a FB61     		str	r3, [r7, #28]
 686:Core/Src/main.c ****   GPIO_InitStruct.Mode = GPIO_MODE_OUTPUT_PP;
 1857              		.loc 1 686 24
 1858 014c 0123     		movs	r3, #1
 1859 014e 3B62     		str	r3, [r7, #32]
 687:Core/Src/main.c ****   GPIO_InitStruct.Pull = GPIO_NOPULL;
 1860              		.loc 1 687 24
 1861 0150 0023     		movs	r3, #0
 1862 0152 7B62     		str	r3, [r7, #36]
 688:Core/Src/main.c ****   GPIO_InitStruct.Speed = GPIO_SPEED_FREQ_LOW;
 1863              		.loc 1 688 25
 1864 0154 0023     		movs	r3, #0
 1865 0156 BB62     		str	r3, [r7, #40]
 689:Core/Src/main.c ****   HAL_GPIO_Init(GPIOA, &GPIO_InitStruct);
 1866              		.loc 1 689 3
 1867 0158 07F11C03 		add	r3, r7, #28
 1868 015c 1946     		mov	r1, r3
 1869 015e 4FF09040 		mov	r0, #1207959552
 1870 0162 FFF7FEFF 		bl	HAL_GPIO_Init
 690:Core/Src/main.c **** 
 691:Core/Src/main.c ****   /*Configure GPIO pins : PB0 PB1 LD3_Pin LD2_Pin */
 692:Core/Src/main.c ****   GPIO_InitStruct.Pin = GPIO_PIN_0|GPIO_PIN_1|LD3_Pin|LD2_Pin;
 1871              		.loc 1 692 23
 1872 0166 44F28303 		movw	r3, #16515
 1873 016a FB61     		str	r3, [r7, #28]
 693:Core/Src/main.c ****   GPIO_InitStruct.Mode = GPIO_MODE_OUTPUT_PP;
 1874              		.loc 1 693 24
 1875 016c 0123     		movs	r3, #1
 1876 016e 3B62     		str	r3, [r7, #32]
 694:Core/Src/main.c ****   GPIO_InitStruct.Pull = GPIO_NOPULL;
 1877              		.loc 1 694 24
ARM GAS  C:\Users\Morroway\AppData\Local\Temp\ccDRKoO5.s 			page 46


 1878 0170 0023     		movs	r3, #0
 1879 0172 7B62     		str	r3, [r7, #36]
 695:Core/Src/main.c ****   GPIO_InitStruct.Speed = GPIO_SPEED_FREQ_LOW;
 1880              		.loc 1 695 25
 1881 0174 0023     		movs	r3, #0
 1882 0176 BB62     		str	r3, [r7, #40]
 696:Core/Src/main.c ****   HAL_GPIO_Init(GPIOB, &GPIO_InitStruct);
 1883              		.loc 1 696 3
 1884 0178 07F11C03 		add	r3, r7, #28
 1885 017c 1946     		mov	r1, r3
 1886 017e 1948     		ldr	r0, .L86+8
 1887 0180 FFF7FEFF 		bl	HAL_GPIO_Init
 697:Core/Src/main.c **** 
 698:Core/Src/main.c ****   /*Configure GPIO pin : USB_OverCurrent_Pin */
 699:Core/Src/main.c ****   GPIO_InitStruct.Pin = USB_OverCurrent_Pin;
 1888              		.loc 1 699 23
 1889 0184 2023     		movs	r3, #32
 1890 0186 FB61     		str	r3, [r7, #28]
 700:Core/Src/main.c ****   GPIO_InitStruct.Mode = GPIO_MODE_INPUT;
 1891              		.loc 1 700 24
 1892 0188 0023     		movs	r3, #0
 1893 018a 3B62     		str	r3, [r7, #32]
 701:Core/Src/main.c ****   GPIO_InitStruct.Pull = GPIO_NOPULL;
 1894              		.loc 1 701 24
 1895 018c 0023     		movs	r3, #0
 1896 018e 7B62     		str	r3, [r7, #36]
 702:Core/Src/main.c ****   HAL_GPIO_Init(USB_OverCurrent_GPIO_Port, &GPIO_InitStruct);
 1897              		.loc 1 702 3
 1898 0190 07F11C03 		add	r3, r7, #28
 1899 0194 1946     		mov	r1, r3
 1900 0196 1448     		ldr	r0, .L86+12
 1901 0198 FFF7FEFF 		bl	HAL_GPIO_Init
 703:Core/Src/main.c **** 
 704:Core/Src/main.c ****   /*Configure GPIO pin : USB_PowerSwitchOn_Pin */
 705:Core/Src/main.c ****   GPIO_InitStruct.Pin = USB_PowerSwitchOn_Pin;
 1902              		.loc 1 705 23
 1903 019c 4023     		movs	r3, #64
 1904 019e FB61     		str	r3, [r7, #28]
 706:Core/Src/main.c ****   GPIO_InitStruct.Mode = GPIO_MODE_OUTPUT_PP;
 1905              		.loc 1 706 24
 1906 01a0 0123     		movs	r3, #1
 1907 01a2 3B62     		str	r3, [r7, #32]
 707:Core/Src/main.c ****   GPIO_InitStruct.Pull = GPIO_NOPULL;
 1908              		.loc 1 707 24
 1909 01a4 0023     		movs	r3, #0
 1910 01a6 7B62     		str	r3, [r7, #36]
 708:Core/Src/main.c ****   GPIO_InitStruct.Speed = GPIO_SPEED_FREQ_LOW;
 1911              		.loc 1 708 25
 1912 01a8 0023     		movs	r3, #0
 1913 01aa BB62     		str	r3, [r7, #40]
 709:Core/Src/main.c ****   HAL_GPIO_Init(USB_PowerSwitchOn_GPIO_Port, &GPIO_InitStruct);
 1914              		.loc 1 709 3
 1915 01ac 07F11C03 		add	r3, r7, #28
 1916 01b0 1946     		mov	r1, r3
 1917 01b2 0D48     		ldr	r0, .L86+12
 1918 01b4 FFF7FEFF 		bl	HAL_GPIO_Init
 710:Core/Src/main.c **** 
ARM GAS  C:\Users\Morroway\AppData\Local\Temp\ccDRKoO5.s 			page 47


 711:Core/Src/main.c ****   /*Configure GPIO pin : PC6 */
 712:Core/Src/main.c ****   GPIO_InitStruct.Pin = GPIO_PIN_6;
 1919              		.loc 1 712 23
 1920 01b8 4023     		movs	r3, #64
 1921 01ba FB61     		str	r3, [r7, #28]
 713:Core/Src/main.c ****   GPIO_InitStruct.Mode = GPIO_MODE_OUTPUT_PP;
 1922              		.loc 1 713 24
 1923 01bc 0123     		movs	r3, #1
 1924 01be 3B62     		str	r3, [r7, #32]
 714:Core/Src/main.c ****   GPIO_InitStruct.Pull = GPIO_NOPULL;
 1925              		.loc 1 714 24
 1926 01c0 0023     		movs	r3, #0
 1927 01c2 7B62     		str	r3, [r7, #36]
 715:Core/Src/main.c ****   GPIO_InitStruct.Speed = GPIO_SPEED_FREQ_LOW;
 1928              		.loc 1 715 25
 1929 01c4 0023     		movs	r3, #0
 1930 01c6 BB62     		str	r3, [r7, #40]
 716:Core/Src/main.c ****   HAL_GPIO_Init(GPIOC, &GPIO_InitStruct);
 1931              		.loc 1 716 3
 1932 01c8 07F11C03 		add	r3, r7, #28
 1933 01cc 1946     		mov	r1, r3
 1934 01ce 0748     		ldr	r0, .L86+16
 1935 01d0 FFF7FEFF 		bl	HAL_GPIO_Init
 717:Core/Src/main.c **** 
 718:Core/Src/main.c **** }
 1936              		.loc 1 718 1
 1937 01d4 00BF     		nop
 1938 01d6 3037     		adds	r7, r7, #48
 1939              		.cfi_def_cfa_offset 8
 1940 01d8 BD46     		mov	sp, r7
 1941              		.cfi_def_cfa_register 13
 1942              		@ sp needed
 1943 01da 80BD     		pop	{r7, pc}
 1944              	.L87:
 1945              		.align	2
 1946              	.L86:
 1947 01dc 00100240 		.word	1073876992
 1948 01e0 00140048 		.word	1207964672
 1949 01e4 00040048 		.word	1207960576
 1950 01e8 00180048 		.word	1207965696
 1951 01ec 00080048 		.word	1207961600
 1952              		.cfi_endproc
 1953              	.LFE339:
 1955              		.section	.text.Error_Handler,"ax",%progbits
 1956              		.align	1
 1957              		.global	Error_Handler
 1958              		.syntax unified
 1959              		.thumb
 1960              		.thumb_func
 1962              	Error_Handler:
 1963              	.LFB340:
 719:Core/Src/main.c **** 
 720:Core/Src/main.c **** /* USER CODE BEGIN 4 */
 721:Core/Src/main.c **** 
 722:Core/Src/main.c **** /* USER CODE END 4 */
 723:Core/Src/main.c **** 
 724:Core/Src/main.c **** /**
ARM GAS  C:\Users\Morroway\AppData\Local\Temp\ccDRKoO5.s 			page 48


 725:Core/Src/main.c ****   * @brief  This function is executed in case of error occurrence.
 726:Core/Src/main.c ****   * @retval None
 727:Core/Src/main.c ****   */
 728:Core/Src/main.c **** void Error_Handler(void)
 729:Core/Src/main.c **** {
 1964              		.loc 1 729 1
 1965              		.cfi_startproc
 1966              		@ args = 0, pretend = 0, frame = 0
 1967              		@ frame_needed = 1, uses_anonymous_args = 0
 1968              		@ link register save eliminated.
 1969 0000 80B4     		push	{r7}
 1970              		.cfi_def_cfa_offset 4
 1971              		.cfi_offset 7, -4
 1972 0002 00AF     		add	r7, sp, #0
 1973              		.cfi_def_cfa_register 7
 1974              	.LBB13:
 1975              	.LBB14:
 1976              		.file 2 "Drivers/CMSIS/Include/cmsis_gcc.h"
   1:Drivers/CMSIS/Include/cmsis_gcc.h **** /**************************************************************************//**
   2:Drivers/CMSIS/Include/cmsis_gcc.h ****  * @file     cmsis_gcc.h
   3:Drivers/CMSIS/Include/cmsis_gcc.h ****  * @brief    CMSIS compiler GCC header file
   4:Drivers/CMSIS/Include/cmsis_gcc.h ****  * @version  V5.2.0
   5:Drivers/CMSIS/Include/cmsis_gcc.h ****  * @date     08. May 2019
   6:Drivers/CMSIS/Include/cmsis_gcc.h ****  ******************************************************************************/
   7:Drivers/CMSIS/Include/cmsis_gcc.h **** /*
   8:Drivers/CMSIS/Include/cmsis_gcc.h ****  * Copyright (c) 2009-2019 Arm Limited. All rights reserved.
   9:Drivers/CMSIS/Include/cmsis_gcc.h ****  *
  10:Drivers/CMSIS/Include/cmsis_gcc.h ****  * SPDX-License-Identifier: Apache-2.0
  11:Drivers/CMSIS/Include/cmsis_gcc.h ****  *
  12:Drivers/CMSIS/Include/cmsis_gcc.h ****  * Licensed under the Apache License, Version 2.0 (the License); you may
  13:Drivers/CMSIS/Include/cmsis_gcc.h ****  * not use this file except in compliance with the License.
  14:Drivers/CMSIS/Include/cmsis_gcc.h ****  * You may obtain a copy of the License at
  15:Drivers/CMSIS/Include/cmsis_gcc.h ****  *
  16:Drivers/CMSIS/Include/cmsis_gcc.h ****  * www.apache.org/licenses/LICENSE-2.0
  17:Drivers/CMSIS/Include/cmsis_gcc.h ****  *
  18:Drivers/CMSIS/Include/cmsis_gcc.h ****  * Unless required by applicable law or agreed to in writing, software
  19:Drivers/CMSIS/Include/cmsis_gcc.h ****  * distributed under the License is distributed on an AS IS BASIS, WITHOUT
  20:Drivers/CMSIS/Include/cmsis_gcc.h ****  * WARRANTIES OR CONDITIONS OF ANY KIND, either express or implied.
  21:Drivers/CMSIS/Include/cmsis_gcc.h ****  * See the License for the specific language governing permissions and
  22:Drivers/CMSIS/Include/cmsis_gcc.h ****  * limitations under the License.
  23:Drivers/CMSIS/Include/cmsis_gcc.h ****  */
  24:Drivers/CMSIS/Include/cmsis_gcc.h **** 
  25:Drivers/CMSIS/Include/cmsis_gcc.h **** #ifndef __CMSIS_GCC_H
  26:Drivers/CMSIS/Include/cmsis_gcc.h **** #define __CMSIS_GCC_H
  27:Drivers/CMSIS/Include/cmsis_gcc.h **** 
  28:Drivers/CMSIS/Include/cmsis_gcc.h **** /* ignore some GCC warnings */
  29:Drivers/CMSIS/Include/cmsis_gcc.h **** #pragma GCC diagnostic push
  30:Drivers/CMSIS/Include/cmsis_gcc.h **** #pragma GCC diagnostic ignored "-Wsign-conversion"
  31:Drivers/CMSIS/Include/cmsis_gcc.h **** #pragma GCC diagnostic ignored "-Wconversion"
  32:Drivers/CMSIS/Include/cmsis_gcc.h **** #pragma GCC diagnostic ignored "-Wunused-parameter"
  33:Drivers/CMSIS/Include/cmsis_gcc.h **** 
  34:Drivers/CMSIS/Include/cmsis_gcc.h **** /* Fallback for __has_builtin */
  35:Drivers/CMSIS/Include/cmsis_gcc.h **** #ifndef __has_builtin
  36:Drivers/CMSIS/Include/cmsis_gcc.h ****   #define __has_builtin(x) (0)
  37:Drivers/CMSIS/Include/cmsis_gcc.h **** #endif
  38:Drivers/CMSIS/Include/cmsis_gcc.h **** 
  39:Drivers/CMSIS/Include/cmsis_gcc.h **** /* CMSIS compiler specific defines */
ARM GAS  C:\Users\Morroway\AppData\Local\Temp\ccDRKoO5.s 			page 49


  40:Drivers/CMSIS/Include/cmsis_gcc.h **** #ifndef   __ASM
  41:Drivers/CMSIS/Include/cmsis_gcc.h ****   #define __ASM                                  __asm
  42:Drivers/CMSIS/Include/cmsis_gcc.h **** #endif
  43:Drivers/CMSIS/Include/cmsis_gcc.h **** #ifndef   __INLINE
  44:Drivers/CMSIS/Include/cmsis_gcc.h ****   #define __INLINE                               inline
  45:Drivers/CMSIS/Include/cmsis_gcc.h **** #endif
  46:Drivers/CMSIS/Include/cmsis_gcc.h **** #ifndef   __STATIC_INLINE
  47:Drivers/CMSIS/Include/cmsis_gcc.h ****   #define __STATIC_INLINE                        static inline
  48:Drivers/CMSIS/Include/cmsis_gcc.h **** #endif
  49:Drivers/CMSIS/Include/cmsis_gcc.h **** #ifndef   __STATIC_FORCEINLINE                 
  50:Drivers/CMSIS/Include/cmsis_gcc.h ****   #define __STATIC_FORCEINLINE                   __attribute__((always_inline)) static inline
  51:Drivers/CMSIS/Include/cmsis_gcc.h **** #endif                                           
  52:Drivers/CMSIS/Include/cmsis_gcc.h **** #ifndef   __NO_RETURN
  53:Drivers/CMSIS/Include/cmsis_gcc.h ****   #define __NO_RETURN                            __attribute__((__noreturn__))
  54:Drivers/CMSIS/Include/cmsis_gcc.h **** #endif
  55:Drivers/CMSIS/Include/cmsis_gcc.h **** #ifndef   __USED
  56:Drivers/CMSIS/Include/cmsis_gcc.h ****   #define __USED                                 __attribute__((used))
  57:Drivers/CMSIS/Include/cmsis_gcc.h **** #endif
  58:Drivers/CMSIS/Include/cmsis_gcc.h **** #ifndef   __WEAK
  59:Drivers/CMSIS/Include/cmsis_gcc.h ****   #define __WEAK                                 __attribute__((weak))
  60:Drivers/CMSIS/Include/cmsis_gcc.h **** #endif
  61:Drivers/CMSIS/Include/cmsis_gcc.h **** #ifndef   __PACKED
  62:Drivers/CMSIS/Include/cmsis_gcc.h ****   #define __PACKED                               __attribute__((packed, aligned(1)))
  63:Drivers/CMSIS/Include/cmsis_gcc.h **** #endif
  64:Drivers/CMSIS/Include/cmsis_gcc.h **** #ifndef   __PACKED_STRUCT
  65:Drivers/CMSIS/Include/cmsis_gcc.h ****   #define __PACKED_STRUCT                        struct __attribute__((packed, aligned(1)))
  66:Drivers/CMSIS/Include/cmsis_gcc.h **** #endif
  67:Drivers/CMSIS/Include/cmsis_gcc.h **** #ifndef   __PACKED_UNION
  68:Drivers/CMSIS/Include/cmsis_gcc.h ****   #define __PACKED_UNION                         union __attribute__((packed, aligned(1)))
  69:Drivers/CMSIS/Include/cmsis_gcc.h **** #endif
  70:Drivers/CMSIS/Include/cmsis_gcc.h **** #ifndef   __UNALIGNED_UINT32        /* deprecated */
  71:Drivers/CMSIS/Include/cmsis_gcc.h ****   #pragma GCC diagnostic push
  72:Drivers/CMSIS/Include/cmsis_gcc.h ****   #pragma GCC diagnostic ignored "-Wpacked"
  73:Drivers/CMSIS/Include/cmsis_gcc.h ****   #pragma GCC diagnostic ignored "-Wattributes"
  74:Drivers/CMSIS/Include/cmsis_gcc.h ****   struct __attribute__((packed)) T_UINT32 { uint32_t v; };
  75:Drivers/CMSIS/Include/cmsis_gcc.h ****   #pragma GCC diagnostic pop
  76:Drivers/CMSIS/Include/cmsis_gcc.h ****   #define __UNALIGNED_UINT32(x)                  (((struct T_UINT32 *)(x))->v)
  77:Drivers/CMSIS/Include/cmsis_gcc.h **** #endif
  78:Drivers/CMSIS/Include/cmsis_gcc.h **** #ifndef   __UNALIGNED_UINT16_WRITE
  79:Drivers/CMSIS/Include/cmsis_gcc.h ****   #pragma GCC diagnostic push
  80:Drivers/CMSIS/Include/cmsis_gcc.h ****   #pragma GCC diagnostic ignored "-Wpacked"
  81:Drivers/CMSIS/Include/cmsis_gcc.h ****   #pragma GCC diagnostic ignored "-Wattributes"
  82:Drivers/CMSIS/Include/cmsis_gcc.h ****   __PACKED_STRUCT T_UINT16_WRITE { uint16_t v; };
  83:Drivers/CMSIS/Include/cmsis_gcc.h ****   #pragma GCC diagnostic pop
  84:Drivers/CMSIS/Include/cmsis_gcc.h ****   #define __UNALIGNED_UINT16_WRITE(addr, val)    (void)((((struct T_UINT16_WRITE *)(void *)(addr))-
  85:Drivers/CMSIS/Include/cmsis_gcc.h **** #endif
  86:Drivers/CMSIS/Include/cmsis_gcc.h **** #ifndef   __UNALIGNED_UINT16_READ
  87:Drivers/CMSIS/Include/cmsis_gcc.h ****   #pragma GCC diagnostic push
  88:Drivers/CMSIS/Include/cmsis_gcc.h ****   #pragma GCC diagnostic ignored "-Wpacked"
  89:Drivers/CMSIS/Include/cmsis_gcc.h ****   #pragma GCC diagnostic ignored "-Wattributes"
  90:Drivers/CMSIS/Include/cmsis_gcc.h ****   __PACKED_STRUCT T_UINT16_READ { uint16_t v; };
  91:Drivers/CMSIS/Include/cmsis_gcc.h ****   #pragma GCC diagnostic pop
  92:Drivers/CMSIS/Include/cmsis_gcc.h ****   #define __UNALIGNED_UINT16_READ(addr)          (((const struct T_UINT16_READ *)(const void *)(add
  93:Drivers/CMSIS/Include/cmsis_gcc.h **** #endif
  94:Drivers/CMSIS/Include/cmsis_gcc.h **** #ifndef   __UNALIGNED_UINT32_WRITE
  95:Drivers/CMSIS/Include/cmsis_gcc.h ****   #pragma GCC diagnostic push
  96:Drivers/CMSIS/Include/cmsis_gcc.h ****   #pragma GCC diagnostic ignored "-Wpacked"
ARM GAS  C:\Users\Morroway\AppData\Local\Temp\ccDRKoO5.s 			page 50


  97:Drivers/CMSIS/Include/cmsis_gcc.h ****   #pragma GCC diagnostic ignored "-Wattributes"
  98:Drivers/CMSIS/Include/cmsis_gcc.h ****   __PACKED_STRUCT T_UINT32_WRITE { uint32_t v; };
  99:Drivers/CMSIS/Include/cmsis_gcc.h ****   #pragma GCC diagnostic pop
 100:Drivers/CMSIS/Include/cmsis_gcc.h ****   #define __UNALIGNED_UINT32_WRITE(addr, val)    (void)((((struct T_UINT32_WRITE *)(void *)(addr))-
 101:Drivers/CMSIS/Include/cmsis_gcc.h **** #endif
 102:Drivers/CMSIS/Include/cmsis_gcc.h **** #ifndef   __UNALIGNED_UINT32_READ
 103:Drivers/CMSIS/Include/cmsis_gcc.h ****   #pragma GCC diagnostic push
 104:Drivers/CMSIS/Include/cmsis_gcc.h ****   #pragma GCC diagnostic ignored "-Wpacked"
 105:Drivers/CMSIS/Include/cmsis_gcc.h ****   #pragma GCC diagnostic ignored "-Wattributes"
 106:Drivers/CMSIS/Include/cmsis_gcc.h ****   __PACKED_STRUCT T_UINT32_READ { uint32_t v; };
 107:Drivers/CMSIS/Include/cmsis_gcc.h ****   #pragma GCC diagnostic pop
 108:Drivers/CMSIS/Include/cmsis_gcc.h ****   #define __UNALIGNED_UINT32_READ(addr)          (((const struct T_UINT32_READ *)(const void *)(add
 109:Drivers/CMSIS/Include/cmsis_gcc.h **** #endif
 110:Drivers/CMSIS/Include/cmsis_gcc.h **** #ifndef   __ALIGNED
 111:Drivers/CMSIS/Include/cmsis_gcc.h ****   #define __ALIGNED(x)                           __attribute__((aligned(x)))
 112:Drivers/CMSIS/Include/cmsis_gcc.h **** #endif
 113:Drivers/CMSIS/Include/cmsis_gcc.h **** #ifndef   __RESTRICT
 114:Drivers/CMSIS/Include/cmsis_gcc.h ****   #define __RESTRICT                             __restrict
 115:Drivers/CMSIS/Include/cmsis_gcc.h **** #endif
 116:Drivers/CMSIS/Include/cmsis_gcc.h **** #ifndef   __COMPILER_BARRIER
 117:Drivers/CMSIS/Include/cmsis_gcc.h ****   #define __COMPILER_BARRIER()                   __ASM volatile("":::"memory")
 118:Drivers/CMSIS/Include/cmsis_gcc.h **** #endif
 119:Drivers/CMSIS/Include/cmsis_gcc.h **** 
 120:Drivers/CMSIS/Include/cmsis_gcc.h **** /* #########################  Startup and Lowlevel Init  ######################## */
 121:Drivers/CMSIS/Include/cmsis_gcc.h **** 
 122:Drivers/CMSIS/Include/cmsis_gcc.h **** #ifndef __PROGRAM_START
 123:Drivers/CMSIS/Include/cmsis_gcc.h **** 
 124:Drivers/CMSIS/Include/cmsis_gcc.h **** /**
 125:Drivers/CMSIS/Include/cmsis_gcc.h ****   \brief   Initializes data and bss sections
 126:Drivers/CMSIS/Include/cmsis_gcc.h ****   \details This default implementations initialized all data and additional bss
 127:Drivers/CMSIS/Include/cmsis_gcc.h ****            sections relying on .copy.table and .zero.table specified properly
 128:Drivers/CMSIS/Include/cmsis_gcc.h ****            in the used linker script.
 129:Drivers/CMSIS/Include/cmsis_gcc.h ****   
 130:Drivers/CMSIS/Include/cmsis_gcc.h ****  */
 131:Drivers/CMSIS/Include/cmsis_gcc.h **** __STATIC_FORCEINLINE __NO_RETURN void __cmsis_start(void)
 132:Drivers/CMSIS/Include/cmsis_gcc.h **** {
 133:Drivers/CMSIS/Include/cmsis_gcc.h ****   extern void _start(void) __NO_RETURN;
 134:Drivers/CMSIS/Include/cmsis_gcc.h ****   
 135:Drivers/CMSIS/Include/cmsis_gcc.h ****   typedef struct {
 136:Drivers/CMSIS/Include/cmsis_gcc.h ****     uint32_t const* src;
 137:Drivers/CMSIS/Include/cmsis_gcc.h ****     uint32_t* dest;
 138:Drivers/CMSIS/Include/cmsis_gcc.h ****     uint32_t  wlen;
 139:Drivers/CMSIS/Include/cmsis_gcc.h ****   } __copy_table_t;
 140:Drivers/CMSIS/Include/cmsis_gcc.h ****   
 141:Drivers/CMSIS/Include/cmsis_gcc.h ****   typedef struct {
 142:Drivers/CMSIS/Include/cmsis_gcc.h ****     uint32_t* dest;
 143:Drivers/CMSIS/Include/cmsis_gcc.h ****     uint32_t  wlen;
 144:Drivers/CMSIS/Include/cmsis_gcc.h ****   } __zero_table_t;
 145:Drivers/CMSIS/Include/cmsis_gcc.h ****   
 146:Drivers/CMSIS/Include/cmsis_gcc.h ****   extern const __copy_table_t __copy_table_start__;
 147:Drivers/CMSIS/Include/cmsis_gcc.h ****   extern const __copy_table_t __copy_table_end__;
 148:Drivers/CMSIS/Include/cmsis_gcc.h ****   extern const __zero_table_t __zero_table_start__;
 149:Drivers/CMSIS/Include/cmsis_gcc.h ****   extern const __zero_table_t __zero_table_end__;
 150:Drivers/CMSIS/Include/cmsis_gcc.h **** 
 151:Drivers/CMSIS/Include/cmsis_gcc.h ****   for (__copy_table_t const* pTable = &__copy_table_start__; pTable < &__copy_table_end__; ++pTable
 152:Drivers/CMSIS/Include/cmsis_gcc.h ****     for(uint32_t i=0u; i<pTable->wlen; ++i) {
 153:Drivers/CMSIS/Include/cmsis_gcc.h ****       pTable->dest[i] = pTable->src[i];
ARM GAS  C:\Users\Morroway\AppData\Local\Temp\ccDRKoO5.s 			page 51


 154:Drivers/CMSIS/Include/cmsis_gcc.h ****     }
 155:Drivers/CMSIS/Include/cmsis_gcc.h ****   }
 156:Drivers/CMSIS/Include/cmsis_gcc.h ****  
 157:Drivers/CMSIS/Include/cmsis_gcc.h ****   for (__zero_table_t const* pTable = &__zero_table_start__; pTable < &__zero_table_end__; ++pTable
 158:Drivers/CMSIS/Include/cmsis_gcc.h ****     for(uint32_t i=0u; i<pTable->wlen; ++i) {
 159:Drivers/CMSIS/Include/cmsis_gcc.h ****       pTable->dest[i] = 0u;
 160:Drivers/CMSIS/Include/cmsis_gcc.h ****     }
 161:Drivers/CMSIS/Include/cmsis_gcc.h ****   }
 162:Drivers/CMSIS/Include/cmsis_gcc.h ****  
 163:Drivers/CMSIS/Include/cmsis_gcc.h ****   _start();
 164:Drivers/CMSIS/Include/cmsis_gcc.h **** }
 165:Drivers/CMSIS/Include/cmsis_gcc.h ****   
 166:Drivers/CMSIS/Include/cmsis_gcc.h **** #define __PROGRAM_START           __cmsis_start
 167:Drivers/CMSIS/Include/cmsis_gcc.h **** #endif
 168:Drivers/CMSIS/Include/cmsis_gcc.h **** 
 169:Drivers/CMSIS/Include/cmsis_gcc.h **** #ifndef __INITIAL_SP
 170:Drivers/CMSIS/Include/cmsis_gcc.h **** #define __INITIAL_SP              __StackTop
 171:Drivers/CMSIS/Include/cmsis_gcc.h **** #endif
 172:Drivers/CMSIS/Include/cmsis_gcc.h **** 
 173:Drivers/CMSIS/Include/cmsis_gcc.h **** #ifndef __STACK_LIMIT
 174:Drivers/CMSIS/Include/cmsis_gcc.h **** #define __STACK_LIMIT             __StackLimit
 175:Drivers/CMSIS/Include/cmsis_gcc.h **** #endif
 176:Drivers/CMSIS/Include/cmsis_gcc.h **** 
 177:Drivers/CMSIS/Include/cmsis_gcc.h **** #ifndef __VECTOR_TABLE
 178:Drivers/CMSIS/Include/cmsis_gcc.h **** #define __VECTOR_TABLE            __Vectors
 179:Drivers/CMSIS/Include/cmsis_gcc.h **** #endif
 180:Drivers/CMSIS/Include/cmsis_gcc.h **** 
 181:Drivers/CMSIS/Include/cmsis_gcc.h **** #ifndef __VECTOR_TABLE_ATTRIBUTE
 182:Drivers/CMSIS/Include/cmsis_gcc.h **** #define __VECTOR_TABLE_ATTRIBUTE  __attribute((used, section(".vectors")))
 183:Drivers/CMSIS/Include/cmsis_gcc.h **** #endif
 184:Drivers/CMSIS/Include/cmsis_gcc.h **** 
 185:Drivers/CMSIS/Include/cmsis_gcc.h **** /* ###########################  Core Function Access  ########################### */
 186:Drivers/CMSIS/Include/cmsis_gcc.h **** /** \ingroup  CMSIS_Core_FunctionInterface
 187:Drivers/CMSIS/Include/cmsis_gcc.h ****     \defgroup CMSIS_Core_RegAccFunctions CMSIS Core Register Access Functions
 188:Drivers/CMSIS/Include/cmsis_gcc.h ****   @{
 189:Drivers/CMSIS/Include/cmsis_gcc.h ****  */
 190:Drivers/CMSIS/Include/cmsis_gcc.h **** 
 191:Drivers/CMSIS/Include/cmsis_gcc.h **** /**
 192:Drivers/CMSIS/Include/cmsis_gcc.h ****   \brief   Enable IRQ Interrupts
 193:Drivers/CMSIS/Include/cmsis_gcc.h ****   \details Enables IRQ interrupts by clearing the I-bit in the CPSR.
 194:Drivers/CMSIS/Include/cmsis_gcc.h ****            Can only be executed in Privileged modes.
 195:Drivers/CMSIS/Include/cmsis_gcc.h ****  */
 196:Drivers/CMSIS/Include/cmsis_gcc.h **** __STATIC_FORCEINLINE void __enable_irq(void)
 197:Drivers/CMSIS/Include/cmsis_gcc.h **** {
 198:Drivers/CMSIS/Include/cmsis_gcc.h ****   __ASM volatile ("cpsie i" : : : "memory");
 199:Drivers/CMSIS/Include/cmsis_gcc.h **** }
 200:Drivers/CMSIS/Include/cmsis_gcc.h **** 
 201:Drivers/CMSIS/Include/cmsis_gcc.h **** 
 202:Drivers/CMSIS/Include/cmsis_gcc.h **** /**
 203:Drivers/CMSIS/Include/cmsis_gcc.h ****   \brief   Disable IRQ Interrupts
 204:Drivers/CMSIS/Include/cmsis_gcc.h ****   \details Disables IRQ interrupts by setting the I-bit in the CPSR.
 205:Drivers/CMSIS/Include/cmsis_gcc.h ****            Can only be executed in Privileged modes.
 206:Drivers/CMSIS/Include/cmsis_gcc.h ****  */
 207:Drivers/CMSIS/Include/cmsis_gcc.h **** __STATIC_FORCEINLINE void __disable_irq(void)
 208:Drivers/CMSIS/Include/cmsis_gcc.h **** {
 209:Drivers/CMSIS/Include/cmsis_gcc.h ****   __ASM volatile ("cpsid i" : : : "memory");
 1977              		.loc 2 209 3
ARM GAS  C:\Users\Morroway\AppData\Local\Temp\ccDRKoO5.s 			page 52


 1978              		.syntax unified
 1979              	@ 209 "Drivers/CMSIS/Include/cmsis_gcc.h" 1
 1980 0004 72B6     		cpsid i
 1981              	@ 0 "" 2
 210:Drivers/CMSIS/Include/cmsis_gcc.h **** }
 1982              		.loc 2 210 1
 1983              		.thumb
 1984              		.syntax unified
 1985 0006 00BF     		nop
 1986              	.L89:
 1987              	.LBE14:
 1988              	.LBE13:
 730:Core/Src/main.c ****   /* USER CODE BEGIN Error_Handler_Debug */
 731:Core/Src/main.c ****   /* User can add his own implementation to report the HAL error return state */
 732:Core/Src/main.c ****   __disable_irq();
 733:Core/Src/main.c ****   while (1)
 1989              		.loc 1 733 9 discriminator 1
 1990 0008 FEE7     		b	.L89
 1991              		.cfi_endproc
 1992              	.LFE340:
 1994              		.text
 1995              	.Letext0:
 1996              		.file 3 "Drivers/CMSIS/Device/ST/STM32L4xx/Include/stm32l4p5xx.h"
 1997              		.file 4 "c:\\users\\morroway\\appdata\\roaming\\code\\user\\globalstorage\\bmd.stm32-for-vscode\\@
 1998              		.file 5 "c:\\users\\morroway\\appdata\\roaming\\code\\user\\globalstorage\\bmd.stm32-for-vscode\\@
 1999              		.file 6 "Drivers/CMSIS/Device/ST/STM32L4xx/Include/stm32l4xx.h"
 2000              		.file 7 "c:\\users\\morroway\\appdata\\roaming\\code\\user\\globalstorage\\bmd.stm32-for-vscode\\@
 2001              		.file 8 "Drivers/STM32L4xx_HAL_Driver/Inc/stm32l4xx_hal_def.h"
 2002              		.file 9 "Drivers/STM32L4xx_HAL_Driver/Inc/stm32l4xx_hal_rcc.h"
 2003              		.file 10 "Drivers/STM32L4xx_HAL_Driver/Inc/stm32l4xx_hal_gpio.h"
 2004              		.file 11 "Drivers/STM32L4xx_HAL_Driver/Inc/stm32l4xx_hal_dma.h"
 2005              		.file 12 "Drivers/STM32L4xx_HAL_Driver/Inc/stm32l4xx_hal_adc.h"
 2006              		.file 13 "Drivers/STM32L4xx_HAL_Driver/Inc/stm32l4xx_hal_adc_ex.h"
 2007              		.file 14 "Drivers/STM32L4xx_HAL_Driver/Inc/stm32l4xx_ll_usb.h"
 2008              		.file 15 "Drivers/STM32L4xx_HAL_Driver/Inc/stm32l4xx_hal_pcd.h"
 2009              		.file 16 "Drivers/STM32L4xx_HAL_Driver/Inc/stm32l4xx_hal_tim.h"
 2010              		.file 17 "Drivers/STM32L4xx_HAL_Driver/Inc/stm32l4xx_hal_uart.h"
 2011              		.file 18 "Core/Inc/Parser.h"
 2012              		.file 19 "Core/Inc/GCodes.h"
 2013              		.file 20 "Core/Inc/main.h"
 2014              		.file 21 "Drivers/STM32L4xx_HAL_Driver/Inc/stm32l4xx_hal_cortex.h"
 2015              		.file 22 "Drivers/STM32L4xx_HAL_Driver/Inc/stm32l4xx_hal_tim_ex.h"
 2016              		.file 23 "Drivers/STM32L4xx_HAL_Driver/Inc/stm32l4xx_hal_uart_ex.h"
 2017              		.file 24 "Drivers/STM32L4xx_HAL_Driver/Inc/stm32l4xx_hal_pwr_ex.h"
 2018              		.file 25 "c:\\users\\morroway\\appdata\\roaming\\code\\user\\globalstorage\\bmd.stm32-for-vscode\\
 2019              		.file 26 "Drivers/STM32L4xx_HAL_Driver/Inc/stm32l4xx_hal.h"
 2020              		.file 27 "c:\\users\\morroway\\appdata\\roaming\\code\\user\\globalstorage\\bmd.stm32-for-vscode\\
 2021              		.file 28 "Core/Inc/Functions.h"
ARM GAS  C:\Users\Morroway\AppData\Local\Temp\ccDRKoO5.s 			page 53

