ARM GAS  C:\Users\Morroway\AppData\Local\Temp\ccKhlCKS.s 			page 1


   1              		.cpu cortex-m4
   2              		.arch armv7e-m
   3              		.fpu fpv4-sp-d16
   4              		.eabi_attribute 27, 1
   5              		.eabi_attribute 28, 1
   6              		.eabi_attribute 20, 1
   7              		.eabi_attribute 21, 1
   8              		.eabi_attribute 23, 3
   9              		.eabi_attribute 24, 1
  10              		.eabi_attribute 25, 1
  11              		.eabi_attribute 26, 1
  12              		.eabi_attribute 30, 6
  13              		.eabi_attribute 34, 1
  14              		.eabi_attribute 18, 4
  15              		.file	"main.c"
  16              		.text
  17              	.Ltext0:
  18              		.cfi_sections	.debug_frame
  19              		.section	.bss.msg_buffer,"aw",%nobits
  20              		.align	2
  23              	msg_buffer:
  24 0000 00000000 		.space	30
  24      00000000 
  24      00000000 
  24      00000000 
  24      00000000 
  25              		.section	.bss.RxBuf,"aw",%nobits
  26              		.align	2
  29              	RxBuf:
  30 0000 00000000 		.space	20
  30      00000000 
  30      00000000 
  30      00000000 
  30      00000000 
  31              		.global	hadc1
  32              		.section	.bss.hadc1,"aw",%nobits
  33              		.align	2
  36              	hadc1:
  37 0000 00000000 		.space	104
  37      00000000 
  37      00000000 
  37      00000000 
  37      00000000 
  38              		.global	hdma_adc1
  39              		.section	.bss.hdma_adc1,"aw",%nobits
  40              		.align	2
  43              	hdma_adc1:
  44 0000 00000000 		.space	96
  44      00000000 
  44      00000000 
  44      00000000 
  44      00000000 
  45              		.global	hlpuart1
  46              		.section	.bss.hlpuart1,"aw",%nobits
  47              		.align	2
  50              	hlpuart1:
  51 0000 00000000 		.space	144
ARM GAS  C:\Users\Morroway\AppData\Local\Temp\ccKhlCKS.s 			page 2


  51      00000000 
  51      00000000 
  51      00000000 
  51      00000000 
  52              		.global	huart4
  53              		.section	.bss.huart4,"aw",%nobits
  54              		.align	2
  57              	huart4:
  58 0000 00000000 		.space	144
  58      00000000 
  58      00000000 
  58      00000000 
  58      00000000 
  59              		.global	hdma_lpuart1_rx
  60              		.section	.bss.hdma_lpuart1_rx,"aw",%nobits
  61              		.align	2
  64              	hdma_lpuart1_rx:
  65 0000 00000000 		.space	96
  65      00000000 
  65      00000000 
  65      00000000 
  65      00000000 
  66              		.global	hspi1
  67              		.section	.bss.hspi1,"aw",%nobits
  68              		.align	2
  71              	hspi1:
  72 0000 00000000 		.space	100
  72      00000000 
  72      00000000 
  72      00000000 
  72      00000000 
  73              		.global	htim2
  74              		.section	.bss.htim2,"aw",%nobits
  75              		.align	2
  78              	htim2:
  79 0000 00000000 		.space	76
  79      00000000 
  79      00000000 
  79      00000000 
  79      00000000 
  80              		.global	htim3
  81              		.section	.bss.htim3,"aw",%nobits
  82              		.align	2
  85              	htim3:
  86 0000 00000000 		.space	76
  86      00000000 
  86      00000000 
  86      00000000 
  86      00000000 
  87              		.global	htim4
  88              		.section	.bss.htim4,"aw",%nobits
  89              		.align	2
  92              	htim4:
  93 0000 00000000 		.space	76
  93      00000000 
  93      00000000 
  93      00000000 
ARM GAS  C:\Users\Morroway\AppData\Local\Temp\ccKhlCKS.s 			page 3


  93      00000000 
  94              		.global	htim5
  95              		.section	.bss.htim5,"aw",%nobits
  96              		.align	2
  99              	htim5:
 100 0000 00000000 		.space	76
 100      00000000 
 100      00000000 
 100      00000000 
 100      00000000 
 101              		.global	hpcd_USB_OTG_FS
 102              		.section	.bss.hpcd_USB_OTG_FS,"aw",%nobits
 103              		.align	2
 106              	hpcd_USB_OTG_FS:
 107 0000 00000000 		.space	1292
 107      00000000 
 107      00000000 
 107      00000000 
 107      00000000 
 108              		.global	step
 109              		.section	.bss.step,"aw",%nobits
 110              		.align	1
 113              	step:
 114 0000 0000     		.space	2
 115              		.global	last_time
 116              		.section	.bss.last_time,"aw",%nobits
 117              		.align	2
 120              	last_time:
 121 0000 00000000 		.space	4
 122              		.global	value
 123              		.section	.bss.value,"aw",%nobits
 124              		.align	2
 127              	value:
 128 0000 00000000 		.space	12
 128      00000000 
 128      00000000 
 129              		.section	.text.HAL_UARTEx_RxEventCallback,"ax",%progbits
 130              		.align	1
 131              		.global	HAL_UARTEx_RxEventCallback
 132              		.syntax unified
 133              		.thumb
 134              		.thumb_func
 136              	HAL_UARTEx_RxEventCallback:
 137              	.LFB325:
 138              		.file 1 "Core/Src/main.c"
   1:Core/Src/main.c **** /* USER CODE BEGIN Header */
   2:Core/Src/main.c **** /**
   3:Core/Src/main.c ****  ******************************************************************************
   4:Core/Src/main.c ****  * @file           : main.c
   5:Core/Src/main.c ****  * @brief          : Main program body
   6:Core/Src/main.c ****  ******************************************************************************
   7:Core/Src/main.c ****  * @attention
   8:Core/Src/main.c ****  *
   9:Core/Src/main.c ****  * Copyright (c) 2022 STMicroelectronics.
  10:Core/Src/main.c ****  * All rights reserved.
  11:Core/Src/main.c ****  *
  12:Core/Src/main.c ****  * This software is licensed under terms that can be found in the LICENSE file
ARM GAS  C:\Users\Morroway\AppData\Local\Temp\ccKhlCKS.s 			page 4


  13:Core/Src/main.c ****  * in the root directory of this software component.
  14:Core/Src/main.c ****  * If no LICENSE file comes with this software, it is provided AS-IS.
  15:Core/Src/main.c ****  *
  16:Core/Src/main.c ****  ******************************************************************************
  17:Core/Src/main.c ****  */
  18:Core/Src/main.c **** /* USER CODE END Header */
  19:Core/Src/main.c **** /* Includes ------------------------------------------------------------------*/
  20:Core/Src/main.c **** #include "main.h"
  21:Core/Src/main.c **** 
  22:Core/Src/main.c **** /* Private includes ----------------------------------------------------------*/
  23:Core/Src/main.c **** /* USER CODE BEGIN Includes */
  24:Core/Src/main.c **** #include "Functions.h"
  25:Core/Src/main.c **** #include <stdio.h>
  26:Core/Src/main.c **** #include <string.h>
  27:Core/Src/main.c **** #include <ctype.h>
  28:Core/Src/main.c **** // #include "Parser.h"
  29:Core/Src/main.c **** /* USER CODE END Includes */
  30:Core/Src/main.c **** 
  31:Core/Src/main.c **** /* Private typedef -----------------------------------------------------------*/
  32:Core/Src/main.c **** /* USER CODE BEGIN PTD */
  33:Core/Src/main.c **** 
  34:Core/Src/main.c **** /* USER CODE END PTD */
  35:Core/Src/main.c **** 
  36:Core/Src/main.c **** /* Private define ------------------------------------------------------------*/
  37:Core/Src/main.c **** /* USER CODE BEGIN PD */
  38:Core/Src/main.c **** /* USER CODE END PD */
  39:Core/Src/main.c **** 
  40:Core/Src/main.c **** /* Private macro -------------------------------------------------------------*/
  41:Core/Src/main.c **** /* USER CODE BEGIN PM */
  42:Core/Src/main.c **** 
  43:Core/Src/main.c **** /* USER CODE END PM */
  44:Core/Src/main.c **** 
  45:Core/Src/main.c **** /* Private variables ---------------------------------------------------------*/
  46:Core/Src/main.c **** ADC_HandleTypeDef hadc1;
  47:Core/Src/main.c **** DMA_HandleTypeDef hdma_adc1;
  48:Core/Src/main.c **** 
  49:Core/Src/main.c **** UART_HandleTypeDef hlpuart1;
  50:Core/Src/main.c **** UART_HandleTypeDef huart4;
  51:Core/Src/main.c **** DMA_HandleTypeDef hdma_lpuart1_rx;
  52:Core/Src/main.c **** 
  53:Core/Src/main.c **** SPI_HandleTypeDef hspi1;
  54:Core/Src/main.c **** 
  55:Core/Src/main.c **** TIM_HandleTypeDef htim2;
  56:Core/Src/main.c **** TIM_HandleTypeDef htim3;
  57:Core/Src/main.c **** TIM_HandleTypeDef htim4;
  58:Core/Src/main.c **** TIM_HandleTypeDef htim5;
  59:Core/Src/main.c **** 
  60:Core/Src/main.c **** PCD_HandleTypeDef hpcd_USB_OTG_FS;
  61:Core/Src/main.c **** 
  62:Core/Src/main.c **** /* USER CODE BEGIN PV */
  63:Core/Src/main.c **** uint16_t step = 0;
  64:Core/Src/main.c **** uint32_t last_time = 0;
  65:Core/Src/main.c **** uint32_t value[ADC_CHANNELS];
  66:Core/Src/main.c **** /* USER CODE END PV */
  67:Core/Src/main.c **** 
  68:Core/Src/main.c **** /* Private function prototypes -----------------------------------------------*/
  69:Core/Src/main.c **** void SystemClock_Config(void);
ARM GAS  C:\Users\Morroway\AppData\Local\Temp\ccKhlCKS.s 			page 5


  70:Core/Src/main.c **** static void MX_GPIO_Init(void);
  71:Core/Src/main.c **** static void MX_DMA_Init(void);
  72:Core/Src/main.c **** static void MX_LPUART1_UART_Init(void);
  73:Core/Src/main.c **** static void MX_USB_OTG_FS_PCD_Init(void);
  74:Core/Src/main.c **** static void MX_TIM4_Init(void);
  75:Core/Src/main.c **** static void MX_UART4_Init(void);
  76:Core/Src/main.c **** static void MX_TIM3_Init(void);
  77:Core/Src/main.c **** static void MX_ADC1_Init(void);
  78:Core/Src/main.c **** static void MX_TIM5_Init(void);
  79:Core/Src/main.c **** static void MX_TIM2_Init(void);
  80:Core/Src/main.c **** static void MX_SPI1_Init(void);
  81:Core/Src/main.c **** /* USER CODE BEGIN PFP */
  82:Core/Src/main.c **** /* USER CODE END PFP */
  83:Core/Src/main.c **** 
  84:Core/Src/main.c **** /* Private user code ---------------------------------------------------------*/
  85:Core/Src/main.c **** /* USER CODE BEGIN 0 */
  86:Core/Src/main.c **** 
  87:Core/Src/main.c **** void HAL_UARTEx_RxEventCallback(UART_HandleTypeDef *huart, uint16_t Size)
  88:Core/Src/main.c **** {
 139              		.loc 1 88 1
 140              		.cfi_startproc
 141              		@ args = 0, pretend = 0, frame = 8
 142              		@ frame_needed = 1, uses_anonymous_args = 0
 143 0000 80B5     		push	{r7, lr}
 144              		.cfi_def_cfa_offset 8
 145              		.cfi_offset 7, -8
 146              		.cfi_offset 14, -4
 147 0002 82B0     		sub	sp, sp, #8
 148              		.cfi_def_cfa_offset 16
 149 0004 00AF     		add	r7, sp, #0
 150              		.cfi_def_cfa_register 7
 151 0006 7860     		str	r0, [r7, #4]
 152 0008 0B46     		mov	r3, r1
 153 000a 7B80     		strh	r3, [r7, #2]	@ movhi
  89:Core/Src/main.c ****   if (huart->Instance == LPUART1)
 154              		.loc 1 89 12
 155 000c 7B68     		ldr	r3, [r7, #4]
 156 000e 1B68     		ldr	r3, [r3]
 157              		.loc 1 89 6
 158 0010 094A     		ldr	r2, .L4
 159 0012 9342     		cmp	r3, r2
 160 0014 0CD1     		bne	.L3
  90:Core/Src/main.c ****   {
  91:Core/Src/main.c ****     HAL_UARTEx_ReceiveToIdle_DMA(&hlpuart1, (uint8_t *)RxBuf, RxBuf_SIZE);
 161              		.loc 1 91 5
 162 0016 1422     		movs	r2, #20
 163 0018 0849     		ldr	r1, .L4+4
 164 001a 0948     		ldr	r0, .L4+8
 165 001c FFF7FEFF 		bl	HAL_UARTEx_ReceiveToIdle_DMA
  92:Core/Src/main.c ****     __HAL_DMA_DISABLE_IT(&hdma_lpuart1_rx, DMA_IT_HT);
 166              		.loc 1 92 5
 167 0020 084B     		ldr	r3, .L4+12
 168 0022 1B68     		ldr	r3, [r3]
 169 0024 1A68     		ldr	r2, [r3]
 170 0026 074B     		ldr	r3, .L4+12
 171 0028 1B68     		ldr	r3, [r3]
 172 002a 22F00402 		bic	r2, r2, #4
ARM GAS  C:\Users\Morroway\AppData\Local\Temp\ccKhlCKS.s 			page 6


 173 002e 1A60     		str	r2, [r3]
 174              	.L3:
  93:Core/Src/main.c ****   }
  94:Core/Src/main.c **** }
 175              		.loc 1 94 1
 176 0030 00BF     		nop
 177 0032 0837     		adds	r7, r7, #8
 178              		.cfi_def_cfa_offset 8
 179 0034 BD46     		mov	sp, r7
 180              		.cfi_def_cfa_register 13
 181              		@ sp needed
 182 0036 80BD     		pop	{r7, pc}
 183              	.L5:
 184              		.align	2
 185              	.L4:
 186 0038 00800040 		.word	1073774592
 187 003c 00000000 		.word	RxBuf
 188 0040 00000000 		.word	hlpuart1
 189 0044 00000000 		.word	hdma_lpuart1_rx
 190              		.cfi_endproc
 191              	.LFE325:
 193              		.section	.text.DelayMicrosecond,"ax",%progbits
 194              		.align	1
 195              		.global	DelayMicrosecond
 196              		.syntax unified
 197              		.thumb
 198              		.thumb_func
 200              	DelayMicrosecond:
 201              	.LFB326:
  95:Core/Src/main.c **** 
  96:Core/Src/main.c **** void DelayMicrosecond(uint16_t time)
  97:Core/Src/main.c **** {
 202              		.loc 1 97 1
 203              		.cfi_startproc
 204              		@ args = 0, pretend = 0, frame = 8
 205              		@ frame_needed = 1, uses_anonymous_args = 0
 206              		@ link register save eliminated.
 207 0000 80B4     		push	{r7}
 208              		.cfi_def_cfa_offset 4
 209              		.cfi_offset 7, -4
 210 0002 83B0     		sub	sp, sp, #12
 211              		.cfi_def_cfa_offset 16
 212 0004 00AF     		add	r7, sp, #0
 213              		.cfi_def_cfa_register 7
 214 0006 0346     		mov	r3, r0
 215 0008 FB80     		strh	r3, [r7, #6]	@ movhi
  98:Core/Src/main.c ****   __HAL_TIM_SET_COUNTER(&htim4, 0);
 216              		.loc 1 98 3
 217 000a 094B     		ldr	r3, .L8
 218 000c 1B68     		ldr	r3, [r3]
 219 000e 0022     		movs	r2, #0
 220 0010 5A62     		str	r2, [r3, #36]
  99:Core/Src/main.c ****   while (__HAL_TIM_GET_COUNTER(&htim4) < time)
 221              		.loc 1 99 9
 222 0012 00BF     		nop
 223              	.L7:
 224              		.loc 1 99 10 discriminator 1
ARM GAS  C:\Users\Morroway\AppData\Local\Temp\ccKhlCKS.s 			page 7


 225 0014 064B     		ldr	r3, .L8
 226 0016 1B68     		ldr	r3, [r3]
 227 0018 5A6A     		ldr	r2, [r3, #36]
 228              		.loc 1 99 40 discriminator 1
 229 001a FB88     		ldrh	r3, [r7, #6]
 230 001c 9A42     		cmp	r2, r3
 231 001e F9D3     		bcc	.L7
 100:Core/Src/main.c ****     ;
 101:Core/Src/main.c **** }
 232              		.loc 1 101 1
 233 0020 00BF     		nop
 234 0022 00BF     		nop
 235 0024 0C37     		adds	r7, r7, #12
 236              		.cfi_def_cfa_offset 4
 237 0026 BD46     		mov	sp, r7
 238              		.cfi_def_cfa_register 13
 239              		@ sp needed
 240 0028 5DF8047B 		ldr	r7, [sp], #4
 241              		.cfi_restore 7
 242              		.cfi_def_cfa_offset 0
 243 002c 7047     		bx	lr
 244              	.L9:
 245 002e 00BF     		.align	2
 246              	.L8:
 247 0030 00000000 		.word	htim4
 248              		.cfi_endproc
 249              	.LFE326:
 251              		.section	.text.GetTicks,"ax",%progbits
 252              		.align	1
 253              		.global	GetTicks
 254              		.syntax unified
 255              		.thumb
 256              		.thumb_func
 258              	GetTicks:
 259              	.LFB327:
 102:Core/Src/main.c **** 
 103:Core/Src/main.c **** int GetTicks()
 104:Core/Src/main.c **** {
 260              		.loc 1 104 1
 261              		.cfi_startproc
 262              		@ args = 0, pretend = 0, frame = 0
 263              		@ frame_needed = 1, uses_anonymous_args = 0
 264              		@ link register save eliminated.
 265 0000 80B4     		push	{r7}
 266              		.cfi_def_cfa_offset 4
 267              		.cfi_offset 7, -4
 268 0002 00AF     		add	r7, sp, #0
 269              		.cfi_def_cfa_register 7
 105:Core/Src/main.c ****   return __HAL_TIM_GET_COUNTER(&htim5);
 270              		.loc 1 105 10
 271 0004 034B     		ldr	r3, .L12
 272 0006 1B68     		ldr	r3, [r3]
 273 0008 5B6A     		ldr	r3, [r3, #36]
 106:Core/Src/main.c **** }
 274              		.loc 1 106 1
 275 000a 1846     		mov	r0, r3
 276 000c BD46     		mov	sp, r7
ARM GAS  C:\Users\Morroway\AppData\Local\Temp\ccKhlCKS.s 			page 8


 277              		.cfi_def_cfa_register 13
 278              		@ sp needed
 279 000e 5DF8047B 		ldr	r7, [sp], #4
 280              		.cfi_restore 7
 281              		.cfi_def_cfa_offset 0
 282 0012 7047     		bx	lr
 283              	.L13:
 284              		.align	2
 285              	.L12:
 286 0014 00000000 		.word	htim5
 287              		.cfi_endproc
 288              	.LFE327:
 290              		.section	.rodata
 291              		.align	2
 292              	.LC0:
 293 0000 74656D70 		.ascii	"temp: %f, value: %d\015\012\000"
 293      3A202566 
 293      2C207661 
 293      6C75653A 
 293      2025640D 
 294              		.section	.text.print_temperature,"ax",%progbits
 295              		.align	1
 296              		.global	print_temperature
 297              		.syntax unified
 298              		.thumb
 299              		.thumb_func
 301              	print_temperature:
 302              	.LFB328:
 107:Core/Src/main.c **** 
 108:Core/Src/main.c **** void print_temperature()
 109:Core/Src/main.c **** {
 303              		.loc 1 109 1
 304              		.cfi_startproc
 305              		@ args = 0, pretend = 0, frame = 0
 306              		@ frame_needed = 1, uses_anonymous_args = 0
 307 0000 80B5     		push	{r7, lr}
 308              		.cfi_def_cfa_offset 8
 309              		.cfi_offset 7, -8
 310              		.cfi_offset 14, -4
 311 0002 82B0     		sub	sp, sp, #8
 312              		.cfi_def_cfa_offset 16
 313 0004 02AF     		add	r7, sp, #8
 314              		.cfi_def_cfa 7, 8
 110:Core/Src/main.c ****   sprintf(msg_buffer, "temp: %f, value: %d\r\n", GetTemperature(ADC_HOT_END, value[ADC_HOT_END]), v
 315              		.loc 1 110 83
 316 0006 104B     		ldr	r3, .L15
 317 0008 5B68     		ldr	r3, [r3, #4]
 318              		.loc 1 110 3
 319 000a 9BB2     		uxth	r3, r3
 320 000c 1946     		mov	r1, r3
 321 000e 0120     		movs	r0, #1
 322 0010 FFF7FEFF 		bl	GetTemperature
 323 0014 51EC100B 		vmov	r0, r1, d0
 324 0018 0B4B     		ldr	r3, .L15
 325 001a 5B68     		ldr	r3, [r3, #4]
 326 001c 0093     		str	r3, [sp]
 327 001e 0246     		mov	r2, r0
ARM GAS  C:\Users\Morroway\AppData\Local\Temp\ccKhlCKS.s 			page 9


 328 0020 0B46     		mov	r3, r1
 329 0022 0A49     		ldr	r1, .L15+4
 330 0024 0A48     		ldr	r0, .L15+8
 331 0026 FFF7FEFF 		bl	sprintf
 111:Core/Src/main.c ****   HAL_UART_Transmit(&hlpuart1, (uint16_t *)msg_buffer, strlen(msg_buffer), HAL_MAX_DELAY);
 332              		.loc 1 111 56
 333 002a 0948     		ldr	r0, .L15+8
 334 002c FFF7FEFF 		bl	strlen
 335 0030 0346     		mov	r3, r0
 336              		.loc 1 111 3
 337 0032 9AB2     		uxth	r2, r3
 338 0034 4FF0FF33 		mov	r3, #-1
 339 0038 0549     		ldr	r1, .L15+8
 340 003a 0648     		ldr	r0, .L15+12
 341 003c FFF7FEFF 		bl	HAL_UART_Transmit
 112:Core/Src/main.c **** }
 342              		.loc 1 112 1
 343 0040 00BF     		nop
 344 0042 BD46     		mov	sp, r7
 345              		.cfi_def_cfa_register 13
 346              		@ sp needed
 347 0044 80BD     		pop	{r7, pc}
 348              	.L16:
 349 0046 00BF     		.align	2
 350              	.L15:
 351 0048 00000000 		.word	value
 352 004c 00000000 		.word	.LC0
 353 0050 00000000 		.word	msg_buffer
 354 0054 00000000 		.word	hlpuart1
 355              		.cfi_endproc
 356              	.LFE328:
 358              		.section	.text.main,"ax",%progbits
 359              		.align	1
 360              		.global	main
 361              		.syntax unified
 362              		.thumb
 363              		.thumb_func
 365              	main:
 366              	.LFB329:
 113:Core/Src/main.c **** /* USER CODE END 0 */
 114:Core/Src/main.c **** 
 115:Core/Src/main.c **** /**
 116:Core/Src/main.c ****   * @brief  The application entry point.
 117:Core/Src/main.c ****   * @retval int
 118:Core/Src/main.c ****   */
 119:Core/Src/main.c **** int main(void)
 120:Core/Src/main.c **** {
 367              		.loc 1 120 1
 368              		.cfi_startproc
 369              		@ args = 0, pretend = 0, frame = 16
 370              		@ frame_needed = 1, uses_anonymous_args = 0
 371 0000 80B5     		push	{r7, lr}
 372              		.cfi_def_cfa_offset 8
 373              		.cfi_offset 7, -8
 374              		.cfi_offset 14, -4
 375 0002 84B0     		sub	sp, sp, #16
 376              		.cfi_def_cfa_offset 24
ARM GAS  C:\Users\Morroway\AppData\Local\Temp\ccKhlCKS.s 			page 10


 377 0004 00AF     		add	r7, sp, #0
 378              		.cfi_def_cfa_register 7
 121:Core/Src/main.c ****   /* USER CODE BEGIN 1 */
 122:Core/Src/main.c ****   // last_time = HAL_GetTick();
 123:Core/Src/main.c ****   /* USER CODE END 1 */
 124:Core/Src/main.c **** 
 125:Core/Src/main.c ****   /* MCU Configuration--------------------------------------------------------*/
 126:Core/Src/main.c **** 
 127:Core/Src/main.c ****   /* Reset of all peripherals, Initializes the Flash interface and the Systick. */
 128:Core/Src/main.c ****   HAL_Init();
 379              		.loc 1 128 3
 380 0006 FFF7FEFF 		bl	HAL_Init
 129:Core/Src/main.c **** 
 130:Core/Src/main.c ****   /* USER CODE BEGIN Init */
 131:Core/Src/main.c **** 
 132:Core/Src/main.c ****   /* USER CODE END Init */
 133:Core/Src/main.c **** 
 134:Core/Src/main.c ****   /* Configure the system clock */
 135:Core/Src/main.c ****   SystemClock_Config();
 381              		.loc 1 135 3
 382 000a FFF7FEFF 		bl	SystemClock_Config
 136:Core/Src/main.c **** 
 137:Core/Src/main.c ****   /* USER CODE BEGIN SysInit */
 138:Core/Src/main.c **** 
 139:Core/Src/main.c ****   /* USER CODE END SysInit */
 140:Core/Src/main.c **** 
 141:Core/Src/main.c ****   /* Initialize all configured peripherals */
 142:Core/Src/main.c ****   MX_GPIO_Init();
 383              		.loc 1 142 3
 384 000e FFF7FEFF 		bl	MX_GPIO_Init
 143:Core/Src/main.c ****   MX_DMA_Init();
 385              		.loc 1 143 3
 386 0012 FFF7FEFF 		bl	MX_DMA_Init
 144:Core/Src/main.c ****   MX_LPUART1_UART_Init();
 387              		.loc 1 144 3
 388 0016 FFF7FEFF 		bl	MX_LPUART1_UART_Init
 145:Core/Src/main.c ****   MX_USB_OTG_FS_PCD_Init();
 389              		.loc 1 145 3
 390 001a FFF7FEFF 		bl	MX_USB_OTG_FS_PCD_Init
 146:Core/Src/main.c ****   MX_TIM4_Init();
 391              		.loc 1 146 3
 392 001e FFF7FEFF 		bl	MX_TIM4_Init
 147:Core/Src/main.c ****   MX_UART4_Init();
 393              		.loc 1 147 3
 394 0022 FFF7FEFF 		bl	MX_UART4_Init
 148:Core/Src/main.c ****   MX_TIM3_Init();
 395              		.loc 1 148 3
 396 0026 FFF7FEFF 		bl	MX_TIM3_Init
 149:Core/Src/main.c ****   MX_ADC1_Init();
 397              		.loc 1 149 3
 398 002a FFF7FEFF 		bl	MX_ADC1_Init
 150:Core/Src/main.c ****   MX_TIM5_Init();
 399              		.loc 1 150 3
 400 002e FFF7FEFF 		bl	MX_TIM5_Init
 151:Core/Src/main.c ****   MX_TIM2_Init();
 401              		.loc 1 151 3
 402 0032 FFF7FEFF 		bl	MX_TIM2_Init
ARM GAS  C:\Users\Morroway\AppData\Local\Temp\ccKhlCKS.s 			page 11


 152:Core/Src/main.c ****   MX_SPI1_Init();
 403              		.loc 1 152 3
 404 0036 FFF7FEFF 		bl	MX_SPI1_Init
 153:Core/Src/main.c ****   /* USER CODE BEGIN 2 */
 154:Core/Src/main.c ****   HAL_TIM_PWM_Start(&htim3, TIM_CHANNEL_1);
 405              		.loc 1 154 3
 406 003a 0021     		movs	r1, #0
 407 003c 4E48     		ldr	r0, .L24
 408 003e FFF7FEFF 		bl	HAL_TIM_PWM_Start
 155:Core/Src/main.c ****   HAL_TIM_PWM_Start(&htim3, TIM_CHANNEL_2);
 409              		.loc 1 155 3
 410 0042 0421     		movs	r1, #4
 411 0044 4C48     		ldr	r0, .L24
 412 0046 FFF7FEFF 		bl	HAL_TIM_PWM_Start
 156:Core/Src/main.c ****   HAL_TIM_PWM_Start(&htim3, TIM_CHANNEL_3);
 413              		.loc 1 156 3
 414 004a 0821     		movs	r1, #8
 415 004c 4A48     		ldr	r0, .L24
 416 004e FFF7FEFF 		bl	HAL_TIM_PWM_Start
 157:Core/Src/main.c ****   HAL_ADC_Start_DMA(&hadc1, value, ADC_CHANNELS);
 417              		.loc 1 157 3
 418 0052 0322     		movs	r2, #3
 419 0054 4949     		ldr	r1, .L24+4
 420 0056 4A48     		ldr	r0, .L24+8
 421 0058 FFF7FEFF 		bl	HAL_ADC_Start_DMA
 158:Core/Src/main.c ****   HAL_TIM_Base_Start(&htim4);
 422              		.loc 1 158 3
 423 005c 4948     		ldr	r0, .L24+12
 424 005e FFF7FEFF 		bl	HAL_TIM_Base_Start
 159:Core/Src/main.c ****   HAL_TIM_Base_Start(&htim5);
 425              		.loc 1 159 3
 426 0062 4948     		ldr	r0, .L24+16
 427 0064 FFF7FEFF 		bl	HAL_TIM_Base_Start
 160:Core/Src/main.c ****   HAL_UARTEx_ReceiveToIdle_DMA(&hlpuart1, RxBuf, RxBuf_SIZE);
 428              		.loc 1 160 3
 429 0068 1422     		movs	r2, #20
 430 006a 4849     		ldr	r1, .L24+20
 431 006c 4848     		ldr	r0, .L24+24
 432 006e FFF7FEFF 		bl	HAL_UARTEx_ReceiveToIdle_DMA
 161:Core/Src/main.c ****   __HAL_DMA_DISABLE_IT(&hdma_lpuart1_rx, DMA_IT_HT);
 433              		.loc 1 161 3
 434 0072 484B     		ldr	r3, .L24+28
 435 0074 1B68     		ldr	r3, [r3]
 436 0076 1A68     		ldr	r2, [r3]
 437 0078 464B     		ldr	r3, .L24+28
 438 007a 1B68     		ldr	r3, [r3]
 439 007c 22F00402 		bic	r2, r2, #4
 440 0080 1A60     		str	r2, [r3]
 162:Core/Src/main.c ****   memset(&RxBuf[0], 0, sizeof(RxBuf));
 441              		.loc 1 162 3
 442 0082 1422     		movs	r2, #20
 443 0084 0021     		movs	r1, #0
 444 0086 4148     		ldr	r0, .L24+20
 445 0088 FFF7FEFF 		bl	memset
 163:Core/Src/main.c ****   reset_args();
 446              		.loc 1 163 3
 447 008c FFF7FEFF 		bl	reset_args
ARM GAS  C:\Users\Morroway\AppData\Local\Temp\ccKhlCKS.s 			page 12


 164:Core/Src/main.c ****   int steps = 0;
 448              		.loc 1 164 7
 449 0090 0023     		movs	r3, #0
 450 0092 FB60     		str	r3, [r7, #12]
 165:Core/Src/main.c ****   uint32_t lasttimeX = 0;
 451              		.loc 1 165 12
 452 0094 0023     		movs	r3, #0
 453 0096 7B60     		str	r3, [r7, #4]
 166:Core/Src/main.c ****   uint32_t lasttimeY = 0;
 454              		.loc 1 166 12
 455 0098 0023     		movs	r3, #0
 456 009a BB60     		str	r3, [r7, #8]
 457              	.L23:
 167:Core/Src/main.c ****   /* USER CODE END 2 */
 168:Core/Src/main.c **** 
 169:Core/Src/main.c ****   /* Infinite loop */
 170:Core/Src/main.c ****   /* USER CODE BEGIN WHILE */
 171:Core/Src/main.c ****   while (1)
 172:Core/Src/main.c ****   {
 173:Core/Src/main.c ****     if (RxBuf[0] != 0 && isRunning == false)
 458              		.loc 1 173 14
 459 009c 3B4B     		ldr	r3, .L24+20
 460 009e 1B78     		ldrb	r3, [r3]	@ zero_extendqisi2
 461              		.loc 1 173 8
 462 00a0 002B     		cmp	r3, #0
 463 00a2 0ED0     		beq	.L18
 464              		.loc 1 173 36 discriminator 1
 465 00a4 3C4B     		ldr	r3, .L24+32
 466 00a6 1B78     		ldrb	r3, [r3]	@ zero_extendqisi2
 467 00a8 83F00103 		eor	r3, r3, #1
 468 00ac DBB2     		uxtb	r3, r3
 469              		.loc 1 173 23 discriminator 1
 470 00ae 002B     		cmp	r3, #0
 471 00b0 07D0     		beq	.L18
 174:Core/Src/main.c ****     {
 175:Core/Src/main.c ****       get_command(RxBuf);
 472              		.loc 1 175 7
 473 00b2 3648     		ldr	r0, .L24+20
 474 00b4 FFF7FEFF 		bl	get_command
 176:Core/Src/main.c ****       memset(&RxBuf[0], 0, sizeof(RxBuf));
 475              		.loc 1 176 7
 476 00b8 1422     		movs	r2, #20
 477 00ba 0021     		movs	r1, #0
 478 00bc 3348     		ldr	r0, .L24+20
 479 00be FFF7FEFF 		bl	memset
 480              	.L18:
 177:Core/Src/main.c ****     }
 178:Core/Src/main.c **** 
 179:Core/Src/main.c ****     if (HAL_GetTick() - last_time > interval && interval > 0)
 481              		.loc 1 179 9
 482 00c2 FFF7FEFF 		bl	HAL_GetTick
 483 00c6 0246     		mov	r2, r0
 484              		.loc 1 179 23
 485 00c8 344B     		ldr	r3, .L24+36
 486 00ca 1B68     		ldr	r3, [r3]
 487 00cc D31A     		subs	r3, r2, r3
 488              		.loc 1 179 35
ARM GAS  C:\Users\Morroway\AppData\Local\Temp\ccKhlCKS.s 			page 13


 489 00ce 344A     		ldr	r2, .L24+40
 490 00d0 1288     		ldrh	r2, [r2]
 491              		.loc 1 179 8
 492 00d2 9342     		cmp	r3, r2
 493 00d4 0CD9     		bls	.L19
 494              		.loc 1 179 58 discriminator 1
 495 00d6 324B     		ldr	r3, .L24+40
 496 00d8 1B88     		ldrh	r3, [r3]
 497              		.loc 1 179 46 discriminator 1
 498 00da 002B     		cmp	r3, #0
 499 00dc 08D0     		beq	.L19
 180:Core/Src/main.c ****     {
 181:Core/Src/main.c ****       M105(0, 0);
 500              		.loc 1 181 7
 501 00de 0021     		movs	r1, #0
 502 00e0 0020     		movs	r0, #0
 503 00e2 FFF7FEFF 		bl	M105
 182:Core/Src/main.c ****       last_time = HAL_GetTick();
 504              		.loc 1 182 19
 505 00e6 FFF7FEFF 		bl	HAL_GetTick
 506 00ea 0346     		mov	r3, r0
 507              		.loc 1 182 17
 508 00ec 2B4A     		ldr	r2, .L24+36
 509 00ee 1360     		str	r3, [r2]
 510              	.L19:
 183:Core/Src/main.c ****     }
 184:Core/Src/main.c ****    
 185:Core/Src/main.c **** 
 186:Core/Src/main.c ****     if(READ_PIN(X_STOP_PIN) != 1 && READ_PIN(Y_STOP_PIN) != 1) {
 511              		.loc 1 186 8
 512 00f0 1021     		movs	r1, #16
 513 00f2 2C48     		ldr	r0, .L24+44
 514 00f4 FFF7FEFF 		bl	HAL_GPIO_ReadPin
 515 00f8 0346     		mov	r3, r0
 516              		.loc 1 186 7
 517 00fa 012B     		cmp	r3, #1
 518 00fc 08D0     		beq	.L20
 519              		.loc 1 186 37 discriminator 1
 520 00fe 2021     		movs	r1, #32
 521 0100 2848     		ldr	r0, .L24+44
 522 0102 FFF7FEFF 		bl	HAL_GPIO_ReadPin
 523 0106 0346     		mov	r3, r0
 524              		.loc 1 186 34 discriminator 1
 525 0108 012B     		cmp	r3, #1
 526 010a 01D0     		beq	.L20
 187:Core/Src/main.c ****       G0();
 527              		.loc 1 187 7
 528 010c FFF7FEFF 		bl	G0
 529              	.L20:
 188:Core/Src/main.c ****     }
 189:Core/Src/main.c ****     M104();
 530              		.loc 1 189 5
 531 0110 FFF7FEFF 		bl	M104
 190:Core/Src/main.c ****     if (steps <= 6500)
 532              		.loc 1 190 8
 533 0114 FB68     		ldr	r3, [r7, #12]
 534 0116 41F66412 		movw	r2, #6500
ARM GAS  C:\Users\Morroway\AppData\Local\Temp\ccKhlCKS.s 			page 14


 535 011a 9342     		cmp	r3, r2
 536 011c 10DC     		bgt	.L21
 191:Core/Src/main.c ****     {
 192:Core/Src/main.c ****       CHANGE_MOTOR_DIR(Z_AXIS_DIR, COUNTERCLOCKWISE);
 537              		.loc 1 192 7
 538 011e 0122     		movs	r2, #1
 539 0120 4FF48071 		mov	r1, #256
 540 0124 1F48     		ldr	r0, .L24+44
 541 0126 FFF7FEFF 		bl	HAL_GPIO_WritePin
 193:Core/Src/main.c ****       MAKE_MOTOR_STEP(Z_AXIS_STEP);
 542              		.loc 1 193 7
 543 012a 0221     		movs	r1, #2
 544 012c 1E48     		ldr	r0, .L24+48
 545 012e FFF7FEFF 		bl	HAL_GPIO_TogglePin
 194:Core/Src/main.c ****       DelayMicrosecond(600);
 546              		.loc 1 194 7
 547 0132 4FF41670 		mov	r0, #600
 548 0136 FFF7FEFF 		bl	DelayMicrosecond
 195:Core/Src/main.c ****       steps++;
 549              		.loc 1 195 12
 550 013a FB68     		ldr	r3, [r7, #12]
 551 013c 0133     		adds	r3, r3, #1
 552 013e FB60     		str	r3, [r7, #12]
 553              	.L21:
 196:Core/Src/main.c ****     }
 197:Core/Src/main.c ****     if(READ_PIN(USER_BUTTON) == 1)
 554              		.loc 1 197 8
 555 0140 4FF40051 		mov	r1, #8192
 556 0144 1948     		ldr	r0, .L24+52
 557 0146 FFF7FEFF 		bl	HAL_GPIO_ReadPin
 558 014a 0346     		mov	r3, r0
 559              		.loc 1 197 7
 560 014c 012B     		cmp	r3, #1
 561 014e A5D1     		bne	.L23
 198:Core/Src/main.c ****     {
 199:Core/Src/main.c ****       //CHANGE_MOTOR_DIR(Y_AXIS_DIR, COUNTERCLOCKWISE);
 200:Core/Src/main.c ****       // if(GetTicks() - lasttimeX >= 800)
 201:Core/Src/main.c ****       // {
 202:Core/Src/main.c ****       //     MAKE_MOTOR_STEP(X_AXIS_STEP);
 203:Core/Src/main.c ****       //     lasttimeX = GetTicks();
 204:Core/Src/main.c ****       // }
 205:Core/Src/main.c ****       if(GetTicks() - lasttimeY >= 2000)
 562              		.loc 1 205 10
 563 0150 FFF7FEFF 		bl	GetTicks
 564 0154 0346     		mov	r3, r0
 565 0156 1A46     		mov	r2, r3
 566              		.loc 1 205 21
 567 0158 BB68     		ldr	r3, [r7, #8]
 568 015a D31A     		subs	r3, r2, r3
 569              		.loc 1 205 9
 570 015c B3F5FA6F 		cmp	r3, #2000
 571 0160 9CD3     		bcc	.L23
 206:Core/Src/main.c ****       {
 207:Core/Src/main.c ****           MAKE_MOTOR_STEP(Y_AXIS_STEP);
 572              		.loc 1 207 11
 573 0162 8021     		movs	r1, #128
 574 0164 4FF09040 		mov	r0, #1207959552
ARM GAS  C:\Users\Morroway\AppData\Local\Temp\ccKhlCKS.s 			page 15


 575 0168 FFF7FEFF 		bl	HAL_GPIO_TogglePin
 208:Core/Src/main.c ****           lasttimeY = GetTicks();
 576              		.loc 1 208 23
 577 016c FFF7FEFF 		bl	GetTicks
 578 0170 0346     		mov	r3, r0
 579              		.loc 1 208 21
 580 0172 BB60     		str	r3, [r7, #8]
 173:Core/Src/main.c ****     {
 581              		.loc 1 173 8
 582 0174 92E7     		b	.L23
 583              	.L25:
 584 0176 00BF     		.align	2
 585              	.L24:
 586 0178 00000000 		.word	htim3
 587 017c 00000000 		.word	value
 588 0180 00000000 		.word	hadc1
 589 0184 00000000 		.word	htim4
 590 0188 00000000 		.word	htim5
 591 018c 00000000 		.word	RxBuf
 592 0190 00000000 		.word	hlpuart1
 593 0194 00000000 		.word	hdma_lpuart1_rx
 594 0198 00000000 		.word	isRunning
 595 019c 00000000 		.word	last_time
 596 01a0 00000000 		.word	interval
 597 01a4 00140048 		.word	1207964672
 598 01a8 00040048 		.word	1207960576
 599 01ac 00080048 		.word	1207961600
 600              		.cfi_endproc
 601              	.LFE329:
 603              		.section	.text.SystemClock_Config,"ax",%progbits
 604              		.align	1
 605              		.global	SystemClock_Config
 606              		.syntax unified
 607              		.thumb
 608              		.thumb_func
 610              	SystemClock_Config:
 611              	.LFB330:
 209:Core/Src/main.c ****       }
 210:Core/Src/main.c ****     }
 211:Core/Src/main.c ****     /* USER CODE END WHILE */
 212:Core/Src/main.c **** 
 213:Core/Src/main.c ****     /* USER CODE BEGIN 3 */
 214:Core/Src/main.c ****   }
 215:Core/Src/main.c ****   /* USER CODE END 3 */
 216:Core/Src/main.c **** }
 217:Core/Src/main.c **** 
 218:Core/Src/main.c **** /**
 219:Core/Src/main.c ****   * @brief System Clock Configuration
 220:Core/Src/main.c ****   * @retval None
 221:Core/Src/main.c ****   */
 222:Core/Src/main.c **** void SystemClock_Config(void)
 223:Core/Src/main.c **** {
 612              		.loc 1 223 1
 613              		.cfi_startproc
 614              		@ args = 0, pretend = 0, frame = 96
 615              		@ frame_needed = 1, uses_anonymous_args = 0
 616 0000 80B5     		push	{r7, lr}
ARM GAS  C:\Users\Morroway\AppData\Local\Temp\ccKhlCKS.s 			page 16


 617              		.cfi_def_cfa_offset 8
 618              		.cfi_offset 7, -8
 619              		.cfi_offset 14, -4
 620 0002 98B0     		sub	sp, sp, #96
 621              		.cfi_def_cfa_offset 104
 622 0004 00AF     		add	r7, sp, #0
 623              		.cfi_def_cfa_register 7
 224:Core/Src/main.c ****   RCC_OscInitTypeDef RCC_OscInitStruct = {0};
 624              		.loc 1 224 22
 625 0006 07F11803 		add	r3, r7, #24
 626 000a 4822     		movs	r2, #72
 627 000c 0021     		movs	r1, #0
 628 000e 1846     		mov	r0, r3
 629 0010 FFF7FEFF 		bl	memset
 225:Core/Src/main.c ****   RCC_ClkInitTypeDef RCC_ClkInitStruct = {0};
 630              		.loc 1 225 22
 631 0014 3B1D     		adds	r3, r7, #4
 632 0016 0022     		movs	r2, #0
 633 0018 1A60     		str	r2, [r3]
 634 001a 5A60     		str	r2, [r3, #4]
 635 001c 9A60     		str	r2, [r3, #8]
 636 001e DA60     		str	r2, [r3, #12]
 637 0020 1A61     		str	r2, [r3, #16]
 226:Core/Src/main.c **** 
 227:Core/Src/main.c ****   /** Configure the main internal regulator output voltage
 228:Core/Src/main.c ****   */
 229:Core/Src/main.c ****   if (HAL_PWREx_ControlVoltageScaling(PWR_REGULATOR_VOLTAGE_SCALE1_BOOST) != HAL_OK)
 638              		.loc 1 229 7
 639 0022 0020     		movs	r0, #0
 640 0024 FFF7FEFF 		bl	HAL_PWREx_ControlVoltageScaling
 641 0028 0346     		mov	r3, r0
 642              		.loc 1 229 6
 643 002a 002B     		cmp	r3, #0
 644 002c 01D0     		beq	.L27
 230:Core/Src/main.c ****   {
 231:Core/Src/main.c ****     Error_Handler();
 645              		.loc 1 231 5
 646 002e FFF7FEFF 		bl	Error_Handler
 647              	.L27:
 232:Core/Src/main.c ****   }
 233:Core/Src/main.c **** 
 234:Core/Src/main.c ****   /** Initializes the RCC Oscillators according to the specified parameters
 235:Core/Src/main.c ****   * in the RCC_OscInitTypeDef structure.
 236:Core/Src/main.c ****   */
 237:Core/Src/main.c ****   RCC_OscInitStruct.OscillatorType = RCC_OSCILLATORTYPE_HSI48|RCC_OSCILLATORTYPE_MSI;
 648              		.loc 1 237 36
 649 0032 3023     		movs	r3, #48
 650 0034 BB61     		str	r3, [r7, #24]
 238:Core/Src/main.c ****   RCC_OscInitStruct.HSI48State = RCC_HSI48_ON;
 651              		.loc 1 238 32
 652 0036 0123     		movs	r3, #1
 653 0038 3B64     		str	r3, [r7, #64]
 239:Core/Src/main.c ****   RCC_OscInitStruct.MSIState = RCC_MSI_ON;
 654              		.loc 1 239 30
 655 003a 0123     		movs	r3, #1
 656 003c 7B63     		str	r3, [r7, #52]
 240:Core/Src/main.c ****   RCC_OscInitStruct.MSICalibrationValue = 0;
ARM GAS  C:\Users\Morroway\AppData\Local\Temp\ccKhlCKS.s 			page 17


 657              		.loc 1 240 41
 658 003e 0023     		movs	r3, #0
 659 0040 BB63     		str	r3, [r7, #56]
 241:Core/Src/main.c ****   RCC_OscInitStruct.MSIClockRange = RCC_MSIRANGE_6;
 660              		.loc 1 241 35
 661 0042 6023     		movs	r3, #96
 662 0044 FB63     		str	r3, [r7, #60]
 242:Core/Src/main.c ****   RCC_OscInitStruct.PLL.PLLState = RCC_PLL_ON;
 663              		.loc 1 242 34
 664 0046 0223     		movs	r3, #2
 665 0048 7B64     		str	r3, [r7, #68]
 243:Core/Src/main.c ****   RCC_OscInitStruct.PLL.PLLSource = RCC_PLLSOURCE_MSI;
 666              		.loc 1 243 35
 667 004a 0123     		movs	r3, #1
 668 004c BB64     		str	r3, [r7, #72]
 244:Core/Src/main.c ****   RCC_OscInitStruct.PLL.PLLM = 1;
 669              		.loc 1 244 30
 670 004e 0123     		movs	r3, #1
 671 0050 FB64     		str	r3, [r7, #76]
 245:Core/Src/main.c ****   RCC_OscInitStruct.PLL.PLLN = 60;
 672              		.loc 1 245 30
 673 0052 3C23     		movs	r3, #60
 674 0054 3B65     		str	r3, [r7, #80]
 246:Core/Src/main.c ****   RCC_OscInitStruct.PLL.PLLP = RCC_PLLP_DIV2;
 675              		.loc 1 246 30
 676 0056 0223     		movs	r3, #2
 677 0058 7B65     		str	r3, [r7, #84]
 247:Core/Src/main.c ****   RCC_OscInitStruct.PLL.PLLQ = RCC_PLLQ_DIV2;
 678              		.loc 1 247 30
 679 005a 0223     		movs	r3, #2
 680 005c BB65     		str	r3, [r7, #88]
 248:Core/Src/main.c ****   RCC_OscInitStruct.PLL.PLLR = RCC_PLLR_DIV2;
 681              		.loc 1 248 30
 682 005e 0223     		movs	r3, #2
 683 0060 FB65     		str	r3, [r7, #92]
 249:Core/Src/main.c ****   if (HAL_RCC_OscConfig(&RCC_OscInitStruct) != HAL_OK)
 684              		.loc 1 249 7
 685 0062 07F11803 		add	r3, r7, #24
 686 0066 1846     		mov	r0, r3
 687 0068 FFF7FEFF 		bl	HAL_RCC_OscConfig
 688 006c 0346     		mov	r3, r0
 689              		.loc 1 249 6
 690 006e 002B     		cmp	r3, #0
 691 0070 01D0     		beq	.L28
 250:Core/Src/main.c ****   {
 251:Core/Src/main.c ****     Error_Handler();
 692              		.loc 1 251 5
 693 0072 FFF7FEFF 		bl	Error_Handler
 694              	.L28:
 252:Core/Src/main.c ****   }
 253:Core/Src/main.c **** 
 254:Core/Src/main.c ****   /** Initializes the CPU, AHB and APB buses clocks
 255:Core/Src/main.c ****   */
 256:Core/Src/main.c ****   RCC_ClkInitStruct.ClockType = RCC_CLOCKTYPE_HCLK|RCC_CLOCKTYPE_SYSCLK
 695              		.loc 1 256 31
 696 0076 0F23     		movs	r3, #15
 697 0078 7B60     		str	r3, [r7, #4]
ARM GAS  C:\Users\Morroway\AppData\Local\Temp\ccKhlCKS.s 			page 18


 257:Core/Src/main.c ****                               |RCC_CLOCKTYPE_PCLK1|RCC_CLOCKTYPE_PCLK2;
 258:Core/Src/main.c ****   RCC_ClkInitStruct.SYSCLKSource = RCC_SYSCLKSOURCE_PLLCLK;
 698              		.loc 1 258 34
 699 007a 0323     		movs	r3, #3
 700 007c BB60     		str	r3, [r7, #8]
 259:Core/Src/main.c ****   RCC_ClkInitStruct.AHBCLKDivider = RCC_SYSCLK_DIV1;
 701              		.loc 1 259 35
 702 007e 0023     		movs	r3, #0
 703 0080 FB60     		str	r3, [r7, #12]
 260:Core/Src/main.c ****   RCC_ClkInitStruct.APB1CLKDivider = RCC_HCLK_DIV1;
 704              		.loc 1 260 36
 705 0082 0023     		movs	r3, #0
 706 0084 3B61     		str	r3, [r7, #16]
 261:Core/Src/main.c ****   RCC_ClkInitStruct.APB2CLKDivider = RCC_HCLK_DIV1;
 707              		.loc 1 261 36
 708 0086 0023     		movs	r3, #0
 709 0088 7B61     		str	r3, [r7, #20]
 262:Core/Src/main.c **** 
 263:Core/Src/main.c ****   if (HAL_RCC_ClockConfig(&RCC_ClkInitStruct, FLASH_LATENCY_5) != HAL_OK)
 710              		.loc 1 263 7
 711 008a 3B1D     		adds	r3, r7, #4
 712 008c 0521     		movs	r1, #5
 713 008e 1846     		mov	r0, r3
 714 0090 FFF7FEFF 		bl	HAL_RCC_ClockConfig
 715 0094 0346     		mov	r3, r0
 716              		.loc 1 263 6
 717 0096 002B     		cmp	r3, #0
 718 0098 01D0     		beq	.L30
 264:Core/Src/main.c ****   {
 265:Core/Src/main.c ****     Error_Handler();
 719              		.loc 1 265 5
 720 009a FFF7FEFF 		bl	Error_Handler
 721              	.L30:
 266:Core/Src/main.c ****   }
 267:Core/Src/main.c **** }
 722              		.loc 1 267 1
 723 009e 00BF     		nop
 724 00a0 6037     		adds	r7, r7, #96
 725              		.cfi_def_cfa_offset 8
 726 00a2 BD46     		mov	sp, r7
 727              		.cfi_def_cfa_register 13
 728              		@ sp needed
 729 00a4 80BD     		pop	{r7, pc}
 730              		.cfi_endproc
 731              	.LFE330:
 733              		.section	.text.MX_ADC1_Init,"ax",%progbits
 734              		.align	1
 735              		.syntax unified
 736              		.thumb
 737              		.thumb_func
 739              	MX_ADC1_Init:
 740              	.LFB331:
 268:Core/Src/main.c **** 
 269:Core/Src/main.c **** /**
 270:Core/Src/main.c ****   * @brief ADC1 Initialization Function
 271:Core/Src/main.c ****   * @param None
 272:Core/Src/main.c ****   * @retval None
ARM GAS  C:\Users\Morroway\AppData\Local\Temp\ccKhlCKS.s 			page 19


 273:Core/Src/main.c ****   */
 274:Core/Src/main.c **** static void MX_ADC1_Init(void)
 275:Core/Src/main.c **** {
 741              		.loc 1 275 1
 742              		.cfi_startproc
 743              		@ args = 0, pretend = 0, frame = 40
 744              		@ frame_needed = 1, uses_anonymous_args = 0
 745 0000 80B5     		push	{r7, lr}
 746              		.cfi_def_cfa_offset 8
 747              		.cfi_offset 7, -8
 748              		.cfi_offset 14, -4
 749 0002 8AB0     		sub	sp, sp, #40
 750              		.cfi_def_cfa_offset 48
 751 0004 00AF     		add	r7, sp, #0
 752              		.cfi_def_cfa_register 7
 276:Core/Src/main.c **** 
 277:Core/Src/main.c ****   /* USER CODE BEGIN ADC1_Init 0 */
 278:Core/Src/main.c **** 
 279:Core/Src/main.c ****   /* USER CODE END ADC1_Init 0 */
 280:Core/Src/main.c **** 
 281:Core/Src/main.c ****   ADC_MultiModeTypeDef multimode = {0};
 753              		.loc 1 281 24
 754 0006 07F11C03 		add	r3, r7, #28
 755 000a 0022     		movs	r2, #0
 756 000c 1A60     		str	r2, [r3]
 757 000e 5A60     		str	r2, [r3, #4]
 758 0010 9A60     		str	r2, [r3, #8]
 282:Core/Src/main.c ****   ADC_ChannelConfTypeDef sConfig = {0};
 759              		.loc 1 282 26
 760 0012 3B1D     		adds	r3, r7, #4
 761 0014 0022     		movs	r2, #0
 762 0016 1A60     		str	r2, [r3]
 763 0018 5A60     		str	r2, [r3, #4]
 764 001a 9A60     		str	r2, [r3, #8]
 765 001c DA60     		str	r2, [r3, #12]
 766 001e 1A61     		str	r2, [r3, #16]
 767 0020 5A61     		str	r2, [r3, #20]
 283:Core/Src/main.c **** 
 284:Core/Src/main.c ****   /* USER CODE BEGIN ADC1_Init 1 */
 285:Core/Src/main.c **** 
 286:Core/Src/main.c ****   /* USER CODE END ADC1_Init 1 */
 287:Core/Src/main.c **** 
 288:Core/Src/main.c ****   /** Common config
 289:Core/Src/main.c ****   */
 290:Core/Src/main.c ****   hadc1.Instance = ADC1;
 768              		.loc 1 290 18
 769 0022 434B     		ldr	r3, .L38
 770 0024 434A     		ldr	r2, .L38+4
 771 0026 1A60     		str	r2, [r3]
 291:Core/Src/main.c ****   hadc1.Init.ClockPrescaler = ADC_CLOCK_ASYNC_DIV1;
 772              		.loc 1 291 29
 773 0028 414B     		ldr	r3, .L38
 774 002a 0022     		movs	r2, #0
 775 002c 5A60     		str	r2, [r3, #4]
 292:Core/Src/main.c ****   hadc1.Init.Resolution = ADC_RESOLUTION_12B;
 776              		.loc 1 292 25
 777 002e 404B     		ldr	r3, .L38
ARM GAS  C:\Users\Morroway\AppData\Local\Temp\ccKhlCKS.s 			page 20


 778 0030 0022     		movs	r2, #0
 779 0032 9A60     		str	r2, [r3, #8]
 293:Core/Src/main.c ****   hadc1.Init.DataAlign = ADC_DATAALIGN_RIGHT;
 780              		.loc 1 293 24
 781 0034 3E4B     		ldr	r3, .L38
 782 0036 0022     		movs	r2, #0
 783 0038 DA60     		str	r2, [r3, #12]
 294:Core/Src/main.c ****   hadc1.Init.ScanConvMode = ADC_SCAN_ENABLE;
 784              		.loc 1 294 27
 785 003a 3D4B     		ldr	r3, .L38
 786 003c 0122     		movs	r2, #1
 787 003e 1A61     		str	r2, [r3, #16]
 295:Core/Src/main.c ****   hadc1.Init.EOCSelection = ADC_EOC_SINGLE_CONV;
 788              		.loc 1 295 27
 789 0040 3B4B     		ldr	r3, .L38
 790 0042 0422     		movs	r2, #4
 791 0044 5A61     		str	r2, [r3, #20]
 296:Core/Src/main.c ****   hadc1.Init.LowPowerAutoWait = DISABLE;
 792              		.loc 1 296 31
 793 0046 3A4B     		ldr	r3, .L38
 794 0048 0022     		movs	r2, #0
 795 004a 1A76     		strb	r2, [r3, #24]
 297:Core/Src/main.c ****   hadc1.Init.ContinuousConvMode = ENABLE;
 796              		.loc 1 297 33
 797 004c 384B     		ldr	r3, .L38
 798 004e 0122     		movs	r2, #1
 799 0050 5A76     		strb	r2, [r3, #25]
 298:Core/Src/main.c ****   hadc1.Init.NbrOfConversion = 3;
 800              		.loc 1 298 30
 801 0052 374B     		ldr	r3, .L38
 802 0054 0322     		movs	r2, #3
 803 0056 DA61     		str	r2, [r3, #28]
 299:Core/Src/main.c ****   hadc1.Init.DiscontinuousConvMode = DISABLE;
 804              		.loc 1 299 36
 805 0058 354B     		ldr	r3, .L38
 806 005a 0022     		movs	r2, #0
 807 005c 83F82020 		strb	r2, [r3, #32]
 300:Core/Src/main.c ****   hadc1.Init.ExternalTrigConv = ADC_SOFTWARE_START;
 808              		.loc 1 300 31
 809 0060 334B     		ldr	r3, .L38
 810 0062 0022     		movs	r2, #0
 811 0064 9A62     		str	r2, [r3, #40]
 301:Core/Src/main.c ****   hadc1.Init.ExternalTrigConvEdge = ADC_EXTERNALTRIGCONVEDGE_NONE;
 812              		.loc 1 301 35
 813 0066 324B     		ldr	r3, .L38
 814 0068 0022     		movs	r2, #0
 815 006a DA62     		str	r2, [r3, #44]
 302:Core/Src/main.c ****   hadc1.Init.DMAContinuousRequests = ENABLE;
 816              		.loc 1 302 36
 817 006c 304B     		ldr	r3, .L38
 818 006e 0122     		movs	r2, #1
 819 0070 83F83020 		strb	r2, [r3, #48]
 303:Core/Src/main.c ****   hadc1.Init.Overrun = ADC_OVR_DATA_PRESERVED;
 820              		.loc 1 303 22
 821 0074 2E4B     		ldr	r3, .L38
 822 0076 0022     		movs	r2, #0
 823 0078 5A63     		str	r2, [r3, #52]
ARM GAS  C:\Users\Morroway\AppData\Local\Temp\ccKhlCKS.s 			page 21


 304:Core/Src/main.c ****   hadc1.Init.OversamplingMode = ENABLE;
 824              		.loc 1 304 31
 825 007a 2D4B     		ldr	r3, .L38
 826 007c 0122     		movs	r2, #1
 827 007e 83F83820 		strb	r2, [r3, #56]
 305:Core/Src/main.c ****   hadc1.Init.Oversampling.Ratio = ADC_OVERSAMPLING_RATIO_16;
 828              		.loc 1 305 33
 829 0082 2B4B     		ldr	r3, .L38
 830 0084 0C22     		movs	r2, #12
 831 0086 DA63     		str	r2, [r3, #60]
 306:Core/Src/main.c ****   hadc1.Init.Oversampling.RightBitShift = ADC_RIGHTBITSHIFT_NONE;
 832              		.loc 1 306 41
 833 0088 294B     		ldr	r3, .L38
 834 008a 0022     		movs	r2, #0
 835 008c 1A64     		str	r2, [r3, #64]
 307:Core/Src/main.c ****   hadc1.Init.Oversampling.TriggeredMode = ADC_TRIGGEREDMODE_SINGLE_TRIGGER;
 836              		.loc 1 307 41
 837 008e 284B     		ldr	r3, .L38
 838 0090 0022     		movs	r2, #0
 839 0092 5A64     		str	r2, [r3, #68]
 308:Core/Src/main.c ****   hadc1.Init.Oversampling.OversamplingStopReset = ADC_REGOVERSAMPLING_CONTINUED_MODE;
 840              		.loc 1 308 49
 841 0094 264B     		ldr	r3, .L38
 842 0096 0122     		movs	r2, #1
 843 0098 9A64     		str	r2, [r3, #72]
 309:Core/Src/main.c ****   if (HAL_ADC_Init(&hadc1) != HAL_OK)
 844              		.loc 1 309 7
 845 009a 2548     		ldr	r0, .L38
 846 009c FFF7FEFF 		bl	HAL_ADC_Init
 847 00a0 0346     		mov	r3, r0
 848              		.loc 1 309 6
 849 00a2 002B     		cmp	r3, #0
 850 00a4 01D0     		beq	.L32
 310:Core/Src/main.c ****   {
 311:Core/Src/main.c ****     Error_Handler();
 851              		.loc 1 311 5
 852 00a6 FFF7FEFF 		bl	Error_Handler
 853              	.L32:
 312:Core/Src/main.c ****   }
 313:Core/Src/main.c **** 
 314:Core/Src/main.c ****   /** Configure the ADC multi-mode
 315:Core/Src/main.c ****   */
 316:Core/Src/main.c ****   multimode.Mode = ADC_MODE_INDEPENDENT;
 854              		.loc 1 316 18
 855 00aa 0023     		movs	r3, #0
 856 00ac FB61     		str	r3, [r7, #28]
 317:Core/Src/main.c ****   if (HAL_ADCEx_MultiModeConfigChannel(&hadc1, &multimode) != HAL_OK)
 857              		.loc 1 317 7
 858 00ae 07F11C03 		add	r3, r7, #28
 859 00b2 1946     		mov	r1, r3
 860 00b4 1E48     		ldr	r0, .L38
 861 00b6 FFF7FEFF 		bl	HAL_ADCEx_MultiModeConfigChannel
 862 00ba 0346     		mov	r3, r0
 863              		.loc 1 317 6
 864 00bc 002B     		cmp	r3, #0
 865 00be 01D0     		beq	.L33
 318:Core/Src/main.c ****   {
ARM GAS  C:\Users\Morroway\AppData\Local\Temp\ccKhlCKS.s 			page 22


 319:Core/Src/main.c ****     Error_Handler();
 866              		.loc 1 319 5
 867 00c0 FFF7FEFF 		bl	Error_Handler
 868              	.L33:
 320:Core/Src/main.c ****   }
 321:Core/Src/main.c **** 
 322:Core/Src/main.c ****   /** Configure Regular Channel
 323:Core/Src/main.c ****   */
 324:Core/Src/main.c ****   sConfig.Channel = ADC_CHANNEL_1;
 869              		.loc 1 324 19
 870 00c4 1C4B     		ldr	r3, .L38+8
 871 00c6 7B60     		str	r3, [r7, #4]
 325:Core/Src/main.c ****   sConfig.Rank = ADC_REGULAR_RANK_1;
 872              		.loc 1 325 16
 873 00c8 0623     		movs	r3, #6
 874 00ca BB60     		str	r3, [r7, #8]
 326:Core/Src/main.c ****   sConfig.SamplingTime = ADC_SAMPLETIME_247CYCLES_5;
 875              		.loc 1 326 24
 876 00cc 0623     		movs	r3, #6
 877 00ce FB60     		str	r3, [r7, #12]
 327:Core/Src/main.c ****   sConfig.SingleDiff = ADC_SINGLE_ENDED;
 878              		.loc 1 327 22
 879 00d0 7F23     		movs	r3, #127
 880 00d2 3B61     		str	r3, [r7, #16]
 328:Core/Src/main.c ****   sConfig.OffsetNumber = ADC_OFFSET_NONE;
 881              		.loc 1 328 24
 882 00d4 0423     		movs	r3, #4
 883 00d6 7B61     		str	r3, [r7, #20]
 329:Core/Src/main.c ****   sConfig.Offset = 0;
 884              		.loc 1 329 18
 885 00d8 0023     		movs	r3, #0
 886 00da BB61     		str	r3, [r7, #24]
 330:Core/Src/main.c ****   if (HAL_ADC_ConfigChannel(&hadc1, &sConfig) != HAL_OK)
 887              		.loc 1 330 7
 888 00dc 3B1D     		adds	r3, r7, #4
 889 00de 1946     		mov	r1, r3
 890 00e0 1348     		ldr	r0, .L38
 891 00e2 FFF7FEFF 		bl	HAL_ADC_ConfigChannel
 892 00e6 0346     		mov	r3, r0
 893              		.loc 1 330 6
 894 00e8 002B     		cmp	r3, #0
 895 00ea 01D0     		beq	.L34
 331:Core/Src/main.c ****   {
 332:Core/Src/main.c ****     Error_Handler();
 896              		.loc 1 332 5
 897 00ec FFF7FEFF 		bl	Error_Handler
 898              	.L34:
 333:Core/Src/main.c ****   }
 334:Core/Src/main.c **** 
 335:Core/Src/main.c ****   /** Configure Regular Channel
 336:Core/Src/main.c ****   */
 337:Core/Src/main.c ****   sConfig.Channel = ADC_CHANNEL_2;
 899              		.loc 1 337 19
 900 00f0 124B     		ldr	r3, .L38+12
 901 00f2 7B60     		str	r3, [r7, #4]
 338:Core/Src/main.c ****   sConfig.Rank = ADC_REGULAR_RANK_2;
 902              		.loc 1 338 16
ARM GAS  C:\Users\Morroway\AppData\Local\Temp\ccKhlCKS.s 			page 23


 903 00f4 0C23     		movs	r3, #12
 904 00f6 BB60     		str	r3, [r7, #8]
 339:Core/Src/main.c ****   if (HAL_ADC_ConfigChannel(&hadc1, &sConfig) != HAL_OK)
 905              		.loc 1 339 7
 906 00f8 3B1D     		adds	r3, r7, #4
 907 00fa 1946     		mov	r1, r3
 908 00fc 0C48     		ldr	r0, .L38
 909 00fe FFF7FEFF 		bl	HAL_ADC_ConfigChannel
 910 0102 0346     		mov	r3, r0
 911              		.loc 1 339 6
 912 0104 002B     		cmp	r3, #0
 913 0106 01D0     		beq	.L35
 340:Core/Src/main.c ****   {
 341:Core/Src/main.c ****     Error_Handler();
 914              		.loc 1 341 5
 915 0108 FFF7FEFF 		bl	Error_Handler
 916              	.L35:
 342:Core/Src/main.c ****   }
 343:Core/Src/main.c **** 
 344:Core/Src/main.c ****   /** Configure Regular Channel
 345:Core/Src/main.c ****   */
 346:Core/Src/main.c ****   sConfig.Channel = ADC_CHANNEL_TEMPSENSOR;
 917              		.loc 1 346 19
 918 010c 0C4B     		ldr	r3, .L38+16
 919 010e 7B60     		str	r3, [r7, #4]
 347:Core/Src/main.c ****   sConfig.Rank = ADC_REGULAR_RANK_3;
 920              		.loc 1 347 16
 921 0110 1223     		movs	r3, #18
 922 0112 BB60     		str	r3, [r7, #8]
 348:Core/Src/main.c ****   if (HAL_ADC_ConfigChannel(&hadc1, &sConfig) != HAL_OK)
 923              		.loc 1 348 7
 924 0114 3B1D     		adds	r3, r7, #4
 925 0116 1946     		mov	r1, r3
 926 0118 0548     		ldr	r0, .L38
 927 011a FFF7FEFF 		bl	HAL_ADC_ConfigChannel
 928 011e 0346     		mov	r3, r0
 929              		.loc 1 348 6
 930 0120 002B     		cmp	r3, #0
 931 0122 01D0     		beq	.L37
 349:Core/Src/main.c ****   {
 350:Core/Src/main.c ****     Error_Handler();
 932              		.loc 1 350 5
 933 0124 FFF7FEFF 		bl	Error_Handler
 934              	.L37:
 351:Core/Src/main.c ****   }
 352:Core/Src/main.c ****   /* USER CODE BEGIN ADC1_Init 2 */
 353:Core/Src/main.c **** 
 354:Core/Src/main.c ****   /* USER CODE END ADC1_Init 2 */
 355:Core/Src/main.c **** 
 356:Core/Src/main.c **** }
 935              		.loc 1 356 1
 936 0128 00BF     		nop
 937 012a 2837     		adds	r7, r7, #40
 938              		.cfi_def_cfa_offset 8
 939 012c BD46     		mov	sp, r7
 940              		.cfi_def_cfa_register 13
 941              		@ sp needed
ARM GAS  C:\Users\Morroway\AppData\Local\Temp\ccKhlCKS.s 			page 24


 942 012e 80BD     		pop	{r7, pc}
 943              	.L39:
 944              		.align	2
 945              	.L38:
 946 0130 00000000 		.word	hadc1
 947 0134 00000450 		.word	1342439424
 948 0138 02003004 		.word	70254594
 949 013c 04006008 		.word	140509188
 950 0140 000052C7 		.word	-950927360
 951              		.cfi_endproc
 952              	.LFE331:
 954              		.section	.text.MX_LPUART1_UART_Init,"ax",%progbits
 955              		.align	1
 956              		.syntax unified
 957              		.thumb
 958              		.thumb_func
 960              	MX_LPUART1_UART_Init:
 961              	.LFB332:
 357:Core/Src/main.c **** 
 358:Core/Src/main.c **** /**
 359:Core/Src/main.c ****   * @brief LPUART1 Initialization Function
 360:Core/Src/main.c ****   * @param None
 361:Core/Src/main.c ****   * @retval None
 362:Core/Src/main.c ****   */
 363:Core/Src/main.c **** static void MX_LPUART1_UART_Init(void)
 364:Core/Src/main.c **** {
 962              		.loc 1 364 1
 963              		.cfi_startproc
 964              		@ args = 0, pretend = 0, frame = 0
 965              		@ frame_needed = 1, uses_anonymous_args = 0
 966 0000 80B5     		push	{r7, lr}
 967              		.cfi_def_cfa_offset 8
 968              		.cfi_offset 7, -8
 969              		.cfi_offset 14, -4
 970 0002 00AF     		add	r7, sp, #0
 971              		.cfi_def_cfa_register 7
 365:Core/Src/main.c **** 
 366:Core/Src/main.c ****   /* USER CODE BEGIN LPUART1_Init 0 */
 367:Core/Src/main.c **** 
 368:Core/Src/main.c ****   /* USER CODE END LPUART1_Init 0 */
 369:Core/Src/main.c **** 
 370:Core/Src/main.c ****   /* USER CODE BEGIN LPUART1_Init 1 */
 371:Core/Src/main.c **** 
 372:Core/Src/main.c ****   /* USER CODE END LPUART1_Init 1 */
 373:Core/Src/main.c ****   hlpuart1.Instance = LPUART1;
 972              		.loc 1 373 21
 973 0004 244B     		ldr	r3, .L46
 974 0006 254A     		ldr	r2, .L46+4
 975 0008 1A60     		str	r2, [r3]
 374:Core/Src/main.c ****   hlpuart1.Init.BaudRate = 115200;
 976              		.loc 1 374 26
 977 000a 234B     		ldr	r3, .L46
 978 000c 4FF4E132 		mov	r2, #115200
 979 0010 5A60     		str	r2, [r3, #4]
 375:Core/Src/main.c ****   hlpuart1.Init.WordLength = UART_WORDLENGTH_8B;
 980              		.loc 1 375 28
 981 0012 214B     		ldr	r3, .L46
ARM GAS  C:\Users\Morroway\AppData\Local\Temp\ccKhlCKS.s 			page 25


 982 0014 0022     		movs	r2, #0
 983 0016 9A60     		str	r2, [r3, #8]
 376:Core/Src/main.c ****   hlpuart1.Init.StopBits = UART_STOPBITS_1;
 984              		.loc 1 376 26
 985 0018 1F4B     		ldr	r3, .L46
 986 001a 0022     		movs	r2, #0
 987 001c DA60     		str	r2, [r3, #12]
 377:Core/Src/main.c ****   hlpuart1.Init.Parity = UART_PARITY_NONE;
 988              		.loc 1 377 24
 989 001e 1E4B     		ldr	r3, .L46
 990 0020 0022     		movs	r2, #0
 991 0022 1A61     		str	r2, [r3, #16]
 378:Core/Src/main.c ****   hlpuart1.Init.Mode = UART_MODE_TX_RX;
 992              		.loc 1 378 22
 993 0024 1C4B     		ldr	r3, .L46
 994 0026 0C22     		movs	r2, #12
 995 0028 5A61     		str	r2, [r3, #20]
 379:Core/Src/main.c ****   hlpuart1.Init.HwFlowCtl = UART_HWCONTROL_NONE;
 996              		.loc 1 379 27
 997 002a 1B4B     		ldr	r3, .L46
 998 002c 0022     		movs	r2, #0
 999 002e 9A61     		str	r2, [r3, #24]
 380:Core/Src/main.c ****   hlpuart1.Init.OneBitSampling = UART_ONE_BIT_SAMPLE_DISABLE;
 1000              		.loc 1 380 32
 1001 0030 194B     		ldr	r3, .L46
 1002 0032 0022     		movs	r2, #0
 1003 0034 1A62     		str	r2, [r3, #32]
 381:Core/Src/main.c ****   hlpuart1.Init.ClockPrescaler = UART_PRESCALER_DIV1;
 1004              		.loc 1 381 32
 1005 0036 184B     		ldr	r3, .L46
 1006 0038 0022     		movs	r2, #0
 1007 003a 5A62     		str	r2, [r3, #36]
 382:Core/Src/main.c ****   hlpuart1.AdvancedInit.AdvFeatureInit = UART_ADVFEATURE_RXOVERRUNDISABLE_INIT;
 1008              		.loc 1 382 40
 1009 003c 164B     		ldr	r3, .L46
 1010 003e 1022     		movs	r2, #16
 1011 0040 9A62     		str	r2, [r3, #40]
 383:Core/Src/main.c ****   hlpuart1.AdvancedInit.OverrunDisable = UART_ADVFEATURE_OVERRUN_DISABLE;
 1012              		.loc 1 383 40
 1013 0042 154B     		ldr	r3, .L46
 1014 0044 4FF48052 		mov	r2, #4096
 1015 0048 DA63     		str	r2, [r3, #60]
 384:Core/Src/main.c ****   hlpuart1.FifoMode = UART_FIFOMODE_DISABLE;
 1016              		.loc 1 384 21
 1017 004a 134B     		ldr	r3, .L46
 1018 004c 0022     		movs	r2, #0
 1019 004e 5A66     		str	r2, [r3, #100]
 385:Core/Src/main.c ****   if (HAL_UART_Init(&hlpuart1) != HAL_OK)
 1020              		.loc 1 385 7
 1021 0050 1148     		ldr	r0, .L46
 1022 0052 FFF7FEFF 		bl	HAL_UART_Init
 1023 0056 0346     		mov	r3, r0
 1024              		.loc 1 385 6
 1025 0058 002B     		cmp	r3, #0
 1026 005a 01D0     		beq	.L41
 386:Core/Src/main.c ****   {
 387:Core/Src/main.c ****     Error_Handler();
ARM GAS  C:\Users\Morroway\AppData\Local\Temp\ccKhlCKS.s 			page 26


 1027              		.loc 1 387 5
 1028 005c FFF7FEFF 		bl	Error_Handler
 1029              	.L41:
 388:Core/Src/main.c ****   }
 389:Core/Src/main.c ****   if (HAL_UARTEx_SetTxFifoThreshold(&hlpuart1, UART_TXFIFO_THRESHOLD_1_8) != HAL_OK)
 1030              		.loc 1 389 7
 1031 0060 0021     		movs	r1, #0
 1032 0062 0D48     		ldr	r0, .L46
 1033 0064 FFF7FEFF 		bl	HAL_UARTEx_SetTxFifoThreshold
 1034 0068 0346     		mov	r3, r0
 1035              		.loc 1 389 6
 1036 006a 002B     		cmp	r3, #0
 1037 006c 01D0     		beq	.L42
 390:Core/Src/main.c ****   {
 391:Core/Src/main.c ****     Error_Handler();
 1038              		.loc 1 391 5
 1039 006e FFF7FEFF 		bl	Error_Handler
 1040              	.L42:
 392:Core/Src/main.c ****   }
 393:Core/Src/main.c ****   if (HAL_UARTEx_SetRxFifoThreshold(&hlpuart1, UART_RXFIFO_THRESHOLD_1_8) != HAL_OK)
 1041              		.loc 1 393 7
 1042 0072 0021     		movs	r1, #0
 1043 0074 0848     		ldr	r0, .L46
 1044 0076 FFF7FEFF 		bl	HAL_UARTEx_SetRxFifoThreshold
 1045 007a 0346     		mov	r3, r0
 1046              		.loc 1 393 6
 1047 007c 002B     		cmp	r3, #0
 1048 007e 01D0     		beq	.L43
 394:Core/Src/main.c ****   {
 395:Core/Src/main.c ****     Error_Handler();
 1049              		.loc 1 395 5
 1050 0080 FFF7FEFF 		bl	Error_Handler
 1051              	.L43:
 396:Core/Src/main.c ****   }
 397:Core/Src/main.c ****   if (HAL_UARTEx_DisableFifoMode(&hlpuart1) != HAL_OK)
 1052              		.loc 1 397 7
 1053 0084 0448     		ldr	r0, .L46
 1054 0086 FFF7FEFF 		bl	HAL_UARTEx_DisableFifoMode
 1055 008a 0346     		mov	r3, r0
 1056              		.loc 1 397 6
 1057 008c 002B     		cmp	r3, #0
 1058 008e 01D0     		beq	.L45
 398:Core/Src/main.c ****   {
 399:Core/Src/main.c ****     Error_Handler();
 1059              		.loc 1 399 5
 1060 0090 FFF7FEFF 		bl	Error_Handler
 1061              	.L45:
 400:Core/Src/main.c ****   }
 401:Core/Src/main.c ****   /* USER CODE BEGIN LPUART1_Init 2 */
 402:Core/Src/main.c **** 
 403:Core/Src/main.c ****   /* USER CODE END LPUART1_Init 2 */
 404:Core/Src/main.c **** 
 405:Core/Src/main.c **** }
 1062              		.loc 1 405 1
 1063 0094 00BF     		nop
 1064 0096 80BD     		pop	{r7, pc}
 1065              	.L47:
ARM GAS  C:\Users\Morroway\AppData\Local\Temp\ccKhlCKS.s 			page 27


 1066              		.align	2
 1067              	.L46:
 1068 0098 00000000 		.word	hlpuart1
 1069 009c 00800040 		.word	1073774592
 1070              		.cfi_endproc
 1071              	.LFE332:
 1073              		.section	.text.MX_UART4_Init,"ax",%progbits
 1074              		.align	1
 1075              		.syntax unified
 1076              		.thumb
 1077              		.thumb_func
 1079              	MX_UART4_Init:
 1080              	.LFB333:
 406:Core/Src/main.c **** 
 407:Core/Src/main.c **** /**
 408:Core/Src/main.c ****   * @brief UART4 Initialization Function
 409:Core/Src/main.c ****   * @param None
 410:Core/Src/main.c ****   * @retval None
 411:Core/Src/main.c ****   */
 412:Core/Src/main.c **** static void MX_UART4_Init(void)
 413:Core/Src/main.c **** {
 1081              		.loc 1 413 1
 1082              		.cfi_startproc
 1083              		@ args = 0, pretend = 0, frame = 0
 1084              		@ frame_needed = 1, uses_anonymous_args = 0
 1085 0000 80B5     		push	{r7, lr}
 1086              		.cfi_def_cfa_offset 8
 1087              		.cfi_offset 7, -8
 1088              		.cfi_offset 14, -4
 1089 0002 00AF     		add	r7, sp, #0
 1090              		.cfi_def_cfa_register 7
 414:Core/Src/main.c **** 
 415:Core/Src/main.c ****   /* USER CODE BEGIN UART4_Init 0 */
 416:Core/Src/main.c **** 
 417:Core/Src/main.c ****   /* USER CODE END UART4_Init 0 */
 418:Core/Src/main.c **** 
 419:Core/Src/main.c ****   /* USER CODE BEGIN UART4_Init 1 */
 420:Core/Src/main.c **** 
 421:Core/Src/main.c ****   /* USER CODE END UART4_Init 1 */
 422:Core/Src/main.c ****   huart4.Instance = UART4;
 1091              		.loc 1 422 19
 1092 0004 224B     		ldr	r3, .L54
 1093 0006 234A     		ldr	r2, .L54+4
 1094 0008 1A60     		str	r2, [r3]
 423:Core/Src/main.c ****   huart4.Init.BaudRate = 115200;
 1095              		.loc 1 423 24
 1096 000a 214B     		ldr	r3, .L54
 1097 000c 4FF4E132 		mov	r2, #115200
 1098 0010 5A60     		str	r2, [r3, #4]
 424:Core/Src/main.c ****   huart4.Init.WordLength = UART_WORDLENGTH_8B;
 1099              		.loc 1 424 26
 1100 0012 1F4B     		ldr	r3, .L54
 1101 0014 0022     		movs	r2, #0
 1102 0016 9A60     		str	r2, [r3, #8]
 425:Core/Src/main.c ****   huart4.Init.StopBits = UART_STOPBITS_1;
 1103              		.loc 1 425 24
 1104 0018 1D4B     		ldr	r3, .L54
ARM GAS  C:\Users\Morroway\AppData\Local\Temp\ccKhlCKS.s 			page 28


 1105 001a 0022     		movs	r2, #0
 1106 001c DA60     		str	r2, [r3, #12]
 426:Core/Src/main.c ****   huart4.Init.Parity = UART_PARITY_NONE;
 1107              		.loc 1 426 22
 1108 001e 1C4B     		ldr	r3, .L54
 1109 0020 0022     		movs	r2, #0
 1110 0022 1A61     		str	r2, [r3, #16]
 427:Core/Src/main.c ****   huart4.Init.Mode = UART_MODE_TX_RX;
 1111              		.loc 1 427 20
 1112 0024 1A4B     		ldr	r3, .L54
 1113 0026 0C22     		movs	r2, #12
 1114 0028 5A61     		str	r2, [r3, #20]
 428:Core/Src/main.c ****   huart4.Init.HwFlowCtl = UART_HWCONTROL_NONE;
 1115              		.loc 1 428 25
 1116 002a 194B     		ldr	r3, .L54
 1117 002c 0022     		movs	r2, #0
 1118 002e 9A61     		str	r2, [r3, #24]
 429:Core/Src/main.c ****   huart4.Init.OverSampling = UART_OVERSAMPLING_16;
 1119              		.loc 1 429 28
 1120 0030 174B     		ldr	r3, .L54
 1121 0032 0022     		movs	r2, #0
 1122 0034 DA61     		str	r2, [r3, #28]
 430:Core/Src/main.c ****   huart4.Init.OneBitSampling = UART_ONE_BIT_SAMPLE_DISABLE;
 1123              		.loc 1 430 30
 1124 0036 164B     		ldr	r3, .L54
 1125 0038 0022     		movs	r2, #0
 1126 003a 1A62     		str	r2, [r3, #32]
 431:Core/Src/main.c ****   huart4.Init.ClockPrescaler = UART_PRESCALER_DIV1;
 1127              		.loc 1 431 30
 1128 003c 144B     		ldr	r3, .L54
 1129 003e 0022     		movs	r2, #0
 1130 0040 5A62     		str	r2, [r3, #36]
 432:Core/Src/main.c ****   huart4.AdvancedInit.AdvFeatureInit = UART_ADVFEATURE_NO_INIT;
 1131              		.loc 1 432 38
 1132 0042 134B     		ldr	r3, .L54
 1133 0044 0022     		movs	r2, #0
 1134 0046 9A62     		str	r2, [r3, #40]
 433:Core/Src/main.c ****   if (HAL_UART_Init(&huart4) != HAL_OK)
 1135              		.loc 1 433 7
 1136 0048 1148     		ldr	r0, .L54
 1137 004a FFF7FEFF 		bl	HAL_UART_Init
 1138 004e 0346     		mov	r3, r0
 1139              		.loc 1 433 6
 1140 0050 002B     		cmp	r3, #0
 1141 0052 01D0     		beq	.L49
 434:Core/Src/main.c ****   {
 435:Core/Src/main.c ****     Error_Handler();
 1142              		.loc 1 435 5
 1143 0054 FFF7FEFF 		bl	Error_Handler
 1144              	.L49:
 436:Core/Src/main.c ****   }
 437:Core/Src/main.c ****   if (HAL_UARTEx_SetTxFifoThreshold(&huart4, UART_TXFIFO_THRESHOLD_1_8) != HAL_OK)
 1145              		.loc 1 437 7
 1146 0058 0021     		movs	r1, #0
 1147 005a 0D48     		ldr	r0, .L54
 1148 005c FFF7FEFF 		bl	HAL_UARTEx_SetTxFifoThreshold
 1149 0060 0346     		mov	r3, r0
ARM GAS  C:\Users\Morroway\AppData\Local\Temp\ccKhlCKS.s 			page 29


 1150              		.loc 1 437 6
 1151 0062 002B     		cmp	r3, #0
 1152 0064 01D0     		beq	.L50
 438:Core/Src/main.c ****   {
 439:Core/Src/main.c ****     Error_Handler();
 1153              		.loc 1 439 5
 1154 0066 FFF7FEFF 		bl	Error_Handler
 1155              	.L50:
 440:Core/Src/main.c ****   }
 441:Core/Src/main.c ****   if (HAL_UARTEx_SetRxFifoThreshold(&huart4, UART_RXFIFO_THRESHOLD_1_8) != HAL_OK)
 1156              		.loc 1 441 7
 1157 006a 0021     		movs	r1, #0
 1158 006c 0848     		ldr	r0, .L54
 1159 006e FFF7FEFF 		bl	HAL_UARTEx_SetRxFifoThreshold
 1160 0072 0346     		mov	r3, r0
 1161              		.loc 1 441 6
 1162 0074 002B     		cmp	r3, #0
 1163 0076 01D0     		beq	.L51
 442:Core/Src/main.c ****   {
 443:Core/Src/main.c ****     Error_Handler();
 1164              		.loc 1 443 5
 1165 0078 FFF7FEFF 		bl	Error_Handler
 1166              	.L51:
 444:Core/Src/main.c ****   }
 445:Core/Src/main.c ****   if (HAL_UARTEx_DisableFifoMode(&huart4) != HAL_OK)
 1167              		.loc 1 445 7
 1168 007c 0448     		ldr	r0, .L54
 1169 007e FFF7FEFF 		bl	HAL_UARTEx_DisableFifoMode
 1170 0082 0346     		mov	r3, r0
 1171              		.loc 1 445 6
 1172 0084 002B     		cmp	r3, #0
 1173 0086 01D0     		beq	.L53
 446:Core/Src/main.c ****   {
 447:Core/Src/main.c ****     Error_Handler();
 1174              		.loc 1 447 5
 1175 0088 FFF7FEFF 		bl	Error_Handler
 1176              	.L53:
 448:Core/Src/main.c ****   }
 449:Core/Src/main.c ****   /* USER CODE BEGIN UART4_Init 2 */
 450:Core/Src/main.c **** 
 451:Core/Src/main.c ****   /* USER CODE END UART4_Init 2 */
 452:Core/Src/main.c **** 
 453:Core/Src/main.c **** }
 1177              		.loc 1 453 1
 1178 008c 00BF     		nop
 1179 008e 80BD     		pop	{r7, pc}
 1180              	.L55:
 1181              		.align	2
 1182              	.L54:
 1183 0090 00000000 		.word	huart4
 1184 0094 004C0040 		.word	1073761280
 1185              		.cfi_endproc
 1186              	.LFE333:
 1188              		.section	.text.MX_SPI1_Init,"ax",%progbits
 1189              		.align	1
 1190              		.syntax unified
 1191              		.thumb
ARM GAS  C:\Users\Morroway\AppData\Local\Temp\ccKhlCKS.s 			page 30


 1192              		.thumb_func
 1194              	MX_SPI1_Init:
 1195              	.LFB334:
 454:Core/Src/main.c **** 
 455:Core/Src/main.c **** /**
 456:Core/Src/main.c ****   * @brief SPI1 Initialization Function
 457:Core/Src/main.c ****   * @param None
 458:Core/Src/main.c ****   * @retval None
 459:Core/Src/main.c ****   */
 460:Core/Src/main.c **** static void MX_SPI1_Init(void)
 461:Core/Src/main.c **** {
 1196              		.loc 1 461 1
 1197              		.cfi_startproc
 1198              		@ args = 0, pretend = 0, frame = 0
 1199              		@ frame_needed = 1, uses_anonymous_args = 0
 1200 0000 80B5     		push	{r7, lr}
 1201              		.cfi_def_cfa_offset 8
 1202              		.cfi_offset 7, -8
 1203              		.cfi_offset 14, -4
 1204 0002 00AF     		add	r7, sp, #0
 1205              		.cfi_def_cfa_register 7
 462:Core/Src/main.c **** 
 463:Core/Src/main.c ****   /* USER CODE BEGIN SPI1_Init 0 */
 464:Core/Src/main.c **** 
 465:Core/Src/main.c ****   /* USER CODE END SPI1_Init 0 */
 466:Core/Src/main.c **** 
 467:Core/Src/main.c ****   /* USER CODE BEGIN SPI1_Init 1 */
 468:Core/Src/main.c **** 
 469:Core/Src/main.c ****   /* USER CODE END SPI1_Init 1 */
 470:Core/Src/main.c ****   /* SPI1 parameter configuration*/
 471:Core/Src/main.c ****   hspi1.Instance = SPI1;
 1206              		.loc 1 471 18
 1207 0004 1B4B     		ldr	r3, .L59
 1208 0006 1C4A     		ldr	r2, .L59+4
 1209 0008 1A60     		str	r2, [r3]
 472:Core/Src/main.c ****   hspi1.Init.Mode = SPI_MODE_MASTER;
 1210              		.loc 1 472 19
 1211 000a 1A4B     		ldr	r3, .L59
 1212 000c 4FF48272 		mov	r2, #260
 1213 0010 5A60     		str	r2, [r3, #4]
 473:Core/Src/main.c ****   hspi1.Init.Direction = SPI_DIRECTION_2LINES;
 1214              		.loc 1 473 24
 1215 0012 184B     		ldr	r3, .L59
 1216 0014 0022     		movs	r2, #0
 1217 0016 9A60     		str	r2, [r3, #8]
 474:Core/Src/main.c ****   hspi1.Init.DataSize = SPI_DATASIZE_8BIT;
 1218              		.loc 1 474 23
 1219 0018 164B     		ldr	r3, .L59
 1220 001a 4FF4E062 		mov	r2, #1792
 1221 001e DA60     		str	r2, [r3, #12]
 475:Core/Src/main.c ****   hspi1.Init.CLKPolarity = SPI_POLARITY_LOW;
 1222              		.loc 1 475 26
 1223 0020 144B     		ldr	r3, .L59
 1224 0022 0022     		movs	r2, #0
 1225 0024 1A61     		str	r2, [r3, #16]
 476:Core/Src/main.c ****   hspi1.Init.CLKPhase = SPI_PHASE_1EDGE;
 1226              		.loc 1 476 23
ARM GAS  C:\Users\Morroway\AppData\Local\Temp\ccKhlCKS.s 			page 31


 1227 0026 134B     		ldr	r3, .L59
 1228 0028 0022     		movs	r2, #0
 1229 002a 5A61     		str	r2, [r3, #20]
 477:Core/Src/main.c ****   hspi1.Init.NSS = SPI_NSS_SOFT;
 1230              		.loc 1 477 18
 1231 002c 114B     		ldr	r3, .L59
 1232 002e 4FF40072 		mov	r2, #512
 1233 0032 9A61     		str	r2, [r3, #24]
 478:Core/Src/main.c ****   hspi1.Init.BaudRatePrescaler = SPI_BAUDRATEPRESCALER_2;
 1234              		.loc 1 478 32
 1235 0034 0F4B     		ldr	r3, .L59
 1236 0036 0022     		movs	r2, #0
 1237 0038 DA61     		str	r2, [r3, #28]
 479:Core/Src/main.c ****   hspi1.Init.FirstBit = SPI_FIRSTBIT_MSB;
 1238              		.loc 1 479 23
 1239 003a 0E4B     		ldr	r3, .L59
 1240 003c 0022     		movs	r2, #0
 1241 003e 1A62     		str	r2, [r3, #32]
 480:Core/Src/main.c ****   hspi1.Init.TIMode = SPI_TIMODE_DISABLE;
 1242              		.loc 1 480 21
 1243 0040 0C4B     		ldr	r3, .L59
 1244 0042 0022     		movs	r2, #0
 1245 0044 5A62     		str	r2, [r3, #36]
 481:Core/Src/main.c ****   hspi1.Init.CRCCalculation = SPI_CRCCALCULATION_DISABLE;
 1246              		.loc 1 481 29
 1247 0046 0B4B     		ldr	r3, .L59
 1248 0048 0022     		movs	r2, #0
 1249 004a 9A62     		str	r2, [r3, #40]
 482:Core/Src/main.c ****   hspi1.Init.CRCPolynomial = 7;
 1250              		.loc 1 482 28
 1251 004c 094B     		ldr	r3, .L59
 1252 004e 0722     		movs	r2, #7
 1253 0050 DA62     		str	r2, [r3, #44]
 483:Core/Src/main.c ****   hspi1.Init.CRCLength = SPI_CRC_LENGTH_DATASIZE;
 1254              		.loc 1 483 24
 1255 0052 084B     		ldr	r3, .L59
 1256 0054 0022     		movs	r2, #0
 1257 0056 1A63     		str	r2, [r3, #48]
 484:Core/Src/main.c ****   hspi1.Init.NSSPMode = SPI_NSS_PULSE_ENABLE;
 1258              		.loc 1 484 23
 1259 0058 064B     		ldr	r3, .L59
 1260 005a 0822     		movs	r2, #8
 1261 005c 5A63     		str	r2, [r3, #52]
 485:Core/Src/main.c ****   if (HAL_SPI_Init(&hspi1) != HAL_OK)
 1262              		.loc 1 485 7
 1263 005e 0548     		ldr	r0, .L59
 1264 0060 FFF7FEFF 		bl	HAL_SPI_Init
 1265 0064 0346     		mov	r3, r0
 1266              		.loc 1 485 6
 1267 0066 002B     		cmp	r3, #0
 1268 0068 01D0     		beq	.L58
 486:Core/Src/main.c ****   {
 487:Core/Src/main.c ****     Error_Handler();
 1269              		.loc 1 487 5
 1270 006a FFF7FEFF 		bl	Error_Handler
 1271              	.L58:
 488:Core/Src/main.c ****   }
ARM GAS  C:\Users\Morroway\AppData\Local\Temp\ccKhlCKS.s 			page 32


 489:Core/Src/main.c ****   /* USER CODE BEGIN SPI1_Init 2 */
 490:Core/Src/main.c **** 
 491:Core/Src/main.c ****   /* USER CODE END SPI1_Init 2 */
 492:Core/Src/main.c **** 
 493:Core/Src/main.c **** }
 1272              		.loc 1 493 1
 1273 006e 00BF     		nop
 1274 0070 80BD     		pop	{r7, pc}
 1275              	.L60:
 1276 0072 00BF     		.align	2
 1277              	.L59:
 1278 0074 00000000 		.word	hspi1
 1279 0078 00300140 		.word	1073819648
 1280              		.cfi_endproc
 1281              	.LFE334:
 1283              		.section	.text.MX_TIM2_Init,"ax",%progbits
 1284              		.align	1
 1285              		.syntax unified
 1286              		.thumb
 1287              		.thumb_func
 1289              	MX_TIM2_Init:
 1290              	.LFB335:
 494:Core/Src/main.c **** 
 495:Core/Src/main.c **** /**
 496:Core/Src/main.c ****   * @brief TIM2 Initialization Function
 497:Core/Src/main.c ****   * @param None
 498:Core/Src/main.c ****   * @retval None
 499:Core/Src/main.c ****   */
 500:Core/Src/main.c **** static void MX_TIM2_Init(void)
 501:Core/Src/main.c **** {
 1291              		.loc 1 501 1
 1292              		.cfi_startproc
 1293              		@ args = 0, pretend = 0, frame = 56
 1294              		@ frame_needed = 1, uses_anonymous_args = 0
 1295 0000 80B5     		push	{r7, lr}
 1296              		.cfi_def_cfa_offset 8
 1297              		.cfi_offset 7, -8
 1298              		.cfi_offset 14, -4
 1299 0002 8EB0     		sub	sp, sp, #56
 1300              		.cfi_def_cfa_offset 64
 1301 0004 00AF     		add	r7, sp, #0
 1302              		.cfi_def_cfa_register 7
 502:Core/Src/main.c **** 
 503:Core/Src/main.c ****   /* USER CODE BEGIN TIM2_Init 0 */
 504:Core/Src/main.c **** 
 505:Core/Src/main.c ****   /* USER CODE END TIM2_Init 0 */
 506:Core/Src/main.c **** 
 507:Core/Src/main.c ****   TIM_ClockConfigTypeDef sClockSourceConfig = {0};
 1303              		.loc 1 507 26
 1304 0006 07F12803 		add	r3, r7, #40
 1305 000a 0022     		movs	r2, #0
 1306 000c 1A60     		str	r2, [r3]
 1307 000e 5A60     		str	r2, [r3, #4]
 1308 0010 9A60     		str	r2, [r3, #8]
 1309 0012 DA60     		str	r2, [r3, #12]
 508:Core/Src/main.c ****   TIM_MasterConfigTypeDef sMasterConfig = {0};
 1310              		.loc 1 508 27
ARM GAS  C:\Users\Morroway\AppData\Local\Temp\ccKhlCKS.s 			page 33


 1311 0014 07F11C03 		add	r3, r7, #28
 1312 0018 0022     		movs	r2, #0
 1313 001a 1A60     		str	r2, [r3]
 1314 001c 5A60     		str	r2, [r3, #4]
 1315 001e 9A60     		str	r2, [r3, #8]
 509:Core/Src/main.c ****   TIM_OC_InitTypeDef sConfigOC = {0};
 1316              		.loc 1 509 22
 1317 0020 3B46     		mov	r3, r7
 1318 0022 0022     		movs	r2, #0
 1319 0024 1A60     		str	r2, [r3]
 1320 0026 5A60     		str	r2, [r3, #4]
 1321 0028 9A60     		str	r2, [r3, #8]
 1322 002a DA60     		str	r2, [r3, #12]
 1323 002c 1A61     		str	r2, [r3, #16]
 1324 002e 5A61     		str	r2, [r3, #20]
 1325 0030 9A61     		str	r2, [r3, #24]
 510:Core/Src/main.c **** 
 511:Core/Src/main.c ****   /* USER CODE BEGIN TIM2_Init 1 */
 512:Core/Src/main.c **** 
 513:Core/Src/main.c ****   /* USER CODE END TIM2_Init 1 */
 514:Core/Src/main.c ****   htim2.Instance = TIM2;
 1326              		.loc 1 514 18
 1327 0032 324B     		ldr	r3, .L68
 1328 0034 4FF08042 		mov	r2, #1073741824
 1329 0038 1A60     		str	r2, [r3]
 515:Core/Src/main.c ****   htim2.Init.Prescaler = 119;
 1330              		.loc 1 515 24
 1331 003a 304B     		ldr	r3, .L68
 1332 003c 7722     		movs	r2, #119
 1333 003e 5A60     		str	r2, [r3, #4]
 516:Core/Src/main.c ****   htim2.Init.CounterMode = TIM_COUNTERMODE_UP;
 1334              		.loc 1 516 26
 1335 0040 2E4B     		ldr	r3, .L68
 1336 0042 0022     		movs	r2, #0
 1337 0044 9A60     		str	r2, [r3, #8]
 517:Core/Src/main.c ****   htim2.Init.Period = 255;
 1338              		.loc 1 517 21
 1339 0046 2D4B     		ldr	r3, .L68
 1340 0048 FF22     		movs	r2, #255
 1341 004a DA60     		str	r2, [r3, #12]
 518:Core/Src/main.c ****   htim2.Init.ClockDivision = TIM_CLOCKDIVISION_DIV1;
 1342              		.loc 1 518 28
 1343 004c 2B4B     		ldr	r3, .L68
 1344 004e 0022     		movs	r2, #0
 1345 0050 1A61     		str	r2, [r3, #16]
 519:Core/Src/main.c ****   htim2.Init.AutoReloadPreload = TIM_AUTORELOAD_PRELOAD_DISABLE;
 1346              		.loc 1 519 32
 1347 0052 2A4B     		ldr	r3, .L68
 1348 0054 0022     		movs	r2, #0
 1349 0056 9A61     		str	r2, [r3, #24]
 520:Core/Src/main.c ****   if (HAL_TIM_Base_Init(&htim2) != HAL_OK)
 1350              		.loc 1 520 7
 1351 0058 2848     		ldr	r0, .L68
 1352 005a FFF7FEFF 		bl	HAL_TIM_Base_Init
 1353 005e 0346     		mov	r3, r0
 1354              		.loc 1 520 6
 1355 0060 002B     		cmp	r3, #0
ARM GAS  C:\Users\Morroway\AppData\Local\Temp\ccKhlCKS.s 			page 34


 1356 0062 01D0     		beq	.L62
 521:Core/Src/main.c ****   {
 522:Core/Src/main.c ****     Error_Handler();
 1357              		.loc 1 522 5
 1358 0064 FFF7FEFF 		bl	Error_Handler
 1359              	.L62:
 523:Core/Src/main.c ****   }
 524:Core/Src/main.c ****   sClockSourceConfig.ClockSource = TIM_CLOCKSOURCE_INTERNAL;
 1360              		.loc 1 524 34
 1361 0068 4FF48053 		mov	r3, #4096
 1362 006c BB62     		str	r3, [r7, #40]
 525:Core/Src/main.c ****   if (HAL_TIM_ConfigClockSource(&htim2, &sClockSourceConfig) != HAL_OK)
 1363              		.loc 1 525 7
 1364 006e 07F12803 		add	r3, r7, #40
 1365 0072 1946     		mov	r1, r3
 1366 0074 2148     		ldr	r0, .L68
 1367 0076 FFF7FEFF 		bl	HAL_TIM_ConfigClockSource
 1368 007a 0346     		mov	r3, r0
 1369              		.loc 1 525 6
 1370 007c 002B     		cmp	r3, #0
 1371 007e 01D0     		beq	.L63
 526:Core/Src/main.c ****   {
 527:Core/Src/main.c ****     Error_Handler();
 1372              		.loc 1 527 5
 1373 0080 FFF7FEFF 		bl	Error_Handler
 1374              	.L63:
 528:Core/Src/main.c ****   }
 529:Core/Src/main.c ****   if (HAL_TIM_PWM_Init(&htim2) != HAL_OK)
 1375              		.loc 1 529 7
 1376 0084 1D48     		ldr	r0, .L68
 1377 0086 FFF7FEFF 		bl	HAL_TIM_PWM_Init
 1378 008a 0346     		mov	r3, r0
 1379              		.loc 1 529 6
 1380 008c 002B     		cmp	r3, #0
 1381 008e 01D0     		beq	.L64
 530:Core/Src/main.c ****   {
 531:Core/Src/main.c ****     Error_Handler();
 1382              		.loc 1 531 5
 1383 0090 FFF7FEFF 		bl	Error_Handler
 1384              	.L64:
 532:Core/Src/main.c ****   }
 533:Core/Src/main.c ****   sMasterConfig.MasterOutputTrigger = TIM_TRGO_RESET;
 1385              		.loc 1 533 37
 1386 0094 0023     		movs	r3, #0
 1387 0096 FB61     		str	r3, [r7, #28]
 534:Core/Src/main.c ****   sMasterConfig.MasterSlaveMode = TIM_MASTERSLAVEMODE_DISABLE;
 1388              		.loc 1 534 33
 1389 0098 0023     		movs	r3, #0
 1390 009a 7B62     		str	r3, [r7, #36]
 535:Core/Src/main.c ****   if (HAL_TIMEx_MasterConfigSynchronization(&htim2, &sMasterConfig) != HAL_OK)
 1391              		.loc 1 535 7
 1392 009c 07F11C03 		add	r3, r7, #28
 1393 00a0 1946     		mov	r1, r3
 1394 00a2 1648     		ldr	r0, .L68
 1395 00a4 FFF7FEFF 		bl	HAL_TIMEx_MasterConfigSynchronization
 1396 00a8 0346     		mov	r3, r0
 1397              		.loc 1 535 6
ARM GAS  C:\Users\Morroway\AppData\Local\Temp\ccKhlCKS.s 			page 35


 1398 00aa 002B     		cmp	r3, #0
 1399 00ac 01D0     		beq	.L65
 536:Core/Src/main.c ****   {
 537:Core/Src/main.c ****     Error_Handler();
 1400              		.loc 1 537 5
 1401 00ae FFF7FEFF 		bl	Error_Handler
 1402              	.L65:
 538:Core/Src/main.c ****   }
 539:Core/Src/main.c ****   sConfigOC.OCMode = TIM_OCMODE_PWM1;
 1403              		.loc 1 539 20
 1404 00b2 6023     		movs	r3, #96
 1405 00b4 3B60     		str	r3, [r7]
 540:Core/Src/main.c ****   sConfigOC.Pulse = 0;
 1406              		.loc 1 540 19
 1407 00b6 0023     		movs	r3, #0
 1408 00b8 7B60     		str	r3, [r7, #4]
 541:Core/Src/main.c ****   sConfigOC.OCPolarity = TIM_OCPOLARITY_HIGH;
 1409              		.loc 1 541 24
 1410 00ba 0023     		movs	r3, #0
 1411 00bc BB60     		str	r3, [r7, #8]
 542:Core/Src/main.c ****   sConfigOC.OCFastMode = TIM_OCFAST_DISABLE;
 1412              		.loc 1 542 24
 1413 00be 0023     		movs	r3, #0
 1414 00c0 3B61     		str	r3, [r7, #16]
 543:Core/Src/main.c ****   if (HAL_TIM_PWM_ConfigChannel(&htim2, &sConfigOC, TIM_CHANNEL_1) != HAL_OK)
 1415              		.loc 1 543 7
 1416 00c2 3B46     		mov	r3, r7
 1417 00c4 0022     		movs	r2, #0
 1418 00c6 1946     		mov	r1, r3
 1419 00c8 0C48     		ldr	r0, .L68
 1420 00ca FFF7FEFF 		bl	HAL_TIM_PWM_ConfigChannel
 1421 00ce 0346     		mov	r3, r0
 1422              		.loc 1 543 6
 1423 00d0 002B     		cmp	r3, #0
 1424 00d2 01D0     		beq	.L66
 544:Core/Src/main.c ****   {
 545:Core/Src/main.c ****     Error_Handler();
 1425              		.loc 1 545 5
 1426 00d4 FFF7FEFF 		bl	Error_Handler
 1427              	.L66:
 546:Core/Src/main.c ****   }
 547:Core/Src/main.c ****   if (HAL_TIM_PWM_ConfigChannel(&htim2, &sConfigOC, TIM_CHANNEL_2) != HAL_OK)
 1428              		.loc 1 547 7
 1429 00d8 3B46     		mov	r3, r7
 1430 00da 0422     		movs	r2, #4
 1431 00dc 1946     		mov	r1, r3
 1432 00de 0748     		ldr	r0, .L68
 1433 00e0 FFF7FEFF 		bl	HAL_TIM_PWM_ConfigChannel
 1434 00e4 0346     		mov	r3, r0
 1435              		.loc 1 547 6
 1436 00e6 002B     		cmp	r3, #0
 1437 00e8 01D0     		beq	.L67
 548:Core/Src/main.c ****   {
 549:Core/Src/main.c ****     Error_Handler();
 1438              		.loc 1 549 5
 1439 00ea FFF7FEFF 		bl	Error_Handler
 1440              	.L67:
ARM GAS  C:\Users\Morroway\AppData\Local\Temp\ccKhlCKS.s 			page 36


 550:Core/Src/main.c ****   }
 551:Core/Src/main.c ****   /* USER CODE BEGIN TIM2_Init 2 */
 552:Core/Src/main.c **** 
 553:Core/Src/main.c ****   /* USER CODE END TIM2_Init 2 */
 554:Core/Src/main.c ****   HAL_TIM_MspPostInit(&htim2);
 1441              		.loc 1 554 3
 1442 00ee 0348     		ldr	r0, .L68
 1443 00f0 FFF7FEFF 		bl	HAL_TIM_MspPostInit
 555:Core/Src/main.c **** 
 556:Core/Src/main.c **** }
 1444              		.loc 1 556 1
 1445 00f4 00BF     		nop
 1446 00f6 3837     		adds	r7, r7, #56
 1447              		.cfi_def_cfa_offset 8
 1448 00f8 BD46     		mov	sp, r7
 1449              		.cfi_def_cfa_register 13
 1450              		@ sp needed
 1451 00fa 80BD     		pop	{r7, pc}
 1452              	.L69:
 1453              		.align	2
 1454              	.L68:
 1455 00fc 00000000 		.word	htim2
 1456              		.cfi_endproc
 1457              	.LFE335:
 1459              		.section	.text.MX_TIM3_Init,"ax",%progbits
 1460              		.align	1
 1461              		.syntax unified
 1462              		.thumb
 1463              		.thumb_func
 1465              	MX_TIM3_Init:
 1466              	.LFB336:
 557:Core/Src/main.c **** 
 558:Core/Src/main.c **** /**
 559:Core/Src/main.c ****   * @brief TIM3 Initialization Function
 560:Core/Src/main.c ****   * @param None
 561:Core/Src/main.c ****   * @retval None
 562:Core/Src/main.c ****   */
 563:Core/Src/main.c **** static void MX_TIM3_Init(void)
 564:Core/Src/main.c **** {
 1467              		.loc 1 564 1
 1468              		.cfi_startproc
 1469              		@ args = 0, pretend = 0, frame = 56
 1470              		@ frame_needed = 1, uses_anonymous_args = 0
 1471 0000 80B5     		push	{r7, lr}
 1472              		.cfi_def_cfa_offset 8
 1473              		.cfi_offset 7, -8
 1474              		.cfi_offset 14, -4
 1475 0002 8EB0     		sub	sp, sp, #56
 1476              		.cfi_def_cfa_offset 64
 1477 0004 00AF     		add	r7, sp, #0
 1478              		.cfi_def_cfa_register 7
 565:Core/Src/main.c **** 
 566:Core/Src/main.c ****   /* USER CODE BEGIN TIM3_Init 0 */
 567:Core/Src/main.c **** 
 568:Core/Src/main.c ****   /* USER CODE END TIM3_Init 0 */
 569:Core/Src/main.c **** 
 570:Core/Src/main.c ****   TIM_ClockConfigTypeDef sClockSourceConfig = {0};
ARM GAS  C:\Users\Morroway\AppData\Local\Temp\ccKhlCKS.s 			page 37


 1479              		.loc 1 570 26
 1480 0006 07F12803 		add	r3, r7, #40
 1481 000a 0022     		movs	r2, #0
 1482 000c 1A60     		str	r2, [r3]
 1483 000e 5A60     		str	r2, [r3, #4]
 1484 0010 9A60     		str	r2, [r3, #8]
 1485 0012 DA60     		str	r2, [r3, #12]
 571:Core/Src/main.c ****   TIM_MasterConfigTypeDef sMasterConfig = {0};
 1486              		.loc 1 571 27
 1487 0014 07F11C03 		add	r3, r7, #28
 1488 0018 0022     		movs	r2, #0
 1489 001a 1A60     		str	r2, [r3]
 1490 001c 5A60     		str	r2, [r3, #4]
 1491 001e 9A60     		str	r2, [r3, #8]
 572:Core/Src/main.c ****   TIM_OC_InitTypeDef sConfigOC = {0};
 1492              		.loc 1 572 22
 1493 0020 3B46     		mov	r3, r7
 1494 0022 0022     		movs	r2, #0
 1495 0024 1A60     		str	r2, [r3]
 1496 0026 5A60     		str	r2, [r3, #4]
 1497 0028 9A60     		str	r2, [r3, #8]
 1498 002a DA60     		str	r2, [r3, #12]
 1499 002c 1A61     		str	r2, [r3, #16]
 1500 002e 5A61     		str	r2, [r3, #20]
 1501 0030 9A61     		str	r2, [r3, #24]
 573:Core/Src/main.c **** 
 574:Core/Src/main.c ****   /* USER CODE BEGIN TIM3_Init 1 */
 575:Core/Src/main.c **** 
 576:Core/Src/main.c ****   /* USER CODE END TIM3_Init 1 */
 577:Core/Src/main.c ****   htim3.Instance = TIM3;
 1502              		.loc 1 577 18
 1503 0032 3D4B     		ldr	r3, .L79
 1504 0034 3D4A     		ldr	r2, .L79+4
 1505 0036 1A60     		str	r2, [r3]
 578:Core/Src/main.c ****   htim3.Init.Prescaler = 119;
 1506              		.loc 1 578 24
 1507 0038 3B4B     		ldr	r3, .L79
 1508 003a 7722     		movs	r2, #119
 1509 003c 5A60     		str	r2, [r3, #4]
 579:Core/Src/main.c ****   htim3.Init.CounterMode = TIM_COUNTERMODE_UP;
 1510              		.loc 1 579 26
 1511 003e 3A4B     		ldr	r3, .L79
 1512 0040 0022     		movs	r2, #0
 1513 0042 9A60     		str	r2, [r3, #8]
 580:Core/Src/main.c ****   htim3.Init.Period = 255;
 1514              		.loc 1 580 21
 1515 0044 384B     		ldr	r3, .L79
 1516 0046 FF22     		movs	r2, #255
 1517 0048 DA60     		str	r2, [r3, #12]
 581:Core/Src/main.c ****   htim3.Init.ClockDivision = TIM_CLOCKDIVISION_DIV1;
 1518              		.loc 1 581 28
 1519 004a 374B     		ldr	r3, .L79
 1520 004c 0022     		movs	r2, #0
 1521 004e 1A61     		str	r2, [r3, #16]
 582:Core/Src/main.c ****   htim3.Init.AutoReloadPreload = TIM_AUTORELOAD_PRELOAD_ENABLE;
 1522              		.loc 1 582 32
 1523 0050 354B     		ldr	r3, .L79
ARM GAS  C:\Users\Morroway\AppData\Local\Temp\ccKhlCKS.s 			page 38


 1524 0052 8022     		movs	r2, #128
 1525 0054 9A61     		str	r2, [r3, #24]
 583:Core/Src/main.c ****   if (HAL_TIM_Base_Init(&htim3) != HAL_OK)
 1526              		.loc 1 583 7
 1527 0056 3448     		ldr	r0, .L79
 1528 0058 FFF7FEFF 		bl	HAL_TIM_Base_Init
 1529 005c 0346     		mov	r3, r0
 1530              		.loc 1 583 6
 1531 005e 002B     		cmp	r3, #0
 1532 0060 01D0     		beq	.L71
 584:Core/Src/main.c ****   {
 585:Core/Src/main.c ****     Error_Handler();
 1533              		.loc 1 585 5
 1534 0062 FFF7FEFF 		bl	Error_Handler
 1535              	.L71:
 586:Core/Src/main.c ****   }
 587:Core/Src/main.c ****   sClockSourceConfig.ClockSource = TIM_CLOCKSOURCE_INTERNAL;
 1536              		.loc 1 587 34
 1537 0066 4FF48053 		mov	r3, #4096
 1538 006a BB62     		str	r3, [r7, #40]
 588:Core/Src/main.c ****   if (HAL_TIM_ConfigClockSource(&htim3, &sClockSourceConfig) != HAL_OK)
 1539              		.loc 1 588 7
 1540 006c 07F12803 		add	r3, r7, #40
 1541 0070 1946     		mov	r1, r3
 1542 0072 2D48     		ldr	r0, .L79
 1543 0074 FFF7FEFF 		bl	HAL_TIM_ConfigClockSource
 1544 0078 0346     		mov	r3, r0
 1545              		.loc 1 588 6
 1546 007a 002B     		cmp	r3, #0
 1547 007c 01D0     		beq	.L72
 589:Core/Src/main.c ****   {
 590:Core/Src/main.c ****     Error_Handler();
 1548              		.loc 1 590 5
 1549 007e FFF7FEFF 		bl	Error_Handler
 1550              	.L72:
 591:Core/Src/main.c ****   }
 592:Core/Src/main.c ****   if (HAL_TIM_PWM_Init(&htim3) != HAL_OK)
 1551              		.loc 1 592 7
 1552 0082 2948     		ldr	r0, .L79
 1553 0084 FFF7FEFF 		bl	HAL_TIM_PWM_Init
 1554 0088 0346     		mov	r3, r0
 1555              		.loc 1 592 6
 1556 008a 002B     		cmp	r3, #0
 1557 008c 01D0     		beq	.L73
 593:Core/Src/main.c ****   {
 594:Core/Src/main.c ****     Error_Handler();
 1558              		.loc 1 594 5
 1559 008e FFF7FEFF 		bl	Error_Handler
 1560              	.L73:
 595:Core/Src/main.c ****   }
 596:Core/Src/main.c ****   sMasterConfig.MasterOutputTrigger = TIM_TRGO_RESET;
 1561              		.loc 1 596 37
 1562 0092 0023     		movs	r3, #0
 1563 0094 FB61     		str	r3, [r7, #28]
 597:Core/Src/main.c ****   sMasterConfig.MasterSlaveMode = TIM_MASTERSLAVEMODE_DISABLE;
 1564              		.loc 1 597 33
 1565 0096 0023     		movs	r3, #0
ARM GAS  C:\Users\Morroway\AppData\Local\Temp\ccKhlCKS.s 			page 39


 1566 0098 7B62     		str	r3, [r7, #36]
 598:Core/Src/main.c ****   if (HAL_TIMEx_MasterConfigSynchronization(&htim3, &sMasterConfig) != HAL_OK)
 1567              		.loc 1 598 7
 1568 009a 07F11C03 		add	r3, r7, #28
 1569 009e 1946     		mov	r1, r3
 1570 00a0 2148     		ldr	r0, .L79
 1571 00a2 FFF7FEFF 		bl	HAL_TIMEx_MasterConfigSynchronization
 1572 00a6 0346     		mov	r3, r0
 1573              		.loc 1 598 6
 1574 00a8 002B     		cmp	r3, #0
 1575 00aa 01D0     		beq	.L74
 599:Core/Src/main.c ****   {
 600:Core/Src/main.c ****     Error_Handler();
 1576              		.loc 1 600 5
 1577 00ac FFF7FEFF 		bl	Error_Handler
 1578              	.L74:
 601:Core/Src/main.c ****   }
 602:Core/Src/main.c ****   sConfigOC.OCMode = TIM_OCMODE_PWM1;
 1579              		.loc 1 602 20
 1580 00b0 6023     		movs	r3, #96
 1581 00b2 3B60     		str	r3, [r7]
 603:Core/Src/main.c ****   sConfigOC.Pulse = 0;
 1582              		.loc 1 603 19
 1583 00b4 0023     		movs	r3, #0
 1584 00b6 7B60     		str	r3, [r7, #4]
 604:Core/Src/main.c ****   sConfigOC.OCPolarity = TIM_OCPOLARITY_HIGH;
 1585              		.loc 1 604 24
 1586 00b8 0023     		movs	r3, #0
 1587 00ba BB60     		str	r3, [r7, #8]
 605:Core/Src/main.c ****   sConfigOC.OCFastMode = TIM_OCFAST_DISABLE;
 1588              		.loc 1 605 24
 1589 00bc 0023     		movs	r3, #0
 1590 00be 3B61     		str	r3, [r7, #16]
 606:Core/Src/main.c ****   if (HAL_TIM_PWM_ConfigChannel(&htim3, &sConfigOC, TIM_CHANNEL_1) != HAL_OK)
 1591              		.loc 1 606 7
 1592 00c0 3B46     		mov	r3, r7
 1593 00c2 0022     		movs	r2, #0
 1594 00c4 1946     		mov	r1, r3
 1595 00c6 1848     		ldr	r0, .L79
 1596 00c8 FFF7FEFF 		bl	HAL_TIM_PWM_ConfigChannel
 1597 00cc 0346     		mov	r3, r0
 1598              		.loc 1 606 6
 1599 00ce 002B     		cmp	r3, #0
 1600 00d0 01D0     		beq	.L75
 607:Core/Src/main.c ****   {
 608:Core/Src/main.c ****     Error_Handler();
 1601              		.loc 1 608 5
 1602 00d2 FFF7FEFF 		bl	Error_Handler
 1603              	.L75:
 609:Core/Src/main.c ****   }
 610:Core/Src/main.c ****   if (HAL_TIM_PWM_ConfigChannel(&htim3, &sConfigOC, TIM_CHANNEL_2) != HAL_OK)
 1604              		.loc 1 610 7
 1605 00d6 3B46     		mov	r3, r7
 1606 00d8 0422     		movs	r2, #4
 1607 00da 1946     		mov	r1, r3
 1608 00dc 1248     		ldr	r0, .L79
 1609 00de FFF7FEFF 		bl	HAL_TIM_PWM_ConfigChannel
ARM GAS  C:\Users\Morroway\AppData\Local\Temp\ccKhlCKS.s 			page 40


 1610 00e2 0346     		mov	r3, r0
 1611              		.loc 1 610 6
 1612 00e4 002B     		cmp	r3, #0
 1613 00e6 01D0     		beq	.L76
 611:Core/Src/main.c ****   {
 612:Core/Src/main.c ****     Error_Handler();
 1614              		.loc 1 612 5
 1615 00e8 FFF7FEFF 		bl	Error_Handler
 1616              	.L76:
 613:Core/Src/main.c ****   }
 614:Core/Src/main.c ****   if (HAL_TIM_PWM_ConfigChannel(&htim3, &sConfigOC, TIM_CHANNEL_3) != HAL_OK)
 1617              		.loc 1 614 7
 1618 00ec 3B46     		mov	r3, r7
 1619 00ee 0822     		movs	r2, #8
 1620 00f0 1946     		mov	r1, r3
 1621 00f2 0D48     		ldr	r0, .L79
 1622 00f4 FFF7FEFF 		bl	HAL_TIM_PWM_ConfigChannel
 1623 00f8 0346     		mov	r3, r0
 1624              		.loc 1 614 6
 1625 00fa 002B     		cmp	r3, #0
 1626 00fc 01D0     		beq	.L77
 615:Core/Src/main.c ****   {
 616:Core/Src/main.c ****     Error_Handler();
 1627              		.loc 1 616 5
 1628 00fe FFF7FEFF 		bl	Error_Handler
 1629              	.L77:
 617:Core/Src/main.c ****   }
 618:Core/Src/main.c ****   if (HAL_TIM_PWM_ConfigChannel(&htim3, &sConfigOC, TIM_CHANNEL_4) != HAL_OK)
 1630              		.loc 1 618 7
 1631 0102 3B46     		mov	r3, r7
 1632 0104 0C22     		movs	r2, #12
 1633 0106 1946     		mov	r1, r3
 1634 0108 0748     		ldr	r0, .L79
 1635 010a FFF7FEFF 		bl	HAL_TIM_PWM_ConfigChannel
 1636 010e 0346     		mov	r3, r0
 1637              		.loc 1 618 6
 1638 0110 002B     		cmp	r3, #0
 1639 0112 01D0     		beq	.L78
 619:Core/Src/main.c ****   {
 620:Core/Src/main.c ****     Error_Handler();
 1640              		.loc 1 620 5
 1641 0114 FFF7FEFF 		bl	Error_Handler
 1642              	.L78:
 621:Core/Src/main.c ****   }
 622:Core/Src/main.c ****   /* USER CODE BEGIN TIM3_Init 2 */
 623:Core/Src/main.c **** 
 624:Core/Src/main.c ****   /* USER CODE END TIM3_Init 2 */
 625:Core/Src/main.c ****   HAL_TIM_MspPostInit(&htim3);
 1643              		.loc 1 625 3
 1644 0118 0348     		ldr	r0, .L79
 1645 011a FFF7FEFF 		bl	HAL_TIM_MspPostInit
 626:Core/Src/main.c **** 
 627:Core/Src/main.c **** }
 1646              		.loc 1 627 1
 1647 011e 00BF     		nop
 1648 0120 3837     		adds	r7, r7, #56
 1649              		.cfi_def_cfa_offset 8
ARM GAS  C:\Users\Morroway\AppData\Local\Temp\ccKhlCKS.s 			page 41


 1650 0122 BD46     		mov	sp, r7
 1651              		.cfi_def_cfa_register 13
 1652              		@ sp needed
 1653 0124 80BD     		pop	{r7, pc}
 1654              	.L80:
 1655 0126 00BF     		.align	2
 1656              	.L79:
 1657 0128 00000000 		.word	htim3
 1658 012c 00040040 		.word	1073742848
 1659              		.cfi_endproc
 1660              	.LFE336:
 1662              		.section	.text.MX_TIM4_Init,"ax",%progbits
 1663              		.align	1
 1664              		.syntax unified
 1665              		.thumb
 1666              		.thumb_func
 1668              	MX_TIM4_Init:
 1669              	.LFB337:
 628:Core/Src/main.c **** 
 629:Core/Src/main.c **** /**
 630:Core/Src/main.c ****   * @brief TIM4 Initialization Function
 631:Core/Src/main.c ****   * @param None
 632:Core/Src/main.c ****   * @retval None
 633:Core/Src/main.c ****   */
 634:Core/Src/main.c **** static void MX_TIM4_Init(void)
 635:Core/Src/main.c **** {
 1670              		.loc 1 635 1
 1671              		.cfi_startproc
 1672              		@ args = 0, pretend = 0, frame = 32
 1673              		@ frame_needed = 1, uses_anonymous_args = 0
 1674 0000 80B5     		push	{r7, lr}
 1675              		.cfi_def_cfa_offset 8
 1676              		.cfi_offset 7, -8
 1677              		.cfi_offset 14, -4
 1678 0002 88B0     		sub	sp, sp, #32
 1679              		.cfi_def_cfa_offset 40
 1680 0004 00AF     		add	r7, sp, #0
 1681              		.cfi_def_cfa_register 7
 636:Core/Src/main.c **** 
 637:Core/Src/main.c ****   /* USER CODE BEGIN TIM4_Init 0 */
 638:Core/Src/main.c **** 
 639:Core/Src/main.c ****   /* USER CODE END TIM4_Init 0 */
 640:Core/Src/main.c **** 
 641:Core/Src/main.c ****   TIM_ClockConfigTypeDef sClockSourceConfig = {0};
 1682              		.loc 1 641 26
 1683 0006 07F11003 		add	r3, r7, #16
 1684 000a 0022     		movs	r2, #0
 1685 000c 1A60     		str	r2, [r3]
 1686 000e 5A60     		str	r2, [r3, #4]
 1687 0010 9A60     		str	r2, [r3, #8]
 1688 0012 DA60     		str	r2, [r3, #12]
 642:Core/Src/main.c ****   TIM_MasterConfigTypeDef sMasterConfig = {0};
 1689              		.loc 1 642 27
 1690 0014 3B1D     		adds	r3, r7, #4
 1691 0016 0022     		movs	r2, #0
 1692 0018 1A60     		str	r2, [r3]
 1693 001a 5A60     		str	r2, [r3, #4]
ARM GAS  C:\Users\Morroway\AppData\Local\Temp\ccKhlCKS.s 			page 42


 1694 001c 9A60     		str	r2, [r3, #8]
 643:Core/Src/main.c **** 
 644:Core/Src/main.c ****   /* USER CODE BEGIN TIM4_Init 1 */
 645:Core/Src/main.c **** 
 646:Core/Src/main.c ****   /* USER CODE END TIM4_Init 1 */
 647:Core/Src/main.c ****   htim4.Instance = TIM4;
 1695              		.loc 1 647 18
 1696 001e 1D4B     		ldr	r3, .L86
 1697 0020 1D4A     		ldr	r2, .L86+4
 1698 0022 1A60     		str	r2, [r3]
 648:Core/Src/main.c ****   htim4.Init.Prescaler = 119;
 1699              		.loc 1 648 24
 1700 0024 1B4B     		ldr	r3, .L86
 1701 0026 7722     		movs	r2, #119
 1702 0028 5A60     		str	r2, [r3, #4]
 649:Core/Src/main.c ****   htim4.Init.CounterMode = TIM_COUNTERMODE_UP;
 1703              		.loc 1 649 26
 1704 002a 1A4B     		ldr	r3, .L86
 1705 002c 0022     		movs	r2, #0
 1706 002e 9A60     		str	r2, [r3, #8]
 650:Core/Src/main.c ****   htim4.Init.Period = 65535;
 1707              		.loc 1 650 21
 1708 0030 184B     		ldr	r3, .L86
 1709 0032 4FF6FF72 		movw	r2, #65535
 1710 0036 DA60     		str	r2, [r3, #12]
 651:Core/Src/main.c ****   htim4.Init.ClockDivision = TIM_CLOCKDIVISION_DIV1;
 1711              		.loc 1 651 28
 1712 0038 164B     		ldr	r3, .L86
 1713 003a 0022     		movs	r2, #0
 1714 003c 1A61     		str	r2, [r3, #16]
 652:Core/Src/main.c ****   htim4.Init.AutoReloadPreload = TIM_AUTORELOAD_PRELOAD_DISABLE;
 1715              		.loc 1 652 32
 1716 003e 154B     		ldr	r3, .L86
 1717 0040 0022     		movs	r2, #0
 1718 0042 9A61     		str	r2, [r3, #24]
 653:Core/Src/main.c ****   if (HAL_TIM_Base_Init(&htim4) != HAL_OK)
 1719              		.loc 1 653 7
 1720 0044 1348     		ldr	r0, .L86
 1721 0046 FFF7FEFF 		bl	HAL_TIM_Base_Init
 1722 004a 0346     		mov	r3, r0
 1723              		.loc 1 653 6
 1724 004c 002B     		cmp	r3, #0
 1725 004e 01D0     		beq	.L82
 654:Core/Src/main.c ****   {
 655:Core/Src/main.c ****     Error_Handler();
 1726              		.loc 1 655 5
 1727 0050 FFF7FEFF 		bl	Error_Handler
 1728              	.L82:
 656:Core/Src/main.c ****   }
 657:Core/Src/main.c ****   sClockSourceConfig.ClockSource = TIM_CLOCKSOURCE_INTERNAL;
 1729              		.loc 1 657 34
 1730 0054 4FF48053 		mov	r3, #4096
 1731 0058 3B61     		str	r3, [r7, #16]
 658:Core/Src/main.c ****   if (HAL_TIM_ConfigClockSource(&htim4, &sClockSourceConfig) != HAL_OK)
 1732              		.loc 1 658 7
 1733 005a 07F11003 		add	r3, r7, #16
 1734 005e 1946     		mov	r1, r3
ARM GAS  C:\Users\Morroway\AppData\Local\Temp\ccKhlCKS.s 			page 43


 1735 0060 0C48     		ldr	r0, .L86
 1736 0062 FFF7FEFF 		bl	HAL_TIM_ConfigClockSource
 1737 0066 0346     		mov	r3, r0
 1738              		.loc 1 658 6
 1739 0068 002B     		cmp	r3, #0
 1740 006a 01D0     		beq	.L83
 659:Core/Src/main.c ****   {
 660:Core/Src/main.c ****     Error_Handler();
 1741              		.loc 1 660 5
 1742 006c FFF7FEFF 		bl	Error_Handler
 1743              	.L83:
 661:Core/Src/main.c ****   }
 662:Core/Src/main.c ****   sMasterConfig.MasterOutputTrigger = TIM_TRGO_RESET;
 1744              		.loc 1 662 37
 1745 0070 0023     		movs	r3, #0
 1746 0072 7B60     		str	r3, [r7, #4]
 663:Core/Src/main.c ****   sMasterConfig.MasterSlaveMode = TIM_MASTERSLAVEMODE_DISABLE;
 1747              		.loc 1 663 33
 1748 0074 0023     		movs	r3, #0
 1749 0076 FB60     		str	r3, [r7, #12]
 664:Core/Src/main.c ****   if (HAL_TIMEx_MasterConfigSynchronization(&htim4, &sMasterConfig) != HAL_OK)
 1750              		.loc 1 664 7
 1751 0078 3B1D     		adds	r3, r7, #4
 1752 007a 1946     		mov	r1, r3
 1753 007c 0548     		ldr	r0, .L86
 1754 007e FFF7FEFF 		bl	HAL_TIMEx_MasterConfigSynchronization
 1755 0082 0346     		mov	r3, r0
 1756              		.loc 1 664 6
 1757 0084 002B     		cmp	r3, #0
 1758 0086 01D0     		beq	.L85
 665:Core/Src/main.c ****   {
 666:Core/Src/main.c ****     Error_Handler();
 1759              		.loc 1 666 5
 1760 0088 FFF7FEFF 		bl	Error_Handler
 1761              	.L85:
 667:Core/Src/main.c ****   }
 668:Core/Src/main.c ****   /* USER CODE BEGIN TIM4_Init 2 */
 669:Core/Src/main.c **** 
 670:Core/Src/main.c ****   /* USER CODE END TIM4_Init 2 */
 671:Core/Src/main.c **** 
 672:Core/Src/main.c **** }
 1762              		.loc 1 672 1
 1763 008c 00BF     		nop
 1764 008e 2037     		adds	r7, r7, #32
 1765              		.cfi_def_cfa_offset 8
 1766 0090 BD46     		mov	sp, r7
 1767              		.cfi_def_cfa_register 13
 1768              		@ sp needed
 1769 0092 80BD     		pop	{r7, pc}
 1770              	.L87:
 1771              		.align	2
 1772              	.L86:
 1773 0094 00000000 		.word	htim4
 1774 0098 00080040 		.word	1073743872
 1775              		.cfi_endproc
 1776              	.LFE337:
 1778              		.section	.text.MX_TIM5_Init,"ax",%progbits
ARM GAS  C:\Users\Morroway\AppData\Local\Temp\ccKhlCKS.s 			page 44


 1779              		.align	1
 1780              		.syntax unified
 1781              		.thumb
 1782              		.thumb_func
 1784              	MX_TIM5_Init:
 1785              	.LFB338:
 673:Core/Src/main.c **** 
 674:Core/Src/main.c **** /**
 675:Core/Src/main.c ****   * @brief TIM5 Initialization Function
 676:Core/Src/main.c ****   * @param None
 677:Core/Src/main.c ****   * @retval None
 678:Core/Src/main.c ****   */
 679:Core/Src/main.c **** static void MX_TIM5_Init(void)
 680:Core/Src/main.c **** {
 1786              		.loc 1 680 1
 1787              		.cfi_startproc
 1788              		@ args = 0, pretend = 0, frame = 32
 1789              		@ frame_needed = 1, uses_anonymous_args = 0
 1790 0000 80B5     		push	{r7, lr}
 1791              		.cfi_def_cfa_offset 8
 1792              		.cfi_offset 7, -8
 1793              		.cfi_offset 14, -4
 1794 0002 88B0     		sub	sp, sp, #32
 1795              		.cfi_def_cfa_offset 40
 1796 0004 00AF     		add	r7, sp, #0
 1797              		.cfi_def_cfa_register 7
 681:Core/Src/main.c **** 
 682:Core/Src/main.c ****   /* USER CODE BEGIN TIM5_Init 0 */
 683:Core/Src/main.c **** 
 684:Core/Src/main.c ****   /* USER CODE END TIM5_Init 0 */
 685:Core/Src/main.c **** 
 686:Core/Src/main.c ****   TIM_ClockConfigTypeDef sClockSourceConfig = {0};
 1798              		.loc 1 686 26
 1799 0006 07F11003 		add	r3, r7, #16
 1800 000a 0022     		movs	r2, #0
 1801 000c 1A60     		str	r2, [r3]
 1802 000e 5A60     		str	r2, [r3, #4]
 1803 0010 9A60     		str	r2, [r3, #8]
 1804 0012 DA60     		str	r2, [r3, #12]
 687:Core/Src/main.c ****   TIM_MasterConfigTypeDef sMasterConfig = {0};
 1805              		.loc 1 687 27
 1806 0014 3B1D     		adds	r3, r7, #4
 1807 0016 0022     		movs	r2, #0
 1808 0018 1A60     		str	r2, [r3]
 1809 001a 5A60     		str	r2, [r3, #4]
 1810 001c 9A60     		str	r2, [r3, #8]
 688:Core/Src/main.c **** 
 689:Core/Src/main.c ****   /* USER CODE BEGIN TIM5_Init 1 */
 690:Core/Src/main.c **** 
 691:Core/Src/main.c ****   /* USER CODE END TIM5_Init 1 */
 692:Core/Src/main.c ****   htim5.Instance = TIM5;
 1811              		.loc 1 692 18
 1812 001e 1D4B     		ldr	r3, .L93
 1813 0020 1D4A     		ldr	r2, .L93+4
 1814 0022 1A60     		str	r2, [r3]
 693:Core/Src/main.c ****   htim5.Init.Prescaler = 119;
 1815              		.loc 1 693 24
ARM GAS  C:\Users\Morroway\AppData\Local\Temp\ccKhlCKS.s 			page 45


 1816 0024 1B4B     		ldr	r3, .L93
 1817 0026 7722     		movs	r2, #119
 1818 0028 5A60     		str	r2, [r3, #4]
 694:Core/Src/main.c ****   htim5.Init.CounterMode = TIM_COUNTERMODE_UP;
 1819              		.loc 1 694 26
 1820 002a 1A4B     		ldr	r3, .L93
 1821 002c 0022     		movs	r2, #0
 1822 002e 9A60     		str	r2, [r3, #8]
 695:Core/Src/main.c ****   htim5.Init.Period = 4294967295;
 1823              		.loc 1 695 21
 1824 0030 184B     		ldr	r3, .L93
 1825 0032 4FF0FF32 		mov	r2, #-1
 1826 0036 DA60     		str	r2, [r3, #12]
 696:Core/Src/main.c ****   htim5.Init.ClockDivision = TIM_CLOCKDIVISION_DIV1;
 1827              		.loc 1 696 28
 1828 0038 164B     		ldr	r3, .L93
 1829 003a 0022     		movs	r2, #0
 1830 003c 1A61     		str	r2, [r3, #16]
 697:Core/Src/main.c ****   htim5.Init.AutoReloadPreload = TIM_AUTORELOAD_PRELOAD_DISABLE;
 1831              		.loc 1 697 32
 1832 003e 154B     		ldr	r3, .L93
 1833 0040 0022     		movs	r2, #0
 1834 0042 9A61     		str	r2, [r3, #24]
 698:Core/Src/main.c ****   if (HAL_TIM_Base_Init(&htim5) != HAL_OK)
 1835              		.loc 1 698 7
 1836 0044 1348     		ldr	r0, .L93
 1837 0046 FFF7FEFF 		bl	HAL_TIM_Base_Init
 1838 004a 0346     		mov	r3, r0
 1839              		.loc 1 698 6
 1840 004c 002B     		cmp	r3, #0
 1841 004e 01D0     		beq	.L89
 699:Core/Src/main.c ****   {
 700:Core/Src/main.c ****     Error_Handler();
 1842              		.loc 1 700 5
 1843 0050 FFF7FEFF 		bl	Error_Handler
 1844              	.L89:
 701:Core/Src/main.c ****   }
 702:Core/Src/main.c ****   sClockSourceConfig.ClockSource = TIM_CLOCKSOURCE_INTERNAL;
 1845              		.loc 1 702 34
 1846 0054 4FF48053 		mov	r3, #4096
 1847 0058 3B61     		str	r3, [r7, #16]
 703:Core/Src/main.c ****   if (HAL_TIM_ConfigClockSource(&htim5, &sClockSourceConfig) != HAL_OK)
 1848              		.loc 1 703 7
 1849 005a 07F11003 		add	r3, r7, #16
 1850 005e 1946     		mov	r1, r3
 1851 0060 0C48     		ldr	r0, .L93
 1852 0062 FFF7FEFF 		bl	HAL_TIM_ConfigClockSource
 1853 0066 0346     		mov	r3, r0
 1854              		.loc 1 703 6
 1855 0068 002B     		cmp	r3, #0
 1856 006a 01D0     		beq	.L90
 704:Core/Src/main.c ****   {
 705:Core/Src/main.c ****     Error_Handler();
 1857              		.loc 1 705 5
 1858 006c FFF7FEFF 		bl	Error_Handler
 1859              	.L90:
 706:Core/Src/main.c ****   }
ARM GAS  C:\Users\Morroway\AppData\Local\Temp\ccKhlCKS.s 			page 46


 707:Core/Src/main.c ****   sMasterConfig.MasterOutputTrigger = TIM_TRGO_RESET;
 1860              		.loc 1 707 37
 1861 0070 0023     		movs	r3, #0
 1862 0072 7B60     		str	r3, [r7, #4]
 708:Core/Src/main.c ****   sMasterConfig.MasterSlaveMode = TIM_MASTERSLAVEMODE_DISABLE;
 1863              		.loc 1 708 33
 1864 0074 0023     		movs	r3, #0
 1865 0076 FB60     		str	r3, [r7, #12]
 709:Core/Src/main.c ****   if (HAL_TIMEx_MasterConfigSynchronization(&htim5, &sMasterConfig) != HAL_OK)
 1866              		.loc 1 709 7
 1867 0078 3B1D     		adds	r3, r7, #4
 1868 007a 1946     		mov	r1, r3
 1869 007c 0548     		ldr	r0, .L93
 1870 007e FFF7FEFF 		bl	HAL_TIMEx_MasterConfigSynchronization
 1871 0082 0346     		mov	r3, r0
 1872              		.loc 1 709 6
 1873 0084 002B     		cmp	r3, #0
 1874 0086 01D0     		beq	.L92
 710:Core/Src/main.c ****   {
 711:Core/Src/main.c ****     Error_Handler();
 1875              		.loc 1 711 5
 1876 0088 FFF7FEFF 		bl	Error_Handler
 1877              	.L92:
 712:Core/Src/main.c ****   }
 713:Core/Src/main.c ****   /* USER CODE BEGIN TIM5_Init 2 */
 714:Core/Src/main.c **** 
 715:Core/Src/main.c ****   /* USER CODE END TIM5_Init 2 */
 716:Core/Src/main.c **** 
 717:Core/Src/main.c **** }
 1878              		.loc 1 717 1
 1879 008c 00BF     		nop
 1880 008e 2037     		adds	r7, r7, #32
 1881              		.cfi_def_cfa_offset 8
 1882 0090 BD46     		mov	sp, r7
 1883              		.cfi_def_cfa_register 13
 1884              		@ sp needed
 1885 0092 80BD     		pop	{r7, pc}
 1886              	.L94:
 1887              		.align	2
 1888              	.L93:
 1889 0094 00000000 		.word	htim5
 1890 0098 000C0040 		.word	1073744896
 1891              		.cfi_endproc
 1892              	.LFE338:
 1894              		.section	.text.MX_USB_OTG_FS_PCD_Init,"ax",%progbits
 1895              		.align	1
 1896              		.syntax unified
 1897              		.thumb
 1898              		.thumb_func
 1900              	MX_USB_OTG_FS_PCD_Init:
 1901              	.LFB339:
 718:Core/Src/main.c **** 
 719:Core/Src/main.c **** /**
 720:Core/Src/main.c ****   * @brief USB_OTG_FS Initialization Function
 721:Core/Src/main.c ****   * @param None
 722:Core/Src/main.c ****   * @retval None
 723:Core/Src/main.c ****   */
ARM GAS  C:\Users\Morroway\AppData\Local\Temp\ccKhlCKS.s 			page 47


 724:Core/Src/main.c **** static void MX_USB_OTG_FS_PCD_Init(void)
 725:Core/Src/main.c **** {
 1902              		.loc 1 725 1
 1903              		.cfi_startproc
 1904              		@ args = 0, pretend = 0, frame = 0
 1905              		@ frame_needed = 1, uses_anonymous_args = 0
 1906 0000 80B5     		push	{r7, lr}
 1907              		.cfi_def_cfa_offset 8
 1908              		.cfi_offset 7, -8
 1909              		.cfi_offset 14, -4
 1910 0002 00AF     		add	r7, sp, #0
 1911              		.cfi_def_cfa_register 7
 726:Core/Src/main.c **** 
 727:Core/Src/main.c ****   /* USER CODE BEGIN USB_OTG_FS_Init 0 */
 728:Core/Src/main.c **** 
 729:Core/Src/main.c ****   /* USER CODE END USB_OTG_FS_Init 0 */
 730:Core/Src/main.c **** 
 731:Core/Src/main.c ****   /* USER CODE BEGIN USB_OTG_FS_Init 1 */
 732:Core/Src/main.c **** 
 733:Core/Src/main.c ****   /* USER CODE END USB_OTG_FS_Init 1 */
 734:Core/Src/main.c ****   hpcd_USB_OTG_FS.Instance = USB_OTG_FS;
 1912              		.loc 1 734 28
 1913 0004 124B     		ldr	r3, .L98
 1914 0006 4FF0A042 		mov	r2, #1342177280
 1915 000a 1A60     		str	r2, [r3]
 735:Core/Src/main.c ****   hpcd_USB_OTG_FS.Init.dev_endpoints = 6;
 1916              		.loc 1 735 38
 1917 000c 104B     		ldr	r3, .L98
 1918 000e 0622     		movs	r2, #6
 1919 0010 5A60     		str	r2, [r3, #4]
 736:Core/Src/main.c ****   hpcd_USB_OTG_FS.Init.phy_itface = PCD_PHY_EMBEDDED;
 1920              		.loc 1 736 35
 1921 0012 0F4B     		ldr	r3, .L98
 1922 0014 0222     		movs	r2, #2
 1923 0016 9A61     		str	r2, [r3, #24]
 737:Core/Src/main.c ****   hpcd_USB_OTG_FS.Init.Sof_enable = ENABLE;
 1924              		.loc 1 737 35
 1925 0018 0D4B     		ldr	r3, .L98
 1926 001a 0122     		movs	r2, #1
 1927 001c DA61     		str	r2, [r3, #28]
 738:Core/Src/main.c ****   hpcd_USB_OTG_FS.Init.low_power_enable = DISABLE;
 1928              		.loc 1 738 41
 1929 001e 0C4B     		ldr	r3, .L98
 1930 0020 0022     		movs	r2, #0
 1931 0022 1A62     		str	r2, [r3, #32]
 739:Core/Src/main.c ****   hpcd_USB_OTG_FS.Init.lpm_enable = DISABLE;
 1932              		.loc 1 739 35
 1933 0024 0A4B     		ldr	r3, .L98
 1934 0026 0022     		movs	r2, #0
 1935 0028 5A62     		str	r2, [r3, #36]
 740:Core/Src/main.c ****   hpcd_USB_OTG_FS.Init.battery_charging_enable = ENABLE;
 1936              		.loc 1 740 48
 1937 002a 094B     		ldr	r3, .L98
 1938 002c 0122     		movs	r2, #1
 1939 002e 9A62     		str	r2, [r3, #40]
 741:Core/Src/main.c ****   hpcd_USB_OTG_FS.Init.use_dedicated_ep1 = DISABLE;
 1940              		.loc 1 741 42
ARM GAS  C:\Users\Morroway\AppData\Local\Temp\ccKhlCKS.s 			page 48


 1941 0030 074B     		ldr	r3, .L98
 1942 0032 0022     		movs	r2, #0
 1943 0034 1A63     		str	r2, [r3, #48]
 742:Core/Src/main.c ****   hpcd_USB_OTG_FS.Init.vbus_sensing_enable = ENABLE;
 1944              		.loc 1 742 44
 1945 0036 064B     		ldr	r3, .L98
 1946 0038 0122     		movs	r2, #1
 1947 003a DA62     		str	r2, [r3, #44]
 743:Core/Src/main.c ****   if (HAL_PCD_Init(&hpcd_USB_OTG_FS) != HAL_OK)
 1948              		.loc 1 743 7
 1949 003c 0448     		ldr	r0, .L98
 1950 003e FFF7FEFF 		bl	HAL_PCD_Init
 1951 0042 0346     		mov	r3, r0
 1952              		.loc 1 743 6
 1953 0044 002B     		cmp	r3, #0
 1954 0046 01D0     		beq	.L97
 744:Core/Src/main.c ****   {
 745:Core/Src/main.c ****     Error_Handler();
 1955              		.loc 1 745 5
 1956 0048 FFF7FEFF 		bl	Error_Handler
 1957              	.L97:
 746:Core/Src/main.c ****   }
 747:Core/Src/main.c ****   /* USER CODE BEGIN USB_OTG_FS_Init 2 */
 748:Core/Src/main.c **** 
 749:Core/Src/main.c ****   /* USER CODE END USB_OTG_FS_Init 2 */
 750:Core/Src/main.c **** 
 751:Core/Src/main.c **** }
 1958              		.loc 1 751 1
 1959 004c 00BF     		nop
 1960 004e 80BD     		pop	{r7, pc}
 1961              	.L99:
 1962              		.align	2
 1963              	.L98:
 1964 0050 00000000 		.word	hpcd_USB_OTG_FS
 1965              		.cfi_endproc
 1966              	.LFE339:
 1968              		.section	.text.MX_DMA_Init,"ax",%progbits
 1969              		.align	1
 1970              		.syntax unified
 1971              		.thumb
 1972              		.thumb_func
 1974              	MX_DMA_Init:
 1975              	.LFB340:
 752:Core/Src/main.c **** 
 753:Core/Src/main.c **** /**
 754:Core/Src/main.c ****   * Enable DMA controller clock
 755:Core/Src/main.c ****   */
 756:Core/Src/main.c **** static void MX_DMA_Init(void)
 757:Core/Src/main.c **** {
 1976              		.loc 1 757 1
 1977              		.cfi_startproc
 1978              		@ args = 0, pretend = 0, frame = 8
 1979              		@ frame_needed = 1, uses_anonymous_args = 0
 1980 0000 80B5     		push	{r7, lr}
 1981              		.cfi_def_cfa_offset 8
 1982              		.cfi_offset 7, -8
 1983              		.cfi_offset 14, -4
ARM GAS  C:\Users\Morroway\AppData\Local\Temp\ccKhlCKS.s 			page 49


 1984 0002 82B0     		sub	sp, sp, #8
 1985              		.cfi_def_cfa_offset 16
 1986 0004 00AF     		add	r7, sp, #0
 1987              		.cfi_def_cfa_register 7
 1988              	.LBB4:
 758:Core/Src/main.c **** 
 759:Core/Src/main.c ****   /* DMA controller clock enable */
 760:Core/Src/main.c ****   __HAL_RCC_DMAMUX1_CLK_ENABLE();
 1989              		.loc 1 760 3
 1990 0006 164B     		ldr	r3, .L101
 1991 0008 9B6C     		ldr	r3, [r3, #72]
 1992 000a 154A     		ldr	r2, .L101
 1993 000c 43F00403 		orr	r3, r3, #4
 1994 0010 9364     		str	r3, [r2, #72]
 1995 0012 134B     		ldr	r3, .L101
 1996 0014 9B6C     		ldr	r3, [r3, #72]
 1997 0016 03F00403 		and	r3, r3, #4
 1998 001a 7B60     		str	r3, [r7, #4]
 1999 001c 7B68     		ldr	r3, [r7, #4]
 2000              	.LBE4:
 2001              	.LBB5:
 761:Core/Src/main.c ****   __HAL_RCC_DMA1_CLK_ENABLE();
 2002              		.loc 1 761 3
 2003 001e 104B     		ldr	r3, .L101
 2004 0020 9B6C     		ldr	r3, [r3, #72]
 2005 0022 0F4A     		ldr	r2, .L101
 2006 0024 43F00103 		orr	r3, r3, #1
 2007 0028 9364     		str	r3, [r2, #72]
 2008 002a 0D4B     		ldr	r3, .L101
 2009 002c 9B6C     		ldr	r3, [r3, #72]
 2010 002e 03F00103 		and	r3, r3, #1
 2011 0032 3B60     		str	r3, [r7]
 2012 0034 3B68     		ldr	r3, [r7]
 2013              	.LBE5:
 762:Core/Src/main.c **** 
 763:Core/Src/main.c ****   /* DMA interrupt init */
 764:Core/Src/main.c ****   /* DMA1_Channel1_IRQn interrupt configuration */
 765:Core/Src/main.c ****   HAL_NVIC_SetPriority(DMA1_Channel1_IRQn, 0, 0);
 2014              		.loc 1 765 3
 2015 0036 0022     		movs	r2, #0
 2016 0038 0021     		movs	r1, #0
 2017 003a 0B20     		movs	r0, #11
 2018 003c FFF7FEFF 		bl	HAL_NVIC_SetPriority
 766:Core/Src/main.c ****   HAL_NVIC_EnableIRQ(DMA1_Channel1_IRQn);
 2019              		.loc 1 766 3
 2020 0040 0B20     		movs	r0, #11
 2021 0042 FFF7FEFF 		bl	HAL_NVIC_EnableIRQ
 767:Core/Src/main.c ****   /* DMA1_Channel2_IRQn interrupt configuration */
 768:Core/Src/main.c ****   HAL_NVIC_SetPriority(DMA1_Channel2_IRQn, 0, 0);
 2022              		.loc 1 768 3
 2023 0046 0022     		movs	r2, #0
 2024 0048 0021     		movs	r1, #0
 2025 004a 0C20     		movs	r0, #12
 2026 004c FFF7FEFF 		bl	HAL_NVIC_SetPriority
 769:Core/Src/main.c ****   HAL_NVIC_EnableIRQ(DMA1_Channel2_IRQn);
 2027              		.loc 1 769 3
 2028 0050 0C20     		movs	r0, #12
ARM GAS  C:\Users\Morroway\AppData\Local\Temp\ccKhlCKS.s 			page 50


 2029 0052 FFF7FEFF 		bl	HAL_NVIC_EnableIRQ
 770:Core/Src/main.c **** 
 771:Core/Src/main.c **** }
 2030              		.loc 1 771 1
 2031 0056 00BF     		nop
 2032 0058 0837     		adds	r7, r7, #8
 2033              		.cfi_def_cfa_offset 8
 2034 005a BD46     		mov	sp, r7
 2035              		.cfi_def_cfa_register 13
 2036              		@ sp needed
 2037 005c 80BD     		pop	{r7, pc}
 2038              	.L102:
 2039 005e 00BF     		.align	2
 2040              	.L101:
 2041 0060 00100240 		.word	1073876992
 2042              		.cfi_endproc
 2043              	.LFE340:
 2045              		.section	.text.MX_GPIO_Init,"ax",%progbits
 2046              		.align	1
 2047              		.syntax unified
 2048              		.thumb
 2049              		.thumb_func
 2051              	MX_GPIO_Init:
 2052              	.LFB341:
 772:Core/Src/main.c **** 
 773:Core/Src/main.c **** /**
 774:Core/Src/main.c ****   * @brief GPIO Initialization Function
 775:Core/Src/main.c ****   * @param None
 776:Core/Src/main.c ****   * @retval None
 777:Core/Src/main.c ****   */
 778:Core/Src/main.c **** static void MX_GPIO_Init(void)
 779:Core/Src/main.c **** {
 2053              		.loc 1 779 1
 2054              		.cfi_startproc
 2055              		@ args = 0, pretend = 0, frame = 48
 2056              		@ frame_needed = 1, uses_anonymous_args = 0
 2057 0000 80B5     		push	{r7, lr}
 2058              		.cfi_def_cfa_offset 8
 2059              		.cfi_offset 7, -8
 2060              		.cfi_offset 14, -4
 2061 0002 8CB0     		sub	sp, sp, #48
 2062              		.cfi_def_cfa_offset 56
 2063 0004 00AF     		add	r7, sp, #0
 2064              		.cfi_def_cfa_register 7
 780:Core/Src/main.c ****   GPIO_InitTypeDef GPIO_InitStruct = {0};
 2065              		.loc 1 780 20
 2066 0006 07F11C03 		add	r3, r7, #28
 2067 000a 0022     		movs	r2, #0
 2068 000c 1A60     		str	r2, [r3]
 2069 000e 5A60     		str	r2, [r3, #4]
 2070 0010 9A60     		str	r2, [r3, #8]
 2071 0012 DA60     		str	r2, [r3, #12]
 2072 0014 1A61     		str	r2, [r3, #16]
 2073              	.LBB6:
 781:Core/Src/main.c **** 
 782:Core/Src/main.c ****   /* GPIO Ports Clock Enable */
 783:Core/Src/main.c ****   __HAL_RCC_GPIOE_CLK_ENABLE();
ARM GAS  C:\Users\Morroway\AppData\Local\Temp\ccKhlCKS.s 			page 51


 2074              		.loc 1 783 3
 2075 0016 7B4B     		ldr	r3, .L104
 2076 0018 DB6C     		ldr	r3, [r3, #76]
 2077 001a 7A4A     		ldr	r2, .L104
 2078 001c 43F01003 		orr	r3, r3, #16
 2079 0020 D364     		str	r3, [r2, #76]
 2080 0022 784B     		ldr	r3, .L104
 2081 0024 DB6C     		ldr	r3, [r3, #76]
 2082 0026 03F01003 		and	r3, r3, #16
 2083 002a BB61     		str	r3, [r7, #24]
 2084 002c BB69     		ldr	r3, [r7, #24]
 2085              	.LBE6:
 2086              	.LBB7:
 784:Core/Src/main.c ****   __HAL_RCC_GPIOC_CLK_ENABLE();
 2087              		.loc 1 784 3
 2088 002e 754B     		ldr	r3, .L104
 2089 0030 DB6C     		ldr	r3, [r3, #76]
 2090 0032 744A     		ldr	r2, .L104
 2091 0034 43F00403 		orr	r3, r3, #4
 2092 0038 D364     		str	r3, [r2, #76]
 2093 003a 724B     		ldr	r3, .L104
 2094 003c DB6C     		ldr	r3, [r3, #76]
 2095 003e 03F00403 		and	r3, r3, #4
 2096 0042 7B61     		str	r3, [r7, #20]
 2097 0044 7B69     		ldr	r3, [r7, #20]
 2098              	.LBE7:
 2099              	.LBB8:
 785:Core/Src/main.c ****   __HAL_RCC_GPIOF_CLK_ENABLE();
 2100              		.loc 1 785 3
 2101 0046 6F4B     		ldr	r3, .L104
 2102 0048 DB6C     		ldr	r3, [r3, #76]
 2103 004a 6E4A     		ldr	r2, .L104
 2104 004c 43F02003 		orr	r3, r3, #32
 2105 0050 D364     		str	r3, [r2, #76]
 2106 0052 6C4B     		ldr	r3, .L104
 2107 0054 DB6C     		ldr	r3, [r3, #76]
 2108 0056 03F02003 		and	r3, r3, #32
 2109 005a 3B61     		str	r3, [r7, #16]
 2110 005c 3B69     		ldr	r3, [r7, #16]
 2111              	.LBE8:
 2112              	.LBB9:
 786:Core/Src/main.c ****   __HAL_RCC_GPIOH_CLK_ENABLE();
 2113              		.loc 1 786 3
 2114 005e 694B     		ldr	r3, .L104
 2115 0060 DB6C     		ldr	r3, [r3, #76]
 2116 0062 684A     		ldr	r2, .L104
 2117 0064 43F08003 		orr	r3, r3, #128
 2118 0068 D364     		str	r3, [r2, #76]
 2119 006a 664B     		ldr	r3, .L104
 2120 006c DB6C     		ldr	r3, [r3, #76]
 2121 006e 03F08003 		and	r3, r3, #128
 2122 0072 FB60     		str	r3, [r7, #12]
 2123 0074 FB68     		ldr	r3, [r7, #12]
 2124              	.LBE9:
 2125              	.LBB10:
 787:Core/Src/main.c ****   __HAL_RCC_GPIOA_CLK_ENABLE();
 2126              		.loc 1 787 3
ARM GAS  C:\Users\Morroway\AppData\Local\Temp\ccKhlCKS.s 			page 52


 2127 0076 634B     		ldr	r3, .L104
 2128 0078 DB6C     		ldr	r3, [r3, #76]
 2129 007a 624A     		ldr	r2, .L104
 2130 007c 43F00103 		orr	r3, r3, #1
 2131 0080 D364     		str	r3, [r2, #76]
 2132 0082 604B     		ldr	r3, .L104
 2133 0084 DB6C     		ldr	r3, [r3, #76]
 2134 0086 03F00103 		and	r3, r3, #1
 2135 008a BB60     		str	r3, [r7, #8]
 2136 008c BB68     		ldr	r3, [r7, #8]
 2137              	.LBE10:
 2138              	.LBB11:
 788:Core/Src/main.c ****   __HAL_RCC_GPIOB_CLK_ENABLE();
 2139              		.loc 1 788 3
 2140 008e 5D4B     		ldr	r3, .L104
 2141 0090 DB6C     		ldr	r3, [r3, #76]
 2142 0092 5C4A     		ldr	r2, .L104
 2143 0094 43F00203 		orr	r3, r3, #2
 2144 0098 D364     		str	r3, [r2, #76]
 2145 009a 5A4B     		ldr	r3, .L104
 2146 009c DB6C     		ldr	r3, [r3, #76]
 2147 009e 03F00203 		and	r3, r3, #2
 2148 00a2 7B60     		str	r3, [r7, #4]
 2149 00a4 7B68     		ldr	r3, [r7, #4]
 2150              	.LBE11:
 2151              	.LBB12:
 789:Core/Src/main.c ****   __HAL_RCC_GPIOG_CLK_ENABLE();
 2152              		.loc 1 789 3
 2153 00a6 574B     		ldr	r3, .L104
 2154 00a8 DB6C     		ldr	r3, [r3, #76]
 2155 00aa 564A     		ldr	r2, .L104
 2156 00ac 43F04003 		orr	r3, r3, #64
 2157 00b0 D364     		str	r3, [r2, #76]
 2158 00b2 544B     		ldr	r3, .L104
 2159 00b4 DB6C     		ldr	r3, [r3, #76]
 2160 00b6 03F04003 		and	r3, r3, #64
 2161 00ba 3B60     		str	r3, [r7]
 2162 00bc 3B68     		ldr	r3, [r7]
 2163              	.LBE12:
 790:Core/Src/main.c ****   HAL_PWREx_EnableVddIO2();
 2164              		.loc 1 790 3
 2165 00be FFF7FEFF 		bl	HAL_PWREx_EnableVddIO2
 791:Core/Src/main.c **** 
 792:Core/Src/main.c ****   /*Configure GPIO pin Output Level */
 793:Core/Src/main.c ****   HAL_GPIO_WritePin(GPIOF, GPIO_PIN_1|GPIO_PIN_2|GPIO_PIN_3|GPIO_PIN_6
 2166              		.loc 1 793 3
 2167 00c2 0022     		movs	r2, #0
 2168 00c4 4FF4E771 		mov	r1, #462
 2169 00c8 4F48     		ldr	r0, .L104+4
 2170 00ca FFF7FEFF 		bl	HAL_GPIO_WritePin
 794:Core/Src/main.c ****                           |GPIO_PIN_7|GPIO_PIN_8, GPIO_PIN_RESET);
 795:Core/Src/main.c **** 
 796:Core/Src/main.c ****   /*Configure GPIO pin Output Level */
 797:Core/Src/main.c ****   HAL_GPIO_WritePin(GPIOA, GPIO_PIN_7, GPIO_PIN_RESET);
 2171              		.loc 1 797 3
 2172 00ce 0022     		movs	r2, #0
 2173 00d0 8021     		movs	r1, #128
ARM GAS  C:\Users\Morroway\AppData\Local\Temp\ccKhlCKS.s 			page 53


 2174 00d2 4FF09040 		mov	r0, #1207959552
 2175 00d6 FFF7FEFF 		bl	HAL_GPIO_WritePin
 798:Core/Src/main.c **** 
 799:Core/Src/main.c ****   /*Configure GPIO pin Output Level */
 800:Core/Src/main.c ****   HAL_GPIO_WritePin(GPIOB, GPIO_PIN_0|GPIO_PIN_1|LD3_Pin|LD2_Pin, GPIO_PIN_RESET);
 2176              		.loc 1 800 3
 2177 00da 0022     		movs	r2, #0
 2178 00dc 44F28301 		movw	r1, #16515
 2179 00e0 4A48     		ldr	r0, .L104+8
 2180 00e2 FFF7FEFF 		bl	HAL_GPIO_WritePin
 801:Core/Src/main.c **** 
 802:Core/Src/main.c ****   /*Configure GPIO pin Output Level */
 803:Core/Src/main.c ****   HAL_GPIO_WritePin(GPIOG, USB_PowerSwitchOn_Pin|CS_Pin|DC_Pin|RST_Pin
 2181              		.loc 1 803 3
 2182 00e6 0022     		movs	r2, #0
 2183 00e8 4FF24001 		movw	r1, #61504
 2184 00ec 4848     		ldr	r0, .L104+12
 2185 00ee FFF7FEFF 		bl	HAL_GPIO_WritePin
 804:Core/Src/main.c ****                           |GPIO_PIN_15, GPIO_PIN_RESET);
 805:Core/Src/main.c **** 
 806:Core/Src/main.c ****   /*Configure GPIO pin Output Level */
 807:Core/Src/main.c ****   HAL_GPIO_WritePin(GPIOC, GPIO_PIN_6, GPIO_PIN_RESET);
 2186              		.loc 1 807 3
 2187 00f2 0022     		movs	r2, #0
 2188 00f4 4021     		movs	r1, #64
 2189 00f6 4748     		ldr	r0, .L104+16
 2190 00f8 FFF7FEFF 		bl	HAL_GPIO_WritePin
 808:Core/Src/main.c **** 
 809:Core/Src/main.c ****   /*Configure GPIO pin : B1_Pin */
 810:Core/Src/main.c ****   GPIO_InitStruct.Pin = B1_Pin;
 2191              		.loc 1 810 23
 2192 00fc 4FF40053 		mov	r3, #8192
 2193 0100 FB61     		str	r3, [r7, #28]
 811:Core/Src/main.c ****   GPIO_InitStruct.Mode = GPIO_MODE_IT_RISING;
 2194              		.loc 1 811 24
 2195 0102 4FF48813 		mov	r3, #1114112
 2196 0106 3B62     		str	r3, [r7, #32]
 812:Core/Src/main.c ****   GPIO_InitStruct.Pull = GPIO_NOPULL;
 2197              		.loc 1 812 24
 2198 0108 0023     		movs	r3, #0
 2199 010a 7B62     		str	r3, [r7, #36]
 813:Core/Src/main.c ****   HAL_GPIO_Init(B1_GPIO_Port, &GPIO_InitStruct);
 2200              		.loc 1 813 3
 2201 010c 07F11C03 		add	r3, r7, #28
 2202 0110 1946     		mov	r1, r3
 2203 0112 4048     		ldr	r0, .L104+16
 2204 0114 FFF7FEFF 		bl	HAL_GPIO_Init
 814:Core/Src/main.c **** 
 815:Core/Src/main.c ****   /*Configure GPIO pins : PF0 PF4 PF5 PF9 */
 816:Core/Src/main.c ****   GPIO_InitStruct.Pin = GPIO_PIN_0|GPIO_PIN_4|GPIO_PIN_5|GPIO_PIN_9;
 2205              		.loc 1 816 23
 2206 0118 40F23123 		movw	r3, #561
 2207 011c FB61     		str	r3, [r7, #28]
 817:Core/Src/main.c ****   GPIO_InitStruct.Mode = GPIO_MODE_INPUT;
 2208              		.loc 1 817 24
 2209 011e 0023     		movs	r3, #0
 2210 0120 3B62     		str	r3, [r7, #32]
ARM GAS  C:\Users\Morroway\AppData\Local\Temp\ccKhlCKS.s 			page 54


 818:Core/Src/main.c ****   GPIO_InitStruct.Pull = GPIO_NOPULL;
 2211              		.loc 1 818 24
 2212 0122 0023     		movs	r3, #0
 2213 0124 7B62     		str	r3, [r7, #36]
 819:Core/Src/main.c ****   HAL_GPIO_Init(GPIOF, &GPIO_InitStruct);
 2214              		.loc 1 819 3
 2215 0126 07F11C03 		add	r3, r7, #28
 2216 012a 1946     		mov	r1, r3
 2217 012c 3648     		ldr	r0, .L104+4
 2218 012e FFF7FEFF 		bl	HAL_GPIO_Init
 820:Core/Src/main.c **** 
 821:Core/Src/main.c ****   /*Configure GPIO pins : PF1 PF2 PF3 PF6
 822:Core/Src/main.c ****                            PF7 PF8 */
 823:Core/Src/main.c ****   GPIO_InitStruct.Pin = GPIO_PIN_1|GPIO_PIN_2|GPIO_PIN_3|GPIO_PIN_6
 2219              		.loc 1 823 23
 2220 0132 4FF4E773 		mov	r3, #462
 2221 0136 FB61     		str	r3, [r7, #28]
 824:Core/Src/main.c ****                           |GPIO_PIN_7|GPIO_PIN_8;
 825:Core/Src/main.c ****   GPIO_InitStruct.Mode = GPIO_MODE_OUTPUT_PP;
 2222              		.loc 1 825 24
 2223 0138 0123     		movs	r3, #1
 2224 013a 3B62     		str	r3, [r7, #32]
 826:Core/Src/main.c ****   GPIO_InitStruct.Pull = GPIO_NOPULL;
 2225              		.loc 1 826 24
 2226 013c 0023     		movs	r3, #0
 2227 013e 7B62     		str	r3, [r7, #36]
 827:Core/Src/main.c ****   GPIO_InitStruct.Speed = GPIO_SPEED_FREQ_LOW;
 2228              		.loc 1 827 25
 2229 0140 0023     		movs	r3, #0
 2230 0142 BB62     		str	r3, [r7, #40]
 828:Core/Src/main.c ****   HAL_GPIO_Init(GPIOF, &GPIO_InitStruct);
 2231              		.loc 1 828 3
 2232 0144 07F11C03 		add	r3, r7, #28
 2233 0148 1946     		mov	r1, r3
 2234 014a 2F48     		ldr	r0, .L104+4
 2235 014c FFF7FEFF 		bl	HAL_GPIO_Init
 829:Core/Src/main.c **** 
 830:Core/Src/main.c ****   /*Configure GPIO pin : PA7 */
 831:Core/Src/main.c ****   GPIO_InitStruct.Pin = GPIO_PIN_7;
 2236              		.loc 1 831 23
 2237 0150 8023     		movs	r3, #128
 2238 0152 FB61     		str	r3, [r7, #28]
 832:Core/Src/main.c ****   GPIO_InitStruct.Mode = GPIO_MODE_OUTPUT_PP;
 2239              		.loc 1 832 24
 2240 0154 0123     		movs	r3, #1
 2241 0156 3B62     		str	r3, [r7, #32]
 833:Core/Src/main.c ****   GPIO_InitStruct.Pull = GPIO_NOPULL;
 2242              		.loc 1 833 24
 2243 0158 0023     		movs	r3, #0
 2244 015a 7B62     		str	r3, [r7, #36]
 834:Core/Src/main.c ****   GPIO_InitStruct.Speed = GPIO_SPEED_FREQ_LOW;
 2245              		.loc 1 834 25
 2246 015c 0023     		movs	r3, #0
 2247 015e BB62     		str	r3, [r7, #40]
 835:Core/Src/main.c ****   HAL_GPIO_Init(GPIOA, &GPIO_InitStruct);
 2248              		.loc 1 835 3
 2249 0160 07F11C03 		add	r3, r7, #28
ARM GAS  C:\Users\Morroway\AppData\Local\Temp\ccKhlCKS.s 			page 55


 2250 0164 1946     		mov	r1, r3
 2251 0166 4FF09040 		mov	r0, #1207959552
 2252 016a FFF7FEFF 		bl	HAL_GPIO_Init
 836:Core/Src/main.c **** 
 837:Core/Src/main.c ****   /*Configure GPIO pins : PB0 PB1 LD3_Pin LD2_Pin */
 838:Core/Src/main.c ****   GPIO_InitStruct.Pin = GPIO_PIN_0|GPIO_PIN_1|LD3_Pin|LD2_Pin;
 2253              		.loc 1 838 23
 2254 016e 44F28303 		movw	r3, #16515
 2255 0172 FB61     		str	r3, [r7, #28]
 839:Core/Src/main.c ****   GPIO_InitStruct.Mode = GPIO_MODE_OUTPUT_PP;
 2256              		.loc 1 839 24
 2257 0174 0123     		movs	r3, #1
 2258 0176 3B62     		str	r3, [r7, #32]
 840:Core/Src/main.c ****   GPIO_InitStruct.Pull = GPIO_NOPULL;
 2259              		.loc 1 840 24
 2260 0178 0023     		movs	r3, #0
 2261 017a 7B62     		str	r3, [r7, #36]
 841:Core/Src/main.c ****   GPIO_InitStruct.Speed = GPIO_SPEED_FREQ_LOW;
 2262              		.loc 1 841 25
 2263 017c 0023     		movs	r3, #0
 2264 017e BB62     		str	r3, [r7, #40]
 842:Core/Src/main.c ****   HAL_GPIO_Init(GPIOB, &GPIO_InitStruct);
 2265              		.loc 1 842 3
 2266 0180 07F11C03 		add	r3, r7, #28
 2267 0184 1946     		mov	r1, r3
 2268 0186 2148     		ldr	r0, .L104+8
 2269 0188 FFF7FEFF 		bl	HAL_GPIO_Init
 843:Core/Src/main.c **** 
 844:Core/Src/main.c ****   /*Configure GPIO pins : USB_OverCurrent_Pin PG11 */
 845:Core/Src/main.c ****   GPIO_InitStruct.Pin = USB_OverCurrent_Pin|GPIO_PIN_11;
 2270              		.loc 1 845 23
 2271 018c 4FF40263 		mov	r3, #2080
 2272 0190 FB61     		str	r3, [r7, #28]
 846:Core/Src/main.c ****   GPIO_InitStruct.Mode = GPIO_MODE_INPUT;
 2273              		.loc 1 846 24
 2274 0192 0023     		movs	r3, #0
 2275 0194 3B62     		str	r3, [r7, #32]
 847:Core/Src/main.c ****   GPIO_InitStruct.Pull = GPIO_NOPULL;
 2276              		.loc 1 847 24
 2277 0196 0023     		movs	r3, #0
 2278 0198 7B62     		str	r3, [r7, #36]
 848:Core/Src/main.c ****   HAL_GPIO_Init(GPIOG, &GPIO_InitStruct);
 2279              		.loc 1 848 3
 2280 019a 07F11C03 		add	r3, r7, #28
 2281 019e 1946     		mov	r1, r3
 2282 01a0 1B48     		ldr	r0, .L104+12
 2283 01a2 FFF7FEFF 		bl	HAL_GPIO_Init
 849:Core/Src/main.c **** 
 850:Core/Src/main.c ****   /*Configure GPIO pin : USB_PowerSwitchOn_Pin */
 851:Core/Src/main.c ****   GPIO_InitStruct.Pin = USB_PowerSwitchOn_Pin;
 2284              		.loc 1 851 23
 2285 01a6 4023     		movs	r3, #64
 2286 01a8 FB61     		str	r3, [r7, #28]
 852:Core/Src/main.c ****   GPIO_InitStruct.Mode = GPIO_MODE_OUTPUT_PP;
 2287              		.loc 1 852 24
 2288 01aa 0123     		movs	r3, #1
 2289 01ac 3B62     		str	r3, [r7, #32]
ARM GAS  C:\Users\Morroway\AppData\Local\Temp\ccKhlCKS.s 			page 56


 853:Core/Src/main.c ****   GPIO_InitStruct.Pull = GPIO_NOPULL;
 2290              		.loc 1 853 24
 2291 01ae 0023     		movs	r3, #0
 2292 01b0 7B62     		str	r3, [r7, #36]
 854:Core/Src/main.c ****   GPIO_InitStruct.Speed = GPIO_SPEED_FREQ_LOW;
 2293              		.loc 1 854 25
 2294 01b2 0023     		movs	r3, #0
 2295 01b4 BB62     		str	r3, [r7, #40]
 855:Core/Src/main.c ****   HAL_GPIO_Init(USB_PowerSwitchOn_GPIO_Port, &GPIO_InitStruct);
 2296              		.loc 1 855 3
 2297 01b6 07F11C03 		add	r3, r7, #28
 2298 01ba 1946     		mov	r1, r3
 2299 01bc 1448     		ldr	r0, .L104+12
 2300 01be FFF7FEFF 		bl	HAL_GPIO_Init
 856:Core/Src/main.c **** 
 857:Core/Src/main.c ****   /*Configure GPIO pin : PC6 */
 858:Core/Src/main.c ****   GPIO_InitStruct.Pin = GPIO_PIN_6;
 2301              		.loc 1 858 23
 2302 01c2 4023     		movs	r3, #64
 2303 01c4 FB61     		str	r3, [r7, #28]
 859:Core/Src/main.c ****   GPIO_InitStruct.Mode = GPIO_MODE_OUTPUT_PP;
 2304              		.loc 1 859 24
 2305 01c6 0123     		movs	r3, #1
 2306 01c8 3B62     		str	r3, [r7, #32]
 860:Core/Src/main.c ****   GPIO_InitStruct.Pull = GPIO_NOPULL;
 2307              		.loc 1 860 24
 2308 01ca 0023     		movs	r3, #0
 2309 01cc 7B62     		str	r3, [r7, #36]
 861:Core/Src/main.c ****   GPIO_InitStruct.Speed = GPIO_SPEED_FREQ_LOW;
 2310              		.loc 1 861 25
 2311 01ce 0023     		movs	r3, #0
 2312 01d0 BB62     		str	r3, [r7, #40]
 862:Core/Src/main.c ****   HAL_GPIO_Init(GPIOC, &GPIO_InitStruct);
 2313              		.loc 1 862 3
 2314 01d2 07F11C03 		add	r3, r7, #28
 2315 01d6 1946     		mov	r1, r3
 2316 01d8 0E48     		ldr	r0, .L104+16
 2317 01da FFF7FEFF 		bl	HAL_GPIO_Init
 863:Core/Src/main.c **** 
 864:Core/Src/main.c ****   /*Configure GPIO pins : CS_Pin DC_Pin RST_Pin PG15 */
 865:Core/Src/main.c ****   GPIO_InitStruct.Pin = CS_Pin|DC_Pin|RST_Pin|GPIO_PIN_15;
 2318              		.loc 1 865 23
 2319 01de 4FF47043 		mov	r3, #61440
 2320 01e2 FB61     		str	r3, [r7, #28]
 866:Core/Src/main.c ****   GPIO_InitStruct.Mode = GPIO_MODE_OUTPUT_PP;
 2321              		.loc 1 866 24
 2322 01e4 0123     		movs	r3, #1
 2323 01e6 3B62     		str	r3, [r7, #32]
 867:Core/Src/main.c ****   GPIO_InitStruct.Pull = GPIO_NOPULL;
 2324              		.loc 1 867 24
 2325 01e8 0023     		movs	r3, #0
 2326 01ea 7B62     		str	r3, [r7, #36]
 868:Core/Src/main.c ****   GPIO_InitStruct.Speed = GPIO_SPEED_FREQ_VERY_HIGH;
 2327              		.loc 1 868 25
 2328 01ec 0323     		movs	r3, #3
 2329 01ee BB62     		str	r3, [r7, #40]
 869:Core/Src/main.c ****   HAL_GPIO_Init(GPIOG, &GPIO_InitStruct);
ARM GAS  C:\Users\Morroway\AppData\Local\Temp\ccKhlCKS.s 			page 57


 2330              		.loc 1 869 3
 2331 01f0 07F11C03 		add	r3, r7, #28
 2332 01f4 1946     		mov	r1, r3
 2333 01f6 0648     		ldr	r0, .L104+12
 2334 01f8 FFF7FEFF 		bl	HAL_GPIO_Init
 870:Core/Src/main.c **** 
 871:Core/Src/main.c **** }
 2335              		.loc 1 871 1
 2336 01fc 00BF     		nop
 2337 01fe 3037     		adds	r7, r7, #48
 2338              		.cfi_def_cfa_offset 8
 2339 0200 BD46     		mov	sp, r7
 2340              		.cfi_def_cfa_register 13
 2341              		@ sp needed
 2342 0202 80BD     		pop	{r7, pc}
 2343              	.L105:
 2344              		.align	2
 2345              	.L104:
 2346 0204 00100240 		.word	1073876992
 2347 0208 00140048 		.word	1207964672
 2348 020c 00040048 		.word	1207960576
 2349 0210 00180048 		.word	1207965696
 2350 0214 00080048 		.word	1207961600
 2351              		.cfi_endproc
 2352              	.LFE341:
 2354              		.section	.text.Error_Handler,"ax",%progbits
 2355              		.align	1
 2356              		.global	Error_Handler
 2357              		.syntax unified
 2358              		.thumb
 2359              		.thumb_func
 2361              	Error_Handler:
 2362              	.LFB342:
 872:Core/Src/main.c **** 
 873:Core/Src/main.c **** /* USER CODE BEGIN 4 */
 874:Core/Src/main.c **** 
 875:Core/Src/main.c **** /* USER CODE END 4 */
 876:Core/Src/main.c **** 
 877:Core/Src/main.c **** /**
 878:Core/Src/main.c ****   * @brief  This function is executed in case of error occurrence.
 879:Core/Src/main.c ****   * @retval None
 880:Core/Src/main.c ****   */
 881:Core/Src/main.c **** void Error_Handler(void)
 882:Core/Src/main.c **** {
 2363              		.loc 1 882 1
 2364              		.cfi_startproc
 2365              		@ args = 0, pretend = 0, frame = 0
 2366              		@ frame_needed = 1, uses_anonymous_args = 0
 2367              		@ link register save eliminated.
 2368 0000 80B4     		push	{r7}
 2369              		.cfi_def_cfa_offset 4
 2370              		.cfi_offset 7, -4
 2371 0002 00AF     		add	r7, sp, #0
 2372              		.cfi_def_cfa_register 7
 2373              	.LBB13:
 2374              	.LBB14:
 2375              		.file 2 "Drivers/CMSIS/Include/cmsis_gcc.h"
ARM GAS  C:\Users\Morroway\AppData\Local\Temp\ccKhlCKS.s 			page 58


   1:Drivers/CMSIS/Include/cmsis_gcc.h **** /**************************************************************************//**
   2:Drivers/CMSIS/Include/cmsis_gcc.h ****  * @file     cmsis_gcc.h
   3:Drivers/CMSIS/Include/cmsis_gcc.h ****  * @brief    CMSIS compiler GCC header file
   4:Drivers/CMSIS/Include/cmsis_gcc.h ****  * @version  V5.2.0
   5:Drivers/CMSIS/Include/cmsis_gcc.h ****  * @date     08. May 2019
   6:Drivers/CMSIS/Include/cmsis_gcc.h ****  ******************************************************************************/
   7:Drivers/CMSIS/Include/cmsis_gcc.h **** /*
   8:Drivers/CMSIS/Include/cmsis_gcc.h ****  * Copyright (c) 2009-2019 Arm Limited. All rights reserved.
   9:Drivers/CMSIS/Include/cmsis_gcc.h ****  *
  10:Drivers/CMSIS/Include/cmsis_gcc.h ****  * SPDX-License-Identifier: Apache-2.0
  11:Drivers/CMSIS/Include/cmsis_gcc.h ****  *
  12:Drivers/CMSIS/Include/cmsis_gcc.h ****  * Licensed under the Apache License, Version 2.0 (the License); you may
  13:Drivers/CMSIS/Include/cmsis_gcc.h ****  * not use this file except in compliance with the License.
  14:Drivers/CMSIS/Include/cmsis_gcc.h ****  * You may obtain a copy of the License at
  15:Drivers/CMSIS/Include/cmsis_gcc.h ****  *
  16:Drivers/CMSIS/Include/cmsis_gcc.h ****  * www.apache.org/licenses/LICENSE-2.0
  17:Drivers/CMSIS/Include/cmsis_gcc.h ****  *
  18:Drivers/CMSIS/Include/cmsis_gcc.h ****  * Unless required by applicable law or agreed to in writing, software
  19:Drivers/CMSIS/Include/cmsis_gcc.h ****  * distributed under the License is distributed on an AS IS BASIS, WITHOUT
  20:Drivers/CMSIS/Include/cmsis_gcc.h ****  * WARRANTIES OR CONDITIONS OF ANY KIND, either express or implied.
  21:Drivers/CMSIS/Include/cmsis_gcc.h ****  * See the License for the specific language governing permissions and
  22:Drivers/CMSIS/Include/cmsis_gcc.h ****  * limitations under the License.
  23:Drivers/CMSIS/Include/cmsis_gcc.h ****  */
  24:Drivers/CMSIS/Include/cmsis_gcc.h **** 
  25:Drivers/CMSIS/Include/cmsis_gcc.h **** #ifndef __CMSIS_GCC_H
  26:Drivers/CMSIS/Include/cmsis_gcc.h **** #define __CMSIS_GCC_H
  27:Drivers/CMSIS/Include/cmsis_gcc.h **** 
  28:Drivers/CMSIS/Include/cmsis_gcc.h **** /* ignore some GCC warnings */
  29:Drivers/CMSIS/Include/cmsis_gcc.h **** #pragma GCC diagnostic push
  30:Drivers/CMSIS/Include/cmsis_gcc.h **** #pragma GCC diagnostic ignored "-Wsign-conversion"
  31:Drivers/CMSIS/Include/cmsis_gcc.h **** #pragma GCC diagnostic ignored "-Wconversion"
  32:Drivers/CMSIS/Include/cmsis_gcc.h **** #pragma GCC diagnostic ignored "-Wunused-parameter"
  33:Drivers/CMSIS/Include/cmsis_gcc.h **** 
  34:Drivers/CMSIS/Include/cmsis_gcc.h **** /* Fallback for __has_builtin */
  35:Drivers/CMSIS/Include/cmsis_gcc.h **** #ifndef __has_builtin
  36:Drivers/CMSIS/Include/cmsis_gcc.h ****   #define __has_builtin(x) (0)
  37:Drivers/CMSIS/Include/cmsis_gcc.h **** #endif
  38:Drivers/CMSIS/Include/cmsis_gcc.h **** 
  39:Drivers/CMSIS/Include/cmsis_gcc.h **** /* CMSIS compiler specific defines */
  40:Drivers/CMSIS/Include/cmsis_gcc.h **** #ifndef   __ASM
  41:Drivers/CMSIS/Include/cmsis_gcc.h ****   #define __ASM                                  __asm
  42:Drivers/CMSIS/Include/cmsis_gcc.h **** #endif
  43:Drivers/CMSIS/Include/cmsis_gcc.h **** #ifndef   __INLINE
  44:Drivers/CMSIS/Include/cmsis_gcc.h ****   #define __INLINE                               inline
  45:Drivers/CMSIS/Include/cmsis_gcc.h **** #endif
  46:Drivers/CMSIS/Include/cmsis_gcc.h **** #ifndef   __STATIC_INLINE
  47:Drivers/CMSIS/Include/cmsis_gcc.h ****   #define __STATIC_INLINE                        static inline
  48:Drivers/CMSIS/Include/cmsis_gcc.h **** #endif
  49:Drivers/CMSIS/Include/cmsis_gcc.h **** #ifndef   __STATIC_FORCEINLINE                 
  50:Drivers/CMSIS/Include/cmsis_gcc.h ****   #define __STATIC_FORCEINLINE                   __attribute__((always_inline)) static inline
  51:Drivers/CMSIS/Include/cmsis_gcc.h **** #endif                                           
  52:Drivers/CMSIS/Include/cmsis_gcc.h **** #ifndef   __NO_RETURN
  53:Drivers/CMSIS/Include/cmsis_gcc.h ****   #define __NO_RETURN                            __attribute__((__noreturn__))
  54:Drivers/CMSIS/Include/cmsis_gcc.h **** #endif
  55:Drivers/CMSIS/Include/cmsis_gcc.h **** #ifndef   __USED
  56:Drivers/CMSIS/Include/cmsis_gcc.h ****   #define __USED                                 __attribute__((used))
  57:Drivers/CMSIS/Include/cmsis_gcc.h **** #endif
ARM GAS  C:\Users\Morroway\AppData\Local\Temp\ccKhlCKS.s 			page 59


  58:Drivers/CMSIS/Include/cmsis_gcc.h **** #ifndef   __WEAK
  59:Drivers/CMSIS/Include/cmsis_gcc.h ****   #define __WEAK                                 __attribute__((weak))
  60:Drivers/CMSIS/Include/cmsis_gcc.h **** #endif
  61:Drivers/CMSIS/Include/cmsis_gcc.h **** #ifndef   __PACKED
  62:Drivers/CMSIS/Include/cmsis_gcc.h ****   #define __PACKED                               __attribute__((packed, aligned(1)))
  63:Drivers/CMSIS/Include/cmsis_gcc.h **** #endif
  64:Drivers/CMSIS/Include/cmsis_gcc.h **** #ifndef   __PACKED_STRUCT
  65:Drivers/CMSIS/Include/cmsis_gcc.h ****   #define __PACKED_STRUCT                        struct __attribute__((packed, aligned(1)))
  66:Drivers/CMSIS/Include/cmsis_gcc.h **** #endif
  67:Drivers/CMSIS/Include/cmsis_gcc.h **** #ifndef   __PACKED_UNION
  68:Drivers/CMSIS/Include/cmsis_gcc.h ****   #define __PACKED_UNION                         union __attribute__((packed, aligned(1)))
  69:Drivers/CMSIS/Include/cmsis_gcc.h **** #endif
  70:Drivers/CMSIS/Include/cmsis_gcc.h **** #ifndef   __UNALIGNED_UINT32        /* deprecated */
  71:Drivers/CMSIS/Include/cmsis_gcc.h ****   #pragma GCC diagnostic push
  72:Drivers/CMSIS/Include/cmsis_gcc.h ****   #pragma GCC diagnostic ignored "-Wpacked"
  73:Drivers/CMSIS/Include/cmsis_gcc.h ****   #pragma GCC diagnostic ignored "-Wattributes"
  74:Drivers/CMSIS/Include/cmsis_gcc.h ****   struct __attribute__((packed)) T_UINT32 { uint32_t v; };
  75:Drivers/CMSIS/Include/cmsis_gcc.h ****   #pragma GCC diagnostic pop
  76:Drivers/CMSIS/Include/cmsis_gcc.h ****   #define __UNALIGNED_UINT32(x)                  (((struct T_UINT32 *)(x))->v)
  77:Drivers/CMSIS/Include/cmsis_gcc.h **** #endif
  78:Drivers/CMSIS/Include/cmsis_gcc.h **** #ifndef   __UNALIGNED_UINT16_WRITE
  79:Drivers/CMSIS/Include/cmsis_gcc.h ****   #pragma GCC diagnostic push
  80:Drivers/CMSIS/Include/cmsis_gcc.h ****   #pragma GCC diagnostic ignored "-Wpacked"
  81:Drivers/CMSIS/Include/cmsis_gcc.h ****   #pragma GCC diagnostic ignored "-Wattributes"
  82:Drivers/CMSIS/Include/cmsis_gcc.h ****   __PACKED_STRUCT T_UINT16_WRITE { uint16_t v; };
  83:Drivers/CMSIS/Include/cmsis_gcc.h ****   #pragma GCC diagnostic pop
  84:Drivers/CMSIS/Include/cmsis_gcc.h ****   #define __UNALIGNED_UINT16_WRITE(addr, val)    (void)((((struct T_UINT16_WRITE *)(void *)(addr))-
  85:Drivers/CMSIS/Include/cmsis_gcc.h **** #endif
  86:Drivers/CMSIS/Include/cmsis_gcc.h **** #ifndef   __UNALIGNED_UINT16_READ
  87:Drivers/CMSIS/Include/cmsis_gcc.h ****   #pragma GCC diagnostic push
  88:Drivers/CMSIS/Include/cmsis_gcc.h ****   #pragma GCC diagnostic ignored "-Wpacked"
  89:Drivers/CMSIS/Include/cmsis_gcc.h ****   #pragma GCC diagnostic ignored "-Wattributes"
  90:Drivers/CMSIS/Include/cmsis_gcc.h ****   __PACKED_STRUCT T_UINT16_READ { uint16_t v; };
  91:Drivers/CMSIS/Include/cmsis_gcc.h ****   #pragma GCC diagnostic pop
  92:Drivers/CMSIS/Include/cmsis_gcc.h ****   #define __UNALIGNED_UINT16_READ(addr)          (((const struct T_UINT16_READ *)(const void *)(add
  93:Drivers/CMSIS/Include/cmsis_gcc.h **** #endif
  94:Drivers/CMSIS/Include/cmsis_gcc.h **** #ifndef   __UNALIGNED_UINT32_WRITE
  95:Drivers/CMSIS/Include/cmsis_gcc.h ****   #pragma GCC diagnostic push
  96:Drivers/CMSIS/Include/cmsis_gcc.h ****   #pragma GCC diagnostic ignored "-Wpacked"
  97:Drivers/CMSIS/Include/cmsis_gcc.h ****   #pragma GCC diagnostic ignored "-Wattributes"
  98:Drivers/CMSIS/Include/cmsis_gcc.h ****   __PACKED_STRUCT T_UINT32_WRITE { uint32_t v; };
  99:Drivers/CMSIS/Include/cmsis_gcc.h ****   #pragma GCC diagnostic pop
 100:Drivers/CMSIS/Include/cmsis_gcc.h ****   #define __UNALIGNED_UINT32_WRITE(addr, val)    (void)((((struct T_UINT32_WRITE *)(void *)(addr))-
 101:Drivers/CMSIS/Include/cmsis_gcc.h **** #endif
 102:Drivers/CMSIS/Include/cmsis_gcc.h **** #ifndef   __UNALIGNED_UINT32_READ
 103:Drivers/CMSIS/Include/cmsis_gcc.h ****   #pragma GCC diagnostic push
 104:Drivers/CMSIS/Include/cmsis_gcc.h ****   #pragma GCC diagnostic ignored "-Wpacked"
 105:Drivers/CMSIS/Include/cmsis_gcc.h ****   #pragma GCC diagnostic ignored "-Wattributes"
 106:Drivers/CMSIS/Include/cmsis_gcc.h ****   __PACKED_STRUCT T_UINT32_READ { uint32_t v; };
 107:Drivers/CMSIS/Include/cmsis_gcc.h ****   #pragma GCC diagnostic pop
 108:Drivers/CMSIS/Include/cmsis_gcc.h ****   #define __UNALIGNED_UINT32_READ(addr)          (((const struct T_UINT32_READ *)(const void *)(add
 109:Drivers/CMSIS/Include/cmsis_gcc.h **** #endif
 110:Drivers/CMSIS/Include/cmsis_gcc.h **** #ifndef   __ALIGNED
 111:Drivers/CMSIS/Include/cmsis_gcc.h ****   #define __ALIGNED(x)                           __attribute__((aligned(x)))
 112:Drivers/CMSIS/Include/cmsis_gcc.h **** #endif
 113:Drivers/CMSIS/Include/cmsis_gcc.h **** #ifndef   __RESTRICT
 114:Drivers/CMSIS/Include/cmsis_gcc.h ****   #define __RESTRICT                             __restrict
ARM GAS  C:\Users\Morroway\AppData\Local\Temp\ccKhlCKS.s 			page 60


 115:Drivers/CMSIS/Include/cmsis_gcc.h **** #endif
 116:Drivers/CMSIS/Include/cmsis_gcc.h **** #ifndef   __COMPILER_BARRIER
 117:Drivers/CMSIS/Include/cmsis_gcc.h ****   #define __COMPILER_BARRIER()                   __ASM volatile("":::"memory")
 118:Drivers/CMSIS/Include/cmsis_gcc.h **** #endif
 119:Drivers/CMSIS/Include/cmsis_gcc.h **** 
 120:Drivers/CMSIS/Include/cmsis_gcc.h **** /* #########################  Startup and Lowlevel Init  ######################## */
 121:Drivers/CMSIS/Include/cmsis_gcc.h **** 
 122:Drivers/CMSIS/Include/cmsis_gcc.h **** #ifndef __PROGRAM_START
 123:Drivers/CMSIS/Include/cmsis_gcc.h **** 
 124:Drivers/CMSIS/Include/cmsis_gcc.h **** /**
 125:Drivers/CMSIS/Include/cmsis_gcc.h ****   \brief   Initializes data and bss sections
 126:Drivers/CMSIS/Include/cmsis_gcc.h ****   \details This default implementations initialized all data and additional bss
 127:Drivers/CMSIS/Include/cmsis_gcc.h ****            sections relying on .copy.table and .zero.table specified properly
 128:Drivers/CMSIS/Include/cmsis_gcc.h ****            in the used linker script.
 129:Drivers/CMSIS/Include/cmsis_gcc.h ****   
 130:Drivers/CMSIS/Include/cmsis_gcc.h ****  */
 131:Drivers/CMSIS/Include/cmsis_gcc.h **** __STATIC_FORCEINLINE __NO_RETURN void __cmsis_start(void)
 132:Drivers/CMSIS/Include/cmsis_gcc.h **** {
 133:Drivers/CMSIS/Include/cmsis_gcc.h ****   extern void _start(void) __NO_RETURN;
 134:Drivers/CMSIS/Include/cmsis_gcc.h ****   
 135:Drivers/CMSIS/Include/cmsis_gcc.h ****   typedef struct {
 136:Drivers/CMSIS/Include/cmsis_gcc.h ****     uint32_t const* src;
 137:Drivers/CMSIS/Include/cmsis_gcc.h ****     uint32_t* dest;
 138:Drivers/CMSIS/Include/cmsis_gcc.h ****     uint32_t  wlen;
 139:Drivers/CMSIS/Include/cmsis_gcc.h ****   } __copy_table_t;
 140:Drivers/CMSIS/Include/cmsis_gcc.h ****   
 141:Drivers/CMSIS/Include/cmsis_gcc.h ****   typedef struct {
 142:Drivers/CMSIS/Include/cmsis_gcc.h ****     uint32_t* dest;
 143:Drivers/CMSIS/Include/cmsis_gcc.h ****     uint32_t  wlen;
 144:Drivers/CMSIS/Include/cmsis_gcc.h ****   } __zero_table_t;
 145:Drivers/CMSIS/Include/cmsis_gcc.h ****   
 146:Drivers/CMSIS/Include/cmsis_gcc.h ****   extern const __copy_table_t __copy_table_start__;
 147:Drivers/CMSIS/Include/cmsis_gcc.h ****   extern const __copy_table_t __copy_table_end__;
 148:Drivers/CMSIS/Include/cmsis_gcc.h ****   extern const __zero_table_t __zero_table_start__;
 149:Drivers/CMSIS/Include/cmsis_gcc.h ****   extern const __zero_table_t __zero_table_end__;
 150:Drivers/CMSIS/Include/cmsis_gcc.h **** 
 151:Drivers/CMSIS/Include/cmsis_gcc.h ****   for (__copy_table_t const* pTable = &__copy_table_start__; pTable < &__copy_table_end__; ++pTable
 152:Drivers/CMSIS/Include/cmsis_gcc.h ****     for(uint32_t i=0u; i<pTable->wlen; ++i) {
 153:Drivers/CMSIS/Include/cmsis_gcc.h ****       pTable->dest[i] = pTable->src[i];
 154:Drivers/CMSIS/Include/cmsis_gcc.h ****     }
 155:Drivers/CMSIS/Include/cmsis_gcc.h ****   }
 156:Drivers/CMSIS/Include/cmsis_gcc.h ****  
 157:Drivers/CMSIS/Include/cmsis_gcc.h ****   for (__zero_table_t const* pTable = &__zero_table_start__; pTable < &__zero_table_end__; ++pTable
 158:Drivers/CMSIS/Include/cmsis_gcc.h ****     for(uint32_t i=0u; i<pTable->wlen; ++i) {
 159:Drivers/CMSIS/Include/cmsis_gcc.h ****       pTable->dest[i] = 0u;
 160:Drivers/CMSIS/Include/cmsis_gcc.h ****     }
 161:Drivers/CMSIS/Include/cmsis_gcc.h ****   }
 162:Drivers/CMSIS/Include/cmsis_gcc.h ****  
 163:Drivers/CMSIS/Include/cmsis_gcc.h ****   _start();
 164:Drivers/CMSIS/Include/cmsis_gcc.h **** }
 165:Drivers/CMSIS/Include/cmsis_gcc.h ****   
 166:Drivers/CMSIS/Include/cmsis_gcc.h **** #define __PROGRAM_START           __cmsis_start
 167:Drivers/CMSIS/Include/cmsis_gcc.h **** #endif
 168:Drivers/CMSIS/Include/cmsis_gcc.h **** 
 169:Drivers/CMSIS/Include/cmsis_gcc.h **** #ifndef __INITIAL_SP
 170:Drivers/CMSIS/Include/cmsis_gcc.h **** #define __INITIAL_SP              __StackTop
 171:Drivers/CMSIS/Include/cmsis_gcc.h **** #endif
ARM GAS  C:\Users\Morroway\AppData\Local\Temp\ccKhlCKS.s 			page 61


 172:Drivers/CMSIS/Include/cmsis_gcc.h **** 
 173:Drivers/CMSIS/Include/cmsis_gcc.h **** #ifndef __STACK_LIMIT
 174:Drivers/CMSIS/Include/cmsis_gcc.h **** #define __STACK_LIMIT             __StackLimit
 175:Drivers/CMSIS/Include/cmsis_gcc.h **** #endif
 176:Drivers/CMSIS/Include/cmsis_gcc.h **** 
 177:Drivers/CMSIS/Include/cmsis_gcc.h **** #ifndef __VECTOR_TABLE
 178:Drivers/CMSIS/Include/cmsis_gcc.h **** #define __VECTOR_TABLE            __Vectors
 179:Drivers/CMSIS/Include/cmsis_gcc.h **** #endif
 180:Drivers/CMSIS/Include/cmsis_gcc.h **** 
 181:Drivers/CMSIS/Include/cmsis_gcc.h **** #ifndef __VECTOR_TABLE_ATTRIBUTE
 182:Drivers/CMSIS/Include/cmsis_gcc.h **** #define __VECTOR_TABLE_ATTRIBUTE  __attribute((used, section(".vectors")))
 183:Drivers/CMSIS/Include/cmsis_gcc.h **** #endif
 184:Drivers/CMSIS/Include/cmsis_gcc.h **** 
 185:Drivers/CMSIS/Include/cmsis_gcc.h **** /* ###########################  Core Function Access  ########################### */
 186:Drivers/CMSIS/Include/cmsis_gcc.h **** /** \ingroup  CMSIS_Core_FunctionInterface
 187:Drivers/CMSIS/Include/cmsis_gcc.h ****     \defgroup CMSIS_Core_RegAccFunctions CMSIS Core Register Access Functions
 188:Drivers/CMSIS/Include/cmsis_gcc.h ****   @{
 189:Drivers/CMSIS/Include/cmsis_gcc.h ****  */
 190:Drivers/CMSIS/Include/cmsis_gcc.h **** 
 191:Drivers/CMSIS/Include/cmsis_gcc.h **** /**
 192:Drivers/CMSIS/Include/cmsis_gcc.h ****   \brief   Enable IRQ Interrupts
 193:Drivers/CMSIS/Include/cmsis_gcc.h ****   \details Enables IRQ interrupts by clearing the I-bit in the CPSR.
 194:Drivers/CMSIS/Include/cmsis_gcc.h ****            Can only be executed in Privileged modes.
 195:Drivers/CMSIS/Include/cmsis_gcc.h ****  */
 196:Drivers/CMSIS/Include/cmsis_gcc.h **** __STATIC_FORCEINLINE void __enable_irq(void)
 197:Drivers/CMSIS/Include/cmsis_gcc.h **** {
 198:Drivers/CMSIS/Include/cmsis_gcc.h ****   __ASM volatile ("cpsie i" : : : "memory");
 199:Drivers/CMSIS/Include/cmsis_gcc.h **** }
 200:Drivers/CMSIS/Include/cmsis_gcc.h **** 
 201:Drivers/CMSIS/Include/cmsis_gcc.h **** 
 202:Drivers/CMSIS/Include/cmsis_gcc.h **** /**
 203:Drivers/CMSIS/Include/cmsis_gcc.h ****   \brief   Disable IRQ Interrupts
 204:Drivers/CMSIS/Include/cmsis_gcc.h ****   \details Disables IRQ interrupts by setting the I-bit in the CPSR.
 205:Drivers/CMSIS/Include/cmsis_gcc.h ****            Can only be executed in Privileged modes.
 206:Drivers/CMSIS/Include/cmsis_gcc.h ****  */
 207:Drivers/CMSIS/Include/cmsis_gcc.h **** __STATIC_FORCEINLINE void __disable_irq(void)
 208:Drivers/CMSIS/Include/cmsis_gcc.h **** {
 209:Drivers/CMSIS/Include/cmsis_gcc.h ****   __ASM volatile ("cpsid i" : : : "memory");
 2376              		.loc 2 209 3
 2377              		.syntax unified
 2378              	@ 209 "Drivers/CMSIS/Include/cmsis_gcc.h" 1
 2379 0004 72B6     		cpsid i
 2380              	@ 0 "" 2
 210:Drivers/CMSIS/Include/cmsis_gcc.h **** }
 2381              		.loc 2 210 1
 2382              		.thumb
 2383              		.syntax unified
 2384 0006 00BF     		nop
 2385              	.L107:
 2386              	.LBE14:
 2387              	.LBE13:
 883:Core/Src/main.c ****   /* USER CODE BEGIN Error_Handler_Debug */
 884:Core/Src/main.c ****   /* User can add his own implementation to report the HAL error return state */
 885:Core/Src/main.c ****   __disable_irq();
 886:Core/Src/main.c ****   while (1)
 2388              		.loc 1 886 9 discriminator 1
 2389 0008 FEE7     		b	.L107
ARM GAS  C:\Users\Morroway\AppData\Local\Temp\ccKhlCKS.s 			page 62


 2390              		.cfi_endproc
 2391              	.LFE342:
 2393              		.text
 2394              	.Letext0:
 2395              		.file 3 "Drivers/CMSIS/Device/ST/STM32L4xx/Include/stm32l4p5xx.h"
 2396              		.file 4 "c:\\users\\morroway\\appdata\\roaming\\code\\user\\globalstorage\\bmd.stm32-for-vscode\\@
 2397              		.file 5 "c:\\users\\morroway\\appdata\\roaming\\code\\user\\globalstorage\\bmd.stm32-for-vscode\\@
 2398              		.file 6 "Drivers/CMSIS/Device/ST/STM32L4xx/Include/stm32l4xx.h"
 2399              		.file 7 "c:\\users\\morroway\\appdata\\roaming\\code\\user\\globalstorage\\bmd.stm32-for-vscode\\@
 2400              		.file 8 "Drivers/STM32L4xx_HAL_Driver/Inc/stm32l4xx_hal_def.h"
 2401              		.file 9 "Drivers/STM32L4xx_HAL_Driver/Inc/stm32l4xx_hal_rcc.h"
 2402              		.file 10 "Drivers/STM32L4xx_HAL_Driver/Inc/stm32l4xx_hal_gpio.h"
 2403              		.file 11 "Drivers/STM32L4xx_HAL_Driver/Inc/stm32l4xx_hal_dma.h"
 2404              		.file 12 "Drivers/STM32L4xx_HAL_Driver/Inc/stm32l4xx_hal_adc.h"
 2405              		.file 13 "Drivers/STM32L4xx_HAL_Driver/Inc/stm32l4xx_hal_adc_ex.h"
 2406              		.file 14 "Drivers/STM32L4xx_HAL_Driver/Inc/stm32l4xx_ll_usb.h"
 2407              		.file 15 "Drivers/STM32L4xx_HAL_Driver/Inc/stm32l4xx_hal_pcd.h"
 2408              		.file 16 "Drivers/STM32L4xx_HAL_Driver/Inc/stm32l4xx_hal_spi.h"
 2409              		.file 17 "Drivers/STM32L4xx_HAL_Driver/Inc/stm32l4xx_hal_tim.h"
 2410              		.file 18 "Drivers/STM32L4xx_HAL_Driver/Inc/stm32l4xx_hal_uart.h"
 2411              		.file 19 "Core/Inc/Parser.h"
 2412              		.file 20 "Core/Inc/GCodes.h"
 2413              		.file 21 "Core/Inc/main.h"
 2414              		.file 22 "Drivers/STM32L4xx_HAL_Driver/Inc/stm32l4xx_hal_cortex.h"
 2415              		.file 23 "Drivers/STM32L4xx_HAL_Driver/Inc/stm32l4xx_hal_tim_ex.h"
 2416              		.file 24 "Drivers/STM32L4xx_HAL_Driver/Inc/stm32l4xx_hal_uart_ex.h"
 2417              		.file 25 "Drivers/STM32L4xx_HAL_Driver/Inc/stm32l4xx_hal_pwr_ex.h"
 2418              		.file 26 "c:\\users\\morroway\\appdata\\roaming\\code\\user\\globalstorage\\bmd.stm32-for-vscode\\
 2419              		.file 27 "Drivers/STM32L4xx_HAL_Driver/Inc/stm32l4xx_hal.h"
 2420              		.file 28 "c:\\users\\morroway\\appdata\\roaming\\code\\user\\globalstorage\\bmd.stm32-for-vscode\\
 2421              		.file 29 "Core/Inc/Functions.h"
ARM GAS  C:\Users\Morroway\AppData\Local\Temp\ccKhlCKS.s 			page 63


DEFINED SYMBOLS
                            *ABS*:0000000000000000 main.c
C:\Users\Morroway\AppData\Local\Temp\ccKhlCKS.s:20     .bss.msg_buffer:0000000000000000 $d
C:\Users\Morroway\AppData\Local\Temp\ccKhlCKS.s:23     .bss.msg_buffer:0000000000000000 msg_buffer
C:\Users\Morroway\AppData\Local\Temp\ccKhlCKS.s:26     .bss.RxBuf:0000000000000000 $d
C:\Users\Morroway\AppData\Local\Temp\ccKhlCKS.s:29     .bss.RxBuf:0000000000000000 RxBuf
C:\Users\Morroway\AppData\Local\Temp\ccKhlCKS.s:36     .bss.hadc1:0000000000000000 hadc1
C:\Users\Morroway\AppData\Local\Temp\ccKhlCKS.s:33     .bss.hadc1:0000000000000000 $d
C:\Users\Morroway\AppData\Local\Temp\ccKhlCKS.s:43     .bss.hdma_adc1:0000000000000000 hdma_adc1
C:\Users\Morroway\AppData\Local\Temp\ccKhlCKS.s:40     .bss.hdma_adc1:0000000000000000 $d
C:\Users\Morroway\AppData\Local\Temp\ccKhlCKS.s:50     .bss.hlpuart1:0000000000000000 hlpuart1
C:\Users\Morroway\AppData\Local\Temp\ccKhlCKS.s:47     .bss.hlpuart1:0000000000000000 $d
C:\Users\Morroway\AppData\Local\Temp\ccKhlCKS.s:57     .bss.huart4:0000000000000000 huart4
C:\Users\Morroway\AppData\Local\Temp\ccKhlCKS.s:54     .bss.huart4:0000000000000000 $d
C:\Users\Morroway\AppData\Local\Temp\ccKhlCKS.s:64     .bss.hdma_lpuart1_rx:0000000000000000 hdma_lpuart1_rx
C:\Users\Morroway\AppData\Local\Temp\ccKhlCKS.s:61     .bss.hdma_lpuart1_rx:0000000000000000 $d
C:\Users\Morroway\AppData\Local\Temp\ccKhlCKS.s:71     .bss.hspi1:0000000000000000 hspi1
C:\Users\Morroway\AppData\Local\Temp\ccKhlCKS.s:68     .bss.hspi1:0000000000000000 $d
C:\Users\Morroway\AppData\Local\Temp\ccKhlCKS.s:78     .bss.htim2:0000000000000000 htim2
C:\Users\Morroway\AppData\Local\Temp\ccKhlCKS.s:75     .bss.htim2:0000000000000000 $d
C:\Users\Morroway\AppData\Local\Temp\ccKhlCKS.s:85     .bss.htim3:0000000000000000 htim3
C:\Users\Morroway\AppData\Local\Temp\ccKhlCKS.s:82     .bss.htim3:0000000000000000 $d
C:\Users\Morroway\AppData\Local\Temp\ccKhlCKS.s:92     .bss.htim4:0000000000000000 htim4
C:\Users\Morroway\AppData\Local\Temp\ccKhlCKS.s:89     .bss.htim4:0000000000000000 $d
C:\Users\Morroway\AppData\Local\Temp\ccKhlCKS.s:99     .bss.htim5:0000000000000000 htim5
C:\Users\Morroway\AppData\Local\Temp\ccKhlCKS.s:96     .bss.htim5:0000000000000000 $d
C:\Users\Morroway\AppData\Local\Temp\ccKhlCKS.s:106    .bss.hpcd_USB_OTG_FS:0000000000000000 hpcd_USB_OTG_FS
C:\Users\Morroway\AppData\Local\Temp\ccKhlCKS.s:103    .bss.hpcd_USB_OTG_FS:0000000000000000 $d
C:\Users\Morroway\AppData\Local\Temp\ccKhlCKS.s:113    .bss.step:0000000000000000 step
C:\Users\Morroway\AppData\Local\Temp\ccKhlCKS.s:110    .bss.step:0000000000000000 $d
C:\Users\Morroway\AppData\Local\Temp\ccKhlCKS.s:120    .bss.last_time:0000000000000000 last_time
C:\Users\Morroway\AppData\Local\Temp\ccKhlCKS.s:117    .bss.last_time:0000000000000000 $d
C:\Users\Morroway\AppData\Local\Temp\ccKhlCKS.s:127    .bss.value:0000000000000000 value
C:\Users\Morroway\AppData\Local\Temp\ccKhlCKS.s:124    .bss.value:0000000000000000 $d
C:\Users\Morroway\AppData\Local\Temp\ccKhlCKS.s:130    .text.HAL_UARTEx_RxEventCallback:0000000000000000 $t
C:\Users\Morroway\AppData\Local\Temp\ccKhlCKS.s:136    .text.HAL_UARTEx_RxEventCallback:0000000000000000 HAL_UARTEx_RxEventCallback
C:\Users\Morroway\AppData\Local\Temp\ccKhlCKS.s:186    .text.HAL_UARTEx_RxEventCallback:0000000000000038 $d
C:\Users\Morroway\AppData\Local\Temp\ccKhlCKS.s:194    .text.DelayMicrosecond:0000000000000000 $t
C:\Users\Morroway\AppData\Local\Temp\ccKhlCKS.s:200    .text.DelayMicrosecond:0000000000000000 DelayMicrosecond
C:\Users\Morroway\AppData\Local\Temp\ccKhlCKS.s:247    .text.DelayMicrosecond:0000000000000030 $d
C:\Users\Morroway\AppData\Local\Temp\ccKhlCKS.s:252    .text.GetTicks:0000000000000000 $t
C:\Users\Morroway\AppData\Local\Temp\ccKhlCKS.s:258    .text.GetTicks:0000000000000000 GetTicks
C:\Users\Morroway\AppData\Local\Temp\ccKhlCKS.s:286    .text.GetTicks:0000000000000014 $d
C:\Users\Morroway\AppData\Local\Temp\ccKhlCKS.s:291    .rodata:0000000000000000 $d
C:\Users\Morroway\AppData\Local\Temp\ccKhlCKS.s:295    .text.print_temperature:0000000000000000 $t
C:\Users\Morroway\AppData\Local\Temp\ccKhlCKS.s:301    .text.print_temperature:0000000000000000 print_temperature
C:\Users\Morroway\AppData\Local\Temp\ccKhlCKS.s:351    .text.print_temperature:0000000000000048 $d
C:\Users\Morroway\AppData\Local\Temp\ccKhlCKS.s:359    .text.main:0000000000000000 $t
C:\Users\Morroway\AppData\Local\Temp\ccKhlCKS.s:365    .text.main:0000000000000000 main
C:\Users\Morroway\AppData\Local\Temp\ccKhlCKS.s:610    .text.SystemClock_Config:0000000000000000 SystemClock_Config
C:\Users\Morroway\AppData\Local\Temp\ccKhlCKS.s:2051   .text.MX_GPIO_Init:0000000000000000 MX_GPIO_Init
C:\Users\Morroway\AppData\Local\Temp\ccKhlCKS.s:1974   .text.MX_DMA_Init:0000000000000000 MX_DMA_Init
C:\Users\Morroway\AppData\Local\Temp\ccKhlCKS.s:960    .text.MX_LPUART1_UART_Init:0000000000000000 MX_LPUART1_UART_Init
C:\Users\Morroway\AppData\Local\Temp\ccKhlCKS.s:1900   .text.MX_USB_OTG_FS_PCD_Init:0000000000000000 MX_USB_OTG_FS_PCD_Init
C:\Users\Morroway\AppData\Local\Temp\ccKhlCKS.s:1668   .text.MX_TIM4_Init:0000000000000000 MX_TIM4_Init
C:\Users\Morroway\AppData\Local\Temp\ccKhlCKS.s:1079   .text.MX_UART4_Init:0000000000000000 MX_UART4_Init
C:\Users\Morroway\AppData\Local\Temp\ccKhlCKS.s:1465   .text.MX_TIM3_Init:0000000000000000 MX_TIM3_Init
ARM GAS  C:\Users\Morroway\AppData\Local\Temp\ccKhlCKS.s 			page 64


C:\Users\Morroway\AppData\Local\Temp\ccKhlCKS.s:739    .text.MX_ADC1_Init:0000000000000000 MX_ADC1_Init
C:\Users\Morroway\AppData\Local\Temp\ccKhlCKS.s:1784   .text.MX_TIM5_Init:0000000000000000 MX_TIM5_Init
C:\Users\Morroway\AppData\Local\Temp\ccKhlCKS.s:1289   .text.MX_TIM2_Init:0000000000000000 MX_TIM2_Init
C:\Users\Morroway\AppData\Local\Temp\ccKhlCKS.s:1194   .text.MX_SPI1_Init:0000000000000000 MX_SPI1_Init
C:\Users\Morroway\AppData\Local\Temp\ccKhlCKS.s:586    .text.main:0000000000000178 $d
C:\Users\Morroway\AppData\Local\Temp\ccKhlCKS.s:604    .text.SystemClock_Config:0000000000000000 $t
C:\Users\Morroway\AppData\Local\Temp\ccKhlCKS.s:2361   .text.Error_Handler:0000000000000000 Error_Handler
C:\Users\Morroway\AppData\Local\Temp\ccKhlCKS.s:734    .text.MX_ADC1_Init:0000000000000000 $t
C:\Users\Morroway\AppData\Local\Temp\ccKhlCKS.s:946    .text.MX_ADC1_Init:0000000000000130 $d
C:\Users\Morroway\AppData\Local\Temp\ccKhlCKS.s:955    .text.MX_LPUART1_UART_Init:0000000000000000 $t
C:\Users\Morroway\AppData\Local\Temp\ccKhlCKS.s:1068   .text.MX_LPUART1_UART_Init:0000000000000098 $d
C:\Users\Morroway\AppData\Local\Temp\ccKhlCKS.s:1074   .text.MX_UART4_Init:0000000000000000 $t
C:\Users\Morroway\AppData\Local\Temp\ccKhlCKS.s:1183   .text.MX_UART4_Init:0000000000000090 $d
C:\Users\Morroway\AppData\Local\Temp\ccKhlCKS.s:1189   .text.MX_SPI1_Init:0000000000000000 $t
C:\Users\Morroway\AppData\Local\Temp\ccKhlCKS.s:1278   .text.MX_SPI1_Init:0000000000000074 $d
C:\Users\Morroway\AppData\Local\Temp\ccKhlCKS.s:1284   .text.MX_TIM2_Init:0000000000000000 $t
C:\Users\Morroway\AppData\Local\Temp\ccKhlCKS.s:1455   .text.MX_TIM2_Init:00000000000000fc $d
C:\Users\Morroway\AppData\Local\Temp\ccKhlCKS.s:1460   .text.MX_TIM3_Init:0000000000000000 $t
C:\Users\Morroway\AppData\Local\Temp\ccKhlCKS.s:1657   .text.MX_TIM3_Init:0000000000000128 $d
C:\Users\Morroway\AppData\Local\Temp\ccKhlCKS.s:1663   .text.MX_TIM4_Init:0000000000000000 $t
C:\Users\Morroway\AppData\Local\Temp\ccKhlCKS.s:1773   .text.MX_TIM4_Init:0000000000000094 $d
C:\Users\Morroway\AppData\Local\Temp\ccKhlCKS.s:1779   .text.MX_TIM5_Init:0000000000000000 $t
C:\Users\Morroway\AppData\Local\Temp\ccKhlCKS.s:1889   .text.MX_TIM5_Init:0000000000000094 $d
C:\Users\Morroway\AppData\Local\Temp\ccKhlCKS.s:1895   .text.MX_USB_OTG_FS_PCD_Init:0000000000000000 $t
C:\Users\Morroway\AppData\Local\Temp\ccKhlCKS.s:1964   .text.MX_USB_OTG_FS_PCD_Init:0000000000000050 $d
C:\Users\Morroway\AppData\Local\Temp\ccKhlCKS.s:1969   .text.MX_DMA_Init:0000000000000000 $t
C:\Users\Morroway\AppData\Local\Temp\ccKhlCKS.s:2041   .text.MX_DMA_Init:0000000000000060 $d
C:\Users\Morroway\AppData\Local\Temp\ccKhlCKS.s:2046   .text.MX_GPIO_Init:0000000000000000 $t
C:\Users\Morroway\AppData\Local\Temp\ccKhlCKS.s:2346   .text.MX_GPIO_Init:0000000000000204 $d
C:\Users\Morroway\AppData\Local\Temp\ccKhlCKS.s:2355   .text.Error_Handler:0000000000000000 $t

UNDEFINED SYMBOLS
HAL_UARTEx_ReceiveToIdle_DMA
GetTemperature
sprintf
strlen
HAL_UART_Transmit
HAL_Init
HAL_TIM_PWM_Start
HAL_ADC_Start_DMA
HAL_TIM_Base_Start
memset
reset_args
get_command
HAL_GetTick
M105
HAL_GPIO_ReadPin
G0
M104
HAL_GPIO_WritePin
HAL_GPIO_TogglePin
isRunning
interval
HAL_PWREx_ControlVoltageScaling
HAL_RCC_OscConfig
HAL_RCC_ClockConfig
HAL_ADC_Init
ARM GAS  C:\Users\Morroway\AppData\Local\Temp\ccKhlCKS.s 			page 65


HAL_ADCEx_MultiModeConfigChannel
HAL_ADC_ConfigChannel
HAL_UART_Init
HAL_UARTEx_SetTxFifoThreshold
HAL_UARTEx_SetRxFifoThreshold
HAL_UARTEx_DisableFifoMode
HAL_SPI_Init
HAL_TIM_Base_Init
HAL_TIM_ConfigClockSource
HAL_TIM_PWM_Init
HAL_TIMEx_MasterConfigSynchronization
HAL_TIM_PWM_ConfigChannel
HAL_TIM_MspPostInit
HAL_PCD_Init
HAL_NVIC_SetPriority
HAL_NVIC_EnableIRQ
HAL_PWREx_EnableVddIO2
HAL_GPIO_Init
