ARM GAS  C:\Users\Morroway\AppData\Local\Temp\ccHeORmJ.s 			page 1


   1              		.cpu cortex-m4
   2              		.arch armv7e-m
   3              		.fpu fpv4-sp-d16
   4              		.eabi_attribute 27, 1
   5              		.eabi_attribute 28, 1
   6              		.eabi_attribute 20, 1
   7              		.eabi_attribute 21, 1
   8              		.eabi_attribute 23, 3
   9              		.eabi_attribute 24, 1
  10              		.eabi_attribute 25, 1
  11              		.eabi_attribute 26, 1
  12              		.eabi_attribute 30, 6
  13              		.eabi_attribute 34, 1
  14              		.eabi_attribute 18, 4
  15              		.file	"main.c"
  16              		.text
  17              	.Ltext0:
  18              		.cfi_sections	.debug_frame
  19              		.section	.bss.msg_buffer,"aw",%nobits
  20              		.align	2
  23              	msg_buffer:
  24 0000 00000000 		.space	30
  24      00000000 
  24      00000000 
  24      00000000 
  24      00000000 
  25              		.section	.bss.RxBuf,"aw",%nobits
  26              		.align	2
  29              	RxBuf:
  30 0000 00000000 		.space	20
  30      00000000 
  30      00000000 
  30      00000000 
  30      00000000 
  31              		.global	hadc1
  32              		.section	.bss.hadc1,"aw",%nobits
  33              		.align	2
  36              	hadc1:
  37 0000 00000000 		.space	104
  37      00000000 
  37      00000000 
  37      00000000 
  37      00000000 
  38              		.global	hdma_adc1
  39              		.section	.bss.hdma_adc1,"aw",%nobits
  40              		.align	2
  43              	hdma_adc1:
  44 0000 00000000 		.space	96
  44      00000000 
  44      00000000 
  44      00000000 
  44      00000000 
  45              		.global	hlpuart1
  46              		.section	.bss.hlpuart1,"aw",%nobits
  47              		.align	2
  50              	hlpuart1:
  51 0000 00000000 		.space	144
ARM GAS  C:\Users\Morroway\AppData\Local\Temp\ccHeORmJ.s 			page 2


  51      00000000 
  51      00000000 
  51      00000000 
  51      00000000 
  52              		.global	huart4
  53              		.section	.bss.huart4,"aw",%nobits
  54              		.align	2
  57              	huart4:
  58 0000 00000000 		.space	144
  58      00000000 
  58      00000000 
  58      00000000 
  58      00000000 
  59              		.global	hdma_lpuart1_rx
  60              		.section	.bss.hdma_lpuart1_rx,"aw",%nobits
  61              		.align	2
  64              	hdma_lpuart1_rx:
  65 0000 00000000 		.space	96
  65      00000000 
  65      00000000 
  65      00000000 
  65      00000000 
  66              		.global	htim3
  67              		.section	.bss.htim3,"aw",%nobits
  68              		.align	2
  71              	htim3:
  72 0000 00000000 		.space	76
  72      00000000 
  72      00000000 
  72      00000000 
  72      00000000 
  73              		.global	htim4
  74              		.section	.bss.htim4,"aw",%nobits
  75              		.align	2
  78              	htim4:
  79 0000 00000000 		.space	76
  79      00000000 
  79      00000000 
  79      00000000 
  79      00000000 
  80              		.global	htim5
  81              		.section	.bss.htim5,"aw",%nobits
  82              		.align	2
  85              	htim5:
  86 0000 00000000 		.space	76
  86      00000000 
  86      00000000 
  86      00000000 
  86      00000000 
  87              		.global	hpcd_USB_OTG_FS
  88              		.section	.bss.hpcd_USB_OTG_FS,"aw",%nobits
  89              		.align	2
  92              	hpcd_USB_OTG_FS:
  93 0000 00000000 		.space	1292
  93      00000000 
  93      00000000 
  93      00000000 
ARM GAS  C:\Users\Morroway\AppData\Local\Temp\ccHeORmJ.s 			page 3


  93      00000000 
  94              		.global	step
  95              		.section	.bss.step,"aw",%nobits
  96              		.align	1
  99              	step:
 100 0000 0000     		.space	2
 101              		.global	last_time
 102              		.section	.bss.last_time,"aw",%nobits
 103              		.align	2
 106              	last_time:
 107 0000 00000000 		.space	4
 108              		.global	value
 109              		.section	.bss.value,"aw",%nobits
 110              		.align	2
 113              	value:
 114 0000 00000000 		.space	12
 114      00000000 
 114      00000000 
 115              		.section	.text.HAL_UARTEx_RxEventCallback,"ax",%progbits
 116              		.align	1
 117              		.global	HAL_UARTEx_RxEventCallback
 118              		.syntax unified
 119              		.thumb
 120              		.thumb_func
 122              	HAL_UARTEx_RxEventCallback:
 123              	.LFB325:
 124              		.file 1 "Core/Src/main.c"
   1:Core/Src/main.c **** /* USER CODE BEGIN Header */
   2:Core/Src/main.c **** /**
   3:Core/Src/main.c ****  ******************************************************************************
   4:Core/Src/main.c ****  * @file           : main.c
   5:Core/Src/main.c ****  * @brief          : Main program body
   6:Core/Src/main.c ****  ******************************************************************************
   7:Core/Src/main.c ****  * @attention
   8:Core/Src/main.c ****  *
   9:Core/Src/main.c ****  * Copyright (c) 2022 STMicroelectronics.
  10:Core/Src/main.c ****  * All rights reserved.
  11:Core/Src/main.c ****  *
  12:Core/Src/main.c ****  * This software is licensed under terms that can be found in the LICENSE file
  13:Core/Src/main.c ****  * in the root directory of this software component.
  14:Core/Src/main.c ****  * If no LICENSE file comes with this software, it is provided AS-IS.
  15:Core/Src/main.c ****  *
  16:Core/Src/main.c ****  ******************************************************************************
  17:Core/Src/main.c ****  */
  18:Core/Src/main.c **** /* USER CODE END Header */
  19:Core/Src/main.c **** /* Includes ------------------------------------------------------------------*/
  20:Core/Src/main.c **** #include "main.h"
  21:Core/Src/main.c **** 
  22:Core/Src/main.c **** /* Private includes ----------------------------------------------------------*/
  23:Core/Src/main.c **** /* USER CODE BEGIN Includes */
  24:Core/Src/main.c **** #include "Functions.h"
  25:Core/Src/main.c **** #include <stdio.h>
  26:Core/Src/main.c **** #include <string.h>
  27:Core/Src/main.c **** #include <ctype.h>
  28:Core/Src/main.c **** // #include "Parser.h"
  29:Core/Src/main.c **** /* USER CODE END Includes */
  30:Core/Src/main.c **** 
ARM GAS  C:\Users\Morroway\AppData\Local\Temp\ccHeORmJ.s 			page 4


  31:Core/Src/main.c **** /* Private typedef -----------------------------------------------------------*/
  32:Core/Src/main.c **** /* USER CODE BEGIN PTD */
  33:Core/Src/main.c **** 
  34:Core/Src/main.c **** /* USER CODE END PTD */
  35:Core/Src/main.c **** 
  36:Core/Src/main.c **** /* Private define ------------------------------------------------------------*/
  37:Core/Src/main.c **** /* USER CODE BEGIN PD */
  38:Core/Src/main.c **** /* USER CODE END PD */
  39:Core/Src/main.c **** 
  40:Core/Src/main.c **** /* Private macro -------------------------------------------------------------*/
  41:Core/Src/main.c **** /* USER CODE BEGIN PM */
  42:Core/Src/main.c **** 
  43:Core/Src/main.c **** /* USER CODE END PM */
  44:Core/Src/main.c **** 
  45:Core/Src/main.c **** /* Private variables ---------------------------------------------------------*/
  46:Core/Src/main.c **** ADC_HandleTypeDef hadc1;
  47:Core/Src/main.c **** DMA_HandleTypeDef hdma_adc1;
  48:Core/Src/main.c **** 
  49:Core/Src/main.c **** UART_HandleTypeDef hlpuart1;
  50:Core/Src/main.c **** UART_HandleTypeDef huart4;
  51:Core/Src/main.c **** DMA_HandleTypeDef hdma_lpuart1_rx;
  52:Core/Src/main.c **** 
  53:Core/Src/main.c **** TIM_HandleTypeDef htim3;
  54:Core/Src/main.c **** TIM_HandleTypeDef htim4;
  55:Core/Src/main.c **** TIM_HandleTypeDef htim5;
  56:Core/Src/main.c **** 
  57:Core/Src/main.c **** PCD_HandleTypeDef hpcd_USB_OTG_FS;
  58:Core/Src/main.c **** 
  59:Core/Src/main.c **** /* USER CODE BEGIN PV */
  60:Core/Src/main.c **** uint16_t step = 0;
  61:Core/Src/main.c **** uint32_t last_time = 0;
  62:Core/Src/main.c **** uint32_t value[ADC_CHANNELS];
  63:Core/Src/main.c **** /* USER CODE END PV */
  64:Core/Src/main.c **** 
  65:Core/Src/main.c **** /* Private function prototypes -----------------------------------------------*/
  66:Core/Src/main.c **** void SystemClock_Config(void);
  67:Core/Src/main.c **** static void MX_GPIO_Init(void);
  68:Core/Src/main.c **** static void MX_DMA_Init(void);
  69:Core/Src/main.c **** static void MX_LPUART1_UART_Init(void);
  70:Core/Src/main.c **** static void MX_USB_OTG_FS_PCD_Init(void);
  71:Core/Src/main.c **** static void MX_TIM4_Init(void);
  72:Core/Src/main.c **** static void MX_UART4_Init(void);
  73:Core/Src/main.c **** static void MX_TIM3_Init(void);
  74:Core/Src/main.c **** static void MX_ADC1_Init(void);
  75:Core/Src/main.c **** static void MX_TIM5_Init(void);
  76:Core/Src/main.c **** /* USER CODE BEGIN PFP */
  77:Core/Src/main.c **** /* USER CODE END PFP */
  78:Core/Src/main.c **** 
  79:Core/Src/main.c **** /* Private user code ---------------------------------------------------------*/
  80:Core/Src/main.c **** /* USER CODE BEGIN 0 */
  81:Core/Src/main.c **** 
  82:Core/Src/main.c **** void HAL_UARTEx_RxEventCallback(UART_HandleTypeDef *huart, uint16_t Size)
  83:Core/Src/main.c **** {
 125              		.loc 1 83 1
 126              		.cfi_startproc
 127              		@ args = 0, pretend = 0, frame = 8
 128              		@ frame_needed = 1, uses_anonymous_args = 0
ARM GAS  C:\Users\Morroway\AppData\Local\Temp\ccHeORmJ.s 			page 5


 129 0000 80B5     		push	{r7, lr}
 130              		.cfi_def_cfa_offset 8
 131              		.cfi_offset 7, -8
 132              		.cfi_offset 14, -4
 133 0002 82B0     		sub	sp, sp, #8
 134              		.cfi_def_cfa_offset 16
 135 0004 00AF     		add	r7, sp, #0
 136              		.cfi_def_cfa_register 7
 137 0006 7860     		str	r0, [r7, #4]
 138 0008 0B46     		mov	r3, r1
 139 000a 7B80     		strh	r3, [r7, #2]	@ movhi
  84:Core/Src/main.c ****   if (huart->Instance == LPUART1)
 140              		.loc 1 84 12
 141 000c 7B68     		ldr	r3, [r7, #4]
 142 000e 1B68     		ldr	r3, [r3]
 143              		.loc 1 84 6
 144 0010 094A     		ldr	r2, .L4
 145 0012 9342     		cmp	r3, r2
 146 0014 0CD1     		bne	.L3
  85:Core/Src/main.c ****   {
  86:Core/Src/main.c ****     HAL_UARTEx_ReceiveToIdle_DMA(&hlpuart1, (uint8_t *)RxBuf, RxBuf_SIZE);
 147              		.loc 1 86 5
 148 0016 1422     		movs	r2, #20
 149 0018 0849     		ldr	r1, .L4+4
 150 001a 0948     		ldr	r0, .L4+8
 151 001c FFF7FEFF 		bl	HAL_UARTEx_ReceiveToIdle_DMA
  87:Core/Src/main.c ****     __HAL_DMA_DISABLE_IT(&hdma_lpuart1_rx, DMA_IT_HT);
 152              		.loc 1 87 5
 153 0020 084B     		ldr	r3, .L4+12
 154 0022 1B68     		ldr	r3, [r3]
 155 0024 1A68     		ldr	r2, [r3]
 156 0026 074B     		ldr	r3, .L4+12
 157 0028 1B68     		ldr	r3, [r3]
 158 002a 22F00402 		bic	r2, r2, #4
 159 002e 1A60     		str	r2, [r3]
 160              	.L3:
  88:Core/Src/main.c ****   }
  89:Core/Src/main.c **** }
 161              		.loc 1 89 1
 162 0030 00BF     		nop
 163 0032 0837     		adds	r7, r7, #8
 164              		.cfi_def_cfa_offset 8
 165 0034 BD46     		mov	sp, r7
 166              		.cfi_def_cfa_register 13
 167              		@ sp needed
 168 0036 80BD     		pop	{r7, pc}
 169              	.L5:
 170              		.align	2
 171              	.L4:
 172 0038 00800040 		.word	1073774592
 173 003c 00000000 		.word	RxBuf
 174 0040 00000000 		.word	hlpuart1
 175 0044 00000000 		.word	hdma_lpuart1_rx
 176              		.cfi_endproc
 177              	.LFE325:
 179              		.section	.text.DelayMicrosecond,"ax",%progbits
 180              		.align	1
ARM GAS  C:\Users\Morroway\AppData\Local\Temp\ccHeORmJ.s 			page 6


 181              		.global	DelayMicrosecond
 182              		.syntax unified
 183              		.thumb
 184              		.thumb_func
 186              	DelayMicrosecond:
 187              	.LFB326:
  90:Core/Src/main.c **** 
  91:Core/Src/main.c **** void DelayMicrosecond(uint16_t time)
  92:Core/Src/main.c **** {
 188              		.loc 1 92 1
 189              		.cfi_startproc
 190              		@ args = 0, pretend = 0, frame = 8
 191              		@ frame_needed = 1, uses_anonymous_args = 0
 192              		@ link register save eliminated.
 193 0000 80B4     		push	{r7}
 194              		.cfi_def_cfa_offset 4
 195              		.cfi_offset 7, -4
 196 0002 83B0     		sub	sp, sp, #12
 197              		.cfi_def_cfa_offset 16
 198 0004 00AF     		add	r7, sp, #0
 199              		.cfi_def_cfa_register 7
 200 0006 0346     		mov	r3, r0
 201 0008 FB80     		strh	r3, [r7, #6]	@ movhi
  93:Core/Src/main.c ****   __HAL_TIM_SET_COUNTER(&htim4, 0);
 202              		.loc 1 93 3
 203 000a 094B     		ldr	r3, .L8
 204 000c 1B68     		ldr	r3, [r3]
 205 000e 0022     		movs	r2, #0
 206 0010 5A62     		str	r2, [r3, #36]
  94:Core/Src/main.c ****   while (__HAL_TIM_GET_COUNTER(&htim4) < time)
 207              		.loc 1 94 9
 208 0012 00BF     		nop
 209              	.L7:
 210              		.loc 1 94 10 discriminator 1
 211 0014 064B     		ldr	r3, .L8
 212 0016 1B68     		ldr	r3, [r3]
 213 0018 5A6A     		ldr	r2, [r3, #36]
 214              		.loc 1 94 40 discriminator 1
 215 001a FB88     		ldrh	r3, [r7, #6]
 216 001c 9A42     		cmp	r2, r3
 217 001e F9D3     		bcc	.L7
  95:Core/Src/main.c ****     ;
  96:Core/Src/main.c **** }
 218              		.loc 1 96 1
 219 0020 00BF     		nop
 220 0022 00BF     		nop
 221 0024 0C37     		adds	r7, r7, #12
 222              		.cfi_def_cfa_offset 4
 223 0026 BD46     		mov	sp, r7
 224              		.cfi_def_cfa_register 13
 225              		@ sp needed
 226 0028 5DF8047B 		ldr	r7, [sp], #4
 227              		.cfi_restore 7
 228              		.cfi_def_cfa_offset 0
 229 002c 7047     		bx	lr
 230              	.L9:
 231 002e 00BF     		.align	2
ARM GAS  C:\Users\Morroway\AppData\Local\Temp\ccHeORmJ.s 			page 7


 232              	.L8:
 233 0030 00000000 		.word	htim4
 234              		.cfi_endproc
 235              	.LFE326:
 237              		.section	.text.GetTicks,"ax",%progbits
 238              		.align	1
 239              		.global	GetTicks
 240              		.syntax unified
 241              		.thumb
 242              		.thumb_func
 244              	GetTicks:
 245              	.LFB327:
  97:Core/Src/main.c **** 
  98:Core/Src/main.c **** int GetTicks()
  99:Core/Src/main.c **** {
 246              		.loc 1 99 1
 247              		.cfi_startproc
 248              		@ args = 0, pretend = 0, frame = 0
 249              		@ frame_needed = 1, uses_anonymous_args = 0
 250              		@ link register save eliminated.
 251 0000 80B4     		push	{r7}
 252              		.cfi_def_cfa_offset 4
 253              		.cfi_offset 7, -4
 254 0002 00AF     		add	r7, sp, #0
 255              		.cfi_def_cfa_register 7
 100:Core/Src/main.c ****   return __HAL_TIM_GET_COUNTER(&htim5);
 256              		.loc 1 100 10
 257 0004 034B     		ldr	r3, .L12
 258 0006 1B68     		ldr	r3, [r3]
 259 0008 5B6A     		ldr	r3, [r3, #36]
 101:Core/Src/main.c **** }
 260              		.loc 1 101 1
 261 000a 1846     		mov	r0, r3
 262 000c BD46     		mov	sp, r7
 263              		.cfi_def_cfa_register 13
 264              		@ sp needed
 265 000e 5DF8047B 		ldr	r7, [sp], #4
 266              		.cfi_restore 7
 267              		.cfi_def_cfa_offset 0
 268 0012 7047     		bx	lr
 269              	.L13:
 270              		.align	2
 271              	.L12:
 272 0014 00000000 		.word	htim5
 273              		.cfi_endproc
 274              	.LFE327:
 276              		.section	.rodata
 277              		.align	2
 278              	.LC0:
 279 0000 74656D70 		.ascii	"temp: %f, value: %d\015\012\000"
 279      3A202566 
 279      2C207661 
 279      6C75653A 
 279      2025640D 
 280              		.section	.text.print_temperature,"ax",%progbits
 281              		.align	1
 282              		.global	print_temperature
ARM GAS  C:\Users\Morroway\AppData\Local\Temp\ccHeORmJ.s 			page 8


 283              		.syntax unified
 284              		.thumb
 285              		.thumb_func
 287              	print_temperature:
 288              	.LFB328:
 102:Core/Src/main.c **** 
 103:Core/Src/main.c **** void print_temperature()
 104:Core/Src/main.c **** {
 289              		.loc 1 104 1
 290              		.cfi_startproc
 291              		@ args = 0, pretend = 0, frame = 0
 292              		@ frame_needed = 1, uses_anonymous_args = 0
 293 0000 80B5     		push	{r7, lr}
 294              		.cfi_def_cfa_offset 8
 295              		.cfi_offset 7, -8
 296              		.cfi_offset 14, -4
 297 0002 82B0     		sub	sp, sp, #8
 298              		.cfi_def_cfa_offset 16
 299 0004 02AF     		add	r7, sp, #8
 300              		.cfi_def_cfa 7, 8
 105:Core/Src/main.c ****   sprintf(msg_buffer, "temp: %f, value: %d\r\n", GetTemperature(ADC_HOT_END, value[ADC_HOT_END]), v
 301              		.loc 1 105 83
 302 0006 104B     		ldr	r3, .L15
 303 0008 5B68     		ldr	r3, [r3, #4]
 304              		.loc 1 105 3
 305 000a 9BB2     		uxth	r3, r3
 306 000c 1946     		mov	r1, r3
 307 000e 0120     		movs	r0, #1
 308 0010 FFF7FEFF 		bl	GetTemperature
 309 0014 51EC100B 		vmov	r0, r1, d0
 310 0018 0B4B     		ldr	r3, .L15
 311 001a 5B68     		ldr	r3, [r3, #4]
 312 001c 0093     		str	r3, [sp]
 313 001e 0246     		mov	r2, r0
 314 0020 0B46     		mov	r3, r1
 315 0022 0A49     		ldr	r1, .L15+4
 316 0024 0A48     		ldr	r0, .L15+8
 317 0026 FFF7FEFF 		bl	sprintf
 106:Core/Src/main.c ****   HAL_UART_Transmit(&hlpuart1, (uint16_t *)msg_buffer, strlen(msg_buffer), HAL_MAX_DELAY);
 318              		.loc 1 106 56
 319 002a 0948     		ldr	r0, .L15+8
 320 002c FFF7FEFF 		bl	strlen
 321 0030 0346     		mov	r3, r0
 322              		.loc 1 106 3
 323 0032 9AB2     		uxth	r2, r3
 324 0034 4FF0FF33 		mov	r3, #-1
 325 0038 0549     		ldr	r1, .L15+8
 326 003a 0648     		ldr	r0, .L15+12
 327 003c FFF7FEFF 		bl	HAL_UART_Transmit
 107:Core/Src/main.c **** }
 328              		.loc 1 107 1
 329 0040 00BF     		nop
 330 0042 BD46     		mov	sp, r7
 331              		.cfi_def_cfa_register 13
 332              		@ sp needed
 333 0044 80BD     		pop	{r7, pc}
 334              	.L16:
ARM GAS  C:\Users\Morroway\AppData\Local\Temp\ccHeORmJ.s 			page 9


 335 0046 00BF     		.align	2
 336              	.L15:
 337 0048 00000000 		.word	value
 338 004c 00000000 		.word	.LC0
 339 0050 00000000 		.word	msg_buffer
 340 0054 00000000 		.word	hlpuart1
 341              		.cfi_endproc
 342              	.LFE328:
 344              		.section	.text.main,"ax",%progbits
 345              		.align	1
 346              		.global	main
 347              		.syntax unified
 348              		.thumb
 349              		.thumb_func
 351              	main:
 352              	.LFB329:
 108:Core/Src/main.c **** /* USER CODE END 0 */
 109:Core/Src/main.c **** 
 110:Core/Src/main.c **** /**
 111:Core/Src/main.c ****  * @brief  The application entry point.
 112:Core/Src/main.c ****  * @retval int
 113:Core/Src/main.c ****  */
 114:Core/Src/main.c **** int main(void)
 115:Core/Src/main.c **** {
 353              		.loc 1 115 1
 354              		.cfi_startproc
 355              		@ args = 0, pretend = 0, frame = 8
 356              		@ frame_needed = 1, uses_anonymous_args = 0
 357 0000 80B5     		push	{r7, lr}
 358              		.cfi_def_cfa_offset 8
 359              		.cfi_offset 7, -8
 360              		.cfi_offset 14, -4
 361 0002 82B0     		sub	sp, sp, #8
 362              		.cfi_def_cfa_offset 16
 363 0004 00AF     		add	r7, sp, #0
 364              		.cfi_def_cfa_register 7
 116:Core/Src/main.c ****   /* USER CODE BEGIN 1 */
 117:Core/Src/main.c ****   // last_time = HAL_GetTick();
 118:Core/Src/main.c ****   /* USER CODE END 1 */
 119:Core/Src/main.c **** 
 120:Core/Src/main.c ****   /* MCU Configuration--------------------------------------------------------*/
 121:Core/Src/main.c **** 
 122:Core/Src/main.c ****   /* Reset of all peripherals, Initializes the Flash interface and the Systick. */
 123:Core/Src/main.c ****   HAL_Init();
 365              		.loc 1 123 3
 366 0006 FFF7FEFF 		bl	HAL_Init
 124:Core/Src/main.c **** 
 125:Core/Src/main.c ****   /* USER CODE BEGIN Init */
 126:Core/Src/main.c **** 
 127:Core/Src/main.c ****   /* USER CODE END Init */
 128:Core/Src/main.c **** 
 129:Core/Src/main.c ****   /* Configure the system clock */
 130:Core/Src/main.c ****   SystemClock_Config();
 367              		.loc 1 130 3
 368 000a FFF7FEFF 		bl	SystemClock_Config
 131:Core/Src/main.c **** 
 132:Core/Src/main.c ****   /* USER CODE BEGIN SysInit */
ARM GAS  C:\Users\Morroway\AppData\Local\Temp\ccHeORmJ.s 			page 10


 133:Core/Src/main.c **** 
 134:Core/Src/main.c ****   /* USER CODE END SysInit */
 135:Core/Src/main.c **** 
 136:Core/Src/main.c ****   /* Initialize all configured peripherals */
 137:Core/Src/main.c ****   MX_GPIO_Init();
 369              		.loc 1 137 3
 370 000e FFF7FEFF 		bl	MX_GPIO_Init
 138:Core/Src/main.c ****   MX_DMA_Init();
 371              		.loc 1 138 3
 372 0012 FFF7FEFF 		bl	MX_DMA_Init
 139:Core/Src/main.c ****   MX_LPUART1_UART_Init();
 373              		.loc 1 139 3
 374 0016 FFF7FEFF 		bl	MX_LPUART1_UART_Init
 140:Core/Src/main.c ****   MX_USB_OTG_FS_PCD_Init();
 375              		.loc 1 140 3
 376 001a FFF7FEFF 		bl	MX_USB_OTG_FS_PCD_Init
 141:Core/Src/main.c ****   MX_TIM4_Init();
 377              		.loc 1 141 3
 378 001e FFF7FEFF 		bl	MX_TIM4_Init
 142:Core/Src/main.c ****   MX_UART4_Init();
 379              		.loc 1 142 3
 380 0022 FFF7FEFF 		bl	MX_UART4_Init
 143:Core/Src/main.c ****   MX_TIM3_Init();
 381              		.loc 1 143 3
 382 0026 FFF7FEFF 		bl	MX_TIM3_Init
 144:Core/Src/main.c ****   MX_ADC1_Init();
 383              		.loc 1 144 3
 384 002a FFF7FEFF 		bl	MX_ADC1_Init
 145:Core/Src/main.c ****   MX_TIM5_Init();
 385              		.loc 1 145 3
 386 002e FFF7FEFF 		bl	MX_TIM5_Init
 146:Core/Src/main.c ****   /* USER CODE BEGIN 2 */
 147:Core/Src/main.c ****   HAL_TIM_PWM_Start(&htim3, TIM_CHANNEL_1);
 387              		.loc 1 147 3
 388 0032 0021     		movs	r1, #0
 389 0034 3848     		ldr	r0, .L23
 390 0036 FFF7FEFF 		bl	HAL_TIM_PWM_Start
 148:Core/Src/main.c ****   HAL_TIM_PWM_Start(&htim3, TIM_CHANNEL_2);
 391              		.loc 1 148 3
 392 003a 0421     		movs	r1, #4
 393 003c 3648     		ldr	r0, .L23
 394 003e FFF7FEFF 		bl	HAL_TIM_PWM_Start
 149:Core/Src/main.c ****   HAL_TIM_PWM_Start(&htim3, TIM_CHANNEL_3);
 395              		.loc 1 149 3
 396 0042 0821     		movs	r1, #8
 397 0044 3448     		ldr	r0, .L23
 398 0046 FFF7FEFF 		bl	HAL_TIM_PWM_Start
 150:Core/Src/main.c ****   HAL_ADC_Start_DMA(&hadc1, value, ADC_CHANNELS);
 399              		.loc 1 150 3
 400 004a 0322     		movs	r2, #3
 401 004c 3349     		ldr	r1, .L23+4
 402 004e 3448     		ldr	r0, .L23+8
 403 0050 FFF7FEFF 		bl	HAL_ADC_Start_DMA
 151:Core/Src/main.c ****   HAL_TIM_Base_Start(&htim4);
 404              		.loc 1 151 3
 405 0054 3348     		ldr	r0, .L23+12
 406 0056 FFF7FEFF 		bl	HAL_TIM_Base_Start
ARM GAS  C:\Users\Morroway\AppData\Local\Temp\ccHeORmJ.s 			page 11


 152:Core/Src/main.c ****   HAL_TIM_Base_Start(&htim5);
 407              		.loc 1 152 3
 408 005a 3348     		ldr	r0, .L23+16
 409 005c FFF7FEFF 		bl	HAL_TIM_Base_Start
 153:Core/Src/main.c ****   HAL_UARTEx_ReceiveToIdle_DMA(&hlpuart1, RxBuf, RxBuf_SIZE);
 410              		.loc 1 153 3
 411 0060 1422     		movs	r2, #20
 412 0062 3249     		ldr	r1, .L23+20
 413 0064 3248     		ldr	r0, .L23+24
 414 0066 FFF7FEFF 		bl	HAL_UARTEx_ReceiveToIdle_DMA
 154:Core/Src/main.c ****   __HAL_DMA_DISABLE_IT(&hdma_lpuart1_rx, DMA_IT_HT);
 415              		.loc 1 154 3
 416 006a 324B     		ldr	r3, .L23+28
 417 006c 1B68     		ldr	r3, [r3]
 418 006e 1A68     		ldr	r2, [r3]
 419 0070 304B     		ldr	r3, .L23+28
 420 0072 1B68     		ldr	r3, [r3]
 421 0074 22F00402 		bic	r2, r2, #4
 422 0078 1A60     		str	r2, [r3]
 155:Core/Src/main.c ****   memset(&RxBuf[0], 0, sizeof(RxBuf));
 423              		.loc 1 155 3
 424 007a 1422     		movs	r2, #20
 425 007c 0021     		movs	r1, #0
 426 007e 2B48     		ldr	r0, .L23+20
 427 0080 FFF7FEFF 		bl	memset
 156:Core/Src/main.c ****   reset_args();
 428              		.loc 1 156 3
 429 0084 FFF7FEFF 		bl	reset_args
 157:Core/Src/main.c ****   int steps = 0;
 430              		.loc 1 157 7
 431 0088 0023     		movs	r3, #0
 432 008a 7B60     		str	r3, [r7, #4]
 158:Core/Src/main.c ****   /* USER CODE END 2 */
 159:Core/Src/main.c ****   HAL_Delay(1000);
 433              		.loc 1 159 3
 434 008c 4FF47A70 		mov	r0, #1000
 435 0090 FFF7FEFF 		bl	HAL_Delay
 436              	.L22:
 160:Core/Src/main.c ****   /* Infinite loop */
 161:Core/Src/main.c ****   /* USER CODE BEGIN WHILE */
 162:Core/Src/main.c ****   while (1)
 163:Core/Src/main.c ****   {
 164:Core/Src/main.c ****     if (RxBuf[0] != 0 && isRunning == false)
 437              		.loc 1 164 14
 438 0094 254B     		ldr	r3, .L23+20
 439 0096 1B78     		ldrb	r3, [r3]	@ zero_extendqisi2
 440              		.loc 1 164 8
 441 0098 002B     		cmp	r3, #0
 442 009a 0ED0     		beq	.L18
 443              		.loc 1 164 36 discriminator 1
 444 009c 264B     		ldr	r3, .L23+32
 445 009e 1B78     		ldrb	r3, [r3]	@ zero_extendqisi2
 446 00a0 83F00103 		eor	r3, r3, #1
 447 00a4 DBB2     		uxtb	r3, r3
 448              		.loc 1 164 23 discriminator 1
 449 00a6 002B     		cmp	r3, #0
 450 00a8 07D0     		beq	.L18
ARM GAS  C:\Users\Morroway\AppData\Local\Temp\ccHeORmJ.s 			page 12


 165:Core/Src/main.c ****     {
 166:Core/Src/main.c ****       get_command(RxBuf);
 451              		.loc 1 166 7
 452 00aa 2048     		ldr	r0, .L23+20
 453 00ac FFF7FEFF 		bl	get_command
 167:Core/Src/main.c ****       memset(&RxBuf[0], 0, sizeof(RxBuf));
 454              		.loc 1 167 7
 455 00b0 1422     		movs	r2, #20
 456 00b2 0021     		movs	r1, #0
 457 00b4 1D48     		ldr	r0, .L23+20
 458 00b6 FFF7FEFF 		bl	memset
 459              	.L18:
 168:Core/Src/main.c ****     }
 169:Core/Src/main.c **** 
 170:Core/Src/main.c ****     if (HAL_GetTick() - last_time > interval && interval > 0)
 460              		.loc 1 170 9
 461 00ba FFF7FEFF 		bl	HAL_GetTick
 462 00be 0246     		mov	r2, r0
 463              		.loc 1 170 23
 464 00c0 1E4B     		ldr	r3, .L23+36
 465 00c2 1B68     		ldr	r3, [r3]
 466 00c4 D31A     		subs	r3, r2, r3
 467              		.loc 1 170 35
 468 00c6 1E4A     		ldr	r2, .L23+40
 469 00c8 1288     		ldrh	r2, [r2]
 470              		.loc 1 170 8
 471 00ca 9342     		cmp	r3, r2
 472 00cc 0CD9     		bls	.L19
 473              		.loc 1 170 58 discriminator 1
 474 00ce 1C4B     		ldr	r3, .L23+40
 475 00d0 1B88     		ldrh	r3, [r3]
 476              		.loc 1 170 46 discriminator 1
 477 00d2 002B     		cmp	r3, #0
 478 00d4 08D0     		beq	.L19
 171:Core/Src/main.c ****     {
 172:Core/Src/main.c ****       M105(0, 0);
 479              		.loc 1 172 7
 480 00d6 0021     		movs	r1, #0
 481 00d8 0020     		movs	r0, #0
 482 00da FFF7FEFF 		bl	M105
 173:Core/Src/main.c ****       last_time = HAL_GetTick();
 483              		.loc 1 173 19
 484 00de FFF7FEFF 		bl	HAL_GetTick
 485 00e2 0346     		mov	r3, r0
 486              		.loc 1 173 17
 487 00e4 154A     		ldr	r2, .L23+36
 488 00e6 1360     		str	r3, [r2]
 489              	.L19:
 174:Core/Src/main.c ****     }
 175:Core/Src/main.c ****     if (READ_PIN(X_STOP_PIN) == 1)
 490              		.loc 1 175 9
 491 00e8 1021     		movs	r1, #16
 492 00ea 1648     		ldr	r0, .L23+44
 493 00ec FFF7FEFF 		bl	HAL_GPIO_ReadPin
 494 00f0 0346     		mov	r3, r0
 495              		.loc 1 175 8
 496 00f2 012B     		cmp	r3, #1
ARM GAS  C:\Users\Morroway\AppData\Local\Temp\ccHeORmJ.s 			page 13


 497 00f4 05D1     		bne	.L20
 176:Core/Src/main.c ****     {
 177:Core/Src/main.c ****       HAL_GPIO_WritePin(GPIOB, GPIO_PIN_7, 1);
 498              		.loc 1 177 7
 499 00f6 0122     		movs	r2, #1
 500 00f8 8021     		movs	r1, #128
 501 00fa 1348     		ldr	r0, .L23+48
 502 00fc FFF7FEFF 		bl	HAL_GPIO_WritePin
 503 0100 04E0     		b	.L21
 504              	.L20:
 178:Core/Src/main.c ****     }
 179:Core/Src/main.c ****     else
 180:Core/Src/main.c ****     {
 181:Core/Src/main.c ****       HAL_GPIO_WritePin(GPIOB, GPIO_PIN_7, 0);
 505              		.loc 1 181 7
 506 0102 0022     		movs	r2, #0
 507 0104 8021     		movs	r1, #128
 508 0106 1048     		ldr	r0, .L23+48
 509 0108 FFF7FEFF 		bl	HAL_GPIO_WritePin
 510              	.L21:
 182:Core/Src/main.c ****     }
 183:Core/Src/main.c **** 
 184:Core/Src/main.c ****     G0();
 511              		.loc 1 184 5
 512 010c FFF7FEFF 		bl	G0
 185:Core/Src/main.c ****     M104();
 513              		.loc 1 185 5
 514 0110 FFF7FEFF 		bl	M104
 164:Core/Src/main.c ****     {
 515              		.loc 1 164 8
 516 0114 BEE7     		b	.L22
 517              	.L24:
 518 0116 00BF     		.align	2
 519              	.L23:
 520 0118 00000000 		.word	htim3
 521 011c 00000000 		.word	value
 522 0120 00000000 		.word	hadc1
 523 0124 00000000 		.word	htim4
 524 0128 00000000 		.word	htim5
 525 012c 00000000 		.word	RxBuf
 526 0130 00000000 		.word	hlpuart1
 527 0134 00000000 		.word	hdma_lpuart1_rx
 528 0138 00000000 		.word	isRunning
 529 013c 00000000 		.word	last_time
 530 0140 00000000 		.word	interval
 531 0144 00140048 		.word	1207964672
 532 0148 00040048 		.word	1207960576
 533              		.cfi_endproc
 534              	.LFE329:
 536              		.section	.text.SystemClock_Config,"ax",%progbits
 537              		.align	1
 538              		.global	SystemClock_Config
 539              		.syntax unified
 540              		.thumb
 541              		.thumb_func
 543              	SystemClock_Config:
 544              	.LFB330:
ARM GAS  C:\Users\Morroway\AppData\Local\Temp\ccHeORmJ.s 			page 14


 186:Core/Src/main.c ****     // if (steps <= 6500)
 187:Core/Src/main.c ****     // {
 188:Core/Src/main.c ****     //   MAKE_MOTOR_STEP(X_AXIS_STEP);
 189:Core/Src/main.c ****     //   DelayMicrosecond(600);
 190:Core/Src/main.c ****     //   steps++;
 191:Core/Src/main.c ****     // }
 192:Core/Src/main.c **** 
 193:Core/Src/main.c ****     /* USER CODE END WHILE */
 194:Core/Src/main.c **** 
 195:Core/Src/main.c ****     /* USER CODE BEGIN 3 */
 196:Core/Src/main.c ****   }
 197:Core/Src/main.c ****   /* USER CODE END 3 */
 198:Core/Src/main.c **** }
 199:Core/Src/main.c **** 
 200:Core/Src/main.c **** /**
 201:Core/Src/main.c ****  * @brief System Clock Configuration
 202:Core/Src/main.c ****  * @retval None
 203:Core/Src/main.c ****  */
 204:Core/Src/main.c **** void SystemClock_Config(void)
 205:Core/Src/main.c **** {
 545              		.loc 1 205 1
 546              		.cfi_startproc
 547              		@ args = 0, pretend = 0, frame = 96
 548              		@ frame_needed = 1, uses_anonymous_args = 0
 549 0000 80B5     		push	{r7, lr}
 550              		.cfi_def_cfa_offset 8
 551              		.cfi_offset 7, -8
 552              		.cfi_offset 14, -4
 553 0002 98B0     		sub	sp, sp, #96
 554              		.cfi_def_cfa_offset 104
 555 0004 00AF     		add	r7, sp, #0
 556              		.cfi_def_cfa_register 7
 206:Core/Src/main.c ****   RCC_OscInitTypeDef RCC_OscInitStruct = {0};
 557              		.loc 1 206 22
 558 0006 07F11803 		add	r3, r7, #24
 559 000a 4822     		movs	r2, #72
 560 000c 0021     		movs	r1, #0
 561 000e 1846     		mov	r0, r3
 562 0010 FFF7FEFF 		bl	memset
 207:Core/Src/main.c ****   RCC_ClkInitTypeDef RCC_ClkInitStruct = {0};
 563              		.loc 1 207 22
 564 0014 3B1D     		adds	r3, r7, #4
 565 0016 0022     		movs	r2, #0
 566 0018 1A60     		str	r2, [r3]
 567 001a 5A60     		str	r2, [r3, #4]
 568 001c 9A60     		str	r2, [r3, #8]
 569 001e DA60     		str	r2, [r3, #12]
 570 0020 1A61     		str	r2, [r3, #16]
 208:Core/Src/main.c **** 
 209:Core/Src/main.c ****   /** Configure the main internal regulator output voltage
 210:Core/Src/main.c ****    */
 211:Core/Src/main.c ****   if (HAL_PWREx_ControlVoltageScaling(PWR_REGULATOR_VOLTAGE_SCALE1_BOOST) != HAL_OK)
 571              		.loc 1 211 7
 572 0022 0020     		movs	r0, #0
 573 0024 FFF7FEFF 		bl	HAL_PWREx_ControlVoltageScaling
 574 0028 0346     		mov	r3, r0
 575              		.loc 1 211 6
ARM GAS  C:\Users\Morroway\AppData\Local\Temp\ccHeORmJ.s 			page 15


 576 002a 002B     		cmp	r3, #0
 577 002c 01D0     		beq	.L26
 212:Core/Src/main.c ****   {
 213:Core/Src/main.c ****     Error_Handler();
 578              		.loc 1 213 5
 579 002e FFF7FEFF 		bl	Error_Handler
 580              	.L26:
 214:Core/Src/main.c ****   }
 215:Core/Src/main.c **** 
 216:Core/Src/main.c ****   /** Initializes the RCC Oscillators according to the specified parameters
 217:Core/Src/main.c ****    * in the RCC_OscInitTypeDef structure.
 218:Core/Src/main.c ****    */
 219:Core/Src/main.c ****   RCC_OscInitStruct.OscillatorType = RCC_OSCILLATORTYPE_HSI48 | RCC_OSCILLATORTYPE_MSI;
 581              		.loc 1 219 36
 582 0032 3023     		movs	r3, #48
 583 0034 BB61     		str	r3, [r7, #24]
 220:Core/Src/main.c ****   RCC_OscInitStruct.HSI48State = RCC_HSI48_ON;
 584              		.loc 1 220 32
 585 0036 0123     		movs	r3, #1
 586 0038 3B64     		str	r3, [r7, #64]
 221:Core/Src/main.c ****   RCC_OscInitStruct.MSIState = RCC_MSI_ON;
 587              		.loc 1 221 30
 588 003a 0123     		movs	r3, #1
 589 003c 7B63     		str	r3, [r7, #52]
 222:Core/Src/main.c ****   RCC_OscInitStruct.MSICalibrationValue = 0;
 590              		.loc 1 222 41
 591 003e 0023     		movs	r3, #0
 592 0040 BB63     		str	r3, [r7, #56]
 223:Core/Src/main.c ****   RCC_OscInitStruct.MSIClockRange = RCC_MSIRANGE_6;
 593              		.loc 1 223 35
 594 0042 6023     		movs	r3, #96
 595 0044 FB63     		str	r3, [r7, #60]
 224:Core/Src/main.c ****   RCC_OscInitStruct.PLL.PLLState = RCC_PLL_ON;
 596              		.loc 1 224 34
 597 0046 0223     		movs	r3, #2
 598 0048 7B64     		str	r3, [r7, #68]
 225:Core/Src/main.c ****   RCC_OscInitStruct.PLL.PLLSource = RCC_PLLSOURCE_MSI;
 599              		.loc 1 225 35
 600 004a 0123     		movs	r3, #1
 601 004c BB64     		str	r3, [r7, #72]
 226:Core/Src/main.c ****   RCC_OscInitStruct.PLL.PLLM = 1;
 602              		.loc 1 226 30
 603 004e 0123     		movs	r3, #1
 604 0050 FB64     		str	r3, [r7, #76]
 227:Core/Src/main.c ****   RCC_OscInitStruct.PLL.PLLN = 60;
 605              		.loc 1 227 30
 606 0052 3C23     		movs	r3, #60
 607 0054 3B65     		str	r3, [r7, #80]
 228:Core/Src/main.c ****   RCC_OscInitStruct.PLL.PLLP = RCC_PLLP_DIV2;
 608              		.loc 1 228 30
 609 0056 0223     		movs	r3, #2
 610 0058 7B65     		str	r3, [r7, #84]
 229:Core/Src/main.c ****   RCC_OscInitStruct.PLL.PLLQ = RCC_PLLQ_DIV2;
 611              		.loc 1 229 30
 612 005a 0223     		movs	r3, #2
 613 005c BB65     		str	r3, [r7, #88]
 230:Core/Src/main.c ****   RCC_OscInitStruct.PLL.PLLR = RCC_PLLR_DIV2;
ARM GAS  C:\Users\Morroway\AppData\Local\Temp\ccHeORmJ.s 			page 16


 614              		.loc 1 230 30
 615 005e 0223     		movs	r3, #2
 616 0060 FB65     		str	r3, [r7, #92]
 231:Core/Src/main.c ****   if (HAL_RCC_OscConfig(&RCC_OscInitStruct) != HAL_OK)
 617              		.loc 1 231 7
 618 0062 07F11803 		add	r3, r7, #24
 619 0066 1846     		mov	r0, r3
 620 0068 FFF7FEFF 		bl	HAL_RCC_OscConfig
 621 006c 0346     		mov	r3, r0
 622              		.loc 1 231 6
 623 006e 002B     		cmp	r3, #0
 624 0070 01D0     		beq	.L27
 232:Core/Src/main.c ****   {
 233:Core/Src/main.c ****     Error_Handler();
 625              		.loc 1 233 5
 626 0072 FFF7FEFF 		bl	Error_Handler
 627              	.L27:
 234:Core/Src/main.c ****   }
 235:Core/Src/main.c **** 
 236:Core/Src/main.c ****   /** Initializes the CPU, AHB and APB buses clocks
 237:Core/Src/main.c ****    */
 238:Core/Src/main.c ****   RCC_ClkInitStruct.ClockType = RCC_CLOCKTYPE_HCLK | RCC_CLOCKTYPE_SYSCLK | RCC_CLOCKTYPE_PCLK1 | R
 628              		.loc 1 238 31
 629 0076 0F23     		movs	r3, #15
 630 0078 7B60     		str	r3, [r7, #4]
 239:Core/Src/main.c ****   RCC_ClkInitStruct.SYSCLKSource = RCC_SYSCLKSOURCE_PLLCLK;
 631              		.loc 1 239 34
 632 007a 0323     		movs	r3, #3
 633 007c BB60     		str	r3, [r7, #8]
 240:Core/Src/main.c ****   RCC_ClkInitStruct.AHBCLKDivider = RCC_SYSCLK_DIV1;
 634              		.loc 1 240 35
 635 007e 0023     		movs	r3, #0
 636 0080 FB60     		str	r3, [r7, #12]
 241:Core/Src/main.c ****   RCC_ClkInitStruct.APB1CLKDivider = RCC_HCLK_DIV1;
 637              		.loc 1 241 36
 638 0082 0023     		movs	r3, #0
 639 0084 3B61     		str	r3, [r7, #16]
 242:Core/Src/main.c ****   RCC_ClkInitStruct.APB2CLKDivider = RCC_HCLK_DIV1;
 640              		.loc 1 242 36
 641 0086 0023     		movs	r3, #0
 642 0088 7B61     		str	r3, [r7, #20]
 243:Core/Src/main.c **** 
 244:Core/Src/main.c ****   if (HAL_RCC_ClockConfig(&RCC_ClkInitStruct, FLASH_LATENCY_5) != HAL_OK)
 643              		.loc 1 244 7
 644 008a 3B1D     		adds	r3, r7, #4
 645 008c 0521     		movs	r1, #5
 646 008e 1846     		mov	r0, r3
 647 0090 FFF7FEFF 		bl	HAL_RCC_ClockConfig
 648 0094 0346     		mov	r3, r0
 649              		.loc 1 244 6
 650 0096 002B     		cmp	r3, #0
 651 0098 01D0     		beq	.L29
 245:Core/Src/main.c ****   {
 246:Core/Src/main.c ****     Error_Handler();
 652              		.loc 1 246 5
 653 009a FFF7FEFF 		bl	Error_Handler
 654              	.L29:
ARM GAS  C:\Users\Morroway\AppData\Local\Temp\ccHeORmJ.s 			page 17


 247:Core/Src/main.c ****   }
 248:Core/Src/main.c **** }
 655              		.loc 1 248 1
 656 009e 00BF     		nop
 657 00a0 6037     		adds	r7, r7, #96
 658              		.cfi_def_cfa_offset 8
 659 00a2 BD46     		mov	sp, r7
 660              		.cfi_def_cfa_register 13
 661              		@ sp needed
 662 00a4 80BD     		pop	{r7, pc}
 663              		.cfi_endproc
 664              	.LFE330:
 666              		.section	.text.MX_ADC1_Init,"ax",%progbits
 667              		.align	1
 668              		.syntax unified
 669              		.thumb
 670              		.thumb_func
 672              	MX_ADC1_Init:
 673              	.LFB331:
 249:Core/Src/main.c **** 
 250:Core/Src/main.c **** /**
 251:Core/Src/main.c ****  * @brief ADC1 Initialization Function
 252:Core/Src/main.c ****  * @param None
 253:Core/Src/main.c ****  * @retval None
 254:Core/Src/main.c ****  */
 255:Core/Src/main.c **** static void MX_ADC1_Init(void)
 256:Core/Src/main.c **** {
 674              		.loc 1 256 1
 675              		.cfi_startproc
 676              		@ args = 0, pretend = 0, frame = 40
 677              		@ frame_needed = 1, uses_anonymous_args = 0
 678 0000 80B5     		push	{r7, lr}
 679              		.cfi_def_cfa_offset 8
 680              		.cfi_offset 7, -8
 681              		.cfi_offset 14, -4
 682 0002 8AB0     		sub	sp, sp, #40
 683              		.cfi_def_cfa_offset 48
 684 0004 00AF     		add	r7, sp, #0
 685              		.cfi_def_cfa_register 7
 257:Core/Src/main.c **** 
 258:Core/Src/main.c ****   /* USER CODE BEGIN ADC1_Init 0 */
 259:Core/Src/main.c **** 
 260:Core/Src/main.c ****   /* USER CODE END ADC1_Init 0 */
 261:Core/Src/main.c **** 
 262:Core/Src/main.c ****   ADC_MultiModeTypeDef multimode = {0};
 686              		.loc 1 262 24
 687 0006 07F11C03 		add	r3, r7, #28
 688 000a 0022     		movs	r2, #0
 689 000c 1A60     		str	r2, [r3]
 690 000e 5A60     		str	r2, [r3, #4]
 691 0010 9A60     		str	r2, [r3, #8]
 263:Core/Src/main.c ****   ADC_ChannelConfTypeDef sConfig = {0};
 692              		.loc 1 263 26
 693 0012 3B1D     		adds	r3, r7, #4
 694 0014 0022     		movs	r2, #0
 695 0016 1A60     		str	r2, [r3]
 696 0018 5A60     		str	r2, [r3, #4]
ARM GAS  C:\Users\Morroway\AppData\Local\Temp\ccHeORmJ.s 			page 18


 697 001a 9A60     		str	r2, [r3, #8]
 698 001c DA60     		str	r2, [r3, #12]
 699 001e 1A61     		str	r2, [r3, #16]
 700 0020 5A61     		str	r2, [r3, #20]
 264:Core/Src/main.c **** 
 265:Core/Src/main.c ****   /* USER CODE BEGIN ADC1_Init 1 */
 266:Core/Src/main.c **** 
 267:Core/Src/main.c ****   /* USER CODE END ADC1_Init 1 */
 268:Core/Src/main.c **** 
 269:Core/Src/main.c ****   /** Common config
 270:Core/Src/main.c ****    */
 271:Core/Src/main.c ****   hadc1.Instance = ADC1;
 701              		.loc 1 271 18
 702 0022 434B     		ldr	r3, .L37
 703 0024 434A     		ldr	r2, .L37+4
 704 0026 1A60     		str	r2, [r3]
 272:Core/Src/main.c ****   hadc1.Init.ClockPrescaler = ADC_CLOCK_ASYNC_DIV1;
 705              		.loc 1 272 29
 706 0028 414B     		ldr	r3, .L37
 707 002a 0022     		movs	r2, #0
 708 002c 5A60     		str	r2, [r3, #4]
 273:Core/Src/main.c ****   hadc1.Init.Resolution = ADC_RESOLUTION_12B;
 709              		.loc 1 273 25
 710 002e 404B     		ldr	r3, .L37
 711 0030 0022     		movs	r2, #0
 712 0032 9A60     		str	r2, [r3, #8]
 274:Core/Src/main.c ****   hadc1.Init.DataAlign = ADC_DATAALIGN_RIGHT;
 713              		.loc 1 274 24
 714 0034 3E4B     		ldr	r3, .L37
 715 0036 0022     		movs	r2, #0
 716 0038 DA60     		str	r2, [r3, #12]
 275:Core/Src/main.c ****   hadc1.Init.ScanConvMode = ADC_SCAN_ENABLE;
 717              		.loc 1 275 27
 718 003a 3D4B     		ldr	r3, .L37
 719 003c 0122     		movs	r2, #1
 720 003e 1A61     		str	r2, [r3, #16]
 276:Core/Src/main.c ****   hadc1.Init.EOCSelection = ADC_EOC_SINGLE_CONV;
 721              		.loc 1 276 27
 722 0040 3B4B     		ldr	r3, .L37
 723 0042 0422     		movs	r2, #4
 724 0044 5A61     		str	r2, [r3, #20]
 277:Core/Src/main.c ****   hadc1.Init.LowPowerAutoWait = DISABLE;
 725              		.loc 1 277 31
 726 0046 3A4B     		ldr	r3, .L37
 727 0048 0022     		movs	r2, #0
 728 004a 1A76     		strb	r2, [r3, #24]
 278:Core/Src/main.c ****   hadc1.Init.ContinuousConvMode = ENABLE;
 729              		.loc 1 278 33
 730 004c 384B     		ldr	r3, .L37
 731 004e 0122     		movs	r2, #1
 732 0050 5A76     		strb	r2, [r3, #25]
 279:Core/Src/main.c ****   hadc1.Init.NbrOfConversion = 3;
 733              		.loc 1 279 30
 734 0052 374B     		ldr	r3, .L37
 735 0054 0322     		movs	r2, #3
 736 0056 DA61     		str	r2, [r3, #28]
 280:Core/Src/main.c ****   hadc1.Init.DiscontinuousConvMode = DISABLE;
ARM GAS  C:\Users\Morroway\AppData\Local\Temp\ccHeORmJ.s 			page 19


 737              		.loc 1 280 36
 738 0058 354B     		ldr	r3, .L37
 739 005a 0022     		movs	r2, #0
 740 005c 83F82020 		strb	r2, [r3, #32]
 281:Core/Src/main.c ****   hadc1.Init.ExternalTrigConv = ADC_SOFTWARE_START;
 741              		.loc 1 281 31
 742 0060 334B     		ldr	r3, .L37
 743 0062 0022     		movs	r2, #0
 744 0064 9A62     		str	r2, [r3, #40]
 282:Core/Src/main.c ****   hadc1.Init.ExternalTrigConvEdge = ADC_EXTERNALTRIGCONVEDGE_NONE;
 745              		.loc 1 282 35
 746 0066 324B     		ldr	r3, .L37
 747 0068 0022     		movs	r2, #0
 748 006a DA62     		str	r2, [r3, #44]
 283:Core/Src/main.c ****   hadc1.Init.DMAContinuousRequests = ENABLE;
 749              		.loc 1 283 36
 750 006c 304B     		ldr	r3, .L37
 751 006e 0122     		movs	r2, #1
 752 0070 83F83020 		strb	r2, [r3, #48]
 284:Core/Src/main.c ****   hadc1.Init.Overrun = ADC_OVR_DATA_PRESERVED;
 753              		.loc 1 284 22
 754 0074 2E4B     		ldr	r3, .L37
 755 0076 0022     		movs	r2, #0
 756 0078 5A63     		str	r2, [r3, #52]
 285:Core/Src/main.c ****   hadc1.Init.OversamplingMode = ENABLE;
 757              		.loc 1 285 31
 758 007a 2D4B     		ldr	r3, .L37
 759 007c 0122     		movs	r2, #1
 760 007e 83F83820 		strb	r2, [r3, #56]
 286:Core/Src/main.c ****   hadc1.Init.Oversampling.Ratio = ADC_OVERSAMPLING_RATIO_16;
 761              		.loc 1 286 33
 762 0082 2B4B     		ldr	r3, .L37
 763 0084 0C22     		movs	r2, #12
 764 0086 DA63     		str	r2, [r3, #60]
 287:Core/Src/main.c ****   hadc1.Init.Oversampling.RightBitShift = ADC_RIGHTBITSHIFT_NONE;
 765              		.loc 1 287 41
 766 0088 294B     		ldr	r3, .L37
 767 008a 0022     		movs	r2, #0
 768 008c 1A64     		str	r2, [r3, #64]
 288:Core/Src/main.c ****   hadc1.Init.Oversampling.TriggeredMode = ADC_TRIGGEREDMODE_SINGLE_TRIGGER;
 769              		.loc 1 288 41
 770 008e 284B     		ldr	r3, .L37
 771 0090 0022     		movs	r2, #0
 772 0092 5A64     		str	r2, [r3, #68]
 289:Core/Src/main.c ****   hadc1.Init.Oversampling.OversamplingStopReset = ADC_REGOVERSAMPLING_CONTINUED_MODE;
 773              		.loc 1 289 49
 774 0094 264B     		ldr	r3, .L37
 775 0096 0122     		movs	r2, #1
 776 0098 9A64     		str	r2, [r3, #72]
 290:Core/Src/main.c ****   if (HAL_ADC_Init(&hadc1) != HAL_OK)
 777              		.loc 1 290 7
 778 009a 2548     		ldr	r0, .L37
 779 009c FFF7FEFF 		bl	HAL_ADC_Init
 780 00a0 0346     		mov	r3, r0
 781              		.loc 1 290 6
 782 00a2 002B     		cmp	r3, #0
 783 00a4 01D0     		beq	.L31
ARM GAS  C:\Users\Morroway\AppData\Local\Temp\ccHeORmJ.s 			page 20


 291:Core/Src/main.c ****   {
 292:Core/Src/main.c ****     Error_Handler();
 784              		.loc 1 292 5
 785 00a6 FFF7FEFF 		bl	Error_Handler
 786              	.L31:
 293:Core/Src/main.c ****   }
 294:Core/Src/main.c **** 
 295:Core/Src/main.c ****   /** Configure the ADC multi-mode
 296:Core/Src/main.c ****    */
 297:Core/Src/main.c ****   multimode.Mode = ADC_MODE_INDEPENDENT;
 787              		.loc 1 297 18
 788 00aa 0023     		movs	r3, #0
 789 00ac FB61     		str	r3, [r7, #28]
 298:Core/Src/main.c ****   if (HAL_ADCEx_MultiModeConfigChannel(&hadc1, &multimode) != HAL_OK)
 790              		.loc 1 298 7
 791 00ae 07F11C03 		add	r3, r7, #28
 792 00b2 1946     		mov	r1, r3
 793 00b4 1E48     		ldr	r0, .L37
 794 00b6 FFF7FEFF 		bl	HAL_ADCEx_MultiModeConfigChannel
 795 00ba 0346     		mov	r3, r0
 796              		.loc 1 298 6
 797 00bc 002B     		cmp	r3, #0
 798 00be 01D0     		beq	.L32
 299:Core/Src/main.c ****   {
 300:Core/Src/main.c ****     Error_Handler();
 799              		.loc 1 300 5
 800 00c0 FFF7FEFF 		bl	Error_Handler
 801              	.L32:
 301:Core/Src/main.c ****   }
 302:Core/Src/main.c **** 
 303:Core/Src/main.c ****   /** Configure Regular Channel
 304:Core/Src/main.c ****    */
 305:Core/Src/main.c ****   sConfig.Channel = ADC_CHANNEL_1;
 802              		.loc 1 305 19
 803 00c4 1C4B     		ldr	r3, .L37+8
 804 00c6 7B60     		str	r3, [r7, #4]
 306:Core/Src/main.c ****   sConfig.Rank = ADC_REGULAR_RANK_1;
 805              		.loc 1 306 16
 806 00c8 0623     		movs	r3, #6
 807 00ca BB60     		str	r3, [r7, #8]
 307:Core/Src/main.c ****   sConfig.SamplingTime = ADC_SAMPLETIME_247CYCLES_5;
 808              		.loc 1 307 24
 809 00cc 0623     		movs	r3, #6
 810 00ce FB60     		str	r3, [r7, #12]
 308:Core/Src/main.c ****   sConfig.SingleDiff = ADC_SINGLE_ENDED;
 811              		.loc 1 308 22
 812 00d0 7F23     		movs	r3, #127
 813 00d2 3B61     		str	r3, [r7, #16]
 309:Core/Src/main.c ****   sConfig.OffsetNumber = ADC_OFFSET_NONE;
 814              		.loc 1 309 24
 815 00d4 0423     		movs	r3, #4
 816 00d6 7B61     		str	r3, [r7, #20]
 310:Core/Src/main.c ****   sConfig.Offset = 0;
 817              		.loc 1 310 18
 818 00d8 0023     		movs	r3, #0
 819 00da BB61     		str	r3, [r7, #24]
 311:Core/Src/main.c ****   if (HAL_ADC_ConfigChannel(&hadc1, &sConfig) != HAL_OK)
ARM GAS  C:\Users\Morroway\AppData\Local\Temp\ccHeORmJ.s 			page 21


 820              		.loc 1 311 7
 821 00dc 3B1D     		adds	r3, r7, #4
 822 00de 1946     		mov	r1, r3
 823 00e0 1348     		ldr	r0, .L37
 824 00e2 FFF7FEFF 		bl	HAL_ADC_ConfigChannel
 825 00e6 0346     		mov	r3, r0
 826              		.loc 1 311 6
 827 00e8 002B     		cmp	r3, #0
 828 00ea 01D0     		beq	.L33
 312:Core/Src/main.c ****   {
 313:Core/Src/main.c ****     Error_Handler();
 829              		.loc 1 313 5
 830 00ec FFF7FEFF 		bl	Error_Handler
 831              	.L33:
 314:Core/Src/main.c ****   }
 315:Core/Src/main.c **** 
 316:Core/Src/main.c ****   /** Configure Regular Channel
 317:Core/Src/main.c ****    */
 318:Core/Src/main.c ****   sConfig.Channel = ADC_CHANNEL_2;
 832              		.loc 1 318 19
 833 00f0 124B     		ldr	r3, .L37+12
 834 00f2 7B60     		str	r3, [r7, #4]
 319:Core/Src/main.c ****   sConfig.Rank = ADC_REGULAR_RANK_2;
 835              		.loc 1 319 16
 836 00f4 0C23     		movs	r3, #12
 837 00f6 BB60     		str	r3, [r7, #8]
 320:Core/Src/main.c ****   if (HAL_ADC_ConfigChannel(&hadc1, &sConfig) != HAL_OK)
 838              		.loc 1 320 7
 839 00f8 3B1D     		adds	r3, r7, #4
 840 00fa 1946     		mov	r1, r3
 841 00fc 0C48     		ldr	r0, .L37
 842 00fe FFF7FEFF 		bl	HAL_ADC_ConfigChannel
 843 0102 0346     		mov	r3, r0
 844              		.loc 1 320 6
 845 0104 002B     		cmp	r3, #0
 846 0106 01D0     		beq	.L34
 321:Core/Src/main.c ****   {
 322:Core/Src/main.c ****     Error_Handler();
 847              		.loc 1 322 5
 848 0108 FFF7FEFF 		bl	Error_Handler
 849              	.L34:
 323:Core/Src/main.c ****   }
 324:Core/Src/main.c **** 
 325:Core/Src/main.c ****   /** Configure Regular Channel
 326:Core/Src/main.c ****    */
 327:Core/Src/main.c ****   sConfig.Channel = ADC_CHANNEL_TEMPSENSOR;
 850              		.loc 1 327 19
 851 010c 0C4B     		ldr	r3, .L37+16
 852 010e 7B60     		str	r3, [r7, #4]
 328:Core/Src/main.c ****   sConfig.Rank = ADC_REGULAR_RANK_3;
 853              		.loc 1 328 16
 854 0110 1223     		movs	r3, #18
 855 0112 BB60     		str	r3, [r7, #8]
 329:Core/Src/main.c ****   if (HAL_ADC_ConfigChannel(&hadc1, &sConfig) != HAL_OK)
 856              		.loc 1 329 7
 857 0114 3B1D     		adds	r3, r7, #4
 858 0116 1946     		mov	r1, r3
ARM GAS  C:\Users\Morroway\AppData\Local\Temp\ccHeORmJ.s 			page 22


 859 0118 0548     		ldr	r0, .L37
 860 011a FFF7FEFF 		bl	HAL_ADC_ConfigChannel
 861 011e 0346     		mov	r3, r0
 862              		.loc 1 329 6
 863 0120 002B     		cmp	r3, #0
 864 0122 01D0     		beq	.L36
 330:Core/Src/main.c ****   {
 331:Core/Src/main.c ****     Error_Handler();
 865              		.loc 1 331 5
 866 0124 FFF7FEFF 		bl	Error_Handler
 867              	.L36:
 332:Core/Src/main.c ****   }
 333:Core/Src/main.c ****   /* USER CODE BEGIN ADC1_Init 2 */
 334:Core/Src/main.c **** 
 335:Core/Src/main.c ****   /* USER CODE END ADC1_Init 2 */
 336:Core/Src/main.c **** }
 868              		.loc 1 336 1
 869 0128 00BF     		nop
 870 012a 2837     		adds	r7, r7, #40
 871              		.cfi_def_cfa_offset 8
 872 012c BD46     		mov	sp, r7
 873              		.cfi_def_cfa_register 13
 874              		@ sp needed
 875 012e 80BD     		pop	{r7, pc}
 876              	.L38:
 877              		.align	2
 878              	.L37:
 879 0130 00000000 		.word	hadc1
 880 0134 00000450 		.word	1342439424
 881 0138 02003004 		.word	70254594
 882 013c 04006008 		.word	140509188
 883 0140 000052C7 		.word	-950927360
 884              		.cfi_endproc
 885              	.LFE331:
 887              		.section	.text.MX_LPUART1_UART_Init,"ax",%progbits
 888              		.align	1
 889              		.syntax unified
 890              		.thumb
 891              		.thumb_func
 893              	MX_LPUART1_UART_Init:
 894              	.LFB332:
 337:Core/Src/main.c **** 
 338:Core/Src/main.c **** /**
 339:Core/Src/main.c ****  * @brief LPUART1 Initialization Function
 340:Core/Src/main.c ****  * @param None
 341:Core/Src/main.c ****  * @retval None
 342:Core/Src/main.c ****  */
 343:Core/Src/main.c **** static void MX_LPUART1_UART_Init(void)
 344:Core/Src/main.c **** {
 895              		.loc 1 344 1
 896              		.cfi_startproc
 897              		@ args = 0, pretend = 0, frame = 0
 898              		@ frame_needed = 1, uses_anonymous_args = 0
 899 0000 80B5     		push	{r7, lr}
 900              		.cfi_def_cfa_offset 8
 901              		.cfi_offset 7, -8
 902              		.cfi_offset 14, -4
ARM GAS  C:\Users\Morroway\AppData\Local\Temp\ccHeORmJ.s 			page 23


 903 0002 00AF     		add	r7, sp, #0
 904              		.cfi_def_cfa_register 7
 345:Core/Src/main.c **** 
 346:Core/Src/main.c ****   /* USER CODE BEGIN LPUART1_Init 0 */
 347:Core/Src/main.c **** 
 348:Core/Src/main.c ****   /* USER CODE END LPUART1_Init 0 */
 349:Core/Src/main.c **** 
 350:Core/Src/main.c ****   /* USER CODE BEGIN LPUART1_Init 1 */
 351:Core/Src/main.c **** 
 352:Core/Src/main.c ****   /* USER CODE END LPUART1_Init 1 */
 353:Core/Src/main.c ****   hlpuart1.Instance = LPUART1;
 905              		.loc 1 353 21
 906 0004 244B     		ldr	r3, .L45
 907 0006 254A     		ldr	r2, .L45+4
 908 0008 1A60     		str	r2, [r3]
 354:Core/Src/main.c ****   hlpuart1.Init.BaudRate = 115200;
 909              		.loc 1 354 26
 910 000a 234B     		ldr	r3, .L45
 911 000c 4FF4E132 		mov	r2, #115200
 912 0010 5A60     		str	r2, [r3, #4]
 355:Core/Src/main.c ****   hlpuart1.Init.WordLength = UART_WORDLENGTH_8B;
 913              		.loc 1 355 28
 914 0012 214B     		ldr	r3, .L45
 915 0014 0022     		movs	r2, #0
 916 0016 9A60     		str	r2, [r3, #8]
 356:Core/Src/main.c ****   hlpuart1.Init.StopBits = UART_STOPBITS_1;
 917              		.loc 1 356 26
 918 0018 1F4B     		ldr	r3, .L45
 919 001a 0022     		movs	r2, #0
 920 001c DA60     		str	r2, [r3, #12]
 357:Core/Src/main.c ****   hlpuart1.Init.Parity = UART_PARITY_NONE;
 921              		.loc 1 357 24
 922 001e 1E4B     		ldr	r3, .L45
 923 0020 0022     		movs	r2, #0
 924 0022 1A61     		str	r2, [r3, #16]
 358:Core/Src/main.c ****   hlpuart1.Init.Mode = UART_MODE_TX_RX;
 925              		.loc 1 358 22
 926 0024 1C4B     		ldr	r3, .L45
 927 0026 0C22     		movs	r2, #12
 928 0028 5A61     		str	r2, [r3, #20]
 359:Core/Src/main.c ****   hlpuart1.Init.HwFlowCtl = UART_HWCONTROL_NONE;
 929              		.loc 1 359 27
 930 002a 1B4B     		ldr	r3, .L45
 931 002c 0022     		movs	r2, #0
 932 002e 9A61     		str	r2, [r3, #24]
 360:Core/Src/main.c ****   hlpuart1.Init.OneBitSampling = UART_ONE_BIT_SAMPLE_DISABLE;
 933              		.loc 1 360 32
 934 0030 194B     		ldr	r3, .L45
 935 0032 0022     		movs	r2, #0
 936 0034 1A62     		str	r2, [r3, #32]
 361:Core/Src/main.c ****   hlpuart1.Init.ClockPrescaler = UART_PRESCALER_DIV1;
 937              		.loc 1 361 32
 938 0036 184B     		ldr	r3, .L45
 939 0038 0022     		movs	r2, #0
 940 003a 5A62     		str	r2, [r3, #36]
 362:Core/Src/main.c ****   hlpuart1.AdvancedInit.AdvFeatureInit = UART_ADVFEATURE_RXOVERRUNDISABLE_INIT;
 941              		.loc 1 362 40
ARM GAS  C:\Users\Morroway\AppData\Local\Temp\ccHeORmJ.s 			page 24


 942 003c 164B     		ldr	r3, .L45
 943 003e 1022     		movs	r2, #16
 944 0040 9A62     		str	r2, [r3, #40]
 363:Core/Src/main.c ****   hlpuart1.AdvancedInit.OverrunDisable = UART_ADVFEATURE_OVERRUN_DISABLE;
 945              		.loc 1 363 40
 946 0042 154B     		ldr	r3, .L45
 947 0044 4FF48052 		mov	r2, #4096
 948 0048 DA63     		str	r2, [r3, #60]
 364:Core/Src/main.c ****   hlpuart1.FifoMode = UART_FIFOMODE_DISABLE;
 949              		.loc 1 364 21
 950 004a 134B     		ldr	r3, .L45
 951 004c 0022     		movs	r2, #0
 952 004e 5A66     		str	r2, [r3, #100]
 365:Core/Src/main.c ****   if (HAL_UART_Init(&hlpuart1) != HAL_OK)
 953              		.loc 1 365 7
 954 0050 1148     		ldr	r0, .L45
 955 0052 FFF7FEFF 		bl	HAL_UART_Init
 956 0056 0346     		mov	r3, r0
 957              		.loc 1 365 6
 958 0058 002B     		cmp	r3, #0
 959 005a 01D0     		beq	.L40
 366:Core/Src/main.c ****   {
 367:Core/Src/main.c ****     Error_Handler();
 960              		.loc 1 367 5
 961 005c FFF7FEFF 		bl	Error_Handler
 962              	.L40:
 368:Core/Src/main.c ****   }
 369:Core/Src/main.c ****   if (HAL_UARTEx_SetTxFifoThreshold(&hlpuart1, UART_TXFIFO_THRESHOLD_1_8) != HAL_OK)
 963              		.loc 1 369 7
 964 0060 0021     		movs	r1, #0
 965 0062 0D48     		ldr	r0, .L45
 966 0064 FFF7FEFF 		bl	HAL_UARTEx_SetTxFifoThreshold
 967 0068 0346     		mov	r3, r0
 968              		.loc 1 369 6
 969 006a 002B     		cmp	r3, #0
 970 006c 01D0     		beq	.L41
 370:Core/Src/main.c ****   {
 371:Core/Src/main.c ****     Error_Handler();
 971              		.loc 1 371 5
 972 006e FFF7FEFF 		bl	Error_Handler
 973              	.L41:
 372:Core/Src/main.c ****   }
 373:Core/Src/main.c ****   if (HAL_UARTEx_SetRxFifoThreshold(&hlpuart1, UART_RXFIFO_THRESHOLD_1_8) != HAL_OK)
 974              		.loc 1 373 7
 975 0072 0021     		movs	r1, #0
 976 0074 0848     		ldr	r0, .L45
 977 0076 FFF7FEFF 		bl	HAL_UARTEx_SetRxFifoThreshold
 978 007a 0346     		mov	r3, r0
 979              		.loc 1 373 6
 980 007c 002B     		cmp	r3, #0
 981 007e 01D0     		beq	.L42
 374:Core/Src/main.c ****   {
 375:Core/Src/main.c ****     Error_Handler();
 982              		.loc 1 375 5
 983 0080 FFF7FEFF 		bl	Error_Handler
 984              	.L42:
 376:Core/Src/main.c ****   }
ARM GAS  C:\Users\Morroway\AppData\Local\Temp\ccHeORmJ.s 			page 25


 377:Core/Src/main.c ****   if (HAL_UARTEx_DisableFifoMode(&hlpuart1) != HAL_OK)
 985              		.loc 1 377 7
 986 0084 0448     		ldr	r0, .L45
 987 0086 FFF7FEFF 		bl	HAL_UARTEx_DisableFifoMode
 988 008a 0346     		mov	r3, r0
 989              		.loc 1 377 6
 990 008c 002B     		cmp	r3, #0
 991 008e 01D0     		beq	.L44
 378:Core/Src/main.c ****   {
 379:Core/Src/main.c ****     Error_Handler();
 992              		.loc 1 379 5
 993 0090 FFF7FEFF 		bl	Error_Handler
 994              	.L44:
 380:Core/Src/main.c ****   }
 381:Core/Src/main.c ****   /* USER CODE BEGIN LPUART1_Init 2 */
 382:Core/Src/main.c **** 
 383:Core/Src/main.c ****   /* USER CODE END LPUART1_Init 2 */
 384:Core/Src/main.c **** }
 995              		.loc 1 384 1
 996 0094 00BF     		nop
 997 0096 80BD     		pop	{r7, pc}
 998              	.L46:
 999              		.align	2
 1000              	.L45:
 1001 0098 00000000 		.word	hlpuart1
 1002 009c 00800040 		.word	1073774592
 1003              		.cfi_endproc
 1004              	.LFE332:
 1006              		.section	.text.MX_UART4_Init,"ax",%progbits
 1007              		.align	1
 1008              		.syntax unified
 1009              		.thumb
 1010              		.thumb_func
 1012              	MX_UART4_Init:
 1013              	.LFB333:
 385:Core/Src/main.c **** 
 386:Core/Src/main.c **** /**
 387:Core/Src/main.c ****  * @brief UART4 Initialization Function
 388:Core/Src/main.c ****  * @param None
 389:Core/Src/main.c ****  * @retval None
 390:Core/Src/main.c ****  */
 391:Core/Src/main.c **** static void MX_UART4_Init(void)
 392:Core/Src/main.c **** {
 1014              		.loc 1 392 1
 1015              		.cfi_startproc
 1016              		@ args = 0, pretend = 0, frame = 0
 1017              		@ frame_needed = 1, uses_anonymous_args = 0
 1018 0000 80B5     		push	{r7, lr}
 1019              		.cfi_def_cfa_offset 8
 1020              		.cfi_offset 7, -8
 1021              		.cfi_offset 14, -4
 1022 0002 00AF     		add	r7, sp, #0
 1023              		.cfi_def_cfa_register 7
 393:Core/Src/main.c **** 
 394:Core/Src/main.c ****   /* USER CODE BEGIN UART4_Init 0 */
 395:Core/Src/main.c **** 
 396:Core/Src/main.c ****   /* USER CODE END UART4_Init 0 */
ARM GAS  C:\Users\Morroway\AppData\Local\Temp\ccHeORmJ.s 			page 26


 397:Core/Src/main.c **** 
 398:Core/Src/main.c ****   /* USER CODE BEGIN UART4_Init 1 */
 399:Core/Src/main.c **** 
 400:Core/Src/main.c ****   /* USER CODE END UART4_Init 1 */
 401:Core/Src/main.c ****   huart4.Instance = UART4;
 1024              		.loc 1 401 19
 1025 0004 224B     		ldr	r3, .L53
 1026 0006 234A     		ldr	r2, .L53+4
 1027 0008 1A60     		str	r2, [r3]
 402:Core/Src/main.c ****   huart4.Init.BaudRate = 115200;
 1028              		.loc 1 402 24
 1029 000a 214B     		ldr	r3, .L53
 1030 000c 4FF4E132 		mov	r2, #115200
 1031 0010 5A60     		str	r2, [r3, #4]
 403:Core/Src/main.c ****   huart4.Init.WordLength = UART_WORDLENGTH_8B;
 1032              		.loc 1 403 26
 1033 0012 1F4B     		ldr	r3, .L53
 1034 0014 0022     		movs	r2, #0
 1035 0016 9A60     		str	r2, [r3, #8]
 404:Core/Src/main.c ****   huart4.Init.StopBits = UART_STOPBITS_1;
 1036              		.loc 1 404 24
 1037 0018 1D4B     		ldr	r3, .L53
 1038 001a 0022     		movs	r2, #0
 1039 001c DA60     		str	r2, [r3, #12]
 405:Core/Src/main.c ****   huart4.Init.Parity = UART_PARITY_NONE;
 1040              		.loc 1 405 22
 1041 001e 1C4B     		ldr	r3, .L53
 1042 0020 0022     		movs	r2, #0
 1043 0022 1A61     		str	r2, [r3, #16]
 406:Core/Src/main.c ****   huart4.Init.Mode = UART_MODE_TX_RX;
 1044              		.loc 1 406 20
 1045 0024 1A4B     		ldr	r3, .L53
 1046 0026 0C22     		movs	r2, #12
 1047 0028 5A61     		str	r2, [r3, #20]
 407:Core/Src/main.c ****   huart4.Init.HwFlowCtl = UART_HWCONTROL_NONE;
 1048              		.loc 1 407 25
 1049 002a 194B     		ldr	r3, .L53
 1050 002c 0022     		movs	r2, #0
 1051 002e 9A61     		str	r2, [r3, #24]
 408:Core/Src/main.c ****   huart4.Init.OverSampling = UART_OVERSAMPLING_16;
 1052              		.loc 1 408 28
 1053 0030 174B     		ldr	r3, .L53
 1054 0032 0022     		movs	r2, #0
 1055 0034 DA61     		str	r2, [r3, #28]
 409:Core/Src/main.c ****   huart4.Init.OneBitSampling = UART_ONE_BIT_SAMPLE_DISABLE;
 1056              		.loc 1 409 30
 1057 0036 164B     		ldr	r3, .L53
 1058 0038 0022     		movs	r2, #0
 1059 003a 1A62     		str	r2, [r3, #32]
 410:Core/Src/main.c ****   huart4.Init.ClockPrescaler = UART_PRESCALER_DIV1;
 1060              		.loc 1 410 30
 1061 003c 144B     		ldr	r3, .L53
 1062 003e 0022     		movs	r2, #0
 1063 0040 5A62     		str	r2, [r3, #36]
 411:Core/Src/main.c ****   huart4.AdvancedInit.AdvFeatureInit = UART_ADVFEATURE_NO_INIT;
 1064              		.loc 1 411 38
 1065 0042 134B     		ldr	r3, .L53
ARM GAS  C:\Users\Morroway\AppData\Local\Temp\ccHeORmJ.s 			page 27


 1066 0044 0022     		movs	r2, #0
 1067 0046 9A62     		str	r2, [r3, #40]
 412:Core/Src/main.c ****   if (HAL_UART_Init(&huart4) != HAL_OK)
 1068              		.loc 1 412 7
 1069 0048 1148     		ldr	r0, .L53
 1070 004a FFF7FEFF 		bl	HAL_UART_Init
 1071 004e 0346     		mov	r3, r0
 1072              		.loc 1 412 6
 1073 0050 002B     		cmp	r3, #0
 1074 0052 01D0     		beq	.L48
 413:Core/Src/main.c ****   {
 414:Core/Src/main.c ****     Error_Handler();
 1075              		.loc 1 414 5
 1076 0054 FFF7FEFF 		bl	Error_Handler
 1077              	.L48:
 415:Core/Src/main.c ****   }
 416:Core/Src/main.c ****   if (HAL_UARTEx_SetTxFifoThreshold(&huart4, UART_TXFIFO_THRESHOLD_1_8) != HAL_OK)
 1078              		.loc 1 416 7
 1079 0058 0021     		movs	r1, #0
 1080 005a 0D48     		ldr	r0, .L53
 1081 005c FFF7FEFF 		bl	HAL_UARTEx_SetTxFifoThreshold
 1082 0060 0346     		mov	r3, r0
 1083              		.loc 1 416 6
 1084 0062 002B     		cmp	r3, #0
 1085 0064 01D0     		beq	.L49
 417:Core/Src/main.c ****   {
 418:Core/Src/main.c ****     Error_Handler();
 1086              		.loc 1 418 5
 1087 0066 FFF7FEFF 		bl	Error_Handler
 1088              	.L49:
 419:Core/Src/main.c ****   }
 420:Core/Src/main.c ****   if (HAL_UARTEx_SetRxFifoThreshold(&huart4, UART_RXFIFO_THRESHOLD_1_8) != HAL_OK)
 1089              		.loc 1 420 7
 1090 006a 0021     		movs	r1, #0
 1091 006c 0848     		ldr	r0, .L53
 1092 006e FFF7FEFF 		bl	HAL_UARTEx_SetRxFifoThreshold
 1093 0072 0346     		mov	r3, r0
 1094              		.loc 1 420 6
 1095 0074 002B     		cmp	r3, #0
 1096 0076 01D0     		beq	.L50
 421:Core/Src/main.c ****   {
 422:Core/Src/main.c ****     Error_Handler();
 1097              		.loc 1 422 5
 1098 0078 FFF7FEFF 		bl	Error_Handler
 1099              	.L50:
 423:Core/Src/main.c ****   }
 424:Core/Src/main.c ****   if (HAL_UARTEx_DisableFifoMode(&huart4) != HAL_OK)
 1100              		.loc 1 424 7
 1101 007c 0448     		ldr	r0, .L53
 1102 007e FFF7FEFF 		bl	HAL_UARTEx_DisableFifoMode
 1103 0082 0346     		mov	r3, r0
 1104              		.loc 1 424 6
 1105 0084 002B     		cmp	r3, #0
 1106 0086 01D0     		beq	.L52
 425:Core/Src/main.c ****   {
 426:Core/Src/main.c ****     Error_Handler();
 1107              		.loc 1 426 5
ARM GAS  C:\Users\Morroway\AppData\Local\Temp\ccHeORmJ.s 			page 28


 1108 0088 FFF7FEFF 		bl	Error_Handler
 1109              	.L52:
 427:Core/Src/main.c ****   }
 428:Core/Src/main.c ****   /* USER CODE BEGIN UART4_Init 2 */
 429:Core/Src/main.c **** 
 430:Core/Src/main.c ****   /* USER CODE END UART4_Init 2 */
 431:Core/Src/main.c **** }
 1110              		.loc 1 431 1
 1111 008c 00BF     		nop
 1112 008e 80BD     		pop	{r7, pc}
 1113              	.L54:
 1114              		.align	2
 1115              	.L53:
 1116 0090 00000000 		.word	huart4
 1117 0094 004C0040 		.word	1073761280
 1118              		.cfi_endproc
 1119              	.LFE333:
 1121              		.section	.text.MX_TIM3_Init,"ax",%progbits
 1122              		.align	1
 1123              		.syntax unified
 1124              		.thumb
 1125              		.thumb_func
 1127              	MX_TIM3_Init:
 1128              	.LFB334:
 432:Core/Src/main.c **** 
 433:Core/Src/main.c **** /**
 434:Core/Src/main.c ****  * @brief TIM3 Initialization Function
 435:Core/Src/main.c ****  * @param None
 436:Core/Src/main.c ****  * @retval None
 437:Core/Src/main.c ****  */
 438:Core/Src/main.c **** static void MX_TIM3_Init(void)
 439:Core/Src/main.c **** {
 1129              		.loc 1 439 1
 1130              		.cfi_startproc
 1131              		@ args = 0, pretend = 0, frame = 56
 1132              		@ frame_needed = 1, uses_anonymous_args = 0
 1133 0000 80B5     		push	{r7, lr}
 1134              		.cfi_def_cfa_offset 8
 1135              		.cfi_offset 7, -8
 1136              		.cfi_offset 14, -4
 1137 0002 8EB0     		sub	sp, sp, #56
 1138              		.cfi_def_cfa_offset 64
 1139 0004 00AF     		add	r7, sp, #0
 1140              		.cfi_def_cfa_register 7
 440:Core/Src/main.c **** 
 441:Core/Src/main.c ****   /* USER CODE BEGIN TIM3_Init 0 */
 442:Core/Src/main.c **** 
 443:Core/Src/main.c ****   /* USER CODE END TIM3_Init 0 */
 444:Core/Src/main.c **** 
 445:Core/Src/main.c ****   TIM_ClockConfigTypeDef sClockSourceConfig = {0};
 1141              		.loc 1 445 26
 1142 0006 07F12803 		add	r3, r7, #40
 1143 000a 0022     		movs	r2, #0
 1144 000c 1A60     		str	r2, [r3]
 1145 000e 5A60     		str	r2, [r3, #4]
 1146 0010 9A60     		str	r2, [r3, #8]
 1147 0012 DA60     		str	r2, [r3, #12]
ARM GAS  C:\Users\Morroway\AppData\Local\Temp\ccHeORmJ.s 			page 29


 446:Core/Src/main.c ****   TIM_MasterConfigTypeDef sMasterConfig = {0};
 1148              		.loc 1 446 27
 1149 0014 07F11C03 		add	r3, r7, #28
 1150 0018 0022     		movs	r2, #0
 1151 001a 1A60     		str	r2, [r3]
 1152 001c 5A60     		str	r2, [r3, #4]
 1153 001e 9A60     		str	r2, [r3, #8]
 447:Core/Src/main.c ****   TIM_OC_InitTypeDef sConfigOC = {0};
 1154              		.loc 1 447 22
 1155 0020 3B46     		mov	r3, r7
 1156 0022 0022     		movs	r2, #0
 1157 0024 1A60     		str	r2, [r3]
 1158 0026 5A60     		str	r2, [r3, #4]
 1159 0028 9A60     		str	r2, [r3, #8]
 1160 002a DA60     		str	r2, [r3, #12]
 1161 002c 1A61     		str	r2, [r3, #16]
 1162 002e 5A61     		str	r2, [r3, #20]
 1163 0030 9A61     		str	r2, [r3, #24]
 448:Core/Src/main.c **** 
 449:Core/Src/main.c ****   /* USER CODE BEGIN TIM3_Init 1 */
 450:Core/Src/main.c **** 
 451:Core/Src/main.c ****   /* USER CODE END TIM3_Init 1 */
 452:Core/Src/main.c ****   htim3.Instance = TIM3;
 1164              		.loc 1 452 18
 1165 0032 374B     		ldr	r3, .L63
 1166 0034 374A     		ldr	r2, .L63+4
 1167 0036 1A60     		str	r2, [r3]
 453:Core/Src/main.c ****   htim3.Init.Prescaler = 119;
 1168              		.loc 1 453 24
 1169 0038 354B     		ldr	r3, .L63
 1170 003a 7722     		movs	r2, #119
 1171 003c 5A60     		str	r2, [r3, #4]
 454:Core/Src/main.c ****   htim3.Init.CounterMode = TIM_COUNTERMODE_UP;
 1172              		.loc 1 454 26
 1173 003e 344B     		ldr	r3, .L63
 1174 0040 0022     		movs	r2, #0
 1175 0042 9A60     		str	r2, [r3, #8]
 455:Core/Src/main.c ****   htim3.Init.Period = 255;
 1176              		.loc 1 455 21
 1177 0044 324B     		ldr	r3, .L63
 1178 0046 FF22     		movs	r2, #255
 1179 0048 DA60     		str	r2, [r3, #12]
 456:Core/Src/main.c ****   htim3.Init.ClockDivision = TIM_CLOCKDIVISION_DIV1;
 1180              		.loc 1 456 28
 1181 004a 314B     		ldr	r3, .L63
 1182 004c 0022     		movs	r2, #0
 1183 004e 1A61     		str	r2, [r3, #16]
 457:Core/Src/main.c ****   htim3.Init.AutoReloadPreload = TIM_AUTORELOAD_PRELOAD_ENABLE;
 1184              		.loc 1 457 32
 1185 0050 2F4B     		ldr	r3, .L63
 1186 0052 8022     		movs	r2, #128
 1187 0054 9A61     		str	r2, [r3, #24]
 458:Core/Src/main.c ****   if (HAL_TIM_Base_Init(&htim3) != HAL_OK)
 1188              		.loc 1 458 7
 1189 0056 2E48     		ldr	r0, .L63
 1190 0058 FFF7FEFF 		bl	HAL_TIM_Base_Init
 1191 005c 0346     		mov	r3, r0
ARM GAS  C:\Users\Morroway\AppData\Local\Temp\ccHeORmJ.s 			page 30


 1192              		.loc 1 458 6
 1193 005e 002B     		cmp	r3, #0
 1194 0060 01D0     		beq	.L56
 459:Core/Src/main.c ****   {
 460:Core/Src/main.c ****     Error_Handler();
 1195              		.loc 1 460 5
 1196 0062 FFF7FEFF 		bl	Error_Handler
 1197              	.L56:
 461:Core/Src/main.c ****   }
 462:Core/Src/main.c ****   sClockSourceConfig.ClockSource = TIM_CLOCKSOURCE_INTERNAL;
 1198              		.loc 1 462 34
 1199 0066 4FF48053 		mov	r3, #4096
 1200 006a BB62     		str	r3, [r7, #40]
 463:Core/Src/main.c ****   if (HAL_TIM_ConfigClockSource(&htim3, &sClockSourceConfig) != HAL_OK)
 1201              		.loc 1 463 7
 1202 006c 07F12803 		add	r3, r7, #40
 1203 0070 1946     		mov	r1, r3
 1204 0072 2748     		ldr	r0, .L63
 1205 0074 FFF7FEFF 		bl	HAL_TIM_ConfigClockSource
 1206 0078 0346     		mov	r3, r0
 1207              		.loc 1 463 6
 1208 007a 002B     		cmp	r3, #0
 1209 007c 01D0     		beq	.L57
 464:Core/Src/main.c ****   {
 465:Core/Src/main.c ****     Error_Handler();
 1210              		.loc 1 465 5
 1211 007e FFF7FEFF 		bl	Error_Handler
 1212              	.L57:
 466:Core/Src/main.c ****   }
 467:Core/Src/main.c ****   if (HAL_TIM_PWM_Init(&htim3) != HAL_OK)
 1213              		.loc 1 467 7
 1214 0082 2348     		ldr	r0, .L63
 1215 0084 FFF7FEFF 		bl	HAL_TIM_PWM_Init
 1216 0088 0346     		mov	r3, r0
 1217              		.loc 1 467 6
 1218 008a 002B     		cmp	r3, #0
 1219 008c 01D0     		beq	.L58
 468:Core/Src/main.c ****   {
 469:Core/Src/main.c ****     Error_Handler();
 1220              		.loc 1 469 5
 1221 008e FFF7FEFF 		bl	Error_Handler
 1222              	.L58:
 470:Core/Src/main.c ****   }
 471:Core/Src/main.c ****   sMasterConfig.MasterOutputTrigger = TIM_TRGO_RESET;
 1223              		.loc 1 471 37
 1224 0092 0023     		movs	r3, #0
 1225 0094 FB61     		str	r3, [r7, #28]
 472:Core/Src/main.c ****   sMasterConfig.MasterSlaveMode = TIM_MASTERSLAVEMODE_DISABLE;
 1226              		.loc 1 472 33
 1227 0096 0023     		movs	r3, #0
 1228 0098 7B62     		str	r3, [r7, #36]
 473:Core/Src/main.c ****   if (HAL_TIMEx_MasterConfigSynchronization(&htim3, &sMasterConfig) != HAL_OK)
 1229              		.loc 1 473 7
 1230 009a 07F11C03 		add	r3, r7, #28
 1231 009e 1946     		mov	r1, r3
 1232 00a0 1B48     		ldr	r0, .L63
 1233 00a2 FFF7FEFF 		bl	HAL_TIMEx_MasterConfigSynchronization
ARM GAS  C:\Users\Morroway\AppData\Local\Temp\ccHeORmJ.s 			page 31


 1234 00a6 0346     		mov	r3, r0
 1235              		.loc 1 473 6
 1236 00a8 002B     		cmp	r3, #0
 1237 00aa 01D0     		beq	.L59
 474:Core/Src/main.c ****   {
 475:Core/Src/main.c ****     Error_Handler();
 1238              		.loc 1 475 5
 1239 00ac FFF7FEFF 		bl	Error_Handler
 1240              	.L59:
 476:Core/Src/main.c ****   }
 477:Core/Src/main.c ****   sConfigOC.OCMode = TIM_OCMODE_PWM1;
 1241              		.loc 1 477 20
 1242 00b0 6023     		movs	r3, #96
 1243 00b2 3B60     		str	r3, [r7]
 478:Core/Src/main.c ****   sConfigOC.Pulse = 0;
 1244              		.loc 1 478 19
 1245 00b4 0023     		movs	r3, #0
 1246 00b6 7B60     		str	r3, [r7, #4]
 479:Core/Src/main.c ****   sConfigOC.OCPolarity = TIM_OCPOLARITY_HIGH;
 1247              		.loc 1 479 24
 1248 00b8 0023     		movs	r3, #0
 1249 00ba BB60     		str	r3, [r7, #8]
 480:Core/Src/main.c ****   sConfigOC.OCFastMode = TIM_OCFAST_DISABLE;
 1250              		.loc 1 480 24
 1251 00bc 0023     		movs	r3, #0
 1252 00be 3B61     		str	r3, [r7, #16]
 481:Core/Src/main.c ****   if (HAL_TIM_PWM_ConfigChannel(&htim3, &sConfigOC, TIM_CHANNEL_1) != HAL_OK)
 1253              		.loc 1 481 7
 1254 00c0 3B46     		mov	r3, r7
 1255 00c2 0022     		movs	r2, #0
 1256 00c4 1946     		mov	r1, r3
 1257 00c6 1248     		ldr	r0, .L63
 1258 00c8 FFF7FEFF 		bl	HAL_TIM_PWM_ConfigChannel
 1259 00cc 0346     		mov	r3, r0
 1260              		.loc 1 481 6
 1261 00ce 002B     		cmp	r3, #0
 1262 00d0 01D0     		beq	.L60
 482:Core/Src/main.c ****   {
 483:Core/Src/main.c ****     Error_Handler();
 1263              		.loc 1 483 5
 1264 00d2 FFF7FEFF 		bl	Error_Handler
 1265              	.L60:
 484:Core/Src/main.c ****   }
 485:Core/Src/main.c ****   if (HAL_TIM_PWM_ConfigChannel(&htim3, &sConfigOC, TIM_CHANNEL_2) != HAL_OK)
 1266              		.loc 1 485 7
 1267 00d6 3B46     		mov	r3, r7
 1268 00d8 0422     		movs	r2, #4
 1269 00da 1946     		mov	r1, r3
 1270 00dc 0C48     		ldr	r0, .L63
 1271 00de FFF7FEFF 		bl	HAL_TIM_PWM_ConfigChannel
 1272 00e2 0346     		mov	r3, r0
 1273              		.loc 1 485 6
 1274 00e4 002B     		cmp	r3, #0
 1275 00e6 01D0     		beq	.L61
 486:Core/Src/main.c ****   {
 487:Core/Src/main.c ****     Error_Handler();
 1276              		.loc 1 487 5
ARM GAS  C:\Users\Morroway\AppData\Local\Temp\ccHeORmJ.s 			page 32


 1277 00e8 FFF7FEFF 		bl	Error_Handler
 1278              	.L61:
 488:Core/Src/main.c ****   }
 489:Core/Src/main.c ****   if (HAL_TIM_PWM_ConfigChannel(&htim3, &sConfigOC, TIM_CHANNEL_3) != HAL_OK)
 1279              		.loc 1 489 7
 1280 00ec 3B46     		mov	r3, r7
 1281 00ee 0822     		movs	r2, #8
 1282 00f0 1946     		mov	r1, r3
 1283 00f2 0748     		ldr	r0, .L63
 1284 00f4 FFF7FEFF 		bl	HAL_TIM_PWM_ConfigChannel
 1285 00f8 0346     		mov	r3, r0
 1286              		.loc 1 489 6
 1287 00fa 002B     		cmp	r3, #0
 1288 00fc 01D0     		beq	.L62
 490:Core/Src/main.c ****   {
 491:Core/Src/main.c ****     Error_Handler();
 1289              		.loc 1 491 5
 1290 00fe FFF7FEFF 		bl	Error_Handler
 1291              	.L62:
 492:Core/Src/main.c ****   }
 493:Core/Src/main.c ****   /* USER CODE BEGIN TIM3_Init 2 */
 494:Core/Src/main.c **** 
 495:Core/Src/main.c ****   /* USER CODE END TIM3_Init 2 */
 496:Core/Src/main.c ****   HAL_TIM_MspPostInit(&htim3);
 1292              		.loc 1 496 3
 1293 0102 0348     		ldr	r0, .L63
 1294 0104 FFF7FEFF 		bl	HAL_TIM_MspPostInit
 497:Core/Src/main.c **** }
 1295              		.loc 1 497 1
 1296 0108 00BF     		nop
 1297 010a 3837     		adds	r7, r7, #56
 1298              		.cfi_def_cfa_offset 8
 1299 010c BD46     		mov	sp, r7
 1300              		.cfi_def_cfa_register 13
 1301              		@ sp needed
 1302 010e 80BD     		pop	{r7, pc}
 1303              	.L64:
 1304              		.align	2
 1305              	.L63:
 1306 0110 00000000 		.word	htim3
 1307 0114 00040040 		.word	1073742848
 1308              		.cfi_endproc
 1309              	.LFE334:
 1311              		.section	.text.MX_TIM4_Init,"ax",%progbits
 1312              		.align	1
 1313              		.syntax unified
 1314              		.thumb
 1315              		.thumb_func
 1317              	MX_TIM4_Init:
 1318              	.LFB335:
 498:Core/Src/main.c **** 
 499:Core/Src/main.c **** /**
 500:Core/Src/main.c ****  * @brief TIM4 Initialization Function
 501:Core/Src/main.c ****  * @param None
 502:Core/Src/main.c ****  * @retval None
 503:Core/Src/main.c ****  */
 504:Core/Src/main.c **** static void MX_TIM4_Init(void)
ARM GAS  C:\Users\Morroway\AppData\Local\Temp\ccHeORmJ.s 			page 33


 505:Core/Src/main.c **** {
 1319              		.loc 1 505 1
 1320              		.cfi_startproc
 1321              		@ args = 0, pretend = 0, frame = 32
 1322              		@ frame_needed = 1, uses_anonymous_args = 0
 1323 0000 80B5     		push	{r7, lr}
 1324              		.cfi_def_cfa_offset 8
 1325              		.cfi_offset 7, -8
 1326              		.cfi_offset 14, -4
 1327 0002 88B0     		sub	sp, sp, #32
 1328              		.cfi_def_cfa_offset 40
 1329 0004 00AF     		add	r7, sp, #0
 1330              		.cfi_def_cfa_register 7
 506:Core/Src/main.c **** 
 507:Core/Src/main.c ****   /* USER CODE BEGIN TIM4_Init 0 */
 508:Core/Src/main.c **** 
 509:Core/Src/main.c ****   /* USER CODE END TIM4_Init 0 */
 510:Core/Src/main.c **** 
 511:Core/Src/main.c ****   TIM_ClockConfigTypeDef sClockSourceConfig = {0};
 1331              		.loc 1 511 26
 1332 0006 07F11003 		add	r3, r7, #16
 1333 000a 0022     		movs	r2, #0
 1334 000c 1A60     		str	r2, [r3]
 1335 000e 5A60     		str	r2, [r3, #4]
 1336 0010 9A60     		str	r2, [r3, #8]
 1337 0012 DA60     		str	r2, [r3, #12]
 512:Core/Src/main.c ****   TIM_MasterConfigTypeDef sMasterConfig = {0};
 1338              		.loc 1 512 27
 1339 0014 3B1D     		adds	r3, r7, #4
 1340 0016 0022     		movs	r2, #0
 1341 0018 1A60     		str	r2, [r3]
 1342 001a 5A60     		str	r2, [r3, #4]
 1343 001c 9A60     		str	r2, [r3, #8]
 513:Core/Src/main.c **** 
 514:Core/Src/main.c ****   /* USER CODE BEGIN TIM4_Init 1 */
 515:Core/Src/main.c **** 
 516:Core/Src/main.c ****   /* USER CODE END TIM4_Init 1 */
 517:Core/Src/main.c ****   htim4.Instance = TIM4;
 1344              		.loc 1 517 18
 1345 001e 1D4B     		ldr	r3, .L70
 1346 0020 1D4A     		ldr	r2, .L70+4
 1347 0022 1A60     		str	r2, [r3]
 518:Core/Src/main.c ****   htim4.Init.Prescaler = 119;
 1348              		.loc 1 518 24
 1349 0024 1B4B     		ldr	r3, .L70
 1350 0026 7722     		movs	r2, #119
 1351 0028 5A60     		str	r2, [r3, #4]
 519:Core/Src/main.c ****   htim4.Init.CounterMode = TIM_COUNTERMODE_UP;
 1352              		.loc 1 519 26
 1353 002a 1A4B     		ldr	r3, .L70
 1354 002c 0022     		movs	r2, #0
 1355 002e 9A60     		str	r2, [r3, #8]
 520:Core/Src/main.c ****   htim4.Init.Period = 65535;
 1356              		.loc 1 520 21
 1357 0030 184B     		ldr	r3, .L70
 1358 0032 4FF6FF72 		movw	r2, #65535
 1359 0036 DA60     		str	r2, [r3, #12]
ARM GAS  C:\Users\Morroway\AppData\Local\Temp\ccHeORmJ.s 			page 34


 521:Core/Src/main.c ****   htim4.Init.ClockDivision = TIM_CLOCKDIVISION_DIV1;
 1360              		.loc 1 521 28
 1361 0038 164B     		ldr	r3, .L70
 1362 003a 0022     		movs	r2, #0
 1363 003c 1A61     		str	r2, [r3, #16]
 522:Core/Src/main.c ****   htim4.Init.AutoReloadPreload = TIM_AUTORELOAD_PRELOAD_DISABLE;
 1364              		.loc 1 522 32
 1365 003e 154B     		ldr	r3, .L70
 1366 0040 0022     		movs	r2, #0
 1367 0042 9A61     		str	r2, [r3, #24]
 523:Core/Src/main.c ****   if (HAL_TIM_Base_Init(&htim4) != HAL_OK)
 1368              		.loc 1 523 7
 1369 0044 1348     		ldr	r0, .L70
 1370 0046 FFF7FEFF 		bl	HAL_TIM_Base_Init
 1371 004a 0346     		mov	r3, r0
 1372              		.loc 1 523 6
 1373 004c 002B     		cmp	r3, #0
 1374 004e 01D0     		beq	.L66
 524:Core/Src/main.c ****   {
 525:Core/Src/main.c ****     Error_Handler();
 1375              		.loc 1 525 5
 1376 0050 FFF7FEFF 		bl	Error_Handler
 1377              	.L66:
 526:Core/Src/main.c ****   }
 527:Core/Src/main.c ****   sClockSourceConfig.ClockSource = TIM_CLOCKSOURCE_INTERNAL;
 1378              		.loc 1 527 34
 1379 0054 4FF48053 		mov	r3, #4096
 1380 0058 3B61     		str	r3, [r7, #16]
 528:Core/Src/main.c ****   if (HAL_TIM_ConfigClockSource(&htim4, &sClockSourceConfig) != HAL_OK)
 1381              		.loc 1 528 7
 1382 005a 07F11003 		add	r3, r7, #16
 1383 005e 1946     		mov	r1, r3
 1384 0060 0C48     		ldr	r0, .L70
 1385 0062 FFF7FEFF 		bl	HAL_TIM_ConfigClockSource
 1386 0066 0346     		mov	r3, r0
 1387              		.loc 1 528 6
 1388 0068 002B     		cmp	r3, #0
 1389 006a 01D0     		beq	.L67
 529:Core/Src/main.c ****   {
 530:Core/Src/main.c ****     Error_Handler();
 1390              		.loc 1 530 5
 1391 006c FFF7FEFF 		bl	Error_Handler
 1392              	.L67:
 531:Core/Src/main.c ****   }
 532:Core/Src/main.c ****   sMasterConfig.MasterOutputTrigger = TIM_TRGO_RESET;
 1393              		.loc 1 532 37
 1394 0070 0023     		movs	r3, #0
 1395 0072 7B60     		str	r3, [r7, #4]
 533:Core/Src/main.c ****   sMasterConfig.MasterSlaveMode = TIM_MASTERSLAVEMODE_DISABLE;
 1396              		.loc 1 533 33
 1397 0074 0023     		movs	r3, #0
 1398 0076 FB60     		str	r3, [r7, #12]
 534:Core/Src/main.c ****   if (HAL_TIMEx_MasterConfigSynchronization(&htim4, &sMasterConfig) != HAL_OK)
 1399              		.loc 1 534 7
 1400 0078 3B1D     		adds	r3, r7, #4
 1401 007a 1946     		mov	r1, r3
 1402 007c 0548     		ldr	r0, .L70
ARM GAS  C:\Users\Morroway\AppData\Local\Temp\ccHeORmJ.s 			page 35


 1403 007e FFF7FEFF 		bl	HAL_TIMEx_MasterConfigSynchronization
 1404 0082 0346     		mov	r3, r0
 1405              		.loc 1 534 6
 1406 0084 002B     		cmp	r3, #0
 1407 0086 01D0     		beq	.L69
 535:Core/Src/main.c ****   {
 536:Core/Src/main.c ****     Error_Handler();
 1408              		.loc 1 536 5
 1409 0088 FFF7FEFF 		bl	Error_Handler
 1410              	.L69:
 537:Core/Src/main.c ****   }
 538:Core/Src/main.c ****   /* USER CODE BEGIN TIM4_Init 2 */
 539:Core/Src/main.c **** 
 540:Core/Src/main.c ****   /* USER CODE END TIM4_Init 2 */
 541:Core/Src/main.c **** }
 1411              		.loc 1 541 1
 1412 008c 00BF     		nop
 1413 008e 2037     		adds	r7, r7, #32
 1414              		.cfi_def_cfa_offset 8
 1415 0090 BD46     		mov	sp, r7
 1416              		.cfi_def_cfa_register 13
 1417              		@ sp needed
 1418 0092 80BD     		pop	{r7, pc}
 1419              	.L71:
 1420              		.align	2
 1421              	.L70:
 1422 0094 00000000 		.word	htim4
 1423 0098 00080040 		.word	1073743872
 1424              		.cfi_endproc
 1425              	.LFE335:
 1427              		.section	.text.MX_TIM5_Init,"ax",%progbits
 1428              		.align	1
 1429              		.syntax unified
 1430              		.thumb
 1431              		.thumb_func
 1433              	MX_TIM5_Init:
 1434              	.LFB336:
 542:Core/Src/main.c **** 
 543:Core/Src/main.c **** /**
 544:Core/Src/main.c ****  * @brief TIM5 Initialization Function
 545:Core/Src/main.c ****  * @param None
 546:Core/Src/main.c ****  * @retval None
 547:Core/Src/main.c ****  */
 548:Core/Src/main.c **** static void MX_TIM5_Init(void)
 549:Core/Src/main.c **** {
 1435              		.loc 1 549 1
 1436              		.cfi_startproc
 1437              		@ args = 0, pretend = 0, frame = 32
 1438              		@ frame_needed = 1, uses_anonymous_args = 0
 1439 0000 80B5     		push	{r7, lr}
 1440              		.cfi_def_cfa_offset 8
 1441              		.cfi_offset 7, -8
 1442              		.cfi_offset 14, -4
 1443 0002 88B0     		sub	sp, sp, #32
 1444              		.cfi_def_cfa_offset 40
 1445 0004 00AF     		add	r7, sp, #0
 1446              		.cfi_def_cfa_register 7
ARM GAS  C:\Users\Morroway\AppData\Local\Temp\ccHeORmJ.s 			page 36


 550:Core/Src/main.c **** 
 551:Core/Src/main.c ****   /* USER CODE BEGIN TIM5_Init 0 */
 552:Core/Src/main.c **** 
 553:Core/Src/main.c ****   /* USER CODE END TIM5_Init 0 */
 554:Core/Src/main.c **** 
 555:Core/Src/main.c ****   TIM_ClockConfigTypeDef sClockSourceConfig = {0};
 1447              		.loc 1 555 26
 1448 0006 07F11003 		add	r3, r7, #16
 1449 000a 0022     		movs	r2, #0
 1450 000c 1A60     		str	r2, [r3]
 1451 000e 5A60     		str	r2, [r3, #4]
 1452 0010 9A60     		str	r2, [r3, #8]
 1453 0012 DA60     		str	r2, [r3, #12]
 556:Core/Src/main.c ****   TIM_MasterConfigTypeDef sMasterConfig = {0};
 1454              		.loc 1 556 27
 1455 0014 3B1D     		adds	r3, r7, #4
 1456 0016 0022     		movs	r2, #0
 1457 0018 1A60     		str	r2, [r3]
 1458 001a 5A60     		str	r2, [r3, #4]
 1459 001c 9A60     		str	r2, [r3, #8]
 557:Core/Src/main.c **** 
 558:Core/Src/main.c ****   /* USER CODE BEGIN TIM5_Init 1 */
 559:Core/Src/main.c **** 
 560:Core/Src/main.c ****   /* USER CODE END TIM5_Init 1 */
 561:Core/Src/main.c ****   htim5.Instance = TIM5;
 1460              		.loc 1 561 18
 1461 001e 1D4B     		ldr	r3, .L77
 1462 0020 1D4A     		ldr	r2, .L77+4
 1463 0022 1A60     		str	r2, [r3]
 562:Core/Src/main.c ****   htim5.Init.Prescaler = 119;
 1464              		.loc 1 562 24
 1465 0024 1B4B     		ldr	r3, .L77
 1466 0026 7722     		movs	r2, #119
 1467 0028 5A60     		str	r2, [r3, #4]
 563:Core/Src/main.c ****   htim5.Init.CounterMode = TIM_COUNTERMODE_UP;
 1468              		.loc 1 563 26
 1469 002a 1A4B     		ldr	r3, .L77
 1470 002c 0022     		movs	r2, #0
 1471 002e 9A60     		str	r2, [r3, #8]
 564:Core/Src/main.c ****   htim5.Init.Period = 4294967295;
 1472              		.loc 1 564 21
 1473 0030 184B     		ldr	r3, .L77
 1474 0032 4FF0FF32 		mov	r2, #-1
 1475 0036 DA60     		str	r2, [r3, #12]
 565:Core/Src/main.c ****   htim5.Init.ClockDivision = TIM_CLOCKDIVISION_DIV1;
 1476              		.loc 1 565 28
 1477 0038 164B     		ldr	r3, .L77
 1478 003a 0022     		movs	r2, #0
 1479 003c 1A61     		str	r2, [r3, #16]
 566:Core/Src/main.c ****   htim5.Init.AutoReloadPreload = TIM_AUTORELOAD_PRELOAD_DISABLE;
 1480              		.loc 1 566 32
 1481 003e 154B     		ldr	r3, .L77
 1482 0040 0022     		movs	r2, #0
 1483 0042 9A61     		str	r2, [r3, #24]
 567:Core/Src/main.c ****   if (HAL_TIM_Base_Init(&htim5) != HAL_OK)
 1484              		.loc 1 567 7
 1485 0044 1348     		ldr	r0, .L77
ARM GAS  C:\Users\Morroway\AppData\Local\Temp\ccHeORmJ.s 			page 37


 1486 0046 FFF7FEFF 		bl	HAL_TIM_Base_Init
 1487 004a 0346     		mov	r3, r0
 1488              		.loc 1 567 6
 1489 004c 002B     		cmp	r3, #0
 1490 004e 01D0     		beq	.L73
 568:Core/Src/main.c ****   {
 569:Core/Src/main.c ****     Error_Handler();
 1491              		.loc 1 569 5
 1492 0050 FFF7FEFF 		bl	Error_Handler
 1493              	.L73:
 570:Core/Src/main.c ****   }
 571:Core/Src/main.c ****   sClockSourceConfig.ClockSource = TIM_CLOCKSOURCE_INTERNAL;
 1494              		.loc 1 571 34
 1495 0054 4FF48053 		mov	r3, #4096
 1496 0058 3B61     		str	r3, [r7, #16]
 572:Core/Src/main.c ****   if (HAL_TIM_ConfigClockSource(&htim5, &sClockSourceConfig) != HAL_OK)
 1497              		.loc 1 572 7
 1498 005a 07F11003 		add	r3, r7, #16
 1499 005e 1946     		mov	r1, r3
 1500 0060 0C48     		ldr	r0, .L77
 1501 0062 FFF7FEFF 		bl	HAL_TIM_ConfigClockSource
 1502 0066 0346     		mov	r3, r0
 1503              		.loc 1 572 6
 1504 0068 002B     		cmp	r3, #0
 1505 006a 01D0     		beq	.L74
 573:Core/Src/main.c ****   {
 574:Core/Src/main.c ****     Error_Handler();
 1506              		.loc 1 574 5
 1507 006c FFF7FEFF 		bl	Error_Handler
 1508              	.L74:
 575:Core/Src/main.c ****   }
 576:Core/Src/main.c ****   sMasterConfig.MasterOutputTrigger = TIM_TRGO_RESET;
 1509              		.loc 1 576 37
 1510 0070 0023     		movs	r3, #0
 1511 0072 7B60     		str	r3, [r7, #4]
 577:Core/Src/main.c ****   sMasterConfig.MasterSlaveMode = TIM_MASTERSLAVEMODE_DISABLE;
 1512              		.loc 1 577 33
 1513 0074 0023     		movs	r3, #0
 1514 0076 FB60     		str	r3, [r7, #12]
 578:Core/Src/main.c ****   if (HAL_TIMEx_MasterConfigSynchronization(&htim5, &sMasterConfig) != HAL_OK)
 1515              		.loc 1 578 7
 1516 0078 3B1D     		adds	r3, r7, #4
 1517 007a 1946     		mov	r1, r3
 1518 007c 0548     		ldr	r0, .L77
 1519 007e FFF7FEFF 		bl	HAL_TIMEx_MasterConfigSynchronization
 1520 0082 0346     		mov	r3, r0
 1521              		.loc 1 578 6
 1522 0084 002B     		cmp	r3, #0
 1523 0086 01D0     		beq	.L76
 579:Core/Src/main.c ****   {
 580:Core/Src/main.c ****     Error_Handler();
 1524              		.loc 1 580 5
 1525 0088 FFF7FEFF 		bl	Error_Handler
 1526              	.L76:
 581:Core/Src/main.c ****   }
 582:Core/Src/main.c ****   /* USER CODE BEGIN TIM5_Init 2 */
 583:Core/Src/main.c **** 
ARM GAS  C:\Users\Morroway\AppData\Local\Temp\ccHeORmJ.s 			page 38


 584:Core/Src/main.c ****   /* USER CODE END TIM5_Init 2 */
 585:Core/Src/main.c **** }
 1527              		.loc 1 585 1
 1528 008c 00BF     		nop
 1529 008e 2037     		adds	r7, r7, #32
 1530              		.cfi_def_cfa_offset 8
 1531 0090 BD46     		mov	sp, r7
 1532              		.cfi_def_cfa_register 13
 1533              		@ sp needed
 1534 0092 80BD     		pop	{r7, pc}
 1535              	.L78:
 1536              		.align	2
 1537              	.L77:
 1538 0094 00000000 		.word	htim5
 1539 0098 000C0040 		.word	1073744896
 1540              		.cfi_endproc
 1541              	.LFE336:
 1543              		.section	.text.MX_USB_OTG_FS_PCD_Init,"ax",%progbits
 1544              		.align	1
 1545              		.syntax unified
 1546              		.thumb
 1547              		.thumb_func
 1549              	MX_USB_OTG_FS_PCD_Init:
 1550              	.LFB337:
 586:Core/Src/main.c **** 
 587:Core/Src/main.c **** /**
 588:Core/Src/main.c ****  * @brief USB_OTG_FS Initialization Function
 589:Core/Src/main.c ****  * @param None
 590:Core/Src/main.c ****  * @retval None
 591:Core/Src/main.c ****  */
 592:Core/Src/main.c **** static void MX_USB_OTG_FS_PCD_Init(void)
 593:Core/Src/main.c **** {
 1551              		.loc 1 593 1
 1552              		.cfi_startproc
 1553              		@ args = 0, pretend = 0, frame = 0
 1554              		@ frame_needed = 1, uses_anonymous_args = 0
 1555 0000 80B5     		push	{r7, lr}
 1556              		.cfi_def_cfa_offset 8
 1557              		.cfi_offset 7, -8
 1558              		.cfi_offset 14, -4
 1559 0002 00AF     		add	r7, sp, #0
 1560              		.cfi_def_cfa_register 7
 594:Core/Src/main.c **** 
 595:Core/Src/main.c ****   /* USER CODE BEGIN USB_OTG_FS_Init 0 */
 596:Core/Src/main.c **** 
 597:Core/Src/main.c ****   /* USER CODE END USB_OTG_FS_Init 0 */
 598:Core/Src/main.c **** 
 599:Core/Src/main.c ****   /* USER CODE BEGIN USB_OTG_FS_Init 1 */
 600:Core/Src/main.c **** 
 601:Core/Src/main.c ****   /* USER CODE END USB_OTG_FS_Init 1 */
 602:Core/Src/main.c ****   hpcd_USB_OTG_FS.Instance = USB_OTG_FS;
 1561              		.loc 1 602 28
 1562 0004 124B     		ldr	r3, .L82
 1563 0006 4FF0A042 		mov	r2, #1342177280
 1564 000a 1A60     		str	r2, [r3]
 603:Core/Src/main.c ****   hpcd_USB_OTG_FS.Init.dev_endpoints = 6;
 1565              		.loc 1 603 38
ARM GAS  C:\Users\Morroway\AppData\Local\Temp\ccHeORmJ.s 			page 39


 1566 000c 104B     		ldr	r3, .L82
 1567 000e 0622     		movs	r2, #6
 1568 0010 5A60     		str	r2, [r3, #4]
 604:Core/Src/main.c ****   hpcd_USB_OTG_FS.Init.phy_itface = PCD_PHY_EMBEDDED;
 1569              		.loc 1 604 35
 1570 0012 0F4B     		ldr	r3, .L82
 1571 0014 0222     		movs	r2, #2
 1572 0016 9A61     		str	r2, [r3, #24]
 605:Core/Src/main.c ****   hpcd_USB_OTG_FS.Init.Sof_enable = ENABLE;
 1573              		.loc 1 605 35
 1574 0018 0D4B     		ldr	r3, .L82
 1575 001a 0122     		movs	r2, #1
 1576 001c DA61     		str	r2, [r3, #28]
 606:Core/Src/main.c ****   hpcd_USB_OTG_FS.Init.low_power_enable = DISABLE;
 1577              		.loc 1 606 41
 1578 001e 0C4B     		ldr	r3, .L82
 1579 0020 0022     		movs	r2, #0
 1580 0022 1A62     		str	r2, [r3, #32]
 607:Core/Src/main.c ****   hpcd_USB_OTG_FS.Init.lpm_enable = DISABLE;
 1581              		.loc 1 607 35
 1582 0024 0A4B     		ldr	r3, .L82
 1583 0026 0022     		movs	r2, #0
 1584 0028 5A62     		str	r2, [r3, #36]
 608:Core/Src/main.c ****   hpcd_USB_OTG_FS.Init.battery_charging_enable = ENABLE;
 1585              		.loc 1 608 48
 1586 002a 094B     		ldr	r3, .L82
 1587 002c 0122     		movs	r2, #1
 1588 002e 9A62     		str	r2, [r3, #40]
 609:Core/Src/main.c ****   hpcd_USB_OTG_FS.Init.use_dedicated_ep1 = DISABLE;
 1589              		.loc 1 609 42
 1590 0030 074B     		ldr	r3, .L82
 1591 0032 0022     		movs	r2, #0
 1592 0034 1A63     		str	r2, [r3, #48]
 610:Core/Src/main.c ****   hpcd_USB_OTG_FS.Init.vbus_sensing_enable = ENABLE;
 1593              		.loc 1 610 44
 1594 0036 064B     		ldr	r3, .L82
 1595 0038 0122     		movs	r2, #1
 1596 003a DA62     		str	r2, [r3, #44]
 611:Core/Src/main.c ****   if (HAL_PCD_Init(&hpcd_USB_OTG_FS) != HAL_OK)
 1597              		.loc 1 611 7
 1598 003c 0448     		ldr	r0, .L82
 1599 003e FFF7FEFF 		bl	HAL_PCD_Init
 1600 0042 0346     		mov	r3, r0
 1601              		.loc 1 611 6
 1602 0044 002B     		cmp	r3, #0
 1603 0046 01D0     		beq	.L81
 612:Core/Src/main.c ****   {
 613:Core/Src/main.c ****     Error_Handler();
 1604              		.loc 1 613 5
 1605 0048 FFF7FEFF 		bl	Error_Handler
 1606              	.L81:
 614:Core/Src/main.c ****   }
 615:Core/Src/main.c ****   /* USER CODE BEGIN USB_OTG_FS_Init 2 */
 616:Core/Src/main.c **** 
 617:Core/Src/main.c ****   /* USER CODE END USB_OTG_FS_Init 2 */
 618:Core/Src/main.c **** }
 1607              		.loc 1 618 1
ARM GAS  C:\Users\Morroway\AppData\Local\Temp\ccHeORmJ.s 			page 40


 1608 004c 00BF     		nop
 1609 004e 80BD     		pop	{r7, pc}
 1610              	.L83:
 1611              		.align	2
 1612              	.L82:
 1613 0050 00000000 		.word	hpcd_USB_OTG_FS
 1614              		.cfi_endproc
 1615              	.LFE337:
 1617              		.section	.text.MX_DMA_Init,"ax",%progbits
 1618              		.align	1
 1619              		.syntax unified
 1620              		.thumb
 1621              		.thumb_func
 1623              	MX_DMA_Init:
 1624              	.LFB338:
 619:Core/Src/main.c **** 
 620:Core/Src/main.c **** /**
 621:Core/Src/main.c ****  * Enable DMA controller clock
 622:Core/Src/main.c ****  */
 623:Core/Src/main.c **** static void MX_DMA_Init(void)
 624:Core/Src/main.c **** {
 1625              		.loc 1 624 1
 1626              		.cfi_startproc
 1627              		@ args = 0, pretend = 0, frame = 8
 1628              		@ frame_needed = 1, uses_anonymous_args = 0
 1629 0000 80B5     		push	{r7, lr}
 1630              		.cfi_def_cfa_offset 8
 1631              		.cfi_offset 7, -8
 1632              		.cfi_offset 14, -4
 1633 0002 82B0     		sub	sp, sp, #8
 1634              		.cfi_def_cfa_offset 16
 1635 0004 00AF     		add	r7, sp, #0
 1636              		.cfi_def_cfa_register 7
 1637              	.LBB4:
 625:Core/Src/main.c **** 
 626:Core/Src/main.c ****   /* DMA controller clock enable */
 627:Core/Src/main.c ****   __HAL_RCC_DMAMUX1_CLK_ENABLE();
 1638              		.loc 1 627 3
 1639 0006 164B     		ldr	r3, .L85
 1640 0008 9B6C     		ldr	r3, [r3, #72]
 1641 000a 154A     		ldr	r2, .L85
 1642 000c 43F00403 		orr	r3, r3, #4
 1643 0010 9364     		str	r3, [r2, #72]
 1644 0012 134B     		ldr	r3, .L85
 1645 0014 9B6C     		ldr	r3, [r3, #72]
 1646 0016 03F00403 		and	r3, r3, #4
 1647 001a 7B60     		str	r3, [r7, #4]
 1648 001c 7B68     		ldr	r3, [r7, #4]
 1649              	.LBE4:
 1650              	.LBB5:
 628:Core/Src/main.c ****   __HAL_RCC_DMA1_CLK_ENABLE();
 1651              		.loc 1 628 3
 1652 001e 104B     		ldr	r3, .L85
 1653 0020 9B6C     		ldr	r3, [r3, #72]
 1654 0022 0F4A     		ldr	r2, .L85
 1655 0024 43F00103 		orr	r3, r3, #1
 1656 0028 9364     		str	r3, [r2, #72]
ARM GAS  C:\Users\Morroway\AppData\Local\Temp\ccHeORmJ.s 			page 41


 1657 002a 0D4B     		ldr	r3, .L85
 1658 002c 9B6C     		ldr	r3, [r3, #72]
 1659 002e 03F00103 		and	r3, r3, #1
 1660 0032 3B60     		str	r3, [r7]
 1661 0034 3B68     		ldr	r3, [r7]
 1662              	.LBE5:
 629:Core/Src/main.c **** 
 630:Core/Src/main.c ****   /* DMA interrupt init */
 631:Core/Src/main.c ****   /* DMA1_Channel1_IRQn interrupt configuration */
 632:Core/Src/main.c ****   HAL_NVIC_SetPriority(DMA1_Channel1_IRQn, 0, 0);
 1663              		.loc 1 632 3
 1664 0036 0022     		movs	r2, #0
 1665 0038 0021     		movs	r1, #0
 1666 003a 0B20     		movs	r0, #11
 1667 003c FFF7FEFF 		bl	HAL_NVIC_SetPriority
 633:Core/Src/main.c ****   HAL_NVIC_EnableIRQ(DMA1_Channel1_IRQn);
 1668              		.loc 1 633 3
 1669 0040 0B20     		movs	r0, #11
 1670 0042 FFF7FEFF 		bl	HAL_NVIC_EnableIRQ
 634:Core/Src/main.c ****   /* DMA1_Channel2_IRQn interrupt configuration */
 635:Core/Src/main.c ****   HAL_NVIC_SetPriority(DMA1_Channel2_IRQn, 0, 0);
 1671              		.loc 1 635 3
 1672 0046 0022     		movs	r2, #0
 1673 0048 0021     		movs	r1, #0
 1674 004a 0C20     		movs	r0, #12
 1675 004c FFF7FEFF 		bl	HAL_NVIC_SetPriority
 636:Core/Src/main.c ****   HAL_NVIC_EnableIRQ(DMA1_Channel2_IRQn);
 1676              		.loc 1 636 3
 1677 0050 0C20     		movs	r0, #12
 1678 0052 FFF7FEFF 		bl	HAL_NVIC_EnableIRQ
 637:Core/Src/main.c **** }
 1679              		.loc 1 637 1
 1680 0056 00BF     		nop
 1681 0058 0837     		adds	r7, r7, #8
 1682              		.cfi_def_cfa_offset 8
 1683 005a BD46     		mov	sp, r7
 1684              		.cfi_def_cfa_register 13
 1685              		@ sp needed
 1686 005c 80BD     		pop	{r7, pc}
 1687              	.L86:
 1688 005e 00BF     		.align	2
 1689              	.L85:
 1690 0060 00100240 		.word	1073876992
 1691              		.cfi_endproc
 1692              	.LFE338:
 1694              		.section	.text.MX_GPIO_Init,"ax",%progbits
 1695              		.align	1
 1696              		.syntax unified
 1697              		.thumb
 1698              		.thumb_func
 1700              	MX_GPIO_Init:
 1701              	.LFB339:
 638:Core/Src/main.c **** 
 639:Core/Src/main.c **** /**
 640:Core/Src/main.c ****  * @brief GPIO Initialization Function
 641:Core/Src/main.c ****  * @param None
 642:Core/Src/main.c ****  * @retval None
ARM GAS  C:\Users\Morroway\AppData\Local\Temp\ccHeORmJ.s 			page 42


 643:Core/Src/main.c ****  */
 644:Core/Src/main.c **** static void MX_GPIO_Init(void)
 645:Core/Src/main.c **** {
 1702              		.loc 1 645 1
 1703              		.cfi_startproc
 1704              		@ args = 0, pretend = 0, frame = 48
 1705              		@ frame_needed = 1, uses_anonymous_args = 0
 1706 0000 80B5     		push	{r7, lr}
 1707              		.cfi_def_cfa_offset 8
 1708              		.cfi_offset 7, -8
 1709              		.cfi_offset 14, -4
 1710 0002 8CB0     		sub	sp, sp, #48
 1711              		.cfi_def_cfa_offset 56
 1712 0004 00AF     		add	r7, sp, #0
 1713              		.cfi_def_cfa_register 7
 646:Core/Src/main.c ****   GPIO_InitTypeDef GPIO_InitStruct = {0};
 1714              		.loc 1 646 20
 1715 0006 07F11C03 		add	r3, r7, #28
 1716 000a 0022     		movs	r2, #0
 1717 000c 1A60     		str	r2, [r3]
 1718 000e 5A60     		str	r2, [r3, #4]
 1719 0010 9A60     		str	r2, [r3, #8]
 1720 0012 DA60     		str	r2, [r3, #12]
 1721 0014 1A61     		str	r2, [r3, #16]
 1722              	.LBB6:
 647:Core/Src/main.c **** 
 648:Core/Src/main.c ****   /* GPIO Ports Clock Enable */
 649:Core/Src/main.c ****   __HAL_RCC_GPIOE_CLK_ENABLE();
 1723              		.loc 1 649 3
 1724 0016 724B     		ldr	r3, .L88
 1725 0018 DB6C     		ldr	r3, [r3, #76]
 1726 001a 714A     		ldr	r2, .L88
 1727 001c 43F01003 		orr	r3, r3, #16
 1728 0020 D364     		str	r3, [r2, #76]
 1729 0022 6F4B     		ldr	r3, .L88
 1730 0024 DB6C     		ldr	r3, [r3, #76]
 1731 0026 03F01003 		and	r3, r3, #16
 1732 002a BB61     		str	r3, [r7, #24]
 1733 002c BB69     		ldr	r3, [r7, #24]
 1734              	.LBE6:
 1735              	.LBB7:
 650:Core/Src/main.c ****   __HAL_RCC_GPIOC_CLK_ENABLE();
 1736              		.loc 1 650 3
 1737 002e 6C4B     		ldr	r3, .L88
 1738 0030 DB6C     		ldr	r3, [r3, #76]
 1739 0032 6B4A     		ldr	r2, .L88
 1740 0034 43F00403 		orr	r3, r3, #4
 1741 0038 D364     		str	r3, [r2, #76]
 1742 003a 694B     		ldr	r3, .L88
 1743 003c DB6C     		ldr	r3, [r3, #76]
 1744 003e 03F00403 		and	r3, r3, #4
 1745 0042 7B61     		str	r3, [r7, #20]
 1746 0044 7B69     		ldr	r3, [r7, #20]
 1747              	.LBE7:
 1748              	.LBB8:
 651:Core/Src/main.c ****   __HAL_RCC_GPIOF_CLK_ENABLE();
 1749              		.loc 1 651 3
ARM GAS  C:\Users\Morroway\AppData\Local\Temp\ccHeORmJ.s 			page 43


 1750 0046 664B     		ldr	r3, .L88
 1751 0048 DB6C     		ldr	r3, [r3, #76]
 1752 004a 654A     		ldr	r2, .L88
 1753 004c 43F02003 		orr	r3, r3, #32
 1754 0050 D364     		str	r3, [r2, #76]
 1755 0052 634B     		ldr	r3, .L88
 1756 0054 DB6C     		ldr	r3, [r3, #76]
 1757 0056 03F02003 		and	r3, r3, #32
 1758 005a 3B61     		str	r3, [r7, #16]
 1759 005c 3B69     		ldr	r3, [r7, #16]
 1760              	.LBE8:
 1761              	.LBB9:
 652:Core/Src/main.c ****   __HAL_RCC_GPIOH_CLK_ENABLE();
 1762              		.loc 1 652 3
 1763 005e 604B     		ldr	r3, .L88
 1764 0060 DB6C     		ldr	r3, [r3, #76]
 1765 0062 5F4A     		ldr	r2, .L88
 1766 0064 43F08003 		orr	r3, r3, #128
 1767 0068 D364     		str	r3, [r2, #76]
 1768 006a 5D4B     		ldr	r3, .L88
 1769 006c DB6C     		ldr	r3, [r3, #76]
 1770 006e 03F08003 		and	r3, r3, #128
 1771 0072 FB60     		str	r3, [r7, #12]
 1772 0074 FB68     		ldr	r3, [r7, #12]
 1773              	.LBE9:
 1774              	.LBB10:
 653:Core/Src/main.c ****   __HAL_RCC_GPIOA_CLK_ENABLE();
 1775              		.loc 1 653 3
 1776 0076 5A4B     		ldr	r3, .L88
 1777 0078 DB6C     		ldr	r3, [r3, #76]
 1778 007a 594A     		ldr	r2, .L88
 1779 007c 43F00103 		orr	r3, r3, #1
 1780 0080 D364     		str	r3, [r2, #76]
 1781 0082 574B     		ldr	r3, .L88
 1782 0084 DB6C     		ldr	r3, [r3, #76]
 1783 0086 03F00103 		and	r3, r3, #1
 1784 008a BB60     		str	r3, [r7, #8]
 1785 008c BB68     		ldr	r3, [r7, #8]
 1786              	.LBE10:
 1787              	.LBB11:
 654:Core/Src/main.c ****   __HAL_RCC_GPIOB_CLK_ENABLE();
 1788              		.loc 1 654 3
 1789 008e 544B     		ldr	r3, .L88
 1790 0090 DB6C     		ldr	r3, [r3, #76]
 1791 0092 534A     		ldr	r2, .L88
 1792 0094 43F00203 		orr	r3, r3, #2
 1793 0098 D364     		str	r3, [r2, #76]
 1794 009a 514B     		ldr	r3, .L88
 1795 009c DB6C     		ldr	r3, [r3, #76]
 1796 009e 03F00203 		and	r3, r3, #2
 1797 00a2 7B60     		str	r3, [r7, #4]
 1798 00a4 7B68     		ldr	r3, [r7, #4]
 1799              	.LBE11:
 1800              	.LBB12:
 655:Core/Src/main.c ****   __HAL_RCC_GPIOG_CLK_ENABLE();
 1801              		.loc 1 655 3
 1802 00a6 4E4B     		ldr	r3, .L88
ARM GAS  C:\Users\Morroway\AppData\Local\Temp\ccHeORmJ.s 			page 44


 1803 00a8 DB6C     		ldr	r3, [r3, #76]
 1804 00aa 4D4A     		ldr	r2, .L88
 1805 00ac 43F04003 		orr	r3, r3, #64
 1806 00b0 D364     		str	r3, [r2, #76]
 1807 00b2 4B4B     		ldr	r3, .L88
 1808 00b4 DB6C     		ldr	r3, [r3, #76]
 1809 00b6 03F04003 		and	r3, r3, #64
 1810 00ba 3B60     		str	r3, [r7]
 1811 00bc 3B68     		ldr	r3, [r7]
 1812              	.LBE12:
 656:Core/Src/main.c ****   HAL_PWREx_EnableVddIO2();
 1813              		.loc 1 656 3
 1814 00be FFF7FEFF 		bl	HAL_PWREx_EnableVddIO2
 657:Core/Src/main.c **** 
 658:Core/Src/main.c ****   /*Configure GPIO pin Output Level */
 659:Core/Src/main.c ****   HAL_GPIO_WritePin(GPIOF, GPIO_PIN_1 | GPIO_PIN_2 | GPIO_PIN_3 | GPIO_PIN_6 | GPIO_PIN_7 | GPIO_PI
 1815              		.loc 1 659 3
 1816 00c2 0022     		movs	r2, #0
 1817 00c4 4FF4E771 		mov	r1, #462
 1818 00c8 4648     		ldr	r0, .L88+4
 1819 00ca FFF7FEFF 		bl	HAL_GPIO_WritePin
 660:Core/Src/main.c **** 
 661:Core/Src/main.c ****   /*Configure GPIO pin Output Level */
 662:Core/Src/main.c ****   HAL_GPIO_WritePin(GPIOA, GPIO_PIN_7, GPIO_PIN_RESET);
 1820              		.loc 1 662 3
 1821 00ce 0022     		movs	r2, #0
 1822 00d0 8021     		movs	r1, #128
 1823 00d2 4FF09040 		mov	r0, #1207959552
 1824 00d6 FFF7FEFF 		bl	HAL_GPIO_WritePin
 663:Core/Src/main.c **** 
 664:Core/Src/main.c ****   /*Configure GPIO pin Output Level */
 665:Core/Src/main.c ****   HAL_GPIO_WritePin(GPIOB, GPIO_PIN_0 | GPIO_PIN_1 | LD3_Pin | LD2_Pin, GPIO_PIN_RESET);
 1825              		.loc 1 665 3
 1826 00da 0022     		movs	r2, #0
 1827 00dc 44F28301 		movw	r1, #16515
 1828 00e0 4148     		ldr	r0, .L88+8
 1829 00e2 FFF7FEFF 		bl	HAL_GPIO_WritePin
 666:Core/Src/main.c **** 
 667:Core/Src/main.c ****   /*Configure GPIO pin Output Level */
 668:Core/Src/main.c ****   HAL_GPIO_WritePin(USB_PowerSwitchOn_GPIO_Port, USB_PowerSwitchOn_Pin, GPIO_PIN_RESET);
 1830              		.loc 1 668 3
 1831 00e6 0022     		movs	r2, #0
 1832 00e8 4021     		movs	r1, #64
 1833 00ea 4048     		ldr	r0, .L88+12
 1834 00ec FFF7FEFF 		bl	HAL_GPIO_WritePin
 669:Core/Src/main.c **** 
 670:Core/Src/main.c ****   /*Configure GPIO pin Output Level */
 671:Core/Src/main.c ****   HAL_GPIO_WritePin(GPIOC, GPIO_PIN_6, GPIO_PIN_RESET);
 1835              		.loc 1 671 3
 1836 00f0 0022     		movs	r2, #0
 1837 00f2 4021     		movs	r1, #64
 1838 00f4 3E48     		ldr	r0, .L88+16
 1839 00f6 FFF7FEFF 		bl	HAL_GPIO_WritePin
 672:Core/Src/main.c **** 
 673:Core/Src/main.c ****   /*Configure GPIO pin : B1_Pin */
 674:Core/Src/main.c ****   GPIO_InitStruct.Pin = B1_Pin;
 1840              		.loc 1 674 23
ARM GAS  C:\Users\Morroway\AppData\Local\Temp\ccHeORmJ.s 			page 45


 1841 00fa 4FF40053 		mov	r3, #8192
 1842 00fe FB61     		str	r3, [r7, #28]
 675:Core/Src/main.c ****   GPIO_InitStruct.Mode = GPIO_MODE_IT_RISING;
 1843              		.loc 1 675 24
 1844 0100 4FF48813 		mov	r3, #1114112
 1845 0104 3B62     		str	r3, [r7, #32]
 676:Core/Src/main.c ****   GPIO_InitStruct.Pull = GPIO_NOPULL;
 1846              		.loc 1 676 24
 1847 0106 0023     		movs	r3, #0
 1848 0108 7B62     		str	r3, [r7, #36]
 677:Core/Src/main.c ****   HAL_GPIO_Init(B1_GPIO_Port, &GPIO_InitStruct);
 1849              		.loc 1 677 3
 1850 010a 07F11C03 		add	r3, r7, #28
 1851 010e 1946     		mov	r1, r3
 1852 0110 3748     		ldr	r0, .L88+16
 1853 0112 FFF7FEFF 		bl	HAL_GPIO_Init
 678:Core/Src/main.c **** 
 679:Core/Src/main.c ****   /*Configure GPIO pins : PF0 PF4 */
 680:Core/Src/main.c ****   GPIO_InitStruct.Pin = GPIO_PIN_0 | GPIO_PIN_4;
 1854              		.loc 1 680 23
 1855 0116 1123     		movs	r3, #17
 1856 0118 FB61     		str	r3, [r7, #28]
 681:Core/Src/main.c ****   GPIO_InitStruct.Mode = GPIO_MODE_INPUT;
 1857              		.loc 1 681 24
 1858 011a 0023     		movs	r3, #0
 1859 011c 3B62     		str	r3, [r7, #32]
 682:Core/Src/main.c ****   GPIO_InitStruct.Pull = GPIO_NOPULL;
 1860              		.loc 1 682 24
 1861 011e 0023     		movs	r3, #0
 1862 0120 7B62     		str	r3, [r7, #36]
 683:Core/Src/main.c ****   HAL_GPIO_Init(GPIOF, &GPIO_InitStruct);
 1863              		.loc 1 683 3
 1864 0122 07F11C03 		add	r3, r7, #28
 1865 0126 1946     		mov	r1, r3
 1866 0128 2E48     		ldr	r0, .L88+4
 1867 012a FFF7FEFF 		bl	HAL_GPIO_Init
 684:Core/Src/main.c **** 
 685:Core/Src/main.c ****   /*Configure GPIO pins : PF1 PF2 PF3 PF6
 686:Core/Src/main.c ****                            PF7 PF8 */
 687:Core/Src/main.c ****   GPIO_InitStruct.Pin = GPIO_PIN_1 | GPIO_PIN_2 | GPIO_PIN_3 | GPIO_PIN_6 | GPIO_PIN_7 | GPIO_PIN_8
 1868              		.loc 1 687 23
 1869 012e 4FF4E773 		mov	r3, #462
 1870 0132 FB61     		str	r3, [r7, #28]
 688:Core/Src/main.c ****   GPIO_InitStruct.Mode = GPIO_MODE_OUTPUT_PP;
 1871              		.loc 1 688 24
 1872 0134 0123     		movs	r3, #1
 1873 0136 3B62     		str	r3, [r7, #32]
 689:Core/Src/main.c ****   GPIO_InitStruct.Pull = GPIO_NOPULL;
 1874              		.loc 1 689 24
 1875 0138 0023     		movs	r3, #0
 1876 013a 7B62     		str	r3, [r7, #36]
 690:Core/Src/main.c ****   GPIO_InitStruct.Speed = GPIO_SPEED_FREQ_LOW;
 1877              		.loc 1 690 25
 1878 013c 0023     		movs	r3, #0
 1879 013e BB62     		str	r3, [r7, #40]
 691:Core/Src/main.c ****   HAL_GPIO_Init(GPIOF, &GPIO_InitStruct);
 1880              		.loc 1 691 3
ARM GAS  C:\Users\Morroway\AppData\Local\Temp\ccHeORmJ.s 			page 46


 1881 0140 07F11C03 		add	r3, r7, #28
 1882 0144 1946     		mov	r1, r3
 1883 0146 2748     		ldr	r0, .L88+4
 1884 0148 FFF7FEFF 		bl	HAL_GPIO_Init
 692:Core/Src/main.c **** 
 693:Core/Src/main.c ****   /*Configure GPIO pin : PA7 */
 694:Core/Src/main.c ****   GPIO_InitStruct.Pin = GPIO_PIN_7;
 1885              		.loc 1 694 23
 1886 014c 8023     		movs	r3, #128
 1887 014e FB61     		str	r3, [r7, #28]
 695:Core/Src/main.c ****   GPIO_InitStruct.Mode = GPIO_MODE_OUTPUT_PP;
 1888              		.loc 1 695 24
 1889 0150 0123     		movs	r3, #1
 1890 0152 3B62     		str	r3, [r7, #32]
 696:Core/Src/main.c ****   GPIO_InitStruct.Pull = GPIO_NOPULL;
 1891              		.loc 1 696 24
 1892 0154 0023     		movs	r3, #0
 1893 0156 7B62     		str	r3, [r7, #36]
 697:Core/Src/main.c ****   GPIO_InitStruct.Speed = GPIO_SPEED_FREQ_LOW;
 1894              		.loc 1 697 25
 1895 0158 0023     		movs	r3, #0
 1896 015a BB62     		str	r3, [r7, #40]
 698:Core/Src/main.c ****   HAL_GPIO_Init(GPIOA, &GPIO_InitStruct);
 1897              		.loc 1 698 3
 1898 015c 07F11C03 		add	r3, r7, #28
 1899 0160 1946     		mov	r1, r3
 1900 0162 4FF09040 		mov	r0, #1207959552
 1901 0166 FFF7FEFF 		bl	HAL_GPIO_Init
 699:Core/Src/main.c **** 
 700:Core/Src/main.c ****   /*Configure GPIO pins : PB0 PB1 LD3_Pin LD2_Pin */
 701:Core/Src/main.c ****   GPIO_InitStruct.Pin = GPIO_PIN_0 | GPIO_PIN_1 | LD3_Pin | LD2_Pin;
 1902              		.loc 1 701 23
 1903 016a 44F28303 		movw	r3, #16515
 1904 016e FB61     		str	r3, [r7, #28]
 702:Core/Src/main.c ****   GPIO_InitStruct.Mode = GPIO_MODE_OUTPUT_PP;
 1905              		.loc 1 702 24
 1906 0170 0123     		movs	r3, #1
 1907 0172 3B62     		str	r3, [r7, #32]
 703:Core/Src/main.c ****   GPIO_InitStruct.Pull = GPIO_NOPULL;
 1908              		.loc 1 703 24
 1909 0174 0023     		movs	r3, #0
 1910 0176 7B62     		str	r3, [r7, #36]
 704:Core/Src/main.c ****   GPIO_InitStruct.Speed = GPIO_SPEED_FREQ_LOW;
 1911              		.loc 1 704 25
 1912 0178 0023     		movs	r3, #0
 1913 017a BB62     		str	r3, [r7, #40]
 705:Core/Src/main.c ****   HAL_GPIO_Init(GPIOB, &GPIO_InitStruct);
 1914              		.loc 1 705 3
 1915 017c 07F11C03 		add	r3, r7, #28
 1916 0180 1946     		mov	r1, r3
 1917 0182 1948     		ldr	r0, .L88+8
 1918 0184 FFF7FEFF 		bl	HAL_GPIO_Init
 706:Core/Src/main.c **** 
 707:Core/Src/main.c ****   /*Configure GPIO pin : USB_OverCurrent_Pin */
 708:Core/Src/main.c ****   GPIO_InitStruct.Pin = USB_OverCurrent_Pin;
 1919              		.loc 1 708 23
 1920 0188 2023     		movs	r3, #32
ARM GAS  C:\Users\Morroway\AppData\Local\Temp\ccHeORmJ.s 			page 47


 1921 018a FB61     		str	r3, [r7, #28]
 709:Core/Src/main.c ****   GPIO_InitStruct.Mode = GPIO_MODE_INPUT;
 1922              		.loc 1 709 24
 1923 018c 0023     		movs	r3, #0
 1924 018e 3B62     		str	r3, [r7, #32]
 710:Core/Src/main.c ****   GPIO_InitStruct.Pull = GPIO_NOPULL;
 1925              		.loc 1 710 24
 1926 0190 0023     		movs	r3, #0
 1927 0192 7B62     		str	r3, [r7, #36]
 711:Core/Src/main.c ****   HAL_GPIO_Init(USB_OverCurrent_GPIO_Port, &GPIO_InitStruct);
 1928              		.loc 1 711 3
 1929 0194 07F11C03 		add	r3, r7, #28
 1930 0198 1946     		mov	r1, r3
 1931 019a 1448     		ldr	r0, .L88+12
 1932 019c FFF7FEFF 		bl	HAL_GPIO_Init
 712:Core/Src/main.c **** 
 713:Core/Src/main.c ****   /*Configure GPIO pin : USB_PowerSwitchOn_Pin */
 714:Core/Src/main.c ****   GPIO_InitStruct.Pin = USB_PowerSwitchOn_Pin;
 1933              		.loc 1 714 23
 1934 01a0 4023     		movs	r3, #64
 1935 01a2 FB61     		str	r3, [r7, #28]
 715:Core/Src/main.c ****   GPIO_InitStruct.Mode = GPIO_MODE_OUTPUT_PP;
 1936              		.loc 1 715 24
 1937 01a4 0123     		movs	r3, #1
 1938 01a6 3B62     		str	r3, [r7, #32]
 716:Core/Src/main.c ****   GPIO_InitStruct.Pull = GPIO_NOPULL;
 1939              		.loc 1 716 24
 1940 01a8 0023     		movs	r3, #0
 1941 01aa 7B62     		str	r3, [r7, #36]
 717:Core/Src/main.c ****   GPIO_InitStruct.Speed = GPIO_SPEED_FREQ_LOW;
 1942              		.loc 1 717 25
 1943 01ac 0023     		movs	r3, #0
 1944 01ae BB62     		str	r3, [r7, #40]
 718:Core/Src/main.c ****   HAL_GPIO_Init(USB_PowerSwitchOn_GPIO_Port, &GPIO_InitStruct);
 1945              		.loc 1 718 3
 1946 01b0 07F11C03 		add	r3, r7, #28
 1947 01b4 1946     		mov	r1, r3
 1948 01b6 0D48     		ldr	r0, .L88+12
 1949 01b8 FFF7FEFF 		bl	HAL_GPIO_Init
 719:Core/Src/main.c **** 
 720:Core/Src/main.c ****   /*Configure GPIO pin : PC6 */
 721:Core/Src/main.c ****   GPIO_InitStruct.Pin = GPIO_PIN_6;
 1950              		.loc 1 721 23
 1951 01bc 4023     		movs	r3, #64
 1952 01be FB61     		str	r3, [r7, #28]
 722:Core/Src/main.c ****   GPIO_InitStruct.Mode = GPIO_MODE_OUTPUT_PP;
 1953              		.loc 1 722 24
 1954 01c0 0123     		movs	r3, #1
 1955 01c2 3B62     		str	r3, [r7, #32]
 723:Core/Src/main.c ****   GPIO_InitStruct.Pull = GPIO_NOPULL;
 1956              		.loc 1 723 24
 1957 01c4 0023     		movs	r3, #0
 1958 01c6 7B62     		str	r3, [r7, #36]
 724:Core/Src/main.c ****   GPIO_InitStruct.Speed = GPIO_SPEED_FREQ_LOW;
 1959              		.loc 1 724 25
 1960 01c8 0023     		movs	r3, #0
 1961 01ca BB62     		str	r3, [r7, #40]
ARM GAS  C:\Users\Morroway\AppData\Local\Temp\ccHeORmJ.s 			page 48


 725:Core/Src/main.c ****   HAL_GPIO_Init(GPIOC, &GPIO_InitStruct);
 1962              		.loc 1 725 3
 1963 01cc 07F11C03 		add	r3, r7, #28
 1964 01d0 1946     		mov	r1, r3
 1965 01d2 0748     		ldr	r0, .L88+16
 1966 01d4 FFF7FEFF 		bl	HAL_GPIO_Init
 726:Core/Src/main.c **** }
 1967              		.loc 1 726 1
 1968 01d8 00BF     		nop
 1969 01da 3037     		adds	r7, r7, #48
 1970              		.cfi_def_cfa_offset 8
 1971 01dc BD46     		mov	sp, r7
 1972              		.cfi_def_cfa_register 13
 1973              		@ sp needed
 1974 01de 80BD     		pop	{r7, pc}
 1975              	.L89:
 1976              		.align	2
 1977              	.L88:
 1978 01e0 00100240 		.word	1073876992
 1979 01e4 00140048 		.word	1207964672
 1980 01e8 00040048 		.word	1207960576
 1981 01ec 00180048 		.word	1207965696
 1982 01f0 00080048 		.word	1207961600
 1983              		.cfi_endproc
 1984              	.LFE339:
 1986              		.section	.text.Error_Handler,"ax",%progbits
 1987              		.align	1
 1988              		.global	Error_Handler
 1989              		.syntax unified
 1990              		.thumb
 1991              		.thumb_func
 1993              	Error_Handler:
 1994              	.LFB340:
 727:Core/Src/main.c **** 
 728:Core/Src/main.c **** /* USER CODE BEGIN 4 */
 729:Core/Src/main.c **** 
 730:Core/Src/main.c **** /* USER CODE END 4 */
 731:Core/Src/main.c **** 
 732:Core/Src/main.c **** /**
 733:Core/Src/main.c ****  * @brief  This function is executed in case of error occurrence.
 734:Core/Src/main.c ****  * @retval None
 735:Core/Src/main.c ****  */
 736:Core/Src/main.c **** void Error_Handler(void)
 737:Core/Src/main.c **** {
 1995              		.loc 1 737 1
 1996              		.cfi_startproc
 1997              		@ args = 0, pretend = 0, frame = 0
 1998              		@ frame_needed = 1, uses_anonymous_args = 0
 1999              		@ link register save eliminated.
 2000 0000 80B4     		push	{r7}
 2001              		.cfi_def_cfa_offset 4
 2002              		.cfi_offset 7, -4
 2003 0002 00AF     		add	r7, sp, #0
 2004              		.cfi_def_cfa_register 7
 2005              	.LBB13:
 2006              	.LBB14:
 2007              		.file 2 "Drivers/CMSIS/Include/cmsis_gcc.h"
ARM GAS  C:\Users\Morroway\AppData\Local\Temp\ccHeORmJ.s 			page 49


   1:Drivers/CMSIS/Include/cmsis_gcc.h **** /**************************************************************************//**
   2:Drivers/CMSIS/Include/cmsis_gcc.h ****  * @file     cmsis_gcc.h
   3:Drivers/CMSIS/Include/cmsis_gcc.h ****  * @brief    CMSIS compiler GCC header file
   4:Drivers/CMSIS/Include/cmsis_gcc.h ****  * @version  V5.2.0
   5:Drivers/CMSIS/Include/cmsis_gcc.h ****  * @date     08. May 2019
   6:Drivers/CMSIS/Include/cmsis_gcc.h ****  ******************************************************************************/
   7:Drivers/CMSIS/Include/cmsis_gcc.h **** /*
   8:Drivers/CMSIS/Include/cmsis_gcc.h ****  * Copyright (c) 2009-2019 Arm Limited. All rights reserved.
   9:Drivers/CMSIS/Include/cmsis_gcc.h ****  *
  10:Drivers/CMSIS/Include/cmsis_gcc.h ****  * SPDX-License-Identifier: Apache-2.0
  11:Drivers/CMSIS/Include/cmsis_gcc.h ****  *
  12:Drivers/CMSIS/Include/cmsis_gcc.h ****  * Licensed under the Apache License, Version 2.0 (the License); you may
  13:Drivers/CMSIS/Include/cmsis_gcc.h ****  * not use this file except in compliance with the License.
  14:Drivers/CMSIS/Include/cmsis_gcc.h ****  * You may obtain a copy of the License at
  15:Drivers/CMSIS/Include/cmsis_gcc.h ****  *
  16:Drivers/CMSIS/Include/cmsis_gcc.h ****  * www.apache.org/licenses/LICENSE-2.0
  17:Drivers/CMSIS/Include/cmsis_gcc.h ****  *
  18:Drivers/CMSIS/Include/cmsis_gcc.h ****  * Unless required by applicable law or agreed to in writing, software
  19:Drivers/CMSIS/Include/cmsis_gcc.h ****  * distributed under the License is distributed on an AS IS BASIS, WITHOUT
  20:Drivers/CMSIS/Include/cmsis_gcc.h ****  * WARRANTIES OR CONDITIONS OF ANY KIND, either express or implied.
  21:Drivers/CMSIS/Include/cmsis_gcc.h ****  * See the License for the specific language governing permissions and
  22:Drivers/CMSIS/Include/cmsis_gcc.h ****  * limitations under the License.
  23:Drivers/CMSIS/Include/cmsis_gcc.h ****  */
  24:Drivers/CMSIS/Include/cmsis_gcc.h **** 
  25:Drivers/CMSIS/Include/cmsis_gcc.h **** #ifndef __CMSIS_GCC_H
  26:Drivers/CMSIS/Include/cmsis_gcc.h **** #define __CMSIS_GCC_H
  27:Drivers/CMSIS/Include/cmsis_gcc.h **** 
  28:Drivers/CMSIS/Include/cmsis_gcc.h **** /* ignore some GCC warnings */
  29:Drivers/CMSIS/Include/cmsis_gcc.h **** #pragma GCC diagnostic push
  30:Drivers/CMSIS/Include/cmsis_gcc.h **** #pragma GCC diagnostic ignored "-Wsign-conversion"
  31:Drivers/CMSIS/Include/cmsis_gcc.h **** #pragma GCC diagnostic ignored "-Wconversion"
  32:Drivers/CMSIS/Include/cmsis_gcc.h **** #pragma GCC diagnostic ignored "-Wunused-parameter"
  33:Drivers/CMSIS/Include/cmsis_gcc.h **** 
  34:Drivers/CMSIS/Include/cmsis_gcc.h **** /* Fallback for __has_builtin */
  35:Drivers/CMSIS/Include/cmsis_gcc.h **** #ifndef __has_builtin
  36:Drivers/CMSIS/Include/cmsis_gcc.h ****   #define __has_builtin(x) (0)
  37:Drivers/CMSIS/Include/cmsis_gcc.h **** #endif
  38:Drivers/CMSIS/Include/cmsis_gcc.h **** 
  39:Drivers/CMSIS/Include/cmsis_gcc.h **** /* CMSIS compiler specific defines */
  40:Drivers/CMSIS/Include/cmsis_gcc.h **** #ifndef   __ASM
  41:Drivers/CMSIS/Include/cmsis_gcc.h ****   #define __ASM                                  __asm
  42:Drivers/CMSIS/Include/cmsis_gcc.h **** #endif
  43:Drivers/CMSIS/Include/cmsis_gcc.h **** #ifndef   __INLINE
  44:Drivers/CMSIS/Include/cmsis_gcc.h ****   #define __INLINE                               inline
  45:Drivers/CMSIS/Include/cmsis_gcc.h **** #endif
  46:Drivers/CMSIS/Include/cmsis_gcc.h **** #ifndef   __STATIC_INLINE
  47:Drivers/CMSIS/Include/cmsis_gcc.h ****   #define __STATIC_INLINE                        static inline
  48:Drivers/CMSIS/Include/cmsis_gcc.h **** #endif
  49:Drivers/CMSIS/Include/cmsis_gcc.h **** #ifndef   __STATIC_FORCEINLINE                 
  50:Drivers/CMSIS/Include/cmsis_gcc.h ****   #define __STATIC_FORCEINLINE                   __attribute__((always_inline)) static inline
  51:Drivers/CMSIS/Include/cmsis_gcc.h **** #endif                                           
  52:Drivers/CMSIS/Include/cmsis_gcc.h **** #ifndef   __NO_RETURN
  53:Drivers/CMSIS/Include/cmsis_gcc.h ****   #define __NO_RETURN                            __attribute__((__noreturn__))
  54:Drivers/CMSIS/Include/cmsis_gcc.h **** #endif
  55:Drivers/CMSIS/Include/cmsis_gcc.h **** #ifndef   __USED
  56:Drivers/CMSIS/Include/cmsis_gcc.h ****   #define __USED                                 __attribute__((used))
  57:Drivers/CMSIS/Include/cmsis_gcc.h **** #endif
ARM GAS  C:\Users\Morroway\AppData\Local\Temp\ccHeORmJ.s 			page 50


  58:Drivers/CMSIS/Include/cmsis_gcc.h **** #ifndef   __WEAK
  59:Drivers/CMSIS/Include/cmsis_gcc.h ****   #define __WEAK                                 __attribute__((weak))
  60:Drivers/CMSIS/Include/cmsis_gcc.h **** #endif
  61:Drivers/CMSIS/Include/cmsis_gcc.h **** #ifndef   __PACKED
  62:Drivers/CMSIS/Include/cmsis_gcc.h ****   #define __PACKED                               __attribute__((packed, aligned(1)))
  63:Drivers/CMSIS/Include/cmsis_gcc.h **** #endif
  64:Drivers/CMSIS/Include/cmsis_gcc.h **** #ifndef   __PACKED_STRUCT
  65:Drivers/CMSIS/Include/cmsis_gcc.h ****   #define __PACKED_STRUCT                        struct __attribute__((packed, aligned(1)))
  66:Drivers/CMSIS/Include/cmsis_gcc.h **** #endif
  67:Drivers/CMSIS/Include/cmsis_gcc.h **** #ifndef   __PACKED_UNION
  68:Drivers/CMSIS/Include/cmsis_gcc.h ****   #define __PACKED_UNION                         union __attribute__((packed, aligned(1)))
  69:Drivers/CMSIS/Include/cmsis_gcc.h **** #endif
  70:Drivers/CMSIS/Include/cmsis_gcc.h **** #ifndef   __UNALIGNED_UINT32        /* deprecated */
  71:Drivers/CMSIS/Include/cmsis_gcc.h ****   #pragma GCC diagnostic push
  72:Drivers/CMSIS/Include/cmsis_gcc.h ****   #pragma GCC diagnostic ignored "-Wpacked"
  73:Drivers/CMSIS/Include/cmsis_gcc.h ****   #pragma GCC diagnostic ignored "-Wattributes"
  74:Drivers/CMSIS/Include/cmsis_gcc.h ****   struct __attribute__((packed)) T_UINT32 { uint32_t v; };
  75:Drivers/CMSIS/Include/cmsis_gcc.h ****   #pragma GCC diagnostic pop
  76:Drivers/CMSIS/Include/cmsis_gcc.h ****   #define __UNALIGNED_UINT32(x)                  (((struct T_UINT32 *)(x))->v)
  77:Drivers/CMSIS/Include/cmsis_gcc.h **** #endif
  78:Drivers/CMSIS/Include/cmsis_gcc.h **** #ifndef   __UNALIGNED_UINT16_WRITE
  79:Drivers/CMSIS/Include/cmsis_gcc.h ****   #pragma GCC diagnostic push
  80:Drivers/CMSIS/Include/cmsis_gcc.h ****   #pragma GCC diagnostic ignored "-Wpacked"
  81:Drivers/CMSIS/Include/cmsis_gcc.h ****   #pragma GCC diagnostic ignored "-Wattributes"
  82:Drivers/CMSIS/Include/cmsis_gcc.h ****   __PACKED_STRUCT T_UINT16_WRITE { uint16_t v; };
  83:Drivers/CMSIS/Include/cmsis_gcc.h ****   #pragma GCC diagnostic pop
  84:Drivers/CMSIS/Include/cmsis_gcc.h ****   #define __UNALIGNED_UINT16_WRITE(addr, val)    (void)((((struct T_UINT16_WRITE *)(void *)(addr))-
  85:Drivers/CMSIS/Include/cmsis_gcc.h **** #endif
  86:Drivers/CMSIS/Include/cmsis_gcc.h **** #ifndef   __UNALIGNED_UINT16_READ
  87:Drivers/CMSIS/Include/cmsis_gcc.h ****   #pragma GCC diagnostic push
  88:Drivers/CMSIS/Include/cmsis_gcc.h ****   #pragma GCC diagnostic ignored "-Wpacked"
  89:Drivers/CMSIS/Include/cmsis_gcc.h ****   #pragma GCC diagnostic ignored "-Wattributes"
  90:Drivers/CMSIS/Include/cmsis_gcc.h ****   __PACKED_STRUCT T_UINT16_READ { uint16_t v; };
  91:Drivers/CMSIS/Include/cmsis_gcc.h ****   #pragma GCC diagnostic pop
  92:Drivers/CMSIS/Include/cmsis_gcc.h ****   #define __UNALIGNED_UINT16_READ(addr)          (((const struct T_UINT16_READ *)(const void *)(add
  93:Drivers/CMSIS/Include/cmsis_gcc.h **** #endif
  94:Drivers/CMSIS/Include/cmsis_gcc.h **** #ifndef   __UNALIGNED_UINT32_WRITE
  95:Drivers/CMSIS/Include/cmsis_gcc.h ****   #pragma GCC diagnostic push
  96:Drivers/CMSIS/Include/cmsis_gcc.h ****   #pragma GCC diagnostic ignored "-Wpacked"
  97:Drivers/CMSIS/Include/cmsis_gcc.h ****   #pragma GCC diagnostic ignored "-Wattributes"
  98:Drivers/CMSIS/Include/cmsis_gcc.h ****   __PACKED_STRUCT T_UINT32_WRITE { uint32_t v; };
  99:Drivers/CMSIS/Include/cmsis_gcc.h ****   #pragma GCC diagnostic pop
 100:Drivers/CMSIS/Include/cmsis_gcc.h ****   #define __UNALIGNED_UINT32_WRITE(addr, val)    (void)((((struct T_UINT32_WRITE *)(void *)(addr))-
 101:Drivers/CMSIS/Include/cmsis_gcc.h **** #endif
 102:Drivers/CMSIS/Include/cmsis_gcc.h **** #ifndef   __UNALIGNED_UINT32_READ
 103:Drivers/CMSIS/Include/cmsis_gcc.h ****   #pragma GCC diagnostic push
 104:Drivers/CMSIS/Include/cmsis_gcc.h ****   #pragma GCC diagnostic ignored "-Wpacked"
 105:Drivers/CMSIS/Include/cmsis_gcc.h ****   #pragma GCC diagnostic ignored "-Wattributes"
 106:Drivers/CMSIS/Include/cmsis_gcc.h ****   __PACKED_STRUCT T_UINT32_READ { uint32_t v; };
 107:Drivers/CMSIS/Include/cmsis_gcc.h ****   #pragma GCC diagnostic pop
 108:Drivers/CMSIS/Include/cmsis_gcc.h ****   #define __UNALIGNED_UINT32_READ(addr)          (((const struct T_UINT32_READ *)(const void *)(add
 109:Drivers/CMSIS/Include/cmsis_gcc.h **** #endif
 110:Drivers/CMSIS/Include/cmsis_gcc.h **** #ifndef   __ALIGNED
 111:Drivers/CMSIS/Include/cmsis_gcc.h ****   #define __ALIGNED(x)                           __attribute__((aligned(x)))
 112:Drivers/CMSIS/Include/cmsis_gcc.h **** #endif
 113:Drivers/CMSIS/Include/cmsis_gcc.h **** #ifndef   __RESTRICT
 114:Drivers/CMSIS/Include/cmsis_gcc.h ****   #define __RESTRICT                             __restrict
ARM GAS  C:\Users\Morroway\AppData\Local\Temp\ccHeORmJ.s 			page 51


 115:Drivers/CMSIS/Include/cmsis_gcc.h **** #endif
 116:Drivers/CMSIS/Include/cmsis_gcc.h **** #ifndef   __COMPILER_BARRIER
 117:Drivers/CMSIS/Include/cmsis_gcc.h ****   #define __COMPILER_BARRIER()                   __ASM volatile("":::"memory")
 118:Drivers/CMSIS/Include/cmsis_gcc.h **** #endif
 119:Drivers/CMSIS/Include/cmsis_gcc.h **** 
 120:Drivers/CMSIS/Include/cmsis_gcc.h **** /* #########################  Startup and Lowlevel Init  ######################## */
 121:Drivers/CMSIS/Include/cmsis_gcc.h **** 
 122:Drivers/CMSIS/Include/cmsis_gcc.h **** #ifndef __PROGRAM_START
 123:Drivers/CMSIS/Include/cmsis_gcc.h **** 
 124:Drivers/CMSIS/Include/cmsis_gcc.h **** /**
 125:Drivers/CMSIS/Include/cmsis_gcc.h ****   \brief   Initializes data and bss sections
 126:Drivers/CMSIS/Include/cmsis_gcc.h ****   \details This default implementations initialized all data and additional bss
 127:Drivers/CMSIS/Include/cmsis_gcc.h ****            sections relying on .copy.table and .zero.table specified properly
 128:Drivers/CMSIS/Include/cmsis_gcc.h ****            in the used linker script.
 129:Drivers/CMSIS/Include/cmsis_gcc.h ****   
 130:Drivers/CMSIS/Include/cmsis_gcc.h ****  */
 131:Drivers/CMSIS/Include/cmsis_gcc.h **** __STATIC_FORCEINLINE __NO_RETURN void __cmsis_start(void)
 132:Drivers/CMSIS/Include/cmsis_gcc.h **** {
 133:Drivers/CMSIS/Include/cmsis_gcc.h ****   extern void _start(void) __NO_RETURN;
 134:Drivers/CMSIS/Include/cmsis_gcc.h ****   
 135:Drivers/CMSIS/Include/cmsis_gcc.h ****   typedef struct {
 136:Drivers/CMSIS/Include/cmsis_gcc.h ****     uint32_t const* src;
 137:Drivers/CMSIS/Include/cmsis_gcc.h ****     uint32_t* dest;
 138:Drivers/CMSIS/Include/cmsis_gcc.h ****     uint32_t  wlen;
 139:Drivers/CMSIS/Include/cmsis_gcc.h ****   } __copy_table_t;
 140:Drivers/CMSIS/Include/cmsis_gcc.h ****   
 141:Drivers/CMSIS/Include/cmsis_gcc.h ****   typedef struct {
 142:Drivers/CMSIS/Include/cmsis_gcc.h ****     uint32_t* dest;
 143:Drivers/CMSIS/Include/cmsis_gcc.h ****     uint32_t  wlen;
 144:Drivers/CMSIS/Include/cmsis_gcc.h ****   } __zero_table_t;
 145:Drivers/CMSIS/Include/cmsis_gcc.h ****   
 146:Drivers/CMSIS/Include/cmsis_gcc.h ****   extern const __copy_table_t __copy_table_start__;
 147:Drivers/CMSIS/Include/cmsis_gcc.h ****   extern const __copy_table_t __copy_table_end__;
 148:Drivers/CMSIS/Include/cmsis_gcc.h ****   extern const __zero_table_t __zero_table_start__;
 149:Drivers/CMSIS/Include/cmsis_gcc.h ****   extern const __zero_table_t __zero_table_end__;
 150:Drivers/CMSIS/Include/cmsis_gcc.h **** 
 151:Drivers/CMSIS/Include/cmsis_gcc.h ****   for (__copy_table_t const* pTable = &__copy_table_start__; pTable < &__copy_table_end__; ++pTable
 152:Drivers/CMSIS/Include/cmsis_gcc.h ****     for(uint32_t i=0u; i<pTable->wlen; ++i) {
 153:Drivers/CMSIS/Include/cmsis_gcc.h ****       pTable->dest[i] = pTable->src[i];
 154:Drivers/CMSIS/Include/cmsis_gcc.h ****     }
 155:Drivers/CMSIS/Include/cmsis_gcc.h ****   }
 156:Drivers/CMSIS/Include/cmsis_gcc.h ****  
 157:Drivers/CMSIS/Include/cmsis_gcc.h ****   for (__zero_table_t const* pTable = &__zero_table_start__; pTable < &__zero_table_end__; ++pTable
 158:Drivers/CMSIS/Include/cmsis_gcc.h ****     for(uint32_t i=0u; i<pTable->wlen; ++i) {
 159:Drivers/CMSIS/Include/cmsis_gcc.h ****       pTable->dest[i] = 0u;
 160:Drivers/CMSIS/Include/cmsis_gcc.h ****     }
 161:Drivers/CMSIS/Include/cmsis_gcc.h ****   }
 162:Drivers/CMSIS/Include/cmsis_gcc.h ****  
 163:Drivers/CMSIS/Include/cmsis_gcc.h ****   _start();
 164:Drivers/CMSIS/Include/cmsis_gcc.h **** }
 165:Drivers/CMSIS/Include/cmsis_gcc.h ****   
 166:Drivers/CMSIS/Include/cmsis_gcc.h **** #define __PROGRAM_START           __cmsis_start
 167:Drivers/CMSIS/Include/cmsis_gcc.h **** #endif
 168:Drivers/CMSIS/Include/cmsis_gcc.h **** 
 169:Drivers/CMSIS/Include/cmsis_gcc.h **** #ifndef __INITIAL_SP
 170:Drivers/CMSIS/Include/cmsis_gcc.h **** #define __INITIAL_SP              __StackTop
 171:Drivers/CMSIS/Include/cmsis_gcc.h **** #endif
ARM GAS  C:\Users\Morroway\AppData\Local\Temp\ccHeORmJ.s 			page 52


 172:Drivers/CMSIS/Include/cmsis_gcc.h **** 
 173:Drivers/CMSIS/Include/cmsis_gcc.h **** #ifndef __STACK_LIMIT
 174:Drivers/CMSIS/Include/cmsis_gcc.h **** #define __STACK_LIMIT             __StackLimit
 175:Drivers/CMSIS/Include/cmsis_gcc.h **** #endif
 176:Drivers/CMSIS/Include/cmsis_gcc.h **** 
 177:Drivers/CMSIS/Include/cmsis_gcc.h **** #ifndef __VECTOR_TABLE
 178:Drivers/CMSIS/Include/cmsis_gcc.h **** #define __VECTOR_TABLE            __Vectors
 179:Drivers/CMSIS/Include/cmsis_gcc.h **** #endif
 180:Drivers/CMSIS/Include/cmsis_gcc.h **** 
 181:Drivers/CMSIS/Include/cmsis_gcc.h **** #ifndef __VECTOR_TABLE_ATTRIBUTE
 182:Drivers/CMSIS/Include/cmsis_gcc.h **** #define __VECTOR_TABLE_ATTRIBUTE  __attribute((used, section(".vectors")))
 183:Drivers/CMSIS/Include/cmsis_gcc.h **** #endif
 184:Drivers/CMSIS/Include/cmsis_gcc.h **** 
 185:Drivers/CMSIS/Include/cmsis_gcc.h **** /* ###########################  Core Function Access  ########################### */
 186:Drivers/CMSIS/Include/cmsis_gcc.h **** /** \ingroup  CMSIS_Core_FunctionInterface
 187:Drivers/CMSIS/Include/cmsis_gcc.h ****     \defgroup CMSIS_Core_RegAccFunctions CMSIS Core Register Access Functions
 188:Drivers/CMSIS/Include/cmsis_gcc.h ****   @{
 189:Drivers/CMSIS/Include/cmsis_gcc.h ****  */
 190:Drivers/CMSIS/Include/cmsis_gcc.h **** 
 191:Drivers/CMSIS/Include/cmsis_gcc.h **** /**
 192:Drivers/CMSIS/Include/cmsis_gcc.h ****   \brief   Enable IRQ Interrupts
 193:Drivers/CMSIS/Include/cmsis_gcc.h ****   \details Enables IRQ interrupts by clearing the I-bit in the CPSR.
 194:Drivers/CMSIS/Include/cmsis_gcc.h ****            Can only be executed in Privileged modes.
 195:Drivers/CMSIS/Include/cmsis_gcc.h ****  */
 196:Drivers/CMSIS/Include/cmsis_gcc.h **** __STATIC_FORCEINLINE void __enable_irq(void)
 197:Drivers/CMSIS/Include/cmsis_gcc.h **** {
 198:Drivers/CMSIS/Include/cmsis_gcc.h ****   __ASM volatile ("cpsie i" : : : "memory");
 199:Drivers/CMSIS/Include/cmsis_gcc.h **** }
 200:Drivers/CMSIS/Include/cmsis_gcc.h **** 
 201:Drivers/CMSIS/Include/cmsis_gcc.h **** 
 202:Drivers/CMSIS/Include/cmsis_gcc.h **** /**
 203:Drivers/CMSIS/Include/cmsis_gcc.h ****   \brief   Disable IRQ Interrupts
 204:Drivers/CMSIS/Include/cmsis_gcc.h ****   \details Disables IRQ interrupts by setting the I-bit in the CPSR.
 205:Drivers/CMSIS/Include/cmsis_gcc.h ****            Can only be executed in Privileged modes.
 206:Drivers/CMSIS/Include/cmsis_gcc.h ****  */
 207:Drivers/CMSIS/Include/cmsis_gcc.h **** __STATIC_FORCEINLINE void __disable_irq(void)
 208:Drivers/CMSIS/Include/cmsis_gcc.h **** {
 209:Drivers/CMSIS/Include/cmsis_gcc.h ****   __ASM volatile ("cpsid i" : : : "memory");
 2008              		.loc 2 209 3
 2009              		.syntax unified
 2010              	@ 209 "Drivers/CMSIS/Include/cmsis_gcc.h" 1
 2011 0004 72B6     		cpsid i
 2012              	@ 0 "" 2
 210:Drivers/CMSIS/Include/cmsis_gcc.h **** }
 2013              		.loc 2 210 1
 2014              		.thumb
 2015              		.syntax unified
 2016 0006 00BF     		nop
 2017              	.L91:
 2018              	.LBE14:
 2019              	.LBE13:
 738:Core/Src/main.c ****   /* USER CODE BEGIN Error_Handler_Debug */
 739:Core/Src/main.c ****   /* User can add his own implementation to report the HAL error return state */
 740:Core/Src/main.c ****   __disable_irq();
 741:Core/Src/main.c ****   while (1)
 2020              		.loc 1 741 9 discriminator 1
 2021 0008 FEE7     		b	.L91
ARM GAS  C:\Users\Morroway\AppData\Local\Temp\ccHeORmJ.s 			page 53


 2022              		.cfi_endproc
 2023              	.LFE340:
 2025              		.text
 2026              	.Letext0:
 2027              		.file 3 "Drivers/CMSIS/Device/ST/STM32L4xx/Include/stm32l4p5xx.h"
 2028              		.file 4 "c:\\users\\morroway\\appdata\\roaming\\code\\user\\globalstorage\\bmd.stm32-for-vscode\\@
 2029              		.file 5 "c:\\users\\morroway\\appdata\\roaming\\code\\user\\globalstorage\\bmd.stm32-for-vscode\\@
 2030              		.file 6 "Drivers/CMSIS/Device/ST/STM32L4xx/Include/stm32l4xx.h"
 2031              		.file 7 "c:\\users\\morroway\\appdata\\roaming\\code\\user\\globalstorage\\bmd.stm32-for-vscode\\@
 2032              		.file 8 "Drivers/STM32L4xx_HAL_Driver/Inc/stm32l4xx_hal_def.h"
 2033              		.file 9 "Drivers/STM32L4xx_HAL_Driver/Inc/stm32l4xx_hal_rcc.h"
 2034              		.file 10 "Drivers/STM32L4xx_HAL_Driver/Inc/stm32l4xx_hal_gpio.h"
 2035              		.file 11 "Drivers/STM32L4xx_HAL_Driver/Inc/stm32l4xx_hal_dma.h"
 2036              		.file 12 "Drivers/STM32L4xx_HAL_Driver/Inc/stm32l4xx_hal_adc.h"
 2037              		.file 13 "Drivers/STM32L4xx_HAL_Driver/Inc/stm32l4xx_hal_adc_ex.h"
 2038              		.file 14 "Drivers/STM32L4xx_HAL_Driver/Inc/stm32l4xx_ll_usb.h"
 2039              		.file 15 "Drivers/STM32L4xx_HAL_Driver/Inc/stm32l4xx_hal_pcd.h"
 2040              		.file 16 "Drivers/STM32L4xx_HAL_Driver/Inc/stm32l4xx_hal_tim.h"
 2041              		.file 17 "Drivers/STM32L4xx_HAL_Driver/Inc/stm32l4xx_hal_uart.h"
 2042              		.file 18 "Core/Inc/Parser.h"
 2043              		.file 19 "Core/Inc/GCodes.h"
 2044              		.file 20 "Core/Inc/main.h"
 2045              		.file 21 "Drivers/STM32L4xx_HAL_Driver/Inc/stm32l4xx_hal_cortex.h"
 2046              		.file 22 "Drivers/STM32L4xx_HAL_Driver/Inc/stm32l4xx_hal_tim_ex.h"
 2047              		.file 23 "Drivers/STM32L4xx_HAL_Driver/Inc/stm32l4xx_hal_uart_ex.h"
 2048              		.file 24 "Drivers/STM32L4xx_HAL_Driver/Inc/stm32l4xx_hal_pwr_ex.h"
 2049              		.file 25 "Drivers/STM32L4xx_HAL_Driver/Inc/stm32l4xx_hal.h"
 2050              		.file 26 "c:\\users\\morroway\\appdata\\roaming\\code\\user\\globalstorage\\bmd.stm32-for-vscode\\
 2051              		.file 27 "c:\\users\\morroway\\appdata\\roaming\\code\\user\\globalstorage\\bmd.stm32-for-vscode\\
 2052              		.file 28 "Core/Inc/Functions.h"
ARM GAS  C:\Users\Morroway\AppData\Local\Temp\ccHeORmJ.s 			page 54


DEFINED SYMBOLS
                            *ABS*:0000000000000000 main.c
C:\Users\Morroway\AppData\Local\Temp\ccHeORmJ.s:20     .bss.msg_buffer:0000000000000000 $d
C:\Users\Morroway\AppData\Local\Temp\ccHeORmJ.s:23     .bss.msg_buffer:0000000000000000 msg_buffer
C:\Users\Morroway\AppData\Local\Temp\ccHeORmJ.s:26     .bss.RxBuf:0000000000000000 $d
C:\Users\Morroway\AppData\Local\Temp\ccHeORmJ.s:29     .bss.RxBuf:0000000000000000 RxBuf
C:\Users\Morroway\AppData\Local\Temp\ccHeORmJ.s:36     .bss.hadc1:0000000000000000 hadc1
C:\Users\Morroway\AppData\Local\Temp\ccHeORmJ.s:33     .bss.hadc1:0000000000000000 $d
C:\Users\Morroway\AppData\Local\Temp\ccHeORmJ.s:43     .bss.hdma_adc1:0000000000000000 hdma_adc1
C:\Users\Morroway\AppData\Local\Temp\ccHeORmJ.s:40     .bss.hdma_adc1:0000000000000000 $d
C:\Users\Morroway\AppData\Local\Temp\ccHeORmJ.s:50     .bss.hlpuart1:0000000000000000 hlpuart1
C:\Users\Morroway\AppData\Local\Temp\ccHeORmJ.s:47     .bss.hlpuart1:0000000000000000 $d
C:\Users\Morroway\AppData\Local\Temp\ccHeORmJ.s:57     .bss.huart4:0000000000000000 huart4
C:\Users\Morroway\AppData\Local\Temp\ccHeORmJ.s:54     .bss.huart4:0000000000000000 $d
C:\Users\Morroway\AppData\Local\Temp\ccHeORmJ.s:64     .bss.hdma_lpuart1_rx:0000000000000000 hdma_lpuart1_rx
C:\Users\Morroway\AppData\Local\Temp\ccHeORmJ.s:61     .bss.hdma_lpuart1_rx:0000000000000000 $d
C:\Users\Morroway\AppData\Local\Temp\ccHeORmJ.s:71     .bss.htim3:0000000000000000 htim3
C:\Users\Morroway\AppData\Local\Temp\ccHeORmJ.s:68     .bss.htim3:0000000000000000 $d
C:\Users\Morroway\AppData\Local\Temp\ccHeORmJ.s:78     .bss.htim4:0000000000000000 htim4
C:\Users\Morroway\AppData\Local\Temp\ccHeORmJ.s:75     .bss.htim4:0000000000000000 $d
C:\Users\Morroway\AppData\Local\Temp\ccHeORmJ.s:85     .bss.htim5:0000000000000000 htim5
C:\Users\Morroway\AppData\Local\Temp\ccHeORmJ.s:82     .bss.htim5:0000000000000000 $d
C:\Users\Morroway\AppData\Local\Temp\ccHeORmJ.s:92     .bss.hpcd_USB_OTG_FS:0000000000000000 hpcd_USB_OTG_FS
C:\Users\Morroway\AppData\Local\Temp\ccHeORmJ.s:89     .bss.hpcd_USB_OTG_FS:0000000000000000 $d
C:\Users\Morroway\AppData\Local\Temp\ccHeORmJ.s:99     .bss.step:0000000000000000 step
C:\Users\Morroway\AppData\Local\Temp\ccHeORmJ.s:96     .bss.step:0000000000000000 $d
C:\Users\Morroway\AppData\Local\Temp\ccHeORmJ.s:106    .bss.last_time:0000000000000000 last_time
C:\Users\Morroway\AppData\Local\Temp\ccHeORmJ.s:103    .bss.last_time:0000000000000000 $d
C:\Users\Morroway\AppData\Local\Temp\ccHeORmJ.s:113    .bss.value:0000000000000000 value
C:\Users\Morroway\AppData\Local\Temp\ccHeORmJ.s:110    .bss.value:0000000000000000 $d
C:\Users\Morroway\AppData\Local\Temp\ccHeORmJ.s:116    .text.HAL_UARTEx_RxEventCallback:0000000000000000 $t
C:\Users\Morroway\AppData\Local\Temp\ccHeORmJ.s:122    .text.HAL_UARTEx_RxEventCallback:0000000000000000 HAL_UARTEx_RxEventCallback
C:\Users\Morroway\AppData\Local\Temp\ccHeORmJ.s:172    .text.HAL_UARTEx_RxEventCallback:0000000000000038 $d
C:\Users\Morroway\AppData\Local\Temp\ccHeORmJ.s:180    .text.DelayMicrosecond:0000000000000000 $t
C:\Users\Morroway\AppData\Local\Temp\ccHeORmJ.s:186    .text.DelayMicrosecond:0000000000000000 DelayMicrosecond
C:\Users\Morroway\AppData\Local\Temp\ccHeORmJ.s:233    .text.DelayMicrosecond:0000000000000030 $d
C:\Users\Morroway\AppData\Local\Temp\ccHeORmJ.s:238    .text.GetTicks:0000000000000000 $t
C:\Users\Morroway\AppData\Local\Temp\ccHeORmJ.s:244    .text.GetTicks:0000000000000000 GetTicks
C:\Users\Morroway\AppData\Local\Temp\ccHeORmJ.s:272    .text.GetTicks:0000000000000014 $d
C:\Users\Morroway\AppData\Local\Temp\ccHeORmJ.s:277    .rodata:0000000000000000 $d
C:\Users\Morroway\AppData\Local\Temp\ccHeORmJ.s:281    .text.print_temperature:0000000000000000 $t
C:\Users\Morroway\AppData\Local\Temp\ccHeORmJ.s:287    .text.print_temperature:0000000000000000 print_temperature
C:\Users\Morroway\AppData\Local\Temp\ccHeORmJ.s:337    .text.print_temperature:0000000000000048 $d
C:\Users\Morroway\AppData\Local\Temp\ccHeORmJ.s:345    .text.main:0000000000000000 $t
C:\Users\Morroway\AppData\Local\Temp\ccHeORmJ.s:351    .text.main:0000000000000000 main
C:\Users\Morroway\AppData\Local\Temp\ccHeORmJ.s:543    .text.SystemClock_Config:0000000000000000 SystemClock_Config
C:\Users\Morroway\AppData\Local\Temp\ccHeORmJ.s:1700   .text.MX_GPIO_Init:0000000000000000 MX_GPIO_Init
C:\Users\Morroway\AppData\Local\Temp\ccHeORmJ.s:1623   .text.MX_DMA_Init:0000000000000000 MX_DMA_Init
C:\Users\Morroway\AppData\Local\Temp\ccHeORmJ.s:893    .text.MX_LPUART1_UART_Init:0000000000000000 MX_LPUART1_UART_Init
C:\Users\Morroway\AppData\Local\Temp\ccHeORmJ.s:1549   .text.MX_USB_OTG_FS_PCD_Init:0000000000000000 MX_USB_OTG_FS_PCD_Init
C:\Users\Morroway\AppData\Local\Temp\ccHeORmJ.s:1317   .text.MX_TIM4_Init:0000000000000000 MX_TIM4_Init
C:\Users\Morroway\AppData\Local\Temp\ccHeORmJ.s:1012   .text.MX_UART4_Init:0000000000000000 MX_UART4_Init
C:\Users\Morroway\AppData\Local\Temp\ccHeORmJ.s:1127   .text.MX_TIM3_Init:0000000000000000 MX_TIM3_Init
C:\Users\Morroway\AppData\Local\Temp\ccHeORmJ.s:672    .text.MX_ADC1_Init:0000000000000000 MX_ADC1_Init
C:\Users\Morroway\AppData\Local\Temp\ccHeORmJ.s:1433   .text.MX_TIM5_Init:0000000000000000 MX_TIM5_Init
C:\Users\Morroway\AppData\Local\Temp\ccHeORmJ.s:520    .text.main:0000000000000118 $d
C:\Users\Morroway\AppData\Local\Temp\ccHeORmJ.s:537    .text.SystemClock_Config:0000000000000000 $t
ARM GAS  C:\Users\Morroway\AppData\Local\Temp\ccHeORmJ.s 			page 55


C:\Users\Morroway\AppData\Local\Temp\ccHeORmJ.s:1993   .text.Error_Handler:0000000000000000 Error_Handler
C:\Users\Morroway\AppData\Local\Temp\ccHeORmJ.s:667    .text.MX_ADC1_Init:0000000000000000 $t
C:\Users\Morroway\AppData\Local\Temp\ccHeORmJ.s:879    .text.MX_ADC1_Init:0000000000000130 $d
C:\Users\Morroway\AppData\Local\Temp\ccHeORmJ.s:888    .text.MX_LPUART1_UART_Init:0000000000000000 $t
C:\Users\Morroway\AppData\Local\Temp\ccHeORmJ.s:1001   .text.MX_LPUART1_UART_Init:0000000000000098 $d
C:\Users\Morroway\AppData\Local\Temp\ccHeORmJ.s:1007   .text.MX_UART4_Init:0000000000000000 $t
C:\Users\Morroway\AppData\Local\Temp\ccHeORmJ.s:1116   .text.MX_UART4_Init:0000000000000090 $d
C:\Users\Morroway\AppData\Local\Temp\ccHeORmJ.s:1122   .text.MX_TIM3_Init:0000000000000000 $t
C:\Users\Morroway\AppData\Local\Temp\ccHeORmJ.s:1306   .text.MX_TIM3_Init:0000000000000110 $d
C:\Users\Morroway\AppData\Local\Temp\ccHeORmJ.s:1312   .text.MX_TIM4_Init:0000000000000000 $t
C:\Users\Morroway\AppData\Local\Temp\ccHeORmJ.s:1422   .text.MX_TIM4_Init:0000000000000094 $d
C:\Users\Morroway\AppData\Local\Temp\ccHeORmJ.s:1428   .text.MX_TIM5_Init:0000000000000000 $t
C:\Users\Morroway\AppData\Local\Temp\ccHeORmJ.s:1538   .text.MX_TIM5_Init:0000000000000094 $d
C:\Users\Morroway\AppData\Local\Temp\ccHeORmJ.s:1544   .text.MX_USB_OTG_FS_PCD_Init:0000000000000000 $t
C:\Users\Morroway\AppData\Local\Temp\ccHeORmJ.s:1613   .text.MX_USB_OTG_FS_PCD_Init:0000000000000050 $d
C:\Users\Morroway\AppData\Local\Temp\ccHeORmJ.s:1618   .text.MX_DMA_Init:0000000000000000 $t
C:\Users\Morroway\AppData\Local\Temp\ccHeORmJ.s:1690   .text.MX_DMA_Init:0000000000000060 $d
C:\Users\Morroway\AppData\Local\Temp\ccHeORmJ.s:1695   .text.MX_GPIO_Init:0000000000000000 $t
C:\Users\Morroway\AppData\Local\Temp\ccHeORmJ.s:1978   .text.MX_GPIO_Init:00000000000001e0 $d
C:\Users\Morroway\AppData\Local\Temp\ccHeORmJ.s:1987   .text.Error_Handler:0000000000000000 $t

UNDEFINED SYMBOLS
HAL_UARTEx_ReceiveToIdle_DMA
GetTemperature
sprintf
strlen
HAL_UART_Transmit
HAL_Init
HAL_TIM_PWM_Start
HAL_ADC_Start_DMA
HAL_TIM_Base_Start
memset
reset_args
HAL_Delay
get_command
HAL_GetTick
M105
HAL_GPIO_ReadPin
HAL_GPIO_WritePin
G0
M104
isRunning
interval
HAL_PWREx_ControlVoltageScaling
HAL_RCC_OscConfig
HAL_RCC_ClockConfig
HAL_ADC_Init
HAL_ADCEx_MultiModeConfigChannel
HAL_ADC_ConfigChannel
HAL_UART_Init
HAL_UARTEx_SetTxFifoThreshold
HAL_UARTEx_SetRxFifoThreshold
HAL_UARTEx_DisableFifoMode
HAL_TIM_Base_Init
HAL_TIM_ConfigClockSource
HAL_TIM_PWM_Init
HAL_TIMEx_MasterConfigSynchronization
ARM GAS  C:\Users\Morroway\AppData\Local\Temp\ccHeORmJ.s 			page 56


HAL_TIM_PWM_ConfigChannel
HAL_TIM_MspPostInit
HAL_PCD_Init
HAL_NVIC_SetPriority
HAL_NVIC_EnableIRQ
HAL_PWREx_EnableVddIO2
HAL_GPIO_Init
