ARM GAS  C:\Users\Morroway\AppData\Local\Temp\ccSn7seF.s 			page 1


   1              		.cpu cortex-m4
   2              		.arch armv7e-m
   3              		.fpu fpv4-sp-d16
   4              		.eabi_attribute 27, 1
   5              		.eabi_attribute 28, 1
   6              		.eabi_attribute 20, 1
   7              		.eabi_attribute 21, 1
   8              		.eabi_attribute 23, 3
   9              		.eabi_attribute 24, 1
  10              		.eabi_attribute 25, 1
  11              		.eabi_attribute 26, 1
  12              		.eabi_attribute 30, 6
  13              		.eabi_attribute 34, 1
  14              		.eabi_attribute 18, 4
  15              		.file	"main.c"
  16              		.text
  17              	.Ltext0:
  18              		.cfi_sections	.debug_frame
  19              		.section	.bss.msg_buffer,"aw",%nobits
  20              		.align	2
  23              	msg_buffer:
  24 0000 00000000 		.space	30
  24      00000000 
  24      00000000 
  24      00000000 
  24      00000000 
  25              		.section	.bss.RxBuf,"aw",%nobits
  26              		.align	2
  29              	RxBuf:
  30 0000 00000000 		.space	40
  30      00000000 
  30      00000000 
  30      00000000 
  30      00000000 
  31              		.section	.rodata.font,"a"
  32              		.align	2
  35              	font:
  36 0000 00000000 		.ascii	"\000\000\000\000\000\000"
  36      0000
  37 0006 5C000000 		.ascii	"\\\000\000\000\000\000"
  37      0000
  38 000c 06000600 		.ascii	"\006\000\006\000\000\000"
  38      0000
  39 0012 287C287C 		.ascii	"(|(|(\000"
  39      2800
  40 0018 5C54FE54 		.ascii	"\\T\376Tt\000"
  40      7400
  41 001e 44201008 		.ascii	"D \020\010D\000"
  41      4400
  42 0024 28545420 		.ascii	"(TT P\000"
  42      5000
  43 002a 06000000 		.ascii	"\006\000\000\000\000\000"
  43      0000
  44 0030 38440000 		.ascii	"8D\000\000\000\000"
  44      0000
  45 0036 44380000 		.ascii	"D8\000\000\000\000"
  45      0000
ARM GAS  C:\Users\Morroway\AppData\Local\Temp\ccSn7seF.s 			page 2


  46 003c 02070200 		.ascii	"\002\007\002\000\000\000"
  46      0000
  47 0042 10107C10 		.ascii	"\020\020|\020\020\000"
  47      1000
  48 0048 C0000000 		.ascii	"\300\000\000\000\000\000"
  48      0000
  49 004e 10101010 		.ascii	"\020\020\020\020\020\000"
  49      1000
  50 0054 40000000 		.ascii	"@\000\000\000\000\000"
  50      0000
  51 005a 60100C00 		.ascii	"`\020\014\000\000\000"
  51      0000
  52 0060 7C64544C 		.ascii	"|dTL|\000"
  52      7C00
  53 0066 487C4000 		.ascii	"H|@\000\000\000"
  53      0000
  54 006c 64545454 		.ascii	"dTTTH\000"
  54      4800
  55 0072 44545454 		.ascii	"DTTTl\000"
  55      6C00
  56 0078 3C207020 		.ascii	"< p  \000"
  56      2000
  57 007e 5C545454 		.ascii	"\\TTT$\000"
  57      2400
  58 0084 7C545454 		.ascii	"|TTTt\000"
  58      7400
  59 008a 04046414 		.ascii	"\004\004d\024\014\000"
  59      0C00
  60 0090 7C545454 		.ascii	"|TTT|\000"
  60      7C00
  61 0096 5C545454 		.ascii	"\\TTT|\000"
  61      7C00
  62 009c 44000000 		.ascii	"D\000\000\000\000\000"
  62      0000
  63 00a2 C4000000 		.ascii	"\304\000\000\000\000\000"
  63      0000
  64 00a8 10284400 		.ascii	"\020(D\000\000\000"
  64      0000
  65 00ae 28282828 		.ascii	"(((((\000"
  65      2800
  66 00b4 44281000 		.ascii	"D(\020\000\000\000"
  66      0000
  67 00ba 08045408 		.ascii	"\010\004T\010\000\000"
  67      0000
  68 00c0 7C445454 		.ascii	"|DTT\\\000"
  68      5C00
  69 00c6 7C242424 		.ascii	"|$$$|\000"
  69      7C00
  70 00cc 7C545454 		.ascii	"|TTTl\000"
  70      6C00
  71 00d2 7C444444 		.ascii	"|DDDD\000"
  71      4400
  72 00d8 7C444444 		.ascii	"|DDD8\000"
  72      3800
  73 00de 7C545454 		.ascii	"|TTTD\000"
  73      4400
  74 00e4 7C141414 		.ascii	"|\024\024\024\004\000"
ARM GAS  C:\Users\Morroway\AppData\Local\Temp\ccSn7seF.s 			page 3


  74      0400
  75 00ea 7C444454 		.ascii	"|DDTt\000"
  75      7400
  76 00f0 7C101010 		.ascii	"|\020\020\020|\000"
  76      7C00
  77 00f6 44447C44 		.ascii	"DD|DD\000"
  77      4400
  78 00fc 60404044 		.ascii	"`@@D|\000"
  78      7C00
  79 0102 7C101028 		.ascii	"|\020\020(D\000"
  79      4400
  80 0108 7C404040 		.ascii	"|@@@@\000"
  80      4000
  81 010e 7C081008 		.ascii	"|\010\020\010|\000"
  81      7C00
  82 0114 7C081020 		.ascii	"|\010\020 |\000"
  82      7C00
  83 011a 38444444 		.ascii	"8DDD8\000"
  83      3800
  84 0120 7C141414 		.ascii	"|\024\024\024\010\000"
  84      0800
  85 0126 3C246424 		.ascii	"<$d$<\000"
  85      3C00
  86 012c 7C141414 		.ascii	"|\024\024\024h\000"
  86      6800
  87 0132 5C545454 		.ascii	"\\TTTt\000"
  87      7400
  88 0138 04047C04 		.ascii	"\004\004|\004\004\000"
  88      0400
  89 013e 7C404040 		.ascii	"|@@@|\000"
  89      7C00
  90 0144 0C304030 		.ascii	"\0140@0\014\000"
  90      0C00
  91 014a 3C403040 		.ascii	"<@0@<\000"
  91      3C00
  92 0150 44281028 		.ascii	"D(\020(D\000"
  92      4400
  93 0156 0C106010 		.ascii	"\014\020`\020\014\000"
  93      0C00
  94 015c 4464544C 		.ascii	"DdTLD\000"
  94      4400
  95 0162 7C440000 		.ascii	"|D\000\000\000\000"
  95      0000
  96 0168 0C106000 		.ascii	"\014\020`\000\000\000"
  96      0000
  97 016e 447C0000 		.ascii	"D|\000\000\000\000"
  97      0000
  98 0174 00010001 		.ascii	"\000\001\000\001\000\000"
  98      0000
  99 017a 40404040 		.ascii	"@@@@@@"
  99      4040
 100 0180 00010000 		.ascii	"\000\001\000\000\000\000"
 100      0000
 101 0186 7C242424 		.ascii	"|$$$|\000"
 101      7C00
 102 018c 7C545454 		.ascii	"|TTTl\000"
 102      6C00
ARM GAS  C:\Users\Morroway\AppData\Local\Temp\ccSn7seF.s 			page 4


 103 0192 7C444444 		.ascii	"|DDDD\000"
 103      4400
 104 0198 7C444444 		.ascii	"|DDD8\000"
 104      3800
 105 019e 7C545454 		.ascii	"|TTTD\000"
 105      4400
 106 01a4 7C141414 		.ascii	"|\024\024\024\004\000"
 106      0400
 107 01aa 7C444454 		.ascii	"|DDTt\000"
 107      7400
 108 01b0 7C101010 		.ascii	"|\020\020\020|\000"
 108      7C00
 109 01b6 44447C44 		.ascii	"DD|DD\000"
 109      4400
 110 01bc 60404044 		.ascii	"`@@D|\000"
 110      7C00
 111 01c2 7C101028 		.ascii	"|\020\020(D\000"
 111      4400
 112 01c8 7C404040 		.ascii	"|@@@@\000"
 112      4000
 113 01ce 7C081008 		.ascii	"|\010\020\010|\000"
 113      7C00
 114 01d4 7C081020 		.ascii	"|\010\020 |\000"
 114      7C00
 115 01da 38444444 		.ascii	"8DDD8\000"
 115      3800
 116 01e0 7C141414 		.ascii	"|\024\024\024\010\000"
 116      0800
 117 01e6 3C246424 		.ascii	"<$d$<\000"
 117      3C00
 118 01ec 7C141414 		.ascii	"|\024\024\024h\000"
 118      6800
 119 01f2 5C545454 		.ascii	"\\TTTt\000"
 119      7400
 120 01f8 04047C04 		.ascii	"\004\004|\004\004\000"
 120      0400
 121 01fe 7C404040 		.ascii	"|@@@|\000"
 121      7C00
 122 0204 0C304030 		.ascii	"\0140@0\014\000"
 122      0C00
 123 020a 3C403040 		.ascii	"<@0@<\000"
 123      3C00
 124 0210 44281028 		.ascii	"D(\020(D\000"
 124      4400
 125 0216 0C106010 		.ascii	"\014\020`\020\014\000"
 125      0C00
 126 021c 4464544C 		.ascii	"DdTLD\000"
 126      4400
 127 0222 107C4400 		.ascii	"\020|D\000\000\000"
 127      0000
 128 0228 6C000000 		.ascii	"l\000\000\000\000\000"
 128      0000
 129 022e 447C1000 		.ascii	"D|\020\000\000\000"
 129      0000
 130 0234 02010201 		.ascii	"\002\001\002\001\000\000"
 130      0000
 131 023a 00000000 		.ascii	"\000\000\000\000\000\000"
ARM GAS  C:\Users\Morroway\AppData\Local\Temp\ccSn7seF.s 			page 5


 131      0000
 132              		.global	hadc1
 133              		.section	.bss.hadc1,"aw",%nobits
 134              		.align	2
 137              	hadc1:
 138 0000 00000000 		.space	104
 138      00000000 
 138      00000000 
 138      00000000 
 138      00000000 
 139              		.global	hdma_adc1
 140              		.section	.bss.hdma_adc1,"aw",%nobits
 141              		.align	2
 144              	hdma_adc1:
 145 0000 00000000 		.space	96
 145      00000000 
 145      00000000 
 145      00000000 
 145      00000000 
 146              		.global	hi2c1
 147              		.section	.bss.hi2c1,"aw",%nobits
 148              		.align	2
 151              	hi2c1:
 152 0000 00000000 		.space	84
 152      00000000 
 152      00000000 
 152      00000000 
 152      00000000 
 153              		.global	hlpuart1
 154              		.section	.bss.hlpuart1,"aw",%nobits
 155              		.align	2
 158              	hlpuart1:
 159 0000 00000000 		.space	144
 159      00000000 
 159      00000000 
 159      00000000 
 159      00000000 
 160              		.global	huart4
 161              		.section	.bss.huart4,"aw",%nobits
 162              		.align	2
 165              	huart4:
 166 0000 00000000 		.space	144
 166      00000000 
 166      00000000 
 166      00000000 
 166      00000000 
 167              		.global	hdma_lpuart1_rx
 168              		.section	.bss.hdma_lpuart1_rx,"aw",%nobits
 169              		.align	2
 172              	hdma_lpuart1_rx:
 173 0000 00000000 		.space	96
 173      00000000 
 173      00000000 
 173      00000000 
 173      00000000 
 174              		.global	hrng
 175              		.section	.bss.hrng,"aw",%nobits
ARM GAS  C:\Users\Morroway\AppData\Local\Temp\ccSn7seF.s 			page 6


 176              		.align	2
 179              	hrng:
 180 0000 00000000 		.space	20
 180      00000000 
 180      00000000 
 180      00000000 
 180      00000000 
 181              		.global	hspi1
 182              		.section	.bss.hspi1,"aw",%nobits
 183              		.align	2
 186              	hspi1:
 187 0000 00000000 		.space	100
 187      00000000 
 187      00000000 
 187      00000000 
 187      00000000 
 188              		.global	hspi2
 189              		.section	.bss.hspi2,"aw",%nobits
 190              		.align	2
 193              	hspi2:
 194 0000 00000000 		.space	100
 194      00000000 
 194      00000000 
 194      00000000 
 194      00000000 
 195              		.global	htim2
 196              		.section	.bss.htim2,"aw",%nobits
 197              		.align	2
 200              	htim2:
 201 0000 00000000 		.space	76
 201      00000000 
 201      00000000 
 201      00000000 
 201      00000000 
 202              		.global	htim3
 203              		.section	.bss.htim3,"aw",%nobits
 204              		.align	2
 207              	htim3:
 208 0000 00000000 		.space	76
 208      00000000 
 208      00000000 
 208      00000000 
 208      00000000 
 209              		.global	htim4
 210              		.section	.bss.htim4,"aw",%nobits
 211              		.align	2
 214              	htim4:
 215 0000 00000000 		.space	76
 215      00000000 
 215      00000000 
 215      00000000 
 215      00000000 
 216              		.global	htim5
 217              		.section	.bss.htim5,"aw",%nobits
 218              		.align	2
 221              	htim5:
 222 0000 00000000 		.space	76
ARM GAS  C:\Users\Morroway\AppData\Local\Temp\ccSn7seF.s 			page 7


 222      00000000 
 222      00000000 
 222      00000000 
 222      00000000 
 223              		.global	hpcd_USB_OTG_FS
 224              		.section	.bss.hpcd_USB_OTG_FS,"aw",%nobits
 225              		.align	2
 228              	hpcd_USB_OTG_FS:
 229 0000 00000000 		.space	1292
 229      00000000 
 229      00000000 
 229      00000000 
 229      00000000 
 230              		.global	value
 231              		.section	.bss.value,"aw",%nobits
 232              		.align	2
 235              	value:
 236 0000 00000000 		.space	12
 236      00000000 
 236      00000000 
 237              		.global	RangingData
 238              		.section	.bss.RangingData,"aw",%nobits
 239              		.align	2
 242              	RangingData:
 243 0000 00000000 		.space	28
 243      00000000 
 243      00000000 
 243      00000000 
 243      00000000 
 244              		.global	vl53l0x_c
 245              		.section	.bss.vl53l0x_c,"aw",%nobits
 246              		.align	2
 249              	vl53l0x_c:
 250 0000 00000000 		.space	400
 250      00000000 
 250      00000000 
 250      00000000 
 250      00000000 
 251              		.global	Dev
 252              		.section	.data.Dev,"aw"
 253              		.align	2
 256              	Dev:
 257 0000 00000000 		.word	vl53l0x_c
 258              		.section	.text.myprintf,"ax",%progbits
 259              		.align	1
 260              		.global	myprintf
 261              		.syntax unified
 262              		.thumb
 263              		.thumb_func
 265              	myprintf:
 266              	.LFB325:
 267              		.file 1 "Core/Src/main.c"
   1:Core/Src/main.c **** /* USER CODE BEGIN Header */
   2:Core/Src/main.c **** /**
   3:Core/Src/main.c ****  ******************************************************************************
   4:Core/Src/main.c ****  * @file           : main.c
   5:Core/Src/main.c ****  * @brief          : Main program body
ARM GAS  C:\Users\Morroway\AppData\Local\Temp\ccSn7seF.s 			page 8


   6:Core/Src/main.c ****  ******************************************************************************
   7:Core/Src/main.c ****  * @attention
   8:Core/Src/main.c ****  *
   9:Core/Src/main.c ****  * Copyright (c) 2022 STMicroelectronics.
  10:Core/Src/main.c ****  * All rights reserved.
  11:Core/Src/main.c ****  *
  12:Core/Src/main.c ****  * This software is licensed under terms that can be found in the LICENSE file
  13:Core/Src/main.c ****  * in the root directory of this software component.
  14:Core/Src/main.c ****  * If no LICENSE file comes with this software, it is provided AS-IS.
  15:Core/Src/main.c ****  *
  16:Core/Src/main.c ****  ******************************************************************************
  17:Core/Src/main.c ****  */
  18:Core/Src/main.c **** /* USER CODE END Header */
  19:Core/Src/main.c **** /* Includes ------------------------------------------------------------------*/
  20:Core/Src/main.c **** #include "main.h"
  21:Core/Src/main.c **** #include "fatfs.h"
  22:Core/Src/main.c **** 
  23:Core/Src/main.c **** /* Private includes ----------------------------------------------------------*/
  24:Core/Src/main.c **** /* USER CODE BEGIN Includes */
  25:Core/Src/main.c **** #include "Functions.h"
  26:Core/Src/main.c **** #include <stdio.h>
  27:Core/Src/main.c **** #include <string.h>
  28:Core/Src/main.c **** #include <ctype.h>
  29:Core/Src/main.c **** #include "ILI9341_STM32_Driver.h"
  30:Core/Src/main.c **** #include "ILI9341_GFX.h"
  31:Core/Src/main.c **** #include "5x5_font.h"
  32:Core/Src/main.c **** #include "vl53l0x_api.h"
  33:Core/Src/main.c **** #include "fatfs.h"
  34:Core/Src/main.c **** #include <stdarg.h>
  35:Core/Src/main.c **** // #include "Parser.h"
  36:Core/Src/main.c **** /* USER CODE END Includes */
  37:Core/Src/main.c **** 
  38:Core/Src/main.c **** /* Private typedef -----------------------------------------------------------*/
  39:Core/Src/main.c **** /* USER CODE BEGIN PTD */
  40:Core/Src/main.c **** 
  41:Core/Src/main.c **** /* USER CODE END PTD */
  42:Core/Src/main.c **** 
  43:Core/Src/main.c **** /* Private define ------------------------------------------------------------*/
  44:Core/Src/main.c **** /* USER CODE BEGIN PD */
  45:Core/Src/main.c **** /* USER CODE END PD */
  46:Core/Src/main.c **** 
  47:Core/Src/main.c **** /* Private macro -------------------------------------------------------------*/
  48:Core/Src/main.c **** /* USER CODE BEGIN PM */
  49:Core/Src/main.c **** 
  50:Core/Src/main.c **** /* USER CODE END PM */
  51:Core/Src/main.c **** 
  52:Core/Src/main.c **** /* Private variables ---------------------------------------------------------*/
  53:Core/Src/main.c **** ADC_HandleTypeDef hadc1;
  54:Core/Src/main.c **** DMA_HandleTypeDef hdma_adc1;
  55:Core/Src/main.c **** 
  56:Core/Src/main.c **** I2C_HandleTypeDef hi2c1;
  57:Core/Src/main.c **** 
  58:Core/Src/main.c **** UART_HandleTypeDef hlpuart1;
  59:Core/Src/main.c **** UART_HandleTypeDef huart4;
  60:Core/Src/main.c **** DMA_HandleTypeDef hdma_lpuart1_rx;
  61:Core/Src/main.c **** 
  62:Core/Src/main.c **** RNG_HandleTypeDef hrng;
ARM GAS  C:\Users\Morroway\AppData\Local\Temp\ccSn7seF.s 			page 9


  63:Core/Src/main.c **** 
  64:Core/Src/main.c **** SPI_HandleTypeDef hspi1;
  65:Core/Src/main.c **** SPI_HandleTypeDef hspi2;
  66:Core/Src/main.c **** 
  67:Core/Src/main.c **** TIM_HandleTypeDef htim2;
  68:Core/Src/main.c **** TIM_HandleTypeDef htim3;
  69:Core/Src/main.c **** TIM_HandleTypeDef htim4;
  70:Core/Src/main.c **** TIM_HandleTypeDef htim5;
  71:Core/Src/main.c **** 
  72:Core/Src/main.c **** PCD_HandleTypeDef hpcd_USB_OTG_FS;
  73:Core/Src/main.c **** 
  74:Core/Src/main.c **** /* USER CODE BEGIN PV */
  75:Core/Src/main.c **** uint32_t value[ADC_CHANNELS];
  76:Core/Src/main.c **** 
  77:Core/Src/main.c **** /// @brief Distance sensor
  78:Core/Src/main.c **** VL53L0X_RangingMeasurementData_t RangingData;
  79:Core/Src/main.c **** VL53L0X_Dev_t vl53l0x_c; // center module
  80:Core/Src/main.c **** VL53L0X_DEV Dev = &vl53l0x_c;
  81:Core/Src/main.c **** ///
  82:Core/Src/main.c **** 
  83:Core/Src/main.c **** /* USER CODE END PV */
  84:Core/Src/main.c **** 
  85:Core/Src/main.c **** /* Private function prototypes -----------------------------------------------*/
  86:Core/Src/main.c **** void SystemClock_Config(void);
  87:Core/Src/main.c **** static void MX_GPIO_Init(void);
  88:Core/Src/main.c **** static void MX_DMA_Init(void);
  89:Core/Src/main.c **** static void MX_LPUART1_UART_Init(void);
  90:Core/Src/main.c **** static void MX_USB_OTG_FS_PCD_Init(void);
  91:Core/Src/main.c **** static void MX_TIM4_Init(void);
  92:Core/Src/main.c **** static void MX_UART4_Init(void);
  93:Core/Src/main.c **** static void MX_TIM3_Init(void);
  94:Core/Src/main.c **** static void MX_ADC1_Init(void);
  95:Core/Src/main.c **** static void MX_TIM5_Init(void);
  96:Core/Src/main.c **** static void MX_TIM2_Init(void);
  97:Core/Src/main.c **** static void MX_SPI1_Init(void);
  98:Core/Src/main.c **** static void MX_RNG_Init(void);
  99:Core/Src/main.c **** static void MX_I2C1_Init(void);
 100:Core/Src/main.c **** static void MX_SPI2_Init(void);
 101:Core/Src/main.c **** /* USER CODE BEGIN PFP */
 102:Core/Src/main.c **** 
 103:Core/Src/main.c **** /* USER CODE END PFP */
 104:Core/Src/main.c **** 
 105:Core/Src/main.c **** /* Private user code ---------------------------------------------------------*/
 106:Core/Src/main.c **** /* USER CODE BEGIN 0 */
 107:Core/Src/main.c **** 
 108:Core/Src/main.c **** void myprintf(const char *fmt, ...)
 109:Core/Src/main.c **** {
 268              		.loc 1 109 1
 269              		.cfi_startproc
 270              		@ args = 4, pretend = 16, frame = 8
 271              		@ frame_needed = 1, uses_anonymous_args = 1
 272 0000 0FB4     		push	{r0, r1, r2, r3}
 273              		.cfi_def_cfa_offset 16
 274              		.cfi_offset 0, -16
 275              		.cfi_offset 1, -12
 276              		.cfi_offset 2, -8
 277              		.cfi_offset 3, -4
ARM GAS  C:\Users\Morroway\AppData\Local\Temp\ccSn7seF.s 			page 10


 278 0002 80B5     		push	{r7, lr}
 279              		.cfi_def_cfa_offset 24
 280              		.cfi_offset 7, -24
 281              		.cfi_offset 14, -20
 282 0004 82B0     		sub	sp, sp, #8
 283              		.cfi_def_cfa_offset 32
 284 0006 00AF     		add	r7, sp, #0
 285              		.cfi_def_cfa_register 7
 110:Core/Src/main.c ****   static char buffer[256];
 111:Core/Src/main.c ****   va_list args;
 112:Core/Src/main.c ****   va_start(args, fmt);
 286              		.loc 1 112 3
 287 0008 07F11403 		add	r3, r7, #20
 288 000c 3B60     		str	r3, [r7]
 113:Core/Src/main.c ****   vsnprintf(buffer, sizeof(buffer), fmt, args);
 289              		.loc 1 113 3
 290 000e 3B68     		ldr	r3, [r7]
 291 0010 3A69     		ldr	r2, [r7, #16]
 292 0012 4FF48071 		mov	r1, #256
 293 0016 0B48     		ldr	r0, .L2
 294 0018 FFF7FEFF 		bl	vsnprintf
 114:Core/Src/main.c ****   va_end(args);
 115:Core/Src/main.c **** 
 116:Core/Src/main.c ****   int len = strlen(buffer);
 295              		.loc 1 116 13
 296 001c 0948     		ldr	r0, .L2
 297 001e FFF7FEFF 		bl	strlen
 298 0022 0346     		mov	r3, r0
 299              		.loc 1 116 7
 300 0024 7B60     		str	r3, [r7, #4]
 117:Core/Src/main.c ****   HAL_UART_Transmit(&hlpuart1, (uint16_t *)buffer, len, HAL_MAX_DELAY);
 301              		.loc 1 117 3
 302 0026 7B68     		ldr	r3, [r7, #4]
 303 0028 9AB2     		uxth	r2, r3
 304 002a 4FF0FF33 		mov	r3, #-1
 305 002e 0549     		ldr	r1, .L2
 306 0030 0548     		ldr	r0, .L2+4
 307 0032 FFF7FEFF 		bl	HAL_UART_Transmit
 118:Core/Src/main.c **** }
 308              		.loc 1 118 1
 309 0036 00BF     		nop
 310 0038 0837     		adds	r7, r7, #8
 311              		.cfi_def_cfa_offset 24
 312 003a BD46     		mov	sp, r7
 313              		.cfi_def_cfa_register 13
 314              		@ sp needed
 315 003c BDE88040 		pop	{r7, lr}
 316              		.cfi_restore 14
 317              		.cfi_restore 7
 318              		.cfi_def_cfa_offset 16
 319 0040 04B0     		add	sp, sp, #16
 320              		.cfi_restore 3
 321              		.cfi_restore 2
 322              		.cfi_restore 1
 323              		.cfi_restore 0
 324              		.cfi_def_cfa_offset 0
 325 0042 7047     		bx	lr
ARM GAS  C:\Users\Morroway\AppData\Local\Temp\ccSn7seF.s 			page 11


 326              	.L3:
 327              		.align	2
 328              	.L2:
 329 0044 00000000 		.word	buffer.0
 330 0048 00000000 		.word	hlpuart1
 331              		.cfi_endproc
 332              	.LFE325:
 334              		.section	.text.HAL_UARTEx_RxEventCallback,"ax",%progbits
 335              		.align	1
 336              		.global	HAL_UARTEx_RxEventCallback
 337              		.syntax unified
 338              		.thumb
 339              		.thumb_func
 341              	HAL_UARTEx_RxEventCallback:
 342              	.LFB326:
 119:Core/Src/main.c **** 
 120:Core/Src/main.c **** void HAL_UARTEx_RxEventCallback(UART_HandleTypeDef *huart, uint16_t Size)
 121:Core/Src/main.c **** {
 343              		.loc 1 121 1
 344              		.cfi_startproc
 345              		@ args = 0, pretend = 0, frame = 8
 346              		@ frame_needed = 1, uses_anonymous_args = 0
 347 0000 80B5     		push	{r7, lr}
 348              		.cfi_def_cfa_offset 8
 349              		.cfi_offset 7, -8
 350              		.cfi_offset 14, -4
 351 0002 82B0     		sub	sp, sp, #8
 352              		.cfi_def_cfa_offset 16
 353 0004 00AF     		add	r7, sp, #0
 354              		.cfi_def_cfa_register 7
 355 0006 7860     		str	r0, [r7, #4]
 356 0008 0B46     		mov	r3, r1
 357 000a 7B80     		strh	r3, [r7, #2]	@ movhi
 122:Core/Src/main.c ****   if (huart->Instance == LPUART1)
 358              		.loc 1 122 12
 359 000c 7B68     		ldr	r3, [r7, #4]
 360 000e 1B68     		ldr	r3, [r3]
 361              		.loc 1 122 6
 362 0010 094A     		ldr	r2, .L7
 363 0012 9342     		cmp	r3, r2
 364 0014 0CD1     		bne	.L6
 123:Core/Src/main.c ****   {
 124:Core/Src/main.c ****     HAL_UARTEx_ReceiveToIdle_DMA(&hlpuart1, (uint8_t *)RxBuf, RxBuf_SIZE);
 365              		.loc 1 124 5
 366 0016 2822     		movs	r2, #40
 367 0018 0849     		ldr	r1, .L7+4
 368 001a 0948     		ldr	r0, .L7+8
 369 001c FFF7FEFF 		bl	HAL_UARTEx_ReceiveToIdle_DMA
 125:Core/Src/main.c ****     __HAL_DMA_DISABLE_IT(&hdma_lpuart1_rx, DMA_IT_HT);
 370              		.loc 1 125 5
 371 0020 084B     		ldr	r3, .L7+12
 372 0022 1B68     		ldr	r3, [r3]
 373 0024 1A68     		ldr	r2, [r3]
 374 0026 074B     		ldr	r3, .L7+12
 375 0028 1B68     		ldr	r3, [r3]
 376 002a 22F00402 		bic	r2, r2, #4
 377 002e 1A60     		str	r2, [r3]
ARM GAS  C:\Users\Morroway\AppData\Local\Temp\ccSn7seF.s 			page 12


 378              	.L6:
 126:Core/Src/main.c ****   }
 127:Core/Src/main.c **** }
 379              		.loc 1 127 1
 380 0030 00BF     		nop
 381 0032 0837     		adds	r7, r7, #8
 382              		.cfi_def_cfa_offset 8
 383 0034 BD46     		mov	sp, r7
 384              		.cfi_def_cfa_register 13
 385              		@ sp needed
 386 0036 80BD     		pop	{r7, pc}
 387              	.L8:
 388              		.align	2
 389              	.L7:
 390 0038 00800040 		.word	1073774592
 391 003c 00000000 		.word	RxBuf
 392 0040 00000000 		.word	hlpuart1
 393 0044 00000000 		.word	hdma_lpuart1_rx
 394              		.cfi_endproc
 395              	.LFE326:
 397              		.section	.text.DelayMicrosecond,"ax",%progbits
 398              		.align	1
 399              		.global	DelayMicrosecond
 400              		.syntax unified
 401              		.thumb
 402              		.thumb_func
 404              	DelayMicrosecond:
 405              	.LFB327:
 128:Core/Src/main.c **** 
 129:Core/Src/main.c **** void DelayMicrosecond(uint16_t time)
 130:Core/Src/main.c **** {
 406              		.loc 1 130 1
 407              		.cfi_startproc
 408              		@ args = 0, pretend = 0, frame = 8
 409              		@ frame_needed = 1, uses_anonymous_args = 0
 410              		@ link register save eliminated.
 411 0000 80B4     		push	{r7}
 412              		.cfi_def_cfa_offset 4
 413              		.cfi_offset 7, -4
 414 0002 83B0     		sub	sp, sp, #12
 415              		.cfi_def_cfa_offset 16
 416 0004 00AF     		add	r7, sp, #0
 417              		.cfi_def_cfa_register 7
 418 0006 0346     		mov	r3, r0
 419 0008 FB80     		strh	r3, [r7, #6]	@ movhi
 131:Core/Src/main.c ****   __HAL_TIM_SET_COUNTER(&htim4, 0);
 420              		.loc 1 131 3
 421 000a 094B     		ldr	r3, .L11
 422 000c 1B68     		ldr	r3, [r3]
 423 000e 0022     		movs	r2, #0
 424 0010 5A62     		str	r2, [r3, #36]
 132:Core/Src/main.c ****   while (__HAL_TIM_GET_COUNTER(&htim4) < time)
 425              		.loc 1 132 9
 426 0012 00BF     		nop
 427              	.L10:
 428              		.loc 1 132 10 discriminator 1
 429 0014 064B     		ldr	r3, .L11
ARM GAS  C:\Users\Morroway\AppData\Local\Temp\ccSn7seF.s 			page 13


 430 0016 1B68     		ldr	r3, [r3]
 431 0018 5A6A     		ldr	r2, [r3, #36]
 432              		.loc 1 132 40 discriminator 1
 433 001a FB88     		ldrh	r3, [r7, #6]
 434 001c 9A42     		cmp	r2, r3
 435 001e F9D3     		bcc	.L10
 133:Core/Src/main.c ****     ;
 134:Core/Src/main.c **** }
 436              		.loc 1 134 1
 437 0020 00BF     		nop
 438 0022 00BF     		nop
 439 0024 0C37     		adds	r7, r7, #12
 440              		.cfi_def_cfa_offset 4
 441 0026 BD46     		mov	sp, r7
 442              		.cfi_def_cfa_register 13
 443              		@ sp needed
 444 0028 5DF8047B 		ldr	r7, [sp], #4
 445              		.cfi_restore 7
 446              		.cfi_def_cfa_offset 0
 447 002c 7047     		bx	lr
 448              	.L12:
 449 002e 00BF     		.align	2
 450              	.L11:
 451 0030 00000000 		.word	htim4
 452              		.cfi_endproc
 453              	.LFE327:
 455              		.section	.text.GetTicks,"ax",%progbits
 456              		.align	1
 457              		.global	GetTicks
 458              		.syntax unified
 459              		.thumb
 460              		.thumb_func
 462              	GetTicks:
 463              	.LFB328:
 135:Core/Src/main.c **** 
 136:Core/Src/main.c **** int GetTicks()
 137:Core/Src/main.c **** {
 464              		.loc 1 137 1
 465              		.cfi_startproc
 466              		@ args = 0, pretend = 0, frame = 0
 467              		@ frame_needed = 1, uses_anonymous_args = 0
 468              		@ link register save eliminated.
 469 0000 80B4     		push	{r7}
 470              		.cfi_def_cfa_offset 4
 471              		.cfi_offset 7, -4
 472 0002 00AF     		add	r7, sp, #0
 473              		.cfi_def_cfa_register 7
 138:Core/Src/main.c ****   return __HAL_TIM_GET_COUNTER(&htim5);
 474              		.loc 1 138 10
 475 0004 034B     		ldr	r3, .L15
 476 0006 1B68     		ldr	r3, [r3]
 477 0008 5B6A     		ldr	r3, [r3, #36]
 139:Core/Src/main.c **** }
 478              		.loc 1 139 1
 479 000a 1846     		mov	r0, r3
 480 000c BD46     		mov	sp, r7
 481              		.cfi_def_cfa_register 13
ARM GAS  C:\Users\Morroway\AppData\Local\Temp\ccSn7seF.s 			page 14


 482              		@ sp needed
 483 000e 5DF8047B 		ldr	r7, [sp], #4
 484              		.cfi_restore 7
 485              		.cfi_def_cfa_offset 0
 486 0012 7047     		bx	lr
 487              	.L16:
 488              		.align	2
 489              	.L15:
 490 0014 00000000 		.word	htim5
 491              		.cfi_endproc
 492              	.LFE328:
 494              		.section	.text.SPI_Transmit,"ax",%progbits
 495              		.align	1
 496              		.global	SPI_Transmit
 497              		.syntax unified
 498              		.thumb
 499              		.thumb_func
 501              	SPI_Transmit:
 502              	.LFB329:
 140:Core/Src/main.c **** 
 141:Core/Src/main.c **** void SPI_Transmit(uint8_t *pData, uint16_t Size, uint32_t Timeout)
 142:Core/Src/main.c **** {
 503              		.loc 1 142 1
 504              		.cfi_startproc
 505              		@ args = 0, pretend = 0, frame = 16
 506              		@ frame_needed = 1, uses_anonymous_args = 0
 507 0000 80B5     		push	{r7, lr}
 508              		.cfi_def_cfa_offset 8
 509              		.cfi_offset 7, -8
 510              		.cfi_offset 14, -4
 511 0002 84B0     		sub	sp, sp, #16
 512              		.cfi_def_cfa_offset 24
 513 0004 00AF     		add	r7, sp, #0
 514              		.cfi_def_cfa_register 7
 515 0006 F860     		str	r0, [r7, #12]
 516 0008 0B46     		mov	r3, r1
 517 000a 7A60     		str	r2, [r7, #4]
 518 000c 7B81     		strh	r3, [r7, #10]	@ movhi
 143:Core/Src/main.c ****   HAL_SPI_Transmit(&hspi1, &pData, Size, Timeout);
 519              		.loc 1 143 3
 520 000e 7A89     		ldrh	r2, [r7, #10]
 521 0010 07F10C01 		add	r1, r7, #12
 522 0014 7B68     		ldr	r3, [r7, #4]
 523 0016 0348     		ldr	r0, .L18
 524 0018 FFF7FEFF 		bl	HAL_SPI_Transmit
 144:Core/Src/main.c **** }
 525              		.loc 1 144 1
 526 001c 00BF     		nop
 527 001e 1037     		adds	r7, r7, #16
 528              		.cfi_def_cfa_offset 8
 529 0020 BD46     		mov	sp, r7
 530              		.cfi_def_cfa_register 13
 531              		@ sp needed
 532 0022 80BD     		pop	{r7, pc}
 533              	.L19:
 534              		.align	2
 535              	.L18:
ARM GAS  C:\Users\Morroway\AppData\Local\Temp\ccSn7seF.s 			page 15


 536 0024 00000000 		.word	hspi1
 537              		.cfi_endproc
 538              	.LFE329:
 540              		.section	.rodata
 541              		.align	2
 542              	.LC0:
 543 0000 543A2025 		.ascii	"T: %.2f R: %.2f B: %.2f\015\012\000"
 543      2E326620 
 543      523A2025 
 543      2E326620 
 543      423A2025 
 544 001a 0000     		.align	2
 545              	.LC1:
 546 001c 43757220 		.ascii	"Cur X: %f, Des X: %f, Cur Y: %f, Des Y: %f, isRunni"
 546      583A2025 
 546      662C2044 
 546      65732058 
 546      3A202566 
 547 004f 6E673F3A 		.ascii	"ng?: %d\015\012\000"
 547      2025640D 
 547      0A00
 548              		.section	.text.main,"ax",%progbits
 549              		.align	1
 550              		.global	main
 551              		.syntax unified
 552              		.thumb
 553              		.thumb_func
 555              	main:
 556              	.LFB330:
 145:Core/Src/main.c **** /* USER CODE END 0 */
 146:Core/Src/main.c **** 
 147:Core/Src/main.c **** /**
 148:Core/Src/main.c ****   * @brief  The application entry point.
 149:Core/Src/main.c ****   * @retval int
 150:Core/Src/main.c ****   */
 151:Core/Src/main.c **** int main(void)
 152:Core/Src/main.c **** {
 557              		.loc 1 152 1
 558              		.cfi_startproc
 559              		@ args = 0, pretend = 0, frame = 32
 560              		@ frame_needed = 1, uses_anonymous_args = 0
 561 0000 2DE9F043 		push	{r4, r5, r6, r7, r8, r9, lr}
 562              		.cfi_def_cfa_offset 28
 563              		.cfi_offset 4, -28
 564              		.cfi_offset 5, -24
 565              		.cfi_offset 6, -20
 566              		.cfi_offset 7, -16
 567              		.cfi_offset 8, -12
 568              		.cfi_offset 9, -8
 569              		.cfi_offset 14, -4
 570 0004 2DED028B 		vpush.64	{d8}
 571              		.cfi_def_cfa_offset 36
 572              		.cfi_offset 80, -36
 573              		.cfi_offset 81, -32
 574 0008 91B0     		sub	sp, sp, #68
 575              		.cfi_def_cfa_offset 104
 576 000a 08AF     		add	r7, sp, #32
ARM GAS  C:\Users\Morroway\AppData\Local\Temp\ccSn7seF.s 			page 16


 577              		.cfi_def_cfa 7, 72
 153:Core/Src/main.c ****   /* USER CODE BEGIN 1 */
 154:Core/Src/main.c ****   //
 155:Core/Src/main.c ****   // VL53L0X initialisation stuff
 156:Core/Src/main.c ****   //
 157:Core/Src/main.c ****   uint32_t refSpadCount;
 158:Core/Src/main.c ****   uint8_t isApertureSpads;
 159:Core/Src/main.c ****   uint8_t VhvSettings;
 160:Core/Src/main.c ****   uint8_t PhaseCal;
 161:Core/Src/main.c ****   /* USER CODE END 1 */
 162:Core/Src/main.c **** 
 163:Core/Src/main.c ****   /* MCU Configuration--------------------------------------------------------*/
 164:Core/Src/main.c **** 
 165:Core/Src/main.c ****   /* Reset of all peripherals, Initializes the Flash interface and the Systick. */
 166:Core/Src/main.c ****   HAL_Init();
 578              		.loc 1 166 3
 579 000c FFF7FEFF 		bl	HAL_Init
 167:Core/Src/main.c **** 
 168:Core/Src/main.c ****   /* USER CODE BEGIN Init */
 169:Core/Src/main.c **** 
 170:Core/Src/main.c ****   /* USER CODE END Init */
 171:Core/Src/main.c **** 
 172:Core/Src/main.c ****   /* Configure the system clock */
 173:Core/Src/main.c ****   SystemClock_Config();
 580              		.loc 1 173 3
 581 0010 FFF7FEFF 		bl	SystemClock_Config
 174:Core/Src/main.c **** 
 175:Core/Src/main.c ****   /* USER CODE BEGIN SysInit */
 176:Core/Src/main.c **** 
 177:Core/Src/main.c ****   /* USER CODE END SysInit */
 178:Core/Src/main.c **** 
 179:Core/Src/main.c ****   /* Initialize all configured peripherals */
 180:Core/Src/main.c ****   MX_GPIO_Init();
 582              		.loc 1 180 3
 583 0014 FFF7FEFF 		bl	MX_GPIO_Init
 181:Core/Src/main.c ****   MX_DMA_Init();
 584              		.loc 1 181 3
 585 0018 FFF7FEFF 		bl	MX_DMA_Init
 182:Core/Src/main.c ****   MX_LPUART1_UART_Init();
 586              		.loc 1 182 3
 587 001c FFF7FEFF 		bl	MX_LPUART1_UART_Init
 183:Core/Src/main.c ****   MX_USB_OTG_FS_PCD_Init();
 588              		.loc 1 183 3
 589 0020 FFF7FEFF 		bl	MX_USB_OTG_FS_PCD_Init
 184:Core/Src/main.c ****   MX_TIM4_Init();
 590              		.loc 1 184 3
 591 0024 FFF7FEFF 		bl	MX_TIM4_Init
 185:Core/Src/main.c ****   MX_UART4_Init();
 592              		.loc 1 185 3
 593 0028 FFF7FEFF 		bl	MX_UART4_Init
 186:Core/Src/main.c ****   MX_TIM3_Init();
 594              		.loc 1 186 3
 595 002c FFF7FEFF 		bl	MX_TIM3_Init
 187:Core/Src/main.c ****   MX_ADC1_Init();
 596              		.loc 1 187 3
 597 0030 FFF7FEFF 		bl	MX_ADC1_Init
 188:Core/Src/main.c ****   MX_TIM5_Init();
ARM GAS  C:\Users\Morroway\AppData\Local\Temp\ccSn7seF.s 			page 17


 598              		.loc 1 188 3
 599 0034 FFF7FEFF 		bl	MX_TIM5_Init
 189:Core/Src/main.c ****   MX_TIM2_Init();
 600              		.loc 1 189 3
 601 0038 FFF7FEFF 		bl	MX_TIM2_Init
 190:Core/Src/main.c ****   MX_SPI1_Init();
 602              		.loc 1 190 3
 603 003c FFF7FEFF 		bl	MX_SPI1_Init
 191:Core/Src/main.c ****   MX_RNG_Init();
 604              		.loc 1 191 3
 605 0040 FFF7FEFF 		bl	MX_RNG_Init
 192:Core/Src/main.c ****   MX_I2C1_Init();
 606              		.loc 1 192 3
 607 0044 FFF7FEFF 		bl	MX_I2C1_Init
 193:Core/Src/main.c ****   MX_SPI2_Init();
 608              		.loc 1 193 3
 609 0048 FFF7FEFF 		bl	MX_SPI2_Init
 194:Core/Src/main.c ****   MX_FATFS_Init();
 610              		.loc 1 194 3
 611 004c FFF7FEFF 		bl	MX_FATFS_Init
 195:Core/Src/main.c ****   /* USER CODE BEGIN 2 */
 196:Core/Src/main.c ****   HAL_TIM_PWM_Start(&htim3, TIM_CHANNEL_1);
 612              		.loc 1 196 3
 613 0050 0021     		movs	r1, #0
 614 0052 9348     		ldr	r0, .L27
 615 0054 FFF7FEFF 		bl	HAL_TIM_PWM_Start
 197:Core/Src/main.c ****   HAL_TIM_PWM_Start(&htim3, TIM_CHANNEL_2);
 616              		.loc 1 197 3
 617 0058 0421     		movs	r1, #4
 618 005a 9148     		ldr	r0, .L27
 619 005c FFF7FEFF 		bl	HAL_TIM_PWM_Start
 198:Core/Src/main.c ****   HAL_TIM_PWM_Start(&htim3, TIM_CHANNEL_3);
 620              		.loc 1 198 3
 621 0060 0821     		movs	r1, #8
 622 0062 8F48     		ldr	r0, .L27
 623 0064 FFF7FEFF 		bl	HAL_TIM_PWM_Start
 199:Core/Src/main.c ****   HAL_ADC_Start_DMA(&hadc1, value, ADC_CHANNELS);
 624              		.loc 1 199 3
 625 0068 0322     		movs	r2, #3
 626 006a 8E49     		ldr	r1, .L27+4
 627 006c 8E48     		ldr	r0, .L27+8
 628 006e FFF7FEFF 		bl	HAL_ADC_Start_DMA
 200:Core/Src/main.c ****   HAL_TIM_Base_Start(&htim4);
 629              		.loc 1 200 3
 630 0072 8E48     		ldr	r0, .L27+12
 631 0074 FFF7FEFF 		bl	HAL_TIM_Base_Start
 201:Core/Src/main.c ****   HAL_TIM_Base_Start(&htim5);
 632              		.loc 1 201 3
 633 0078 8D48     		ldr	r0, .L27+16
 634 007a FFF7FEFF 		bl	HAL_TIM_Base_Start
 202:Core/Src/main.c ****   HAL_UARTEx_ReceiveToIdle_DMA(&hlpuart1, RxBuf, RxBuf_SIZE);
 635              		.loc 1 202 3
 636 007e 2822     		movs	r2, #40
 637 0080 8C49     		ldr	r1, .L27+20
 638 0082 8D48     		ldr	r0, .L27+24
 639 0084 FFF7FEFF 		bl	HAL_UARTEx_ReceiveToIdle_DMA
 203:Core/Src/main.c ****   __HAL_DMA_DISABLE_IT(&hdma_lpuart1_rx, DMA_IT_HT);
ARM GAS  C:\Users\Morroway\AppData\Local\Temp\ccSn7seF.s 			page 18


 640              		.loc 1 203 3
 641 0088 8C4B     		ldr	r3, .L27+28
 642 008a 1B68     		ldr	r3, [r3]
 643 008c 1A68     		ldr	r2, [r3]
 644 008e 8B4B     		ldr	r3, .L27+28
 645 0090 1B68     		ldr	r3, [r3]
 646 0092 22F00402 		bic	r2, r2, #4
 647 0096 1A60     		str	r2, [r3]
 204:Core/Src/main.c ****   memset(&RxBuf[0], 0, sizeof(RxBuf));
 648              		.loc 1 204 3
 649 0098 2822     		movs	r2, #40
 650 009a 0021     		movs	r1, #0
 651 009c 8548     		ldr	r0, .L27+20
 652 009e FFF7FEFF 		bl	memset
 205:Core/Src/main.c ****   reset_args();
 653              		.loc 1 205 3
 654 00a2 FFF7FEFF 		bl	reset_args
 206:Core/Src/main.c ****   int steps = 0;
 655              		.loc 1 206 7
 656 00a6 0023     		movs	r3, #0
 657 00a8 BB61     		str	r3, [r7, #24]
 207:Core/Src/main.c ****   bool started = false;
 658              		.loc 1 207 8
 659 00aa 0023     		movs	r3, #0
 660 00ac FB75     		strb	r3, [r7, #23]
 208:Core/Src/main.c ****   uint32_t lasttimeX = 0;
 661              		.loc 1 208 12
 662 00ae 0023     		movs	r3, #0
 663 00b0 3B61     		str	r3, [r7, #16]
 209:Core/Src/main.c ****   uint32_t lasttimeY = 0;
 664              		.loc 1 209 12
 665 00b2 0023     		movs	r3, #0
 666 00b4 FB60     		str	r3, [r7, #12]
 210:Core/Src/main.c ****   ILI9341_Init();
 667              		.loc 1 210 3
 668 00b6 FFF7FEFF 		bl	ILI9341_Init
 211:Core/Src/main.c ****   //
 212:Core/Src/main.c ****   // Distance sensor
 213:Core/Src/main.c ****   //
 214:Core/Src/main.c **** 
 215:Core/Src/main.c ****   Dev->I2cHandle = &hi2c1;
 669              		.loc 1 215 6
 670 00ba 814B     		ldr	r3, .L27+32
 671 00bc 1B68     		ldr	r3, [r3]
 672              		.loc 1 215 18
 673 00be 814A     		ldr	r2, .L27+36
 674 00c0 C3F85C21 		str	r2, [r3, #348]
 216:Core/Src/main.c ****   Dev->I2cDevAddr = 0x52;
 675              		.loc 1 216 6
 676 00c4 7E4B     		ldr	r3, .L27+32
 677 00c6 1B68     		ldr	r3, [r3]
 678              		.loc 1 216 19
 679 00c8 5222     		movs	r2, #82
 680 00ca 83F86021 		strb	r2, [r3, #352]
 217:Core/Src/main.c **** 
 218:Core/Src/main.c ****   HAL_GPIO_WritePin(GPIOF, GPIO_PIN_10, GPIO_PIN_RESET); // Disable XSHUT
 681              		.loc 1 218 3
ARM GAS  C:\Users\Morroway\AppData\Local\Temp\ccSn7seF.s 			page 19


 682 00ce 0022     		movs	r2, #0
 683 00d0 4FF48061 		mov	r1, #1024
 684 00d4 7C48     		ldr	r0, .L27+40
 685 00d6 FFF7FEFF 		bl	HAL_GPIO_WritePin
 219:Core/Src/main.c ****   HAL_Delay(20);
 686              		.loc 1 219 3
 687 00da 1420     		movs	r0, #20
 688 00dc FFF7FEFF 		bl	HAL_Delay
 220:Core/Src/main.c ****   HAL_GPIO_WritePin(GPIOF, GPIO_PIN_10, GPIO_PIN_SET); // Enable XSHUT
 689              		.loc 1 220 3
 690 00e0 0122     		movs	r2, #1
 691 00e2 4FF48061 		mov	r1, #1024
 692 00e6 7848     		ldr	r0, .L27+40
 693 00e8 FFF7FEFF 		bl	HAL_GPIO_WritePin
 221:Core/Src/main.c ****   HAL_Delay(20);
 694              		.loc 1 221 3
 695 00ec 1420     		movs	r0, #20
 696 00ee FFF7FEFF 		bl	HAL_Delay
 222:Core/Src/main.c **** 
 223:Core/Src/main.c ****   //
 224:Core/Src/main.c ****   // VL53L0X init for Single Measurement
 225:Core/Src/main.c ****   //
 226:Core/Src/main.c **** 
 227:Core/Src/main.c ****   VL53L0X_WaitDeviceBooted(Dev);
 697              		.loc 1 227 3
 698 00f2 734B     		ldr	r3, .L27+32
 699 00f4 1B68     		ldr	r3, [r3]
 700 00f6 1846     		mov	r0, r3
 701 00f8 FFF7FEFF 		bl	VL53L0X_WaitDeviceBooted
 228:Core/Src/main.c ****   VL53L0X_DataInit(Dev);
 702              		.loc 1 228 3
 703 00fc 704B     		ldr	r3, .L27+32
 704 00fe 1B68     		ldr	r3, [r3]
 705 0100 1846     		mov	r0, r3
 706 0102 FFF7FEFF 		bl	VL53L0X_DataInit
 229:Core/Src/main.c ****   VL53L0X_StaticInit(Dev);
 707              		.loc 1 229 3
 708 0106 6E4B     		ldr	r3, .L27+32
 709 0108 1B68     		ldr	r3, [r3]
 710 010a 1846     		mov	r0, r3
 711 010c FFF7FEFF 		bl	VL53L0X_StaticInit
 230:Core/Src/main.c ****   VL53L0X_PerformRefCalibration(Dev, &VhvSettings, &PhaseCal);
 712              		.loc 1 230 3
 713 0110 6B4B     		ldr	r3, .L27+32
 714 0112 1B68     		ldr	r3, [r3]
 715 0114 7A1D     		adds	r2, r7, #5
 716 0116 B91D     		adds	r1, r7, #6
 717 0118 1846     		mov	r0, r3
 718 011a FFF7FEFF 		bl	VL53L0X_PerformRefCalibration
 231:Core/Src/main.c ****   VL53L0X_PerformRefSpadManagement(Dev, &refSpadCount, &isApertureSpads);
 719              		.loc 1 231 3
 720 011e 684B     		ldr	r3, .L27+32
 721 0120 1B68     		ldr	r3, [r3]
 722 0122 FA1D     		adds	r2, r7, #7
 723 0124 07F10801 		add	r1, r7, #8
 724 0128 1846     		mov	r0, r3
 725 012a FFF7FEFF 		bl	VL53L0X_PerformRefSpadManagement
ARM GAS  C:\Users\Morroway\AppData\Local\Temp\ccSn7seF.s 			page 20


 232:Core/Src/main.c ****   VL53L0X_SetDeviceMode(Dev, VL53L0X_DEVICEMODE_SINGLE_RANGING);
 726              		.loc 1 232 3
 727 012e 644B     		ldr	r3, .L27+32
 728 0130 1B68     		ldr	r3, [r3]
 729 0132 0021     		movs	r1, #0
 730 0134 1846     		mov	r0, r3
 731 0136 FFF7FEFF 		bl	VL53L0X_SetDeviceMode
 233:Core/Src/main.c **** 
 234:Core/Src/main.c ****   // Enable/Disable Sigma and Signal check
 235:Core/Src/main.c ****   VL53L0X_SetLimitCheckEnable(Dev, VL53L0X_CHECKENABLE_SIGMA_FINAL_RANGE, 1);
 732              		.loc 1 235 3
 733 013a 614B     		ldr	r3, .L27+32
 734 013c 1B68     		ldr	r3, [r3]
 735 013e 0122     		movs	r2, #1
 736 0140 0021     		movs	r1, #0
 737 0142 1846     		mov	r0, r3
 738 0144 FFF7FEFF 		bl	VL53L0X_SetLimitCheckEnable
 236:Core/Src/main.c ****   VL53L0X_SetLimitCheckEnable(Dev, VL53L0X_CHECKENABLE_SIGNAL_RATE_FINAL_RANGE, 1);
 739              		.loc 1 236 3
 740 0148 5D4B     		ldr	r3, .L27+32
 741 014a 1B68     		ldr	r3, [r3]
 742 014c 0122     		movs	r2, #1
 743 014e 0121     		movs	r1, #1
 744 0150 1846     		mov	r0, r3
 745 0152 FFF7FEFF 		bl	VL53L0X_SetLimitCheckEnable
 237:Core/Src/main.c ****   VL53L0X_SetLimitCheckValue(Dev, VL53L0X_CHECKENABLE_SIGNAL_RATE_FINAL_RANGE, (FixPoint1616_t)(0.1
 746              		.loc 1 237 3
 747 0156 5A4B     		ldr	r3, .L27+32
 748 0158 1B68     		ldr	r3, [r3]
 749 015a 41F69912 		movw	r2, #6553
 750 015e 0121     		movs	r1, #1
 751 0160 1846     		mov	r0, r3
 752 0162 FFF7FEFF 		bl	VL53L0X_SetLimitCheckValue
 238:Core/Src/main.c ****   VL53L0X_SetLimitCheckValue(Dev, VL53L0X_CHECKENABLE_SIGMA_FINAL_RANGE, (FixPoint1616_t)(60 * 6553
 753              		.loc 1 238 3
 754 0166 564B     		ldr	r3, .L27+32
 755 0168 1B68     		ldr	r3, [r3]
 756 016a 4FF47012 		mov	r2, #3932160
 757 016e 0021     		movs	r1, #0
 758 0170 1846     		mov	r0, r3
 759 0172 FFF7FEFF 		bl	VL53L0X_SetLimitCheckValue
 239:Core/Src/main.c ****   VL53L0X_SetMeasurementTimingBudgetMicroSeconds(Dev, 2000000);
 760              		.loc 1 239 3
 761 0176 524B     		ldr	r3, .L27+32
 762 0178 1B68     		ldr	r3, [r3]
 763 017a 5449     		ldr	r1, .L27+44
 764 017c 1846     		mov	r0, r3
 765 017e FFF7FEFF 		bl	VL53L0X_SetMeasurementTimingBudgetMicroSeconds
 240:Core/Src/main.c ****   VL53L0X_SetVcselPulsePeriod(Dev, VL53L0X_VCSEL_PERIOD_PRE_RANGE, 18);
 766              		.loc 1 240 3
 767 0182 4F4B     		ldr	r3, .L27+32
 768 0184 1B68     		ldr	r3, [r3]
 769 0186 1222     		movs	r2, #18
 770 0188 0021     		movs	r1, #0
 771 018a 1846     		mov	r0, r3
 772 018c FFF7FEFF 		bl	VL53L0X_SetVcselPulsePeriod
 241:Core/Src/main.c ****   VL53L0X_SetVcselPulsePeriod(Dev, VL53L0X_VCSEL_PERIOD_FINAL_RANGE, 14);
ARM GAS  C:\Users\Morroway\AppData\Local\Temp\ccSn7seF.s 			page 21


 773              		.loc 1 241 3
 774 0190 4B4B     		ldr	r3, .L27+32
 775 0192 1B68     		ldr	r3, [r3]
 776 0194 0E22     		movs	r2, #14
 777 0196 0121     		movs	r1, #1
 778 0198 1846     		mov	r0, r3
 779 019a FFF7FEFF 		bl	VL53L0X_SetVcselPulsePeriod
 242:Core/Src/main.c **** 
 243:Core/Src/main.c ****   // HAL_Delay(1000);
 244:Core/Src/main.c ****   // FATFS FatFs;  // Fatfs handle
 245:Core/Src/main.c ****   // FIL fil;      // File handle
 246:Core/Src/main.c ****   // FRESULT fres; // Result after operations
 247:Core/Src/main.c **** 
 248:Core/Src/main.c ****   // fres = f_mount(&FatFs, "", 1); // 1=mount now
 249:Core/Src/main.c ****   // // HAL_Delay(1000);
 250:Core/Src/main.c ****   // while (fres != FR_OK)
 251:Core/Src/main.c ****   // {
 252:Core/Src/main.c ****   //   myprintf("f_mount error (%i)\r\n", fres);
 253:Core/Src/main.c ****   //   HAL_Delay(500);
 254:Core/Src/main.c ****   //   fres = f_mount(&FatFs, "", 1); // 1=mount now
 255:Core/Src/main.c ****   // }
 256:Core/Src/main.c **** 
 257:Core/Src/main.c ****   // DWORD free_clusters, free_sectors, total_sectors;
 258:Core/Src/main.c **** 
 259:Core/Src/main.c ****   // FATFS *getFreeFs;
 260:Core/Src/main.c **** 
 261:Core/Src/main.c ****   // fres = f_getfree("", &free_clusters, &getFreeFs);
 262:Core/Src/main.c ****   // while (fres != FR_OK)
 263:Core/Src/main.c ****   // {
 264:Core/Src/main.c ****   //   myprintf("f_getfree error (%i)\r\n", fres);
 265:Core/Src/main.c ****   //   HAL_Delay(500);
 266:Core/Src/main.c ****   //   fres = f_getfree("", &free_clusters, &getFreeFs);
 267:Core/Src/main.c ****   // }
 268:Core/Src/main.c ****   // total_sectors = (getFreeFs->n_fatent - 2) * getFreeFs->csize;
 269:Core/Src/main.c ****   // free_sectors = free_clusters * getFreeFs->csize;
 270:Core/Src/main.c ****   // myprintf("SD card stats:\r\n%10lu KiB total drive space.\r\n%10lu KiB available.\r\n", total_s
 271:Core/Src/main.c ****   // fres = f_open(&fil, "AA8_cube.txt", FA_READ);
 272:Core/Src/main.c ****   // while (fres != FR_OK)
 273:Core/Src/main.c ****   // {
 274:Core/Src/main.c ****   //   myprintf("f_open error (%i)\r\n");
 275:Core/Src/main.c ****   //   HAL_Delay(500);
 276:Core/Src/main.c ****   //   fres = f_open(&fil, "AA8_cube.txt", FA_READ);
 277:Core/Src/main.c ****   // }
 278:Core/Src/main.c ****   // myprintf("I was able to open 'AA8_cube.txt' for reading!\r\n");
 279:Core/Src/main.c ****   int t = 0;
 780              		.loc 1 279 7
 781 019e 0023     		movs	r3, #0
 782 01a0 FB61     		str	r3, [r7, #28]
 783              	.L26:
 280:Core/Src/main.c ****   /* USER CODE END 2 */
 281:Core/Src/main.c **** 
 282:Core/Src/main.c ****   /* Infinite loop */
 283:Core/Src/main.c ****   /* USER CODE BEGIN WHILE */
 284:Core/Src/main.c ****   while (1)
 285:Core/Src/main.c ****   {
 286:Core/Src/main.c ****     // ILI9341_Set_Address(0,0,320,240);
 287:Core/Src/main.c ****     // ILI9341_Draw_Colour_Burst(MAGENTA, 320*240);
ARM GAS  C:\Users\Morroway\AppData\Local\Temp\ccSn7seF.s 			page 22


 288:Core/Src/main.c ****     // ILI9341_Set_Rotation(SCREEN_HORIZONTAL_2);
 289:Core/Src/main.c ****     // ILI9341_Fill_Screen(WHITE);
 290:Core/Src/main.c ****     // VL53L0X_PerformSingleRangingMeasurement(Dev, &RangingData);
 291:Core/Src/main.c ****     if (RxBuf[0] != 0 && isRunning == false)
 784              		.loc 1 291 14
 785 01a2 444B     		ldr	r3, .L27+20
 786 01a4 1B78     		ldrb	r3, [r3]	@ zero_extendqisi2
 787              		.loc 1 291 8
 788 01a6 002B     		cmp	r3, #0
 789 01a8 0ED0     		beq	.L21
 790              		.loc 1 291 36 discriminator 1
 791 01aa 494B     		ldr	r3, .L27+48
 792 01ac 1B78     		ldrb	r3, [r3]	@ zero_extendqisi2
 793 01ae 83F00103 		eor	r3, r3, #1
 794 01b2 DBB2     		uxtb	r3, r3
 795              		.loc 1 291 23 discriminator 1
 796 01b4 002B     		cmp	r3, #0
 797 01b6 07D0     		beq	.L21
 292:Core/Src/main.c ****     {
 293:Core/Src/main.c ****       get_command(RxBuf);
 798              		.loc 1 293 7
 799 01b8 3E48     		ldr	r0, .L27+20
 800 01ba FFF7FEFF 		bl	get_command
 294:Core/Src/main.c ****       memset(&RxBuf[0], 0, sizeof(RxBuf));
 801              		.loc 1 294 7
 802 01be 2822     		movs	r2, #40
 803 01c0 0021     		movs	r1, #0
 804 01c2 3C48     		ldr	r0, .L27+20
 805 01c4 FFF7FEFF 		bl	memset
 806              	.L21:
 295:Core/Src/main.c ****     }
 296:Core/Src/main.c ****     // if(RangingData.RangeStatus == 0)
 297:Core/Src/main.c ****     // {
 298:Core/Src/main.c ****     //   sprintf((char*)msg_buffer, "Measured distance: %i\n\r", RangingData.RangeMilliMeter);
 299:Core/Src/main.c ****     //   HAL_UART_Transmit(&hlpuart1, (uint16_t *)msg_buffer, strlen(msg_buffer), 100);
 300:Core/Src/main.c ****     // }
 301:Core/Src/main.c ****     // ILI9341_Draw_Text("KURWA", 10, 10, BLACK, 4, WHITE);
 302:Core/Src/main.c ****     // ILI9341_Draw_Filled_Rectangle_Coord(0, 100, 200, 130, BLACK);
 303:Core/Src/main.c ****     // if (isRunning == false && started == true)
 304:Core/Src/main.c ****     // {
 305:Core/Src/main.c ****     //   isRunning = true;
 306:Core/Src/main.c ****     //   BYTE readBuf[40];
 307:Core/Src/main.c ****     //   TCHAR *rres = f_gets((TCHAR *)readBuf, 40, &fil);
 308:Core/Src/main.c ****     //   if (rres != 0)
 309:Core/Src/main.c ****     //   {
 310:Core/Src/main.c ****     //     myprintf("%s", readBuf);
 311:Core/Src/main.c ****     //     get_command(readBuf);
 312:Core/Src/main.c ****     //   }
 313:Core/Src/main.c ****     // }
 314:Core/Src/main.c **** 
 315:Core/Src/main.c ****     // HAL_Delay(400);
 316:Core/Src/main.c **** 
 317:Core/Src/main.c ****     if (READ_PIN(X_STOP_PIN) != 1 && READ_PIN(Y_STOP_PIN) != 1)
 807              		.loc 1 317 9
 808 01c8 1021     		movs	r1, #16
 809 01ca 3F48     		ldr	r0, .L27+40
 810 01cc FFF7FEFF 		bl	HAL_GPIO_ReadPin
ARM GAS  C:\Users\Morroway\AppData\Local\Temp\ccSn7seF.s 			page 23


 811 01d0 0346     		mov	r3, r0
 812              		.loc 1 317 8
 813 01d2 012B     		cmp	r3, #1
 814 01d4 08D0     		beq	.L22
 815              		.loc 1 317 38 discriminator 1
 816 01d6 2021     		movs	r1, #32
 817 01d8 3B48     		ldr	r0, .L27+40
 818 01da FFF7FEFF 		bl	HAL_GPIO_ReadPin
 819 01de 0346     		mov	r3, r0
 820              		.loc 1 317 35 discriminator 1
 821 01e0 012B     		cmp	r3, #1
 822 01e2 01D0     		beq	.L22
 318:Core/Src/main.c ****     {
 319:Core/Src/main.c ****       G0();
 823              		.loc 1 319 7
 824 01e4 FFF7FEFF 		bl	G0
 825              	.L22:
 320:Core/Src/main.c ****     }
 321:Core/Src/main.c ****     
 322:Core/Src/main.c ****     M104();
 826              		.loc 1 322 5
 827 01e8 FFF7FEFF 		bl	M104
 323:Core/Src/main.c ****     M140();
 828              		.loc 1 323 5
 829 01ec FFF7FEFF 		bl	M140
 324:Core/Src/main.c ****     if(t >= 1000)
 830              		.loc 1 324 7
 831 01f0 FB69     		ldr	r3, [r7, #28]
 832 01f2 B3F57A7F 		cmp	r3, #1000
 833 01f6 2ADB     		blt	.L23
 325:Core/Src/main.c ****     {
 326:Core/Src/main.c ****       myprintf("T: %.2f R: %.2f B: %.2f\r\n", GetTemperature(ADC_HOT_END, value[ADC_HOT_END]), GetT
 834              		.loc 1 326 80
 835 01f8 2A4B     		ldr	r3, .L27+4
 836 01fa 5B68     		ldr	r3, [r3, #4]
 837              		.loc 1 326 7
 838 01fc 9BB2     		uxth	r3, r3
 839 01fe 1946     		mov	r1, r3
 840 0200 0120     		movs	r0, #1
 841 0202 FFF7FEFF 		bl	GetTemperature
 842 0206 55EC104B 		vmov	r4, r5, d0
 843              		.loc 1 326 119
 844 020a 264B     		ldr	r3, .L27+4
 845 020c 5B68     		ldr	r3, [r3, #4]
 846              		.loc 1 326 7
 847 020e 9BB2     		uxth	r3, r3
 848 0210 1946     		mov	r1, r3
 849 0212 0620     		movs	r0, #6
 850 0214 FFF7FEFF 		bl	GetTemperature
 851 0218 B0EE408A 		vmov.f32	s16, s0
 852 021c F0EE608A 		vmov.f32	s17, s1
 853              		.loc 1 326 164
 854 0220 204B     		ldr	r3, .L27+4
 855 0222 1B68     		ldr	r3, [r3]
 856              		.loc 1 326 7
 857 0224 9BB2     		uxth	r3, r3
 858 0226 1946     		mov	r1, r3
ARM GAS  C:\Users\Morroway\AppData\Local\Temp\ccSn7seF.s 			page 24


 859 0228 0020     		movs	r0, #0
 860 022a FFF7FEFF 		bl	GetTemperature
 861 022e B0EE407A 		vmov.f32	s14, s0
 862 0232 F0EE607A 		vmov.f32	s15, s1
 863 0236 8DED027B 		vstr.64	d7, [sp, #8]
 864 023a 8DED008B 		vstr.64	d8, [sp]
 865 023e 2246     		mov	r2, r4
 866 0240 2B46     		mov	r3, r5
 867 0242 2448     		ldr	r0, .L27+52
 868 0244 FFF7FEFF 		bl	myprintf
 327:Core/Src/main.c ****       t = 0;
 869              		.loc 1 327 9
 870 0248 0023     		movs	r3, #0
 871 024a FB61     		str	r3, [r7, #28]
 872 024c 02E0     		b	.L24
 873              	.L23:
 328:Core/Src/main.c ****     }else t++;
 874              		.loc 1 328 12
 875 024e FB69     		ldr	r3, [r7, #28]
 876 0250 0133     		adds	r3, r3, #1
 877 0252 FB61     		str	r3, [r7, #28]
 878              	.L24:
 329:Core/Src/main.c ****     if (READ_PIN(USER_BUTTON) == 1)
 879              		.loc 1 329 9
 880 0254 4FF40051 		mov	r1, #8192
 881 0258 1F48     		ldr	r0, .L27+56
 882 025a FFF7FEFF 		bl	HAL_GPIO_ReadPin
 883 025e 0346     		mov	r3, r0
 884              		.loc 1 329 8
 885 0260 012B     		cmp	r3, #1
 886 0262 9ED1     		bne	.L26
 330:Core/Src/main.c ****     {
 331:Core/Src/main.c ****       started = true;
 887              		.loc 1 331 15
 888 0264 0123     		movs	r3, #1
 889 0266 FB75     		strb	r3, [r7, #23]
 332:Core/Src/main.c ****       myprintf("Cur X: %f, Des X: %f, Cur Y: %f, Des Y: %f, isRunning?: %d\r\n", Cur_X, X, Cur_Y, Y
 890              		.loc 1 332 7
 891 0268 1C4B     		ldr	r3, .L27+60
 892 026a D3E90089 		ldrd	r8, [r3]
 893 026e 1C4B     		ldr	r3, .L27+64
 894 0270 D3E90023 		ldrd	r2, [r3]
 895 0274 1B49     		ldr	r1, .L27+68
 896 0276 D1E90001 		ldrd	r0, [r1]
 897 027a 1B4C     		ldr	r4, .L27+72
 898 027c D4E90045 		ldrd	r4, [r4]
 899 0280 134E     		ldr	r6, .L27+48
 900 0282 3678     		ldrb	r6, [r6]	@ zero_extendqisi2
 901 0284 0696     		str	r6, [sp, #24]
 902 0286 CDE90445 		strd	r4, [sp, #16]
 903 028a CDE90201 		strd	r0, [sp, #8]
 904 028e CDE90023 		strd	r2, [sp]
 905 0292 4246     		mov	r2, r8
 906 0294 4B46     		mov	r3, r9
 907 0296 1548     		ldr	r0, .L27+76
 908 0298 FFF7FEFF 		bl	myprintf
 291:Core/Src/main.c ****     {
ARM GAS  C:\Users\Morroway\AppData\Local\Temp\ccSn7seF.s 			page 25


 909              		.loc 1 291 8
 910 029c 81E7     		b	.L26
 911              	.L28:
 912 029e 00BF     		.align	2
 913              	.L27:
 914 02a0 00000000 		.word	htim3
 915 02a4 00000000 		.word	value
 916 02a8 00000000 		.word	hadc1
 917 02ac 00000000 		.word	htim4
 918 02b0 00000000 		.word	htim5
 919 02b4 00000000 		.word	RxBuf
 920 02b8 00000000 		.word	hlpuart1
 921 02bc 00000000 		.word	hdma_lpuart1_rx
 922 02c0 00000000 		.word	Dev
 923 02c4 00000000 		.word	hi2c1
 924 02c8 00140048 		.word	1207964672
 925 02cc 80841E00 		.word	2000000
 926 02d0 00000000 		.word	isRunning
 927 02d4 00000000 		.word	.LC0
 928 02d8 00080048 		.word	1207961600
 929 02dc 00000000 		.word	Cur_X
 930 02e0 00000000 		.word	X
 931 02e4 00000000 		.word	Cur_Y
 932 02e8 00000000 		.word	Y
 933 02ec 1C000000 		.word	.LC1
 934              		.cfi_endproc
 935              	.LFE330:
 937              		.section	.text.SystemClock_Config,"ax",%progbits
 938              		.align	1
 939              		.global	SystemClock_Config
 940              		.syntax unified
 941              		.thumb
 942              		.thumb_func
 944              	SystemClock_Config:
 945              	.LFB331:
 333:Core/Src/main.c ****     }
 334:Core/Src/main.c ****     /* USER CODE END WHILE */
 335:Core/Src/main.c **** 
 336:Core/Src/main.c ****     /* USER CODE BEGIN 3 */
 337:Core/Src/main.c ****   }
 338:Core/Src/main.c ****   // f_close(&fil);
 339:Core/Src/main.c ****   /* USER CODE END 3 */
 340:Core/Src/main.c **** }
 341:Core/Src/main.c **** 
 342:Core/Src/main.c **** /**
 343:Core/Src/main.c ****   * @brief System Clock Configuration
 344:Core/Src/main.c ****   * @retval None
 345:Core/Src/main.c ****   */
 346:Core/Src/main.c **** void SystemClock_Config(void)
 347:Core/Src/main.c **** {
 946              		.loc 1 347 1
 947              		.cfi_startproc
 948              		@ args = 0, pretend = 0, frame = 96
 949              		@ frame_needed = 1, uses_anonymous_args = 0
 950 0000 80B5     		push	{r7, lr}
 951              		.cfi_def_cfa_offset 8
 952              		.cfi_offset 7, -8
ARM GAS  C:\Users\Morroway\AppData\Local\Temp\ccSn7seF.s 			page 26


 953              		.cfi_offset 14, -4
 954 0002 98B0     		sub	sp, sp, #96
 955              		.cfi_def_cfa_offset 104
 956 0004 00AF     		add	r7, sp, #0
 957              		.cfi_def_cfa_register 7
 348:Core/Src/main.c ****   RCC_OscInitTypeDef RCC_OscInitStruct = {0};
 958              		.loc 1 348 22
 959 0006 07F11803 		add	r3, r7, #24
 960 000a 4822     		movs	r2, #72
 961 000c 0021     		movs	r1, #0
 962 000e 1846     		mov	r0, r3
 963 0010 FFF7FEFF 		bl	memset
 349:Core/Src/main.c ****   RCC_ClkInitTypeDef RCC_ClkInitStruct = {0};
 964              		.loc 1 349 22
 965 0014 3B1D     		adds	r3, r7, #4
 966 0016 0022     		movs	r2, #0
 967 0018 1A60     		str	r2, [r3]
 968 001a 5A60     		str	r2, [r3, #4]
 969 001c 9A60     		str	r2, [r3, #8]
 970 001e DA60     		str	r2, [r3, #12]
 971 0020 1A61     		str	r2, [r3, #16]
 350:Core/Src/main.c **** 
 351:Core/Src/main.c ****   /** Configure the main internal regulator output voltage
 352:Core/Src/main.c ****   */
 353:Core/Src/main.c ****   if (HAL_PWREx_ControlVoltageScaling(PWR_REGULATOR_VOLTAGE_SCALE1_BOOST) != HAL_OK)
 972              		.loc 1 353 7
 973 0022 0020     		movs	r0, #0
 974 0024 FFF7FEFF 		bl	HAL_PWREx_ControlVoltageScaling
 975 0028 0346     		mov	r3, r0
 976              		.loc 1 353 6
 977 002a 002B     		cmp	r3, #0
 978 002c 01D0     		beq	.L30
 354:Core/Src/main.c ****   {
 355:Core/Src/main.c ****     Error_Handler();
 979              		.loc 1 355 5
 980 002e FFF7FEFF 		bl	Error_Handler
 981              	.L30:
 356:Core/Src/main.c ****   }
 357:Core/Src/main.c **** 
 358:Core/Src/main.c ****   /** Initializes the RCC Oscillators according to the specified parameters
 359:Core/Src/main.c ****   * in the RCC_OscInitTypeDef structure.
 360:Core/Src/main.c ****   */
 361:Core/Src/main.c ****   RCC_OscInitStruct.OscillatorType = RCC_OSCILLATORTYPE_HSI48|RCC_OSCILLATORTYPE_MSI;
 982              		.loc 1 361 36
 983 0032 3023     		movs	r3, #48
 984 0034 BB61     		str	r3, [r7, #24]
 362:Core/Src/main.c ****   RCC_OscInitStruct.HSI48State = RCC_HSI48_ON;
 985              		.loc 1 362 32
 986 0036 0123     		movs	r3, #1
 987 0038 3B64     		str	r3, [r7, #64]
 363:Core/Src/main.c ****   RCC_OscInitStruct.MSIState = RCC_MSI_ON;
 988              		.loc 1 363 30
 989 003a 0123     		movs	r3, #1
 990 003c 7B63     		str	r3, [r7, #52]
 364:Core/Src/main.c ****   RCC_OscInitStruct.MSICalibrationValue = 0;
 991              		.loc 1 364 41
 992 003e 0023     		movs	r3, #0
ARM GAS  C:\Users\Morroway\AppData\Local\Temp\ccSn7seF.s 			page 27


 993 0040 BB63     		str	r3, [r7, #56]
 365:Core/Src/main.c ****   RCC_OscInitStruct.MSIClockRange = RCC_MSIRANGE_6;
 994              		.loc 1 365 35
 995 0042 6023     		movs	r3, #96
 996 0044 FB63     		str	r3, [r7, #60]
 366:Core/Src/main.c ****   RCC_OscInitStruct.PLL.PLLState = RCC_PLL_ON;
 997              		.loc 1 366 34
 998 0046 0223     		movs	r3, #2
 999 0048 7B64     		str	r3, [r7, #68]
 367:Core/Src/main.c ****   RCC_OscInitStruct.PLL.PLLSource = RCC_PLLSOURCE_MSI;
 1000              		.loc 1 367 35
 1001 004a 0123     		movs	r3, #1
 1002 004c BB64     		str	r3, [r7, #72]
 368:Core/Src/main.c ****   RCC_OscInitStruct.PLL.PLLM = 1;
 1003              		.loc 1 368 30
 1004 004e 0123     		movs	r3, #1
 1005 0050 FB64     		str	r3, [r7, #76]
 369:Core/Src/main.c ****   RCC_OscInitStruct.PLL.PLLN = 60;
 1006              		.loc 1 369 30
 1007 0052 3C23     		movs	r3, #60
 1008 0054 3B65     		str	r3, [r7, #80]
 370:Core/Src/main.c ****   RCC_OscInitStruct.PLL.PLLP = RCC_PLLP_DIV2;
 1009              		.loc 1 370 30
 1010 0056 0223     		movs	r3, #2
 1011 0058 7B65     		str	r3, [r7, #84]
 371:Core/Src/main.c ****   RCC_OscInitStruct.PLL.PLLQ = RCC_PLLQ_DIV2;
 1012              		.loc 1 371 30
 1013 005a 0223     		movs	r3, #2
 1014 005c BB65     		str	r3, [r7, #88]
 372:Core/Src/main.c ****   RCC_OscInitStruct.PLL.PLLR = RCC_PLLR_DIV2;
 1015              		.loc 1 372 30
 1016 005e 0223     		movs	r3, #2
 1017 0060 FB65     		str	r3, [r7, #92]
 373:Core/Src/main.c ****   if (HAL_RCC_OscConfig(&RCC_OscInitStruct) != HAL_OK)
 1018              		.loc 1 373 7
 1019 0062 07F11803 		add	r3, r7, #24
 1020 0066 1846     		mov	r0, r3
 1021 0068 FFF7FEFF 		bl	HAL_RCC_OscConfig
 1022 006c 0346     		mov	r3, r0
 1023              		.loc 1 373 6
 1024 006e 002B     		cmp	r3, #0
 1025 0070 01D0     		beq	.L31
 374:Core/Src/main.c ****   {
 375:Core/Src/main.c ****     Error_Handler();
 1026              		.loc 1 375 5
 1027 0072 FFF7FEFF 		bl	Error_Handler
 1028              	.L31:
 376:Core/Src/main.c ****   }
 377:Core/Src/main.c **** 
 378:Core/Src/main.c ****   /** Initializes the CPU, AHB and APB buses clocks
 379:Core/Src/main.c ****   */
 380:Core/Src/main.c ****   RCC_ClkInitStruct.ClockType = RCC_CLOCKTYPE_HCLK|RCC_CLOCKTYPE_SYSCLK
 1029              		.loc 1 380 31
 1030 0076 0F23     		movs	r3, #15
 1031 0078 7B60     		str	r3, [r7, #4]
 381:Core/Src/main.c ****                               |RCC_CLOCKTYPE_PCLK1|RCC_CLOCKTYPE_PCLK2;
 382:Core/Src/main.c ****   RCC_ClkInitStruct.SYSCLKSource = RCC_SYSCLKSOURCE_PLLCLK;
ARM GAS  C:\Users\Morroway\AppData\Local\Temp\ccSn7seF.s 			page 28


 1032              		.loc 1 382 34
 1033 007a 0323     		movs	r3, #3
 1034 007c BB60     		str	r3, [r7, #8]
 383:Core/Src/main.c ****   RCC_ClkInitStruct.AHBCLKDivider = RCC_SYSCLK_DIV1;
 1035              		.loc 1 383 35
 1036 007e 0023     		movs	r3, #0
 1037 0080 FB60     		str	r3, [r7, #12]
 384:Core/Src/main.c ****   RCC_ClkInitStruct.APB1CLKDivider = RCC_HCLK_DIV1;
 1038              		.loc 1 384 36
 1039 0082 0023     		movs	r3, #0
 1040 0084 3B61     		str	r3, [r7, #16]
 385:Core/Src/main.c ****   RCC_ClkInitStruct.APB2CLKDivider = RCC_HCLK_DIV1;
 1041              		.loc 1 385 36
 1042 0086 0023     		movs	r3, #0
 1043 0088 7B61     		str	r3, [r7, #20]
 386:Core/Src/main.c **** 
 387:Core/Src/main.c ****   if (HAL_RCC_ClockConfig(&RCC_ClkInitStruct, FLASH_LATENCY_5) != HAL_OK)
 1044              		.loc 1 387 7
 1045 008a 3B1D     		adds	r3, r7, #4
 1046 008c 0521     		movs	r1, #5
 1047 008e 1846     		mov	r0, r3
 1048 0090 FFF7FEFF 		bl	HAL_RCC_ClockConfig
 1049 0094 0346     		mov	r3, r0
 1050              		.loc 1 387 6
 1051 0096 002B     		cmp	r3, #0
 1052 0098 01D0     		beq	.L33
 388:Core/Src/main.c ****   {
 389:Core/Src/main.c ****     Error_Handler();
 1053              		.loc 1 389 5
 1054 009a FFF7FEFF 		bl	Error_Handler
 1055              	.L33:
 390:Core/Src/main.c ****   }
 391:Core/Src/main.c **** }
 1056              		.loc 1 391 1
 1057 009e 00BF     		nop
 1058 00a0 6037     		adds	r7, r7, #96
 1059              		.cfi_def_cfa_offset 8
 1060 00a2 BD46     		mov	sp, r7
 1061              		.cfi_def_cfa_register 13
 1062              		@ sp needed
 1063 00a4 80BD     		pop	{r7, pc}
 1064              		.cfi_endproc
 1065              	.LFE331:
 1067              		.section	.text.MX_ADC1_Init,"ax",%progbits
 1068              		.align	1
 1069              		.syntax unified
 1070              		.thumb
 1071              		.thumb_func
 1073              	MX_ADC1_Init:
 1074              	.LFB332:
 392:Core/Src/main.c **** 
 393:Core/Src/main.c **** /**
 394:Core/Src/main.c ****   * @brief ADC1 Initialization Function
 395:Core/Src/main.c ****   * @param None
 396:Core/Src/main.c ****   * @retval None
 397:Core/Src/main.c ****   */
 398:Core/Src/main.c **** static void MX_ADC1_Init(void)
ARM GAS  C:\Users\Morroway\AppData\Local\Temp\ccSn7seF.s 			page 29


 399:Core/Src/main.c **** {
 1075              		.loc 1 399 1
 1076              		.cfi_startproc
 1077              		@ args = 0, pretend = 0, frame = 40
 1078              		@ frame_needed = 1, uses_anonymous_args = 0
 1079 0000 80B5     		push	{r7, lr}
 1080              		.cfi_def_cfa_offset 8
 1081              		.cfi_offset 7, -8
 1082              		.cfi_offset 14, -4
 1083 0002 8AB0     		sub	sp, sp, #40
 1084              		.cfi_def_cfa_offset 48
 1085 0004 00AF     		add	r7, sp, #0
 1086              		.cfi_def_cfa_register 7
 400:Core/Src/main.c **** 
 401:Core/Src/main.c ****   /* USER CODE BEGIN ADC1_Init 0 */
 402:Core/Src/main.c **** 
 403:Core/Src/main.c ****   /* USER CODE END ADC1_Init 0 */
 404:Core/Src/main.c **** 
 405:Core/Src/main.c ****   ADC_MultiModeTypeDef multimode = {0};
 1087              		.loc 1 405 24
 1088 0006 07F11C03 		add	r3, r7, #28
 1089 000a 0022     		movs	r2, #0
 1090 000c 1A60     		str	r2, [r3]
 1091 000e 5A60     		str	r2, [r3, #4]
 1092 0010 9A60     		str	r2, [r3, #8]
 406:Core/Src/main.c ****   ADC_ChannelConfTypeDef sConfig = {0};
 1093              		.loc 1 406 26
 1094 0012 3B1D     		adds	r3, r7, #4
 1095 0014 0022     		movs	r2, #0
 1096 0016 1A60     		str	r2, [r3]
 1097 0018 5A60     		str	r2, [r3, #4]
 1098 001a 9A60     		str	r2, [r3, #8]
 1099 001c DA60     		str	r2, [r3, #12]
 1100 001e 1A61     		str	r2, [r3, #16]
 1101 0020 5A61     		str	r2, [r3, #20]
 407:Core/Src/main.c **** 
 408:Core/Src/main.c ****   /* USER CODE BEGIN ADC1_Init 1 */
 409:Core/Src/main.c **** 
 410:Core/Src/main.c ****   /* USER CODE END ADC1_Init 1 */
 411:Core/Src/main.c **** 
 412:Core/Src/main.c ****   /** Common config
 413:Core/Src/main.c ****   */
 414:Core/Src/main.c ****   hadc1.Instance = ADC1;
 1102              		.loc 1 414 18
 1103 0022 434B     		ldr	r3, .L41
 1104 0024 434A     		ldr	r2, .L41+4
 1105 0026 1A60     		str	r2, [r3]
 415:Core/Src/main.c ****   hadc1.Init.ClockPrescaler = ADC_CLOCK_ASYNC_DIV1;
 1106              		.loc 1 415 29
 1107 0028 414B     		ldr	r3, .L41
 1108 002a 0022     		movs	r2, #0
 1109 002c 5A60     		str	r2, [r3, #4]
 416:Core/Src/main.c ****   hadc1.Init.Resolution = ADC_RESOLUTION_12B;
 1110              		.loc 1 416 25
 1111 002e 404B     		ldr	r3, .L41
 1112 0030 0022     		movs	r2, #0
 1113 0032 9A60     		str	r2, [r3, #8]
ARM GAS  C:\Users\Morroway\AppData\Local\Temp\ccSn7seF.s 			page 30


 417:Core/Src/main.c ****   hadc1.Init.DataAlign = ADC_DATAALIGN_RIGHT;
 1114              		.loc 1 417 24
 1115 0034 3E4B     		ldr	r3, .L41
 1116 0036 0022     		movs	r2, #0
 1117 0038 DA60     		str	r2, [r3, #12]
 418:Core/Src/main.c ****   hadc1.Init.ScanConvMode = ADC_SCAN_ENABLE;
 1118              		.loc 1 418 27
 1119 003a 3D4B     		ldr	r3, .L41
 1120 003c 0122     		movs	r2, #1
 1121 003e 1A61     		str	r2, [r3, #16]
 419:Core/Src/main.c ****   hadc1.Init.EOCSelection = ADC_EOC_SINGLE_CONV;
 1122              		.loc 1 419 27
 1123 0040 3B4B     		ldr	r3, .L41
 1124 0042 0422     		movs	r2, #4
 1125 0044 5A61     		str	r2, [r3, #20]
 420:Core/Src/main.c ****   hadc1.Init.LowPowerAutoWait = DISABLE;
 1126              		.loc 1 420 31
 1127 0046 3A4B     		ldr	r3, .L41
 1128 0048 0022     		movs	r2, #0
 1129 004a 1A76     		strb	r2, [r3, #24]
 421:Core/Src/main.c ****   hadc1.Init.ContinuousConvMode = ENABLE;
 1130              		.loc 1 421 33
 1131 004c 384B     		ldr	r3, .L41
 1132 004e 0122     		movs	r2, #1
 1133 0050 5A76     		strb	r2, [r3, #25]
 422:Core/Src/main.c ****   hadc1.Init.NbrOfConversion = 3;
 1134              		.loc 1 422 30
 1135 0052 374B     		ldr	r3, .L41
 1136 0054 0322     		movs	r2, #3
 1137 0056 DA61     		str	r2, [r3, #28]
 423:Core/Src/main.c ****   hadc1.Init.DiscontinuousConvMode = DISABLE;
 1138              		.loc 1 423 36
 1139 0058 354B     		ldr	r3, .L41
 1140 005a 0022     		movs	r2, #0
 1141 005c 83F82020 		strb	r2, [r3, #32]
 424:Core/Src/main.c ****   hadc1.Init.ExternalTrigConv = ADC_SOFTWARE_START;
 1142              		.loc 1 424 31
 1143 0060 334B     		ldr	r3, .L41
 1144 0062 0022     		movs	r2, #0
 1145 0064 9A62     		str	r2, [r3, #40]
 425:Core/Src/main.c ****   hadc1.Init.ExternalTrigConvEdge = ADC_EXTERNALTRIGCONVEDGE_NONE;
 1146              		.loc 1 425 35
 1147 0066 324B     		ldr	r3, .L41
 1148 0068 0022     		movs	r2, #0
 1149 006a DA62     		str	r2, [r3, #44]
 426:Core/Src/main.c ****   hadc1.Init.DMAContinuousRequests = ENABLE;
 1150              		.loc 1 426 36
 1151 006c 304B     		ldr	r3, .L41
 1152 006e 0122     		movs	r2, #1
 1153 0070 83F83020 		strb	r2, [r3, #48]
 427:Core/Src/main.c ****   hadc1.Init.Overrun = ADC_OVR_DATA_PRESERVED;
 1154              		.loc 1 427 22
 1155 0074 2E4B     		ldr	r3, .L41
 1156 0076 0022     		movs	r2, #0
 1157 0078 5A63     		str	r2, [r3, #52]
 428:Core/Src/main.c ****   hadc1.Init.OversamplingMode = ENABLE;
 1158              		.loc 1 428 31
ARM GAS  C:\Users\Morroway\AppData\Local\Temp\ccSn7seF.s 			page 31


 1159 007a 2D4B     		ldr	r3, .L41
 1160 007c 0122     		movs	r2, #1
 1161 007e 83F83820 		strb	r2, [r3, #56]
 429:Core/Src/main.c ****   hadc1.Init.Oversampling.Ratio = ADC_OVERSAMPLING_RATIO_16;
 1162              		.loc 1 429 33
 1163 0082 2B4B     		ldr	r3, .L41
 1164 0084 0C22     		movs	r2, #12
 1165 0086 DA63     		str	r2, [r3, #60]
 430:Core/Src/main.c ****   hadc1.Init.Oversampling.RightBitShift = ADC_RIGHTBITSHIFT_NONE;
 1166              		.loc 1 430 41
 1167 0088 294B     		ldr	r3, .L41
 1168 008a 0022     		movs	r2, #0
 1169 008c 1A64     		str	r2, [r3, #64]
 431:Core/Src/main.c ****   hadc1.Init.Oversampling.TriggeredMode = ADC_TRIGGEREDMODE_SINGLE_TRIGGER;
 1170              		.loc 1 431 41
 1171 008e 284B     		ldr	r3, .L41
 1172 0090 0022     		movs	r2, #0
 1173 0092 5A64     		str	r2, [r3, #68]
 432:Core/Src/main.c ****   hadc1.Init.Oversampling.OversamplingStopReset = ADC_REGOVERSAMPLING_CONTINUED_MODE;
 1174              		.loc 1 432 49
 1175 0094 264B     		ldr	r3, .L41
 1176 0096 0122     		movs	r2, #1
 1177 0098 9A64     		str	r2, [r3, #72]
 433:Core/Src/main.c ****   if (HAL_ADC_Init(&hadc1) != HAL_OK)
 1178              		.loc 1 433 7
 1179 009a 2548     		ldr	r0, .L41
 1180 009c FFF7FEFF 		bl	HAL_ADC_Init
 1181 00a0 0346     		mov	r3, r0
 1182              		.loc 1 433 6
 1183 00a2 002B     		cmp	r3, #0
 1184 00a4 01D0     		beq	.L35
 434:Core/Src/main.c ****   {
 435:Core/Src/main.c ****     Error_Handler();
 1185              		.loc 1 435 5
 1186 00a6 FFF7FEFF 		bl	Error_Handler
 1187              	.L35:
 436:Core/Src/main.c ****   }
 437:Core/Src/main.c **** 
 438:Core/Src/main.c ****   /** Configure the ADC multi-mode
 439:Core/Src/main.c ****   */
 440:Core/Src/main.c ****   multimode.Mode = ADC_MODE_INDEPENDENT;
 1188              		.loc 1 440 18
 1189 00aa 0023     		movs	r3, #0
 1190 00ac FB61     		str	r3, [r7, #28]
 441:Core/Src/main.c ****   if (HAL_ADCEx_MultiModeConfigChannel(&hadc1, &multimode) != HAL_OK)
 1191              		.loc 1 441 7
 1192 00ae 07F11C03 		add	r3, r7, #28
 1193 00b2 1946     		mov	r1, r3
 1194 00b4 1E48     		ldr	r0, .L41
 1195 00b6 FFF7FEFF 		bl	HAL_ADCEx_MultiModeConfigChannel
 1196 00ba 0346     		mov	r3, r0
 1197              		.loc 1 441 6
 1198 00bc 002B     		cmp	r3, #0
 1199 00be 01D0     		beq	.L36
 442:Core/Src/main.c ****   {
 443:Core/Src/main.c ****     Error_Handler();
 1200              		.loc 1 443 5
ARM GAS  C:\Users\Morroway\AppData\Local\Temp\ccSn7seF.s 			page 32


 1201 00c0 FFF7FEFF 		bl	Error_Handler
 1202              	.L36:
 444:Core/Src/main.c ****   }
 445:Core/Src/main.c **** 
 446:Core/Src/main.c ****   /** Configure Regular Channel
 447:Core/Src/main.c ****   */
 448:Core/Src/main.c ****   sConfig.Channel = ADC_CHANNEL_1;
 1203              		.loc 1 448 19
 1204 00c4 1C4B     		ldr	r3, .L41+8
 1205 00c6 7B60     		str	r3, [r7, #4]
 449:Core/Src/main.c ****   sConfig.Rank = ADC_REGULAR_RANK_1;
 1206              		.loc 1 449 16
 1207 00c8 0623     		movs	r3, #6
 1208 00ca BB60     		str	r3, [r7, #8]
 450:Core/Src/main.c ****   sConfig.SamplingTime = ADC_SAMPLETIME_640CYCLES_5;
 1209              		.loc 1 450 24
 1210 00cc 0723     		movs	r3, #7
 1211 00ce FB60     		str	r3, [r7, #12]
 451:Core/Src/main.c ****   sConfig.SingleDiff = ADC_SINGLE_ENDED;
 1212              		.loc 1 451 22
 1213 00d0 7F23     		movs	r3, #127
 1214 00d2 3B61     		str	r3, [r7, #16]
 452:Core/Src/main.c ****   sConfig.OffsetNumber = ADC_OFFSET_NONE;
 1215              		.loc 1 452 24
 1216 00d4 0423     		movs	r3, #4
 1217 00d6 7B61     		str	r3, [r7, #20]
 453:Core/Src/main.c ****   sConfig.Offset = 0;
 1218              		.loc 1 453 18
 1219 00d8 0023     		movs	r3, #0
 1220 00da BB61     		str	r3, [r7, #24]
 454:Core/Src/main.c ****   if (HAL_ADC_ConfigChannel(&hadc1, &sConfig) != HAL_OK)
 1221              		.loc 1 454 7
 1222 00dc 3B1D     		adds	r3, r7, #4
 1223 00de 1946     		mov	r1, r3
 1224 00e0 1348     		ldr	r0, .L41
 1225 00e2 FFF7FEFF 		bl	HAL_ADC_ConfigChannel
 1226 00e6 0346     		mov	r3, r0
 1227              		.loc 1 454 6
 1228 00e8 002B     		cmp	r3, #0
 1229 00ea 01D0     		beq	.L37
 455:Core/Src/main.c ****   {
 456:Core/Src/main.c ****     Error_Handler();
 1230              		.loc 1 456 5
 1231 00ec FFF7FEFF 		bl	Error_Handler
 1232              	.L37:
 457:Core/Src/main.c ****   }
 458:Core/Src/main.c **** 
 459:Core/Src/main.c ****   /** Configure Regular Channel
 460:Core/Src/main.c ****   */
 461:Core/Src/main.c ****   sConfig.Channel = ADC_CHANNEL_2;
 1233              		.loc 1 461 19
 1234 00f0 124B     		ldr	r3, .L41+12
 1235 00f2 7B60     		str	r3, [r7, #4]
 462:Core/Src/main.c ****   sConfig.Rank = ADC_REGULAR_RANK_2;
 1236              		.loc 1 462 16
 1237 00f4 0C23     		movs	r3, #12
 1238 00f6 BB60     		str	r3, [r7, #8]
ARM GAS  C:\Users\Morroway\AppData\Local\Temp\ccSn7seF.s 			page 33


 463:Core/Src/main.c ****   if (HAL_ADC_ConfigChannel(&hadc1, &sConfig) != HAL_OK)
 1239              		.loc 1 463 7
 1240 00f8 3B1D     		adds	r3, r7, #4
 1241 00fa 1946     		mov	r1, r3
 1242 00fc 0C48     		ldr	r0, .L41
 1243 00fe FFF7FEFF 		bl	HAL_ADC_ConfigChannel
 1244 0102 0346     		mov	r3, r0
 1245              		.loc 1 463 6
 1246 0104 002B     		cmp	r3, #0
 1247 0106 01D0     		beq	.L38
 464:Core/Src/main.c ****   {
 465:Core/Src/main.c ****     Error_Handler();
 1248              		.loc 1 465 5
 1249 0108 FFF7FEFF 		bl	Error_Handler
 1250              	.L38:
 466:Core/Src/main.c ****   }
 467:Core/Src/main.c **** 
 468:Core/Src/main.c ****   /** Configure Regular Channel
 469:Core/Src/main.c ****   */
 470:Core/Src/main.c ****   sConfig.Channel = ADC_CHANNEL_TEMPSENSOR;
 1251              		.loc 1 470 19
 1252 010c 0C4B     		ldr	r3, .L41+16
 1253 010e 7B60     		str	r3, [r7, #4]
 471:Core/Src/main.c ****   sConfig.Rank = ADC_REGULAR_RANK_3;
 1254              		.loc 1 471 16
 1255 0110 1223     		movs	r3, #18
 1256 0112 BB60     		str	r3, [r7, #8]
 472:Core/Src/main.c ****   if (HAL_ADC_ConfigChannel(&hadc1, &sConfig) != HAL_OK)
 1257              		.loc 1 472 7
 1258 0114 3B1D     		adds	r3, r7, #4
 1259 0116 1946     		mov	r1, r3
 1260 0118 0548     		ldr	r0, .L41
 1261 011a FFF7FEFF 		bl	HAL_ADC_ConfigChannel
 1262 011e 0346     		mov	r3, r0
 1263              		.loc 1 472 6
 1264 0120 002B     		cmp	r3, #0
 1265 0122 01D0     		beq	.L40
 473:Core/Src/main.c ****   {
 474:Core/Src/main.c ****     Error_Handler();
 1266              		.loc 1 474 5
 1267 0124 FFF7FEFF 		bl	Error_Handler
 1268              	.L40:
 475:Core/Src/main.c ****   }
 476:Core/Src/main.c ****   /* USER CODE BEGIN ADC1_Init 2 */
 477:Core/Src/main.c **** 
 478:Core/Src/main.c ****   /* USER CODE END ADC1_Init 2 */
 479:Core/Src/main.c **** 
 480:Core/Src/main.c **** }
 1269              		.loc 1 480 1
 1270 0128 00BF     		nop
 1271 012a 2837     		adds	r7, r7, #40
 1272              		.cfi_def_cfa_offset 8
 1273 012c BD46     		mov	sp, r7
 1274              		.cfi_def_cfa_register 13
 1275              		@ sp needed
 1276 012e 80BD     		pop	{r7, pc}
 1277              	.L42:
ARM GAS  C:\Users\Morroway\AppData\Local\Temp\ccSn7seF.s 			page 34


 1278              		.align	2
 1279              	.L41:
 1280 0130 00000000 		.word	hadc1
 1281 0134 00000450 		.word	1342439424
 1282 0138 02003004 		.word	70254594
 1283 013c 04006008 		.word	140509188
 1284 0140 000052C7 		.word	-950927360
 1285              		.cfi_endproc
 1286              	.LFE332:
 1288              		.section	.text.MX_I2C1_Init,"ax",%progbits
 1289              		.align	1
 1290              		.syntax unified
 1291              		.thumb
 1292              		.thumb_func
 1294              	MX_I2C1_Init:
 1295              	.LFB333:
 481:Core/Src/main.c **** 
 482:Core/Src/main.c **** /**
 483:Core/Src/main.c ****   * @brief I2C1 Initialization Function
 484:Core/Src/main.c ****   * @param None
 485:Core/Src/main.c ****   * @retval None
 486:Core/Src/main.c ****   */
 487:Core/Src/main.c **** static void MX_I2C1_Init(void)
 488:Core/Src/main.c **** {
 1296              		.loc 1 488 1
 1297              		.cfi_startproc
 1298              		@ args = 0, pretend = 0, frame = 0
 1299              		@ frame_needed = 1, uses_anonymous_args = 0
 1300 0000 80B5     		push	{r7, lr}
 1301              		.cfi_def_cfa_offset 8
 1302              		.cfi_offset 7, -8
 1303              		.cfi_offset 14, -4
 1304 0002 00AF     		add	r7, sp, #0
 1305              		.cfi_def_cfa_register 7
 489:Core/Src/main.c **** 
 490:Core/Src/main.c ****   /* USER CODE BEGIN I2C1_Init 0 */
 491:Core/Src/main.c **** 
 492:Core/Src/main.c ****   /* USER CODE END I2C1_Init 0 */
 493:Core/Src/main.c **** 
 494:Core/Src/main.c ****   /* USER CODE BEGIN I2C1_Init 1 */
 495:Core/Src/main.c **** 
 496:Core/Src/main.c ****   /* USER CODE END I2C1_Init 1 */
 497:Core/Src/main.c ****   hi2c1.Instance = I2C1;
 1306              		.loc 1 497 18
 1307 0004 1B4B     		ldr	r3, .L48
 1308 0006 1C4A     		ldr	r2, .L48+4
 1309 0008 1A60     		str	r2, [r3]
 498:Core/Src/main.c ****   hi2c1.Init.Timing = 0x00B03FDB;
 1310              		.loc 1 498 21
 1311 000a 1A4B     		ldr	r3, .L48
 1312 000c 1B4A     		ldr	r2, .L48+8
 1313 000e 5A60     		str	r2, [r3, #4]
 499:Core/Src/main.c ****   hi2c1.Init.OwnAddress1 = 0;
 1314              		.loc 1 499 26
 1315 0010 184B     		ldr	r3, .L48
 1316 0012 0022     		movs	r2, #0
 1317 0014 9A60     		str	r2, [r3, #8]
ARM GAS  C:\Users\Morroway\AppData\Local\Temp\ccSn7seF.s 			page 35


 500:Core/Src/main.c ****   hi2c1.Init.AddressingMode = I2C_ADDRESSINGMODE_7BIT;
 1318              		.loc 1 500 29
 1319 0016 174B     		ldr	r3, .L48
 1320 0018 0122     		movs	r2, #1
 1321 001a DA60     		str	r2, [r3, #12]
 501:Core/Src/main.c ****   hi2c1.Init.DualAddressMode = I2C_DUALADDRESS_DISABLE;
 1322              		.loc 1 501 30
 1323 001c 154B     		ldr	r3, .L48
 1324 001e 0022     		movs	r2, #0
 1325 0020 1A61     		str	r2, [r3, #16]
 502:Core/Src/main.c ****   hi2c1.Init.OwnAddress2 = 0;
 1326              		.loc 1 502 26
 1327 0022 144B     		ldr	r3, .L48
 1328 0024 0022     		movs	r2, #0
 1329 0026 5A61     		str	r2, [r3, #20]
 503:Core/Src/main.c ****   hi2c1.Init.OwnAddress2Masks = I2C_OA2_NOMASK;
 1330              		.loc 1 503 31
 1331 0028 124B     		ldr	r3, .L48
 1332 002a 0022     		movs	r2, #0
 1333 002c 9A61     		str	r2, [r3, #24]
 504:Core/Src/main.c ****   hi2c1.Init.GeneralCallMode = I2C_GENERALCALL_DISABLE;
 1334              		.loc 1 504 30
 1335 002e 114B     		ldr	r3, .L48
 1336 0030 0022     		movs	r2, #0
 1337 0032 DA61     		str	r2, [r3, #28]
 505:Core/Src/main.c ****   hi2c1.Init.NoStretchMode = I2C_NOSTRETCH_DISABLE;
 1338              		.loc 1 505 28
 1339 0034 0F4B     		ldr	r3, .L48
 1340 0036 0022     		movs	r2, #0
 1341 0038 1A62     		str	r2, [r3, #32]
 506:Core/Src/main.c ****   if (HAL_I2C_Init(&hi2c1) != HAL_OK)
 1342              		.loc 1 506 7
 1343 003a 0E48     		ldr	r0, .L48
 1344 003c FFF7FEFF 		bl	HAL_I2C_Init
 1345 0040 0346     		mov	r3, r0
 1346              		.loc 1 506 6
 1347 0042 002B     		cmp	r3, #0
 1348 0044 01D0     		beq	.L44
 507:Core/Src/main.c ****   {
 508:Core/Src/main.c ****     Error_Handler();
 1349              		.loc 1 508 5
 1350 0046 FFF7FEFF 		bl	Error_Handler
 1351              	.L44:
 509:Core/Src/main.c ****   }
 510:Core/Src/main.c **** 
 511:Core/Src/main.c ****   /** Configure Analogue filter
 512:Core/Src/main.c ****   */
 513:Core/Src/main.c ****   if (HAL_I2CEx_ConfigAnalogFilter(&hi2c1, I2C_ANALOGFILTER_ENABLE) != HAL_OK)
 1352              		.loc 1 513 7
 1353 004a 0021     		movs	r1, #0
 1354 004c 0948     		ldr	r0, .L48
 1355 004e FFF7FEFF 		bl	HAL_I2CEx_ConfigAnalogFilter
 1356 0052 0346     		mov	r3, r0
 1357              		.loc 1 513 6
 1358 0054 002B     		cmp	r3, #0
 1359 0056 01D0     		beq	.L45
 514:Core/Src/main.c ****   {
ARM GAS  C:\Users\Morroway\AppData\Local\Temp\ccSn7seF.s 			page 36


 515:Core/Src/main.c ****     Error_Handler();
 1360              		.loc 1 515 5
 1361 0058 FFF7FEFF 		bl	Error_Handler
 1362              	.L45:
 516:Core/Src/main.c ****   }
 517:Core/Src/main.c **** 
 518:Core/Src/main.c ****   /** Configure Digital filter
 519:Core/Src/main.c ****   */
 520:Core/Src/main.c ****   if (HAL_I2CEx_ConfigDigitalFilter(&hi2c1, 0) != HAL_OK)
 1363              		.loc 1 520 7
 1364 005c 0021     		movs	r1, #0
 1365 005e 0548     		ldr	r0, .L48
 1366 0060 FFF7FEFF 		bl	HAL_I2CEx_ConfigDigitalFilter
 1367 0064 0346     		mov	r3, r0
 1368              		.loc 1 520 6
 1369 0066 002B     		cmp	r3, #0
 1370 0068 01D0     		beq	.L47
 521:Core/Src/main.c ****   {
 522:Core/Src/main.c ****     Error_Handler();
 1371              		.loc 1 522 5
 1372 006a FFF7FEFF 		bl	Error_Handler
 1373              	.L47:
 523:Core/Src/main.c ****   }
 524:Core/Src/main.c ****   /* USER CODE BEGIN I2C1_Init 2 */
 525:Core/Src/main.c **** 
 526:Core/Src/main.c ****   /* USER CODE END I2C1_Init 2 */
 527:Core/Src/main.c **** 
 528:Core/Src/main.c **** }
 1374              		.loc 1 528 1
 1375 006e 00BF     		nop
 1376 0070 80BD     		pop	{r7, pc}
 1377              	.L49:
 1378 0072 00BF     		.align	2
 1379              	.L48:
 1380 0074 00000000 		.word	hi2c1
 1381 0078 00540040 		.word	1073763328
 1382 007c DB3FB000 		.word	11550683
 1383              		.cfi_endproc
 1384              	.LFE333:
 1386              		.section	.text.MX_LPUART1_UART_Init,"ax",%progbits
 1387              		.align	1
 1388              		.syntax unified
 1389              		.thumb
 1390              		.thumb_func
 1392              	MX_LPUART1_UART_Init:
 1393              	.LFB334:
 529:Core/Src/main.c **** 
 530:Core/Src/main.c **** /**
 531:Core/Src/main.c ****   * @brief LPUART1 Initialization Function
 532:Core/Src/main.c ****   * @param None
 533:Core/Src/main.c ****   * @retval None
 534:Core/Src/main.c ****   */
 535:Core/Src/main.c **** static void MX_LPUART1_UART_Init(void)
 536:Core/Src/main.c **** {
 1394              		.loc 1 536 1
 1395              		.cfi_startproc
 1396              		@ args = 0, pretend = 0, frame = 0
ARM GAS  C:\Users\Morroway\AppData\Local\Temp\ccSn7seF.s 			page 37


 1397              		@ frame_needed = 1, uses_anonymous_args = 0
 1398 0000 80B5     		push	{r7, lr}
 1399              		.cfi_def_cfa_offset 8
 1400              		.cfi_offset 7, -8
 1401              		.cfi_offset 14, -4
 1402 0002 00AF     		add	r7, sp, #0
 1403              		.cfi_def_cfa_register 7
 537:Core/Src/main.c **** 
 538:Core/Src/main.c ****   /* USER CODE BEGIN LPUART1_Init 0 */
 539:Core/Src/main.c **** 
 540:Core/Src/main.c ****   /* USER CODE END LPUART1_Init 0 */
 541:Core/Src/main.c **** 
 542:Core/Src/main.c ****   /* USER CODE BEGIN LPUART1_Init 1 */
 543:Core/Src/main.c **** 
 544:Core/Src/main.c ****   /* USER CODE END LPUART1_Init 1 */
 545:Core/Src/main.c ****   hlpuart1.Instance = LPUART1;
 1404              		.loc 1 545 21
 1405 0004 244B     		ldr	r3, .L56
 1406 0006 254A     		ldr	r2, .L56+4
 1407 0008 1A60     		str	r2, [r3]
 546:Core/Src/main.c ****   hlpuart1.Init.BaudRate = 115200;
 1408              		.loc 1 546 26
 1409 000a 234B     		ldr	r3, .L56
 1410 000c 4FF4E132 		mov	r2, #115200
 1411 0010 5A60     		str	r2, [r3, #4]
 547:Core/Src/main.c ****   hlpuart1.Init.WordLength = UART_WORDLENGTH_8B;
 1412              		.loc 1 547 28
 1413 0012 214B     		ldr	r3, .L56
 1414 0014 0022     		movs	r2, #0
 1415 0016 9A60     		str	r2, [r3, #8]
 548:Core/Src/main.c ****   hlpuart1.Init.StopBits = UART_STOPBITS_1;
 1416              		.loc 1 548 26
 1417 0018 1F4B     		ldr	r3, .L56
 1418 001a 0022     		movs	r2, #0
 1419 001c DA60     		str	r2, [r3, #12]
 549:Core/Src/main.c ****   hlpuart1.Init.Parity = UART_PARITY_NONE;
 1420              		.loc 1 549 24
 1421 001e 1E4B     		ldr	r3, .L56
 1422 0020 0022     		movs	r2, #0
 1423 0022 1A61     		str	r2, [r3, #16]
 550:Core/Src/main.c ****   hlpuart1.Init.Mode = UART_MODE_TX_RX;
 1424              		.loc 1 550 22
 1425 0024 1C4B     		ldr	r3, .L56
 1426 0026 0C22     		movs	r2, #12
 1427 0028 5A61     		str	r2, [r3, #20]
 551:Core/Src/main.c ****   hlpuart1.Init.HwFlowCtl = UART_HWCONTROL_NONE;
 1428              		.loc 1 551 27
 1429 002a 1B4B     		ldr	r3, .L56
 1430 002c 0022     		movs	r2, #0
 1431 002e 9A61     		str	r2, [r3, #24]
 552:Core/Src/main.c ****   hlpuart1.Init.OneBitSampling = UART_ONE_BIT_SAMPLE_DISABLE;
 1432              		.loc 1 552 32
 1433 0030 194B     		ldr	r3, .L56
 1434 0032 0022     		movs	r2, #0
 1435 0034 1A62     		str	r2, [r3, #32]
 553:Core/Src/main.c ****   hlpuart1.Init.ClockPrescaler = UART_PRESCALER_DIV1;
 1436              		.loc 1 553 32
ARM GAS  C:\Users\Morroway\AppData\Local\Temp\ccSn7seF.s 			page 38


 1437 0036 184B     		ldr	r3, .L56
 1438 0038 0022     		movs	r2, #0
 1439 003a 5A62     		str	r2, [r3, #36]
 554:Core/Src/main.c ****   hlpuart1.AdvancedInit.AdvFeatureInit = UART_ADVFEATURE_RXOVERRUNDISABLE_INIT;
 1440              		.loc 1 554 40
 1441 003c 164B     		ldr	r3, .L56
 1442 003e 1022     		movs	r2, #16
 1443 0040 9A62     		str	r2, [r3, #40]
 555:Core/Src/main.c ****   hlpuart1.AdvancedInit.OverrunDisable = UART_ADVFEATURE_OVERRUN_DISABLE;
 1444              		.loc 1 555 40
 1445 0042 154B     		ldr	r3, .L56
 1446 0044 4FF48052 		mov	r2, #4096
 1447 0048 DA63     		str	r2, [r3, #60]
 556:Core/Src/main.c ****   hlpuart1.FifoMode = UART_FIFOMODE_DISABLE;
 1448              		.loc 1 556 21
 1449 004a 134B     		ldr	r3, .L56
 1450 004c 0022     		movs	r2, #0
 1451 004e 5A66     		str	r2, [r3, #100]
 557:Core/Src/main.c ****   if (HAL_UART_Init(&hlpuart1) != HAL_OK)
 1452              		.loc 1 557 7
 1453 0050 1148     		ldr	r0, .L56
 1454 0052 FFF7FEFF 		bl	HAL_UART_Init
 1455 0056 0346     		mov	r3, r0
 1456              		.loc 1 557 6
 1457 0058 002B     		cmp	r3, #0
 1458 005a 01D0     		beq	.L51
 558:Core/Src/main.c ****   {
 559:Core/Src/main.c ****     Error_Handler();
 1459              		.loc 1 559 5
 1460 005c FFF7FEFF 		bl	Error_Handler
 1461              	.L51:
 560:Core/Src/main.c ****   }
 561:Core/Src/main.c ****   if (HAL_UARTEx_SetTxFifoThreshold(&hlpuart1, UART_TXFIFO_THRESHOLD_1_8) != HAL_OK)
 1462              		.loc 1 561 7
 1463 0060 0021     		movs	r1, #0
 1464 0062 0D48     		ldr	r0, .L56
 1465 0064 FFF7FEFF 		bl	HAL_UARTEx_SetTxFifoThreshold
 1466 0068 0346     		mov	r3, r0
 1467              		.loc 1 561 6
 1468 006a 002B     		cmp	r3, #0
 1469 006c 01D0     		beq	.L52
 562:Core/Src/main.c ****   {
 563:Core/Src/main.c ****     Error_Handler();
 1470              		.loc 1 563 5
 1471 006e FFF7FEFF 		bl	Error_Handler
 1472              	.L52:
 564:Core/Src/main.c ****   }
 565:Core/Src/main.c ****   if (HAL_UARTEx_SetRxFifoThreshold(&hlpuart1, UART_RXFIFO_THRESHOLD_1_8) != HAL_OK)
 1473              		.loc 1 565 7
 1474 0072 0021     		movs	r1, #0
 1475 0074 0848     		ldr	r0, .L56
 1476 0076 FFF7FEFF 		bl	HAL_UARTEx_SetRxFifoThreshold
 1477 007a 0346     		mov	r3, r0
 1478              		.loc 1 565 6
 1479 007c 002B     		cmp	r3, #0
 1480 007e 01D0     		beq	.L53
 566:Core/Src/main.c ****   {
ARM GAS  C:\Users\Morroway\AppData\Local\Temp\ccSn7seF.s 			page 39


 567:Core/Src/main.c ****     Error_Handler();
 1481              		.loc 1 567 5
 1482 0080 FFF7FEFF 		bl	Error_Handler
 1483              	.L53:
 568:Core/Src/main.c ****   }
 569:Core/Src/main.c ****   if (HAL_UARTEx_DisableFifoMode(&hlpuart1) != HAL_OK)
 1484              		.loc 1 569 7
 1485 0084 0448     		ldr	r0, .L56
 1486 0086 FFF7FEFF 		bl	HAL_UARTEx_DisableFifoMode
 1487 008a 0346     		mov	r3, r0
 1488              		.loc 1 569 6
 1489 008c 002B     		cmp	r3, #0
 1490 008e 01D0     		beq	.L55
 570:Core/Src/main.c ****   {
 571:Core/Src/main.c ****     Error_Handler();
 1491              		.loc 1 571 5
 1492 0090 FFF7FEFF 		bl	Error_Handler
 1493              	.L55:
 572:Core/Src/main.c ****   }
 573:Core/Src/main.c ****   /* USER CODE BEGIN LPUART1_Init 2 */
 574:Core/Src/main.c **** 
 575:Core/Src/main.c ****   /* USER CODE END LPUART1_Init 2 */
 576:Core/Src/main.c **** 
 577:Core/Src/main.c **** }
 1494              		.loc 1 577 1
 1495 0094 00BF     		nop
 1496 0096 80BD     		pop	{r7, pc}
 1497              	.L57:
 1498              		.align	2
 1499              	.L56:
 1500 0098 00000000 		.word	hlpuart1
 1501 009c 00800040 		.word	1073774592
 1502              		.cfi_endproc
 1503              	.LFE334:
 1505              		.section	.text.MX_UART4_Init,"ax",%progbits
 1506              		.align	1
 1507              		.syntax unified
 1508              		.thumb
 1509              		.thumb_func
 1511              	MX_UART4_Init:
 1512              	.LFB335:
 578:Core/Src/main.c **** 
 579:Core/Src/main.c **** /**
 580:Core/Src/main.c ****   * @brief UART4 Initialization Function
 581:Core/Src/main.c ****   * @param None
 582:Core/Src/main.c ****   * @retval None
 583:Core/Src/main.c ****   */
 584:Core/Src/main.c **** static void MX_UART4_Init(void)
 585:Core/Src/main.c **** {
 1513              		.loc 1 585 1
 1514              		.cfi_startproc
 1515              		@ args = 0, pretend = 0, frame = 0
 1516              		@ frame_needed = 1, uses_anonymous_args = 0
 1517 0000 80B5     		push	{r7, lr}
 1518              		.cfi_def_cfa_offset 8
 1519              		.cfi_offset 7, -8
 1520              		.cfi_offset 14, -4
ARM GAS  C:\Users\Morroway\AppData\Local\Temp\ccSn7seF.s 			page 40


 1521 0002 00AF     		add	r7, sp, #0
 1522              		.cfi_def_cfa_register 7
 586:Core/Src/main.c **** 
 587:Core/Src/main.c ****   /* USER CODE BEGIN UART4_Init 0 */
 588:Core/Src/main.c **** 
 589:Core/Src/main.c ****   /* USER CODE END UART4_Init 0 */
 590:Core/Src/main.c **** 
 591:Core/Src/main.c ****   /* USER CODE BEGIN UART4_Init 1 */
 592:Core/Src/main.c **** 
 593:Core/Src/main.c ****   /* USER CODE END UART4_Init 1 */
 594:Core/Src/main.c ****   huart4.Instance = UART4;
 1523              		.loc 1 594 19
 1524 0004 224B     		ldr	r3, .L64
 1525 0006 234A     		ldr	r2, .L64+4
 1526 0008 1A60     		str	r2, [r3]
 595:Core/Src/main.c ****   huart4.Init.BaudRate = 115200;
 1527              		.loc 1 595 24
 1528 000a 214B     		ldr	r3, .L64
 1529 000c 4FF4E132 		mov	r2, #115200
 1530 0010 5A60     		str	r2, [r3, #4]
 596:Core/Src/main.c ****   huart4.Init.WordLength = UART_WORDLENGTH_8B;
 1531              		.loc 1 596 26
 1532 0012 1F4B     		ldr	r3, .L64
 1533 0014 0022     		movs	r2, #0
 1534 0016 9A60     		str	r2, [r3, #8]
 597:Core/Src/main.c ****   huart4.Init.StopBits = UART_STOPBITS_1;
 1535              		.loc 1 597 24
 1536 0018 1D4B     		ldr	r3, .L64
 1537 001a 0022     		movs	r2, #0
 1538 001c DA60     		str	r2, [r3, #12]
 598:Core/Src/main.c ****   huart4.Init.Parity = UART_PARITY_NONE;
 1539              		.loc 1 598 22
 1540 001e 1C4B     		ldr	r3, .L64
 1541 0020 0022     		movs	r2, #0
 1542 0022 1A61     		str	r2, [r3, #16]
 599:Core/Src/main.c ****   huart4.Init.Mode = UART_MODE_TX_RX;
 1543              		.loc 1 599 20
 1544 0024 1A4B     		ldr	r3, .L64
 1545 0026 0C22     		movs	r2, #12
 1546 0028 5A61     		str	r2, [r3, #20]
 600:Core/Src/main.c ****   huart4.Init.HwFlowCtl = UART_HWCONTROL_NONE;
 1547              		.loc 1 600 25
 1548 002a 194B     		ldr	r3, .L64
 1549 002c 0022     		movs	r2, #0
 1550 002e 9A61     		str	r2, [r3, #24]
 601:Core/Src/main.c ****   huart4.Init.OverSampling = UART_OVERSAMPLING_16;
 1551              		.loc 1 601 28
 1552 0030 174B     		ldr	r3, .L64
 1553 0032 0022     		movs	r2, #0
 1554 0034 DA61     		str	r2, [r3, #28]
 602:Core/Src/main.c ****   huart4.Init.OneBitSampling = UART_ONE_BIT_SAMPLE_DISABLE;
 1555              		.loc 1 602 30
 1556 0036 164B     		ldr	r3, .L64
 1557 0038 0022     		movs	r2, #0
 1558 003a 1A62     		str	r2, [r3, #32]
 603:Core/Src/main.c ****   huart4.Init.ClockPrescaler = UART_PRESCALER_DIV1;
 1559              		.loc 1 603 30
ARM GAS  C:\Users\Morroway\AppData\Local\Temp\ccSn7seF.s 			page 41


 1560 003c 144B     		ldr	r3, .L64
 1561 003e 0022     		movs	r2, #0
 1562 0040 5A62     		str	r2, [r3, #36]
 604:Core/Src/main.c ****   huart4.AdvancedInit.AdvFeatureInit = UART_ADVFEATURE_NO_INIT;
 1563              		.loc 1 604 38
 1564 0042 134B     		ldr	r3, .L64
 1565 0044 0022     		movs	r2, #0
 1566 0046 9A62     		str	r2, [r3, #40]
 605:Core/Src/main.c ****   if (HAL_UART_Init(&huart4) != HAL_OK)
 1567              		.loc 1 605 7
 1568 0048 1148     		ldr	r0, .L64
 1569 004a FFF7FEFF 		bl	HAL_UART_Init
 1570 004e 0346     		mov	r3, r0
 1571              		.loc 1 605 6
 1572 0050 002B     		cmp	r3, #0
 1573 0052 01D0     		beq	.L59
 606:Core/Src/main.c ****   {
 607:Core/Src/main.c ****     Error_Handler();
 1574              		.loc 1 607 5
 1575 0054 FFF7FEFF 		bl	Error_Handler
 1576              	.L59:
 608:Core/Src/main.c ****   }
 609:Core/Src/main.c ****   if (HAL_UARTEx_SetTxFifoThreshold(&huart4, UART_TXFIFO_THRESHOLD_1_8) != HAL_OK)
 1577              		.loc 1 609 7
 1578 0058 0021     		movs	r1, #0
 1579 005a 0D48     		ldr	r0, .L64
 1580 005c FFF7FEFF 		bl	HAL_UARTEx_SetTxFifoThreshold
 1581 0060 0346     		mov	r3, r0
 1582              		.loc 1 609 6
 1583 0062 002B     		cmp	r3, #0
 1584 0064 01D0     		beq	.L60
 610:Core/Src/main.c ****   {
 611:Core/Src/main.c ****     Error_Handler();
 1585              		.loc 1 611 5
 1586 0066 FFF7FEFF 		bl	Error_Handler
 1587              	.L60:
 612:Core/Src/main.c ****   }
 613:Core/Src/main.c ****   if (HAL_UARTEx_SetRxFifoThreshold(&huart4, UART_RXFIFO_THRESHOLD_1_8) != HAL_OK)
 1588              		.loc 1 613 7
 1589 006a 0021     		movs	r1, #0
 1590 006c 0848     		ldr	r0, .L64
 1591 006e FFF7FEFF 		bl	HAL_UARTEx_SetRxFifoThreshold
 1592 0072 0346     		mov	r3, r0
 1593              		.loc 1 613 6
 1594 0074 002B     		cmp	r3, #0
 1595 0076 01D0     		beq	.L61
 614:Core/Src/main.c ****   {
 615:Core/Src/main.c ****     Error_Handler();
 1596              		.loc 1 615 5
 1597 0078 FFF7FEFF 		bl	Error_Handler
 1598              	.L61:
 616:Core/Src/main.c ****   }
 617:Core/Src/main.c ****   if (HAL_UARTEx_DisableFifoMode(&huart4) != HAL_OK)
 1599              		.loc 1 617 7
 1600 007c 0448     		ldr	r0, .L64
 1601 007e FFF7FEFF 		bl	HAL_UARTEx_DisableFifoMode
 1602 0082 0346     		mov	r3, r0
ARM GAS  C:\Users\Morroway\AppData\Local\Temp\ccSn7seF.s 			page 42


 1603              		.loc 1 617 6
 1604 0084 002B     		cmp	r3, #0
 1605 0086 01D0     		beq	.L63
 618:Core/Src/main.c ****   {
 619:Core/Src/main.c ****     Error_Handler();
 1606              		.loc 1 619 5
 1607 0088 FFF7FEFF 		bl	Error_Handler
 1608              	.L63:
 620:Core/Src/main.c ****   }
 621:Core/Src/main.c ****   /* USER CODE BEGIN UART4_Init 2 */
 622:Core/Src/main.c **** 
 623:Core/Src/main.c ****   /* USER CODE END UART4_Init 2 */
 624:Core/Src/main.c **** 
 625:Core/Src/main.c **** }
 1609              		.loc 1 625 1
 1610 008c 00BF     		nop
 1611 008e 80BD     		pop	{r7, pc}
 1612              	.L65:
 1613              		.align	2
 1614              	.L64:
 1615 0090 00000000 		.word	huart4
 1616 0094 004C0040 		.word	1073761280
 1617              		.cfi_endproc
 1618              	.LFE335:
 1620              		.section	.text.MX_RNG_Init,"ax",%progbits
 1621              		.align	1
 1622              		.syntax unified
 1623              		.thumb
 1624              		.thumb_func
 1626              	MX_RNG_Init:
 1627              	.LFB336:
 626:Core/Src/main.c **** 
 627:Core/Src/main.c **** /**
 628:Core/Src/main.c ****   * @brief RNG Initialization Function
 629:Core/Src/main.c ****   * @param None
 630:Core/Src/main.c ****   * @retval None
 631:Core/Src/main.c ****   */
 632:Core/Src/main.c **** static void MX_RNG_Init(void)
 633:Core/Src/main.c **** {
 1628              		.loc 1 633 1
 1629              		.cfi_startproc
 1630              		@ args = 0, pretend = 0, frame = 0
 1631              		@ frame_needed = 1, uses_anonymous_args = 0
 1632 0000 80B5     		push	{r7, lr}
 1633              		.cfi_def_cfa_offset 8
 1634              		.cfi_offset 7, -8
 1635              		.cfi_offset 14, -4
 1636 0002 00AF     		add	r7, sp, #0
 1637              		.cfi_def_cfa_register 7
 634:Core/Src/main.c **** 
 635:Core/Src/main.c ****   /* USER CODE BEGIN RNG_Init 0 */
 636:Core/Src/main.c **** 
 637:Core/Src/main.c ****   /* USER CODE END RNG_Init 0 */
 638:Core/Src/main.c **** 
 639:Core/Src/main.c ****   /* USER CODE BEGIN RNG_Init 1 */
 640:Core/Src/main.c **** 
 641:Core/Src/main.c ****   /* USER CODE END RNG_Init 1 */
ARM GAS  C:\Users\Morroway\AppData\Local\Temp\ccSn7seF.s 			page 43


 642:Core/Src/main.c ****   hrng.Instance = RNG;
 1638              		.loc 1 642 17
 1639 0004 074B     		ldr	r3, .L69
 1640 0006 084A     		ldr	r2, .L69+4
 1641 0008 1A60     		str	r2, [r3]
 643:Core/Src/main.c ****   hrng.Init.ClockErrorDetection = RNG_CED_ENABLE;
 1642              		.loc 1 643 33
 1643 000a 064B     		ldr	r3, .L69
 1644 000c 0022     		movs	r2, #0
 1645 000e 5A60     		str	r2, [r3, #4]
 644:Core/Src/main.c ****   if (HAL_RNG_Init(&hrng) != HAL_OK)
 1646              		.loc 1 644 7
 1647 0010 0448     		ldr	r0, .L69
 1648 0012 FFF7FEFF 		bl	HAL_RNG_Init
 1649 0016 0346     		mov	r3, r0
 1650              		.loc 1 644 6
 1651 0018 002B     		cmp	r3, #0
 1652 001a 01D0     		beq	.L68
 645:Core/Src/main.c ****   {
 646:Core/Src/main.c ****     Error_Handler();
 1653              		.loc 1 646 5
 1654 001c FFF7FEFF 		bl	Error_Handler
 1655              	.L68:
 647:Core/Src/main.c ****   }
 648:Core/Src/main.c ****   /* USER CODE BEGIN RNG_Init 2 */
 649:Core/Src/main.c **** 
 650:Core/Src/main.c ****   /* USER CODE END RNG_Init 2 */
 651:Core/Src/main.c **** 
 652:Core/Src/main.c **** }
 1656              		.loc 1 652 1
 1657 0020 00BF     		nop
 1658 0022 80BD     		pop	{r7, pc}
 1659              	.L70:
 1660              		.align	2
 1661              	.L69:
 1662 0024 00000000 		.word	hrng
 1663 0028 00080650 		.word	1342572544
 1664              		.cfi_endproc
 1665              	.LFE336:
 1667              		.section	.text.MX_SPI1_Init,"ax",%progbits
 1668              		.align	1
 1669              		.syntax unified
 1670              		.thumb
 1671              		.thumb_func
 1673              	MX_SPI1_Init:
 1674              	.LFB337:
 653:Core/Src/main.c **** 
 654:Core/Src/main.c **** /**
 655:Core/Src/main.c ****   * @brief SPI1 Initialization Function
 656:Core/Src/main.c ****   * @param None
 657:Core/Src/main.c ****   * @retval None
 658:Core/Src/main.c ****   */
 659:Core/Src/main.c **** static void MX_SPI1_Init(void)
 660:Core/Src/main.c **** {
 1675              		.loc 1 660 1
 1676              		.cfi_startproc
 1677              		@ args = 0, pretend = 0, frame = 0
ARM GAS  C:\Users\Morroway\AppData\Local\Temp\ccSn7seF.s 			page 44


 1678              		@ frame_needed = 1, uses_anonymous_args = 0
 1679 0000 80B5     		push	{r7, lr}
 1680              		.cfi_def_cfa_offset 8
 1681              		.cfi_offset 7, -8
 1682              		.cfi_offset 14, -4
 1683 0002 00AF     		add	r7, sp, #0
 1684              		.cfi_def_cfa_register 7
 661:Core/Src/main.c **** 
 662:Core/Src/main.c ****   /* USER CODE BEGIN SPI1_Init 0 */
 663:Core/Src/main.c **** 
 664:Core/Src/main.c ****   /* USER CODE END SPI1_Init 0 */
 665:Core/Src/main.c **** 
 666:Core/Src/main.c ****   /* USER CODE BEGIN SPI1_Init 1 */
 667:Core/Src/main.c **** 
 668:Core/Src/main.c ****   /* USER CODE END SPI1_Init 1 */
 669:Core/Src/main.c ****   /* SPI1 parameter configuration*/
 670:Core/Src/main.c ****   hspi1.Instance = SPI1;
 1685              		.loc 1 670 18
 1686 0004 1B4B     		ldr	r3, .L74
 1687 0006 1C4A     		ldr	r2, .L74+4
 1688 0008 1A60     		str	r2, [r3]
 671:Core/Src/main.c ****   hspi1.Init.Mode = SPI_MODE_MASTER;
 1689              		.loc 1 671 19
 1690 000a 1A4B     		ldr	r3, .L74
 1691 000c 4FF48272 		mov	r2, #260
 1692 0010 5A60     		str	r2, [r3, #4]
 672:Core/Src/main.c ****   hspi1.Init.Direction = SPI_DIRECTION_2LINES;
 1693              		.loc 1 672 24
 1694 0012 184B     		ldr	r3, .L74
 1695 0014 0022     		movs	r2, #0
 1696 0016 9A60     		str	r2, [r3, #8]
 673:Core/Src/main.c ****   hspi1.Init.DataSize = SPI_DATASIZE_8BIT;
 1697              		.loc 1 673 23
 1698 0018 164B     		ldr	r3, .L74
 1699 001a 4FF4E062 		mov	r2, #1792
 1700 001e DA60     		str	r2, [r3, #12]
 674:Core/Src/main.c ****   hspi1.Init.CLKPolarity = SPI_POLARITY_LOW;
 1701              		.loc 1 674 26
 1702 0020 144B     		ldr	r3, .L74
 1703 0022 0022     		movs	r2, #0
 1704 0024 1A61     		str	r2, [r3, #16]
 675:Core/Src/main.c ****   hspi1.Init.CLKPhase = SPI_PHASE_1EDGE;
 1705              		.loc 1 675 23
 1706 0026 134B     		ldr	r3, .L74
 1707 0028 0022     		movs	r2, #0
 1708 002a 5A61     		str	r2, [r3, #20]
 676:Core/Src/main.c ****   hspi1.Init.NSS = SPI_NSS_SOFT;
 1709              		.loc 1 676 18
 1710 002c 114B     		ldr	r3, .L74
 1711 002e 4FF40072 		mov	r2, #512
 1712 0032 9A61     		str	r2, [r3, #24]
 677:Core/Src/main.c ****   hspi1.Init.BaudRatePrescaler = SPI_BAUDRATEPRESCALER_4;
 1713              		.loc 1 677 32
 1714 0034 0F4B     		ldr	r3, .L74
 1715 0036 0822     		movs	r2, #8
 1716 0038 DA61     		str	r2, [r3, #28]
 678:Core/Src/main.c ****   hspi1.Init.FirstBit = SPI_FIRSTBIT_MSB;
ARM GAS  C:\Users\Morroway\AppData\Local\Temp\ccSn7seF.s 			page 45


 1717              		.loc 1 678 23
 1718 003a 0E4B     		ldr	r3, .L74
 1719 003c 0022     		movs	r2, #0
 1720 003e 1A62     		str	r2, [r3, #32]
 679:Core/Src/main.c ****   hspi1.Init.TIMode = SPI_TIMODE_DISABLE;
 1721              		.loc 1 679 21
 1722 0040 0C4B     		ldr	r3, .L74
 1723 0042 0022     		movs	r2, #0
 1724 0044 5A62     		str	r2, [r3, #36]
 680:Core/Src/main.c ****   hspi1.Init.CRCCalculation = SPI_CRCCALCULATION_DISABLE;
 1725              		.loc 1 680 29
 1726 0046 0B4B     		ldr	r3, .L74
 1727 0048 0022     		movs	r2, #0
 1728 004a 9A62     		str	r2, [r3, #40]
 681:Core/Src/main.c ****   hspi1.Init.CRCPolynomial = 7;
 1729              		.loc 1 681 28
 1730 004c 094B     		ldr	r3, .L74
 1731 004e 0722     		movs	r2, #7
 1732 0050 DA62     		str	r2, [r3, #44]
 682:Core/Src/main.c ****   hspi1.Init.CRCLength = SPI_CRC_LENGTH_DATASIZE;
 1733              		.loc 1 682 24
 1734 0052 084B     		ldr	r3, .L74
 1735 0054 0022     		movs	r2, #0
 1736 0056 1A63     		str	r2, [r3, #48]
 683:Core/Src/main.c ****   hspi1.Init.NSSPMode = SPI_NSS_PULSE_ENABLE;
 1737              		.loc 1 683 23
 1738 0058 064B     		ldr	r3, .L74
 1739 005a 0822     		movs	r2, #8
 1740 005c 5A63     		str	r2, [r3, #52]
 684:Core/Src/main.c ****   if (HAL_SPI_Init(&hspi1) != HAL_OK)
 1741              		.loc 1 684 7
 1742 005e 0548     		ldr	r0, .L74
 1743 0060 FFF7FEFF 		bl	HAL_SPI_Init
 1744 0064 0346     		mov	r3, r0
 1745              		.loc 1 684 6
 1746 0066 002B     		cmp	r3, #0
 1747 0068 01D0     		beq	.L73
 685:Core/Src/main.c ****   {
 686:Core/Src/main.c ****     Error_Handler();
 1748              		.loc 1 686 5
 1749 006a FFF7FEFF 		bl	Error_Handler
 1750              	.L73:
 687:Core/Src/main.c ****   }
 688:Core/Src/main.c ****   /* USER CODE BEGIN SPI1_Init 2 */
 689:Core/Src/main.c **** 
 690:Core/Src/main.c ****   /* USER CODE END SPI1_Init 2 */
 691:Core/Src/main.c **** 
 692:Core/Src/main.c **** }
 1751              		.loc 1 692 1
 1752 006e 00BF     		nop
 1753 0070 80BD     		pop	{r7, pc}
 1754              	.L75:
 1755 0072 00BF     		.align	2
 1756              	.L74:
 1757 0074 00000000 		.word	hspi1
 1758 0078 00300140 		.word	1073819648
 1759              		.cfi_endproc
ARM GAS  C:\Users\Morroway\AppData\Local\Temp\ccSn7seF.s 			page 46


 1760              	.LFE337:
 1762              		.section	.text.MX_SPI2_Init,"ax",%progbits
 1763              		.align	1
 1764              		.syntax unified
 1765              		.thumb
 1766              		.thumb_func
 1768              	MX_SPI2_Init:
 1769              	.LFB338:
 693:Core/Src/main.c **** 
 694:Core/Src/main.c **** /**
 695:Core/Src/main.c ****   * @brief SPI2 Initialization Function
 696:Core/Src/main.c ****   * @param None
 697:Core/Src/main.c ****   * @retval None
 698:Core/Src/main.c ****   */
 699:Core/Src/main.c **** static void MX_SPI2_Init(void)
 700:Core/Src/main.c **** {
 1770              		.loc 1 700 1
 1771              		.cfi_startproc
 1772              		@ args = 0, pretend = 0, frame = 0
 1773              		@ frame_needed = 1, uses_anonymous_args = 0
 1774 0000 80B5     		push	{r7, lr}
 1775              		.cfi_def_cfa_offset 8
 1776              		.cfi_offset 7, -8
 1777              		.cfi_offset 14, -4
 1778 0002 00AF     		add	r7, sp, #0
 1779              		.cfi_def_cfa_register 7
 701:Core/Src/main.c **** 
 702:Core/Src/main.c ****   /* USER CODE BEGIN SPI2_Init 0 */
 703:Core/Src/main.c **** 
 704:Core/Src/main.c ****   /* USER CODE END SPI2_Init 0 */
 705:Core/Src/main.c **** 
 706:Core/Src/main.c ****   /* USER CODE BEGIN SPI2_Init 1 */
 707:Core/Src/main.c **** 
 708:Core/Src/main.c ****   /* USER CODE END SPI2_Init 1 */
 709:Core/Src/main.c ****   /* SPI2 parameter configuration*/
 710:Core/Src/main.c ****   hspi2.Instance = SPI2;
 1780              		.loc 1 710 18
 1781 0004 1B4B     		ldr	r3, .L79
 1782 0006 1C4A     		ldr	r2, .L79+4
 1783 0008 1A60     		str	r2, [r3]
 711:Core/Src/main.c ****   hspi2.Init.Mode = SPI_MODE_MASTER;
 1784              		.loc 1 711 19
 1785 000a 1A4B     		ldr	r3, .L79
 1786 000c 4FF48272 		mov	r2, #260
 1787 0010 5A60     		str	r2, [r3, #4]
 712:Core/Src/main.c ****   hspi2.Init.Direction = SPI_DIRECTION_2LINES;
 1788              		.loc 1 712 24
 1789 0012 184B     		ldr	r3, .L79
 1790 0014 0022     		movs	r2, #0
 1791 0016 9A60     		str	r2, [r3, #8]
 713:Core/Src/main.c ****   hspi2.Init.DataSize = SPI_DATASIZE_8BIT;
 1792              		.loc 1 713 23
 1793 0018 164B     		ldr	r3, .L79
 1794 001a 4FF4E062 		mov	r2, #1792
 1795 001e DA60     		str	r2, [r3, #12]
 714:Core/Src/main.c ****   hspi2.Init.CLKPolarity = SPI_POLARITY_LOW;
 1796              		.loc 1 714 26
ARM GAS  C:\Users\Morroway\AppData\Local\Temp\ccSn7seF.s 			page 47


 1797 0020 144B     		ldr	r3, .L79
 1798 0022 0022     		movs	r2, #0
 1799 0024 1A61     		str	r2, [r3, #16]
 715:Core/Src/main.c ****   hspi2.Init.CLKPhase = SPI_PHASE_1EDGE;
 1800              		.loc 1 715 23
 1801 0026 134B     		ldr	r3, .L79
 1802 0028 0022     		movs	r2, #0
 1803 002a 5A61     		str	r2, [r3, #20]
 716:Core/Src/main.c ****   hspi2.Init.NSS = SPI_NSS_SOFT;
 1804              		.loc 1 716 18
 1805 002c 114B     		ldr	r3, .L79
 1806 002e 4FF40072 		mov	r2, #512
 1807 0032 9A61     		str	r2, [r3, #24]
 717:Core/Src/main.c ****   hspi2.Init.BaudRatePrescaler = SPI_BAUDRATEPRESCALER_256;
 1808              		.loc 1 717 32
 1809 0034 0F4B     		ldr	r3, .L79
 1810 0036 3822     		movs	r2, #56
 1811 0038 DA61     		str	r2, [r3, #28]
 718:Core/Src/main.c ****   hspi2.Init.FirstBit = SPI_FIRSTBIT_MSB;
 1812              		.loc 1 718 23
 1813 003a 0E4B     		ldr	r3, .L79
 1814 003c 0022     		movs	r2, #0
 1815 003e 1A62     		str	r2, [r3, #32]
 719:Core/Src/main.c ****   hspi2.Init.TIMode = SPI_TIMODE_DISABLE;
 1816              		.loc 1 719 21
 1817 0040 0C4B     		ldr	r3, .L79
 1818 0042 0022     		movs	r2, #0
 1819 0044 5A62     		str	r2, [r3, #36]
 720:Core/Src/main.c ****   hspi2.Init.CRCCalculation = SPI_CRCCALCULATION_DISABLE;
 1820              		.loc 1 720 29
 1821 0046 0B4B     		ldr	r3, .L79
 1822 0048 0022     		movs	r2, #0
 1823 004a 9A62     		str	r2, [r3, #40]
 721:Core/Src/main.c ****   hspi2.Init.CRCPolynomial = 7;
 1824              		.loc 1 721 28
 1825 004c 094B     		ldr	r3, .L79
 1826 004e 0722     		movs	r2, #7
 1827 0050 DA62     		str	r2, [r3, #44]
 722:Core/Src/main.c ****   hspi2.Init.CRCLength = SPI_CRC_LENGTH_DATASIZE;
 1828              		.loc 1 722 24
 1829 0052 084B     		ldr	r3, .L79
 1830 0054 0022     		movs	r2, #0
 1831 0056 1A63     		str	r2, [r3, #48]
 723:Core/Src/main.c ****   hspi2.Init.NSSPMode = SPI_NSS_PULSE_ENABLE;
 1832              		.loc 1 723 23
 1833 0058 064B     		ldr	r3, .L79
 1834 005a 0822     		movs	r2, #8
 1835 005c 5A63     		str	r2, [r3, #52]
 724:Core/Src/main.c ****   if (HAL_SPI_Init(&hspi2) != HAL_OK)
 1836              		.loc 1 724 7
 1837 005e 0548     		ldr	r0, .L79
 1838 0060 FFF7FEFF 		bl	HAL_SPI_Init
 1839 0064 0346     		mov	r3, r0
 1840              		.loc 1 724 6
 1841 0066 002B     		cmp	r3, #0
 1842 0068 01D0     		beq	.L78
 725:Core/Src/main.c ****   {
ARM GAS  C:\Users\Morroway\AppData\Local\Temp\ccSn7seF.s 			page 48


 726:Core/Src/main.c ****     Error_Handler();
 1843              		.loc 1 726 5
 1844 006a FFF7FEFF 		bl	Error_Handler
 1845              	.L78:
 727:Core/Src/main.c ****   }
 728:Core/Src/main.c ****   /* USER CODE BEGIN SPI2_Init 2 */
 729:Core/Src/main.c **** 
 730:Core/Src/main.c ****   /* USER CODE END SPI2_Init 2 */
 731:Core/Src/main.c **** 
 732:Core/Src/main.c **** }
 1846              		.loc 1 732 1
 1847 006e 00BF     		nop
 1848 0070 80BD     		pop	{r7, pc}
 1849              	.L80:
 1850 0072 00BF     		.align	2
 1851              	.L79:
 1852 0074 00000000 		.word	hspi2
 1853 0078 00380040 		.word	1073756160
 1854              		.cfi_endproc
 1855              	.LFE338:
 1857              		.section	.text.MX_TIM2_Init,"ax",%progbits
 1858              		.align	1
 1859              		.syntax unified
 1860              		.thumb
 1861              		.thumb_func
 1863              	MX_TIM2_Init:
 1864              	.LFB339:
 733:Core/Src/main.c **** 
 734:Core/Src/main.c **** /**
 735:Core/Src/main.c ****   * @brief TIM2 Initialization Function
 736:Core/Src/main.c ****   * @param None
 737:Core/Src/main.c ****   * @retval None
 738:Core/Src/main.c ****   */
 739:Core/Src/main.c **** static void MX_TIM2_Init(void)
 740:Core/Src/main.c **** {
 1865              		.loc 1 740 1
 1866              		.cfi_startproc
 1867              		@ args = 0, pretend = 0, frame = 56
 1868              		@ frame_needed = 1, uses_anonymous_args = 0
 1869 0000 80B5     		push	{r7, lr}
 1870              		.cfi_def_cfa_offset 8
 1871              		.cfi_offset 7, -8
 1872              		.cfi_offset 14, -4
 1873 0002 8EB0     		sub	sp, sp, #56
 1874              		.cfi_def_cfa_offset 64
 1875 0004 00AF     		add	r7, sp, #0
 1876              		.cfi_def_cfa_register 7
 741:Core/Src/main.c **** 
 742:Core/Src/main.c ****   /* USER CODE BEGIN TIM2_Init 0 */
 743:Core/Src/main.c **** 
 744:Core/Src/main.c ****   /* USER CODE END TIM2_Init 0 */
 745:Core/Src/main.c **** 
 746:Core/Src/main.c ****   TIM_ClockConfigTypeDef sClockSourceConfig = {0};
 1877              		.loc 1 746 26
 1878 0006 07F12803 		add	r3, r7, #40
 1879 000a 0022     		movs	r2, #0
 1880 000c 1A60     		str	r2, [r3]
ARM GAS  C:\Users\Morroway\AppData\Local\Temp\ccSn7seF.s 			page 49


 1881 000e 5A60     		str	r2, [r3, #4]
 1882 0010 9A60     		str	r2, [r3, #8]
 1883 0012 DA60     		str	r2, [r3, #12]
 747:Core/Src/main.c ****   TIM_MasterConfigTypeDef sMasterConfig = {0};
 1884              		.loc 1 747 27
 1885 0014 07F11C03 		add	r3, r7, #28
 1886 0018 0022     		movs	r2, #0
 1887 001a 1A60     		str	r2, [r3]
 1888 001c 5A60     		str	r2, [r3, #4]
 1889 001e 9A60     		str	r2, [r3, #8]
 748:Core/Src/main.c ****   TIM_OC_InitTypeDef sConfigOC = {0};
 1890              		.loc 1 748 22
 1891 0020 3B46     		mov	r3, r7
 1892 0022 0022     		movs	r2, #0
 1893 0024 1A60     		str	r2, [r3]
 1894 0026 5A60     		str	r2, [r3, #4]
 1895 0028 9A60     		str	r2, [r3, #8]
 1896 002a DA60     		str	r2, [r3, #12]
 1897 002c 1A61     		str	r2, [r3, #16]
 1898 002e 5A61     		str	r2, [r3, #20]
 1899 0030 9A61     		str	r2, [r3, #24]
 749:Core/Src/main.c **** 
 750:Core/Src/main.c ****   /* USER CODE BEGIN TIM2_Init 1 */
 751:Core/Src/main.c **** 
 752:Core/Src/main.c ****   /* USER CODE END TIM2_Init 1 */
 753:Core/Src/main.c ****   htim2.Instance = TIM2;
 1900              		.loc 1 753 18
 1901 0032 324B     		ldr	r3, .L88
 1902 0034 4FF08042 		mov	r2, #1073741824
 1903 0038 1A60     		str	r2, [r3]
 754:Core/Src/main.c ****   htim2.Init.Prescaler = 119;
 1904              		.loc 1 754 24
 1905 003a 304B     		ldr	r3, .L88
 1906 003c 7722     		movs	r2, #119
 1907 003e 5A60     		str	r2, [r3, #4]
 755:Core/Src/main.c ****   htim2.Init.CounterMode = TIM_COUNTERMODE_UP;
 1908              		.loc 1 755 26
 1909 0040 2E4B     		ldr	r3, .L88
 1910 0042 0022     		movs	r2, #0
 1911 0044 9A60     		str	r2, [r3, #8]
 756:Core/Src/main.c ****   htim2.Init.Period = 255;
 1912              		.loc 1 756 21
 1913 0046 2D4B     		ldr	r3, .L88
 1914 0048 FF22     		movs	r2, #255
 1915 004a DA60     		str	r2, [r3, #12]
 757:Core/Src/main.c ****   htim2.Init.ClockDivision = TIM_CLOCKDIVISION_DIV1;
 1916              		.loc 1 757 28
 1917 004c 2B4B     		ldr	r3, .L88
 1918 004e 0022     		movs	r2, #0
 1919 0050 1A61     		str	r2, [r3, #16]
 758:Core/Src/main.c ****   htim2.Init.AutoReloadPreload = TIM_AUTORELOAD_PRELOAD_DISABLE;
 1920              		.loc 1 758 32
 1921 0052 2A4B     		ldr	r3, .L88
 1922 0054 0022     		movs	r2, #0
 1923 0056 9A61     		str	r2, [r3, #24]
 759:Core/Src/main.c ****   if (HAL_TIM_Base_Init(&htim2) != HAL_OK)
 1924              		.loc 1 759 7
ARM GAS  C:\Users\Morroway\AppData\Local\Temp\ccSn7seF.s 			page 50


 1925 0058 2848     		ldr	r0, .L88
 1926 005a FFF7FEFF 		bl	HAL_TIM_Base_Init
 1927 005e 0346     		mov	r3, r0
 1928              		.loc 1 759 6
 1929 0060 002B     		cmp	r3, #0
 1930 0062 01D0     		beq	.L82
 760:Core/Src/main.c ****   {
 761:Core/Src/main.c ****     Error_Handler();
 1931              		.loc 1 761 5
 1932 0064 FFF7FEFF 		bl	Error_Handler
 1933              	.L82:
 762:Core/Src/main.c ****   }
 763:Core/Src/main.c ****   sClockSourceConfig.ClockSource = TIM_CLOCKSOURCE_INTERNAL;
 1934              		.loc 1 763 34
 1935 0068 4FF48053 		mov	r3, #4096
 1936 006c BB62     		str	r3, [r7, #40]
 764:Core/Src/main.c ****   if (HAL_TIM_ConfigClockSource(&htim2, &sClockSourceConfig) != HAL_OK)
 1937              		.loc 1 764 7
 1938 006e 07F12803 		add	r3, r7, #40
 1939 0072 1946     		mov	r1, r3
 1940 0074 2148     		ldr	r0, .L88
 1941 0076 FFF7FEFF 		bl	HAL_TIM_ConfigClockSource
 1942 007a 0346     		mov	r3, r0
 1943              		.loc 1 764 6
 1944 007c 002B     		cmp	r3, #0
 1945 007e 01D0     		beq	.L83
 765:Core/Src/main.c ****   {
 766:Core/Src/main.c ****     Error_Handler();
 1946              		.loc 1 766 5
 1947 0080 FFF7FEFF 		bl	Error_Handler
 1948              	.L83:
 767:Core/Src/main.c ****   }
 768:Core/Src/main.c ****   if (HAL_TIM_PWM_Init(&htim2) != HAL_OK)
 1949              		.loc 1 768 7
 1950 0084 1D48     		ldr	r0, .L88
 1951 0086 FFF7FEFF 		bl	HAL_TIM_PWM_Init
 1952 008a 0346     		mov	r3, r0
 1953              		.loc 1 768 6
 1954 008c 002B     		cmp	r3, #0
 1955 008e 01D0     		beq	.L84
 769:Core/Src/main.c ****   {
 770:Core/Src/main.c ****     Error_Handler();
 1956              		.loc 1 770 5
 1957 0090 FFF7FEFF 		bl	Error_Handler
 1958              	.L84:
 771:Core/Src/main.c ****   }
 772:Core/Src/main.c ****   sMasterConfig.MasterOutputTrigger = TIM_TRGO_RESET;
 1959              		.loc 1 772 37
 1960 0094 0023     		movs	r3, #0
 1961 0096 FB61     		str	r3, [r7, #28]
 773:Core/Src/main.c ****   sMasterConfig.MasterSlaveMode = TIM_MASTERSLAVEMODE_DISABLE;
 1962              		.loc 1 773 33
 1963 0098 0023     		movs	r3, #0
 1964 009a 7B62     		str	r3, [r7, #36]
 774:Core/Src/main.c ****   if (HAL_TIMEx_MasterConfigSynchronization(&htim2, &sMasterConfig) != HAL_OK)
 1965              		.loc 1 774 7
 1966 009c 07F11C03 		add	r3, r7, #28
ARM GAS  C:\Users\Morroway\AppData\Local\Temp\ccSn7seF.s 			page 51


 1967 00a0 1946     		mov	r1, r3
 1968 00a2 1648     		ldr	r0, .L88
 1969 00a4 FFF7FEFF 		bl	HAL_TIMEx_MasterConfigSynchronization
 1970 00a8 0346     		mov	r3, r0
 1971              		.loc 1 774 6
 1972 00aa 002B     		cmp	r3, #0
 1973 00ac 01D0     		beq	.L85
 775:Core/Src/main.c ****   {
 776:Core/Src/main.c ****     Error_Handler();
 1974              		.loc 1 776 5
 1975 00ae FFF7FEFF 		bl	Error_Handler
 1976              	.L85:
 777:Core/Src/main.c ****   }
 778:Core/Src/main.c ****   sConfigOC.OCMode = TIM_OCMODE_PWM1;
 1977              		.loc 1 778 20
 1978 00b2 6023     		movs	r3, #96
 1979 00b4 3B60     		str	r3, [r7]
 779:Core/Src/main.c ****   sConfigOC.Pulse = 0;
 1980              		.loc 1 779 19
 1981 00b6 0023     		movs	r3, #0
 1982 00b8 7B60     		str	r3, [r7, #4]
 780:Core/Src/main.c ****   sConfigOC.OCPolarity = TIM_OCPOLARITY_HIGH;
 1983              		.loc 1 780 24
 1984 00ba 0023     		movs	r3, #0
 1985 00bc BB60     		str	r3, [r7, #8]
 781:Core/Src/main.c ****   sConfigOC.OCFastMode = TIM_OCFAST_DISABLE;
 1986              		.loc 1 781 24
 1987 00be 0023     		movs	r3, #0
 1988 00c0 3B61     		str	r3, [r7, #16]
 782:Core/Src/main.c ****   if (HAL_TIM_PWM_ConfigChannel(&htim2, &sConfigOC, TIM_CHANNEL_1) != HAL_OK)
 1989              		.loc 1 782 7
 1990 00c2 3B46     		mov	r3, r7
 1991 00c4 0022     		movs	r2, #0
 1992 00c6 1946     		mov	r1, r3
 1993 00c8 0C48     		ldr	r0, .L88
 1994 00ca FFF7FEFF 		bl	HAL_TIM_PWM_ConfigChannel
 1995 00ce 0346     		mov	r3, r0
 1996              		.loc 1 782 6
 1997 00d0 002B     		cmp	r3, #0
 1998 00d2 01D0     		beq	.L86
 783:Core/Src/main.c ****   {
 784:Core/Src/main.c ****     Error_Handler();
 1999              		.loc 1 784 5
 2000 00d4 FFF7FEFF 		bl	Error_Handler
 2001              	.L86:
 785:Core/Src/main.c ****   }
 786:Core/Src/main.c ****   if (HAL_TIM_PWM_ConfigChannel(&htim2, &sConfigOC, TIM_CHANNEL_2) != HAL_OK)
 2002              		.loc 1 786 7
 2003 00d8 3B46     		mov	r3, r7
 2004 00da 0422     		movs	r2, #4
 2005 00dc 1946     		mov	r1, r3
 2006 00de 0748     		ldr	r0, .L88
 2007 00e0 FFF7FEFF 		bl	HAL_TIM_PWM_ConfigChannel
 2008 00e4 0346     		mov	r3, r0
 2009              		.loc 1 786 6
 2010 00e6 002B     		cmp	r3, #0
 2011 00e8 01D0     		beq	.L87
ARM GAS  C:\Users\Morroway\AppData\Local\Temp\ccSn7seF.s 			page 52


 787:Core/Src/main.c ****   {
 788:Core/Src/main.c ****     Error_Handler();
 2012              		.loc 1 788 5
 2013 00ea FFF7FEFF 		bl	Error_Handler
 2014              	.L87:
 789:Core/Src/main.c ****   }
 790:Core/Src/main.c ****   /* USER CODE BEGIN TIM2_Init 2 */
 791:Core/Src/main.c **** 
 792:Core/Src/main.c ****   /* USER CODE END TIM2_Init 2 */
 793:Core/Src/main.c ****   HAL_TIM_MspPostInit(&htim2);
 2015              		.loc 1 793 3
 2016 00ee 0348     		ldr	r0, .L88
 2017 00f0 FFF7FEFF 		bl	HAL_TIM_MspPostInit
 794:Core/Src/main.c **** 
 795:Core/Src/main.c **** }
 2018              		.loc 1 795 1
 2019 00f4 00BF     		nop
 2020 00f6 3837     		adds	r7, r7, #56
 2021              		.cfi_def_cfa_offset 8
 2022 00f8 BD46     		mov	sp, r7
 2023              		.cfi_def_cfa_register 13
 2024              		@ sp needed
 2025 00fa 80BD     		pop	{r7, pc}
 2026              	.L89:
 2027              		.align	2
 2028              	.L88:
 2029 00fc 00000000 		.word	htim2
 2030              		.cfi_endproc
 2031              	.LFE339:
 2033              		.section	.text.MX_TIM3_Init,"ax",%progbits
 2034              		.align	1
 2035              		.syntax unified
 2036              		.thumb
 2037              		.thumb_func
 2039              	MX_TIM3_Init:
 2040              	.LFB340:
 796:Core/Src/main.c **** 
 797:Core/Src/main.c **** /**
 798:Core/Src/main.c ****   * @brief TIM3 Initialization Function
 799:Core/Src/main.c ****   * @param None
 800:Core/Src/main.c ****   * @retval None
 801:Core/Src/main.c ****   */
 802:Core/Src/main.c **** static void MX_TIM3_Init(void)
 803:Core/Src/main.c **** {
 2041              		.loc 1 803 1
 2042              		.cfi_startproc
 2043              		@ args = 0, pretend = 0, frame = 56
 2044              		@ frame_needed = 1, uses_anonymous_args = 0
 2045 0000 80B5     		push	{r7, lr}
 2046              		.cfi_def_cfa_offset 8
 2047              		.cfi_offset 7, -8
 2048              		.cfi_offset 14, -4
 2049 0002 8EB0     		sub	sp, sp, #56
 2050              		.cfi_def_cfa_offset 64
 2051 0004 00AF     		add	r7, sp, #0
 2052              		.cfi_def_cfa_register 7
 804:Core/Src/main.c **** 
ARM GAS  C:\Users\Morroway\AppData\Local\Temp\ccSn7seF.s 			page 53


 805:Core/Src/main.c ****   /* USER CODE BEGIN TIM3_Init 0 */
 806:Core/Src/main.c **** 
 807:Core/Src/main.c ****   /* USER CODE END TIM3_Init 0 */
 808:Core/Src/main.c **** 
 809:Core/Src/main.c ****   TIM_ClockConfigTypeDef sClockSourceConfig = {0};
 2053              		.loc 1 809 26
 2054 0006 07F12803 		add	r3, r7, #40
 2055 000a 0022     		movs	r2, #0
 2056 000c 1A60     		str	r2, [r3]
 2057 000e 5A60     		str	r2, [r3, #4]
 2058 0010 9A60     		str	r2, [r3, #8]
 2059 0012 DA60     		str	r2, [r3, #12]
 810:Core/Src/main.c ****   TIM_MasterConfigTypeDef sMasterConfig = {0};
 2060              		.loc 1 810 27
 2061 0014 07F11C03 		add	r3, r7, #28
 2062 0018 0022     		movs	r2, #0
 2063 001a 1A60     		str	r2, [r3]
 2064 001c 5A60     		str	r2, [r3, #4]
 2065 001e 9A60     		str	r2, [r3, #8]
 811:Core/Src/main.c ****   TIM_OC_InitTypeDef sConfigOC = {0};
 2066              		.loc 1 811 22
 2067 0020 3B46     		mov	r3, r7
 2068 0022 0022     		movs	r2, #0
 2069 0024 1A60     		str	r2, [r3]
 2070 0026 5A60     		str	r2, [r3, #4]
 2071 0028 9A60     		str	r2, [r3, #8]
 2072 002a DA60     		str	r2, [r3, #12]
 2073 002c 1A61     		str	r2, [r3, #16]
 2074 002e 5A61     		str	r2, [r3, #20]
 2075 0030 9A61     		str	r2, [r3, #24]
 812:Core/Src/main.c **** 
 813:Core/Src/main.c ****   /* USER CODE BEGIN TIM3_Init 1 */
 814:Core/Src/main.c **** 
 815:Core/Src/main.c ****   /* USER CODE END TIM3_Init 1 */
 816:Core/Src/main.c ****   htim3.Instance = TIM3;
 2076              		.loc 1 816 18
 2077 0032 3D4B     		ldr	r3, .L99
 2078 0034 3D4A     		ldr	r2, .L99+4
 2079 0036 1A60     		str	r2, [r3]
 817:Core/Src/main.c ****   htim3.Init.Prescaler = 11119;
 2080              		.loc 1 817 24
 2081 0038 3B4B     		ldr	r3, .L99
 2082 003a 42F66F32 		movw	r2, #11119
 2083 003e 5A60     		str	r2, [r3, #4]
 818:Core/Src/main.c ****   htim3.Init.CounterMode = TIM_COUNTERMODE_UP;
 2084              		.loc 1 818 26
 2085 0040 394B     		ldr	r3, .L99
 2086 0042 0022     		movs	r2, #0
 2087 0044 9A60     		str	r2, [r3, #8]
 819:Core/Src/main.c ****   htim3.Init.Period = 255;
 2088              		.loc 1 819 21
 2089 0046 384B     		ldr	r3, .L99
 2090 0048 FF22     		movs	r2, #255
 2091 004a DA60     		str	r2, [r3, #12]
 820:Core/Src/main.c ****   htim3.Init.ClockDivision = TIM_CLOCKDIVISION_DIV1;
 2092              		.loc 1 820 28
 2093 004c 364B     		ldr	r3, .L99
ARM GAS  C:\Users\Morroway\AppData\Local\Temp\ccSn7seF.s 			page 54


 2094 004e 0022     		movs	r2, #0
 2095 0050 1A61     		str	r2, [r3, #16]
 821:Core/Src/main.c ****   htim3.Init.AutoReloadPreload = TIM_AUTORELOAD_PRELOAD_ENABLE;
 2096              		.loc 1 821 32
 2097 0052 354B     		ldr	r3, .L99
 2098 0054 8022     		movs	r2, #128
 2099 0056 9A61     		str	r2, [r3, #24]
 822:Core/Src/main.c ****   if (HAL_TIM_Base_Init(&htim3) != HAL_OK)
 2100              		.loc 1 822 7
 2101 0058 3348     		ldr	r0, .L99
 2102 005a FFF7FEFF 		bl	HAL_TIM_Base_Init
 2103 005e 0346     		mov	r3, r0
 2104              		.loc 1 822 6
 2105 0060 002B     		cmp	r3, #0
 2106 0062 01D0     		beq	.L91
 823:Core/Src/main.c ****   {
 824:Core/Src/main.c ****     Error_Handler();
 2107              		.loc 1 824 5
 2108 0064 FFF7FEFF 		bl	Error_Handler
 2109              	.L91:
 825:Core/Src/main.c ****   }
 826:Core/Src/main.c ****   sClockSourceConfig.ClockSource = TIM_CLOCKSOURCE_INTERNAL;
 2110              		.loc 1 826 34
 2111 0068 4FF48053 		mov	r3, #4096
 2112 006c BB62     		str	r3, [r7, #40]
 827:Core/Src/main.c ****   if (HAL_TIM_ConfigClockSource(&htim3, &sClockSourceConfig) != HAL_OK)
 2113              		.loc 1 827 7
 2114 006e 07F12803 		add	r3, r7, #40
 2115 0072 1946     		mov	r1, r3
 2116 0074 2C48     		ldr	r0, .L99
 2117 0076 FFF7FEFF 		bl	HAL_TIM_ConfigClockSource
 2118 007a 0346     		mov	r3, r0
 2119              		.loc 1 827 6
 2120 007c 002B     		cmp	r3, #0
 2121 007e 01D0     		beq	.L92
 828:Core/Src/main.c ****   {
 829:Core/Src/main.c ****     Error_Handler();
 2122              		.loc 1 829 5
 2123 0080 FFF7FEFF 		bl	Error_Handler
 2124              	.L92:
 830:Core/Src/main.c ****   }
 831:Core/Src/main.c ****   if (HAL_TIM_PWM_Init(&htim3) != HAL_OK)
 2125              		.loc 1 831 7
 2126 0084 2848     		ldr	r0, .L99
 2127 0086 FFF7FEFF 		bl	HAL_TIM_PWM_Init
 2128 008a 0346     		mov	r3, r0
 2129              		.loc 1 831 6
 2130 008c 002B     		cmp	r3, #0
 2131 008e 01D0     		beq	.L93
 832:Core/Src/main.c ****   {
 833:Core/Src/main.c ****     Error_Handler();
 2132              		.loc 1 833 5
 2133 0090 FFF7FEFF 		bl	Error_Handler
 2134              	.L93:
 834:Core/Src/main.c ****   }
 835:Core/Src/main.c ****   sMasterConfig.MasterOutputTrigger = TIM_TRGO_RESET;
 2135              		.loc 1 835 37
ARM GAS  C:\Users\Morroway\AppData\Local\Temp\ccSn7seF.s 			page 55


 2136 0094 0023     		movs	r3, #0
 2137 0096 FB61     		str	r3, [r7, #28]
 836:Core/Src/main.c ****   sMasterConfig.MasterSlaveMode = TIM_MASTERSLAVEMODE_DISABLE;
 2138              		.loc 1 836 33
 2139 0098 0023     		movs	r3, #0
 2140 009a 7B62     		str	r3, [r7, #36]
 837:Core/Src/main.c ****   if (HAL_TIMEx_MasterConfigSynchronization(&htim3, &sMasterConfig) != HAL_OK)
 2141              		.loc 1 837 7
 2142 009c 07F11C03 		add	r3, r7, #28
 2143 00a0 1946     		mov	r1, r3
 2144 00a2 2148     		ldr	r0, .L99
 2145 00a4 FFF7FEFF 		bl	HAL_TIMEx_MasterConfigSynchronization
 2146 00a8 0346     		mov	r3, r0
 2147              		.loc 1 837 6
 2148 00aa 002B     		cmp	r3, #0
 2149 00ac 01D0     		beq	.L94
 838:Core/Src/main.c ****   {
 839:Core/Src/main.c ****     Error_Handler();
 2150              		.loc 1 839 5
 2151 00ae FFF7FEFF 		bl	Error_Handler
 2152              	.L94:
 840:Core/Src/main.c ****   }
 841:Core/Src/main.c ****   sConfigOC.OCMode = TIM_OCMODE_PWM1;
 2153              		.loc 1 841 20
 2154 00b2 6023     		movs	r3, #96
 2155 00b4 3B60     		str	r3, [r7]
 842:Core/Src/main.c ****   sConfigOC.Pulse = 0;
 2156              		.loc 1 842 19
 2157 00b6 0023     		movs	r3, #0
 2158 00b8 7B60     		str	r3, [r7, #4]
 843:Core/Src/main.c ****   sConfigOC.OCPolarity = TIM_OCPOLARITY_HIGH;
 2159              		.loc 1 843 24
 2160 00ba 0023     		movs	r3, #0
 2161 00bc BB60     		str	r3, [r7, #8]
 844:Core/Src/main.c ****   sConfigOC.OCFastMode = TIM_OCFAST_DISABLE;
 2162              		.loc 1 844 24
 2163 00be 0023     		movs	r3, #0
 2164 00c0 3B61     		str	r3, [r7, #16]
 845:Core/Src/main.c ****   if (HAL_TIM_PWM_ConfigChannel(&htim3, &sConfigOC, TIM_CHANNEL_1) != HAL_OK)
 2165              		.loc 1 845 7
 2166 00c2 3B46     		mov	r3, r7
 2167 00c4 0022     		movs	r2, #0
 2168 00c6 1946     		mov	r1, r3
 2169 00c8 1748     		ldr	r0, .L99
 2170 00ca FFF7FEFF 		bl	HAL_TIM_PWM_ConfigChannel
 2171 00ce 0346     		mov	r3, r0
 2172              		.loc 1 845 6
 2173 00d0 002B     		cmp	r3, #0
 2174 00d2 01D0     		beq	.L95
 846:Core/Src/main.c ****   {
 847:Core/Src/main.c ****     Error_Handler();
 2175              		.loc 1 847 5
 2176 00d4 FFF7FEFF 		bl	Error_Handler
 2177              	.L95:
 848:Core/Src/main.c ****   }
 849:Core/Src/main.c ****   if (HAL_TIM_PWM_ConfigChannel(&htim3, &sConfigOC, TIM_CHANNEL_2) != HAL_OK)
 2178              		.loc 1 849 7
ARM GAS  C:\Users\Morroway\AppData\Local\Temp\ccSn7seF.s 			page 56


 2179 00d8 3B46     		mov	r3, r7
 2180 00da 0422     		movs	r2, #4
 2181 00dc 1946     		mov	r1, r3
 2182 00de 1248     		ldr	r0, .L99
 2183 00e0 FFF7FEFF 		bl	HAL_TIM_PWM_ConfigChannel
 2184 00e4 0346     		mov	r3, r0
 2185              		.loc 1 849 6
 2186 00e6 002B     		cmp	r3, #0
 2187 00e8 01D0     		beq	.L96
 850:Core/Src/main.c ****   {
 851:Core/Src/main.c ****     Error_Handler();
 2188              		.loc 1 851 5
 2189 00ea FFF7FEFF 		bl	Error_Handler
 2190              	.L96:
 852:Core/Src/main.c ****   }
 853:Core/Src/main.c ****   if (HAL_TIM_PWM_ConfigChannel(&htim3, &sConfigOC, TIM_CHANNEL_3) != HAL_OK)
 2191              		.loc 1 853 7
 2192 00ee 3B46     		mov	r3, r7
 2193 00f0 0822     		movs	r2, #8
 2194 00f2 1946     		mov	r1, r3
 2195 00f4 0C48     		ldr	r0, .L99
 2196 00f6 FFF7FEFF 		bl	HAL_TIM_PWM_ConfigChannel
 2197 00fa 0346     		mov	r3, r0
 2198              		.loc 1 853 6
 2199 00fc 002B     		cmp	r3, #0
 2200 00fe 01D0     		beq	.L97
 854:Core/Src/main.c ****   {
 855:Core/Src/main.c ****     Error_Handler();
 2201              		.loc 1 855 5
 2202 0100 FFF7FEFF 		bl	Error_Handler
 2203              	.L97:
 856:Core/Src/main.c ****   }
 857:Core/Src/main.c ****   if (HAL_TIM_PWM_ConfigChannel(&htim3, &sConfigOC, TIM_CHANNEL_4) != HAL_OK)
 2204              		.loc 1 857 7
 2205 0104 3B46     		mov	r3, r7
 2206 0106 0C22     		movs	r2, #12
 2207 0108 1946     		mov	r1, r3
 2208 010a 0748     		ldr	r0, .L99
 2209 010c FFF7FEFF 		bl	HAL_TIM_PWM_ConfigChannel
 2210 0110 0346     		mov	r3, r0
 2211              		.loc 1 857 6
 2212 0112 002B     		cmp	r3, #0
 2213 0114 01D0     		beq	.L98
 858:Core/Src/main.c ****   {
 859:Core/Src/main.c ****     Error_Handler();
 2214              		.loc 1 859 5
 2215 0116 FFF7FEFF 		bl	Error_Handler
 2216              	.L98:
 860:Core/Src/main.c ****   }
 861:Core/Src/main.c ****   /* USER CODE BEGIN TIM3_Init 2 */
 862:Core/Src/main.c **** 
 863:Core/Src/main.c ****   /* USER CODE END TIM3_Init 2 */
 864:Core/Src/main.c ****   HAL_TIM_MspPostInit(&htim3);
 2217              		.loc 1 864 3
 2218 011a 0348     		ldr	r0, .L99
 2219 011c FFF7FEFF 		bl	HAL_TIM_MspPostInit
 865:Core/Src/main.c **** 
ARM GAS  C:\Users\Morroway\AppData\Local\Temp\ccSn7seF.s 			page 57


 866:Core/Src/main.c **** }
 2220              		.loc 1 866 1
 2221 0120 00BF     		nop
 2222 0122 3837     		adds	r7, r7, #56
 2223              		.cfi_def_cfa_offset 8
 2224 0124 BD46     		mov	sp, r7
 2225              		.cfi_def_cfa_register 13
 2226              		@ sp needed
 2227 0126 80BD     		pop	{r7, pc}
 2228              	.L100:
 2229              		.align	2
 2230              	.L99:
 2231 0128 00000000 		.word	htim3
 2232 012c 00040040 		.word	1073742848
 2233              		.cfi_endproc
 2234              	.LFE340:
 2236              		.section	.text.MX_TIM4_Init,"ax",%progbits
 2237              		.align	1
 2238              		.syntax unified
 2239              		.thumb
 2240              		.thumb_func
 2242              	MX_TIM4_Init:
 2243              	.LFB341:
 867:Core/Src/main.c **** 
 868:Core/Src/main.c **** /**
 869:Core/Src/main.c ****   * @brief TIM4 Initialization Function
 870:Core/Src/main.c ****   * @param None
 871:Core/Src/main.c ****   * @retval None
 872:Core/Src/main.c ****   */
 873:Core/Src/main.c **** static void MX_TIM4_Init(void)
 874:Core/Src/main.c **** {
 2244              		.loc 1 874 1
 2245              		.cfi_startproc
 2246              		@ args = 0, pretend = 0, frame = 32
 2247              		@ frame_needed = 1, uses_anonymous_args = 0
 2248 0000 80B5     		push	{r7, lr}
 2249              		.cfi_def_cfa_offset 8
 2250              		.cfi_offset 7, -8
 2251              		.cfi_offset 14, -4
 2252 0002 88B0     		sub	sp, sp, #32
 2253              		.cfi_def_cfa_offset 40
 2254 0004 00AF     		add	r7, sp, #0
 2255              		.cfi_def_cfa_register 7
 875:Core/Src/main.c **** 
 876:Core/Src/main.c ****   /* USER CODE BEGIN TIM4_Init 0 */
 877:Core/Src/main.c **** 
 878:Core/Src/main.c ****   /* USER CODE END TIM4_Init 0 */
 879:Core/Src/main.c **** 
 880:Core/Src/main.c ****   TIM_ClockConfigTypeDef sClockSourceConfig = {0};
 2256              		.loc 1 880 26
 2257 0006 07F11003 		add	r3, r7, #16
 2258 000a 0022     		movs	r2, #0
 2259 000c 1A60     		str	r2, [r3]
 2260 000e 5A60     		str	r2, [r3, #4]
 2261 0010 9A60     		str	r2, [r3, #8]
 2262 0012 DA60     		str	r2, [r3, #12]
 881:Core/Src/main.c ****   TIM_MasterConfigTypeDef sMasterConfig = {0};
ARM GAS  C:\Users\Morroway\AppData\Local\Temp\ccSn7seF.s 			page 58


 2263              		.loc 1 881 27
 2264 0014 3B1D     		adds	r3, r7, #4
 2265 0016 0022     		movs	r2, #0
 2266 0018 1A60     		str	r2, [r3]
 2267 001a 5A60     		str	r2, [r3, #4]
 2268 001c 9A60     		str	r2, [r3, #8]
 882:Core/Src/main.c **** 
 883:Core/Src/main.c ****   /* USER CODE BEGIN TIM4_Init 1 */
 884:Core/Src/main.c **** 
 885:Core/Src/main.c ****   /* USER CODE END TIM4_Init 1 */
 886:Core/Src/main.c ****   htim4.Instance = TIM4;
 2269              		.loc 1 886 18
 2270 001e 1D4B     		ldr	r3, .L106
 2271 0020 1D4A     		ldr	r2, .L106+4
 2272 0022 1A60     		str	r2, [r3]
 887:Core/Src/main.c ****   htim4.Init.Prescaler = 119;
 2273              		.loc 1 887 24
 2274 0024 1B4B     		ldr	r3, .L106
 2275 0026 7722     		movs	r2, #119
 2276 0028 5A60     		str	r2, [r3, #4]
 888:Core/Src/main.c ****   htim4.Init.CounterMode = TIM_COUNTERMODE_UP;
 2277              		.loc 1 888 26
 2278 002a 1A4B     		ldr	r3, .L106
 2279 002c 0022     		movs	r2, #0
 2280 002e 9A60     		str	r2, [r3, #8]
 889:Core/Src/main.c ****   htim4.Init.Period = 65535;
 2281              		.loc 1 889 21
 2282 0030 184B     		ldr	r3, .L106
 2283 0032 4FF6FF72 		movw	r2, #65535
 2284 0036 DA60     		str	r2, [r3, #12]
 890:Core/Src/main.c ****   htim4.Init.ClockDivision = TIM_CLOCKDIVISION_DIV1;
 2285              		.loc 1 890 28
 2286 0038 164B     		ldr	r3, .L106
 2287 003a 0022     		movs	r2, #0
 2288 003c 1A61     		str	r2, [r3, #16]
 891:Core/Src/main.c ****   htim4.Init.AutoReloadPreload = TIM_AUTORELOAD_PRELOAD_DISABLE;
 2289              		.loc 1 891 32
 2290 003e 154B     		ldr	r3, .L106
 2291 0040 0022     		movs	r2, #0
 2292 0042 9A61     		str	r2, [r3, #24]
 892:Core/Src/main.c ****   if (HAL_TIM_Base_Init(&htim4) != HAL_OK)
 2293              		.loc 1 892 7
 2294 0044 1348     		ldr	r0, .L106
 2295 0046 FFF7FEFF 		bl	HAL_TIM_Base_Init
 2296 004a 0346     		mov	r3, r0
 2297              		.loc 1 892 6
 2298 004c 002B     		cmp	r3, #0
 2299 004e 01D0     		beq	.L102
 893:Core/Src/main.c ****   {
 894:Core/Src/main.c ****     Error_Handler();
 2300              		.loc 1 894 5
 2301 0050 FFF7FEFF 		bl	Error_Handler
 2302              	.L102:
 895:Core/Src/main.c ****   }
 896:Core/Src/main.c ****   sClockSourceConfig.ClockSource = TIM_CLOCKSOURCE_INTERNAL;
 2303              		.loc 1 896 34
 2304 0054 4FF48053 		mov	r3, #4096
ARM GAS  C:\Users\Morroway\AppData\Local\Temp\ccSn7seF.s 			page 59


 2305 0058 3B61     		str	r3, [r7, #16]
 897:Core/Src/main.c ****   if (HAL_TIM_ConfigClockSource(&htim4, &sClockSourceConfig) != HAL_OK)
 2306              		.loc 1 897 7
 2307 005a 07F11003 		add	r3, r7, #16
 2308 005e 1946     		mov	r1, r3
 2309 0060 0C48     		ldr	r0, .L106
 2310 0062 FFF7FEFF 		bl	HAL_TIM_ConfigClockSource
 2311 0066 0346     		mov	r3, r0
 2312              		.loc 1 897 6
 2313 0068 002B     		cmp	r3, #0
 2314 006a 01D0     		beq	.L103
 898:Core/Src/main.c ****   {
 899:Core/Src/main.c ****     Error_Handler();
 2315              		.loc 1 899 5
 2316 006c FFF7FEFF 		bl	Error_Handler
 2317              	.L103:
 900:Core/Src/main.c ****   }
 901:Core/Src/main.c ****   sMasterConfig.MasterOutputTrigger = TIM_TRGO_RESET;
 2318              		.loc 1 901 37
 2319 0070 0023     		movs	r3, #0
 2320 0072 7B60     		str	r3, [r7, #4]
 902:Core/Src/main.c ****   sMasterConfig.MasterSlaveMode = TIM_MASTERSLAVEMODE_DISABLE;
 2321              		.loc 1 902 33
 2322 0074 0023     		movs	r3, #0
 2323 0076 FB60     		str	r3, [r7, #12]
 903:Core/Src/main.c ****   if (HAL_TIMEx_MasterConfigSynchronization(&htim4, &sMasterConfig) != HAL_OK)
 2324              		.loc 1 903 7
 2325 0078 3B1D     		adds	r3, r7, #4
 2326 007a 1946     		mov	r1, r3
 2327 007c 0548     		ldr	r0, .L106
 2328 007e FFF7FEFF 		bl	HAL_TIMEx_MasterConfigSynchronization
 2329 0082 0346     		mov	r3, r0
 2330              		.loc 1 903 6
 2331 0084 002B     		cmp	r3, #0
 2332 0086 01D0     		beq	.L105
 904:Core/Src/main.c ****   {
 905:Core/Src/main.c ****     Error_Handler();
 2333              		.loc 1 905 5
 2334 0088 FFF7FEFF 		bl	Error_Handler
 2335              	.L105:
 906:Core/Src/main.c ****   }
 907:Core/Src/main.c ****   /* USER CODE BEGIN TIM4_Init 2 */
 908:Core/Src/main.c **** 
 909:Core/Src/main.c ****   /* USER CODE END TIM4_Init 2 */
 910:Core/Src/main.c **** 
 911:Core/Src/main.c **** }
 2336              		.loc 1 911 1
 2337 008c 00BF     		nop
 2338 008e 2037     		adds	r7, r7, #32
 2339              		.cfi_def_cfa_offset 8
 2340 0090 BD46     		mov	sp, r7
 2341              		.cfi_def_cfa_register 13
 2342              		@ sp needed
 2343 0092 80BD     		pop	{r7, pc}
 2344              	.L107:
 2345              		.align	2
 2346              	.L106:
ARM GAS  C:\Users\Morroway\AppData\Local\Temp\ccSn7seF.s 			page 60


 2347 0094 00000000 		.word	htim4
 2348 0098 00080040 		.word	1073743872
 2349              		.cfi_endproc
 2350              	.LFE341:
 2352              		.section	.text.MX_TIM5_Init,"ax",%progbits
 2353              		.align	1
 2354              		.syntax unified
 2355              		.thumb
 2356              		.thumb_func
 2358              	MX_TIM5_Init:
 2359              	.LFB342:
 912:Core/Src/main.c **** 
 913:Core/Src/main.c **** /**
 914:Core/Src/main.c ****   * @brief TIM5 Initialization Function
 915:Core/Src/main.c ****   * @param None
 916:Core/Src/main.c ****   * @retval None
 917:Core/Src/main.c ****   */
 918:Core/Src/main.c **** static void MX_TIM5_Init(void)
 919:Core/Src/main.c **** {
 2360              		.loc 1 919 1
 2361              		.cfi_startproc
 2362              		@ args = 0, pretend = 0, frame = 32
 2363              		@ frame_needed = 1, uses_anonymous_args = 0
 2364 0000 80B5     		push	{r7, lr}
 2365              		.cfi_def_cfa_offset 8
 2366              		.cfi_offset 7, -8
 2367              		.cfi_offset 14, -4
 2368 0002 88B0     		sub	sp, sp, #32
 2369              		.cfi_def_cfa_offset 40
 2370 0004 00AF     		add	r7, sp, #0
 2371              		.cfi_def_cfa_register 7
 920:Core/Src/main.c **** 
 921:Core/Src/main.c ****   /* USER CODE BEGIN TIM5_Init 0 */
 922:Core/Src/main.c **** 
 923:Core/Src/main.c ****   /* USER CODE END TIM5_Init 0 */
 924:Core/Src/main.c **** 
 925:Core/Src/main.c ****   TIM_ClockConfigTypeDef sClockSourceConfig = {0};
 2372              		.loc 1 925 26
 2373 0006 07F11003 		add	r3, r7, #16
 2374 000a 0022     		movs	r2, #0
 2375 000c 1A60     		str	r2, [r3]
 2376 000e 5A60     		str	r2, [r3, #4]
 2377 0010 9A60     		str	r2, [r3, #8]
 2378 0012 DA60     		str	r2, [r3, #12]
 926:Core/Src/main.c ****   TIM_MasterConfigTypeDef sMasterConfig = {0};
 2379              		.loc 1 926 27
 2380 0014 3B1D     		adds	r3, r7, #4
 2381 0016 0022     		movs	r2, #0
 2382 0018 1A60     		str	r2, [r3]
 2383 001a 5A60     		str	r2, [r3, #4]
 2384 001c 9A60     		str	r2, [r3, #8]
 927:Core/Src/main.c **** 
 928:Core/Src/main.c ****   /* USER CODE BEGIN TIM5_Init 1 */
 929:Core/Src/main.c **** 
 930:Core/Src/main.c ****   /* USER CODE END TIM5_Init 1 */
 931:Core/Src/main.c ****   htim5.Instance = TIM5;
 2385              		.loc 1 931 18
ARM GAS  C:\Users\Morroway\AppData\Local\Temp\ccSn7seF.s 			page 61


 2386 001e 1D4B     		ldr	r3, .L113
 2387 0020 1D4A     		ldr	r2, .L113+4
 2388 0022 1A60     		str	r2, [r3]
 932:Core/Src/main.c ****   htim5.Init.Prescaler = 119;
 2389              		.loc 1 932 24
 2390 0024 1B4B     		ldr	r3, .L113
 2391 0026 7722     		movs	r2, #119
 2392 0028 5A60     		str	r2, [r3, #4]
 933:Core/Src/main.c ****   htim5.Init.CounterMode = TIM_COUNTERMODE_UP;
 2393              		.loc 1 933 26
 2394 002a 1A4B     		ldr	r3, .L113
 2395 002c 0022     		movs	r2, #0
 2396 002e 9A60     		str	r2, [r3, #8]
 934:Core/Src/main.c ****   htim5.Init.Period = 4294967295;
 2397              		.loc 1 934 21
 2398 0030 184B     		ldr	r3, .L113
 2399 0032 4FF0FF32 		mov	r2, #-1
 2400 0036 DA60     		str	r2, [r3, #12]
 935:Core/Src/main.c ****   htim5.Init.ClockDivision = TIM_CLOCKDIVISION_DIV1;
 2401              		.loc 1 935 28
 2402 0038 164B     		ldr	r3, .L113
 2403 003a 0022     		movs	r2, #0
 2404 003c 1A61     		str	r2, [r3, #16]
 936:Core/Src/main.c ****   htim5.Init.AutoReloadPreload = TIM_AUTORELOAD_PRELOAD_DISABLE;
 2405              		.loc 1 936 32
 2406 003e 154B     		ldr	r3, .L113
 2407 0040 0022     		movs	r2, #0
 2408 0042 9A61     		str	r2, [r3, #24]
 937:Core/Src/main.c ****   if (HAL_TIM_Base_Init(&htim5) != HAL_OK)
 2409              		.loc 1 937 7
 2410 0044 1348     		ldr	r0, .L113
 2411 0046 FFF7FEFF 		bl	HAL_TIM_Base_Init
 2412 004a 0346     		mov	r3, r0
 2413              		.loc 1 937 6
 2414 004c 002B     		cmp	r3, #0
 2415 004e 01D0     		beq	.L109
 938:Core/Src/main.c ****   {
 939:Core/Src/main.c ****     Error_Handler();
 2416              		.loc 1 939 5
 2417 0050 FFF7FEFF 		bl	Error_Handler
 2418              	.L109:
 940:Core/Src/main.c ****   }
 941:Core/Src/main.c ****   sClockSourceConfig.ClockSource = TIM_CLOCKSOURCE_INTERNAL;
 2419              		.loc 1 941 34
 2420 0054 4FF48053 		mov	r3, #4096
 2421 0058 3B61     		str	r3, [r7, #16]
 942:Core/Src/main.c ****   if (HAL_TIM_ConfigClockSource(&htim5, &sClockSourceConfig) != HAL_OK)
 2422              		.loc 1 942 7
 2423 005a 07F11003 		add	r3, r7, #16
 2424 005e 1946     		mov	r1, r3
 2425 0060 0C48     		ldr	r0, .L113
 2426 0062 FFF7FEFF 		bl	HAL_TIM_ConfigClockSource
 2427 0066 0346     		mov	r3, r0
 2428              		.loc 1 942 6
 2429 0068 002B     		cmp	r3, #0
 2430 006a 01D0     		beq	.L110
 943:Core/Src/main.c ****   {
ARM GAS  C:\Users\Morroway\AppData\Local\Temp\ccSn7seF.s 			page 62


 944:Core/Src/main.c ****     Error_Handler();
 2431              		.loc 1 944 5
 2432 006c FFF7FEFF 		bl	Error_Handler
 2433              	.L110:
 945:Core/Src/main.c ****   }
 946:Core/Src/main.c ****   sMasterConfig.MasterOutputTrigger = TIM_TRGO_RESET;
 2434              		.loc 1 946 37
 2435 0070 0023     		movs	r3, #0
 2436 0072 7B60     		str	r3, [r7, #4]
 947:Core/Src/main.c ****   sMasterConfig.MasterSlaveMode = TIM_MASTERSLAVEMODE_DISABLE;
 2437              		.loc 1 947 33
 2438 0074 0023     		movs	r3, #0
 2439 0076 FB60     		str	r3, [r7, #12]
 948:Core/Src/main.c ****   if (HAL_TIMEx_MasterConfigSynchronization(&htim5, &sMasterConfig) != HAL_OK)
 2440              		.loc 1 948 7
 2441 0078 3B1D     		adds	r3, r7, #4
 2442 007a 1946     		mov	r1, r3
 2443 007c 0548     		ldr	r0, .L113
 2444 007e FFF7FEFF 		bl	HAL_TIMEx_MasterConfigSynchronization
 2445 0082 0346     		mov	r3, r0
 2446              		.loc 1 948 6
 2447 0084 002B     		cmp	r3, #0
 2448 0086 01D0     		beq	.L112
 949:Core/Src/main.c ****   {
 950:Core/Src/main.c ****     Error_Handler();
 2449              		.loc 1 950 5
 2450 0088 FFF7FEFF 		bl	Error_Handler
 2451              	.L112:
 951:Core/Src/main.c ****   }
 952:Core/Src/main.c ****   /* USER CODE BEGIN TIM5_Init 2 */
 953:Core/Src/main.c **** 
 954:Core/Src/main.c ****   /* USER CODE END TIM5_Init 2 */
 955:Core/Src/main.c **** 
 956:Core/Src/main.c **** }
 2452              		.loc 1 956 1
 2453 008c 00BF     		nop
 2454 008e 2037     		adds	r7, r7, #32
 2455              		.cfi_def_cfa_offset 8
 2456 0090 BD46     		mov	sp, r7
 2457              		.cfi_def_cfa_register 13
 2458              		@ sp needed
 2459 0092 80BD     		pop	{r7, pc}
 2460              	.L114:
 2461              		.align	2
 2462              	.L113:
 2463 0094 00000000 		.word	htim5
 2464 0098 000C0040 		.word	1073744896
 2465              		.cfi_endproc
 2466              	.LFE342:
 2468              		.section	.text.MX_USB_OTG_FS_PCD_Init,"ax",%progbits
 2469              		.align	1
 2470              		.syntax unified
 2471              		.thumb
 2472              		.thumb_func
 2474              	MX_USB_OTG_FS_PCD_Init:
 2475              	.LFB343:
 957:Core/Src/main.c **** 
ARM GAS  C:\Users\Morroway\AppData\Local\Temp\ccSn7seF.s 			page 63


 958:Core/Src/main.c **** /**
 959:Core/Src/main.c ****   * @brief USB_OTG_FS Initialization Function
 960:Core/Src/main.c ****   * @param None
 961:Core/Src/main.c ****   * @retval None
 962:Core/Src/main.c ****   */
 963:Core/Src/main.c **** static void MX_USB_OTG_FS_PCD_Init(void)
 964:Core/Src/main.c **** {
 2476              		.loc 1 964 1
 2477              		.cfi_startproc
 2478              		@ args = 0, pretend = 0, frame = 0
 2479              		@ frame_needed = 1, uses_anonymous_args = 0
 2480 0000 80B5     		push	{r7, lr}
 2481              		.cfi_def_cfa_offset 8
 2482              		.cfi_offset 7, -8
 2483              		.cfi_offset 14, -4
 2484 0002 00AF     		add	r7, sp, #0
 2485              		.cfi_def_cfa_register 7
 965:Core/Src/main.c **** 
 966:Core/Src/main.c ****   /* USER CODE BEGIN USB_OTG_FS_Init 0 */
 967:Core/Src/main.c **** 
 968:Core/Src/main.c ****   /* USER CODE END USB_OTG_FS_Init 0 */
 969:Core/Src/main.c **** 
 970:Core/Src/main.c ****   /* USER CODE BEGIN USB_OTG_FS_Init 1 */
 971:Core/Src/main.c **** 
 972:Core/Src/main.c ****   /* USER CODE END USB_OTG_FS_Init 1 */
 973:Core/Src/main.c ****   hpcd_USB_OTG_FS.Instance = USB_OTG_FS;
 2486              		.loc 1 973 28
 2487 0004 124B     		ldr	r3, .L118
 2488 0006 4FF0A042 		mov	r2, #1342177280
 2489 000a 1A60     		str	r2, [r3]
 974:Core/Src/main.c ****   hpcd_USB_OTG_FS.Init.dev_endpoints = 6;
 2490              		.loc 1 974 38
 2491 000c 104B     		ldr	r3, .L118
 2492 000e 0622     		movs	r2, #6
 2493 0010 5A60     		str	r2, [r3, #4]
 975:Core/Src/main.c ****   hpcd_USB_OTG_FS.Init.phy_itface = PCD_PHY_EMBEDDED;
 2494              		.loc 1 975 35
 2495 0012 0F4B     		ldr	r3, .L118
 2496 0014 0222     		movs	r2, #2
 2497 0016 9A61     		str	r2, [r3, #24]
 976:Core/Src/main.c ****   hpcd_USB_OTG_FS.Init.Sof_enable = ENABLE;
 2498              		.loc 1 976 35
 2499 0018 0D4B     		ldr	r3, .L118
 2500 001a 0122     		movs	r2, #1
 2501 001c DA61     		str	r2, [r3, #28]
 977:Core/Src/main.c ****   hpcd_USB_OTG_FS.Init.low_power_enable = DISABLE;
 2502              		.loc 1 977 41
 2503 001e 0C4B     		ldr	r3, .L118
 2504 0020 0022     		movs	r2, #0
 2505 0022 1A62     		str	r2, [r3, #32]
 978:Core/Src/main.c ****   hpcd_USB_OTG_FS.Init.lpm_enable = DISABLE;
 2506              		.loc 1 978 35
 2507 0024 0A4B     		ldr	r3, .L118
 2508 0026 0022     		movs	r2, #0
 2509 0028 5A62     		str	r2, [r3, #36]
 979:Core/Src/main.c ****   hpcd_USB_OTG_FS.Init.battery_charging_enable = ENABLE;
 2510              		.loc 1 979 48
ARM GAS  C:\Users\Morroway\AppData\Local\Temp\ccSn7seF.s 			page 64


 2511 002a 094B     		ldr	r3, .L118
 2512 002c 0122     		movs	r2, #1
 2513 002e 9A62     		str	r2, [r3, #40]
 980:Core/Src/main.c ****   hpcd_USB_OTG_FS.Init.use_dedicated_ep1 = DISABLE;
 2514              		.loc 1 980 42
 2515 0030 074B     		ldr	r3, .L118
 2516 0032 0022     		movs	r2, #0
 2517 0034 1A63     		str	r2, [r3, #48]
 981:Core/Src/main.c ****   hpcd_USB_OTG_FS.Init.vbus_sensing_enable = ENABLE;
 2518              		.loc 1 981 44
 2519 0036 064B     		ldr	r3, .L118
 2520 0038 0122     		movs	r2, #1
 2521 003a DA62     		str	r2, [r3, #44]
 982:Core/Src/main.c ****   if (HAL_PCD_Init(&hpcd_USB_OTG_FS) != HAL_OK)
 2522              		.loc 1 982 7
 2523 003c 0448     		ldr	r0, .L118
 2524 003e FFF7FEFF 		bl	HAL_PCD_Init
 2525 0042 0346     		mov	r3, r0
 2526              		.loc 1 982 6
 2527 0044 002B     		cmp	r3, #0
 2528 0046 01D0     		beq	.L117
 983:Core/Src/main.c ****   {
 984:Core/Src/main.c ****     Error_Handler();
 2529              		.loc 1 984 5
 2530 0048 FFF7FEFF 		bl	Error_Handler
 2531              	.L117:
 985:Core/Src/main.c ****   }
 986:Core/Src/main.c ****   /* USER CODE BEGIN USB_OTG_FS_Init 2 */
 987:Core/Src/main.c **** 
 988:Core/Src/main.c ****   /* USER CODE END USB_OTG_FS_Init 2 */
 989:Core/Src/main.c **** 
 990:Core/Src/main.c **** }
 2532              		.loc 1 990 1
 2533 004c 00BF     		nop
 2534 004e 80BD     		pop	{r7, pc}
 2535              	.L119:
 2536              		.align	2
 2537              	.L118:
 2538 0050 00000000 		.word	hpcd_USB_OTG_FS
 2539              		.cfi_endproc
 2540              	.LFE343:
 2542              		.section	.text.MX_DMA_Init,"ax",%progbits
 2543              		.align	1
 2544              		.syntax unified
 2545              		.thumb
 2546              		.thumb_func
 2548              	MX_DMA_Init:
 2549              	.LFB344:
 991:Core/Src/main.c **** 
 992:Core/Src/main.c **** /**
 993:Core/Src/main.c ****   * Enable DMA controller clock
 994:Core/Src/main.c ****   */
 995:Core/Src/main.c **** static void MX_DMA_Init(void)
 996:Core/Src/main.c **** {
 2550              		.loc 1 996 1
 2551              		.cfi_startproc
 2552              		@ args = 0, pretend = 0, frame = 8
ARM GAS  C:\Users\Morroway\AppData\Local\Temp\ccSn7seF.s 			page 65


 2553              		@ frame_needed = 1, uses_anonymous_args = 0
 2554 0000 80B5     		push	{r7, lr}
 2555              		.cfi_def_cfa_offset 8
 2556              		.cfi_offset 7, -8
 2557              		.cfi_offset 14, -4
 2558 0002 82B0     		sub	sp, sp, #8
 2559              		.cfi_def_cfa_offset 16
 2560 0004 00AF     		add	r7, sp, #0
 2561              		.cfi_def_cfa_register 7
 2562              	.LBB4:
 997:Core/Src/main.c **** 
 998:Core/Src/main.c ****   /* DMA controller clock enable */
 999:Core/Src/main.c ****   __HAL_RCC_DMAMUX1_CLK_ENABLE();
 2563              		.loc 1 999 3
 2564 0006 164B     		ldr	r3, .L121
 2565 0008 9B6C     		ldr	r3, [r3, #72]
 2566 000a 154A     		ldr	r2, .L121
 2567 000c 43F00403 		orr	r3, r3, #4
 2568 0010 9364     		str	r3, [r2, #72]
 2569 0012 134B     		ldr	r3, .L121
 2570 0014 9B6C     		ldr	r3, [r3, #72]
 2571 0016 03F00403 		and	r3, r3, #4
 2572 001a 7B60     		str	r3, [r7, #4]
 2573 001c 7B68     		ldr	r3, [r7, #4]
 2574              	.LBE4:
 2575              	.LBB5:
1000:Core/Src/main.c ****   __HAL_RCC_DMA1_CLK_ENABLE();
 2576              		.loc 1 1000 3
 2577 001e 104B     		ldr	r3, .L121
 2578 0020 9B6C     		ldr	r3, [r3, #72]
 2579 0022 0F4A     		ldr	r2, .L121
 2580 0024 43F00103 		orr	r3, r3, #1
 2581 0028 9364     		str	r3, [r2, #72]
 2582 002a 0D4B     		ldr	r3, .L121
 2583 002c 9B6C     		ldr	r3, [r3, #72]
 2584 002e 03F00103 		and	r3, r3, #1
 2585 0032 3B60     		str	r3, [r7]
 2586 0034 3B68     		ldr	r3, [r7]
 2587              	.LBE5:
1001:Core/Src/main.c **** 
1002:Core/Src/main.c ****   /* DMA interrupt init */
1003:Core/Src/main.c ****   /* DMA1_Channel1_IRQn interrupt configuration */
1004:Core/Src/main.c ****   HAL_NVIC_SetPriority(DMA1_Channel1_IRQn, 0, 0);
 2588              		.loc 1 1004 3
 2589 0036 0022     		movs	r2, #0
 2590 0038 0021     		movs	r1, #0
 2591 003a 0B20     		movs	r0, #11
 2592 003c FFF7FEFF 		bl	HAL_NVIC_SetPriority
1005:Core/Src/main.c ****   HAL_NVIC_EnableIRQ(DMA1_Channel1_IRQn);
 2593              		.loc 1 1005 3
 2594 0040 0B20     		movs	r0, #11
 2595 0042 FFF7FEFF 		bl	HAL_NVIC_EnableIRQ
1006:Core/Src/main.c ****   /* DMA1_Channel2_IRQn interrupt configuration */
1007:Core/Src/main.c ****   HAL_NVIC_SetPriority(DMA1_Channel2_IRQn, 0, 0);
 2596              		.loc 1 1007 3
 2597 0046 0022     		movs	r2, #0
 2598 0048 0021     		movs	r1, #0
ARM GAS  C:\Users\Morroway\AppData\Local\Temp\ccSn7seF.s 			page 66


 2599 004a 0C20     		movs	r0, #12
 2600 004c FFF7FEFF 		bl	HAL_NVIC_SetPriority
1008:Core/Src/main.c ****   HAL_NVIC_EnableIRQ(DMA1_Channel2_IRQn);
 2601              		.loc 1 1008 3
 2602 0050 0C20     		movs	r0, #12
 2603 0052 FFF7FEFF 		bl	HAL_NVIC_EnableIRQ
1009:Core/Src/main.c **** 
1010:Core/Src/main.c **** }
 2604              		.loc 1 1010 1
 2605 0056 00BF     		nop
 2606 0058 0837     		adds	r7, r7, #8
 2607              		.cfi_def_cfa_offset 8
 2608 005a BD46     		mov	sp, r7
 2609              		.cfi_def_cfa_register 13
 2610              		@ sp needed
 2611 005c 80BD     		pop	{r7, pc}
 2612              	.L122:
 2613 005e 00BF     		.align	2
 2614              	.L121:
 2615 0060 00100240 		.word	1073876992
 2616              		.cfi_endproc
 2617              	.LFE344:
 2619              		.section	.text.MX_GPIO_Init,"ax",%progbits
 2620              		.align	1
 2621              		.syntax unified
 2622              		.thumb
 2623              		.thumb_func
 2625              	MX_GPIO_Init:
 2626              	.LFB345:
1011:Core/Src/main.c **** 
1012:Core/Src/main.c **** /**
1013:Core/Src/main.c ****   * @brief GPIO Initialization Function
1014:Core/Src/main.c ****   * @param None
1015:Core/Src/main.c ****   * @retval None
1016:Core/Src/main.c ****   */
1017:Core/Src/main.c **** static void MX_GPIO_Init(void)
1018:Core/Src/main.c **** {
 2627              		.loc 1 1018 1
 2628              		.cfi_startproc
 2629              		@ args = 0, pretend = 0, frame = 48
 2630              		@ frame_needed = 1, uses_anonymous_args = 0
 2631 0000 80B5     		push	{r7, lr}
 2632              		.cfi_def_cfa_offset 8
 2633              		.cfi_offset 7, -8
 2634              		.cfi_offset 14, -4
 2635 0002 8CB0     		sub	sp, sp, #48
 2636              		.cfi_def_cfa_offset 56
 2637 0004 00AF     		add	r7, sp, #0
 2638              		.cfi_def_cfa_register 7
1019:Core/Src/main.c ****   GPIO_InitTypeDef GPIO_InitStruct = {0};
 2639              		.loc 1 1019 20
 2640 0006 07F11C03 		add	r3, r7, #28
 2641 000a 0022     		movs	r2, #0
 2642 000c 1A60     		str	r2, [r3]
 2643 000e 5A60     		str	r2, [r3, #4]
 2644 0010 9A60     		str	r2, [r3, #8]
 2645 0012 DA60     		str	r2, [r3, #12]
ARM GAS  C:\Users\Morroway\AppData\Local\Temp\ccSn7seF.s 			page 67


 2646 0014 1A61     		str	r2, [r3, #16]
 2647              	.LBB6:
1020:Core/Src/main.c **** 
1021:Core/Src/main.c ****   /* GPIO Ports Clock Enable */
1022:Core/Src/main.c ****   __HAL_RCC_GPIOE_CLK_ENABLE();
 2648              		.loc 1 1022 3
 2649 0016 7B4B     		ldr	r3, .L124
 2650 0018 DB6C     		ldr	r3, [r3, #76]
 2651 001a 7A4A     		ldr	r2, .L124
 2652 001c 43F01003 		orr	r3, r3, #16
 2653 0020 D364     		str	r3, [r2, #76]
 2654 0022 784B     		ldr	r3, .L124
 2655 0024 DB6C     		ldr	r3, [r3, #76]
 2656 0026 03F01003 		and	r3, r3, #16
 2657 002a BB61     		str	r3, [r7, #24]
 2658 002c BB69     		ldr	r3, [r7, #24]
 2659              	.LBE6:
 2660              	.LBB7:
1023:Core/Src/main.c ****   __HAL_RCC_GPIOC_CLK_ENABLE();
 2661              		.loc 1 1023 3
 2662 002e 754B     		ldr	r3, .L124
 2663 0030 DB6C     		ldr	r3, [r3, #76]
 2664 0032 744A     		ldr	r2, .L124
 2665 0034 43F00403 		orr	r3, r3, #4
 2666 0038 D364     		str	r3, [r2, #76]
 2667 003a 724B     		ldr	r3, .L124
 2668 003c DB6C     		ldr	r3, [r3, #76]
 2669 003e 03F00403 		and	r3, r3, #4
 2670 0042 7B61     		str	r3, [r7, #20]
 2671 0044 7B69     		ldr	r3, [r7, #20]
 2672              	.LBE7:
 2673              	.LBB8:
1024:Core/Src/main.c ****   __HAL_RCC_GPIOF_CLK_ENABLE();
 2674              		.loc 1 1024 3
 2675 0046 6F4B     		ldr	r3, .L124
 2676 0048 DB6C     		ldr	r3, [r3, #76]
 2677 004a 6E4A     		ldr	r2, .L124
 2678 004c 43F02003 		orr	r3, r3, #32
 2679 0050 D364     		str	r3, [r2, #76]
 2680 0052 6C4B     		ldr	r3, .L124
 2681 0054 DB6C     		ldr	r3, [r3, #76]
 2682 0056 03F02003 		and	r3, r3, #32
 2683 005a 3B61     		str	r3, [r7, #16]
 2684 005c 3B69     		ldr	r3, [r7, #16]
 2685              	.LBE8:
 2686              	.LBB9:
1025:Core/Src/main.c ****   __HAL_RCC_GPIOH_CLK_ENABLE();
 2687              		.loc 1 1025 3
 2688 005e 694B     		ldr	r3, .L124
 2689 0060 DB6C     		ldr	r3, [r3, #76]
 2690 0062 684A     		ldr	r2, .L124
 2691 0064 43F08003 		orr	r3, r3, #128
 2692 0068 D364     		str	r3, [r2, #76]
 2693 006a 664B     		ldr	r3, .L124
 2694 006c DB6C     		ldr	r3, [r3, #76]
 2695 006e 03F08003 		and	r3, r3, #128
 2696 0072 FB60     		str	r3, [r7, #12]
ARM GAS  C:\Users\Morroway\AppData\Local\Temp\ccSn7seF.s 			page 68


 2697 0074 FB68     		ldr	r3, [r7, #12]
 2698              	.LBE9:
 2699              	.LBB10:
1026:Core/Src/main.c ****   __HAL_RCC_GPIOA_CLK_ENABLE();
 2700              		.loc 1 1026 3
 2701 0076 634B     		ldr	r3, .L124
 2702 0078 DB6C     		ldr	r3, [r3, #76]
 2703 007a 624A     		ldr	r2, .L124
 2704 007c 43F00103 		orr	r3, r3, #1
 2705 0080 D364     		str	r3, [r2, #76]
 2706 0082 604B     		ldr	r3, .L124
 2707 0084 DB6C     		ldr	r3, [r3, #76]
 2708 0086 03F00103 		and	r3, r3, #1
 2709 008a BB60     		str	r3, [r7, #8]
 2710 008c BB68     		ldr	r3, [r7, #8]
 2711              	.LBE10:
 2712              	.LBB11:
1027:Core/Src/main.c ****   __HAL_RCC_GPIOB_CLK_ENABLE();
 2713              		.loc 1 1027 3
 2714 008e 5D4B     		ldr	r3, .L124
 2715 0090 DB6C     		ldr	r3, [r3, #76]
 2716 0092 5C4A     		ldr	r2, .L124
 2717 0094 43F00203 		orr	r3, r3, #2
 2718 0098 D364     		str	r3, [r2, #76]
 2719 009a 5A4B     		ldr	r3, .L124
 2720 009c DB6C     		ldr	r3, [r3, #76]
 2721 009e 03F00203 		and	r3, r3, #2
 2722 00a2 7B60     		str	r3, [r7, #4]
 2723 00a4 7B68     		ldr	r3, [r7, #4]
 2724              	.LBE11:
 2725              	.LBB12:
1028:Core/Src/main.c ****   __HAL_RCC_GPIOG_CLK_ENABLE();
 2726              		.loc 1 1028 3
 2727 00a6 574B     		ldr	r3, .L124
 2728 00a8 DB6C     		ldr	r3, [r3, #76]
 2729 00aa 564A     		ldr	r2, .L124
 2730 00ac 43F04003 		orr	r3, r3, #64
 2731 00b0 D364     		str	r3, [r2, #76]
 2732 00b2 544B     		ldr	r3, .L124
 2733 00b4 DB6C     		ldr	r3, [r3, #76]
 2734 00b6 03F04003 		and	r3, r3, #64
 2735 00ba 3B60     		str	r3, [r7]
 2736 00bc 3B68     		ldr	r3, [r7]
 2737              	.LBE12:
1029:Core/Src/main.c ****   HAL_PWREx_EnableVddIO2();
 2738              		.loc 1 1029 3
 2739 00be FFF7FEFF 		bl	HAL_PWREx_EnableVddIO2
1030:Core/Src/main.c **** 
1031:Core/Src/main.c ****   /*Configure GPIO pin Output Level */
1032:Core/Src/main.c ****   HAL_GPIO_WritePin(GPIOF, X_DIR_Pin|Y_DIR_Pin|E_DIR_Pin|STEPPER_MPLX_A_Pin
 2740              		.loc 1 1032 3
 2741 00c2 0022     		movs	r2, #0
 2742 00c4 40F2CE51 		movw	r1, #1486
 2743 00c8 4F48     		ldr	r0, .L124+4
 2744 00ca FFF7FEFF 		bl	HAL_GPIO_WritePin
1033:Core/Src/main.c ****                           |STEPPER_MPLX_B_Pin|Z_DIR_Pin|XSHUT_Pin, GPIO_PIN_RESET);
1034:Core/Src/main.c **** 
ARM GAS  C:\Users\Morroway\AppData\Local\Temp\ccSn7seF.s 			page 69


1035:Core/Src/main.c ****   /*Configure GPIO pin Output Level */
1036:Core/Src/main.c ****   HAL_GPIO_WritePin(Y_STEP_GPIO_Port, Y_STEP_Pin, GPIO_PIN_RESET);
 2745              		.loc 1 1036 3
 2746 00ce 0022     		movs	r2, #0
 2747 00d0 8021     		movs	r1, #128
 2748 00d2 4FF09040 		mov	r0, #1207959552
 2749 00d6 FFF7FEFF 		bl	HAL_GPIO_WritePin
1037:Core/Src/main.c **** 
1038:Core/Src/main.c ****   /*Configure GPIO pin Output Level */
1039:Core/Src/main.c ****   HAL_GPIO_WritePin(GPIOB, E_STEP_Pin|Z_STEP_Pin|LD3_Pin|LD2_Pin, GPIO_PIN_RESET);
 2750              		.loc 1 1039 3
 2751 00da 0022     		movs	r2, #0
 2752 00dc 44F28301 		movw	r1, #16515
 2753 00e0 4A48     		ldr	r0, .L124+8
 2754 00e2 FFF7FEFF 		bl	HAL_GPIO_WritePin
1040:Core/Src/main.c **** 
1041:Core/Src/main.c ****   /*Configure GPIO pin Output Level */
1042:Core/Src/main.c ****   HAL_GPIO_WritePin(GPIOG, USB_PowerSwitchOn_Pin|SD_CS_Pin|LCD_CS_Pin|LCD_DC_Pin
 2755              		.loc 1 1042 3
 2756 00e6 0022     		movs	r2, #0
 2757 00e8 47F24041 		movw	r1, #29760
 2758 00ec 4848     		ldr	r0, .L124+12
 2759 00ee FFF7FEFF 		bl	HAL_GPIO_WritePin
1043:Core/Src/main.c ****                           |LCD_RST_Pin, GPIO_PIN_RESET);
1044:Core/Src/main.c **** 
1045:Core/Src/main.c ****   /*Configure GPIO pin Output Level */
1046:Core/Src/main.c ****   HAL_GPIO_WritePin(X_STEP_GPIO_Port, X_STEP_Pin, GPIO_PIN_RESET);
 2760              		.loc 1 1046 3
 2761 00f2 0022     		movs	r2, #0
 2762 00f4 4021     		movs	r1, #64
 2763 00f6 4748     		ldr	r0, .L124+16
 2764 00f8 FFF7FEFF 		bl	HAL_GPIO_WritePin
1047:Core/Src/main.c **** 
1048:Core/Src/main.c ****   /*Configure GPIO pin : B1_Pin */
1049:Core/Src/main.c ****   GPIO_InitStruct.Pin = B1_Pin;
 2765              		.loc 1 1049 23
 2766 00fc 4FF40053 		mov	r3, #8192
 2767 0100 FB61     		str	r3, [r7, #28]
1050:Core/Src/main.c ****   GPIO_InitStruct.Mode = GPIO_MODE_IT_RISING;
 2768              		.loc 1 1050 24
 2769 0102 4FF48813 		mov	r3, #1114112
 2770 0106 3B62     		str	r3, [r7, #32]
1051:Core/Src/main.c ****   GPIO_InitStruct.Pull = GPIO_NOPULL;
 2771              		.loc 1 1051 24
 2772 0108 0023     		movs	r3, #0
 2773 010a 7B62     		str	r3, [r7, #36]
1052:Core/Src/main.c ****   HAL_GPIO_Init(B1_GPIO_Port, &GPIO_InitStruct);
 2774              		.loc 1 1052 3
 2775 010c 07F11C03 		add	r3, r7, #28
 2776 0110 1946     		mov	r1, r3
 2777 0112 4048     		ldr	r0, .L124+16
 2778 0114 FFF7FEFF 		bl	HAL_GPIO_Init
1053:Core/Src/main.c **** 
1054:Core/Src/main.c ****   /*Configure GPIO pins : STEPPER_ENN_Pin X_STOP_Pin Y_STOP_Pin Z_MIN_Pin */
1055:Core/Src/main.c ****   GPIO_InitStruct.Pin = STEPPER_ENN_Pin|X_STOP_Pin|Y_STOP_Pin|Z_MIN_Pin;
 2779              		.loc 1 1055 23
 2780 0118 40F23123 		movw	r3, #561
ARM GAS  C:\Users\Morroway\AppData\Local\Temp\ccSn7seF.s 			page 70


 2781 011c FB61     		str	r3, [r7, #28]
1056:Core/Src/main.c ****   GPIO_InitStruct.Mode = GPIO_MODE_INPUT;
 2782              		.loc 1 1056 24
 2783 011e 0023     		movs	r3, #0
 2784 0120 3B62     		str	r3, [r7, #32]
1057:Core/Src/main.c ****   GPIO_InitStruct.Pull = GPIO_NOPULL;
 2785              		.loc 1 1057 24
 2786 0122 0023     		movs	r3, #0
 2787 0124 7B62     		str	r3, [r7, #36]
1058:Core/Src/main.c ****   HAL_GPIO_Init(GPIOF, &GPIO_InitStruct);
 2788              		.loc 1 1058 3
 2789 0126 07F11C03 		add	r3, r7, #28
 2790 012a 1946     		mov	r1, r3
 2791 012c 3648     		ldr	r0, .L124+4
 2792 012e FFF7FEFF 		bl	HAL_GPIO_Init
1059:Core/Src/main.c **** 
1060:Core/Src/main.c ****   /*Configure GPIO pins : X_DIR_Pin Y_DIR_Pin E_DIR_Pin STEPPER_MPLX_A_Pin
1061:Core/Src/main.c ****                            STEPPER_MPLX_B_Pin Z_DIR_Pin XSHUT_Pin */
1062:Core/Src/main.c ****   GPIO_InitStruct.Pin = X_DIR_Pin|Y_DIR_Pin|E_DIR_Pin|STEPPER_MPLX_A_Pin
 2793              		.loc 1 1062 23
 2794 0132 40F2CE53 		movw	r3, #1486
 2795 0136 FB61     		str	r3, [r7, #28]
1063:Core/Src/main.c ****                           |STEPPER_MPLX_B_Pin|Z_DIR_Pin|XSHUT_Pin;
1064:Core/Src/main.c ****   GPIO_InitStruct.Mode = GPIO_MODE_OUTPUT_PP;
 2796              		.loc 1 1064 24
 2797 0138 0123     		movs	r3, #1
 2798 013a 3B62     		str	r3, [r7, #32]
1065:Core/Src/main.c ****   GPIO_InitStruct.Pull = GPIO_NOPULL;
 2799              		.loc 1 1065 24
 2800 013c 0023     		movs	r3, #0
 2801 013e 7B62     		str	r3, [r7, #36]
1066:Core/Src/main.c ****   GPIO_InitStruct.Speed = GPIO_SPEED_FREQ_LOW;
 2802              		.loc 1 1066 25
 2803 0140 0023     		movs	r3, #0
 2804 0142 BB62     		str	r3, [r7, #40]
1067:Core/Src/main.c ****   HAL_GPIO_Init(GPIOF, &GPIO_InitStruct);
 2805              		.loc 1 1067 3
 2806 0144 07F11C03 		add	r3, r7, #28
 2807 0148 1946     		mov	r1, r3
 2808 014a 2F48     		ldr	r0, .L124+4
 2809 014c FFF7FEFF 		bl	HAL_GPIO_Init
1068:Core/Src/main.c **** 
1069:Core/Src/main.c ****   /*Configure GPIO pin : Y_STEP_Pin */
1070:Core/Src/main.c ****   GPIO_InitStruct.Pin = Y_STEP_Pin;
 2810              		.loc 1 1070 23
 2811 0150 8023     		movs	r3, #128
 2812 0152 FB61     		str	r3, [r7, #28]
1071:Core/Src/main.c ****   GPIO_InitStruct.Mode = GPIO_MODE_OUTPUT_PP;
 2813              		.loc 1 1071 24
 2814 0154 0123     		movs	r3, #1
 2815 0156 3B62     		str	r3, [r7, #32]
1072:Core/Src/main.c ****   GPIO_InitStruct.Pull = GPIO_NOPULL;
 2816              		.loc 1 1072 24
 2817 0158 0023     		movs	r3, #0
 2818 015a 7B62     		str	r3, [r7, #36]
1073:Core/Src/main.c ****   GPIO_InitStruct.Speed = GPIO_SPEED_FREQ_LOW;
 2819              		.loc 1 1073 25
ARM GAS  C:\Users\Morroway\AppData\Local\Temp\ccSn7seF.s 			page 71


 2820 015c 0023     		movs	r3, #0
 2821 015e BB62     		str	r3, [r7, #40]
1074:Core/Src/main.c ****   HAL_GPIO_Init(Y_STEP_GPIO_Port, &GPIO_InitStruct);
 2822              		.loc 1 1074 3
 2823 0160 07F11C03 		add	r3, r7, #28
 2824 0164 1946     		mov	r1, r3
 2825 0166 4FF09040 		mov	r0, #1207959552
 2826 016a FFF7FEFF 		bl	HAL_GPIO_Init
1075:Core/Src/main.c **** 
1076:Core/Src/main.c ****   /*Configure GPIO pins : E_STEP_Pin Z_STEP_Pin LD3_Pin LD2_Pin */
1077:Core/Src/main.c ****   GPIO_InitStruct.Pin = E_STEP_Pin|Z_STEP_Pin|LD3_Pin|LD2_Pin;
 2827              		.loc 1 1077 23
 2828 016e 44F28303 		movw	r3, #16515
 2829 0172 FB61     		str	r3, [r7, #28]
1078:Core/Src/main.c ****   GPIO_InitStruct.Mode = GPIO_MODE_OUTPUT_PP;
 2830              		.loc 1 1078 24
 2831 0174 0123     		movs	r3, #1
 2832 0176 3B62     		str	r3, [r7, #32]
1079:Core/Src/main.c ****   GPIO_InitStruct.Pull = GPIO_NOPULL;
 2833              		.loc 1 1079 24
 2834 0178 0023     		movs	r3, #0
 2835 017a 7B62     		str	r3, [r7, #36]
1080:Core/Src/main.c ****   GPIO_InitStruct.Speed = GPIO_SPEED_FREQ_LOW;
 2836              		.loc 1 1080 25
 2837 017c 0023     		movs	r3, #0
 2838 017e BB62     		str	r3, [r7, #40]
1081:Core/Src/main.c ****   HAL_GPIO_Init(GPIOB, &GPIO_InitStruct);
 2839              		.loc 1 1081 3
 2840 0180 07F11C03 		add	r3, r7, #28
 2841 0184 1946     		mov	r1, r3
 2842 0186 2148     		ldr	r0, .L124+8
 2843 0188 FFF7FEFF 		bl	HAL_GPIO_Init
1082:Core/Src/main.c **** 
1083:Core/Src/main.c ****   /*Configure GPIO pin : USB_OverCurrent_Pin */
1084:Core/Src/main.c ****   GPIO_InitStruct.Pin = USB_OverCurrent_Pin;
 2844              		.loc 1 1084 23
 2845 018c 2023     		movs	r3, #32
 2846 018e FB61     		str	r3, [r7, #28]
1085:Core/Src/main.c ****   GPIO_InitStruct.Mode = GPIO_MODE_INPUT;
 2847              		.loc 1 1085 24
 2848 0190 0023     		movs	r3, #0
 2849 0192 3B62     		str	r3, [r7, #32]
1086:Core/Src/main.c ****   GPIO_InitStruct.Pull = GPIO_NOPULL;
 2850              		.loc 1 1086 24
 2851 0194 0023     		movs	r3, #0
 2852 0196 7B62     		str	r3, [r7, #36]
1087:Core/Src/main.c ****   HAL_GPIO_Init(USB_OverCurrent_GPIO_Port, &GPIO_InitStruct);
 2853              		.loc 1 1087 3
 2854 0198 07F11C03 		add	r3, r7, #28
 2855 019c 1946     		mov	r1, r3
 2856 019e 1C48     		ldr	r0, .L124+12
 2857 01a0 FFF7FEFF 		bl	HAL_GPIO_Init
1088:Core/Src/main.c **** 
1089:Core/Src/main.c ****   /*Configure GPIO pins : USB_PowerSwitchOn_Pin SD_CS_Pin */
1090:Core/Src/main.c ****   GPIO_InitStruct.Pin = USB_PowerSwitchOn_Pin|SD_CS_Pin;
 2858              		.loc 1 1090 23
 2859 01a4 4FF48863 		mov	r3, #1088
ARM GAS  C:\Users\Morroway\AppData\Local\Temp\ccSn7seF.s 			page 72


 2860 01a8 FB61     		str	r3, [r7, #28]
1091:Core/Src/main.c ****   GPIO_InitStruct.Mode = GPIO_MODE_OUTPUT_PP;
 2861              		.loc 1 1091 24
 2862 01aa 0123     		movs	r3, #1
 2863 01ac 3B62     		str	r3, [r7, #32]
1092:Core/Src/main.c ****   GPIO_InitStruct.Pull = GPIO_NOPULL;
 2864              		.loc 1 1092 24
 2865 01ae 0023     		movs	r3, #0
 2866 01b0 7B62     		str	r3, [r7, #36]
1093:Core/Src/main.c ****   GPIO_InitStruct.Speed = GPIO_SPEED_FREQ_LOW;
 2867              		.loc 1 1093 25
 2868 01b2 0023     		movs	r3, #0
 2869 01b4 BB62     		str	r3, [r7, #40]
1094:Core/Src/main.c ****   HAL_GPIO_Init(GPIOG, &GPIO_InitStruct);
 2870              		.loc 1 1094 3
 2871 01b6 07F11C03 		add	r3, r7, #28
 2872 01ba 1946     		mov	r1, r3
 2873 01bc 1448     		ldr	r0, .L124+12
 2874 01be FFF7FEFF 		bl	HAL_GPIO_Init
1095:Core/Src/main.c **** 
1096:Core/Src/main.c ****   /*Configure GPIO pin : X_STEP_Pin */
1097:Core/Src/main.c ****   GPIO_InitStruct.Pin = X_STEP_Pin;
 2875              		.loc 1 1097 23
 2876 01c2 4023     		movs	r3, #64
 2877 01c4 FB61     		str	r3, [r7, #28]
1098:Core/Src/main.c ****   GPIO_InitStruct.Mode = GPIO_MODE_OUTPUT_PP;
 2878              		.loc 1 1098 24
 2879 01c6 0123     		movs	r3, #1
 2880 01c8 3B62     		str	r3, [r7, #32]
1099:Core/Src/main.c ****   GPIO_InitStruct.Pull = GPIO_NOPULL;
 2881              		.loc 1 1099 24
 2882 01ca 0023     		movs	r3, #0
 2883 01cc 7B62     		str	r3, [r7, #36]
1100:Core/Src/main.c ****   GPIO_InitStruct.Speed = GPIO_SPEED_FREQ_LOW;
 2884              		.loc 1 1100 25
 2885 01ce 0023     		movs	r3, #0
 2886 01d0 BB62     		str	r3, [r7, #40]
1101:Core/Src/main.c ****   HAL_GPIO_Init(X_STEP_GPIO_Port, &GPIO_InitStruct);
 2887              		.loc 1 1101 3
 2888 01d2 07F11C03 		add	r3, r7, #28
 2889 01d6 1946     		mov	r1, r3
 2890 01d8 0E48     		ldr	r0, .L124+16
 2891 01da FFF7FEFF 		bl	HAL_GPIO_Init
1102:Core/Src/main.c **** 
1103:Core/Src/main.c ****   /*Configure GPIO pins : LCD_CS_Pin LCD_DC_Pin LCD_RST_Pin */
1104:Core/Src/main.c ****   GPIO_InitStruct.Pin = LCD_CS_Pin|LCD_DC_Pin|LCD_RST_Pin;
 2892              		.loc 1 1104 23
 2893 01de 4FF4E043 		mov	r3, #28672
 2894 01e2 FB61     		str	r3, [r7, #28]
1105:Core/Src/main.c ****   GPIO_InitStruct.Mode = GPIO_MODE_OUTPUT_PP;
 2895              		.loc 1 1105 24
 2896 01e4 0123     		movs	r3, #1
 2897 01e6 3B62     		str	r3, [r7, #32]
1106:Core/Src/main.c ****   GPIO_InitStruct.Pull = GPIO_NOPULL;
 2898              		.loc 1 1106 24
 2899 01e8 0023     		movs	r3, #0
 2900 01ea 7B62     		str	r3, [r7, #36]
ARM GAS  C:\Users\Morroway\AppData\Local\Temp\ccSn7seF.s 			page 73


1107:Core/Src/main.c ****   GPIO_InitStruct.Speed = GPIO_SPEED_FREQ_VERY_HIGH;
 2901              		.loc 1 1107 25
 2902 01ec 0323     		movs	r3, #3
 2903 01ee BB62     		str	r3, [r7, #40]
1108:Core/Src/main.c ****   HAL_GPIO_Init(GPIOG, &GPIO_InitStruct);
 2904              		.loc 1 1108 3
 2905 01f0 07F11C03 		add	r3, r7, #28
 2906 01f4 1946     		mov	r1, r3
 2907 01f6 0648     		ldr	r0, .L124+12
 2908 01f8 FFF7FEFF 		bl	HAL_GPIO_Init
1109:Core/Src/main.c **** 
1110:Core/Src/main.c **** }
 2909              		.loc 1 1110 1
 2910 01fc 00BF     		nop
 2911 01fe 3037     		adds	r7, r7, #48
 2912              		.cfi_def_cfa_offset 8
 2913 0200 BD46     		mov	sp, r7
 2914              		.cfi_def_cfa_register 13
 2915              		@ sp needed
 2916 0202 80BD     		pop	{r7, pc}
 2917              	.L125:
 2918              		.align	2
 2919              	.L124:
 2920 0204 00100240 		.word	1073876992
 2921 0208 00140048 		.word	1207964672
 2922 020c 00040048 		.word	1207960576
 2923 0210 00180048 		.word	1207965696
 2924 0214 00080048 		.word	1207961600
 2925              		.cfi_endproc
 2926              	.LFE345:
 2928              		.section	.text.Error_Handler,"ax",%progbits
 2929              		.align	1
 2930              		.global	Error_Handler
 2931              		.syntax unified
 2932              		.thumb
 2933              		.thumb_func
 2935              	Error_Handler:
 2936              	.LFB346:
1111:Core/Src/main.c **** 
1112:Core/Src/main.c **** /* USER CODE BEGIN 4 */
1113:Core/Src/main.c **** 
1114:Core/Src/main.c **** /* USER CODE END 4 */
1115:Core/Src/main.c **** 
1116:Core/Src/main.c **** /**
1117:Core/Src/main.c ****   * @brief  This function is executed in case of error occurrence.
1118:Core/Src/main.c ****   * @retval None
1119:Core/Src/main.c ****   */
1120:Core/Src/main.c **** void Error_Handler(void)
1121:Core/Src/main.c **** {
 2937              		.loc 1 1121 1
 2938              		.cfi_startproc
 2939              		@ args = 0, pretend = 0, frame = 0
 2940              		@ frame_needed = 1, uses_anonymous_args = 0
 2941              		@ link register save eliminated.
 2942 0000 80B4     		push	{r7}
 2943              		.cfi_def_cfa_offset 4
 2944              		.cfi_offset 7, -4
ARM GAS  C:\Users\Morroway\AppData\Local\Temp\ccSn7seF.s 			page 74


 2945 0002 00AF     		add	r7, sp, #0
 2946              		.cfi_def_cfa_register 7
 2947              	.LBB13:
 2948              	.LBB14:
 2949              		.file 2 "Drivers/CMSIS/Include/cmsis_gcc.h"
   1:Drivers/CMSIS/Include/cmsis_gcc.h **** /**************************************************************************//**
   2:Drivers/CMSIS/Include/cmsis_gcc.h ****  * @file     cmsis_gcc.h
   3:Drivers/CMSIS/Include/cmsis_gcc.h ****  * @brief    CMSIS compiler GCC header file
   4:Drivers/CMSIS/Include/cmsis_gcc.h ****  * @version  V5.2.0
   5:Drivers/CMSIS/Include/cmsis_gcc.h ****  * @date     08. May 2019
   6:Drivers/CMSIS/Include/cmsis_gcc.h ****  ******************************************************************************/
   7:Drivers/CMSIS/Include/cmsis_gcc.h **** /*
   8:Drivers/CMSIS/Include/cmsis_gcc.h ****  * Copyright (c) 2009-2019 Arm Limited. All rights reserved.
   9:Drivers/CMSIS/Include/cmsis_gcc.h ****  *
  10:Drivers/CMSIS/Include/cmsis_gcc.h ****  * SPDX-License-Identifier: Apache-2.0
  11:Drivers/CMSIS/Include/cmsis_gcc.h ****  *
  12:Drivers/CMSIS/Include/cmsis_gcc.h ****  * Licensed under the Apache License, Version 2.0 (the License); you may
  13:Drivers/CMSIS/Include/cmsis_gcc.h ****  * not use this file except in compliance with the License.
  14:Drivers/CMSIS/Include/cmsis_gcc.h ****  * You may obtain a copy of the License at
  15:Drivers/CMSIS/Include/cmsis_gcc.h ****  *
  16:Drivers/CMSIS/Include/cmsis_gcc.h ****  * www.apache.org/licenses/LICENSE-2.0
  17:Drivers/CMSIS/Include/cmsis_gcc.h ****  *
  18:Drivers/CMSIS/Include/cmsis_gcc.h ****  * Unless required by applicable law or agreed to in writing, software
  19:Drivers/CMSIS/Include/cmsis_gcc.h ****  * distributed under the License is distributed on an AS IS BASIS, WITHOUT
  20:Drivers/CMSIS/Include/cmsis_gcc.h ****  * WARRANTIES OR CONDITIONS OF ANY KIND, either express or implied.
  21:Drivers/CMSIS/Include/cmsis_gcc.h ****  * See the License for the specific language governing permissions and
  22:Drivers/CMSIS/Include/cmsis_gcc.h ****  * limitations under the License.
  23:Drivers/CMSIS/Include/cmsis_gcc.h ****  */
  24:Drivers/CMSIS/Include/cmsis_gcc.h **** 
  25:Drivers/CMSIS/Include/cmsis_gcc.h **** #ifndef __CMSIS_GCC_H
  26:Drivers/CMSIS/Include/cmsis_gcc.h **** #define __CMSIS_GCC_H
  27:Drivers/CMSIS/Include/cmsis_gcc.h **** 
  28:Drivers/CMSIS/Include/cmsis_gcc.h **** /* ignore some GCC warnings */
  29:Drivers/CMSIS/Include/cmsis_gcc.h **** #pragma GCC diagnostic push
  30:Drivers/CMSIS/Include/cmsis_gcc.h **** #pragma GCC diagnostic ignored "-Wsign-conversion"
  31:Drivers/CMSIS/Include/cmsis_gcc.h **** #pragma GCC diagnostic ignored "-Wconversion"
  32:Drivers/CMSIS/Include/cmsis_gcc.h **** #pragma GCC diagnostic ignored "-Wunused-parameter"
  33:Drivers/CMSIS/Include/cmsis_gcc.h **** 
  34:Drivers/CMSIS/Include/cmsis_gcc.h **** /* Fallback for __has_builtin */
  35:Drivers/CMSIS/Include/cmsis_gcc.h **** #ifndef __has_builtin
  36:Drivers/CMSIS/Include/cmsis_gcc.h ****   #define __has_builtin(x) (0)
  37:Drivers/CMSIS/Include/cmsis_gcc.h **** #endif
  38:Drivers/CMSIS/Include/cmsis_gcc.h **** 
  39:Drivers/CMSIS/Include/cmsis_gcc.h **** /* CMSIS compiler specific defines */
  40:Drivers/CMSIS/Include/cmsis_gcc.h **** #ifndef   __ASM
  41:Drivers/CMSIS/Include/cmsis_gcc.h ****   #define __ASM                                  __asm
  42:Drivers/CMSIS/Include/cmsis_gcc.h **** #endif
  43:Drivers/CMSIS/Include/cmsis_gcc.h **** #ifndef   __INLINE
  44:Drivers/CMSIS/Include/cmsis_gcc.h ****   #define __INLINE                               inline
  45:Drivers/CMSIS/Include/cmsis_gcc.h **** #endif
  46:Drivers/CMSIS/Include/cmsis_gcc.h **** #ifndef   __STATIC_INLINE
  47:Drivers/CMSIS/Include/cmsis_gcc.h ****   #define __STATIC_INLINE                        static inline
  48:Drivers/CMSIS/Include/cmsis_gcc.h **** #endif
  49:Drivers/CMSIS/Include/cmsis_gcc.h **** #ifndef   __STATIC_FORCEINLINE                 
  50:Drivers/CMSIS/Include/cmsis_gcc.h ****   #define __STATIC_FORCEINLINE                   __attribute__((always_inline)) static inline
  51:Drivers/CMSIS/Include/cmsis_gcc.h **** #endif                                           
  52:Drivers/CMSIS/Include/cmsis_gcc.h **** #ifndef   __NO_RETURN
ARM GAS  C:\Users\Morroway\AppData\Local\Temp\ccSn7seF.s 			page 75


  53:Drivers/CMSIS/Include/cmsis_gcc.h ****   #define __NO_RETURN                            __attribute__((__noreturn__))
  54:Drivers/CMSIS/Include/cmsis_gcc.h **** #endif
  55:Drivers/CMSIS/Include/cmsis_gcc.h **** #ifndef   __USED
  56:Drivers/CMSIS/Include/cmsis_gcc.h ****   #define __USED                                 __attribute__((used))
  57:Drivers/CMSIS/Include/cmsis_gcc.h **** #endif
  58:Drivers/CMSIS/Include/cmsis_gcc.h **** #ifndef   __WEAK
  59:Drivers/CMSIS/Include/cmsis_gcc.h ****   #define __WEAK                                 __attribute__((weak))
  60:Drivers/CMSIS/Include/cmsis_gcc.h **** #endif
  61:Drivers/CMSIS/Include/cmsis_gcc.h **** #ifndef   __PACKED
  62:Drivers/CMSIS/Include/cmsis_gcc.h ****   #define __PACKED                               __attribute__((packed, aligned(1)))
  63:Drivers/CMSIS/Include/cmsis_gcc.h **** #endif
  64:Drivers/CMSIS/Include/cmsis_gcc.h **** #ifndef   __PACKED_STRUCT
  65:Drivers/CMSIS/Include/cmsis_gcc.h ****   #define __PACKED_STRUCT                        struct __attribute__((packed, aligned(1)))
  66:Drivers/CMSIS/Include/cmsis_gcc.h **** #endif
  67:Drivers/CMSIS/Include/cmsis_gcc.h **** #ifndef   __PACKED_UNION
  68:Drivers/CMSIS/Include/cmsis_gcc.h ****   #define __PACKED_UNION                         union __attribute__((packed, aligned(1)))
  69:Drivers/CMSIS/Include/cmsis_gcc.h **** #endif
  70:Drivers/CMSIS/Include/cmsis_gcc.h **** #ifndef   __UNALIGNED_UINT32        /* deprecated */
  71:Drivers/CMSIS/Include/cmsis_gcc.h ****   #pragma GCC diagnostic push
  72:Drivers/CMSIS/Include/cmsis_gcc.h ****   #pragma GCC diagnostic ignored "-Wpacked"
  73:Drivers/CMSIS/Include/cmsis_gcc.h ****   #pragma GCC diagnostic ignored "-Wattributes"
  74:Drivers/CMSIS/Include/cmsis_gcc.h ****   struct __attribute__((packed)) T_UINT32 { uint32_t v; };
  75:Drivers/CMSIS/Include/cmsis_gcc.h ****   #pragma GCC diagnostic pop
  76:Drivers/CMSIS/Include/cmsis_gcc.h ****   #define __UNALIGNED_UINT32(x)                  (((struct T_UINT32 *)(x))->v)
  77:Drivers/CMSIS/Include/cmsis_gcc.h **** #endif
  78:Drivers/CMSIS/Include/cmsis_gcc.h **** #ifndef   __UNALIGNED_UINT16_WRITE
  79:Drivers/CMSIS/Include/cmsis_gcc.h ****   #pragma GCC diagnostic push
  80:Drivers/CMSIS/Include/cmsis_gcc.h ****   #pragma GCC diagnostic ignored "-Wpacked"
  81:Drivers/CMSIS/Include/cmsis_gcc.h ****   #pragma GCC diagnostic ignored "-Wattributes"
  82:Drivers/CMSIS/Include/cmsis_gcc.h ****   __PACKED_STRUCT T_UINT16_WRITE { uint16_t v; };
  83:Drivers/CMSIS/Include/cmsis_gcc.h ****   #pragma GCC diagnostic pop
  84:Drivers/CMSIS/Include/cmsis_gcc.h ****   #define __UNALIGNED_UINT16_WRITE(addr, val)    (void)((((struct T_UINT16_WRITE *)(void *)(addr))-
  85:Drivers/CMSIS/Include/cmsis_gcc.h **** #endif
  86:Drivers/CMSIS/Include/cmsis_gcc.h **** #ifndef   __UNALIGNED_UINT16_READ
  87:Drivers/CMSIS/Include/cmsis_gcc.h ****   #pragma GCC diagnostic push
  88:Drivers/CMSIS/Include/cmsis_gcc.h ****   #pragma GCC diagnostic ignored "-Wpacked"
  89:Drivers/CMSIS/Include/cmsis_gcc.h ****   #pragma GCC diagnostic ignored "-Wattributes"
  90:Drivers/CMSIS/Include/cmsis_gcc.h ****   __PACKED_STRUCT T_UINT16_READ { uint16_t v; };
  91:Drivers/CMSIS/Include/cmsis_gcc.h ****   #pragma GCC diagnostic pop
  92:Drivers/CMSIS/Include/cmsis_gcc.h ****   #define __UNALIGNED_UINT16_READ(addr)          (((const struct T_UINT16_READ *)(const void *)(add
  93:Drivers/CMSIS/Include/cmsis_gcc.h **** #endif
  94:Drivers/CMSIS/Include/cmsis_gcc.h **** #ifndef   __UNALIGNED_UINT32_WRITE
  95:Drivers/CMSIS/Include/cmsis_gcc.h ****   #pragma GCC diagnostic push
  96:Drivers/CMSIS/Include/cmsis_gcc.h ****   #pragma GCC diagnostic ignored "-Wpacked"
  97:Drivers/CMSIS/Include/cmsis_gcc.h ****   #pragma GCC diagnostic ignored "-Wattributes"
  98:Drivers/CMSIS/Include/cmsis_gcc.h ****   __PACKED_STRUCT T_UINT32_WRITE { uint32_t v; };
  99:Drivers/CMSIS/Include/cmsis_gcc.h ****   #pragma GCC diagnostic pop
 100:Drivers/CMSIS/Include/cmsis_gcc.h ****   #define __UNALIGNED_UINT32_WRITE(addr, val)    (void)((((struct T_UINT32_WRITE *)(void *)(addr))-
 101:Drivers/CMSIS/Include/cmsis_gcc.h **** #endif
 102:Drivers/CMSIS/Include/cmsis_gcc.h **** #ifndef   __UNALIGNED_UINT32_READ
 103:Drivers/CMSIS/Include/cmsis_gcc.h ****   #pragma GCC diagnostic push
 104:Drivers/CMSIS/Include/cmsis_gcc.h ****   #pragma GCC diagnostic ignored "-Wpacked"
 105:Drivers/CMSIS/Include/cmsis_gcc.h ****   #pragma GCC diagnostic ignored "-Wattributes"
 106:Drivers/CMSIS/Include/cmsis_gcc.h ****   __PACKED_STRUCT T_UINT32_READ { uint32_t v; };
 107:Drivers/CMSIS/Include/cmsis_gcc.h ****   #pragma GCC diagnostic pop
 108:Drivers/CMSIS/Include/cmsis_gcc.h ****   #define __UNALIGNED_UINT32_READ(addr)          (((const struct T_UINT32_READ *)(const void *)(add
 109:Drivers/CMSIS/Include/cmsis_gcc.h **** #endif
ARM GAS  C:\Users\Morroway\AppData\Local\Temp\ccSn7seF.s 			page 76


 110:Drivers/CMSIS/Include/cmsis_gcc.h **** #ifndef   __ALIGNED
 111:Drivers/CMSIS/Include/cmsis_gcc.h ****   #define __ALIGNED(x)                           __attribute__((aligned(x)))
 112:Drivers/CMSIS/Include/cmsis_gcc.h **** #endif
 113:Drivers/CMSIS/Include/cmsis_gcc.h **** #ifndef   __RESTRICT
 114:Drivers/CMSIS/Include/cmsis_gcc.h ****   #define __RESTRICT                             __restrict
 115:Drivers/CMSIS/Include/cmsis_gcc.h **** #endif
 116:Drivers/CMSIS/Include/cmsis_gcc.h **** #ifndef   __COMPILER_BARRIER
 117:Drivers/CMSIS/Include/cmsis_gcc.h ****   #define __COMPILER_BARRIER()                   __ASM volatile("":::"memory")
 118:Drivers/CMSIS/Include/cmsis_gcc.h **** #endif
 119:Drivers/CMSIS/Include/cmsis_gcc.h **** 
 120:Drivers/CMSIS/Include/cmsis_gcc.h **** /* #########################  Startup and Lowlevel Init  ######################## */
 121:Drivers/CMSIS/Include/cmsis_gcc.h **** 
 122:Drivers/CMSIS/Include/cmsis_gcc.h **** #ifndef __PROGRAM_START
 123:Drivers/CMSIS/Include/cmsis_gcc.h **** 
 124:Drivers/CMSIS/Include/cmsis_gcc.h **** /**
 125:Drivers/CMSIS/Include/cmsis_gcc.h ****   \brief   Initializes data and bss sections
 126:Drivers/CMSIS/Include/cmsis_gcc.h ****   \details This default implementations initialized all data and additional bss
 127:Drivers/CMSIS/Include/cmsis_gcc.h ****            sections relying on .copy.table and .zero.table specified properly
 128:Drivers/CMSIS/Include/cmsis_gcc.h ****            in the used linker script.
 129:Drivers/CMSIS/Include/cmsis_gcc.h ****   
 130:Drivers/CMSIS/Include/cmsis_gcc.h ****  */
 131:Drivers/CMSIS/Include/cmsis_gcc.h **** __STATIC_FORCEINLINE __NO_RETURN void __cmsis_start(void)
 132:Drivers/CMSIS/Include/cmsis_gcc.h **** {
 133:Drivers/CMSIS/Include/cmsis_gcc.h ****   extern void _start(void) __NO_RETURN;
 134:Drivers/CMSIS/Include/cmsis_gcc.h ****   
 135:Drivers/CMSIS/Include/cmsis_gcc.h ****   typedef struct {
 136:Drivers/CMSIS/Include/cmsis_gcc.h ****     uint32_t const* src;
 137:Drivers/CMSIS/Include/cmsis_gcc.h ****     uint32_t* dest;
 138:Drivers/CMSIS/Include/cmsis_gcc.h ****     uint32_t  wlen;
 139:Drivers/CMSIS/Include/cmsis_gcc.h ****   } __copy_table_t;
 140:Drivers/CMSIS/Include/cmsis_gcc.h ****   
 141:Drivers/CMSIS/Include/cmsis_gcc.h ****   typedef struct {
 142:Drivers/CMSIS/Include/cmsis_gcc.h ****     uint32_t* dest;
 143:Drivers/CMSIS/Include/cmsis_gcc.h ****     uint32_t  wlen;
 144:Drivers/CMSIS/Include/cmsis_gcc.h ****   } __zero_table_t;
 145:Drivers/CMSIS/Include/cmsis_gcc.h ****   
 146:Drivers/CMSIS/Include/cmsis_gcc.h ****   extern const __copy_table_t __copy_table_start__;
 147:Drivers/CMSIS/Include/cmsis_gcc.h ****   extern const __copy_table_t __copy_table_end__;
 148:Drivers/CMSIS/Include/cmsis_gcc.h ****   extern const __zero_table_t __zero_table_start__;
 149:Drivers/CMSIS/Include/cmsis_gcc.h ****   extern const __zero_table_t __zero_table_end__;
 150:Drivers/CMSIS/Include/cmsis_gcc.h **** 
 151:Drivers/CMSIS/Include/cmsis_gcc.h ****   for (__copy_table_t const* pTable = &__copy_table_start__; pTable < &__copy_table_end__; ++pTable
 152:Drivers/CMSIS/Include/cmsis_gcc.h ****     for(uint32_t i=0u; i<pTable->wlen; ++i) {
 153:Drivers/CMSIS/Include/cmsis_gcc.h ****       pTable->dest[i] = pTable->src[i];
 154:Drivers/CMSIS/Include/cmsis_gcc.h ****     }
 155:Drivers/CMSIS/Include/cmsis_gcc.h ****   }
 156:Drivers/CMSIS/Include/cmsis_gcc.h ****  
 157:Drivers/CMSIS/Include/cmsis_gcc.h ****   for (__zero_table_t const* pTable = &__zero_table_start__; pTable < &__zero_table_end__; ++pTable
 158:Drivers/CMSIS/Include/cmsis_gcc.h ****     for(uint32_t i=0u; i<pTable->wlen; ++i) {
 159:Drivers/CMSIS/Include/cmsis_gcc.h ****       pTable->dest[i] = 0u;
 160:Drivers/CMSIS/Include/cmsis_gcc.h ****     }
 161:Drivers/CMSIS/Include/cmsis_gcc.h ****   }
 162:Drivers/CMSIS/Include/cmsis_gcc.h ****  
 163:Drivers/CMSIS/Include/cmsis_gcc.h ****   _start();
 164:Drivers/CMSIS/Include/cmsis_gcc.h **** }
 165:Drivers/CMSIS/Include/cmsis_gcc.h ****   
 166:Drivers/CMSIS/Include/cmsis_gcc.h **** #define __PROGRAM_START           __cmsis_start
ARM GAS  C:\Users\Morroway\AppData\Local\Temp\ccSn7seF.s 			page 77


 167:Drivers/CMSIS/Include/cmsis_gcc.h **** #endif
 168:Drivers/CMSIS/Include/cmsis_gcc.h **** 
 169:Drivers/CMSIS/Include/cmsis_gcc.h **** #ifndef __INITIAL_SP
 170:Drivers/CMSIS/Include/cmsis_gcc.h **** #define __INITIAL_SP              __StackTop
 171:Drivers/CMSIS/Include/cmsis_gcc.h **** #endif
 172:Drivers/CMSIS/Include/cmsis_gcc.h **** 
 173:Drivers/CMSIS/Include/cmsis_gcc.h **** #ifndef __STACK_LIMIT
 174:Drivers/CMSIS/Include/cmsis_gcc.h **** #define __STACK_LIMIT             __StackLimit
 175:Drivers/CMSIS/Include/cmsis_gcc.h **** #endif
 176:Drivers/CMSIS/Include/cmsis_gcc.h **** 
 177:Drivers/CMSIS/Include/cmsis_gcc.h **** #ifndef __VECTOR_TABLE
 178:Drivers/CMSIS/Include/cmsis_gcc.h **** #define __VECTOR_TABLE            __Vectors
 179:Drivers/CMSIS/Include/cmsis_gcc.h **** #endif
 180:Drivers/CMSIS/Include/cmsis_gcc.h **** 
 181:Drivers/CMSIS/Include/cmsis_gcc.h **** #ifndef __VECTOR_TABLE_ATTRIBUTE
 182:Drivers/CMSIS/Include/cmsis_gcc.h **** #define __VECTOR_TABLE_ATTRIBUTE  __attribute((used, section(".vectors")))
 183:Drivers/CMSIS/Include/cmsis_gcc.h **** #endif
 184:Drivers/CMSIS/Include/cmsis_gcc.h **** 
 185:Drivers/CMSIS/Include/cmsis_gcc.h **** /* ###########################  Core Function Access  ########################### */
 186:Drivers/CMSIS/Include/cmsis_gcc.h **** /** \ingroup  CMSIS_Core_FunctionInterface
 187:Drivers/CMSIS/Include/cmsis_gcc.h ****     \defgroup CMSIS_Core_RegAccFunctions CMSIS Core Register Access Functions
 188:Drivers/CMSIS/Include/cmsis_gcc.h ****   @{
 189:Drivers/CMSIS/Include/cmsis_gcc.h ****  */
 190:Drivers/CMSIS/Include/cmsis_gcc.h **** 
 191:Drivers/CMSIS/Include/cmsis_gcc.h **** /**
 192:Drivers/CMSIS/Include/cmsis_gcc.h ****   \brief   Enable IRQ Interrupts
 193:Drivers/CMSIS/Include/cmsis_gcc.h ****   \details Enables IRQ interrupts by clearing the I-bit in the CPSR.
 194:Drivers/CMSIS/Include/cmsis_gcc.h ****            Can only be executed in Privileged modes.
 195:Drivers/CMSIS/Include/cmsis_gcc.h ****  */
 196:Drivers/CMSIS/Include/cmsis_gcc.h **** __STATIC_FORCEINLINE void __enable_irq(void)
 197:Drivers/CMSIS/Include/cmsis_gcc.h **** {
 198:Drivers/CMSIS/Include/cmsis_gcc.h ****   __ASM volatile ("cpsie i" : : : "memory");
 199:Drivers/CMSIS/Include/cmsis_gcc.h **** }
 200:Drivers/CMSIS/Include/cmsis_gcc.h **** 
 201:Drivers/CMSIS/Include/cmsis_gcc.h **** 
 202:Drivers/CMSIS/Include/cmsis_gcc.h **** /**
 203:Drivers/CMSIS/Include/cmsis_gcc.h ****   \brief   Disable IRQ Interrupts
 204:Drivers/CMSIS/Include/cmsis_gcc.h ****   \details Disables IRQ interrupts by setting the I-bit in the CPSR.
 205:Drivers/CMSIS/Include/cmsis_gcc.h ****            Can only be executed in Privileged modes.
 206:Drivers/CMSIS/Include/cmsis_gcc.h ****  */
 207:Drivers/CMSIS/Include/cmsis_gcc.h **** __STATIC_FORCEINLINE void __disable_irq(void)
 208:Drivers/CMSIS/Include/cmsis_gcc.h **** {
 209:Drivers/CMSIS/Include/cmsis_gcc.h ****   __ASM volatile ("cpsid i" : : : "memory");
 2950              		.loc 2 209 3
 2951              		.syntax unified
 2952              	@ 209 "Drivers/CMSIS/Include/cmsis_gcc.h" 1
 2953 0004 72B6     		cpsid i
 2954              	@ 0 "" 2
 210:Drivers/CMSIS/Include/cmsis_gcc.h **** }
 2955              		.loc 2 210 1
 2956              		.thumb
 2957              		.syntax unified
 2958 0006 00BF     		nop
 2959              	.L127:
 2960              	.LBE14:
 2961              	.LBE13:
1122:Core/Src/main.c ****   /* USER CODE BEGIN Error_Handler_Debug */
ARM GAS  C:\Users\Morroway\AppData\Local\Temp\ccSn7seF.s 			page 78


1123:Core/Src/main.c ****   /* User can add his own implementation to report the HAL error return state */
1124:Core/Src/main.c ****   __disable_irq();
1125:Core/Src/main.c ****   while (1)
 2962              		.loc 1 1125 9 discriminator 1
 2963 0008 FEE7     		b	.L127
 2964              		.cfi_endproc
 2965              	.LFE346:
 2967              		.section	.bss.buffer.0,"aw",%nobits
 2968              		.align	2
 2971              	buffer.0:
 2972 0000 00000000 		.space	256
 2972      00000000 
 2972      00000000 
 2972      00000000 
 2972      00000000 
 2973              		.text
 2974              	.Letext0:
 2975              		.file 3 "Drivers/CMSIS/Device/ST/STM32L4xx/Include/stm32l4p5xx.h"
 2976              		.file 4 "c:\\users\\morroway\\appdata\\roaming\\code\\user\\globalstorage\\bmd.stm32-for-vscode\\@
 2977              		.file 5 "c:\\users\\morroway\\appdata\\roaming\\code\\user\\globalstorage\\bmd.stm32-for-vscode\\@
 2978              		.file 6 "Drivers/CMSIS/Device/ST/STM32L4xx/Include/stm32l4xx.h"
 2979              		.file 7 "c:\\users\\morroway\\appdata\\roaming\\code\\user\\globalstorage\\bmd.stm32-for-vscode\\@
 2980              		.file 8 "Drivers/STM32L4xx_HAL_Driver/Inc/stm32l4xx_hal_def.h"
 2981              		.file 9 "Drivers/STM32L4xx_HAL_Driver/Inc/stm32l4xx_hal_rcc.h"
 2982              		.file 10 "Drivers/STM32L4xx_HAL_Driver/Inc/stm32l4xx_hal_gpio.h"
 2983              		.file 11 "Drivers/STM32L4xx_HAL_Driver/Inc/stm32l4xx_hal_dma.h"
 2984              		.file 12 "Drivers/STM32L4xx_HAL_Driver/Inc/stm32l4xx_hal_adc.h"
 2985              		.file 13 "Drivers/STM32L4xx_HAL_Driver/Inc/stm32l4xx_hal_adc_ex.h"
 2986              		.file 14 "Drivers/STM32L4xx_HAL_Driver/Inc/stm32l4xx_hal_i2c.h"
 2987              		.file 15 "Drivers/STM32L4xx_HAL_Driver/Inc/stm32l4xx_ll_usb.h"
 2988              		.file 16 "Drivers/STM32L4xx_HAL_Driver/Inc/stm32l4xx_hal_pcd.h"
 2989              		.file 17 "Drivers/STM32L4xx_HAL_Driver/Inc/stm32l4xx_hal_rng.h"
 2990              		.file 18 "Drivers/STM32L4xx_HAL_Driver/Inc/stm32l4xx_hal_spi.h"
 2991              		.file 19 "Drivers/STM32L4xx_HAL_Driver/Inc/stm32l4xx_hal_tim.h"
 2992              		.file 20 "Drivers/STM32L4xx_HAL_Driver/Inc/stm32l4xx_hal_uart.h"
 2993              		.file 21 "Core/Inc/Parser.h"
 2994              		.file 22 "Core/Inc/GCodes.h"
 2995              		.file 23 "Core/Inc/main.h"
 2996              		.file 24 "c:\\users\\morroway\\appdata\\roaming\\code\\user\\globalstorage\\bmd.stm32-for-vscode\\
 2997              		.file 25 "c:\\users\\morroway\\appdata\\roaming\\code\\user\\globalstorage\\bmd.stm32-for-vscode\\
 2998              		.file 26 "Drivers/IL9341/inc/5x5_font.h"
 2999              		.file 27 "Drivers/VL53L0X/platform/inc/vl53l0x_types.h"
 3000              		.file 28 "Drivers/VL53L0X/core/inc/vl53l0x_device.h"
 3001              		.file 29 "Drivers/VL53L0X/core/inc/vl53l0x_def.h"
 3002              		.file 30 "Drivers/VL53L0X/platform/inc/vl53l0x_platform.h"
 3003              		.file 31 "Drivers/STM32L4xx_HAL_Driver/Inc/stm32l4xx_hal_cortex.h"
 3004              		.file 32 "Drivers/STM32L4xx_HAL_Driver/Inc/stm32l4xx_hal_tim_ex.h"
 3005              		.file 33 "Drivers/STM32L4xx_HAL_Driver/Inc/stm32l4xx_hal_uart_ex.h"
 3006              		.file 34 "Drivers/STM32L4xx_HAL_Driver/Inc/stm32l4xx_hal_i2c_ex.h"
 3007              		.file 35 "Drivers/STM32L4xx_HAL_Driver/Inc/stm32l4xx_hal_pwr_ex.h"
 3008              		.file 36 "Core/Inc/Functions.h"
 3009              		.file 37 "Drivers/VL53L0X/core/inc/vl53l0x_api.h"
 3010              		.file 38 "Drivers/STM32L4xx_HAL_Driver/Inc/stm32l4xx_hal.h"
 3011              		.file 39 "Drivers/IL9341/inc/ILI9341_STM32_Driver.h"
 3012              		.file 40 "c:\\users\\morroway\\appdata\\roaming\\code\\user\\globalstorage\\bmd.stm32-for-vscode\\
 3013              		.file 41 "FATFS/App/fatfs.h"
 3014              		.file 42 "<built-in>"
ARM GAS  C:\Users\Morroway\AppData\Local\Temp\ccSn7seF.s 			page 79


ARM GAS  C:\Users\Morroway\AppData\Local\Temp\ccSn7seF.s 			page 80


DEFINED SYMBOLS
                            *ABS*:0000000000000000 main.c
C:\Users\Morroway\AppData\Local\Temp\ccSn7seF.s:20     .bss.msg_buffer:0000000000000000 $d
C:\Users\Morroway\AppData\Local\Temp\ccSn7seF.s:23     .bss.msg_buffer:0000000000000000 msg_buffer
C:\Users\Morroway\AppData\Local\Temp\ccSn7seF.s:26     .bss.RxBuf:0000000000000000 $d
C:\Users\Morroway\AppData\Local\Temp\ccSn7seF.s:29     .bss.RxBuf:0000000000000000 RxBuf
C:\Users\Morroway\AppData\Local\Temp\ccSn7seF.s:32     .rodata.font:0000000000000000 $d
C:\Users\Morroway\AppData\Local\Temp\ccSn7seF.s:35     .rodata.font:0000000000000000 font
C:\Users\Morroway\AppData\Local\Temp\ccSn7seF.s:137    .bss.hadc1:0000000000000000 hadc1
C:\Users\Morroway\AppData\Local\Temp\ccSn7seF.s:134    .bss.hadc1:0000000000000000 $d
C:\Users\Morroway\AppData\Local\Temp\ccSn7seF.s:144    .bss.hdma_adc1:0000000000000000 hdma_adc1
C:\Users\Morroway\AppData\Local\Temp\ccSn7seF.s:141    .bss.hdma_adc1:0000000000000000 $d
C:\Users\Morroway\AppData\Local\Temp\ccSn7seF.s:151    .bss.hi2c1:0000000000000000 hi2c1
C:\Users\Morroway\AppData\Local\Temp\ccSn7seF.s:148    .bss.hi2c1:0000000000000000 $d
C:\Users\Morroway\AppData\Local\Temp\ccSn7seF.s:158    .bss.hlpuart1:0000000000000000 hlpuart1
C:\Users\Morroway\AppData\Local\Temp\ccSn7seF.s:155    .bss.hlpuart1:0000000000000000 $d
C:\Users\Morroway\AppData\Local\Temp\ccSn7seF.s:165    .bss.huart4:0000000000000000 huart4
C:\Users\Morroway\AppData\Local\Temp\ccSn7seF.s:162    .bss.huart4:0000000000000000 $d
C:\Users\Morroway\AppData\Local\Temp\ccSn7seF.s:172    .bss.hdma_lpuart1_rx:0000000000000000 hdma_lpuart1_rx
C:\Users\Morroway\AppData\Local\Temp\ccSn7seF.s:169    .bss.hdma_lpuart1_rx:0000000000000000 $d
C:\Users\Morroway\AppData\Local\Temp\ccSn7seF.s:179    .bss.hrng:0000000000000000 hrng
C:\Users\Morroway\AppData\Local\Temp\ccSn7seF.s:176    .bss.hrng:0000000000000000 $d
C:\Users\Morroway\AppData\Local\Temp\ccSn7seF.s:186    .bss.hspi1:0000000000000000 hspi1
C:\Users\Morroway\AppData\Local\Temp\ccSn7seF.s:183    .bss.hspi1:0000000000000000 $d
C:\Users\Morroway\AppData\Local\Temp\ccSn7seF.s:193    .bss.hspi2:0000000000000000 hspi2
C:\Users\Morroway\AppData\Local\Temp\ccSn7seF.s:190    .bss.hspi2:0000000000000000 $d
C:\Users\Morroway\AppData\Local\Temp\ccSn7seF.s:200    .bss.htim2:0000000000000000 htim2
C:\Users\Morroway\AppData\Local\Temp\ccSn7seF.s:197    .bss.htim2:0000000000000000 $d
C:\Users\Morroway\AppData\Local\Temp\ccSn7seF.s:207    .bss.htim3:0000000000000000 htim3
C:\Users\Morroway\AppData\Local\Temp\ccSn7seF.s:204    .bss.htim3:0000000000000000 $d
C:\Users\Morroway\AppData\Local\Temp\ccSn7seF.s:214    .bss.htim4:0000000000000000 htim4
C:\Users\Morroway\AppData\Local\Temp\ccSn7seF.s:211    .bss.htim4:0000000000000000 $d
C:\Users\Morroway\AppData\Local\Temp\ccSn7seF.s:221    .bss.htim5:0000000000000000 htim5
C:\Users\Morroway\AppData\Local\Temp\ccSn7seF.s:218    .bss.htim5:0000000000000000 $d
C:\Users\Morroway\AppData\Local\Temp\ccSn7seF.s:228    .bss.hpcd_USB_OTG_FS:0000000000000000 hpcd_USB_OTG_FS
C:\Users\Morroway\AppData\Local\Temp\ccSn7seF.s:225    .bss.hpcd_USB_OTG_FS:0000000000000000 $d
C:\Users\Morroway\AppData\Local\Temp\ccSn7seF.s:235    .bss.value:0000000000000000 value
C:\Users\Morroway\AppData\Local\Temp\ccSn7seF.s:232    .bss.value:0000000000000000 $d
C:\Users\Morroway\AppData\Local\Temp\ccSn7seF.s:242    .bss.RangingData:0000000000000000 RangingData
C:\Users\Morroway\AppData\Local\Temp\ccSn7seF.s:239    .bss.RangingData:0000000000000000 $d
C:\Users\Morroway\AppData\Local\Temp\ccSn7seF.s:249    .bss.vl53l0x_c:0000000000000000 vl53l0x_c
C:\Users\Morroway\AppData\Local\Temp\ccSn7seF.s:246    .bss.vl53l0x_c:0000000000000000 $d
C:\Users\Morroway\AppData\Local\Temp\ccSn7seF.s:256    .data.Dev:0000000000000000 Dev
C:\Users\Morroway\AppData\Local\Temp\ccSn7seF.s:253    .data.Dev:0000000000000000 $d
C:\Users\Morroway\AppData\Local\Temp\ccSn7seF.s:259    .text.myprintf:0000000000000000 $t
C:\Users\Morroway\AppData\Local\Temp\ccSn7seF.s:265    .text.myprintf:0000000000000000 myprintf
C:\Users\Morroway\AppData\Local\Temp\ccSn7seF.s:329    .text.myprintf:0000000000000044 $d
C:\Users\Morroway\AppData\Local\Temp\ccSn7seF.s:2971   .bss.buffer.0:0000000000000000 buffer.0
C:\Users\Morroway\AppData\Local\Temp\ccSn7seF.s:335    .text.HAL_UARTEx_RxEventCallback:0000000000000000 $t
C:\Users\Morroway\AppData\Local\Temp\ccSn7seF.s:341    .text.HAL_UARTEx_RxEventCallback:0000000000000000 HAL_UARTEx_RxEventCallback
C:\Users\Morroway\AppData\Local\Temp\ccSn7seF.s:390    .text.HAL_UARTEx_RxEventCallback:0000000000000038 $d
C:\Users\Morroway\AppData\Local\Temp\ccSn7seF.s:398    .text.DelayMicrosecond:0000000000000000 $t
C:\Users\Morroway\AppData\Local\Temp\ccSn7seF.s:404    .text.DelayMicrosecond:0000000000000000 DelayMicrosecond
C:\Users\Morroway\AppData\Local\Temp\ccSn7seF.s:451    .text.DelayMicrosecond:0000000000000030 $d
C:\Users\Morroway\AppData\Local\Temp\ccSn7seF.s:456    .text.GetTicks:0000000000000000 $t
C:\Users\Morroway\AppData\Local\Temp\ccSn7seF.s:462    .text.GetTicks:0000000000000000 GetTicks
C:\Users\Morroway\AppData\Local\Temp\ccSn7seF.s:490    .text.GetTicks:0000000000000014 $d
ARM GAS  C:\Users\Morroway\AppData\Local\Temp\ccSn7seF.s 			page 81


C:\Users\Morroway\AppData\Local\Temp\ccSn7seF.s:495    .text.SPI_Transmit:0000000000000000 $t
C:\Users\Morroway\AppData\Local\Temp\ccSn7seF.s:501    .text.SPI_Transmit:0000000000000000 SPI_Transmit
C:\Users\Morroway\AppData\Local\Temp\ccSn7seF.s:536    .text.SPI_Transmit:0000000000000024 $d
C:\Users\Morroway\AppData\Local\Temp\ccSn7seF.s:541    .rodata:0000000000000000 $d
C:\Users\Morroway\AppData\Local\Temp\ccSn7seF.s:549    .text.main:0000000000000000 $t
C:\Users\Morroway\AppData\Local\Temp\ccSn7seF.s:555    .text.main:0000000000000000 main
C:\Users\Morroway\AppData\Local\Temp\ccSn7seF.s:944    .text.SystemClock_Config:0000000000000000 SystemClock_Config
C:\Users\Morroway\AppData\Local\Temp\ccSn7seF.s:2625   .text.MX_GPIO_Init:0000000000000000 MX_GPIO_Init
C:\Users\Morroway\AppData\Local\Temp\ccSn7seF.s:2548   .text.MX_DMA_Init:0000000000000000 MX_DMA_Init
C:\Users\Morroway\AppData\Local\Temp\ccSn7seF.s:1392   .text.MX_LPUART1_UART_Init:0000000000000000 MX_LPUART1_UART_Init
C:\Users\Morroway\AppData\Local\Temp\ccSn7seF.s:2474   .text.MX_USB_OTG_FS_PCD_Init:0000000000000000 MX_USB_OTG_FS_PCD_Init
C:\Users\Morroway\AppData\Local\Temp\ccSn7seF.s:2242   .text.MX_TIM4_Init:0000000000000000 MX_TIM4_Init
C:\Users\Morroway\AppData\Local\Temp\ccSn7seF.s:1511   .text.MX_UART4_Init:0000000000000000 MX_UART4_Init
C:\Users\Morroway\AppData\Local\Temp\ccSn7seF.s:2039   .text.MX_TIM3_Init:0000000000000000 MX_TIM3_Init
C:\Users\Morroway\AppData\Local\Temp\ccSn7seF.s:1073   .text.MX_ADC1_Init:0000000000000000 MX_ADC1_Init
C:\Users\Morroway\AppData\Local\Temp\ccSn7seF.s:2358   .text.MX_TIM5_Init:0000000000000000 MX_TIM5_Init
C:\Users\Morroway\AppData\Local\Temp\ccSn7seF.s:1863   .text.MX_TIM2_Init:0000000000000000 MX_TIM2_Init
C:\Users\Morroway\AppData\Local\Temp\ccSn7seF.s:1673   .text.MX_SPI1_Init:0000000000000000 MX_SPI1_Init
C:\Users\Morroway\AppData\Local\Temp\ccSn7seF.s:1626   .text.MX_RNG_Init:0000000000000000 MX_RNG_Init
C:\Users\Morroway\AppData\Local\Temp\ccSn7seF.s:1294   .text.MX_I2C1_Init:0000000000000000 MX_I2C1_Init
C:\Users\Morroway\AppData\Local\Temp\ccSn7seF.s:1768   .text.MX_SPI2_Init:0000000000000000 MX_SPI2_Init
C:\Users\Morroway\AppData\Local\Temp\ccSn7seF.s:914    .text.main:00000000000002a0 $d
C:\Users\Morroway\AppData\Local\Temp\ccSn7seF.s:938    .text.SystemClock_Config:0000000000000000 $t
C:\Users\Morroway\AppData\Local\Temp\ccSn7seF.s:2935   .text.Error_Handler:0000000000000000 Error_Handler
C:\Users\Morroway\AppData\Local\Temp\ccSn7seF.s:1068   .text.MX_ADC1_Init:0000000000000000 $t
C:\Users\Morroway\AppData\Local\Temp\ccSn7seF.s:1280   .text.MX_ADC1_Init:0000000000000130 $d
C:\Users\Morroway\AppData\Local\Temp\ccSn7seF.s:1289   .text.MX_I2C1_Init:0000000000000000 $t
C:\Users\Morroway\AppData\Local\Temp\ccSn7seF.s:1380   .text.MX_I2C1_Init:0000000000000074 $d
C:\Users\Morroway\AppData\Local\Temp\ccSn7seF.s:1387   .text.MX_LPUART1_UART_Init:0000000000000000 $t
C:\Users\Morroway\AppData\Local\Temp\ccSn7seF.s:1500   .text.MX_LPUART1_UART_Init:0000000000000098 $d
C:\Users\Morroway\AppData\Local\Temp\ccSn7seF.s:1506   .text.MX_UART4_Init:0000000000000000 $t
C:\Users\Morroway\AppData\Local\Temp\ccSn7seF.s:1615   .text.MX_UART4_Init:0000000000000090 $d
C:\Users\Morroway\AppData\Local\Temp\ccSn7seF.s:1621   .text.MX_RNG_Init:0000000000000000 $t
C:\Users\Morroway\AppData\Local\Temp\ccSn7seF.s:1662   .text.MX_RNG_Init:0000000000000024 $d
C:\Users\Morroway\AppData\Local\Temp\ccSn7seF.s:1668   .text.MX_SPI1_Init:0000000000000000 $t
C:\Users\Morroway\AppData\Local\Temp\ccSn7seF.s:1757   .text.MX_SPI1_Init:0000000000000074 $d
C:\Users\Morroway\AppData\Local\Temp\ccSn7seF.s:1763   .text.MX_SPI2_Init:0000000000000000 $t
C:\Users\Morroway\AppData\Local\Temp\ccSn7seF.s:1852   .text.MX_SPI2_Init:0000000000000074 $d
C:\Users\Morroway\AppData\Local\Temp\ccSn7seF.s:1858   .text.MX_TIM2_Init:0000000000000000 $t
C:\Users\Morroway\AppData\Local\Temp\ccSn7seF.s:2029   .text.MX_TIM2_Init:00000000000000fc $d
C:\Users\Morroway\AppData\Local\Temp\ccSn7seF.s:2034   .text.MX_TIM3_Init:0000000000000000 $t
C:\Users\Morroway\AppData\Local\Temp\ccSn7seF.s:2231   .text.MX_TIM3_Init:0000000000000128 $d
C:\Users\Morroway\AppData\Local\Temp\ccSn7seF.s:2237   .text.MX_TIM4_Init:0000000000000000 $t
C:\Users\Morroway\AppData\Local\Temp\ccSn7seF.s:2347   .text.MX_TIM4_Init:0000000000000094 $d
C:\Users\Morroway\AppData\Local\Temp\ccSn7seF.s:2353   .text.MX_TIM5_Init:0000000000000000 $t
C:\Users\Morroway\AppData\Local\Temp\ccSn7seF.s:2463   .text.MX_TIM5_Init:0000000000000094 $d
C:\Users\Morroway\AppData\Local\Temp\ccSn7seF.s:2469   .text.MX_USB_OTG_FS_PCD_Init:0000000000000000 $t
C:\Users\Morroway\AppData\Local\Temp\ccSn7seF.s:2538   .text.MX_USB_OTG_FS_PCD_Init:0000000000000050 $d
C:\Users\Morroway\AppData\Local\Temp\ccSn7seF.s:2543   .text.MX_DMA_Init:0000000000000000 $t
C:\Users\Morroway\AppData\Local\Temp\ccSn7seF.s:2615   .text.MX_DMA_Init:0000000000000060 $d
C:\Users\Morroway\AppData\Local\Temp\ccSn7seF.s:2620   .text.MX_GPIO_Init:0000000000000000 $t
C:\Users\Morroway\AppData\Local\Temp\ccSn7seF.s:2920   .text.MX_GPIO_Init:0000000000000204 $d
C:\Users\Morroway\AppData\Local\Temp\ccSn7seF.s:2929   .text.Error_Handler:0000000000000000 $t
C:\Users\Morroway\AppData\Local\Temp\ccSn7seF.s:2968   .bss.buffer.0:0000000000000000 $d

UNDEFINED SYMBOLS
vsnprintf
ARM GAS  C:\Users\Morroway\AppData\Local\Temp\ccSn7seF.s 			page 82


strlen
HAL_UART_Transmit
HAL_UARTEx_ReceiveToIdle_DMA
HAL_SPI_Transmit
HAL_Init
MX_FATFS_Init
HAL_TIM_PWM_Start
HAL_ADC_Start_DMA
HAL_TIM_Base_Start
memset
reset_args
ILI9341_Init
HAL_GPIO_WritePin
HAL_Delay
VL53L0X_WaitDeviceBooted
VL53L0X_DataInit
VL53L0X_StaticInit
VL53L0X_PerformRefCalibration
VL53L0X_PerformRefSpadManagement
VL53L0X_SetDeviceMode
VL53L0X_SetLimitCheckEnable
VL53L0X_SetLimitCheckValue
VL53L0X_SetMeasurementTimingBudgetMicroSeconds
VL53L0X_SetVcselPulsePeriod
get_command
HAL_GPIO_ReadPin
G0
M104
M140
GetTemperature
isRunning
Cur_X
X
Cur_Y
Y
HAL_PWREx_ControlVoltageScaling
HAL_RCC_OscConfig
HAL_RCC_ClockConfig
HAL_ADC_Init
HAL_ADCEx_MultiModeConfigChannel
HAL_ADC_ConfigChannel
HAL_I2C_Init
HAL_I2CEx_ConfigAnalogFilter
HAL_I2CEx_ConfigDigitalFilter
HAL_UART_Init
HAL_UARTEx_SetTxFifoThreshold
HAL_UARTEx_SetRxFifoThreshold
HAL_UARTEx_DisableFifoMode
HAL_RNG_Init
HAL_SPI_Init
HAL_TIM_Base_Init
HAL_TIM_ConfigClockSource
HAL_TIM_PWM_Init
HAL_TIMEx_MasterConfigSynchronization
HAL_TIM_PWM_ConfigChannel
HAL_TIM_MspPostInit
HAL_PCD_Init
ARM GAS  C:\Users\Morroway\AppData\Local\Temp\ccSn7seF.s 			page 83


HAL_NVIC_SetPriority
HAL_NVIC_EnableIRQ
HAL_PWREx_EnableVddIO2
HAL_GPIO_Init
