ARM GAS  C:\Users\Morroway\AppData\Local\Temp\ccYl1imN.s 			page 1


   1              		.cpu cortex-m4
   2              		.arch armv7e-m
   3              		.fpu fpv4-sp-d16
   4              		.eabi_attribute 27, 1
   5              		.eabi_attribute 28, 1
   6              		.eabi_attribute 20, 1
   7              		.eabi_attribute 21, 1
   8              		.eabi_attribute 23, 3
   9              		.eabi_attribute 24, 1
  10              		.eabi_attribute 25, 1
  11              		.eabi_attribute 26, 1
  12              		.eabi_attribute 30, 6
  13              		.eabi_attribute 34, 1
  14              		.eabi_attribute 18, 4
  15              		.file	"main.c"
  16              		.text
  17              	.Ltext0:
  18              		.cfi_sections	.debug_frame
  19              		.section	.bss.msg_buffer,"aw",%nobits
  20              		.align	2
  23              	msg_buffer:
  24 0000 00000000 		.space	30
  24      00000000 
  24      00000000 
  24      00000000 
  24      00000000 
  25              		.section	.bss.RxBuf,"aw",%nobits
  26              		.align	2
  29              	RxBuf:
  30 0000 00000000 		.space	20
  30      00000000 
  30      00000000 
  30      00000000 
  30      00000000 
  31              		.section	.rodata.font,"a"
  32              		.align	2
  35              	font:
  36 0000 00000000 		.ascii	"\000\000\000\000\000\000"
  36      0000
  37 0006 5C000000 		.ascii	"\\\000\000\000\000\000"
  37      0000
  38 000c 06000600 		.ascii	"\006\000\006\000\000\000"
  38      0000
  39 0012 287C287C 		.ascii	"(|(|(\000"
  39      2800
  40 0018 5C54FE54 		.ascii	"\\T\376Tt\000"
  40      7400
  41 001e 44201008 		.ascii	"D \020\010D\000"
  41      4400
  42 0024 28545420 		.ascii	"(TT P\000"
  42      5000
  43 002a 06000000 		.ascii	"\006\000\000\000\000\000"
  43      0000
  44 0030 38440000 		.ascii	"8D\000\000\000\000"
  44      0000
  45 0036 44380000 		.ascii	"D8\000\000\000\000"
  45      0000
ARM GAS  C:\Users\Morroway\AppData\Local\Temp\ccYl1imN.s 			page 2


  46 003c 02070200 		.ascii	"\002\007\002\000\000\000"
  46      0000
  47 0042 10107C10 		.ascii	"\020\020|\020\020\000"
  47      1000
  48 0048 C0000000 		.ascii	"\300\000\000\000\000\000"
  48      0000
  49 004e 10101010 		.ascii	"\020\020\020\020\020\000"
  49      1000
  50 0054 40000000 		.ascii	"@\000\000\000\000\000"
  50      0000
  51 005a 60100C00 		.ascii	"`\020\014\000\000\000"
  51      0000
  52 0060 7C64544C 		.ascii	"|dTL|\000"
  52      7C00
  53 0066 487C4000 		.ascii	"H|@\000\000\000"
  53      0000
  54 006c 64545454 		.ascii	"dTTTH\000"
  54      4800
  55 0072 44545454 		.ascii	"DTTTl\000"
  55      6C00
  56 0078 3C207020 		.ascii	"< p  \000"
  56      2000
  57 007e 5C545454 		.ascii	"\\TTT$\000"
  57      2400
  58 0084 7C545454 		.ascii	"|TTTt\000"
  58      7400
  59 008a 04046414 		.ascii	"\004\004d\024\014\000"
  59      0C00
  60 0090 7C545454 		.ascii	"|TTT|\000"
  60      7C00
  61 0096 5C545454 		.ascii	"\\TTT|\000"
  61      7C00
  62 009c 44000000 		.ascii	"D\000\000\000\000\000"
  62      0000
  63 00a2 C4000000 		.ascii	"\304\000\000\000\000\000"
  63      0000
  64 00a8 10284400 		.ascii	"\020(D\000\000\000"
  64      0000
  65 00ae 28282828 		.ascii	"(((((\000"
  65      2800
  66 00b4 44281000 		.ascii	"D(\020\000\000\000"
  66      0000
  67 00ba 08045408 		.ascii	"\010\004T\010\000\000"
  67      0000
  68 00c0 7C445454 		.ascii	"|DTT\\\000"
  68      5C00
  69 00c6 7C242424 		.ascii	"|$$$|\000"
  69      7C00
  70 00cc 7C545454 		.ascii	"|TTTl\000"
  70      6C00
  71 00d2 7C444444 		.ascii	"|DDDD\000"
  71      4400
  72 00d8 7C444444 		.ascii	"|DDD8\000"
  72      3800
  73 00de 7C545454 		.ascii	"|TTTD\000"
  73      4400
  74 00e4 7C141414 		.ascii	"|\024\024\024\004\000"
ARM GAS  C:\Users\Morroway\AppData\Local\Temp\ccYl1imN.s 			page 3


  74      0400
  75 00ea 7C444454 		.ascii	"|DDTt\000"
  75      7400
  76 00f0 7C101010 		.ascii	"|\020\020\020|\000"
  76      7C00
  77 00f6 44447C44 		.ascii	"DD|DD\000"
  77      4400
  78 00fc 60404044 		.ascii	"`@@D|\000"
  78      7C00
  79 0102 7C101028 		.ascii	"|\020\020(D\000"
  79      4400
  80 0108 7C404040 		.ascii	"|@@@@\000"
  80      4000
  81 010e 7C081008 		.ascii	"|\010\020\010|\000"
  81      7C00
  82 0114 7C081020 		.ascii	"|\010\020 |\000"
  82      7C00
  83 011a 38444444 		.ascii	"8DDD8\000"
  83      3800
  84 0120 7C141414 		.ascii	"|\024\024\024\010\000"
  84      0800
  85 0126 3C246424 		.ascii	"<$d$<\000"
  85      3C00
  86 012c 7C141414 		.ascii	"|\024\024\024h\000"
  86      6800
  87 0132 5C545454 		.ascii	"\\TTTt\000"
  87      7400
  88 0138 04047C04 		.ascii	"\004\004|\004\004\000"
  88      0400
  89 013e 7C404040 		.ascii	"|@@@|\000"
  89      7C00
  90 0144 0C304030 		.ascii	"\0140@0\014\000"
  90      0C00
  91 014a 3C403040 		.ascii	"<@0@<\000"
  91      3C00
  92 0150 44281028 		.ascii	"D(\020(D\000"
  92      4400
  93 0156 0C106010 		.ascii	"\014\020`\020\014\000"
  93      0C00
  94 015c 4464544C 		.ascii	"DdTLD\000"
  94      4400
  95 0162 7C440000 		.ascii	"|D\000\000\000\000"
  95      0000
  96 0168 0C106000 		.ascii	"\014\020`\000\000\000"
  96      0000
  97 016e 447C0000 		.ascii	"D|\000\000\000\000"
  97      0000
  98 0174 00010001 		.ascii	"\000\001\000\001\000\000"
  98      0000
  99 017a 40404040 		.ascii	"@@@@@@"
  99      4040
 100 0180 00010000 		.ascii	"\000\001\000\000\000\000"
 100      0000
 101 0186 7C242424 		.ascii	"|$$$|\000"
 101      7C00
 102 018c 7C545454 		.ascii	"|TTTl\000"
 102      6C00
ARM GAS  C:\Users\Morroway\AppData\Local\Temp\ccYl1imN.s 			page 4


 103 0192 7C444444 		.ascii	"|DDDD\000"
 103      4400
 104 0198 7C444444 		.ascii	"|DDD8\000"
 104      3800
 105 019e 7C545454 		.ascii	"|TTTD\000"
 105      4400
 106 01a4 7C141414 		.ascii	"|\024\024\024\004\000"
 106      0400
 107 01aa 7C444454 		.ascii	"|DDTt\000"
 107      7400
 108 01b0 7C101010 		.ascii	"|\020\020\020|\000"
 108      7C00
 109 01b6 44447C44 		.ascii	"DD|DD\000"
 109      4400
 110 01bc 60404044 		.ascii	"`@@D|\000"
 110      7C00
 111 01c2 7C101028 		.ascii	"|\020\020(D\000"
 111      4400
 112 01c8 7C404040 		.ascii	"|@@@@\000"
 112      4000
 113 01ce 7C081008 		.ascii	"|\010\020\010|\000"
 113      7C00
 114 01d4 7C081020 		.ascii	"|\010\020 |\000"
 114      7C00
 115 01da 38444444 		.ascii	"8DDD8\000"
 115      3800
 116 01e0 7C141414 		.ascii	"|\024\024\024\010\000"
 116      0800
 117 01e6 3C246424 		.ascii	"<$d$<\000"
 117      3C00
 118 01ec 7C141414 		.ascii	"|\024\024\024h\000"
 118      6800
 119 01f2 5C545454 		.ascii	"\\TTTt\000"
 119      7400
 120 01f8 04047C04 		.ascii	"\004\004|\004\004\000"
 120      0400
 121 01fe 7C404040 		.ascii	"|@@@|\000"
 121      7C00
 122 0204 0C304030 		.ascii	"\0140@0\014\000"
 122      0C00
 123 020a 3C403040 		.ascii	"<@0@<\000"
 123      3C00
 124 0210 44281028 		.ascii	"D(\020(D\000"
 124      4400
 125 0216 0C106010 		.ascii	"\014\020`\020\014\000"
 125      0C00
 126 021c 4464544C 		.ascii	"DdTLD\000"
 126      4400
 127 0222 107C4400 		.ascii	"\020|D\000\000\000"
 127      0000
 128 0228 6C000000 		.ascii	"l\000\000\000\000\000"
 128      0000
 129 022e 447C1000 		.ascii	"D|\020\000\000\000"
 129      0000
 130 0234 02010201 		.ascii	"\002\001\002\001\000\000"
 130      0000
 131 023a 00000000 		.ascii	"\000\000\000\000\000\000"
ARM GAS  C:\Users\Morroway\AppData\Local\Temp\ccYl1imN.s 			page 5


 131      0000
 132              		.global	hadc1
 133              		.section	.bss.hadc1,"aw",%nobits
 134              		.align	2
 137              	hadc1:
 138 0000 00000000 		.space	104
 138      00000000 
 138      00000000 
 138      00000000 
 138      00000000 
 139              		.global	hdma_adc1
 140              		.section	.bss.hdma_adc1,"aw",%nobits
 141              		.align	2
 144              	hdma_adc1:
 145 0000 00000000 		.space	96
 145      00000000 
 145      00000000 
 145      00000000 
 145      00000000 
 146              		.global	hi2c1
 147              		.section	.bss.hi2c1,"aw",%nobits
 148              		.align	2
 151              	hi2c1:
 152 0000 00000000 		.space	84
 152      00000000 
 152      00000000 
 152      00000000 
 152      00000000 
 153              		.global	hlpuart1
 154              		.section	.bss.hlpuart1,"aw",%nobits
 155              		.align	2
 158              	hlpuart1:
 159 0000 00000000 		.space	144
 159      00000000 
 159      00000000 
 159      00000000 
 159      00000000 
 160              		.global	huart4
 161              		.section	.bss.huart4,"aw",%nobits
 162              		.align	2
 165              	huart4:
 166 0000 00000000 		.space	144
 166      00000000 
 166      00000000 
 166      00000000 
 166      00000000 
 167              		.global	hdma_lpuart1_rx
 168              		.section	.bss.hdma_lpuart1_rx,"aw",%nobits
 169              		.align	2
 172              	hdma_lpuart1_rx:
 173 0000 00000000 		.space	96
 173      00000000 
 173      00000000 
 173      00000000 
 173      00000000 
 174              		.global	hrng
 175              		.section	.bss.hrng,"aw",%nobits
ARM GAS  C:\Users\Morroway\AppData\Local\Temp\ccYl1imN.s 			page 6


 176              		.align	2
 179              	hrng:
 180 0000 00000000 		.space	20
 180      00000000 
 180      00000000 
 180      00000000 
 180      00000000 
 181              		.global	hspi1
 182              		.section	.bss.hspi1,"aw",%nobits
 183              		.align	2
 186              	hspi1:
 187 0000 00000000 		.space	100
 187      00000000 
 187      00000000 
 187      00000000 
 187      00000000 
 188              		.global	htim2
 189              		.section	.bss.htim2,"aw",%nobits
 190              		.align	2
 193              	htim2:
 194 0000 00000000 		.space	76
 194      00000000 
 194      00000000 
 194      00000000 
 194      00000000 
 195              		.global	htim3
 196              		.section	.bss.htim3,"aw",%nobits
 197              		.align	2
 200              	htim3:
 201 0000 00000000 		.space	76
 201      00000000 
 201      00000000 
 201      00000000 
 201      00000000 
 202              		.global	htim4
 203              		.section	.bss.htim4,"aw",%nobits
 204              		.align	2
 207              	htim4:
 208 0000 00000000 		.space	76
 208      00000000 
 208      00000000 
 208      00000000 
 208      00000000 
 209              		.global	htim5
 210              		.section	.bss.htim5,"aw",%nobits
 211              		.align	2
 214              	htim5:
 215 0000 00000000 		.space	76
 215      00000000 
 215      00000000 
 215      00000000 
 215      00000000 
 216              		.global	hpcd_USB_OTG_FS
 217              		.section	.bss.hpcd_USB_OTG_FS,"aw",%nobits
 218              		.align	2
 221              	hpcd_USB_OTG_FS:
 222 0000 00000000 		.space	1292
ARM GAS  C:\Users\Morroway\AppData\Local\Temp\ccYl1imN.s 			page 7


 222      00000000 
 222      00000000 
 222      00000000 
 222      00000000 
 223              		.global	step
 224              		.section	.bss.step,"aw",%nobits
 225              		.align	1
 228              	step:
 229 0000 0000     		.space	2
 230              		.global	last_time
 231              		.section	.bss.last_time,"aw",%nobits
 232              		.align	2
 235              	last_time:
 236 0000 00000000 		.space	4
 237              		.global	value
 238              		.section	.bss.value,"aw",%nobits
 239              		.align	2
 242              	value:
 243 0000 00000000 		.space	12
 243      00000000 
 243      00000000 
 244              		.global	RangingData
 245              		.section	.bss.RangingData,"aw",%nobits
 246              		.align	2
 249              	RangingData:
 250 0000 00000000 		.space	28
 250      00000000 
 250      00000000 
 250      00000000 
 250      00000000 
 251              		.global	vl53l0x_c
 252              		.section	.bss.vl53l0x_c,"aw",%nobits
 253              		.align	2
 256              	vl53l0x_c:
 257 0000 00000000 		.space	388
 257      00000000 
 257      00000000 
 257      00000000 
 257      00000000 
 258              		.global	Dev
 259              		.section	.data.Dev,"aw"
 260              		.align	2
 263              	Dev:
 264 0000 00000000 		.word	vl53l0x_c
 265              		.section	.text.HAL_UARTEx_RxEventCallback,"ax",%progbits
 266              		.align	1
 267              		.global	HAL_UARTEx_RxEventCallback
 268              		.syntax unified
 269              		.thumb
 270              		.thumb_func
 272              	HAL_UARTEx_RxEventCallback:
 273              	.LFB325:
 274              		.file 1 "Core/Src/main.c"
   1:Core/Src/main.c **** /* USER CODE BEGIN Header */
   2:Core/Src/main.c **** /**
   3:Core/Src/main.c ****  ******************************************************************************
   4:Core/Src/main.c ****  * @file           : main.c
ARM GAS  C:\Users\Morroway\AppData\Local\Temp\ccYl1imN.s 			page 8


   5:Core/Src/main.c ****  * @brief          : Main program body
   6:Core/Src/main.c ****  ******************************************************************************
   7:Core/Src/main.c ****  * @attention
   8:Core/Src/main.c ****  *
   9:Core/Src/main.c ****  * Copyright (c) 2022 STMicroelectronics.
  10:Core/Src/main.c ****  * All rights reserved.
  11:Core/Src/main.c ****  *
  12:Core/Src/main.c ****  * This software is licensed under terms that can be found in the LICENSE file
  13:Core/Src/main.c ****  * in the root directory of this software component.
  14:Core/Src/main.c ****  * If no LICENSE file comes with this software, it is provided AS-IS.
  15:Core/Src/main.c ****  *
  16:Core/Src/main.c ****  ******************************************************************************
  17:Core/Src/main.c ****  */
  18:Core/Src/main.c **** /* USER CODE END Header */
  19:Core/Src/main.c **** /* Includes ------------------------------------------------------------------*/
  20:Core/Src/main.c **** #include "main.h"
  21:Core/Src/main.c **** 
  22:Core/Src/main.c **** /* Private includes ----------------------------------------------------------*/
  23:Core/Src/main.c **** /* USER CODE BEGIN Includes */
  24:Core/Src/main.c **** #include "Functions.h"
  25:Core/Src/main.c **** #include <stdio.h>
  26:Core/Src/main.c **** #include <string.h>
  27:Core/Src/main.c **** #include <ctype.h>
  28:Core/Src/main.c **** #include "ILI9341_STM32_Driver.h"
  29:Core/Src/main.c **** #include "ILI9341_GFX.h"
  30:Core/Src/main.c **** #include "5x5_font.h"
  31:Core/Src/main.c **** #include "vl53l0x_api.h"
  32:Core/Src/main.c **** // #include "Parser.h"
  33:Core/Src/main.c **** /* USER CODE END Includes */
  34:Core/Src/main.c **** 
  35:Core/Src/main.c **** /* Private typedef -----------------------------------------------------------*/
  36:Core/Src/main.c **** /* USER CODE BEGIN PTD */
  37:Core/Src/main.c **** 
  38:Core/Src/main.c **** /* USER CODE END PTD */
  39:Core/Src/main.c **** 
  40:Core/Src/main.c **** /* Private define ------------------------------------------------------------*/
  41:Core/Src/main.c **** /* USER CODE BEGIN PD */
  42:Core/Src/main.c **** /* USER CODE END PD */
  43:Core/Src/main.c **** 
  44:Core/Src/main.c **** /* Private macro -------------------------------------------------------------*/
  45:Core/Src/main.c **** /* USER CODE BEGIN PM */
  46:Core/Src/main.c **** 
  47:Core/Src/main.c **** /* USER CODE END PM */
  48:Core/Src/main.c **** 
  49:Core/Src/main.c **** /* Private variables ---------------------------------------------------------*/
  50:Core/Src/main.c **** ADC_HandleTypeDef hadc1;
  51:Core/Src/main.c **** DMA_HandleTypeDef hdma_adc1;
  52:Core/Src/main.c **** 
  53:Core/Src/main.c **** I2C_HandleTypeDef hi2c1;
  54:Core/Src/main.c **** 
  55:Core/Src/main.c **** UART_HandleTypeDef hlpuart1;
  56:Core/Src/main.c **** UART_HandleTypeDef huart4;
  57:Core/Src/main.c **** DMA_HandleTypeDef hdma_lpuart1_rx;
  58:Core/Src/main.c **** 
  59:Core/Src/main.c **** RNG_HandleTypeDef hrng;
  60:Core/Src/main.c **** 
  61:Core/Src/main.c **** SPI_HandleTypeDef hspi1;
ARM GAS  C:\Users\Morroway\AppData\Local\Temp\ccYl1imN.s 			page 9


  62:Core/Src/main.c **** 
  63:Core/Src/main.c **** TIM_HandleTypeDef htim2;
  64:Core/Src/main.c **** TIM_HandleTypeDef htim3;
  65:Core/Src/main.c **** TIM_HandleTypeDef htim4;
  66:Core/Src/main.c **** TIM_HandleTypeDef htim5;
  67:Core/Src/main.c **** 
  68:Core/Src/main.c **** PCD_HandleTypeDef hpcd_USB_OTG_FS;
  69:Core/Src/main.c **** 
  70:Core/Src/main.c **** /* USER CODE BEGIN PV */
  71:Core/Src/main.c **** uint16_t step = 0;
  72:Core/Src/main.c **** uint32_t last_time = 0;
  73:Core/Src/main.c **** uint32_t value[ADC_CHANNELS];
  74:Core/Src/main.c **** 
  75:Core/Src/main.c **** /// @brief Distance sensor
  76:Core/Src/main.c **** 
  77:Core/Src/main.c **** VL53L0X_RangingMeasurementData_t RangingData;
  78:Core/Src/main.c **** VL53L0X_Dev_t  vl53l0x_c; // center module
  79:Core/Src/main.c **** VL53L0X_DEV    Dev = &vl53l0x_c;
  80:Core/Src/main.c **** /// 
  81:Core/Src/main.c **** 
  82:Core/Src/main.c **** /* USER CODE END PV */
  83:Core/Src/main.c **** 
  84:Core/Src/main.c **** /* Private function prototypes -----------------------------------------------*/
  85:Core/Src/main.c **** void SystemClock_Config(void);
  86:Core/Src/main.c **** static void MX_GPIO_Init(void);
  87:Core/Src/main.c **** static void MX_DMA_Init(void);
  88:Core/Src/main.c **** static void MX_LPUART1_UART_Init(void);
  89:Core/Src/main.c **** static void MX_USB_OTG_FS_PCD_Init(void);
  90:Core/Src/main.c **** static void MX_TIM4_Init(void);
  91:Core/Src/main.c **** static void MX_UART4_Init(void);
  92:Core/Src/main.c **** static void MX_TIM3_Init(void);
  93:Core/Src/main.c **** static void MX_ADC1_Init(void);
  94:Core/Src/main.c **** static void MX_TIM5_Init(void);
  95:Core/Src/main.c **** static void MX_TIM2_Init(void);
  96:Core/Src/main.c **** static void MX_SPI1_Init(void);
  97:Core/Src/main.c **** static void MX_RNG_Init(void);
  98:Core/Src/main.c **** static void MX_I2C1_Init(void);
  99:Core/Src/main.c **** /* USER CODE BEGIN PFP */
 100:Core/Src/main.c **** /* USER CODE END PFP */
 101:Core/Src/main.c **** 
 102:Core/Src/main.c **** /* Private user code ---------------------------------------------------------*/
 103:Core/Src/main.c **** /* USER CODE BEGIN 0 */
 104:Core/Src/main.c **** 
 105:Core/Src/main.c **** void HAL_UARTEx_RxEventCallback(UART_HandleTypeDef *huart, uint16_t Size)
 106:Core/Src/main.c **** {
 275              		.loc 1 106 1
 276              		.cfi_startproc
 277              		@ args = 0, pretend = 0, frame = 8
 278              		@ frame_needed = 1, uses_anonymous_args = 0
 279 0000 80B5     		push	{r7, lr}
 280              		.cfi_def_cfa_offset 8
 281              		.cfi_offset 7, -8
 282              		.cfi_offset 14, -4
 283 0002 82B0     		sub	sp, sp, #8
 284              		.cfi_def_cfa_offset 16
 285 0004 00AF     		add	r7, sp, #0
 286              		.cfi_def_cfa_register 7
ARM GAS  C:\Users\Morroway\AppData\Local\Temp\ccYl1imN.s 			page 10


 287 0006 7860     		str	r0, [r7, #4]
 288 0008 0B46     		mov	r3, r1
 289 000a 7B80     		strh	r3, [r7, #2]	@ movhi
 107:Core/Src/main.c ****   if (huart->Instance == LPUART1)
 290              		.loc 1 107 12
 291 000c 7B68     		ldr	r3, [r7, #4]
 292 000e 1B68     		ldr	r3, [r3]
 293              		.loc 1 107 6
 294 0010 094A     		ldr	r2, .L4
 295 0012 9342     		cmp	r3, r2
 296 0014 0CD1     		bne	.L3
 108:Core/Src/main.c ****   {
 109:Core/Src/main.c ****     HAL_UARTEx_ReceiveToIdle_DMA(&hlpuart1, (uint8_t *)RxBuf, RxBuf_SIZE);
 297              		.loc 1 109 5
 298 0016 1422     		movs	r2, #20
 299 0018 0849     		ldr	r1, .L4+4
 300 001a 0948     		ldr	r0, .L4+8
 301 001c FFF7FEFF 		bl	HAL_UARTEx_ReceiveToIdle_DMA
 110:Core/Src/main.c ****     __HAL_DMA_DISABLE_IT(&hdma_lpuart1_rx, DMA_IT_HT);
 302              		.loc 1 110 5
 303 0020 084B     		ldr	r3, .L4+12
 304 0022 1B68     		ldr	r3, [r3]
 305 0024 1A68     		ldr	r2, [r3]
 306 0026 074B     		ldr	r3, .L4+12
 307 0028 1B68     		ldr	r3, [r3]
 308 002a 22F00402 		bic	r2, r2, #4
 309 002e 1A60     		str	r2, [r3]
 310              	.L3:
 111:Core/Src/main.c ****   }
 112:Core/Src/main.c **** }
 311              		.loc 1 112 1
 312 0030 00BF     		nop
 313 0032 0837     		adds	r7, r7, #8
 314              		.cfi_def_cfa_offset 8
 315 0034 BD46     		mov	sp, r7
 316              		.cfi_def_cfa_register 13
 317              		@ sp needed
 318 0036 80BD     		pop	{r7, pc}
 319              	.L5:
 320              		.align	2
 321              	.L4:
 322 0038 00800040 		.word	1073774592
 323 003c 00000000 		.word	RxBuf
 324 0040 00000000 		.word	hlpuart1
 325 0044 00000000 		.word	hdma_lpuart1_rx
 326              		.cfi_endproc
 327              	.LFE325:
 329              		.section	.text.DelayMicrosecond,"ax",%progbits
 330              		.align	1
 331              		.global	DelayMicrosecond
 332              		.syntax unified
 333              		.thumb
 334              		.thumb_func
 336              	DelayMicrosecond:
 337              	.LFB326:
 113:Core/Src/main.c **** 
 114:Core/Src/main.c **** void DelayMicrosecond(uint16_t time)
ARM GAS  C:\Users\Morroway\AppData\Local\Temp\ccYl1imN.s 			page 11


 115:Core/Src/main.c **** {
 338              		.loc 1 115 1
 339              		.cfi_startproc
 340              		@ args = 0, pretend = 0, frame = 8
 341              		@ frame_needed = 1, uses_anonymous_args = 0
 342              		@ link register save eliminated.
 343 0000 80B4     		push	{r7}
 344              		.cfi_def_cfa_offset 4
 345              		.cfi_offset 7, -4
 346 0002 83B0     		sub	sp, sp, #12
 347              		.cfi_def_cfa_offset 16
 348 0004 00AF     		add	r7, sp, #0
 349              		.cfi_def_cfa_register 7
 350 0006 0346     		mov	r3, r0
 351 0008 FB80     		strh	r3, [r7, #6]	@ movhi
 116:Core/Src/main.c ****   __HAL_TIM_SET_COUNTER(&htim4, 0);
 352              		.loc 1 116 3
 353 000a 094B     		ldr	r3, .L8
 354 000c 1B68     		ldr	r3, [r3]
 355 000e 0022     		movs	r2, #0
 356 0010 5A62     		str	r2, [r3, #36]
 117:Core/Src/main.c ****   while (__HAL_TIM_GET_COUNTER(&htim4) < time)
 357              		.loc 1 117 9
 358 0012 00BF     		nop
 359              	.L7:
 360              		.loc 1 117 10 discriminator 1
 361 0014 064B     		ldr	r3, .L8
 362 0016 1B68     		ldr	r3, [r3]
 363 0018 5A6A     		ldr	r2, [r3, #36]
 364              		.loc 1 117 40 discriminator 1
 365 001a FB88     		ldrh	r3, [r7, #6]
 366 001c 9A42     		cmp	r2, r3
 367 001e F9D3     		bcc	.L7
 118:Core/Src/main.c ****     ;
 119:Core/Src/main.c **** }
 368              		.loc 1 119 1
 369 0020 00BF     		nop
 370 0022 00BF     		nop
 371 0024 0C37     		adds	r7, r7, #12
 372              		.cfi_def_cfa_offset 4
 373 0026 BD46     		mov	sp, r7
 374              		.cfi_def_cfa_register 13
 375              		@ sp needed
 376 0028 5DF8047B 		ldr	r7, [sp], #4
 377              		.cfi_restore 7
 378              		.cfi_def_cfa_offset 0
 379 002c 7047     		bx	lr
 380              	.L9:
 381 002e 00BF     		.align	2
 382              	.L8:
 383 0030 00000000 		.word	htim4
 384              		.cfi_endproc
 385              	.LFE326:
 387              		.section	.text.GetTicks,"ax",%progbits
 388              		.align	1
 389              		.global	GetTicks
 390              		.syntax unified
ARM GAS  C:\Users\Morroway\AppData\Local\Temp\ccYl1imN.s 			page 12


 391              		.thumb
 392              		.thumb_func
 394              	GetTicks:
 395              	.LFB327:
 120:Core/Src/main.c **** 
 121:Core/Src/main.c **** int GetTicks()
 122:Core/Src/main.c **** {
 396              		.loc 1 122 1
 397              		.cfi_startproc
 398              		@ args = 0, pretend = 0, frame = 0
 399              		@ frame_needed = 1, uses_anonymous_args = 0
 400              		@ link register save eliminated.
 401 0000 80B4     		push	{r7}
 402              		.cfi_def_cfa_offset 4
 403              		.cfi_offset 7, -4
 404 0002 00AF     		add	r7, sp, #0
 405              		.cfi_def_cfa_register 7
 123:Core/Src/main.c ****   return __HAL_TIM_GET_COUNTER(&htim5);
 406              		.loc 1 123 10
 407 0004 034B     		ldr	r3, .L12
 408 0006 1B68     		ldr	r3, [r3]
 409 0008 5B6A     		ldr	r3, [r3, #36]
 124:Core/Src/main.c **** }
 410              		.loc 1 124 1
 411 000a 1846     		mov	r0, r3
 412 000c BD46     		mov	sp, r7
 413              		.cfi_def_cfa_register 13
 414              		@ sp needed
 415 000e 5DF8047B 		ldr	r7, [sp], #4
 416              		.cfi_restore 7
 417              		.cfi_def_cfa_offset 0
 418 0012 7047     		bx	lr
 419              	.L13:
 420              		.align	2
 421              	.L12:
 422 0014 00000000 		.word	htim5
 423              		.cfi_endproc
 424              	.LFE327:
 426              		.section	.rodata
 427              		.align	2
 428              	.LC0:
 429 0000 74656D70 		.ascii	"temp: %f, value: %d\015\012\000"
 429      3A202566 
 429      2C207661 
 429      6C75653A 
 429      2025640D 
 430              		.section	.text.print_temperature,"ax",%progbits
 431              		.align	1
 432              		.global	print_temperature
 433              		.syntax unified
 434              		.thumb
 435              		.thumb_func
 437              	print_temperature:
 438              	.LFB328:
 125:Core/Src/main.c **** 
 126:Core/Src/main.c **** void print_temperature()
 127:Core/Src/main.c **** {
ARM GAS  C:\Users\Morroway\AppData\Local\Temp\ccYl1imN.s 			page 13


 439              		.loc 1 127 1
 440              		.cfi_startproc
 441              		@ args = 0, pretend = 0, frame = 0
 442              		@ frame_needed = 1, uses_anonymous_args = 0
 443 0000 80B5     		push	{r7, lr}
 444              		.cfi_def_cfa_offset 8
 445              		.cfi_offset 7, -8
 446              		.cfi_offset 14, -4
 447 0002 82B0     		sub	sp, sp, #8
 448              		.cfi_def_cfa_offset 16
 449 0004 02AF     		add	r7, sp, #8
 450              		.cfi_def_cfa 7, 8
 128:Core/Src/main.c ****   sprintf(msg_buffer, "temp: %f, value: %d\r\n", GetTemperature(ADC_HOT_END, value[ADC_HOT_END]), v
 451              		.loc 1 128 83
 452 0006 104B     		ldr	r3, .L15
 453 0008 5B68     		ldr	r3, [r3, #4]
 454              		.loc 1 128 3
 455 000a 9BB2     		uxth	r3, r3
 456 000c 1946     		mov	r1, r3
 457 000e 0120     		movs	r0, #1
 458 0010 FFF7FEFF 		bl	GetTemperature
 459 0014 51EC100B 		vmov	r0, r1, d0
 460 0018 0B4B     		ldr	r3, .L15
 461 001a 5B68     		ldr	r3, [r3, #4]
 462 001c 0093     		str	r3, [sp]
 463 001e 0246     		mov	r2, r0
 464 0020 0B46     		mov	r3, r1
 465 0022 0A49     		ldr	r1, .L15+4
 466 0024 0A48     		ldr	r0, .L15+8
 467 0026 FFF7FEFF 		bl	sprintf
 129:Core/Src/main.c ****   HAL_UART_Transmit(&hlpuart1, (uint16_t *)msg_buffer, strlen(msg_buffer), HAL_MAX_DELAY);
 468              		.loc 1 129 56
 469 002a 0948     		ldr	r0, .L15+8
 470 002c FFF7FEFF 		bl	strlen
 471 0030 0346     		mov	r3, r0
 472              		.loc 1 129 3
 473 0032 9AB2     		uxth	r2, r3
 474 0034 4FF0FF33 		mov	r3, #-1
 475 0038 0549     		ldr	r1, .L15+8
 476 003a 0648     		ldr	r0, .L15+12
 477 003c FFF7FEFF 		bl	HAL_UART_Transmit
 130:Core/Src/main.c **** }
 478              		.loc 1 130 1
 479 0040 00BF     		nop
 480 0042 BD46     		mov	sp, r7
 481              		.cfi_def_cfa_register 13
 482              		@ sp needed
 483 0044 80BD     		pop	{r7, pc}
 484              	.L16:
 485 0046 00BF     		.align	2
 486              	.L15:
 487 0048 00000000 		.word	value
 488 004c 00000000 		.word	.LC0
 489 0050 00000000 		.word	msg_buffer
 490 0054 00000000 		.word	hlpuart1
 491              		.cfi_endproc
 492              	.LFE328:
ARM GAS  C:\Users\Morroway\AppData\Local\Temp\ccYl1imN.s 			page 14


 494              		.section	.text.SPI_Transmit,"ax",%progbits
 495              		.align	1
 496              		.global	SPI_Transmit
 497              		.syntax unified
 498              		.thumb
 499              		.thumb_func
 501              	SPI_Transmit:
 502              	.LFB329:
 131:Core/Src/main.c **** 
 132:Core/Src/main.c **** void SPI_Transmit(uint8_t *pData, uint16_t Size, uint32_t Timeout)
 133:Core/Src/main.c **** {
 503              		.loc 1 133 1
 504              		.cfi_startproc
 505              		@ args = 0, pretend = 0, frame = 16
 506              		@ frame_needed = 1, uses_anonymous_args = 0
 507 0000 80B5     		push	{r7, lr}
 508              		.cfi_def_cfa_offset 8
 509              		.cfi_offset 7, -8
 510              		.cfi_offset 14, -4
 511 0002 84B0     		sub	sp, sp, #16
 512              		.cfi_def_cfa_offset 24
 513 0004 00AF     		add	r7, sp, #0
 514              		.cfi_def_cfa_register 7
 515 0006 F860     		str	r0, [r7, #12]
 516 0008 0B46     		mov	r3, r1
 517 000a 7A60     		str	r2, [r7, #4]
 518 000c 7B81     		strh	r3, [r7, #10]	@ movhi
 134:Core/Src/main.c ****   HAL_SPI_Transmit(&hspi1, &pData, Size, Timeout);
 519              		.loc 1 134 3
 520 000e 7A89     		ldrh	r2, [r7, #10]
 521 0010 07F10C01 		add	r1, r7, #12
 522 0014 7B68     		ldr	r3, [r7, #4]
 523 0016 0348     		ldr	r0, .L18
 524 0018 FFF7FEFF 		bl	HAL_SPI_Transmit
 135:Core/Src/main.c **** }
 525              		.loc 1 135 1
 526 001c 00BF     		nop
 527 001e 1037     		adds	r7, r7, #16
 528              		.cfi_def_cfa_offset 8
 529 0020 BD46     		mov	sp, r7
 530              		.cfi_def_cfa_register 13
 531              		@ sp needed
 532 0022 80BD     		pop	{r7, pc}
 533              	.L19:
 534              		.align	2
 535              	.L18:
 536 0024 00000000 		.word	hspi1
 537              		.cfi_endproc
 538              	.LFE329:
 540              		.section	.rodata
 541 0016 0000     		.align	2
 542              	.LC1:
 543 0018 4D656173 		.ascii	"Measured distance: %i\012\015\000"
 543      75726564 
 543      20646973 
 543      74616E63 
 543      653A2025 
ARM GAS  C:\Users\Morroway\AppData\Local\Temp\ccYl1imN.s 			page 15


 544              		.section	.text.main,"ax",%progbits
 545              		.align	1
 546              		.global	main
 547              		.syntax unified
 548              		.thumb
 549              		.thumb_func
 551              	main:
 552              	.LFB330:
 136:Core/Src/main.c **** /* USER CODE END 0 */
 137:Core/Src/main.c **** 
 138:Core/Src/main.c **** /**
 139:Core/Src/main.c ****   * @brief  The application entry point.
 140:Core/Src/main.c ****   * @retval int
 141:Core/Src/main.c ****   */
 142:Core/Src/main.c **** int main(void)
 143:Core/Src/main.c **** {
 553              		.loc 1 143 1
 554              		.cfi_startproc
 555              		@ args = 0, pretend = 0, frame = 24
 556              		@ frame_needed = 1, uses_anonymous_args = 0
 557 0000 80B5     		push	{r7, lr}
 558              		.cfi_def_cfa_offset 8
 559              		.cfi_offset 7, -8
 560              		.cfi_offset 14, -4
 561 0002 86B0     		sub	sp, sp, #24
 562              		.cfi_def_cfa_offset 32
 563 0004 00AF     		add	r7, sp, #0
 564              		.cfi_def_cfa_register 7
 144:Core/Src/main.c ****   /* USER CODE BEGIN 1 */
 145:Core/Src/main.c ****     //
 146:Core/Src/main.c ****     // VL53L0X initialisation stuff
 147:Core/Src/main.c ****     //
 148:Core/Src/main.c ****   uint32_t refSpadCount;
 149:Core/Src/main.c ****   uint8_t isApertureSpads;
 150:Core/Src/main.c ****   uint8_t VhvSettings;
 151:Core/Src/main.c ****   uint8_t PhaseCal;
 152:Core/Src/main.c ****   /* USER CODE END 1 */
 153:Core/Src/main.c **** 
 154:Core/Src/main.c ****   /* MCU Configuration--------------------------------------------------------*/
 155:Core/Src/main.c **** 
 156:Core/Src/main.c ****   /* Reset of all peripherals, Initializes the Flash interface and the Systick. */
 157:Core/Src/main.c ****   HAL_Init();
 565              		.loc 1 157 3
 566 0006 FFF7FEFF 		bl	HAL_Init
 158:Core/Src/main.c **** 
 159:Core/Src/main.c ****   /* USER CODE BEGIN Init */
 160:Core/Src/main.c **** 
 161:Core/Src/main.c ****   /* USER CODE END Init */
 162:Core/Src/main.c **** 
 163:Core/Src/main.c ****   /* Configure the system clock */
 164:Core/Src/main.c ****   SystemClock_Config();
 567              		.loc 1 164 3
 568 000a FFF7FEFF 		bl	SystemClock_Config
 165:Core/Src/main.c **** 
 166:Core/Src/main.c ****   /* USER CODE BEGIN SysInit */
 167:Core/Src/main.c **** 
 168:Core/Src/main.c ****   /* USER CODE END SysInit */
ARM GAS  C:\Users\Morroway\AppData\Local\Temp\ccYl1imN.s 			page 16


 169:Core/Src/main.c **** 
 170:Core/Src/main.c ****   /* Initialize all configured peripherals */
 171:Core/Src/main.c ****   MX_GPIO_Init();
 569              		.loc 1 171 3
 570 000e FFF7FEFF 		bl	MX_GPIO_Init
 172:Core/Src/main.c ****   MX_DMA_Init();
 571              		.loc 1 172 3
 572 0012 FFF7FEFF 		bl	MX_DMA_Init
 173:Core/Src/main.c ****   MX_LPUART1_UART_Init();
 573              		.loc 1 173 3
 574 0016 FFF7FEFF 		bl	MX_LPUART1_UART_Init
 174:Core/Src/main.c ****   MX_USB_OTG_FS_PCD_Init();
 575              		.loc 1 174 3
 576 001a FFF7FEFF 		bl	MX_USB_OTG_FS_PCD_Init
 175:Core/Src/main.c ****   MX_TIM4_Init();
 577              		.loc 1 175 3
 578 001e FFF7FEFF 		bl	MX_TIM4_Init
 176:Core/Src/main.c ****   MX_UART4_Init();
 579              		.loc 1 176 3
 580 0022 FFF7FEFF 		bl	MX_UART4_Init
 177:Core/Src/main.c ****   MX_TIM3_Init();
 581              		.loc 1 177 3
 582 0026 FFF7FEFF 		bl	MX_TIM3_Init
 178:Core/Src/main.c ****   MX_ADC1_Init();
 583              		.loc 1 178 3
 584 002a FFF7FEFF 		bl	MX_ADC1_Init
 179:Core/Src/main.c ****   MX_TIM5_Init();
 585              		.loc 1 179 3
 586 002e FFF7FEFF 		bl	MX_TIM5_Init
 180:Core/Src/main.c ****   MX_TIM2_Init();
 587              		.loc 1 180 3
 588 0032 FFF7FEFF 		bl	MX_TIM2_Init
 181:Core/Src/main.c ****   MX_SPI1_Init();
 589              		.loc 1 181 3
 590 0036 FFF7FEFF 		bl	MX_SPI1_Init
 182:Core/Src/main.c ****   MX_RNG_Init();
 591              		.loc 1 182 3
 592 003a FFF7FEFF 		bl	MX_RNG_Init
 183:Core/Src/main.c ****   MX_I2C1_Init();
 593              		.loc 1 183 3
 594 003e FFF7FEFF 		bl	MX_I2C1_Init
 184:Core/Src/main.c ****   /* USER CODE BEGIN 2 */
 185:Core/Src/main.c ****   HAL_TIM_PWM_Start(&htim3, TIM_CHANNEL_1);
 595              		.loc 1 185 3
 596 0042 0021     		movs	r1, #0
 597 0044 8448     		ldr	r0, .L26
 598 0046 FFF7FEFF 		bl	HAL_TIM_PWM_Start
 186:Core/Src/main.c ****   HAL_TIM_PWM_Start(&htim3, TIM_CHANNEL_2);
 599              		.loc 1 186 3
 600 004a 0421     		movs	r1, #4
 601 004c 8248     		ldr	r0, .L26
 602 004e FFF7FEFF 		bl	HAL_TIM_PWM_Start
 187:Core/Src/main.c ****   HAL_TIM_PWM_Start(&htim3, TIM_CHANNEL_3);
 603              		.loc 1 187 3
 604 0052 0821     		movs	r1, #8
 605 0054 8048     		ldr	r0, .L26
 606 0056 FFF7FEFF 		bl	HAL_TIM_PWM_Start
ARM GAS  C:\Users\Morroway\AppData\Local\Temp\ccYl1imN.s 			page 17


 188:Core/Src/main.c ****   HAL_ADC_Start_DMA(&hadc1, value, ADC_CHANNELS);
 607              		.loc 1 188 3
 608 005a 0322     		movs	r2, #3
 609 005c 7F49     		ldr	r1, .L26+4
 610 005e 8048     		ldr	r0, .L26+8
 611 0060 FFF7FEFF 		bl	HAL_ADC_Start_DMA
 189:Core/Src/main.c ****   HAL_TIM_Base_Start(&htim4);
 612              		.loc 1 189 3
 613 0064 7F48     		ldr	r0, .L26+12
 614 0066 FFF7FEFF 		bl	HAL_TIM_Base_Start
 190:Core/Src/main.c ****   HAL_TIM_Base_Start(&htim5);
 615              		.loc 1 190 3
 616 006a 7F48     		ldr	r0, .L26+16
 617 006c FFF7FEFF 		bl	HAL_TIM_Base_Start
 191:Core/Src/main.c ****   HAL_UARTEx_ReceiveToIdle_DMA(&hlpuart1, RxBuf, RxBuf_SIZE);
 618              		.loc 1 191 3
 619 0070 1422     		movs	r2, #20
 620 0072 7E49     		ldr	r1, .L26+20
 621 0074 7E48     		ldr	r0, .L26+24
 622 0076 FFF7FEFF 		bl	HAL_UARTEx_ReceiveToIdle_DMA
 192:Core/Src/main.c ****   __HAL_DMA_DISABLE_IT(&hdma_lpuart1_rx, DMA_IT_HT);
 623              		.loc 1 192 3
 624 007a 7E4B     		ldr	r3, .L26+28
 625 007c 1B68     		ldr	r3, [r3]
 626 007e 1A68     		ldr	r2, [r3]
 627 0080 7C4B     		ldr	r3, .L26+28
 628 0082 1B68     		ldr	r3, [r3]
 629 0084 22F00402 		bic	r2, r2, #4
 630 0088 1A60     		str	r2, [r3]
 193:Core/Src/main.c ****   memset(&RxBuf[0], 0, sizeof(RxBuf));
 631              		.loc 1 193 3
 632 008a 1422     		movs	r2, #20
 633 008c 0021     		movs	r1, #0
 634 008e 7748     		ldr	r0, .L26+20
 635 0090 FFF7FEFF 		bl	memset
 194:Core/Src/main.c ****   reset_args();
 636              		.loc 1 194 3
 637 0094 FFF7FEFF 		bl	reset_args
 195:Core/Src/main.c ****   int steps = 0;
 638              		.loc 1 195 7
 639 0098 0023     		movs	r3, #0
 640 009a 7B61     		str	r3, [r7, #20]
 196:Core/Src/main.c ****   uint32_t lasttimeX = 0;
 641              		.loc 1 196 12
 642 009c 0023     		movs	r3, #0
 643 009e FB60     		str	r3, [r7, #12]
 197:Core/Src/main.c ****   uint32_t lasttimeY = 0;
 644              		.loc 1 197 12
 645 00a0 0023     		movs	r3, #0
 646 00a2 3B61     		str	r3, [r7, #16]
 198:Core/Src/main.c ****   ILI9341_Init();
 647              		.loc 1 198 3
 648 00a4 FFF7FEFF 		bl	ILI9341_Init
 199:Core/Src/main.c ****     //
 200:Core/Src/main.c ****     // Distance sensor
 201:Core/Src/main.c ****     //
 202:Core/Src/main.c **** 
ARM GAS  C:\Users\Morroway\AppData\Local\Temp\ccYl1imN.s 			page 18


 203:Core/Src/main.c ****   //Dev->I2cHandle = &hi2c1;
 204:Core/Src/main.c ****   Dev->I2cDevAddr = 0x52;
 649              		.loc 1 204 6
 650 00a8 734B     		ldr	r3, .L26+32
 651 00aa 1B68     		ldr	r3, [r3]
 652              		.loc 1 204 19
 653 00ac 5222     		movs	r2, #82
 654 00ae 83F88021 		strb	r2, [r3, #384]
 205:Core/Src/main.c **** 
 206:Core/Src/main.c ****   HAL_GPIO_WritePin(GPIOF, GPIO_PIN_10, GPIO_PIN_RESET); // Disable XSHUT
 655              		.loc 1 206 3
 656 00b2 0022     		movs	r2, #0
 657 00b4 4FF48061 		mov	r1, #1024
 658 00b8 7048     		ldr	r0, .L26+36
 659 00ba FFF7FEFF 		bl	HAL_GPIO_WritePin
 207:Core/Src/main.c ****   HAL_Delay(20);
 660              		.loc 1 207 3
 661 00be 1420     		movs	r0, #20
 662 00c0 FFF7FEFF 		bl	HAL_Delay
 208:Core/Src/main.c ****   HAL_GPIO_WritePin(GPIOF, GPIO_PIN_10, GPIO_PIN_SET); // Enable XSHUT
 663              		.loc 1 208 3
 664 00c4 0122     		movs	r2, #1
 665 00c6 4FF48061 		mov	r1, #1024
 666 00ca 6C48     		ldr	r0, .L26+36
 667 00cc FFF7FEFF 		bl	HAL_GPIO_WritePin
 209:Core/Src/main.c ****   HAL_Delay(20);
 668              		.loc 1 209 3
 669 00d0 1420     		movs	r0, #20
 670 00d2 FFF7FEFF 		bl	HAL_Delay
 210:Core/Src/main.c **** 
 211:Core/Src/main.c ****    //
 212:Core/Src/main.c ****   // VL53L0X init for Single Measurement
 213:Core/Src/main.c ****   //
 214:Core/Src/main.c **** 
 215:Core/Src/main.c ****   VL53L0X_WaitDeviceBooted( Dev );
 671              		.loc 1 215 3
 672 00d6 684B     		ldr	r3, .L26+32
 673 00d8 1B68     		ldr	r3, [r3]
 674 00da 1846     		mov	r0, r3
 675 00dc FFF7FEFF 		bl	VL53L0X_WaitDeviceBooted
 216:Core/Src/main.c ****   VL53L0X_DataInit( Dev );
 676              		.loc 1 216 3
 677 00e0 654B     		ldr	r3, .L26+32
 678 00e2 1B68     		ldr	r3, [r3]
 679 00e4 1846     		mov	r0, r3
 680 00e6 FFF7FEFF 		bl	VL53L0X_DataInit
 217:Core/Src/main.c ****   VL53L0X_StaticInit( Dev );
 681              		.loc 1 217 3
 682 00ea 634B     		ldr	r3, .L26+32
 683 00ec 1B68     		ldr	r3, [r3]
 684 00ee 1846     		mov	r0, r3
 685 00f0 FFF7FEFF 		bl	VL53L0X_StaticInit
 218:Core/Src/main.c ****   VL53L0X_PerformRefCalibration(Dev, &VhvSettings, &PhaseCal);
 686              		.loc 1 218 3
 687 00f4 604B     		ldr	r3, .L26+32
 688 00f6 1B68     		ldr	r3, [r3]
 689 00f8 7A1D     		adds	r2, r7, #5
ARM GAS  C:\Users\Morroway\AppData\Local\Temp\ccYl1imN.s 			page 19


 690 00fa B91D     		adds	r1, r7, #6
 691 00fc 1846     		mov	r0, r3
 692 00fe FFF7FEFF 		bl	VL53L0X_PerformRefCalibration
 219:Core/Src/main.c ****   VL53L0X_PerformRefSpadManagement(Dev, &refSpadCount, &isApertureSpads);
 693              		.loc 1 219 3
 694 0102 5D4B     		ldr	r3, .L26+32
 695 0104 1B68     		ldr	r3, [r3]
 696 0106 FA1D     		adds	r2, r7, #7
 697 0108 07F10801 		add	r1, r7, #8
 698 010c 1846     		mov	r0, r3
 699 010e FFF7FEFF 		bl	VL53L0X_PerformRefSpadManagement
 220:Core/Src/main.c ****   VL53L0X_SetDeviceMode(Dev, VL53L0X_DEVICEMODE_SINGLE_RANGING);
 700              		.loc 1 220 3
 701 0112 594B     		ldr	r3, .L26+32
 702 0114 1B68     		ldr	r3, [r3]
 703 0116 0021     		movs	r1, #0
 704 0118 1846     		mov	r0, r3
 705 011a FFF7FEFF 		bl	VL53L0X_SetDeviceMode
 221:Core/Src/main.c **** 
 222:Core/Src/main.c ****   // Enable/Disable Sigma and Signal check
 223:Core/Src/main.c ****   VL53L0X_SetLimitCheckEnable(Dev, VL53L0X_CHECKENABLE_SIGMA_FINAL_RANGE, 1);
 706              		.loc 1 223 3
 707 011e 564B     		ldr	r3, .L26+32
 708 0120 1B68     		ldr	r3, [r3]
 709 0122 0122     		movs	r2, #1
 710 0124 0021     		movs	r1, #0
 711 0126 1846     		mov	r0, r3
 712 0128 FFF7FEFF 		bl	VL53L0X_SetLimitCheckEnable
 224:Core/Src/main.c ****   VL53L0X_SetLimitCheckEnable(Dev, VL53L0X_CHECKENABLE_SIGNAL_RATE_FINAL_RANGE, 1);
 713              		.loc 1 224 3
 714 012c 524B     		ldr	r3, .L26+32
 715 012e 1B68     		ldr	r3, [r3]
 716 0130 0122     		movs	r2, #1
 717 0132 0121     		movs	r1, #1
 718 0134 1846     		mov	r0, r3
 719 0136 FFF7FEFF 		bl	VL53L0X_SetLimitCheckEnable
 225:Core/Src/main.c ****   VL53L0X_SetLimitCheckValue(Dev, VL53L0X_CHECKENABLE_SIGNAL_RATE_FINAL_RANGE, (FixPoint1616_t)(0.1
 720              		.loc 1 225 3
 721 013a 4F4B     		ldr	r3, .L26+32
 722 013c 1B68     		ldr	r3, [r3]
 723 013e 41F69912 		movw	r2, #6553
 724 0142 0121     		movs	r1, #1
 725 0144 1846     		mov	r0, r3
 726 0146 FFF7FEFF 		bl	VL53L0X_SetLimitCheckValue
 226:Core/Src/main.c ****   VL53L0X_SetLimitCheckValue(Dev, VL53L0X_CHECKENABLE_SIGMA_FINAL_RANGE, (FixPoint1616_t)(60*65536)
 727              		.loc 1 226 3
 728 014a 4B4B     		ldr	r3, .L26+32
 729 014c 1B68     		ldr	r3, [r3]
 730 014e 4FF47012 		mov	r2, #3932160
 731 0152 0021     		movs	r1, #0
 732 0154 1846     		mov	r0, r3
 733 0156 FFF7FEFF 		bl	VL53L0X_SetLimitCheckValue
 227:Core/Src/main.c ****   VL53L0X_SetMeasurementTimingBudgetMicroSeconds(Dev, 33000);
 734              		.loc 1 227 3
 735 015a 474B     		ldr	r3, .L26+32
 736 015c 1B68     		ldr	r3, [r3]
 737 015e 48F2E801 		movw	r1, #33000
ARM GAS  C:\Users\Morroway\AppData\Local\Temp\ccYl1imN.s 			page 20


 738 0162 1846     		mov	r0, r3
 739 0164 FFF7FEFF 		bl	VL53L0X_SetMeasurementTimingBudgetMicroSeconds
 228:Core/Src/main.c ****   VL53L0X_SetVcselPulsePeriod(Dev, VL53L0X_VCSEL_PERIOD_PRE_RANGE, 18);
 740              		.loc 1 228 3
 741 0168 434B     		ldr	r3, .L26+32
 742 016a 1B68     		ldr	r3, [r3]
 743 016c 1222     		movs	r2, #18
 744 016e 0021     		movs	r1, #0
 745 0170 1846     		mov	r0, r3
 746 0172 FFF7FEFF 		bl	VL53L0X_SetVcselPulsePeriod
 229:Core/Src/main.c ****   VL53L0X_SetVcselPulsePeriod(Dev, VL53L0X_VCSEL_PERIOD_FINAL_RANGE, 14);
 747              		.loc 1 229 3
 748 0176 404B     		ldr	r3, .L26+32
 749 0178 1B68     		ldr	r3, [r3]
 750 017a 0E22     		movs	r2, #14
 751 017c 0121     		movs	r1, #1
 752 017e 1846     		mov	r0, r3
 753 0180 FFF7FEFF 		bl	VL53L0X_SetVcselPulsePeriod
 754              	.L25:
 230:Core/Src/main.c ****   /* USER CODE END 2 */
 231:Core/Src/main.c **** 
 232:Core/Src/main.c ****   /* Infinite loop */
 233:Core/Src/main.c ****   /* USER CODE BEGIN WHILE */
 234:Core/Src/main.c ****   while (1)
 235:Core/Src/main.c ****   {
 236:Core/Src/main.c ****     // ILI9341_Set_Address(0,0,320,240);	
 237:Core/Src/main.c ****     // ILI9341_Draw_Colour_Burst(MAGENTA, 320*240);
 238:Core/Src/main.c ****         ILI9341_Set_Rotation(SCREEN_HORIZONTAL_2);
 755              		.loc 1 238 9
 756 0184 0320     		movs	r0, #3
 757 0186 FFF7FEFF 		bl	ILI9341_Set_Rotation
 239:Core/Src/main.c ****     ILI9341_Fill_Screen(WHITE);
 758              		.loc 1 239 5
 759 018a 4FF6FF70 		movw	r0, #65535
 760 018e FFF7FEFF 		bl	ILI9341_Fill_Screen
 240:Core/Src/main.c ****     VL53L0X_PerformSingleRangingMeasurement(Dev, &RangingData);
 761              		.loc 1 240 5
 762 0192 394B     		ldr	r3, .L26+32
 763 0194 1B68     		ldr	r3, [r3]
 764 0196 3A49     		ldr	r1, .L26+40
 765 0198 1846     		mov	r0, r3
 766 019a FFF7FEFF 		bl	VL53L0X_PerformSingleRangingMeasurement
 241:Core/Src/main.c **** 
 242:Core/Src/main.c **** 	  if(RangingData.RangeStatus == 0)
 767              		.loc 1 242 18
 768 019e 384B     		ldr	r3, .L26+40
 769 01a0 1B7E     		ldrb	r3, [r3, #24]	@ zero_extendqisi2
 770              		.loc 1 242 6
 771 01a2 002B     		cmp	r3, #0
 772 01a4 10D1     		bne	.L21
 243:Core/Src/main.c **** 	  {
 244:Core/Src/main.c **** 		  sprintf((char*)msg_buffer, "Measured distance: %i\n\r", RangingData.RangeMilliMeter);
 773              		.loc 1 244 72
 774 01a6 364B     		ldr	r3, .L26+40
 775 01a8 1B89     		ldrh	r3, [r3, #8]
 776              		.loc 1 244 5
 777 01aa 1A46     		mov	r2, r3
ARM GAS  C:\Users\Morroway\AppData\Local\Temp\ccYl1imN.s 			page 21


 778 01ac 3549     		ldr	r1, .L26+44
 779 01ae 3648     		ldr	r0, .L26+48
 780 01b0 FFF7FEFF 		bl	sprintf
 245:Core/Src/main.c **** 		  HAL_UART_Transmit(&hlpuart1, (uint16_t *)msg_buffer, strlen(msg_buffer), 100);
 781              		.loc 1 245 58
 782 01b4 3448     		ldr	r0, .L26+48
 783 01b6 FFF7FEFF 		bl	strlen
 784 01ba 0346     		mov	r3, r0
 785              		.loc 1 245 5
 786 01bc 9AB2     		uxth	r2, r3
 787 01be 6423     		movs	r3, #100
 788 01c0 3149     		ldr	r1, .L26+48
 789 01c2 2B48     		ldr	r0, .L26+24
 790 01c4 FFF7FEFF 		bl	HAL_UART_Transmit
 791              	.L21:
 246:Core/Src/main.c **** 	  }
 247:Core/Src/main.c ****     // ILI9341_Draw_Text("KURWA", 10, 10, BLACK, 4, WHITE);
 248:Core/Src/main.c ****     // ILI9341_Draw_Filled_Rectangle_Coord(0, 100, 200, 130, BLACK);
 249:Core/Src/main.c ****     
 250:Core/Src/main.c ****     
 251:Core/Src/main.c ****     HAL_Delay(3000);
 792              		.loc 1 251 5
 793 01c8 40F6B830 		movw	r0, #3000
 794 01cc FFF7FEFF 		bl	HAL_Delay
 252:Core/Src/main.c **** 
 253:Core/Src/main.c ****     if(READ_PIN(X_STOP_PIN) != 1 && READ_PIN(Y_STOP_PIN) != 1) {
 795              		.loc 1 253 8
 796 01d0 1021     		movs	r1, #16
 797 01d2 2A48     		ldr	r0, .L26+36
 798 01d4 FFF7FEFF 		bl	HAL_GPIO_ReadPin
 799 01d8 0346     		mov	r3, r0
 800              		.loc 1 253 7
 801 01da 012B     		cmp	r3, #1
 802 01dc 08D0     		beq	.L22
 803              		.loc 1 253 37 discriminator 1
 804 01de 2021     		movs	r1, #32
 805 01e0 2648     		ldr	r0, .L26+36
 806 01e2 FFF7FEFF 		bl	HAL_GPIO_ReadPin
 807 01e6 0346     		mov	r3, r0
 808              		.loc 1 253 34 discriminator 1
 809 01e8 012B     		cmp	r3, #1
 810 01ea 01D0     		beq	.L22
 254:Core/Src/main.c ****       G0();
 811              		.loc 1 254 7
 812 01ec FFF7FEFF 		bl	G0
 813              	.L22:
 255:Core/Src/main.c ****     }
 256:Core/Src/main.c ****     M104();
 814              		.loc 1 256 5
 815 01f0 FFF7FEFF 		bl	M104
 257:Core/Src/main.c ****     if (steps <= 6500)
 816              		.loc 1 257 8
 817 01f4 7B69     		ldr	r3, [r7, #20]
 818 01f6 41F66412 		movw	r2, #6500
 819 01fa 9342     		cmp	r3, r2
 820 01fc 10DC     		bgt	.L23
 258:Core/Src/main.c ****     {
ARM GAS  C:\Users\Morroway\AppData\Local\Temp\ccYl1imN.s 			page 22


 259:Core/Src/main.c ****       CHANGE_MOTOR_DIR(Z_AXIS_DIR, COUNTERCLOCKWISE);
 821              		.loc 1 259 7
 822 01fe 0122     		movs	r2, #1
 823 0200 4FF48071 		mov	r1, #256
 824 0204 1D48     		ldr	r0, .L26+36
 825 0206 FFF7FEFF 		bl	HAL_GPIO_WritePin
 260:Core/Src/main.c ****       MAKE_MOTOR_STEP(Z_AXIS_STEP);
 826              		.loc 1 260 7
 827 020a 0221     		movs	r1, #2
 828 020c 1F48     		ldr	r0, .L26+52
 829 020e FFF7FEFF 		bl	HAL_GPIO_TogglePin
 261:Core/Src/main.c ****       DelayMicrosecond(600);
 830              		.loc 1 261 7
 831 0212 4FF41670 		mov	r0, #600
 832 0216 FFF7FEFF 		bl	DelayMicrosecond
 262:Core/Src/main.c ****       steps++;
 833              		.loc 1 262 12
 834 021a 7B69     		ldr	r3, [r7, #20]
 835 021c 0133     		adds	r3, r3, #1
 836 021e 7B61     		str	r3, [r7, #20]
 837              	.L23:
 263:Core/Src/main.c ****     }
 264:Core/Src/main.c ****     if(READ_PIN(USER_BUTTON) == 1)
 838              		.loc 1 264 8
 839 0220 4FF40051 		mov	r1, #8192
 840 0224 1A48     		ldr	r0, .L26+56
 841 0226 FFF7FEFF 		bl	HAL_GPIO_ReadPin
 842 022a 0346     		mov	r3, r0
 843              		.loc 1 264 7
 844 022c 012B     		cmp	r3, #1
 845 022e A9D1     		bne	.L25
 265:Core/Src/main.c ****     {
 266:Core/Src/main.c ****       //CHANGE_MOTOR_DIR(Y_AXIS_DIR, COUNTERCLOCKWISE);
 267:Core/Src/main.c ****       // if(GetTicks() - lasttimeX >= 800)
 268:Core/Src/main.c ****       // {
 269:Core/Src/main.c ****       //     MAKE_MOTOR_STEP(X_AXIS_STEP);
 270:Core/Src/main.c ****       //     lasttimeX = GetTicks();
 271:Core/Src/main.c ****       // }
 272:Core/Src/main.c ****       if(GetTicks() - lasttimeY >= 2000)
 846              		.loc 1 272 10
 847 0230 FFF7FEFF 		bl	GetTicks
 848 0234 0346     		mov	r3, r0
 849 0236 1A46     		mov	r2, r3
 850              		.loc 1 272 21
 851 0238 3B69     		ldr	r3, [r7, #16]
 852 023a D31A     		subs	r3, r2, r3
 853              		.loc 1 272 9
 854 023c B3F5FA6F 		cmp	r3, #2000
 855 0240 A0D3     		bcc	.L25
 273:Core/Src/main.c ****       {
 274:Core/Src/main.c ****           MAKE_MOTOR_STEP(Y_AXIS_STEP);
 856              		.loc 1 274 11
 857 0242 8021     		movs	r1, #128
 858 0244 4FF09040 		mov	r0, #1207959552
 859 0248 FFF7FEFF 		bl	HAL_GPIO_TogglePin
 275:Core/Src/main.c ****           lasttimeY = GetTicks();
 860              		.loc 1 275 23
ARM GAS  C:\Users\Morroway\AppData\Local\Temp\ccYl1imN.s 			page 23


 861 024c FFF7FEFF 		bl	GetTicks
 862 0250 0346     		mov	r3, r0
 863              		.loc 1 275 21
 864 0252 3B61     		str	r3, [r7, #16]
 238:Core/Src/main.c ****     ILI9341_Fill_Screen(WHITE);
 865              		.loc 1 238 9
 866 0254 96E7     		b	.L25
 867              	.L27:
 868 0256 00BF     		.align	2
 869              	.L26:
 870 0258 00000000 		.word	htim3
 871 025c 00000000 		.word	value
 872 0260 00000000 		.word	hadc1
 873 0264 00000000 		.word	htim4
 874 0268 00000000 		.word	htim5
 875 026c 00000000 		.word	RxBuf
 876 0270 00000000 		.word	hlpuart1
 877 0274 00000000 		.word	hdma_lpuart1_rx
 878 0278 00000000 		.word	Dev
 879 027c 00140048 		.word	1207964672
 880 0280 00000000 		.word	RangingData
 881 0284 18000000 		.word	.LC1
 882 0288 00000000 		.word	msg_buffer
 883 028c 00040048 		.word	1207960576
 884 0290 00080048 		.word	1207961600
 885              		.cfi_endproc
 886              	.LFE330:
 888              		.section	.text.SystemClock_Config,"ax",%progbits
 889              		.align	1
 890              		.global	SystemClock_Config
 891              		.syntax unified
 892              		.thumb
 893              		.thumb_func
 895              	SystemClock_Config:
 896              	.LFB331:
 276:Core/Src/main.c ****       }
 277:Core/Src/main.c ****     }
 278:Core/Src/main.c ****     /* USER CODE END WHILE */
 279:Core/Src/main.c **** 
 280:Core/Src/main.c ****     /* USER CODE BEGIN 3 */
 281:Core/Src/main.c ****   }
 282:Core/Src/main.c ****   /* USER CODE END 3 */
 283:Core/Src/main.c **** }
 284:Core/Src/main.c **** 
 285:Core/Src/main.c **** /**
 286:Core/Src/main.c ****   * @brief System Clock Configuration
 287:Core/Src/main.c ****   * @retval None
 288:Core/Src/main.c ****   */
 289:Core/Src/main.c **** void SystemClock_Config(void)
 290:Core/Src/main.c **** {
 897              		.loc 1 290 1
 898              		.cfi_startproc
 899              		@ args = 0, pretend = 0, frame = 96
 900              		@ frame_needed = 1, uses_anonymous_args = 0
 901 0000 80B5     		push	{r7, lr}
 902              		.cfi_def_cfa_offset 8
 903              		.cfi_offset 7, -8
ARM GAS  C:\Users\Morroway\AppData\Local\Temp\ccYl1imN.s 			page 24


 904              		.cfi_offset 14, -4
 905 0002 98B0     		sub	sp, sp, #96
 906              		.cfi_def_cfa_offset 104
 907 0004 00AF     		add	r7, sp, #0
 908              		.cfi_def_cfa_register 7
 291:Core/Src/main.c ****   RCC_OscInitTypeDef RCC_OscInitStruct = {0};
 909              		.loc 1 291 22
 910 0006 07F11803 		add	r3, r7, #24
 911 000a 4822     		movs	r2, #72
 912 000c 0021     		movs	r1, #0
 913 000e 1846     		mov	r0, r3
 914 0010 FFF7FEFF 		bl	memset
 292:Core/Src/main.c ****   RCC_ClkInitTypeDef RCC_ClkInitStruct = {0};
 915              		.loc 1 292 22
 916 0014 3B1D     		adds	r3, r7, #4
 917 0016 0022     		movs	r2, #0
 918 0018 1A60     		str	r2, [r3]
 919 001a 5A60     		str	r2, [r3, #4]
 920 001c 9A60     		str	r2, [r3, #8]
 921 001e DA60     		str	r2, [r3, #12]
 922 0020 1A61     		str	r2, [r3, #16]
 293:Core/Src/main.c **** 
 294:Core/Src/main.c ****   /** Configure the main internal regulator output voltage
 295:Core/Src/main.c ****   */
 296:Core/Src/main.c ****   if (HAL_PWREx_ControlVoltageScaling(PWR_REGULATOR_VOLTAGE_SCALE1_BOOST) != HAL_OK)
 923              		.loc 1 296 7
 924 0022 0020     		movs	r0, #0
 925 0024 FFF7FEFF 		bl	HAL_PWREx_ControlVoltageScaling
 926 0028 0346     		mov	r3, r0
 927              		.loc 1 296 6
 928 002a 002B     		cmp	r3, #0
 929 002c 01D0     		beq	.L29
 297:Core/Src/main.c ****   {
 298:Core/Src/main.c ****     Error_Handler();
 930              		.loc 1 298 5
 931 002e FFF7FEFF 		bl	Error_Handler
 932              	.L29:
 299:Core/Src/main.c ****   }
 300:Core/Src/main.c **** 
 301:Core/Src/main.c ****   /** Initializes the RCC Oscillators according to the specified parameters
 302:Core/Src/main.c ****   * in the RCC_OscInitTypeDef structure.
 303:Core/Src/main.c ****   */
 304:Core/Src/main.c ****   RCC_OscInitStruct.OscillatorType = RCC_OSCILLATORTYPE_HSI48|RCC_OSCILLATORTYPE_MSI;
 933              		.loc 1 304 36
 934 0032 3023     		movs	r3, #48
 935 0034 BB61     		str	r3, [r7, #24]
 305:Core/Src/main.c ****   RCC_OscInitStruct.HSI48State = RCC_HSI48_ON;
 936              		.loc 1 305 32
 937 0036 0123     		movs	r3, #1
 938 0038 3B64     		str	r3, [r7, #64]
 306:Core/Src/main.c ****   RCC_OscInitStruct.MSIState = RCC_MSI_ON;
 939              		.loc 1 306 30
 940 003a 0123     		movs	r3, #1
 941 003c 7B63     		str	r3, [r7, #52]
 307:Core/Src/main.c ****   RCC_OscInitStruct.MSICalibrationValue = 0;
 942              		.loc 1 307 41
 943 003e 0023     		movs	r3, #0
ARM GAS  C:\Users\Morroway\AppData\Local\Temp\ccYl1imN.s 			page 25


 944 0040 BB63     		str	r3, [r7, #56]
 308:Core/Src/main.c ****   RCC_OscInitStruct.MSIClockRange = RCC_MSIRANGE_6;
 945              		.loc 1 308 35
 946 0042 6023     		movs	r3, #96
 947 0044 FB63     		str	r3, [r7, #60]
 309:Core/Src/main.c ****   RCC_OscInitStruct.PLL.PLLState = RCC_PLL_ON;
 948              		.loc 1 309 34
 949 0046 0223     		movs	r3, #2
 950 0048 7B64     		str	r3, [r7, #68]
 310:Core/Src/main.c ****   RCC_OscInitStruct.PLL.PLLSource = RCC_PLLSOURCE_MSI;
 951              		.loc 1 310 35
 952 004a 0123     		movs	r3, #1
 953 004c BB64     		str	r3, [r7, #72]
 311:Core/Src/main.c ****   RCC_OscInitStruct.PLL.PLLM = 1;
 954              		.loc 1 311 30
 955 004e 0123     		movs	r3, #1
 956 0050 FB64     		str	r3, [r7, #76]
 312:Core/Src/main.c ****   RCC_OscInitStruct.PLL.PLLN = 60;
 957              		.loc 1 312 30
 958 0052 3C23     		movs	r3, #60
 959 0054 3B65     		str	r3, [r7, #80]
 313:Core/Src/main.c ****   RCC_OscInitStruct.PLL.PLLP = RCC_PLLP_DIV2;
 960              		.loc 1 313 30
 961 0056 0223     		movs	r3, #2
 962 0058 7B65     		str	r3, [r7, #84]
 314:Core/Src/main.c ****   RCC_OscInitStruct.PLL.PLLQ = RCC_PLLQ_DIV2;
 963              		.loc 1 314 30
 964 005a 0223     		movs	r3, #2
 965 005c BB65     		str	r3, [r7, #88]
 315:Core/Src/main.c ****   RCC_OscInitStruct.PLL.PLLR = RCC_PLLR_DIV2;
 966              		.loc 1 315 30
 967 005e 0223     		movs	r3, #2
 968 0060 FB65     		str	r3, [r7, #92]
 316:Core/Src/main.c ****   if (HAL_RCC_OscConfig(&RCC_OscInitStruct) != HAL_OK)
 969              		.loc 1 316 7
 970 0062 07F11803 		add	r3, r7, #24
 971 0066 1846     		mov	r0, r3
 972 0068 FFF7FEFF 		bl	HAL_RCC_OscConfig
 973 006c 0346     		mov	r3, r0
 974              		.loc 1 316 6
 975 006e 002B     		cmp	r3, #0
 976 0070 01D0     		beq	.L30
 317:Core/Src/main.c ****   {
 318:Core/Src/main.c ****     Error_Handler();
 977              		.loc 1 318 5
 978 0072 FFF7FEFF 		bl	Error_Handler
 979              	.L30:
 319:Core/Src/main.c ****   }
 320:Core/Src/main.c **** 
 321:Core/Src/main.c ****   /** Initializes the CPU, AHB and APB buses clocks
 322:Core/Src/main.c ****   */
 323:Core/Src/main.c ****   RCC_ClkInitStruct.ClockType = RCC_CLOCKTYPE_HCLK|RCC_CLOCKTYPE_SYSCLK
 980              		.loc 1 323 31
 981 0076 0F23     		movs	r3, #15
 982 0078 7B60     		str	r3, [r7, #4]
 324:Core/Src/main.c ****                               |RCC_CLOCKTYPE_PCLK1|RCC_CLOCKTYPE_PCLK2;
 325:Core/Src/main.c ****   RCC_ClkInitStruct.SYSCLKSource = RCC_SYSCLKSOURCE_PLLCLK;
ARM GAS  C:\Users\Morroway\AppData\Local\Temp\ccYl1imN.s 			page 26


 983              		.loc 1 325 34
 984 007a 0323     		movs	r3, #3
 985 007c BB60     		str	r3, [r7, #8]
 326:Core/Src/main.c ****   RCC_ClkInitStruct.AHBCLKDivider = RCC_SYSCLK_DIV1;
 986              		.loc 1 326 35
 987 007e 0023     		movs	r3, #0
 988 0080 FB60     		str	r3, [r7, #12]
 327:Core/Src/main.c ****   RCC_ClkInitStruct.APB1CLKDivider = RCC_HCLK_DIV1;
 989              		.loc 1 327 36
 990 0082 0023     		movs	r3, #0
 991 0084 3B61     		str	r3, [r7, #16]
 328:Core/Src/main.c ****   RCC_ClkInitStruct.APB2CLKDivider = RCC_HCLK_DIV1;
 992              		.loc 1 328 36
 993 0086 0023     		movs	r3, #0
 994 0088 7B61     		str	r3, [r7, #20]
 329:Core/Src/main.c **** 
 330:Core/Src/main.c ****   if (HAL_RCC_ClockConfig(&RCC_ClkInitStruct, FLASH_LATENCY_5) != HAL_OK)
 995              		.loc 1 330 7
 996 008a 3B1D     		adds	r3, r7, #4
 997 008c 0521     		movs	r1, #5
 998 008e 1846     		mov	r0, r3
 999 0090 FFF7FEFF 		bl	HAL_RCC_ClockConfig
 1000 0094 0346     		mov	r3, r0
 1001              		.loc 1 330 6
 1002 0096 002B     		cmp	r3, #0
 1003 0098 01D0     		beq	.L32
 331:Core/Src/main.c ****   {
 332:Core/Src/main.c ****     Error_Handler();
 1004              		.loc 1 332 5
 1005 009a FFF7FEFF 		bl	Error_Handler
 1006              	.L32:
 333:Core/Src/main.c ****   }
 334:Core/Src/main.c **** }
 1007              		.loc 1 334 1
 1008 009e 00BF     		nop
 1009 00a0 6037     		adds	r7, r7, #96
 1010              		.cfi_def_cfa_offset 8
 1011 00a2 BD46     		mov	sp, r7
 1012              		.cfi_def_cfa_register 13
 1013              		@ sp needed
 1014 00a4 80BD     		pop	{r7, pc}
 1015              		.cfi_endproc
 1016              	.LFE331:
 1018              		.section	.text.MX_ADC1_Init,"ax",%progbits
 1019              		.align	1
 1020              		.syntax unified
 1021              		.thumb
 1022              		.thumb_func
 1024              	MX_ADC1_Init:
 1025              	.LFB332:
 335:Core/Src/main.c **** 
 336:Core/Src/main.c **** /**
 337:Core/Src/main.c ****   * @brief ADC1 Initialization Function
 338:Core/Src/main.c ****   * @param None
 339:Core/Src/main.c ****   * @retval None
 340:Core/Src/main.c ****   */
 341:Core/Src/main.c **** static void MX_ADC1_Init(void)
ARM GAS  C:\Users\Morroway\AppData\Local\Temp\ccYl1imN.s 			page 27


 342:Core/Src/main.c **** {
 1026              		.loc 1 342 1
 1027              		.cfi_startproc
 1028              		@ args = 0, pretend = 0, frame = 40
 1029              		@ frame_needed = 1, uses_anonymous_args = 0
 1030 0000 80B5     		push	{r7, lr}
 1031              		.cfi_def_cfa_offset 8
 1032              		.cfi_offset 7, -8
 1033              		.cfi_offset 14, -4
 1034 0002 8AB0     		sub	sp, sp, #40
 1035              		.cfi_def_cfa_offset 48
 1036 0004 00AF     		add	r7, sp, #0
 1037              		.cfi_def_cfa_register 7
 343:Core/Src/main.c **** 
 344:Core/Src/main.c ****   /* USER CODE BEGIN ADC1_Init 0 */
 345:Core/Src/main.c **** 
 346:Core/Src/main.c ****   /* USER CODE END ADC1_Init 0 */
 347:Core/Src/main.c **** 
 348:Core/Src/main.c ****   ADC_MultiModeTypeDef multimode = {0};
 1038              		.loc 1 348 24
 1039 0006 07F11C03 		add	r3, r7, #28
 1040 000a 0022     		movs	r2, #0
 1041 000c 1A60     		str	r2, [r3]
 1042 000e 5A60     		str	r2, [r3, #4]
 1043 0010 9A60     		str	r2, [r3, #8]
 349:Core/Src/main.c ****   ADC_ChannelConfTypeDef sConfig = {0};
 1044              		.loc 1 349 26
 1045 0012 3B1D     		adds	r3, r7, #4
 1046 0014 0022     		movs	r2, #0
 1047 0016 1A60     		str	r2, [r3]
 1048 0018 5A60     		str	r2, [r3, #4]
 1049 001a 9A60     		str	r2, [r3, #8]
 1050 001c DA60     		str	r2, [r3, #12]
 1051 001e 1A61     		str	r2, [r3, #16]
 1052 0020 5A61     		str	r2, [r3, #20]
 350:Core/Src/main.c **** 
 351:Core/Src/main.c ****   /* USER CODE BEGIN ADC1_Init 1 */
 352:Core/Src/main.c **** 
 353:Core/Src/main.c ****   /* USER CODE END ADC1_Init 1 */
 354:Core/Src/main.c **** 
 355:Core/Src/main.c ****   /** Common config
 356:Core/Src/main.c ****   */
 357:Core/Src/main.c ****   hadc1.Instance = ADC1;
 1053              		.loc 1 357 18
 1054 0022 434B     		ldr	r3, .L40
 1055 0024 434A     		ldr	r2, .L40+4
 1056 0026 1A60     		str	r2, [r3]
 358:Core/Src/main.c ****   hadc1.Init.ClockPrescaler = ADC_CLOCK_ASYNC_DIV1;
 1057              		.loc 1 358 29
 1058 0028 414B     		ldr	r3, .L40
 1059 002a 0022     		movs	r2, #0
 1060 002c 5A60     		str	r2, [r3, #4]
 359:Core/Src/main.c ****   hadc1.Init.Resolution = ADC_RESOLUTION_12B;
 1061              		.loc 1 359 25
 1062 002e 404B     		ldr	r3, .L40
 1063 0030 0022     		movs	r2, #0
 1064 0032 9A60     		str	r2, [r3, #8]
ARM GAS  C:\Users\Morroway\AppData\Local\Temp\ccYl1imN.s 			page 28


 360:Core/Src/main.c ****   hadc1.Init.DataAlign = ADC_DATAALIGN_RIGHT;
 1065              		.loc 1 360 24
 1066 0034 3E4B     		ldr	r3, .L40
 1067 0036 0022     		movs	r2, #0
 1068 0038 DA60     		str	r2, [r3, #12]
 361:Core/Src/main.c ****   hadc1.Init.ScanConvMode = ADC_SCAN_ENABLE;
 1069              		.loc 1 361 27
 1070 003a 3D4B     		ldr	r3, .L40
 1071 003c 0122     		movs	r2, #1
 1072 003e 1A61     		str	r2, [r3, #16]
 362:Core/Src/main.c ****   hadc1.Init.EOCSelection = ADC_EOC_SINGLE_CONV;
 1073              		.loc 1 362 27
 1074 0040 3B4B     		ldr	r3, .L40
 1075 0042 0422     		movs	r2, #4
 1076 0044 5A61     		str	r2, [r3, #20]
 363:Core/Src/main.c ****   hadc1.Init.LowPowerAutoWait = DISABLE;
 1077              		.loc 1 363 31
 1078 0046 3A4B     		ldr	r3, .L40
 1079 0048 0022     		movs	r2, #0
 1080 004a 1A76     		strb	r2, [r3, #24]
 364:Core/Src/main.c ****   hadc1.Init.ContinuousConvMode = ENABLE;
 1081              		.loc 1 364 33
 1082 004c 384B     		ldr	r3, .L40
 1083 004e 0122     		movs	r2, #1
 1084 0050 5A76     		strb	r2, [r3, #25]
 365:Core/Src/main.c ****   hadc1.Init.NbrOfConversion = 3;
 1085              		.loc 1 365 30
 1086 0052 374B     		ldr	r3, .L40
 1087 0054 0322     		movs	r2, #3
 1088 0056 DA61     		str	r2, [r3, #28]
 366:Core/Src/main.c ****   hadc1.Init.DiscontinuousConvMode = DISABLE;
 1089              		.loc 1 366 36
 1090 0058 354B     		ldr	r3, .L40
 1091 005a 0022     		movs	r2, #0
 1092 005c 83F82020 		strb	r2, [r3, #32]
 367:Core/Src/main.c ****   hadc1.Init.ExternalTrigConv = ADC_SOFTWARE_START;
 1093              		.loc 1 367 31
 1094 0060 334B     		ldr	r3, .L40
 1095 0062 0022     		movs	r2, #0
 1096 0064 9A62     		str	r2, [r3, #40]
 368:Core/Src/main.c ****   hadc1.Init.ExternalTrigConvEdge = ADC_EXTERNALTRIGCONVEDGE_NONE;
 1097              		.loc 1 368 35
 1098 0066 324B     		ldr	r3, .L40
 1099 0068 0022     		movs	r2, #0
 1100 006a DA62     		str	r2, [r3, #44]
 369:Core/Src/main.c ****   hadc1.Init.DMAContinuousRequests = ENABLE;
 1101              		.loc 1 369 36
 1102 006c 304B     		ldr	r3, .L40
 1103 006e 0122     		movs	r2, #1
 1104 0070 83F83020 		strb	r2, [r3, #48]
 370:Core/Src/main.c ****   hadc1.Init.Overrun = ADC_OVR_DATA_PRESERVED;
 1105              		.loc 1 370 22
 1106 0074 2E4B     		ldr	r3, .L40
 1107 0076 0022     		movs	r2, #0
 1108 0078 5A63     		str	r2, [r3, #52]
 371:Core/Src/main.c ****   hadc1.Init.OversamplingMode = ENABLE;
 1109              		.loc 1 371 31
ARM GAS  C:\Users\Morroway\AppData\Local\Temp\ccYl1imN.s 			page 29


 1110 007a 2D4B     		ldr	r3, .L40
 1111 007c 0122     		movs	r2, #1
 1112 007e 83F83820 		strb	r2, [r3, #56]
 372:Core/Src/main.c ****   hadc1.Init.Oversampling.Ratio = ADC_OVERSAMPLING_RATIO_16;
 1113              		.loc 1 372 33
 1114 0082 2B4B     		ldr	r3, .L40
 1115 0084 0C22     		movs	r2, #12
 1116 0086 DA63     		str	r2, [r3, #60]
 373:Core/Src/main.c ****   hadc1.Init.Oversampling.RightBitShift = ADC_RIGHTBITSHIFT_NONE;
 1117              		.loc 1 373 41
 1118 0088 294B     		ldr	r3, .L40
 1119 008a 0022     		movs	r2, #0
 1120 008c 1A64     		str	r2, [r3, #64]
 374:Core/Src/main.c ****   hadc1.Init.Oversampling.TriggeredMode = ADC_TRIGGEREDMODE_SINGLE_TRIGGER;
 1121              		.loc 1 374 41
 1122 008e 284B     		ldr	r3, .L40
 1123 0090 0022     		movs	r2, #0
 1124 0092 5A64     		str	r2, [r3, #68]
 375:Core/Src/main.c ****   hadc1.Init.Oversampling.OversamplingStopReset = ADC_REGOVERSAMPLING_CONTINUED_MODE;
 1125              		.loc 1 375 49
 1126 0094 264B     		ldr	r3, .L40
 1127 0096 0122     		movs	r2, #1
 1128 0098 9A64     		str	r2, [r3, #72]
 376:Core/Src/main.c ****   if (HAL_ADC_Init(&hadc1) != HAL_OK)
 1129              		.loc 1 376 7
 1130 009a 2548     		ldr	r0, .L40
 1131 009c FFF7FEFF 		bl	HAL_ADC_Init
 1132 00a0 0346     		mov	r3, r0
 1133              		.loc 1 376 6
 1134 00a2 002B     		cmp	r3, #0
 1135 00a4 01D0     		beq	.L34
 377:Core/Src/main.c ****   {
 378:Core/Src/main.c ****     Error_Handler();
 1136              		.loc 1 378 5
 1137 00a6 FFF7FEFF 		bl	Error_Handler
 1138              	.L34:
 379:Core/Src/main.c ****   }
 380:Core/Src/main.c **** 
 381:Core/Src/main.c ****   /** Configure the ADC multi-mode
 382:Core/Src/main.c ****   */
 383:Core/Src/main.c ****   multimode.Mode = ADC_MODE_INDEPENDENT;
 1139              		.loc 1 383 18
 1140 00aa 0023     		movs	r3, #0
 1141 00ac FB61     		str	r3, [r7, #28]
 384:Core/Src/main.c ****   if (HAL_ADCEx_MultiModeConfigChannel(&hadc1, &multimode) != HAL_OK)
 1142              		.loc 1 384 7
 1143 00ae 07F11C03 		add	r3, r7, #28
 1144 00b2 1946     		mov	r1, r3
 1145 00b4 1E48     		ldr	r0, .L40
 1146 00b6 FFF7FEFF 		bl	HAL_ADCEx_MultiModeConfigChannel
 1147 00ba 0346     		mov	r3, r0
 1148              		.loc 1 384 6
 1149 00bc 002B     		cmp	r3, #0
 1150 00be 01D0     		beq	.L35
 385:Core/Src/main.c ****   {
 386:Core/Src/main.c ****     Error_Handler();
 1151              		.loc 1 386 5
ARM GAS  C:\Users\Morroway\AppData\Local\Temp\ccYl1imN.s 			page 30


 1152 00c0 FFF7FEFF 		bl	Error_Handler
 1153              	.L35:
 387:Core/Src/main.c ****   }
 388:Core/Src/main.c **** 
 389:Core/Src/main.c ****   /** Configure Regular Channel
 390:Core/Src/main.c ****   */
 391:Core/Src/main.c ****   sConfig.Channel = ADC_CHANNEL_1;
 1154              		.loc 1 391 19
 1155 00c4 1C4B     		ldr	r3, .L40+8
 1156 00c6 7B60     		str	r3, [r7, #4]
 392:Core/Src/main.c ****   sConfig.Rank = ADC_REGULAR_RANK_1;
 1157              		.loc 1 392 16
 1158 00c8 0623     		movs	r3, #6
 1159 00ca BB60     		str	r3, [r7, #8]
 393:Core/Src/main.c ****   sConfig.SamplingTime = ADC_SAMPLETIME_247CYCLES_5;
 1160              		.loc 1 393 24
 1161 00cc 0623     		movs	r3, #6
 1162 00ce FB60     		str	r3, [r7, #12]
 394:Core/Src/main.c ****   sConfig.SingleDiff = ADC_SINGLE_ENDED;
 1163              		.loc 1 394 22
 1164 00d0 7F23     		movs	r3, #127
 1165 00d2 3B61     		str	r3, [r7, #16]
 395:Core/Src/main.c ****   sConfig.OffsetNumber = ADC_OFFSET_NONE;
 1166              		.loc 1 395 24
 1167 00d4 0423     		movs	r3, #4
 1168 00d6 7B61     		str	r3, [r7, #20]
 396:Core/Src/main.c ****   sConfig.Offset = 0;
 1169              		.loc 1 396 18
 1170 00d8 0023     		movs	r3, #0
 1171 00da BB61     		str	r3, [r7, #24]
 397:Core/Src/main.c ****   if (HAL_ADC_ConfigChannel(&hadc1, &sConfig) != HAL_OK)
 1172              		.loc 1 397 7
 1173 00dc 3B1D     		adds	r3, r7, #4
 1174 00de 1946     		mov	r1, r3
 1175 00e0 1348     		ldr	r0, .L40
 1176 00e2 FFF7FEFF 		bl	HAL_ADC_ConfigChannel
 1177 00e6 0346     		mov	r3, r0
 1178              		.loc 1 397 6
 1179 00e8 002B     		cmp	r3, #0
 1180 00ea 01D0     		beq	.L36
 398:Core/Src/main.c ****   {
 399:Core/Src/main.c ****     Error_Handler();
 1181              		.loc 1 399 5
 1182 00ec FFF7FEFF 		bl	Error_Handler
 1183              	.L36:
 400:Core/Src/main.c ****   }
 401:Core/Src/main.c **** 
 402:Core/Src/main.c ****   /** Configure Regular Channel
 403:Core/Src/main.c ****   */
 404:Core/Src/main.c ****   sConfig.Channel = ADC_CHANNEL_2;
 1184              		.loc 1 404 19
 1185 00f0 124B     		ldr	r3, .L40+12
 1186 00f2 7B60     		str	r3, [r7, #4]
 405:Core/Src/main.c ****   sConfig.Rank = ADC_REGULAR_RANK_2;
 1187              		.loc 1 405 16
 1188 00f4 0C23     		movs	r3, #12
 1189 00f6 BB60     		str	r3, [r7, #8]
ARM GAS  C:\Users\Morroway\AppData\Local\Temp\ccYl1imN.s 			page 31


 406:Core/Src/main.c ****   if (HAL_ADC_ConfigChannel(&hadc1, &sConfig) != HAL_OK)
 1190              		.loc 1 406 7
 1191 00f8 3B1D     		adds	r3, r7, #4
 1192 00fa 1946     		mov	r1, r3
 1193 00fc 0C48     		ldr	r0, .L40
 1194 00fe FFF7FEFF 		bl	HAL_ADC_ConfigChannel
 1195 0102 0346     		mov	r3, r0
 1196              		.loc 1 406 6
 1197 0104 002B     		cmp	r3, #0
 1198 0106 01D0     		beq	.L37
 407:Core/Src/main.c ****   {
 408:Core/Src/main.c ****     Error_Handler();
 1199              		.loc 1 408 5
 1200 0108 FFF7FEFF 		bl	Error_Handler
 1201              	.L37:
 409:Core/Src/main.c ****   }
 410:Core/Src/main.c **** 
 411:Core/Src/main.c ****   /** Configure Regular Channel
 412:Core/Src/main.c ****   */
 413:Core/Src/main.c ****   sConfig.Channel = ADC_CHANNEL_TEMPSENSOR;
 1202              		.loc 1 413 19
 1203 010c 0C4B     		ldr	r3, .L40+16
 1204 010e 7B60     		str	r3, [r7, #4]
 414:Core/Src/main.c ****   sConfig.Rank = ADC_REGULAR_RANK_3;
 1205              		.loc 1 414 16
 1206 0110 1223     		movs	r3, #18
 1207 0112 BB60     		str	r3, [r7, #8]
 415:Core/Src/main.c ****   if (HAL_ADC_ConfigChannel(&hadc1, &sConfig) != HAL_OK)
 1208              		.loc 1 415 7
 1209 0114 3B1D     		adds	r3, r7, #4
 1210 0116 1946     		mov	r1, r3
 1211 0118 0548     		ldr	r0, .L40
 1212 011a FFF7FEFF 		bl	HAL_ADC_ConfigChannel
 1213 011e 0346     		mov	r3, r0
 1214              		.loc 1 415 6
 1215 0120 002B     		cmp	r3, #0
 1216 0122 01D0     		beq	.L39
 416:Core/Src/main.c ****   {
 417:Core/Src/main.c ****     Error_Handler();
 1217              		.loc 1 417 5
 1218 0124 FFF7FEFF 		bl	Error_Handler
 1219              	.L39:
 418:Core/Src/main.c ****   }
 419:Core/Src/main.c ****   /* USER CODE BEGIN ADC1_Init 2 */
 420:Core/Src/main.c **** 
 421:Core/Src/main.c ****   /* USER CODE END ADC1_Init 2 */
 422:Core/Src/main.c **** 
 423:Core/Src/main.c **** }
 1220              		.loc 1 423 1
 1221 0128 00BF     		nop
 1222 012a 2837     		adds	r7, r7, #40
 1223              		.cfi_def_cfa_offset 8
 1224 012c BD46     		mov	sp, r7
 1225              		.cfi_def_cfa_register 13
 1226              		@ sp needed
 1227 012e 80BD     		pop	{r7, pc}
 1228              	.L41:
ARM GAS  C:\Users\Morroway\AppData\Local\Temp\ccYl1imN.s 			page 32


 1229              		.align	2
 1230              	.L40:
 1231 0130 00000000 		.word	hadc1
 1232 0134 00000450 		.word	1342439424
 1233 0138 02003004 		.word	70254594
 1234 013c 04006008 		.word	140509188
 1235 0140 000052C7 		.word	-950927360
 1236              		.cfi_endproc
 1237              	.LFE332:
 1239              		.section	.text.MX_I2C1_Init,"ax",%progbits
 1240              		.align	1
 1241              		.syntax unified
 1242              		.thumb
 1243              		.thumb_func
 1245              	MX_I2C1_Init:
 1246              	.LFB333:
 424:Core/Src/main.c **** 
 425:Core/Src/main.c **** /**
 426:Core/Src/main.c ****   * @brief I2C1 Initialization Function
 427:Core/Src/main.c ****   * @param None
 428:Core/Src/main.c ****   * @retval None
 429:Core/Src/main.c ****   */
 430:Core/Src/main.c **** static void MX_I2C1_Init(void)
 431:Core/Src/main.c **** {
 1247              		.loc 1 431 1
 1248              		.cfi_startproc
 1249              		@ args = 0, pretend = 0, frame = 0
 1250              		@ frame_needed = 1, uses_anonymous_args = 0
 1251 0000 80B5     		push	{r7, lr}
 1252              		.cfi_def_cfa_offset 8
 1253              		.cfi_offset 7, -8
 1254              		.cfi_offset 14, -4
 1255 0002 00AF     		add	r7, sp, #0
 1256              		.cfi_def_cfa_register 7
 432:Core/Src/main.c **** 
 433:Core/Src/main.c ****   /* USER CODE BEGIN I2C1_Init 0 */
 434:Core/Src/main.c **** 
 435:Core/Src/main.c ****   /* USER CODE END I2C1_Init 0 */
 436:Core/Src/main.c **** 
 437:Core/Src/main.c ****   /* USER CODE BEGIN I2C1_Init 1 */
 438:Core/Src/main.c **** 
 439:Core/Src/main.c ****   /* USER CODE END I2C1_Init 1 */
 440:Core/Src/main.c ****   hi2c1.Instance = I2C1;
 1257              		.loc 1 440 18
 1258 0004 1B4B     		ldr	r3, .L47
 1259 0006 1C4A     		ldr	r2, .L47+4
 1260 0008 1A60     		str	r2, [r3]
 441:Core/Src/main.c ****   hi2c1.Init.Timing = 0x00B03FDB;
 1261              		.loc 1 441 21
 1262 000a 1A4B     		ldr	r3, .L47
 1263 000c 1B4A     		ldr	r2, .L47+8
 1264 000e 5A60     		str	r2, [r3, #4]
 442:Core/Src/main.c ****   hi2c1.Init.OwnAddress1 = 0;
 1265              		.loc 1 442 26
 1266 0010 184B     		ldr	r3, .L47
 1267 0012 0022     		movs	r2, #0
 1268 0014 9A60     		str	r2, [r3, #8]
ARM GAS  C:\Users\Morroway\AppData\Local\Temp\ccYl1imN.s 			page 33


 443:Core/Src/main.c ****   hi2c1.Init.AddressingMode = I2C_ADDRESSINGMODE_7BIT;
 1269              		.loc 1 443 29
 1270 0016 174B     		ldr	r3, .L47
 1271 0018 0122     		movs	r2, #1
 1272 001a DA60     		str	r2, [r3, #12]
 444:Core/Src/main.c ****   hi2c1.Init.DualAddressMode = I2C_DUALADDRESS_DISABLE;
 1273              		.loc 1 444 30
 1274 001c 154B     		ldr	r3, .L47
 1275 001e 0022     		movs	r2, #0
 1276 0020 1A61     		str	r2, [r3, #16]
 445:Core/Src/main.c ****   hi2c1.Init.OwnAddress2 = 0;
 1277              		.loc 1 445 26
 1278 0022 144B     		ldr	r3, .L47
 1279 0024 0022     		movs	r2, #0
 1280 0026 5A61     		str	r2, [r3, #20]
 446:Core/Src/main.c ****   hi2c1.Init.OwnAddress2Masks = I2C_OA2_NOMASK;
 1281              		.loc 1 446 31
 1282 0028 124B     		ldr	r3, .L47
 1283 002a 0022     		movs	r2, #0
 1284 002c 9A61     		str	r2, [r3, #24]
 447:Core/Src/main.c ****   hi2c1.Init.GeneralCallMode = I2C_GENERALCALL_DISABLE;
 1285              		.loc 1 447 30
 1286 002e 114B     		ldr	r3, .L47
 1287 0030 0022     		movs	r2, #0
 1288 0032 DA61     		str	r2, [r3, #28]
 448:Core/Src/main.c ****   hi2c1.Init.NoStretchMode = I2C_NOSTRETCH_DISABLE;
 1289              		.loc 1 448 28
 1290 0034 0F4B     		ldr	r3, .L47
 1291 0036 0022     		movs	r2, #0
 1292 0038 1A62     		str	r2, [r3, #32]
 449:Core/Src/main.c ****   if (HAL_I2C_Init(&hi2c1) != HAL_OK)
 1293              		.loc 1 449 7
 1294 003a 0E48     		ldr	r0, .L47
 1295 003c FFF7FEFF 		bl	HAL_I2C_Init
 1296 0040 0346     		mov	r3, r0
 1297              		.loc 1 449 6
 1298 0042 002B     		cmp	r3, #0
 1299 0044 01D0     		beq	.L43
 450:Core/Src/main.c ****   {
 451:Core/Src/main.c ****     Error_Handler();
 1300              		.loc 1 451 5
 1301 0046 FFF7FEFF 		bl	Error_Handler
 1302              	.L43:
 452:Core/Src/main.c ****   }
 453:Core/Src/main.c **** 
 454:Core/Src/main.c ****   /** Configure Analogue filter
 455:Core/Src/main.c ****   */
 456:Core/Src/main.c ****   if (HAL_I2CEx_ConfigAnalogFilter(&hi2c1, I2C_ANALOGFILTER_ENABLE) != HAL_OK)
 1303              		.loc 1 456 7
 1304 004a 0021     		movs	r1, #0
 1305 004c 0948     		ldr	r0, .L47
 1306 004e FFF7FEFF 		bl	HAL_I2CEx_ConfigAnalogFilter
 1307 0052 0346     		mov	r3, r0
 1308              		.loc 1 456 6
 1309 0054 002B     		cmp	r3, #0
 1310 0056 01D0     		beq	.L44
 457:Core/Src/main.c ****   {
ARM GAS  C:\Users\Morroway\AppData\Local\Temp\ccYl1imN.s 			page 34


 458:Core/Src/main.c ****     Error_Handler();
 1311              		.loc 1 458 5
 1312 0058 FFF7FEFF 		bl	Error_Handler
 1313              	.L44:
 459:Core/Src/main.c ****   }
 460:Core/Src/main.c **** 
 461:Core/Src/main.c ****   /** Configure Digital filter
 462:Core/Src/main.c ****   */
 463:Core/Src/main.c ****   if (HAL_I2CEx_ConfigDigitalFilter(&hi2c1, 0) != HAL_OK)
 1314              		.loc 1 463 7
 1315 005c 0021     		movs	r1, #0
 1316 005e 0548     		ldr	r0, .L47
 1317 0060 FFF7FEFF 		bl	HAL_I2CEx_ConfigDigitalFilter
 1318 0064 0346     		mov	r3, r0
 1319              		.loc 1 463 6
 1320 0066 002B     		cmp	r3, #0
 1321 0068 01D0     		beq	.L46
 464:Core/Src/main.c ****   {
 465:Core/Src/main.c ****     Error_Handler();
 1322              		.loc 1 465 5
 1323 006a FFF7FEFF 		bl	Error_Handler
 1324              	.L46:
 466:Core/Src/main.c ****   }
 467:Core/Src/main.c ****   /* USER CODE BEGIN I2C1_Init 2 */
 468:Core/Src/main.c **** 
 469:Core/Src/main.c ****   /* USER CODE END I2C1_Init 2 */
 470:Core/Src/main.c **** 
 471:Core/Src/main.c **** }
 1325              		.loc 1 471 1
 1326 006e 00BF     		nop
 1327 0070 80BD     		pop	{r7, pc}
 1328              	.L48:
 1329 0072 00BF     		.align	2
 1330              	.L47:
 1331 0074 00000000 		.word	hi2c1
 1332 0078 00540040 		.word	1073763328
 1333 007c DB3FB000 		.word	11550683
 1334              		.cfi_endproc
 1335              	.LFE333:
 1337              		.section	.text.MX_LPUART1_UART_Init,"ax",%progbits
 1338              		.align	1
 1339              		.syntax unified
 1340              		.thumb
 1341              		.thumb_func
 1343              	MX_LPUART1_UART_Init:
 1344              	.LFB334:
 472:Core/Src/main.c **** 
 473:Core/Src/main.c **** /**
 474:Core/Src/main.c ****   * @brief LPUART1 Initialization Function
 475:Core/Src/main.c ****   * @param None
 476:Core/Src/main.c ****   * @retval None
 477:Core/Src/main.c ****   */
 478:Core/Src/main.c **** static void MX_LPUART1_UART_Init(void)
 479:Core/Src/main.c **** {
 1345              		.loc 1 479 1
 1346              		.cfi_startproc
 1347              		@ args = 0, pretend = 0, frame = 0
ARM GAS  C:\Users\Morroway\AppData\Local\Temp\ccYl1imN.s 			page 35


 1348              		@ frame_needed = 1, uses_anonymous_args = 0
 1349 0000 80B5     		push	{r7, lr}
 1350              		.cfi_def_cfa_offset 8
 1351              		.cfi_offset 7, -8
 1352              		.cfi_offset 14, -4
 1353 0002 00AF     		add	r7, sp, #0
 1354              		.cfi_def_cfa_register 7
 480:Core/Src/main.c **** 
 481:Core/Src/main.c ****   /* USER CODE BEGIN LPUART1_Init 0 */
 482:Core/Src/main.c **** 
 483:Core/Src/main.c ****   /* USER CODE END LPUART1_Init 0 */
 484:Core/Src/main.c **** 
 485:Core/Src/main.c ****   /* USER CODE BEGIN LPUART1_Init 1 */
 486:Core/Src/main.c **** 
 487:Core/Src/main.c ****   /* USER CODE END LPUART1_Init 1 */
 488:Core/Src/main.c ****   hlpuart1.Instance = LPUART1;
 1355              		.loc 1 488 21
 1356 0004 244B     		ldr	r3, .L55
 1357 0006 254A     		ldr	r2, .L55+4
 1358 0008 1A60     		str	r2, [r3]
 489:Core/Src/main.c ****   hlpuart1.Init.BaudRate = 115200;
 1359              		.loc 1 489 26
 1360 000a 234B     		ldr	r3, .L55
 1361 000c 4FF4E132 		mov	r2, #115200
 1362 0010 5A60     		str	r2, [r3, #4]
 490:Core/Src/main.c ****   hlpuart1.Init.WordLength = UART_WORDLENGTH_8B;
 1363              		.loc 1 490 28
 1364 0012 214B     		ldr	r3, .L55
 1365 0014 0022     		movs	r2, #0
 1366 0016 9A60     		str	r2, [r3, #8]
 491:Core/Src/main.c ****   hlpuart1.Init.StopBits = UART_STOPBITS_1;
 1367              		.loc 1 491 26
 1368 0018 1F4B     		ldr	r3, .L55
 1369 001a 0022     		movs	r2, #0
 1370 001c DA60     		str	r2, [r3, #12]
 492:Core/Src/main.c ****   hlpuart1.Init.Parity = UART_PARITY_NONE;
 1371              		.loc 1 492 24
 1372 001e 1E4B     		ldr	r3, .L55
 1373 0020 0022     		movs	r2, #0
 1374 0022 1A61     		str	r2, [r3, #16]
 493:Core/Src/main.c ****   hlpuart1.Init.Mode = UART_MODE_TX_RX;
 1375              		.loc 1 493 22
 1376 0024 1C4B     		ldr	r3, .L55
 1377 0026 0C22     		movs	r2, #12
 1378 0028 5A61     		str	r2, [r3, #20]
 494:Core/Src/main.c ****   hlpuart1.Init.HwFlowCtl = UART_HWCONTROL_NONE;
 1379              		.loc 1 494 27
 1380 002a 1B4B     		ldr	r3, .L55
 1381 002c 0022     		movs	r2, #0
 1382 002e 9A61     		str	r2, [r3, #24]
 495:Core/Src/main.c ****   hlpuart1.Init.OneBitSampling = UART_ONE_BIT_SAMPLE_DISABLE;
 1383              		.loc 1 495 32
 1384 0030 194B     		ldr	r3, .L55
 1385 0032 0022     		movs	r2, #0
 1386 0034 1A62     		str	r2, [r3, #32]
 496:Core/Src/main.c ****   hlpuart1.Init.ClockPrescaler = UART_PRESCALER_DIV1;
 1387              		.loc 1 496 32
ARM GAS  C:\Users\Morroway\AppData\Local\Temp\ccYl1imN.s 			page 36


 1388 0036 184B     		ldr	r3, .L55
 1389 0038 0022     		movs	r2, #0
 1390 003a 5A62     		str	r2, [r3, #36]
 497:Core/Src/main.c ****   hlpuart1.AdvancedInit.AdvFeatureInit = UART_ADVFEATURE_RXOVERRUNDISABLE_INIT;
 1391              		.loc 1 497 40
 1392 003c 164B     		ldr	r3, .L55
 1393 003e 1022     		movs	r2, #16
 1394 0040 9A62     		str	r2, [r3, #40]
 498:Core/Src/main.c ****   hlpuart1.AdvancedInit.OverrunDisable = UART_ADVFEATURE_OVERRUN_DISABLE;
 1395              		.loc 1 498 40
 1396 0042 154B     		ldr	r3, .L55
 1397 0044 4FF48052 		mov	r2, #4096
 1398 0048 DA63     		str	r2, [r3, #60]
 499:Core/Src/main.c ****   hlpuart1.FifoMode = UART_FIFOMODE_DISABLE;
 1399              		.loc 1 499 21
 1400 004a 134B     		ldr	r3, .L55
 1401 004c 0022     		movs	r2, #0
 1402 004e 5A66     		str	r2, [r3, #100]
 500:Core/Src/main.c ****   if (HAL_UART_Init(&hlpuart1) != HAL_OK)
 1403              		.loc 1 500 7
 1404 0050 1148     		ldr	r0, .L55
 1405 0052 FFF7FEFF 		bl	HAL_UART_Init
 1406 0056 0346     		mov	r3, r0
 1407              		.loc 1 500 6
 1408 0058 002B     		cmp	r3, #0
 1409 005a 01D0     		beq	.L50
 501:Core/Src/main.c ****   {
 502:Core/Src/main.c ****     Error_Handler();
 1410              		.loc 1 502 5
 1411 005c FFF7FEFF 		bl	Error_Handler
 1412              	.L50:
 503:Core/Src/main.c ****   }
 504:Core/Src/main.c ****   if (HAL_UARTEx_SetTxFifoThreshold(&hlpuart1, UART_TXFIFO_THRESHOLD_1_8) != HAL_OK)
 1413              		.loc 1 504 7
 1414 0060 0021     		movs	r1, #0
 1415 0062 0D48     		ldr	r0, .L55
 1416 0064 FFF7FEFF 		bl	HAL_UARTEx_SetTxFifoThreshold
 1417 0068 0346     		mov	r3, r0
 1418              		.loc 1 504 6
 1419 006a 002B     		cmp	r3, #0
 1420 006c 01D0     		beq	.L51
 505:Core/Src/main.c ****   {
 506:Core/Src/main.c ****     Error_Handler();
 1421              		.loc 1 506 5
 1422 006e FFF7FEFF 		bl	Error_Handler
 1423              	.L51:
 507:Core/Src/main.c ****   }
 508:Core/Src/main.c ****   if (HAL_UARTEx_SetRxFifoThreshold(&hlpuart1, UART_RXFIFO_THRESHOLD_1_8) != HAL_OK)
 1424              		.loc 1 508 7
 1425 0072 0021     		movs	r1, #0
 1426 0074 0848     		ldr	r0, .L55
 1427 0076 FFF7FEFF 		bl	HAL_UARTEx_SetRxFifoThreshold
 1428 007a 0346     		mov	r3, r0
 1429              		.loc 1 508 6
 1430 007c 002B     		cmp	r3, #0
 1431 007e 01D0     		beq	.L52
 509:Core/Src/main.c ****   {
ARM GAS  C:\Users\Morroway\AppData\Local\Temp\ccYl1imN.s 			page 37


 510:Core/Src/main.c ****     Error_Handler();
 1432              		.loc 1 510 5
 1433 0080 FFF7FEFF 		bl	Error_Handler
 1434              	.L52:
 511:Core/Src/main.c ****   }
 512:Core/Src/main.c ****   if (HAL_UARTEx_DisableFifoMode(&hlpuart1) != HAL_OK)
 1435              		.loc 1 512 7
 1436 0084 0448     		ldr	r0, .L55
 1437 0086 FFF7FEFF 		bl	HAL_UARTEx_DisableFifoMode
 1438 008a 0346     		mov	r3, r0
 1439              		.loc 1 512 6
 1440 008c 002B     		cmp	r3, #0
 1441 008e 01D0     		beq	.L54
 513:Core/Src/main.c ****   {
 514:Core/Src/main.c ****     Error_Handler();
 1442              		.loc 1 514 5
 1443 0090 FFF7FEFF 		bl	Error_Handler
 1444              	.L54:
 515:Core/Src/main.c ****   }
 516:Core/Src/main.c ****   /* USER CODE BEGIN LPUART1_Init 2 */
 517:Core/Src/main.c **** 
 518:Core/Src/main.c ****   /* USER CODE END LPUART1_Init 2 */
 519:Core/Src/main.c **** 
 520:Core/Src/main.c **** }
 1445              		.loc 1 520 1
 1446 0094 00BF     		nop
 1447 0096 80BD     		pop	{r7, pc}
 1448              	.L56:
 1449              		.align	2
 1450              	.L55:
 1451 0098 00000000 		.word	hlpuart1
 1452 009c 00800040 		.word	1073774592
 1453              		.cfi_endproc
 1454              	.LFE334:
 1456              		.section	.text.MX_UART4_Init,"ax",%progbits
 1457              		.align	1
 1458              		.syntax unified
 1459              		.thumb
 1460              		.thumb_func
 1462              	MX_UART4_Init:
 1463              	.LFB335:
 521:Core/Src/main.c **** 
 522:Core/Src/main.c **** /**
 523:Core/Src/main.c ****   * @brief UART4 Initialization Function
 524:Core/Src/main.c ****   * @param None
 525:Core/Src/main.c ****   * @retval None
 526:Core/Src/main.c ****   */
 527:Core/Src/main.c **** static void MX_UART4_Init(void)
 528:Core/Src/main.c **** {
 1464              		.loc 1 528 1
 1465              		.cfi_startproc
 1466              		@ args = 0, pretend = 0, frame = 0
 1467              		@ frame_needed = 1, uses_anonymous_args = 0
 1468 0000 80B5     		push	{r7, lr}
 1469              		.cfi_def_cfa_offset 8
 1470              		.cfi_offset 7, -8
 1471              		.cfi_offset 14, -4
ARM GAS  C:\Users\Morroway\AppData\Local\Temp\ccYl1imN.s 			page 38


 1472 0002 00AF     		add	r7, sp, #0
 1473              		.cfi_def_cfa_register 7
 529:Core/Src/main.c **** 
 530:Core/Src/main.c ****   /* USER CODE BEGIN UART4_Init 0 */
 531:Core/Src/main.c **** 
 532:Core/Src/main.c ****   /* USER CODE END UART4_Init 0 */
 533:Core/Src/main.c **** 
 534:Core/Src/main.c ****   /* USER CODE BEGIN UART4_Init 1 */
 535:Core/Src/main.c **** 
 536:Core/Src/main.c ****   /* USER CODE END UART4_Init 1 */
 537:Core/Src/main.c ****   huart4.Instance = UART4;
 1474              		.loc 1 537 19
 1475 0004 224B     		ldr	r3, .L63
 1476 0006 234A     		ldr	r2, .L63+4
 1477 0008 1A60     		str	r2, [r3]
 538:Core/Src/main.c ****   huart4.Init.BaudRate = 115200;
 1478              		.loc 1 538 24
 1479 000a 214B     		ldr	r3, .L63
 1480 000c 4FF4E132 		mov	r2, #115200
 1481 0010 5A60     		str	r2, [r3, #4]
 539:Core/Src/main.c ****   huart4.Init.WordLength = UART_WORDLENGTH_8B;
 1482              		.loc 1 539 26
 1483 0012 1F4B     		ldr	r3, .L63
 1484 0014 0022     		movs	r2, #0
 1485 0016 9A60     		str	r2, [r3, #8]
 540:Core/Src/main.c ****   huart4.Init.StopBits = UART_STOPBITS_1;
 1486              		.loc 1 540 24
 1487 0018 1D4B     		ldr	r3, .L63
 1488 001a 0022     		movs	r2, #0
 1489 001c DA60     		str	r2, [r3, #12]
 541:Core/Src/main.c ****   huart4.Init.Parity = UART_PARITY_NONE;
 1490              		.loc 1 541 22
 1491 001e 1C4B     		ldr	r3, .L63
 1492 0020 0022     		movs	r2, #0
 1493 0022 1A61     		str	r2, [r3, #16]
 542:Core/Src/main.c ****   huart4.Init.Mode = UART_MODE_TX_RX;
 1494              		.loc 1 542 20
 1495 0024 1A4B     		ldr	r3, .L63
 1496 0026 0C22     		movs	r2, #12
 1497 0028 5A61     		str	r2, [r3, #20]
 543:Core/Src/main.c ****   huart4.Init.HwFlowCtl = UART_HWCONTROL_NONE;
 1498              		.loc 1 543 25
 1499 002a 194B     		ldr	r3, .L63
 1500 002c 0022     		movs	r2, #0
 1501 002e 9A61     		str	r2, [r3, #24]
 544:Core/Src/main.c ****   huart4.Init.OverSampling = UART_OVERSAMPLING_16;
 1502              		.loc 1 544 28
 1503 0030 174B     		ldr	r3, .L63
 1504 0032 0022     		movs	r2, #0
 1505 0034 DA61     		str	r2, [r3, #28]
 545:Core/Src/main.c ****   huart4.Init.OneBitSampling = UART_ONE_BIT_SAMPLE_DISABLE;
 1506              		.loc 1 545 30
 1507 0036 164B     		ldr	r3, .L63
 1508 0038 0022     		movs	r2, #0
 1509 003a 1A62     		str	r2, [r3, #32]
 546:Core/Src/main.c ****   huart4.Init.ClockPrescaler = UART_PRESCALER_DIV1;
 1510              		.loc 1 546 30
ARM GAS  C:\Users\Morroway\AppData\Local\Temp\ccYl1imN.s 			page 39


 1511 003c 144B     		ldr	r3, .L63
 1512 003e 0022     		movs	r2, #0
 1513 0040 5A62     		str	r2, [r3, #36]
 547:Core/Src/main.c ****   huart4.AdvancedInit.AdvFeatureInit = UART_ADVFEATURE_NO_INIT;
 1514              		.loc 1 547 38
 1515 0042 134B     		ldr	r3, .L63
 1516 0044 0022     		movs	r2, #0
 1517 0046 9A62     		str	r2, [r3, #40]
 548:Core/Src/main.c ****   if (HAL_UART_Init(&huart4) != HAL_OK)
 1518              		.loc 1 548 7
 1519 0048 1148     		ldr	r0, .L63
 1520 004a FFF7FEFF 		bl	HAL_UART_Init
 1521 004e 0346     		mov	r3, r0
 1522              		.loc 1 548 6
 1523 0050 002B     		cmp	r3, #0
 1524 0052 01D0     		beq	.L58
 549:Core/Src/main.c ****   {
 550:Core/Src/main.c ****     Error_Handler();
 1525              		.loc 1 550 5
 1526 0054 FFF7FEFF 		bl	Error_Handler
 1527              	.L58:
 551:Core/Src/main.c ****   }
 552:Core/Src/main.c ****   if (HAL_UARTEx_SetTxFifoThreshold(&huart4, UART_TXFIFO_THRESHOLD_1_8) != HAL_OK)
 1528              		.loc 1 552 7
 1529 0058 0021     		movs	r1, #0
 1530 005a 0D48     		ldr	r0, .L63
 1531 005c FFF7FEFF 		bl	HAL_UARTEx_SetTxFifoThreshold
 1532 0060 0346     		mov	r3, r0
 1533              		.loc 1 552 6
 1534 0062 002B     		cmp	r3, #0
 1535 0064 01D0     		beq	.L59
 553:Core/Src/main.c ****   {
 554:Core/Src/main.c ****     Error_Handler();
 1536              		.loc 1 554 5
 1537 0066 FFF7FEFF 		bl	Error_Handler
 1538              	.L59:
 555:Core/Src/main.c ****   }
 556:Core/Src/main.c ****   if (HAL_UARTEx_SetRxFifoThreshold(&huart4, UART_RXFIFO_THRESHOLD_1_8) != HAL_OK)
 1539              		.loc 1 556 7
 1540 006a 0021     		movs	r1, #0
 1541 006c 0848     		ldr	r0, .L63
 1542 006e FFF7FEFF 		bl	HAL_UARTEx_SetRxFifoThreshold
 1543 0072 0346     		mov	r3, r0
 1544              		.loc 1 556 6
 1545 0074 002B     		cmp	r3, #0
 1546 0076 01D0     		beq	.L60
 557:Core/Src/main.c ****   {
 558:Core/Src/main.c ****     Error_Handler();
 1547              		.loc 1 558 5
 1548 0078 FFF7FEFF 		bl	Error_Handler
 1549              	.L60:
 559:Core/Src/main.c ****   }
 560:Core/Src/main.c ****   if (HAL_UARTEx_DisableFifoMode(&huart4) != HAL_OK)
 1550              		.loc 1 560 7
 1551 007c 0448     		ldr	r0, .L63
 1552 007e FFF7FEFF 		bl	HAL_UARTEx_DisableFifoMode
 1553 0082 0346     		mov	r3, r0
ARM GAS  C:\Users\Morroway\AppData\Local\Temp\ccYl1imN.s 			page 40


 1554              		.loc 1 560 6
 1555 0084 002B     		cmp	r3, #0
 1556 0086 01D0     		beq	.L62
 561:Core/Src/main.c ****   {
 562:Core/Src/main.c ****     Error_Handler();
 1557              		.loc 1 562 5
 1558 0088 FFF7FEFF 		bl	Error_Handler
 1559              	.L62:
 563:Core/Src/main.c ****   }
 564:Core/Src/main.c ****   /* USER CODE BEGIN UART4_Init 2 */
 565:Core/Src/main.c **** 
 566:Core/Src/main.c ****   /* USER CODE END UART4_Init 2 */
 567:Core/Src/main.c **** 
 568:Core/Src/main.c **** }
 1560              		.loc 1 568 1
 1561 008c 00BF     		nop
 1562 008e 80BD     		pop	{r7, pc}
 1563              	.L64:
 1564              		.align	2
 1565              	.L63:
 1566 0090 00000000 		.word	huart4
 1567 0094 004C0040 		.word	1073761280
 1568              		.cfi_endproc
 1569              	.LFE335:
 1571              		.section	.text.MX_RNG_Init,"ax",%progbits
 1572              		.align	1
 1573              		.syntax unified
 1574              		.thumb
 1575              		.thumb_func
 1577              	MX_RNG_Init:
 1578              	.LFB336:
 569:Core/Src/main.c **** 
 570:Core/Src/main.c **** /**
 571:Core/Src/main.c ****   * @brief RNG Initialization Function
 572:Core/Src/main.c ****   * @param None
 573:Core/Src/main.c ****   * @retval None
 574:Core/Src/main.c ****   */
 575:Core/Src/main.c **** static void MX_RNG_Init(void)
 576:Core/Src/main.c **** {
 1579              		.loc 1 576 1
 1580              		.cfi_startproc
 1581              		@ args = 0, pretend = 0, frame = 0
 1582              		@ frame_needed = 1, uses_anonymous_args = 0
 1583 0000 80B5     		push	{r7, lr}
 1584              		.cfi_def_cfa_offset 8
 1585              		.cfi_offset 7, -8
 1586              		.cfi_offset 14, -4
 1587 0002 00AF     		add	r7, sp, #0
 1588              		.cfi_def_cfa_register 7
 577:Core/Src/main.c **** 
 578:Core/Src/main.c ****   /* USER CODE BEGIN RNG_Init 0 */
 579:Core/Src/main.c **** 
 580:Core/Src/main.c ****   /* USER CODE END RNG_Init 0 */
 581:Core/Src/main.c **** 
 582:Core/Src/main.c ****   /* USER CODE BEGIN RNG_Init 1 */
 583:Core/Src/main.c **** 
 584:Core/Src/main.c ****   /* USER CODE END RNG_Init 1 */
ARM GAS  C:\Users\Morroway\AppData\Local\Temp\ccYl1imN.s 			page 41


 585:Core/Src/main.c ****   hrng.Instance = RNG;
 1589              		.loc 1 585 17
 1590 0004 074B     		ldr	r3, .L68
 1591 0006 084A     		ldr	r2, .L68+4
 1592 0008 1A60     		str	r2, [r3]
 586:Core/Src/main.c ****   hrng.Init.ClockErrorDetection = RNG_CED_ENABLE;
 1593              		.loc 1 586 33
 1594 000a 064B     		ldr	r3, .L68
 1595 000c 0022     		movs	r2, #0
 1596 000e 5A60     		str	r2, [r3, #4]
 587:Core/Src/main.c ****   if (HAL_RNG_Init(&hrng) != HAL_OK)
 1597              		.loc 1 587 7
 1598 0010 0448     		ldr	r0, .L68
 1599 0012 FFF7FEFF 		bl	HAL_RNG_Init
 1600 0016 0346     		mov	r3, r0
 1601              		.loc 1 587 6
 1602 0018 002B     		cmp	r3, #0
 1603 001a 01D0     		beq	.L67
 588:Core/Src/main.c ****   {
 589:Core/Src/main.c ****     Error_Handler();
 1604              		.loc 1 589 5
 1605 001c FFF7FEFF 		bl	Error_Handler
 1606              	.L67:
 590:Core/Src/main.c ****   }
 591:Core/Src/main.c ****   /* USER CODE BEGIN RNG_Init 2 */
 592:Core/Src/main.c **** 
 593:Core/Src/main.c ****   /* USER CODE END RNG_Init 2 */
 594:Core/Src/main.c **** 
 595:Core/Src/main.c **** }
 1607              		.loc 1 595 1
 1608 0020 00BF     		nop
 1609 0022 80BD     		pop	{r7, pc}
 1610              	.L69:
 1611              		.align	2
 1612              	.L68:
 1613 0024 00000000 		.word	hrng
 1614 0028 00080650 		.word	1342572544
 1615              		.cfi_endproc
 1616              	.LFE336:
 1618              		.section	.text.MX_SPI1_Init,"ax",%progbits
 1619              		.align	1
 1620              		.syntax unified
 1621              		.thumb
 1622              		.thumb_func
 1624              	MX_SPI1_Init:
 1625              	.LFB337:
 596:Core/Src/main.c **** 
 597:Core/Src/main.c **** /**
 598:Core/Src/main.c ****   * @brief SPI1 Initialization Function
 599:Core/Src/main.c ****   * @param None
 600:Core/Src/main.c ****   * @retval None
 601:Core/Src/main.c ****   */
 602:Core/Src/main.c **** static void MX_SPI1_Init(void)
 603:Core/Src/main.c **** {
 1626              		.loc 1 603 1
 1627              		.cfi_startproc
 1628              		@ args = 0, pretend = 0, frame = 0
ARM GAS  C:\Users\Morroway\AppData\Local\Temp\ccYl1imN.s 			page 42


 1629              		@ frame_needed = 1, uses_anonymous_args = 0
 1630 0000 80B5     		push	{r7, lr}
 1631              		.cfi_def_cfa_offset 8
 1632              		.cfi_offset 7, -8
 1633              		.cfi_offset 14, -4
 1634 0002 00AF     		add	r7, sp, #0
 1635              		.cfi_def_cfa_register 7
 604:Core/Src/main.c **** 
 605:Core/Src/main.c ****   /* USER CODE BEGIN SPI1_Init 0 */
 606:Core/Src/main.c **** 
 607:Core/Src/main.c ****   /* USER CODE END SPI1_Init 0 */
 608:Core/Src/main.c **** 
 609:Core/Src/main.c ****   /* USER CODE BEGIN SPI1_Init 1 */
 610:Core/Src/main.c **** 
 611:Core/Src/main.c ****   /* USER CODE END SPI1_Init 1 */
 612:Core/Src/main.c ****   /* SPI1 parameter configuration*/
 613:Core/Src/main.c ****   hspi1.Instance = SPI1;
 1636              		.loc 1 613 18
 1637 0004 1B4B     		ldr	r3, .L73
 1638 0006 1C4A     		ldr	r2, .L73+4
 1639 0008 1A60     		str	r2, [r3]
 614:Core/Src/main.c ****   hspi1.Init.Mode = SPI_MODE_MASTER;
 1640              		.loc 1 614 19
 1641 000a 1A4B     		ldr	r3, .L73
 1642 000c 4FF48272 		mov	r2, #260
 1643 0010 5A60     		str	r2, [r3, #4]
 615:Core/Src/main.c ****   hspi1.Init.Direction = SPI_DIRECTION_2LINES;
 1644              		.loc 1 615 24
 1645 0012 184B     		ldr	r3, .L73
 1646 0014 0022     		movs	r2, #0
 1647 0016 9A60     		str	r2, [r3, #8]
 616:Core/Src/main.c ****   hspi1.Init.DataSize = SPI_DATASIZE_8BIT;
 1648              		.loc 1 616 23
 1649 0018 164B     		ldr	r3, .L73
 1650 001a 4FF4E062 		mov	r2, #1792
 1651 001e DA60     		str	r2, [r3, #12]
 617:Core/Src/main.c ****   hspi1.Init.CLKPolarity = SPI_POLARITY_LOW;
 1652              		.loc 1 617 26
 1653 0020 144B     		ldr	r3, .L73
 1654 0022 0022     		movs	r2, #0
 1655 0024 1A61     		str	r2, [r3, #16]
 618:Core/Src/main.c ****   hspi1.Init.CLKPhase = SPI_PHASE_1EDGE;
 1656              		.loc 1 618 23
 1657 0026 134B     		ldr	r3, .L73
 1658 0028 0022     		movs	r2, #0
 1659 002a 5A61     		str	r2, [r3, #20]
 619:Core/Src/main.c ****   hspi1.Init.NSS = SPI_NSS_SOFT;
 1660              		.loc 1 619 18
 1661 002c 114B     		ldr	r3, .L73
 1662 002e 4FF40072 		mov	r2, #512
 1663 0032 9A61     		str	r2, [r3, #24]
 620:Core/Src/main.c ****   hspi1.Init.BaudRatePrescaler = SPI_BAUDRATEPRESCALER_4;
 1664              		.loc 1 620 32
 1665 0034 0F4B     		ldr	r3, .L73
 1666 0036 0822     		movs	r2, #8
 1667 0038 DA61     		str	r2, [r3, #28]
 621:Core/Src/main.c ****   hspi1.Init.FirstBit = SPI_FIRSTBIT_MSB;
ARM GAS  C:\Users\Morroway\AppData\Local\Temp\ccYl1imN.s 			page 43


 1668              		.loc 1 621 23
 1669 003a 0E4B     		ldr	r3, .L73
 1670 003c 0022     		movs	r2, #0
 1671 003e 1A62     		str	r2, [r3, #32]
 622:Core/Src/main.c ****   hspi1.Init.TIMode = SPI_TIMODE_DISABLE;
 1672              		.loc 1 622 21
 1673 0040 0C4B     		ldr	r3, .L73
 1674 0042 0022     		movs	r2, #0
 1675 0044 5A62     		str	r2, [r3, #36]
 623:Core/Src/main.c ****   hspi1.Init.CRCCalculation = SPI_CRCCALCULATION_DISABLE;
 1676              		.loc 1 623 29
 1677 0046 0B4B     		ldr	r3, .L73
 1678 0048 0022     		movs	r2, #0
 1679 004a 9A62     		str	r2, [r3, #40]
 624:Core/Src/main.c ****   hspi1.Init.CRCPolynomial = 7;
 1680              		.loc 1 624 28
 1681 004c 094B     		ldr	r3, .L73
 1682 004e 0722     		movs	r2, #7
 1683 0050 DA62     		str	r2, [r3, #44]
 625:Core/Src/main.c ****   hspi1.Init.CRCLength = SPI_CRC_LENGTH_DATASIZE;
 1684              		.loc 1 625 24
 1685 0052 084B     		ldr	r3, .L73
 1686 0054 0022     		movs	r2, #0
 1687 0056 1A63     		str	r2, [r3, #48]
 626:Core/Src/main.c ****   hspi1.Init.NSSPMode = SPI_NSS_PULSE_ENABLE;
 1688              		.loc 1 626 23
 1689 0058 064B     		ldr	r3, .L73
 1690 005a 0822     		movs	r2, #8
 1691 005c 5A63     		str	r2, [r3, #52]
 627:Core/Src/main.c ****   if (HAL_SPI_Init(&hspi1) != HAL_OK)
 1692              		.loc 1 627 7
 1693 005e 0548     		ldr	r0, .L73
 1694 0060 FFF7FEFF 		bl	HAL_SPI_Init
 1695 0064 0346     		mov	r3, r0
 1696              		.loc 1 627 6
 1697 0066 002B     		cmp	r3, #0
 1698 0068 01D0     		beq	.L72
 628:Core/Src/main.c ****   {
 629:Core/Src/main.c ****     Error_Handler();
 1699              		.loc 1 629 5
 1700 006a FFF7FEFF 		bl	Error_Handler
 1701              	.L72:
 630:Core/Src/main.c ****   }
 631:Core/Src/main.c ****   /* USER CODE BEGIN SPI1_Init 2 */
 632:Core/Src/main.c **** 
 633:Core/Src/main.c ****   /* USER CODE END SPI1_Init 2 */
 634:Core/Src/main.c **** 
 635:Core/Src/main.c **** }
 1702              		.loc 1 635 1
 1703 006e 00BF     		nop
 1704 0070 80BD     		pop	{r7, pc}
 1705              	.L74:
 1706 0072 00BF     		.align	2
 1707              	.L73:
 1708 0074 00000000 		.word	hspi1
 1709 0078 00300140 		.word	1073819648
 1710              		.cfi_endproc
ARM GAS  C:\Users\Morroway\AppData\Local\Temp\ccYl1imN.s 			page 44


 1711              	.LFE337:
 1713              		.section	.text.MX_TIM2_Init,"ax",%progbits
 1714              		.align	1
 1715              		.syntax unified
 1716              		.thumb
 1717              		.thumb_func
 1719              	MX_TIM2_Init:
 1720              	.LFB338:
 636:Core/Src/main.c **** 
 637:Core/Src/main.c **** /**
 638:Core/Src/main.c ****   * @brief TIM2 Initialization Function
 639:Core/Src/main.c ****   * @param None
 640:Core/Src/main.c ****   * @retval None
 641:Core/Src/main.c ****   */
 642:Core/Src/main.c **** static void MX_TIM2_Init(void)
 643:Core/Src/main.c **** {
 1721              		.loc 1 643 1
 1722              		.cfi_startproc
 1723              		@ args = 0, pretend = 0, frame = 56
 1724              		@ frame_needed = 1, uses_anonymous_args = 0
 1725 0000 80B5     		push	{r7, lr}
 1726              		.cfi_def_cfa_offset 8
 1727              		.cfi_offset 7, -8
 1728              		.cfi_offset 14, -4
 1729 0002 8EB0     		sub	sp, sp, #56
 1730              		.cfi_def_cfa_offset 64
 1731 0004 00AF     		add	r7, sp, #0
 1732              		.cfi_def_cfa_register 7
 644:Core/Src/main.c **** 
 645:Core/Src/main.c ****   /* USER CODE BEGIN TIM2_Init 0 */
 646:Core/Src/main.c **** 
 647:Core/Src/main.c ****   /* USER CODE END TIM2_Init 0 */
 648:Core/Src/main.c **** 
 649:Core/Src/main.c ****   TIM_ClockConfigTypeDef sClockSourceConfig = {0};
 1733              		.loc 1 649 26
 1734 0006 07F12803 		add	r3, r7, #40
 1735 000a 0022     		movs	r2, #0
 1736 000c 1A60     		str	r2, [r3]
 1737 000e 5A60     		str	r2, [r3, #4]
 1738 0010 9A60     		str	r2, [r3, #8]
 1739 0012 DA60     		str	r2, [r3, #12]
 650:Core/Src/main.c ****   TIM_MasterConfigTypeDef sMasterConfig = {0};
 1740              		.loc 1 650 27
 1741 0014 07F11C03 		add	r3, r7, #28
 1742 0018 0022     		movs	r2, #0
 1743 001a 1A60     		str	r2, [r3]
 1744 001c 5A60     		str	r2, [r3, #4]
 1745 001e 9A60     		str	r2, [r3, #8]
 651:Core/Src/main.c ****   TIM_OC_InitTypeDef sConfigOC = {0};
 1746              		.loc 1 651 22
 1747 0020 3B46     		mov	r3, r7
 1748 0022 0022     		movs	r2, #0
 1749 0024 1A60     		str	r2, [r3]
 1750 0026 5A60     		str	r2, [r3, #4]
 1751 0028 9A60     		str	r2, [r3, #8]
 1752 002a DA60     		str	r2, [r3, #12]
 1753 002c 1A61     		str	r2, [r3, #16]
ARM GAS  C:\Users\Morroway\AppData\Local\Temp\ccYl1imN.s 			page 45


 1754 002e 5A61     		str	r2, [r3, #20]
 1755 0030 9A61     		str	r2, [r3, #24]
 652:Core/Src/main.c **** 
 653:Core/Src/main.c ****   /* USER CODE BEGIN TIM2_Init 1 */
 654:Core/Src/main.c **** 
 655:Core/Src/main.c ****   /* USER CODE END TIM2_Init 1 */
 656:Core/Src/main.c ****   htim2.Instance = TIM2;
 1756              		.loc 1 656 18
 1757 0032 324B     		ldr	r3, .L82
 1758 0034 4FF08042 		mov	r2, #1073741824
 1759 0038 1A60     		str	r2, [r3]
 657:Core/Src/main.c ****   htim2.Init.Prescaler = 119;
 1760              		.loc 1 657 24
 1761 003a 304B     		ldr	r3, .L82
 1762 003c 7722     		movs	r2, #119
 1763 003e 5A60     		str	r2, [r3, #4]
 658:Core/Src/main.c ****   htim2.Init.CounterMode = TIM_COUNTERMODE_UP;
 1764              		.loc 1 658 26
 1765 0040 2E4B     		ldr	r3, .L82
 1766 0042 0022     		movs	r2, #0
 1767 0044 9A60     		str	r2, [r3, #8]
 659:Core/Src/main.c ****   htim2.Init.Period = 255;
 1768              		.loc 1 659 21
 1769 0046 2D4B     		ldr	r3, .L82
 1770 0048 FF22     		movs	r2, #255
 1771 004a DA60     		str	r2, [r3, #12]
 660:Core/Src/main.c ****   htim2.Init.ClockDivision = TIM_CLOCKDIVISION_DIV1;
 1772              		.loc 1 660 28
 1773 004c 2B4B     		ldr	r3, .L82
 1774 004e 0022     		movs	r2, #0
 1775 0050 1A61     		str	r2, [r3, #16]
 661:Core/Src/main.c ****   htim2.Init.AutoReloadPreload = TIM_AUTORELOAD_PRELOAD_DISABLE;
 1776              		.loc 1 661 32
 1777 0052 2A4B     		ldr	r3, .L82
 1778 0054 0022     		movs	r2, #0
 1779 0056 9A61     		str	r2, [r3, #24]
 662:Core/Src/main.c ****   if (HAL_TIM_Base_Init(&htim2) != HAL_OK)
 1780              		.loc 1 662 7
 1781 0058 2848     		ldr	r0, .L82
 1782 005a FFF7FEFF 		bl	HAL_TIM_Base_Init
 1783 005e 0346     		mov	r3, r0
 1784              		.loc 1 662 6
 1785 0060 002B     		cmp	r3, #0
 1786 0062 01D0     		beq	.L76
 663:Core/Src/main.c ****   {
 664:Core/Src/main.c ****     Error_Handler();
 1787              		.loc 1 664 5
 1788 0064 FFF7FEFF 		bl	Error_Handler
 1789              	.L76:
 665:Core/Src/main.c ****   }
 666:Core/Src/main.c ****   sClockSourceConfig.ClockSource = TIM_CLOCKSOURCE_INTERNAL;
 1790              		.loc 1 666 34
 1791 0068 4FF48053 		mov	r3, #4096
 1792 006c BB62     		str	r3, [r7, #40]
 667:Core/Src/main.c ****   if (HAL_TIM_ConfigClockSource(&htim2, &sClockSourceConfig) != HAL_OK)
 1793              		.loc 1 667 7
 1794 006e 07F12803 		add	r3, r7, #40
ARM GAS  C:\Users\Morroway\AppData\Local\Temp\ccYl1imN.s 			page 46


 1795 0072 1946     		mov	r1, r3
 1796 0074 2148     		ldr	r0, .L82
 1797 0076 FFF7FEFF 		bl	HAL_TIM_ConfigClockSource
 1798 007a 0346     		mov	r3, r0
 1799              		.loc 1 667 6
 1800 007c 002B     		cmp	r3, #0
 1801 007e 01D0     		beq	.L77
 668:Core/Src/main.c ****   {
 669:Core/Src/main.c ****     Error_Handler();
 1802              		.loc 1 669 5
 1803 0080 FFF7FEFF 		bl	Error_Handler
 1804              	.L77:
 670:Core/Src/main.c ****   }
 671:Core/Src/main.c ****   if (HAL_TIM_PWM_Init(&htim2) != HAL_OK)
 1805              		.loc 1 671 7
 1806 0084 1D48     		ldr	r0, .L82
 1807 0086 FFF7FEFF 		bl	HAL_TIM_PWM_Init
 1808 008a 0346     		mov	r3, r0
 1809              		.loc 1 671 6
 1810 008c 002B     		cmp	r3, #0
 1811 008e 01D0     		beq	.L78
 672:Core/Src/main.c ****   {
 673:Core/Src/main.c ****     Error_Handler();
 1812              		.loc 1 673 5
 1813 0090 FFF7FEFF 		bl	Error_Handler
 1814              	.L78:
 674:Core/Src/main.c ****   }
 675:Core/Src/main.c ****   sMasterConfig.MasterOutputTrigger = TIM_TRGO_RESET;
 1815              		.loc 1 675 37
 1816 0094 0023     		movs	r3, #0
 1817 0096 FB61     		str	r3, [r7, #28]
 676:Core/Src/main.c ****   sMasterConfig.MasterSlaveMode = TIM_MASTERSLAVEMODE_DISABLE;
 1818              		.loc 1 676 33
 1819 0098 0023     		movs	r3, #0
 1820 009a 7B62     		str	r3, [r7, #36]
 677:Core/Src/main.c ****   if (HAL_TIMEx_MasterConfigSynchronization(&htim2, &sMasterConfig) != HAL_OK)
 1821              		.loc 1 677 7
 1822 009c 07F11C03 		add	r3, r7, #28
 1823 00a0 1946     		mov	r1, r3
 1824 00a2 1648     		ldr	r0, .L82
 1825 00a4 FFF7FEFF 		bl	HAL_TIMEx_MasterConfigSynchronization
 1826 00a8 0346     		mov	r3, r0
 1827              		.loc 1 677 6
 1828 00aa 002B     		cmp	r3, #0
 1829 00ac 01D0     		beq	.L79
 678:Core/Src/main.c ****   {
 679:Core/Src/main.c ****     Error_Handler();
 1830              		.loc 1 679 5
 1831 00ae FFF7FEFF 		bl	Error_Handler
 1832              	.L79:
 680:Core/Src/main.c ****   }
 681:Core/Src/main.c ****   sConfigOC.OCMode = TIM_OCMODE_PWM1;
 1833              		.loc 1 681 20
 1834 00b2 6023     		movs	r3, #96
 1835 00b4 3B60     		str	r3, [r7]
 682:Core/Src/main.c ****   sConfigOC.Pulse = 0;
 1836              		.loc 1 682 19
ARM GAS  C:\Users\Morroway\AppData\Local\Temp\ccYl1imN.s 			page 47


 1837 00b6 0023     		movs	r3, #0
 1838 00b8 7B60     		str	r3, [r7, #4]
 683:Core/Src/main.c ****   sConfigOC.OCPolarity = TIM_OCPOLARITY_HIGH;
 1839              		.loc 1 683 24
 1840 00ba 0023     		movs	r3, #0
 1841 00bc BB60     		str	r3, [r7, #8]
 684:Core/Src/main.c ****   sConfigOC.OCFastMode = TIM_OCFAST_DISABLE;
 1842              		.loc 1 684 24
 1843 00be 0023     		movs	r3, #0
 1844 00c0 3B61     		str	r3, [r7, #16]
 685:Core/Src/main.c ****   if (HAL_TIM_PWM_ConfigChannel(&htim2, &sConfigOC, TIM_CHANNEL_1) != HAL_OK)
 1845              		.loc 1 685 7
 1846 00c2 3B46     		mov	r3, r7
 1847 00c4 0022     		movs	r2, #0
 1848 00c6 1946     		mov	r1, r3
 1849 00c8 0C48     		ldr	r0, .L82
 1850 00ca FFF7FEFF 		bl	HAL_TIM_PWM_ConfigChannel
 1851 00ce 0346     		mov	r3, r0
 1852              		.loc 1 685 6
 1853 00d0 002B     		cmp	r3, #0
 1854 00d2 01D0     		beq	.L80
 686:Core/Src/main.c ****   {
 687:Core/Src/main.c ****     Error_Handler();
 1855              		.loc 1 687 5
 1856 00d4 FFF7FEFF 		bl	Error_Handler
 1857              	.L80:
 688:Core/Src/main.c ****   }
 689:Core/Src/main.c ****   if (HAL_TIM_PWM_ConfigChannel(&htim2, &sConfigOC, TIM_CHANNEL_2) != HAL_OK)
 1858              		.loc 1 689 7
 1859 00d8 3B46     		mov	r3, r7
 1860 00da 0422     		movs	r2, #4
 1861 00dc 1946     		mov	r1, r3
 1862 00de 0748     		ldr	r0, .L82
 1863 00e0 FFF7FEFF 		bl	HAL_TIM_PWM_ConfigChannel
 1864 00e4 0346     		mov	r3, r0
 1865              		.loc 1 689 6
 1866 00e6 002B     		cmp	r3, #0
 1867 00e8 01D0     		beq	.L81
 690:Core/Src/main.c ****   {
 691:Core/Src/main.c ****     Error_Handler();
 1868              		.loc 1 691 5
 1869 00ea FFF7FEFF 		bl	Error_Handler
 1870              	.L81:
 692:Core/Src/main.c ****   }
 693:Core/Src/main.c ****   /* USER CODE BEGIN TIM2_Init 2 */
 694:Core/Src/main.c **** 
 695:Core/Src/main.c ****   /* USER CODE END TIM2_Init 2 */
 696:Core/Src/main.c ****   HAL_TIM_MspPostInit(&htim2);
 1871              		.loc 1 696 3
 1872 00ee 0348     		ldr	r0, .L82
 1873 00f0 FFF7FEFF 		bl	HAL_TIM_MspPostInit
 697:Core/Src/main.c **** 
 698:Core/Src/main.c **** }
 1874              		.loc 1 698 1
 1875 00f4 00BF     		nop
 1876 00f6 3837     		adds	r7, r7, #56
 1877              		.cfi_def_cfa_offset 8
ARM GAS  C:\Users\Morroway\AppData\Local\Temp\ccYl1imN.s 			page 48


 1878 00f8 BD46     		mov	sp, r7
 1879              		.cfi_def_cfa_register 13
 1880              		@ sp needed
 1881 00fa 80BD     		pop	{r7, pc}
 1882              	.L83:
 1883              		.align	2
 1884              	.L82:
 1885 00fc 00000000 		.word	htim2
 1886              		.cfi_endproc
 1887              	.LFE338:
 1889              		.section	.text.MX_TIM3_Init,"ax",%progbits
 1890              		.align	1
 1891              		.syntax unified
 1892              		.thumb
 1893              		.thumb_func
 1895              	MX_TIM3_Init:
 1896              	.LFB339:
 699:Core/Src/main.c **** 
 700:Core/Src/main.c **** /**
 701:Core/Src/main.c ****   * @brief TIM3 Initialization Function
 702:Core/Src/main.c ****   * @param None
 703:Core/Src/main.c ****   * @retval None
 704:Core/Src/main.c ****   */
 705:Core/Src/main.c **** static void MX_TIM3_Init(void)
 706:Core/Src/main.c **** {
 1897              		.loc 1 706 1
 1898              		.cfi_startproc
 1899              		@ args = 0, pretend = 0, frame = 56
 1900              		@ frame_needed = 1, uses_anonymous_args = 0
 1901 0000 80B5     		push	{r7, lr}
 1902              		.cfi_def_cfa_offset 8
 1903              		.cfi_offset 7, -8
 1904              		.cfi_offset 14, -4
 1905 0002 8EB0     		sub	sp, sp, #56
 1906              		.cfi_def_cfa_offset 64
 1907 0004 00AF     		add	r7, sp, #0
 1908              		.cfi_def_cfa_register 7
 707:Core/Src/main.c **** 
 708:Core/Src/main.c ****   /* USER CODE BEGIN TIM3_Init 0 */
 709:Core/Src/main.c **** 
 710:Core/Src/main.c ****   /* USER CODE END TIM3_Init 0 */
 711:Core/Src/main.c **** 
 712:Core/Src/main.c ****   TIM_ClockConfigTypeDef sClockSourceConfig = {0};
 1909              		.loc 1 712 26
 1910 0006 07F12803 		add	r3, r7, #40
 1911 000a 0022     		movs	r2, #0
 1912 000c 1A60     		str	r2, [r3]
 1913 000e 5A60     		str	r2, [r3, #4]
 1914 0010 9A60     		str	r2, [r3, #8]
 1915 0012 DA60     		str	r2, [r3, #12]
 713:Core/Src/main.c ****   TIM_MasterConfigTypeDef sMasterConfig = {0};
 1916              		.loc 1 713 27
 1917 0014 07F11C03 		add	r3, r7, #28
 1918 0018 0022     		movs	r2, #0
 1919 001a 1A60     		str	r2, [r3]
 1920 001c 5A60     		str	r2, [r3, #4]
 1921 001e 9A60     		str	r2, [r3, #8]
ARM GAS  C:\Users\Morroway\AppData\Local\Temp\ccYl1imN.s 			page 49


 714:Core/Src/main.c ****   TIM_OC_InitTypeDef sConfigOC = {0};
 1922              		.loc 1 714 22
 1923 0020 3B46     		mov	r3, r7
 1924 0022 0022     		movs	r2, #0
 1925 0024 1A60     		str	r2, [r3]
 1926 0026 5A60     		str	r2, [r3, #4]
 1927 0028 9A60     		str	r2, [r3, #8]
 1928 002a DA60     		str	r2, [r3, #12]
 1929 002c 1A61     		str	r2, [r3, #16]
 1930 002e 5A61     		str	r2, [r3, #20]
 1931 0030 9A61     		str	r2, [r3, #24]
 715:Core/Src/main.c **** 
 716:Core/Src/main.c ****   /* USER CODE BEGIN TIM3_Init 1 */
 717:Core/Src/main.c **** 
 718:Core/Src/main.c ****   /* USER CODE END TIM3_Init 1 */
 719:Core/Src/main.c ****   htim3.Instance = TIM3;
 1932              		.loc 1 719 18
 1933 0032 3D4B     		ldr	r3, .L93
 1934 0034 3D4A     		ldr	r2, .L93+4
 1935 0036 1A60     		str	r2, [r3]
 720:Core/Src/main.c ****   htim3.Init.Prescaler = 119;
 1936              		.loc 1 720 24
 1937 0038 3B4B     		ldr	r3, .L93
 1938 003a 7722     		movs	r2, #119
 1939 003c 5A60     		str	r2, [r3, #4]
 721:Core/Src/main.c ****   htim3.Init.CounterMode = TIM_COUNTERMODE_UP;
 1940              		.loc 1 721 26
 1941 003e 3A4B     		ldr	r3, .L93
 1942 0040 0022     		movs	r2, #0
 1943 0042 9A60     		str	r2, [r3, #8]
 722:Core/Src/main.c ****   htim3.Init.Period = 255;
 1944              		.loc 1 722 21
 1945 0044 384B     		ldr	r3, .L93
 1946 0046 FF22     		movs	r2, #255
 1947 0048 DA60     		str	r2, [r3, #12]
 723:Core/Src/main.c ****   htim3.Init.ClockDivision = TIM_CLOCKDIVISION_DIV1;
 1948              		.loc 1 723 28
 1949 004a 374B     		ldr	r3, .L93
 1950 004c 0022     		movs	r2, #0
 1951 004e 1A61     		str	r2, [r3, #16]
 724:Core/Src/main.c ****   htim3.Init.AutoReloadPreload = TIM_AUTORELOAD_PRELOAD_ENABLE;
 1952              		.loc 1 724 32
 1953 0050 354B     		ldr	r3, .L93
 1954 0052 8022     		movs	r2, #128
 1955 0054 9A61     		str	r2, [r3, #24]
 725:Core/Src/main.c ****   if (HAL_TIM_Base_Init(&htim3) != HAL_OK)
 1956              		.loc 1 725 7
 1957 0056 3448     		ldr	r0, .L93
 1958 0058 FFF7FEFF 		bl	HAL_TIM_Base_Init
 1959 005c 0346     		mov	r3, r0
 1960              		.loc 1 725 6
 1961 005e 002B     		cmp	r3, #0
 1962 0060 01D0     		beq	.L85
 726:Core/Src/main.c ****   {
 727:Core/Src/main.c ****     Error_Handler();
 1963              		.loc 1 727 5
 1964 0062 FFF7FEFF 		bl	Error_Handler
ARM GAS  C:\Users\Morroway\AppData\Local\Temp\ccYl1imN.s 			page 50


 1965              	.L85:
 728:Core/Src/main.c ****   }
 729:Core/Src/main.c ****   sClockSourceConfig.ClockSource = TIM_CLOCKSOURCE_INTERNAL;
 1966              		.loc 1 729 34
 1967 0066 4FF48053 		mov	r3, #4096
 1968 006a BB62     		str	r3, [r7, #40]
 730:Core/Src/main.c ****   if (HAL_TIM_ConfigClockSource(&htim3, &sClockSourceConfig) != HAL_OK)
 1969              		.loc 1 730 7
 1970 006c 07F12803 		add	r3, r7, #40
 1971 0070 1946     		mov	r1, r3
 1972 0072 2D48     		ldr	r0, .L93
 1973 0074 FFF7FEFF 		bl	HAL_TIM_ConfigClockSource
 1974 0078 0346     		mov	r3, r0
 1975              		.loc 1 730 6
 1976 007a 002B     		cmp	r3, #0
 1977 007c 01D0     		beq	.L86
 731:Core/Src/main.c ****   {
 732:Core/Src/main.c ****     Error_Handler();
 1978              		.loc 1 732 5
 1979 007e FFF7FEFF 		bl	Error_Handler
 1980              	.L86:
 733:Core/Src/main.c ****   }
 734:Core/Src/main.c ****   if (HAL_TIM_PWM_Init(&htim3) != HAL_OK)
 1981              		.loc 1 734 7
 1982 0082 2948     		ldr	r0, .L93
 1983 0084 FFF7FEFF 		bl	HAL_TIM_PWM_Init
 1984 0088 0346     		mov	r3, r0
 1985              		.loc 1 734 6
 1986 008a 002B     		cmp	r3, #0
 1987 008c 01D0     		beq	.L87
 735:Core/Src/main.c ****   {
 736:Core/Src/main.c ****     Error_Handler();
 1988              		.loc 1 736 5
 1989 008e FFF7FEFF 		bl	Error_Handler
 1990              	.L87:
 737:Core/Src/main.c ****   }
 738:Core/Src/main.c ****   sMasterConfig.MasterOutputTrigger = TIM_TRGO_RESET;
 1991              		.loc 1 738 37
 1992 0092 0023     		movs	r3, #0
 1993 0094 FB61     		str	r3, [r7, #28]
 739:Core/Src/main.c ****   sMasterConfig.MasterSlaveMode = TIM_MASTERSLAVEMODE_DISABLE;
 1994              		.loc 1 739 33
 1995 0096 0023     		movs	r3, #0
 1996 0098 7B62     		str	r3, [r7, #36]
 740:Core/Src/main.c ****   if (HAL_TIMEx_MasterConfigSynchronization(&htim3, &sMasterConfig) != HAL_OK)
 1997              		.loc 1 740 7
 1998 009a 07F11C03 		add	r3, r7, #28
 1999 009e 1946     		mov	r1, r3
 2000 00a0 2148     		ldr	r0, .L93
 2001 00a2 FFF7FEFF 		bl	HAL_TIMEx_MasterConfigSynchronization
 2002 00a6 0346     		mov	r3, r0
 2003              		.loc 1 740 6
 2004 00a8 002B     		cmp	r3, #0
 2005 00aa 01D0     		beq	.L88
 741:Core/Src/main.c ****   {
 742:Core/Src/main.c ****     Error_Handler();
 2006              		.loc 1 742 5
ARM GAS  C:\Users\Morroway\AppData\Local\Temp\ccYl1imN.s 			page 51


 2007 00ac FFF7FEFF 		bl	Error_Handler
 2008              	.L88:
 743:Core/Src/main.c ****   }
 744:Core/Src/main.c ****   sConfigOC.OCMode = TIM_OCMODE_PWM1;
 2009              		.loc 1 744 20
 2010 00b0 6023     		movs	r3, #96
 2011 00b2 3B60     		str	r3, [r7]
 745:Core/Src/main.c ****   sConfigOC.Pulse = 0;
 2012              		.loc 1 745 19
 2013 00b4 0023     		movs	r3, #0
 2014 00b6 7B60     		str	r3, [r7, #4]
 746:Core/Src/main.c ****   sConfigOC.OCPolarity = TIM_OCPOLARITY_HIGH;
 2015              		.loc 1 746 24
 2016 00b8 0023     		movs	r3, #0
 2017 00ba BB60     		str	r3, [r7, #8]
 747:Core/Src/main.c ****   sConfigOC.OCFastMode = TIM_OCFAST_DISABLE;
 2018              		.loc 1 747 24
 2019 00bc 0023     		movs	r3, #0
 2020 00be 3B61     		str	r3, [r7, #16]
 748:Core/Src/main.c ****   if (HAL_TIM_PWM_ConfigChannel(&htim3, &sConfigOC, TIM_CHANNEL_1) != HAL_OK)
 2021              		.loc 1 748 7
 2022 00c0 3B46     		mov	r3, r7
 2023 00c2 0022     		movs	r2, #0
 2024 00c4 1946     		mov	r1, r3
 2025 00c6 1848     		ldr	r0, .L93
 2026 00c8 FFF7FEFF 		bl	HAL_TIM_PWM_ConfigChannel
 2027 00cc 0346     		mov	r3, r0
 2028              		.loc 1 748 6
 2029 00ce 002B     		cmp	r3, #0
 2030 00d0 01D0     		beq	.L89
 749:Core/Src/main.c ****   {
 750:Core/Src/main.c ****     Error_Handler();
 2031              		.loc 1 750 5
 2032 00d2 FFF7FEFF 		bl	Error_Handler
 2033              	.L89:
 751:Core/Src/main.c ****   }
 752:Core/Src/main.c ****   if (HAL_TIM_PWM_ConfigChannel(&htim3, &sConfigOC, TIM_CHANNEL_2) != HAL_OK)
 2034              		.loc 1 752 7
 2035 00d6 3B46     		mov	r3, r7
 2036 00d8 0422     		movs	r2, #4
 2037 00da 1946     		mov	r1, r3
 2038 00dc 1248     		ldr	r0, .L93
 2039 00de FFF7FEFF 		bl	HAL_TIM_PWM_ConfigChannel
 2040 00e2 0346     		mov	r3, r0
 2041              		.loc 1 752 6
 2042 00e4 002B     		cmp	r3, #0
 2043 00e6 01D0     		beq	.L90
 753:Core/Src/main.c ****   {
 754:Core/Src/main.c ****     Error_Handler();
 2044              		.loc 1 754 5
 2045 00e8 FFF7FEFF 		bl	Error_Handler
 2046              	.L90:
 755:Core/Src/main.c ****   }
 756:Core/Src/main.c ****   if (HAL_TIM_PWM_ConfigChannel(&htim3, &sConfigOC, TIM_CHANNEL_3) != HAL_OK)
 2047              		.loc 1 756 7
 2048 00ec 3B46     		mov	r3, r7
 2049 00ee 0822     		movs	r2, #8
ARM GAS  C:\Users\Morroway\AppData\Local\Temp\ccYl1imN.s 			page 52


 2050 00f0 1946     		mov	r1, r3
 2051 00f2 0D48     		ldr	r0, .L93
 2052 00f4 FFF7FEFF 		bl	HAL_TIM_PWM_ConfigChannel
 2053 00f8 0346     		mov	r3, r0
 2054              		.loc 1 756 6
 2055 00fa 002B     		cmp	r3, #0
 2056 00fc 01D0     		beq	.L91
 757:Core/Src/main.c ****   {
 758:Core/Src/main.c ****     Error_Handler();
 2057              		.loc 1 758 5
 2058 00fe FFF7FEFF 		bl	Error_Handler
 2059              	.L91:
 759:Core/Src/main.c ****   }
 760:Core/Src/main.c ****   if (HAL_TIM_PWM_ConfigChannel(&htim3, &sConfigOC, TIM_CHANNEL_4) != HAL_OK)
 2060              		.loc 1 760 7
 2061 0102 3B46     		mov	r3, r7
 2062 0104 0C22     		movs	r2, #12
 2063 0106 1946     		mov	r1, r3
 2064 0108 0748     		ldr	r0, .L93
 2065 010a FFF7FEFF 		bl	HAL_TIM_PWM_ConfigChannel
 2066 010e 0346     		mov	r3, r0
 2067              		.loc 1 760 6
 2068 0110 002B     		cmp	r3, #0
 2069 0112 01D0     		beq	.L92
 761:Core/Src/main.c ****   {
 762:Core/Src/main.c ****     Error_Handler();
 2070              		.loc 1 762 5
 2071 0114 FFF7FEFF 		bl	Error_Handler
 2072              	.L92:
 763:Core/Src/main.c ****   }
 764:Core/Src/main.c ****   /* USER CODE BEGIN TIM3_Init 2 */
 765:Core/Src/main.c **** 
 766:Core/Src/main.c ****   /* USER CODE END TIM3_Init 2 */
 767:Core/Src/main.c ****   HAL_TIM_MspPostInit(&htim3);
 2073              		.loc 1 767 3
 2074 0118 0348     		ldr	r0, .L93
 2075 011a FFF7FEFF 		bl	HAL_TIM_MspPostInit
 768:Core/Src/main.c **** 
 769:Core/Src/main.c **** }
 2076              		.loc 1 769 1
 2077 011e 00BF     		nop
 2078 0120 3837     		adds	r7, r7, #56
 2079              		.cfi_def_cfa_offset 8
 2080 0122 BD46     		mov	sp, r7
 2081              		.cfi_def_cfa_register 13
 2082              		@ sp needed
 2083 0124 80BD     		pop	{r7, pc}
 2084              	.L94:
 2085 0126 00BF     		.align	2
 2086              	.L93:
 2087 0128 00000000 		.word	htim3
 2088 012c 00040040 		.word	1073742848
 2089              		.cfi_endproc
 2090              	.LFE339:
 2092              		.section	.text.MX_TIM4_Init,"ax",%progbits
 2093              		.align	1
 2094              		.syntax unified
ARM GAS  C:\Users\Morroway\AppData\Local\Temp\ccYl1imN.s 			page 53


 2095              		.thumb
 2096              		.thumb_func
 2098              	MX_TIM4_Init:
 2099              	.LFB340:
 770:Core/Src/main.c **** 
 771:Core/Src/main.c **** /**
 772:Core/Src/main.c ****   * @brief TIM4 Initialization Function
 773:Core/Src/main.c ****   * @param None
 774:Core/Src/main.c ****   * @retval None
 775:Core/Src/main.c ****   */
 776:Core/Src/main.c **** static void MX_TIM4_Init(void)
 777:Core/Src/main.c **** {
 2100              		.loc 1 777 1
 2101              		.cfi_startproc
 2102              		@ args = 0, pretend = 0, frame = 32
 2103              		@ frame_needed = 1, uses_anonymous_args = 0
 2104 0000 80B5     		push	{r7, lr}
 2105              		.cfi_def_cfa_offset 8
 2106              		.cfi_offset 7, -8
 2107              		.cfi_offset 14, -4
 2108 0002 88B0     		sub	sp, sp, #32
 2109              		.cfi_def_cfa_offset 40
 2110 0004 00AF     		add	r7, sp, #0
 2111              		.cfi_def_cfa_register 7
 778:Core/Src/main.c **** 
 779:Core/Src/main.c ****   /* USER CODE BEGIN TIM4_Init 0 */
 780:Core/Src/main.c **** 
 781:Core/Src/main.c ****   /* USER CODE END TIM4_Init 0 */
 782:Core/Src/main.c **** 
 783:Core/Src/main.c ****   TIM_ClockConfigTypeDef sClockSourceConfig = {0};
 2112              		.loc 1 783 26
 2113 0006 07F11003 		add	r3, r7, #16
 2114 000a 0022     		movs	r2, #0
 2115 000c 1A60     		str	r2, [r3]
 2116 000e 5A60     		str	r2, [r3, #4]
 2117 0010 9A60     		str	r2, [r3, #8]
 2118 0012 DA60     		str	r2, [r3, #12]
 784:Core/Src/main.c ****   TIM_MasterConfigTypeDef sMasterConfig = {0};
 2119              		.loc 1 784 27
 2120 0014 3B1D     		adds	r3, r7, #4
 2121 0016 0022     		movs	r2, #0
 2122 0018 1A60     		str	r2, [r3]
 2123 001a 5A60     		str	r2, [r3, #4]
 2124 001c 9A60     		str	r2, [r3, #8]
 785:Core/Src/main.c **** 
 786:Core/Src/main.c ****   /* USER CODE BEGIN TIM4_Init 1 */
 787:Core/Src/main.c **** 
 788:Core/Src/main.c ****   /* USER CODE END TIM4_Init 1 */
 789:Core/Src/main.c ****   htim4.Instance = TIM4;
 2125              		.loc 1 789 18
 2126 001e 1D4B     		ldr	r3, .L100
 2127 0020 1D4A     		ldr	r2, .L100+4
 2128 0022 1A60     		str	r2, [r3]
 790:Core/Src/main.c ****   htim4.Init.Prescaler = 119;
 2129              		.loc 1 790 24
 2130 0024 1B4B     		ldr	r3, .L100
 2131 0026 7722     		movs	r2, #119
ARM GAS  C:\Users\Morroway\AppData\Local\Temp\ccYl1imN.s 			page 54


 2132 0028 5A60     		str	r2, [r3, #4]
 791:Core/Src/main.c ****   htim4.Init.CounterMode = TIM_COUNTERMODE_UP;
 2133              		.loc 1 791 26
 2134 002a 1A4B     		ldr	r3, .L100
 2135 002c 0022     		movs	r2, #0
 2136 002e 9A60     		str	r2, [r3, #8]
 792:Core/Src/main.c ****   htim4.Init.Period = 65535;
 2137              		.loc 1 792 21
 2138 0030 184B     		ldr	r3, .L100
 2139 0032 4FF6FF72 		movw	r2, #65535
 2140 0036 DA60     		str	r2, [r3, #12]
 793:Core/Src/main.c ****   htim4.Init.ClockDivision = TIM_CLOCKDIVISION_DIV1;
 2141              		.loc 1 793 28
 2142 0038 164B     		ldr	r3, .L100
 2143 003a 0022     		movs	r2, #0
 2144 003c 1A61     		str	r2, [r3, #16]
 794:Core/Src/main.c ****   htim4.Init.AutoReloadPreload = TIM_AUTORELOAD_PRELOAD_DISABLE;
 2145              		.loc 1 794 32
 2146 003e 154B     		ldr	r3, .L100
 2147 0040 0022     		movs	r2, #0
 2148 0042 9A61     		str	r2, [r3, #24]
 795:Core/Src/main.c ****   if (HAL_TIM_Base_Init(&htim4) != HAL_OK)
 2149              		.loc 1 795 7
 2150 0044 1348     		ldr	r0, .L100
 2151 0046 FFF7FEFF 		bl	HAL_TIM_Base_Init
 2152 004a 0346     		mov	r3, r0
 2153              		.loc 1 795 6
 2154 004c 002B     		cmp	r3, #0
 2155 004e 01D0     		beq	.L96
 796:Core/Src/main.c ****   {
 797:Core/Src/main.c ****     Error_Handler();
 2156              		.loc 1 797 5
 2157 0050 FFF7FEFF 		bl	Error_Handler
 2158              	.L96:
 798:Core/Src/main.c ****   }
 799:Core/Src/main.c ****   sClockSourceConfig.ClockSource = TIM_CLOCKSOURCE_INTERNAL;
 2159              		.loc 1 799 34
 2160 0054 4FF48053 		mov	r3, #4096
 2161 0058 3B61     		str	r3, [r7, #16]
 800:Core/Src/main.c ****   if (HAL_TIM_ConfigClockSource(&htim4, &sClockSourceConfig) != HAL_OK)
 2162              		.loc 1 800 7
 2163 005a 07F11003 		add	r3, r7, #16
 2164 005e 1946     		mov	r1, r3
 2165 0060 0C48     		ldr	r0, .L100
 2166 0062 FFF7FEFF 		bl	HAL_TIM_ConfigClockSource
 2167 0066 0346     		mov	r3, r0
 2168              		.loc 1 800 6
 2169 0068 002B     		cmp	r3, #0
 2170 006a 01D0     		beq	.L97
 801:Core/Src/main.c ****   {
 802:Core/Src/main.c ****     Error_Handler();
 2171              		.loc 1 802 5
 2172 006c FFF7FEFF 		bl	Error_Handler
 2173              	.L97:
 803:Core/Src/main.c ****   }
 804:Core/Src/main.c ****   sMasterConfig.MasterOutputTrigger = TIM_TRGO_RESET;
 2174              		.loc 1 804 37
ARM GAS  C:\Users\Morroway\AppData\Local\Temp\ccYl1imN.s 			page 55


 2175 0070 0023     		movs	r3, #0
 2176 0072 7B60     		str	r3, [r7, #4]
 805:Core/Src/main.c ****   sMasterConfig.MasterSlaveMode = TIM_MASTERSLAVEMODE_DISABLE;
 2177              		.loc 1 805 33
 2178 0074 0023     		movs	r3, #0
 2179 0076 FB60     		str	r3, [r7, #12]
 806:Core/Src/main.c ****   if (HAL_TIMEx_MasterConfigSynchronization(&htim4, &sMasterConfig) != HAL_OK)
 2180              		.loc 1 806 7
 2181 0078 3B1D     		adds	r3, r7, #4
 2182 007a 1946     		mov	r1, r3
 2183 007c 0548     		ldr	r0, .L100
 2184 007e FFF7FEFF 		bl	HAL_TIMEx_MasterConfigSynchronization
 2185 0082 0346     		mov	r3, r0
 2186              		.loc 1 806 6
 2187 0084 002B     		cmp	r3, #0
 2188 0086 01D0     		beq	.L99
 807:Core/Src/main.c ****   {
 808:Core/Src/main.c ****     Error_Handler();
 2189              		.loc 1 808 5
 2190 0088 FFF7FEFF 		bl	Error_Handler
 2191              	.L99:
 809:Core/Src/main.c ****   }
 810:Core/Src/main.c ****   /* USER CODE BEGIN TIM4_Init 2 */
 811:Core/Src/main.c **** 
 812:Core/Src/main.c ****   /* USER CODE END TIM4_Init 2 */
 813:Core/Src/main.c **** 
 814:Core/Src/main.c **** }
 2192              		.loc 1 814 1
 2193 008c 00BF     		nop
 2194 008e 2037     		adds	r7, r7, #32
 2195              		.cfi_def_cfa_offset 8
 2196 0090 BD46     		mov	sp, r7
 2197              		.cfi_def_cfa_register 13
 2198              		@ sp needed
 2199 0092 80BD     		pop	{r7, pc}
 2200              	.L101:
 2201              		.align	2
 2202              	.L100:
 2203 0094 00000000 		.word	htim4
 2204 0098 00080040 		.word	1073743872
 2205              		.cfi_endproc
 2206              	.LFE340:
 2208              		.section	.text.MX_TIM5_Init,"ax",%progbits
 2209              		.align	1
 2210              		.syntax unified
 2211              		.thumb
 2212              		.thumb_func
 2214              	MX_TIM5_Init:
 2215              	.LFB341:
 815:Core/Src/main.c **** 
 816:Core/Src/main.c **** /**
 817:Core/Src/main.c ****   * @brief TIM5 Initialization Function
 818:Core/Src/main.c ****   * @param None
 819:Core/Src/main.c ****   * @retval None
 820:Core/Src/main.c ****   */
 821:Core/Src/main.c **** static void MX_TIM5_Init(void)
 822:Core/Src/main.c **** {
ARM GAS  C:\Users\Morroway\AppData\Local\Temp\ccYl1imN.s 			page 56


 2216              		.loc 1 822 1
 2217              		.cfi_startproc
 2218              		@ args = 0, pretend = 0, frame = 32
 2219              		@ frame_needed = 1, uses_anonymous_args = 0
 2220 0000 80B5     		push	{r7, lr}
 2221              		.cfi_def_cfa_offset 8
 2222              		.cfi_offset 7, -8
 2223              		.cfi_offset 14, -4
 2224 0002 88B0     		sub	sp, sp, #32
 2225              		.cfi_def_cfa_offset 40
 2226 0004 00AF     		add	r7, sp, #0
 2227              		.cfi_def_cfa_register 7
 823:Core/Src/main.c **** 
 824:Core/Src/main.c ****   /* USER CODE BEGIN TIM5_Init 0 */
 825:Core/Src/main.c **** 
 826:Core/Src/main.c ****   /* USER CODE END TIM5_Init 0 */
 827:Core/Src/main.c **** 
 828:Core/Src/main.c ****   TIM_ClockConfigTypeDef sClockSourceConfig = {0};
 2228              		.loc 1 828 26
 2229 0006 07F11003 		add	r3, r7, #16
 2230 000a 0022     		movs	r2, #0
 2231 000c 1A60     		str	r2, [r3]
 2232 000e 5A60     		str	r2, [r3, #4]
 2233 0010 9A60     		str	r2, [r3, #8]
 2234 0012 DA60     		str	r2, [r3, #12]
 829:Core/Src/main.c ****   TIM_MasterConfigTypeDef sMasterConfig = {0};
 2235              		.loc 1 829 27
 2236 0014 3B1D     		adds	r3, r7, #4
 2237 0016 0022     		movs	r2, #0
 2238 0018 1A60     		str	r2, [r3]
 2239 001a 5A60     		str	r2, [r3, #4]
 2240 001c 9A60     		str	r2, [r3, #8]
 830:Core/Src/main.c **** 
 831:Core/Src/main.c ****   /* USER CODE BEGIN TIM5_Init 1 */
 832:Core/Src/main.c **** 
 833:Core/Src/main.c ****   /* USER CODE END TIM5_Init 1 */
 834:Core/Src/main.c ****   htim5.Instance = TIM5;
 2241              		.loc 1 834 18
 2242 001e 1D4B     		ldr	r3, .L107
 2243 0020 1D4A     		ldr	r2, .L107+4
 2244 0022 1A60     		str	r2, [r3]
 835:Core/Src/main.c ****   htim5.Init.Prescaler = 119;
 2245              		.loc 1 835 24
 2246 0024 1B4B     		ldr	r3, .L107
 2247 0026 7722     		movs	r2, #119
 2248 0028 5A60     		str	r2, [r3, #4]
 836:Core/Src/main.c ****   htim5.Init.CounterMode = TIM_COUNTERMODE_UP;
 2249              		.loc 1 836 26
 2250 002a 1A4B     		ldr	r3, .L107
 2251 002c 0022     		movs	r2, #0
 2252 002e 9A60     		str	r2, [r3, #8]
 837:Core/Src/main.c ****   htim5.Init.Period = 4294967295;
 2253              		.loc 1 837 21
 2254 0030 184B     		ldr	r3, .L107
 2255 0032 4FF0FF32 		mov	r2, #-1
 2256 0036 DA60     		str	r2, [r3, #12]
 838:Core/Src/main.c ****   htim5.Init.ClockDivision = TIM_CLOCKDIVISION_DIV1;
ARM GAS  C:\Users\Morroway\AppData\Local\Temp\ccYl1imN.s 			page 57


 2257              		.loc 1 838 28
 2258 0038 164B     		ldr	r3, .L107
 2259 003a 0022     		movs	r2, #0
 2260 003c 1A61     		str	r2, [r3, #16]
 839:Core/Src/main.c ****   htim5.Init.AutoReloadPreload = TIM_AUTORELOAD_PRELOAD_DISABLE;
 2261              		.loc 1 839 32
 2262 003e 154B     		ldr	r3, .L107
 2263 0040 0022     		movs	r2, #0
 2264 0042 9A61     		str	r2, [r3, #24]
 840:Core/Src/main.c ****   if (HAL_TIM_Base_Init(&htim5) != HAL_OK)
 2265              		.loc 1 840 7
 2266 0044 1348     		ldr	r0, .L107
 2267 0046 FFF7FEFF 		bl	HAL_TIM_Base_Init
 2268 004a 0346     		mov	r3, r0
 2269              		.loc 1 840 6
 2270 004c 002B     		cmp	r3, #0
 2271 004e 01D0     		beq	.L103
 841:Core/Src/main.c ****   {
 842:Core/Src/main.c ****     Error_Handler();
 2272              		.loc 1 842 5
 2273 0050 FFF7FEFF 		bl	Error_Handler
 2274              	.L103:
 843:Core/Src/main.c ****   }
 844:Core/Src/main.c ****   sClockSourceConfig.ClockSource = TIM_CLOCKSOURCE_INTERNAL;
 2275              		.loc 1 844 34
 2276 0054 4FF48053 		mov	r3, #4096
 2277 0058 3B61     		str	r3, [r7, #16]
 845:Core/Src/main.c ****   if (HAL_TIM_ConfigClockSource(&htim5, &sClockSourceConfig) != HAL_OK)
 2278              		.loc 1 845 7
 2279 005a 07F11003 		add	r3, r7, #16
 2280 005e 1946     		mov	r1, r3
 2281 0060 0C48     		ldr	r0, .L107
 2282 0062 FFF7FEFF 		bl	HAL_TIM_ConfigClockSource
 2283 0066 0346     		mov	r3, r0
 2284              		.loc 1 845 6
 2285 0068 002B     		cmp	r3, #0
 2286 006a 01D0     		beq	.L104
 846:Core/Src/main.c ****   {
 847:Core/Src/main.c ****     Error_Handler();
 2287              		.loc 1 847 5
 2288 006c FFF7FEFF 		bl	Error_Handler
 2289              	.L104:
 848:Core/Src/main.c ****   }
 849:Core/Src/main.c ****   sMasterConfig.MasterOutputTrigger = TIM_TRGO_RESET;
 2290              		.loc 1 849 37
 2291 0070 0023     		movs	r3, #0
 2292 0072 7B60     		str	r3, [r7, #4]
 850:Core/Src/main.c ****   sMasterConfig.MasterSlaveMode = TIM_MASTERSLAVEMODE_DISABLE;
 2293              		.loc 1 850 33
 2294 0074 0023     		movs	r3, #0
 2295 0076 FB60     		str	r3, [r7, #12]
 851:Core/Src/main.c ****   if (HAL_TIMEx_MasterConfigSynchronization(&htim5, &sMasterConfig) != HAL_OK)
 2296              		.loc 1 851 7
 2297 0078 3B1D     		adds	r3, r7, #4
 2298 007a 1946     		mov	r1, r3
 2299 007c 0548     		ldr	r0, .L107
 2300 007e FFF7FEFF 		bl	HAL_TIMEx_MasterConfigSynchronization
ARM GAS  C:\Users\Morroway\AppData\Local\Temp\ccYl1imN.s 			page 58


 2301 0082 0346     		mov	r3, r0
 2302              		.loc 1 851 6
 2303 0084 002B     		cmp	r3, #0
 2304 0086 01D0     		beq	.L106
 852:Core/Src/main.c ****   {
 853:Core/Src/main.c ****     Error_Handler();
 2305              		.loc 1 853 5
 2306 0088 FFF7FEFF 		bl	Error_Handler
 2307              	.L106:
 854:Core/Src/main.c ****   }
 855:Core/Src/main.c ****   /* USER CODE BEGIN TIM5_Init 2 */
 856:Core/Src/main.c **** 
 857:Core/Src/main.c ****   /* USER CODE END TIM5_Init 2 */
 858:Core/Src/main.c **** 
 859:Core/Src/main.c **** }
 2308              		.loc 1 859 1
 2309 008c 00BF     		nop
 2310 008e 2037     		adds	r7, r7, #32
 2311              		.cfi_def_cfa_offset 8
 2312 0090 BD46     		mov	sp, r7
 2313              		.cfi_def_cfa_register 13
 2314              		@ sp needed
 2315 0092 80BD     		pop	{r7, pc}
 2316              	.L108:
 2317              		.align	2
 2318              	.L107:
 2319 0094 00000000 		.word	htim5
 2320 0098 000C0040 		.word	1073744896
 2321              		.cfi_endproc
 2322              	.LFE341:
 2324              		.section	.text.MX_USB_OTG_FS_PCD_Init,"ax",%progbits
 2325              		.align	1
 2326              		.syntax unified
 2327              		.thumb
 2328              		.thumb_func
 2330              	MX_USB_OTG_FS_PCD_Init:
 2331              	.LFB342:
 860:Core/Src/main.c **** 
 861:Core/Src/main.c **** /**
 862:Core/Src/main.c ****   * @brief USB_OTG_FS Initialization Function
 863:Core/Src/main.c ****   * @param None
 864:Core/Src/main.c ****   * @retval None
 865:Core/Src/main.c ****   */
 866:Core/Src/main.c **** static void MX_USB_OTG_FS_PCD_Init(void)
 867:Core/Src/main.c **** {
 2332              		.loc 1 867 1
 2333              		.cfi_startproc
 2334              		@ args = 0, pretend = 0, frame = 0
 2335              		@ frame_needed = 1, uses_anonymous_args = 0
 2336 0000 80B5     		push	{r7, lr}
 2337              		.cfi_def_cfa_offset 8
 2338              		.cfi_offset 7, -8
 2339              		.cfi_offset 14, -4
 2340 0002 00AF     		add	r7, sp, #0
 2341              		.cfi_def_cfa_register 7
 868:Core/Src/main.c **** 
 869:Core/Src/main.c ****   /* USER CODE BEGIN USB_OTG_FS_Init 0 */
ARM GAS  C:\Users\Morroway\AppData\Local\Temp\ccYl1imN.s 			page 59


 870:Core/Src/main.c **** 
 871:Core/Src/main.c ****   /* USER CODE END USB_OTG_FS_Init 0 */
 872:Core/Src/main.c **** 
 873:Core/Src/main.c ****   /* USER CODE BEGIN USB_OTG_FS_Init 1 */
 874:Core/Src/main.c **** 
 875:Core/Src/main.c ****   /* USER CODE END USB_OTG_FS_Init 1 */
 876:Core/Src/main.c ****   hpcd_USB_OTG_FS.Instance = USB_OTG_FS;
 2342              		.loc 1 876 28
 2343 0004 124B     		ldr	r3, .L112
 2344 0006 4FF0A042 		mov	r2, #1342177280
 2345 000a 1A60     		str	r2, [r3]
 877:Core/Src/main.c ****   hpcd_USB_OTG_FS.Init.dev_endpoints = 6;
 2346              		.loc 1 877 38
 2347 000c 104B     		ldr	r3, .L112
 2348 000e 0622     		movs	r2, #6
 2349 0010 5A60     		str	r2, [r3, #4]
 878:Core/Src/main.c ****   hpcd_USB_OTG_FS.Init.phy_itface = PCD_PHY_EMBEDDED;
 2350              		.loc 1 878 35
 2351 0012 0F4B     		ldr	r3, .L112
 2352 0014 0222     		movs	r2, #2
 2353 0016 9A61     		str	r2, [r3, #24]
 879:Core/Src/main.c ****   hpcd_USB_OTG_FS.Init.Sof_enable = ENABLE;
 2354              		.loc 1 879 35
 2355 0018 0D4B     		ldr	r3, .L112
 2356 001a 0122     		movs	r2, #1
 2357 001c DA61     		str	r2, [r3, #28]
 880:Core/Src/main.c ****   hpcd_USB_OTG_FS.Init.low_power_enable = DISABLE;
 2358              		.loc 1 880 41
 2359 001e 0C4B     		ldr	r3, .L112
 2360 0020 0022     		movs	r2, #0
 2361 0022 1A62     		str	r2, [r3, #32]
 881:Core/Src/main.c ****   hpcd_USB_OTG_FS.Init.lpm_enable = DISABLE;
 2362              		.loc 1 881 35
 2363 0024 0A4B     		ldr	r3, .L112
 2364 0026 0022     		movs	r2, #0
 2365 0028 5A62     		str	r2, [r3, #36]
 882:Core/Src/main.c ****   hpcd_USB_OTG_FS.Init.battery_charging_enable = ENABLE;
 2366              		.loc 1 882 48
 2367 002a 094B     		ldr	r3, .L112
 2368 002c 0122     		movs	r2, #1
 2369 002e 9A62     		str	r2, [r3, #40]
 883:Core/Src/main.c ****   hpcd_USB_OTG_FS.Init.use_dedicated_ep1 = DISABLE;
 2370              		.loc 1 883 42
 2371 0030 074B     		ldr	r3, .L112
 2372 0032 0022     		movs	r2, #0
 2373 0034 1A63     		str	r2, [r3, #48]
 884:Core/Src/main.c ****   hpcd_USB_OTG_FS.Init.vbus_sensing_enable = ENABLE;
 2374              		.loc 1 884 44
 2375 0036 064B     		ldr	r3, .L112
 2376 0038 0122     		movs	r2, #1
 2377 003a DA62     		str	r2, [r3, #44]
 885:Core/Src/main.c ****   if (HAL_PCD_Init(&hpcd_USB_OTG_FS) != HAL_OK)
 2378              		.loc 1 885 7
 2379 003c 0448     		ldr	r0, .L112
 2380 003e FFF7FEFF 		bl	HAL_PCD_Init
 2381 0042 0346     		mov	r3, r0
 2382              		.loc 1 885 6
ARM GAS  C:\Users\Morroway\AppData\Local\Temp\ccYl1imN.s 			page 60


 2383 0044 002B     		cmp	r3, #0
 2384 0046 01D0     		beq	.L111
 886:Core/Src/main.c ****   {
 887:Core/Src/main.c ****     Error_Handler();
 2385              		.loc 1 887 5
 2386 0048 FFF7FEFF 		bl	Error_Handler
 2387              	.L111:
 888:Core/Src/main.c ****   }
 889:Core/Src/main.c ****   /* USER CODE BEGIN USB_OTG_FS_Init 2 */
 890:Core/Src/main.c **** 
 891:Core/Src/main.c ****   /* USER CODE END USB_OTG_FS_Init 2 */
 892:Core/Src/main.c **** 
 893:Core/Src/main.c **** }
 2388              		.loc 1 893 1
 2389 004c 00BF     		nop
 2390 004e 80BD     		pop	{r7, pc}
 2391              	.L113:
 2392              		.align	2
 2393              	.L112:
 2394 0050 00000000 		.word	hpcd_USB_OTG_FS
 2395              		.cfi_endproc
 2396              	.LFE342:
 2398              		.section	.text.MX_DMA_Init,"ax",%progbits
 2399              		.align	1
 2400              		.syntax unified
 2401              		.thumb
 2402              		.thumb_func
 2404              	MX_DMA_Init:
 2405              	.LFB343:
 894:Core/Src/main.c **** 
 895:Core/Src/main.c **** /**
 896:Core/Src/main.c ****   * Enable DMA controller clock
 897:Core/Src/main.c ****   */
 898:Core/Src/main.c **** static void MX_DMA_Init(void)
 899:Core/Src/main.c **** {
 2406              		.loc 1 899 1
 2407              		.cfi_startproc
 2408              		@ args = 0, pretend = 0, frame = 8
 2409              		@ frame_needed = 1, uses_anonymous_args = 0
 2410 0000 80B5     		push	{r7, lr}
 2411              		.cfi_def_cfa_offset 8
 2412              		.cfi_offset 7, -8
 2413              		.cfi_offset 14, -4
 2414 0002 82B0     		sub	sp, sp, #8
 2415              		.cfi_def_cfa_offset 16
 2416 0004 00AF     		add	r7, sp, #0
 2417              		.cfi_def_cfa_register 7
 2418              	.LBB4:
 900:Core/Src/main.c **** 
 901:Core/Src/main.c ****   /* DMA controller clock enable */
 902:Core/Src/main.c ****   __HAL_RCC_DMAMUX1_CLK_ENABLE();
 2419              		.loc 1 902 3
 2420 0006 164B     		ldr	r3, .L115
 2421 0008 9B6C     		ldr	r3, [r3, #72]
 2422 000a 154A     		ldr	r2, .L115
 2423 000c 43F00403 		orr	r3, r3, #4
 2424 0010 9364     		str	r3, [r2, #72]
ARM GAS  C:\Users\Morroway\AppData\Local\Temp\ccYl1imN.s 			page 61


 2425 0012 134B     		ldr	r3, .L115
 2426 0014 9B6C     		ldr	r3, [r3, #72]
 2427 0016 03F00403 		and	r3, r3, #4
 2428 001a 7B60     		str	r3, [r7, #4]
 2429 001c 7B68     		ldr	r3, [r7, #4]
 2430              	.LBE4:
 2431              	.LBB5:
 903:Core/Src/main.c ****   __HAL_RCC_DMA1_CLK_ENABLE();
 2432              		.loc 1 903 3
 2433 001e 104B     		ldr	r3, .L115
 2434 0020 9B6C     		ldr	r3, [r3, #72]
 2435 0022 0F4A     		ldr	r2, .L115
 2436 0024 43F00103 		orr	r3, r3, #1
 2437 0028 9364     		str	r3, [r2, #72]
 2438 002a 0D4B     		ldr	r3, .L115
 2439 002c 9B6C     		ldr	r3, [r3, #72]
 2440 002e 03F00103 		and	r3, r3, #1
 2441 0032 3B60     		str	r3, [r7]
 2442 0034 3B68     		ldr	r3, [r7]
 2443              	.LBE5:
 904:Core/Src/main.c **** 
 905:Core/Src/main.c ****   /* DMA interrupt init */
 906:Core/Src/main.c ****   /* DMA1_Channel1_IRQn interrupt configuration */
 907:Core/Src/main.c ****   HAL_NVIC_SetPriority(DMA1_Channel1_IRQn, 0, 0);
 2444              		.loc 1 907 3
 2445 0036 0022     		movs	r2, #0
 2446 0038 0021     		movs	r1, #0
 2447 003a 0B20     		movs	r0, #11
 2448 003c FFF7FEFF 		bl	HAL_NVIC_SetPriority
 908:Core/Src/main.c ****   HAL_NVIC_EnableIRQ(DMA1_Channel1_IRQn);
 2449              		.loc 1 908 3
 2450 0040 0B20     		movs	r0, #11
 2451 0042 FFF7FEFF 		bl	HAL_NVIC_EnableIRQ
 909:Core/Src/main.c ****   /* DMA1_Channel2_IRQn interrupt configuration */
 910:Core/Src/main.c ****   HAL_NVIC_SetPriority(DMA1_Channel2_IRQn, 0, 0);
 2452              		.loc 1 910 3
 2453 0046 0022     		movs	r2, #0
 2454 0048 0021     		movs	r1, #0
 2455 004a 0C20     		movs	r0, #12
 2456 004c FFF7FEFF 		bl	HAL_NVIC_SetPriority
 911:Core/Src/main.c ****   HAL_NVIC_EnableIRQ(DMA1_Channel2_IRQn);
 2457              		.loc 1 911 3
 2458 0050 0C20     		movs	r0, #12
 2459 0052 FFF7FEFF 		bl	HAL_NVIC_EnableIRQ
 912:Core/Src/main.c **** 
 913:Core/Src/main.c **** }
 2460              		.loc 1 913 1
 2461 0056 00BF     		nop
 2462 0058 0837     		adds	r7, r7, #8
 2463              		.cfi_def_cfa_offset 8
 2464 005a BD46     		mov	sp, r7
 2465              		.cfi_def_cfa_register 13
 2466              		@ sp needed
 2467 005c 80BD     		pop	{r7, pc}
 2468              	.L116:
 2469 005e 00BF     		.align	2
 2470              	.L115:
ARM GAS  C:\Users\Morroway\AppData\Local\Temp\ccYl1imN.s 			page 62


 2471 0060 00100240 		.word	1073876992
 2472              		.cfi_endproc
 2473              	.LFE343:
 2475              		.section	.text.MX_GPIO_Init,"ax",%progbits
 2476              		.align	1
 2477              		.syntax unified
 2478              		.thumb
 2479              		.thumb_func
 2481              	MX_GPIO_Init:
 2482              	.LFB344:
 914:Core/Src/main.c **** 
 915:Core/Src/main.c **** /**
 916:Core/Src/main.c ****   * @brief GPIO Initialization Function
 917:Core/Src/main.c ****   * @param None
 918:Core/Src/main.c ****   * @retval None
 919:Core/Src/main.c ****   */
 920:Core/Src/main.c **** static void MX_GPIO_Init(void)
 921:Core/Src/main.c **** {
 2483              		.loc 1 921 1
 2484              		.cfi_startproc
 2485              		@ args = 0, pretend = 0, frame = 48
 2486              		@ frame_needed = 1, uses_anonymous_args = 0
 2487 0000 80B5     		push	{r7, lr}
 2488              		.cfi_def_cfa_offset 8
 2489              		.cfi_offset 7, -8
 2490              		.cfi_offset 14, -4
 2491 0002 8CB0     		sub	sp, sp, #48
 2492              		.cfi_def_cfa_offset 56
 2493 0004 00AF     		add	r7, sp, #0
 2494              		.cfi_def_cfa_register 7
 922:Core/Src/main.c ****   GPIO_InitTypeDef GPIO_InitStruct = {0};
 2495              		.loc 1 922 20
 2496 0006 07F11C03 		add	r3, r7, #28
 2497 000a 0022     		movs	r2, #0
 2498 000c 1A60     		str	r2, [r3]
 2499 000e 5A60     		str	r2, [r3, #4]
 2500 0010 9A60     		str	r2, [r3, #8]
 2501 0012 DA60     		str	r2, [r3, #12]
 2502 0014 1A61     		str	r2, [r3, #16]
 2503              	.LBB6:
 923:Core/Src/main.c **** 
 924:Core/Src/main.c ****   /* GPIO Ports Clock Enable */
 925:Core/Src/main.c ****   __HAL_RCC_GPIOE_CLK_ENABLE();
 2504              		.loc 1 925 3
 2505 0016 7B4B     		ldr	r3, .L118
 2506 0018 DB6C     		ldr	r3, [r3, #76]
 2507 001a 7A4A     		ldr	r2, .L118
 2508 001c 43F01003 		orr	r3, r3, #16
 2509 0020 D364     		str	r3, [r2, #76]
 2510 0022 784B     		ldr	r3, .L118
 2511 0024 DB6C     		ldr	r3, [r3, #76]
 2512 0026 03F01003 		and	r3, r3, #16
 2513 002a BB61     		str	r3, [r7, #24]
 2514 002c BB69     		ldr	r3, [r7, #24]
 2515              	.LBE6:
 2516              	.LBB7:
 926:Core/Src/main.c ****   __HAL_RCC_GPIOC_CLK_ENABLE();
ARM GAS  C:\Users\Morroway\AppData\Local\Temp\ccYl1imN.s 			page 63


 2517              		.loc 1 926 3
 2518 002e 754B     		ldr	r3, .L118
 2519 0030 DB6C     		ldr	r3, [r3, #76]
 2520 0032 744A     		ldr	r2, .L118
 2521 0034 43F00403 		orr	r3, r3, #4
 2522 0038 D364     		str	r3, [r2, #76]
 2523 003a 724B     		ldr	r3, .L118
 2524 003c DB6C     		ldr	r3, [r3, #76]
 2525 003e 03F00403 		and	r3, r3, #4
 2526 0042 7B61     		str	r3, [r7, #20]
 2527 0044 7B69     		ldr	r3, [r7, #20]
 2528              	.LBE7:
 2529              	.LBB8:
 927:Core/Src/main.c ****   __HAL_RCC_GPIOF_CLK_ENABLE();
 2530              		.loc 1 927 3
 2531 0046 6F4B     		ldr	r3, .L118
 2532 0048 DB6C     		ldr	r3, [r3, #76]
 2533 004a 6E4A     		ldr	r2, .L118
 2534 004c 43F02003 		orr	r3, r3, #32
 2535 0050 D364     		str	r3, [r2, #76]
 2536 0052 6C4B     		ldr	r3, .L118
 2537 0054 DB6C     		ldr	r3, [r3, #76]
 2538 0056 03F02003 		and	r3, r3, #32
 2539 005a 3B61     		str	r3, [r7, #16]
 2540 005c 3B69     		ldr	r3, [r7, #16]
 2541              	.LBE8:
 2542              	.LBB9:
 928:Core/Src/main.c ****   __HAL_RCC_GPIOH_CLK_ENABLE();
 2543              		.loc 1 928 3
 2544 005e 694B     		ldr	r3, .L118
 2545 0060 DB6C     		ldr	r3, [r3, #76]
 2546 0062 684A     		ldr	r2, .L118
 2547 0064 43F08003 		orr	r3, r3, #128
 2548 0068 D364     		str	r3, [r2, #76]
 2549 006a 664B     		ldr	r3, .L118
 2550 006c DB6C     		ldr	r3, [r3, #76]
 2551 006e 03F08003 		and	r3, r3, #128
 2552 0072 FB60     		str	r3, [r7, #12]
 2553 0074 FB68     		ldr	r3, [r7, #12]
 2554              	.LBE9:
 2555              	.LBB10:
 929:Core/Src/main.c ****   __HAL_RCC_GPIOA_CLK_ENABLE();
 2556              		.loc 1 929 3
 2557 0076 634B     		ldr	r3, .L118
 2558 0078 DB6C     		ldr	r3, [r3, #76]
 2559 007a 624A     		ldr	r2, .L118
 2560 007c 43F00103 		orr	r3, r3, #1
 2561 0080 D364     		str	r3, [r2, #76]
 2562 0082 604B     		ldr	r3, .L118
 2563 0084 DB6C     		ldr	r3, [r3, #76]
 2564 0086 03F00103 		and	r3, r3, #1
 2565 008a BB60     		str	r3, [r7, #8]
 2566 008c BB68     		ldr	r3, [r7, #8]
 2567              	.LBE10:
 2568              	.LBB11:
 930:Core/Src/main.c ****   __HAL_RCC_GPIOB_CLK_ENABLE();
 2569              		.loc 1 930 3
ARM GAS  C:\Users\Morroway\AppData\Local\Temp\ccYl1imN.s 			page 64


 2570 008e 5D4B     		ldr	r3, .L118
 2571 0090 DB6C     		ldr	r3, [r3, #76]
 2572 0092 5C4A     		ldr	r2, .L118
 2573 0094 43F00203 		orr	r3, r3, #2
 2574 0098 D364     		str	r3, [r2, #76]
 2575 009a 5A4B     		ldr	r3, .L118
 2576 009c DB6C     		ldr	r3, [r3, #76]
 2577 009e 03F00203 		and	r3, r3, #2
 2578 00a2 7B60     		str	r3, [r7, #4]
 2579 00a4 7B68     		ldr	r3, [r7, #4]
 2580              	.LBE11:
 2581              	.LBB12:
 931:Core/Src/main.c ****   __HAL_RCC_GPIOG_CLK_ENABLE();
 2582              		.loc 1 931 3
 2583 00a6 574B     		ldr	r3, .L118
 2584 00a8 DB6C     		ldr	r3, [r3, #76]
 2585 00aa 564A     		ldr	r2, .L118
 2586 00ac 43F04003 		orr	r3, r3, #64
 2587 00b0 D364     		str	r3, [r2, #76]
 2588 00b2 544B     		ldr	r3, .L118
 2589 00b4 DB6C     		ldr	r3, [r3, #76]
 2590 00b6 03F04003 		and	r3, r3, #64
 2591 00ba 3B60     		str	r3, [r7]
 2592 00bc 3B68     		ldr	r3, [r7]
 2593              	.LBE12:
 932:Core/Src/main.c ****   HAL_PWREx_EnableVddIO2();
 2594              		.loc 1 932 3
 2595 00be FFF7FEFF 		bl	HAL_PWREx_EnableVddIO2
 933:Core/Src/main.c **** 
 934:Core/Src/main.c ****   /*Configure GPIO pin Output Level */
 935:Core/Src/main.c ****   HAL_GPIO_WritePin(GPIOF, GPIO_PIN_1|GPIO_PIN_2|GPIO_PIN_3|GPIO_PIN_6
 2596              		.loc 1 935 3
 2597 00c2 0022     		movs	r2, #0
 2598 00c4 40F2CE51 		movw	r1, #1486
 2599 00c8 4F48     		ldr	r0, .L118+4
 2600 00ca FFF7FEFF 		bl	HAL_GPIO_WritePin
 936:Core/Src/main.c ****                           |GPIO_PIN_7|GPIO_PIN_8|GPIO_PIN_10, GPIO_PIN_RESET);
 937:Core/Src/main.c **** 
 938:Core/Src/main.c ****   /*Configure GPIO pin Output Level */
 939:Core/Src/main.c ****   HAL_GPIO_WritePin(GPIOA, GPIO_PIN_7, GPIO_PIN_RESET);
 2601              		.loc 1 939 3
 2602 00ce 0022     		movs	r2, #0
 2603 00d0 8021     		movs	r1, #128
 2604 00d2 4FF09040 		mov	r0, #1207959552
 2605 00d6 FFF7FEFF 		bl	HAL_GPIO_WritePin
 940:Core/Src/main.c **** 
 941:Core/Src/main.c ****   /*Configure GPIO pin Output Level */
 942:Core/Src/main.c ****   HAL_GPIO_WritePin(GPIOB, GPIO_PIN_0|GPIO_PIN_1|LD3_Pin|LD2_Pin, GPIO_PIN_RESET);
 2606              		.loc 1 942 3
 2607 00da 0022     		movs	r2, #0
 2608 00dc 44F28301 		movw	r1, #16515
 2609 00e0 4A48     		ldr	r0, .L118+8
 2610 00e2 FFF7FEFF 		bl	HAL_GPIO_WritePin
 943:Core/Src/main.c **** 
 944:Core/Src/main.c ****   /*Configure GPIO pin Output Level */
 945:Core/Src/main.c ****   HAL_GPIO_WritePin(GPIOG, USB_PowerSwitchOn_Pin|CS_Pin|DC_Pin|RST_Pin
 2611              		.loc 1 945 3
ARM GAS  C:\Users\Morroway\AppData\Local\Temp\ccYl1imN.s 			page 65


 2612 00e6 0022     		movs	r2, #0
 2613 00e8 4FF24001 		movw	r1, #61504
 2614 00ec 4848     		ldr	r0, .L118+12
 2615 00ee FFF7FEFF 		bl	HAL_GPIO_WritePin
 946:Core/Src/main.c ****                           |GPIO_PIN_15, GPIO_PIN_RESET);
 947:Core/Src/main.c **** 
 948:Core/Src/main.c ****   /*Configure GPIO pin Output Level */
 949:Core/Src/main.c ****   HAL_GPIO_WritePin(GPIOC, GPIO_PIN_6, GPIO_PIN_RESET);
 2616              		.loc 1 949 3
 2617 00f2 0022     		movs	r2, #0
 2618 00f4 4021     		movs	r1, #64
 2619 00f6 4748     		ldr	r0, .L118+16
 2620 00f8 FFF7FEFF 		bl	HAL_GPIO_WritePin
 950:Core/Src/main.c **** 
 951:Core/Src/main.c ****   /*Configure GPIO pin : B1_Pin */
 952:Core/Src/main.c ****   GPIO_InitStruct.Pin = B1_Pin;
 2621              		.loc 1 952 23
 2622 00fc 4FF40053 		mov	r3, #8192
 2623 0100 FB61     		str	r3, [r7, #28]
 953:Core/Src/main.c ****   GPIO_InitStruct.Mode = GPIO_MODE_IT_RISING;
 2624              		.loc 1 953 24
 2625 0102 4FF48813 		mov	r3, #1114112
 2626 0106 3B62     		str	r3, [r7, #32]
 954:Core/Src/main.c ****   GPIO_InitStruct.Pull = GPIO_NOPULL;
 2627              		.loc 1 954 24
 2628 0108 0023     		movs	r3, #0
 2629 010a 7B62     		str	r3, [r7, #36]
 955:Core/Src/main.c ****   HAL_GPIO_Init(B1_GPIO_Port, &GPIO_InitStruct);
 2630              		.loc 1 955 3
 2631 010c 07F11C03 		add	r3, r7, #28
 2632 0110 1946     		mov	r1, r3
 2633 0112 4048     		ldr	r0, .L118+16
 2634 0114 FFF7FEFF 		bl	HAL_GPIO_Init
 956:Core/Src/main.c **** 
 957:Core/Src/main.c ****   /*Configure GPIO pins : PF0 PF4 PF5 PF9 */
 958:Core/Src/main.c ****   GPIO_InitStruct.Pin = GPIO_PIN_0|GPIO_PIN_4|GPIO_PIN_5|GPIO_PIN_9;
 2635              		.loc 1 958 23
 2636 0118 40F23123 		movw	r3, #561
 2637 011c FB61     		str	r3, [r7, #28]
 959:Core/Src/main.c ****   GPIO_InitStruct.Mode = GPIO_MODE_INPUT;
 2638              		.loc 1 959 24
 2639 011e 0023     		movs	r3, #0
 2640 0120 3B62     		str	r3, [r7, #32]
 960:Core/Src/main.c ****   GPIO_InitStruct.Pull = GPIO_NOPULL;
 2641              		.loc 1 960 24
 2642 0122 0023     		movs	r3, #0
 2643 0124 7B62     		str	r3, [r7, #36]
 961:Core/Src/main.c ****   HAL_GPIO_Init(GPIOF, &GPIO_InitStruct);
 2644              		.loc 1 961 3
 2645 0126 07F11C03 		add	r3, r7, #28
 2646 012a 1946     		mov	r1, r3
 2647 012c 3648     		ldr	r0, .L118+4
 2648 012e FFF7FEFF 		bl	HAL_GPIO_Init
 962:Core/Src/main.c **** 
 963:Core/Src/main.c ****   /*Configure GPIO pins : PF1 PF2 PF3 PF6
 964:Core/Src/main.c ****                            PF7 PF8 PF10 */
 965:Core/Src/main.c ****   GPIO_InitStruct.Pin = GPIO_PIN_1|GPIO_PIN_2|GPIO_PIN_3|GPIO_PIN_6
ARM GAS  C:\Users\Morroway\AppData\Local\Temp\ccYl1imN.s 			page 66


 2649              		.loc 1 965 23
 2650 0132 40F2CE53 		movw	r3, #1486
 2651 0136 FB61     		str	r3, [r7, #28]
 966:Core/Src/main.c ****                           |GPIO_PIN_7|GPIO_PIN_8|GPIO_PIN_10;
 967:Core/Src/main.c ****   GPIO_InitStruct.Mode = GPIO_MODE_OUTPUT_PP;
 2652              		.loc 1 967 24
 2653 0138 0123     		movs	r3, #1
 2654 013a 3B62     		str	r3, [r7, #32]
 968:Core/Src/main.c ****   GPIO_InitStruct.Pull = GPIO_NOPULL;
 2655              		.loc 1 968 24
 2656 013c 0023     		movs	r3, #0
 2657 013e 7B62     		str	r3, [r7, #36]
 969:Core/Src/main.c ****   GPIO_InitStruct.Speed = GPIO_SPEED_FREQ_LOW;
 2658              		.loc 1 969 25
 2659 0140 0023     		movs	r3, #0
 2660 0142 BB62     		str	r3, [r7, #40]
 970:Core/Src/main.c ****   HAL_GPIO_Init(GPIOF, &GPIO_InitStruct);
 2661              		.loc 1 970 3
 2662 0144 07F11C03 		add	r3, r7, #28
 2663 0148 1946     		mov	r1, r3
 2664 014a 2F48     		ldr	r0, .L118+4
 2665 014c FFF7FEFF 		bl	HAL_GPIO_Init
 971:Core/Src/main.c **** 
 972:Core/Src/main.c ****   /*Configure GPIO pin : PA7 */
 973:Core/Src/main.c ****   GPIO_InitStruct.Pin = GPIO_PIN_7;
 2666              		.loc 1 973 23
 2667 0150 8023     		movs	r3, #128
 2668 0152 FB61     		str	r3, [r7, #28]
 974:Core/Src/main.c ****   GPIO_InitStruct.Mode = GPIO_MODE_OUTPUT_PP;
 2669              		.loc 1 974 24
 2670 0154 0123     		movs	r3, #1
 2671 0156 3B62     		str	r3, [r7, #32]
 975:Core/Src/main.c ****   GPIO_InitStruct.Pull = GPIO_NOPULL;
 2672              		.loc 1 975 24
 2673 0158 0023     		movs	r3, #0
 2674 015a 7B62     		str	r3, [r7, #36]
 976:Core/Src/main.c ****   GPIO_InitStruct.Speed = GPIO_SPEED_FREQ_LOW;
 2675              		.loc 1 976 25
 2676 015c 0023     		movs	r3, #0
 2677 015e BB62     		str	r3, [r7, #40]
 977:Core/Src/main.c ****   HAL_GPIO_Init(GPIOA, &GPIO_InitStruct);
 2678              		.loc 1 977 3
 2679 0160 07F11C03 		add	r3, r7, #28
 2680 0164 1946     		mov	r1, r3
 2681 0166 4FF09040 		mov	r0, #1207959552
 2682 016a FFF7FEFF 		bl	HAL_GPIO_Init
 978:Core/Src/main.c **** 
 979:Core/Src/main.c ****   /*Configure GPIO pins : PB0 PB1 LD3_Pin LD2_Pin */
 980:Core/Src/main.c ****   GPIO_InitStruct.Pin = GPIO_PIN_0|GPIO_PIN_1|LD3_Pin|LD2_Pin;
 2683              		.loc 1 980 23
 2684 016e 44F28303 		movw	r3, #16515
 2685 0172 FB61     		str	r3, [r7, #28]
 981:Core/Src/main.c ****   GPIO_InitStruct.Mode = GPIO_MODE_OUTPUT_PP;
 2686              		.loc 1 981 24
 2687 0174 0123     		movs	r3, #1
 2688 0176 3B62     		str	r3, [r7, #32]
 982:Core/Src/main.c ****   GPIO_InitStruct.Pull = GPIO_NOPULL;
ARM GAS  C:\Users\Morroway\AppData\Local\Temp\ccYl1imN.s 			page 67


 2689              		.loc 1 982 24
 2690 0178 0023     		movs	r3, #0
 2691 017a 7B62     		str	r3, [r7, #36]
 983:Core/Src/main.c ****   GPIO_InitStruct.Speed = GPIO_SPEED_FREQ_LOW;
 2692              		.loc 1 983 25
 2693 017c 0023     		movs	r3, #0
 2694 017e BB62     		str	r3, [r7, #40]
 984:Core/Src/main.c ****   HAL_GPIO_Init(GPIOB, &GPIO_InitStruct);
 2695              		.loc 1 984 3
 2696 0180 07F11C03 		add	r3, r7, #28
 2697 0184 1946     		mov	r1, r3
 2698 0186 2148     		ldr	r0, .L118+8
 2699 0188 FFF7FEFF 		bl	HAL_GPIO_Init
 985:Core/Src/main.c **** 
 986:Core/Src/main.c ****   /*Configure GPIO pins : USB_OverCurrent_Pin PG11 */
 987:Core/Src/main.c ****   GPIO_InitStruct.Pin = USB_OverCurrent_Pin|GPIO_PIN_11;
 2700              		.loc 1 987 23
 2701 018c 4FF40263 		mov	r3, #2080
 2702 0190 FB61     		str	r3, [r7, #28]
 988:Core/Src/main.c ****   GPIO_InitStruct.Mode = GPIO_MODE_INPUT;
 2703              		.loc 1 988 24
 2704 0192 0023     		movs	r3, #0
 2705 0194 3B62     		str	r3, [r7, #32]
 989:Core/Src/main.c ****   GPIO_InitStruct.Pull = GPIO_NOPULL;
 2706              		.loc 1 989 24
 2707 0196 0023     		movs	r3, #0
 2708 0198 7B62     		str	r3, [r7, #36]
 990:Core/Src/main.c ****   HAL_GPIO_Init(GPIOG, &GPIO_InitStruct);
 2709              		.loc 1 990 3
 2710 019a 07F11C03 		add	r3, r7, #28
 2711 019e 1946     		mov	r1, r3
 2712 01a0 1B48     		ldr	r0, .L118+12
 2713 01a2 FFF7FEFF 		bl	HAL_GPIO_Init
 991:Core/Src/main.c **** 
 992:Core/Src/main.c ****   /*Configure GPIO pin : USB_PowerSwitchOn_Pin */
 993:Core/Src/main.c ****   GPIO_InitStruct.Pin = USB_PowerSwitchOn_Pin;
 2714              		.loc 1 993 23
 2715 01a6 4023     		movs	r3, #64
 2716 01a8 FB61     		str	r3, [r7, #28]
 994:Core/Src/main.c ****   GPIO_InitStruct.Mode = GPIO_MODE_OUTPUT_PP;
 2717              		.loc 1 994 24
 2718 01aa 0123     		movs	r3, #1
 2719 01ac 3B62     		str	r3, [r7, #32]
 995:Core/Src/main.c ****   GPIO_InitStruct.Pull = GPIO_NOPULL;
 2720              		.loc 1 995 24
 2721 01ae 0023     		movs	r3, #0
 2722 01b0 7B62     		str	r3, [r7, #36]
 996:Core/Src/main.c ****   GPIO_InitStruct.Speed = GPIO_SPEED_FREQ_LOW;
 2723              		.loc 1 996 25
 2724 01b2 0023     		movs	r3, #0
 2725 01b4 BB62     		str	r3, [r7, #40]
 997:Core/Src/main.c ****   HAL_GPIO_Init(USB_PowerSwitchOn_GPIO_Port, &GPIO_InitStruct);
 2726              		.loc 1 997 3
 2727 01b6 07F11C03 		add	r3, r7, #28
 2728 01ba 1946     		mov	r1, r3
 2729 01bc 1448     		ldr	r0, .L118+12
 2730 01be FFF7FEFF 		bl	HAL_GPIO_Init
ARM GAS  C:\Users\Morroway\AppData\Local\Temp\ccYl1imN.s 			page 68


 998:Core/Src/main.c **** 
 999:Core/Src/main.c ****   /*Configure GPIO pin : PC6 */
1000:Core/Src/main.c ****   GPIO_InitStruct.Pin = GPIO_PIN_6;
 2731              		.loc 1 1000 23
 2732 01c2 4023     		movs	r3, #64
 2733 01c4 FB61     		str	r3, [r7, #28]
1001:Core/Src/main.c ****   GPIO_InitStruct.Mode = GPIO_MODE_OUTPUT_PP;
 2734              		.loc 1 1001 24
 2735 01c6 0123     		movs	r3, #1
 2736 01c8 3B62     		str	r3, [r7, #32]
1002:Core/Src/main.c ****   GPIO_InitStruct.Pull = GPIO_NOPULL;
 2737              		.loc 1 1002 24
 2738 01ca 0023     		movs	r3, #0
 2739 01cc 7B62     		str	r3, [r7, #36]
1003:Core/Src/main.c ****   GPIO_InitStruct.Speed = GPIO_SPEED_FREQ_LOW;
 2740              		.loc 1 1003 25
 2741 01ce 0023     		movs	r3, #0
 2742 01d0 BB62     		str	r3, [r7, #40]
1004:Core/Src/main.c ****   HAL_GPIO_Init(GPIOC, &GPIO_InitStruct);
 2743              		.loc 1 1004 3
 2744 01d2 07F11C03 		add	r3, r7, #28
 2745 01d6 1946     		mov	r1, r3
 2746 01d8 0E48     		ldr	r0, .L118+16
 2747 01da FFF7FEFF 		bl	HAL_GPIO_Init
1005:Core/Src/main.c **** 
1006:Core/Src/main.c ****   /*Configure GPIO pins : CS_Pin DC_Pin RST_Pin PG15 */
1007:Core/Src/main.c ****   GPIO_InitStruct.Pin = CS_Pin|DC_Pin|RST_Pin|GPIO_PIN_15;
 2748              		.loc 1 1007 23
 2749 01de 4FF47043 		mov	r3, #61440
 2750 01e2 FB61     		str	r3, [r7, #28]
1008:Core/Src/main.c ****   GPIO_InitStruct.Mode = GPIO_MODE_OUTPUT_PP;
 2751              		.loc 1 1008 24
 2752 01e4 0123     		movs	r3, #1
 2753 01e6 3B62     		str	r3, [r7, #32]
1009:Core/Src/main.c ****   GPIO_InitStruct.Pull = GPIO_NOPULL;
 2754              		.loc 1 1009 24
 2755 01e8 0023     		movs	r3, #0
 2756 01ea 7B62     		str	r3, [r7, #36]
1010:Core/Src/main.c ****   GPIO_InitStruct.Speed = GPIO_SPEED_FREQ_VERY_HIGH;
 2757              		.loc 1 1010 25
 2758 01ec 0323     		movs	r3, #3
 2759 01ee BB62     		str	r3, [r7, #40]
1011:Core/Src/main.c ****   HAL_GPIO_Init(GPIOG, &GPIO_InitStruct);
 2760              		.loc 1 1011 3
 2761 01f0 07F11C03 		add	r3, r7, #28
 2762 01f4 1946     		mov	r1, r3
 2763 01f6 0648     		ldr	r0, .L118+12
 2764 01f8 FFF7FEFF 		bl	HAL_GPIO_Init
1012:Core/Src/main.c **** 
1013:Core/Src/main.c **** }
 2765              		.loc 1 1013 1
 2766 01fc 00BF     		nop
 2767 01fe 3037     		adds	r7, r7, #48
 2768              		.cfi_def_cfa_offset 8
 2769 0200 BD46     		mov	sp, r7
 2770              		.cfi_def_cfa_register 13
 2771              		@ sp needed
ARM GAS  C:\Users\Morroway\AppData\Local\Temp\ccYl1imN.s 			page 69


 2772 0202 80BD     		pop	{r7, pc}
 2773              	.L119:
 2774              		.align	2
 2775              	.L118:
 2776 0204 00100240 		.word	1073876992
 2777 0208 00140048 		.word	1207964672
 2778 020c 00040048 		.word	1207960576
 2779 0210 00180048 		.word	1207965696
 2780 0214 00080048 		.word	1207961600
 2781              		.cfi_endproc
 2782              	.LFE344:
 2784              		.section	.text.Error_Handler,"ax",%progbits
 2785              		.align	1
 2786              		.global	Error_Handler
 2787              		.syntax unified
 2788              		.thumb
 2789              		.thumb_func
 2791              	Error_Handler:
 2792              	.LFB345:
1014:Core/Src/main.c **** 
1015:Core/Src/main.c **** /* USER CODE BEGIN 4 */
1016:Core/Src/main.c **** 
1017:Core/Src/main.c **** /* USER CODE END 4 */
1018:Core/Src/main.c **** 
1019:Core/Src/main.c **** /**
1020:Core/Src/main.c ****   * @brief  This function is executed in case of error occurrence.
1021:Core/Src/main.c ****   * @retval None
1022:Core/Src/main.c ****   */
1023:Core/Src/main.c **** void Error_Handler(void)
1024:Core/Src/main.c **** {
 2793              		.loc 1 1024 1
 2794              		.cfi_startproc
 2795              		@ args = 0, pretend = 0, frame = 0
 2796              		@ frame_needed = 1, uses_anonymous_args = 0
 2797              		@ link register save eliminated.
 2798 0000 80B4     		push	{r7}
 2799              		.cfi_def_cfa_offset 4
 2800              		.cfi_offset 7, -4
 2801 0002 00AF     		add	r7, sp, #0
 2802              		.cfi_def_cfa_register 7
 2803              	.LBB13:
 2804              	.LBB14:
 2805              		.file 2 "Drivers/CMSIS/Include/cmsis_gcc.h"
   1:Drivers/CMSIS/Include/cmsis_gcc.h **** /**************************************************************************//**
   2:Drivers/CMSIS/Include/cmsis_gcc.h ****  * @file     cmsis_gcc.h
   3:Drivers/CMSIS/Include/cmsis_gcc.h ****  * @brief    CMSIS compiler GCC header file
   4:Drivers/CMSIS/Include/cmsis_gcc.h ****  * @version  V5.2.0
   5:Drivers/CMSIS/Include/cmsis_gcc.h ****  * @date     08. May 2019
   6:Drivers/CMSIS/Include/cmsis_gcc.h ****  ******************************************************************************/
   7:Drivers/CMSIS/Include/cmsis_gcc.h **** /*
   8:Drivers/CMSIS/Include/cmsis_gcc.h ****  * Copyright (c) 2009-2019 Arm Limited. All rights reserved.
   9:Drivers/CMSIS/Include/cmsis_gcc.h ****  *
  10:Drivers/CMSIS/Include/cmsis_gcc.h ****  * SPDX-License-Identifier: Apache-2.0
  11:Drivers/CMSIS/Include/cmsis_gcc.h ****  *
  12:Drivers/CMSIS/Include/cmsis_gcc.h ****  * Licensed under the Apache License, Version 2.0 (the License); you may
  13:Drivers/CMSIS/Include/cmsis_gcc.h ****  * not use this file except in compliance with the License.
  14:Drivers/CMSIS/Include/cmsis_gcc.h ****  * You may obtain a copy of the License at
ARM GAS  C:\Users\Morroway\AppData\Local\Temp\ccYl1imN.s 			page 70


  15:Drivers/CMSIS/Include/cmsis_gcc.h ****  *
  16:Drivers/CMSIS/Include/cmsis_gcc.h ****  * www.apache.org/licenses/LICENSE-2.0
  17:Drivers/CMSIS/Include/cmsis_gcc.h ****  *
  18:Drivers/CMSIS/Include/cmsis_gcc.h ****  * Unless required by applicable law or agreed to in writing, software
  19:Drivers/CMSIS/Include/cmsis_gcc.h ****  * distributed under the License is distributed on an AS IS BASIS, WITHOUT
  20:Drivers/CMSIS/Include/cmsis_gcc.h ****  * WARRANTIES OR CONDITIONS OF ANY KIND, either express or implied.
  21:Drivers/CMSIS/Include/cmsis_gcc.h ****  * See the License for the specific language governing permissions and
  22:Drivers/CMSIS/Include/cmsis_gcc.h ****  * limitations under the License.
  23:Drivers/CMSIS/Include/cmsis_gcc.h ****  */
  24:Drivers/CMSIS/Include/cmsis_gcc.h **** 
  25:Drivers/CMSIS/Include/cmsis_gcc.h **** #ifndef __CMSIS_GCC_H
  26:Drivers/CMSIS/Include/cmsis_gcc.h **** #define __CMSIS_GCC_H
  27:Drivers/CMSIS/Include/cmsis_gcc.h **** 
  28:Drivers/CMSIS/Include/cmsis_gcc.h **** /* ignore some GCC warnings */
  29:Drivers/CMSIS/Include/cmsis_gcc.h **** #pragma GCC diagnostic push
  30:Drivers/CMSIS/Include/cmsis_gcc.h **** #pragma GCC diagnostic ignored "-Wsign-conversion"
  31:Drivers/CMSIS/Include/cmsis_gcc.h **** #pragma GCC diagnostic ignored "-Wconversion"
  32:Drivers/CMSIS/Include/cmsis_gcc.h **** #pragma GCC diagnostic ignored "-Wunused-parameter"
  33:Drivers/CMSIS/Include/cmsis_gcc.h **** 
  34:Drivers/CMSIS/Include/cmsis_gcc.h **** /* Fallback for __has_builtin */
  35:Drivers/CMSIS/Include/cmsis_gcc.h **** #ifndef __has_builtin
  36:Drivers/CMSIS/Include/cmsis_gcc.h ****   #define __has_builtin(x) (0)
  37:Drivers/CMSIS/Include/cmsis_gcc.h **** #endif
  38:Drivers/CMSIS/Include/cmsis_gcc.h **** 
  39:Drivers/CMSIS/Include/cmsis_gcc.h **** /* CMSIS compiler specific defines */
  40:Drivers/CMSIS/Include/cmsis_gcc.h **** #ifndef   __ASM
  41:Drivers/CMSIS/Include/cmsis_gcc.h ****   #define __ASM                                  __asm
  42:Drivers/CMSIS/Include/cmsis_gcc.h **** #endif
  43:Drivers/CMSIS/Include/cmsis_gcc.h **** #ifndef   __INLINE
  44:Drivers/CMSIS/Include/cmsis_gcc.h ****   #define __INLINE                               inline
  45:Drivers/CMSIS/Include/cmsis_gcc.h **** #endif
  46:Drivers/CMSIS/Include/cmsis_gcc.h **** #ifndef   __STATIC_INLINE
  47:Drivers/CMSIS/Include/cmsis_gcc.h ****   #define __STATIC_INLINE                        static inline
  48:Drivers/CMSIS/Include/cmsis_gcc.h **** #endif
  49:Drivers/CMSIS/Include/cmsis_gcc.h **** #ifndef   __STATIC_FORCEINLINE                 
  50:Drivers/CMSIS/Include/cmsis_gcc.h ****   #define __STATIC_FORCEINLINE                   __attribute__((always_inline)) static inline
  51:Drivers/CMSIS/Include/cmsis_gcc.h **** #endif                                           
  52:Drivers/CMSIS/Include/cmsis_gcc.h **** #ifndef   __NO_RETURN
  53:Drivers/CMSIS/Include/cmsis_gcc.h ****   #define __NO_RETURN                            __attribute__((__noreturn__))
  54:Drivers/CMSIS/Include/cmsis_gcc.h **** #endif
  55:Drivers/CMSIS/Include/cmsis_gcc.h **** #ifndef   __USED
  56:Drivers/CMSIS/Include/cmsis_gcc.h ****   #define __USED                                 __attribute__((used))
  57:Drivers/CMSIS/Include/cmsis_gcc.h **** #endif
  58:Drivers/CMSIS/Include/cmsis_gcc.h **** #ifndef   __WEAK
  59:Drivers/CMSIS/Include/cmsis_gcc.h ****   #define __WEAK                                 __attribute__((weak))
  60:Drivers/CMSIS/Include/cmsis_gcc.h **** #endif
  61:Drivers/CMSIS/Include/cmsis_gcc.h **** #ifndef   __PACKED
  62:Drivers/CMSIS/Include/cmsis_gcc.h ****   #define __PACKED                               __attribute__((packed, aligned(1)))
  63:Drivers/CMSIS/Include/cmsis_gcc.h **** #endif
  64:Drivers/CMSIS/Include/cmsis_gcc.h **** #ifndef   __PACKED_STRUCT
  65:Drivers/CMSIS/Include/cmsis_gcc.h ****   #define __PACKED_STRUCT                        struct __attribute__((packed, aligned(1)))
  66:Drivers/CMSIS/Include/cmsis_gcc.h **** #endif
  67:Drivers/CMSIS/Include/cmsis_gcc.h **** #ifndef   __PACKED_UNION
  68:Drivers/CMSIS/Include/cmsis_gcc.h ****   #define __PACKED_UNION                         union __attribute__((packed, aligned(1)))
  69:Drivers/CMSIS/Include/cmsis_gcc.h **** #endif
  70:Drivers/CMSIS/Include/cmsis_gcc.h **** #ifndef   __UNALIGNED_UINT32        /* deprecated */
  71:Drivers/CMSIS/Include/cmsis_gcc.h ****   #pragma GCC diagnostic push
ARM GAS  C:\Users\Morroway\AppData\Local\Temp\ccYl1imN.s 			page 71


  72:Drivers/CMSIS/Include/cmsis_gcc.h ****   #pragma GCC diagnostic ignored "-Wpacked"
  73:Drivers/CMSIS/Include/cmsis_gcc.h ****   #pragma GCC diagnostic ignored "-Wattributes"
  74:Drivers/CMSIS/Include/cmsis_gcc.h ****   struct __attribute__((packed)) T_UINT32 { uint32_t v; };
  75:Drivers/CMSIS/Include/cmsis_gcc.h ****   #pragma GCC diagnostic pop
  76:Drivers/CMSIS/Include/cmsis_gcc.h ****   #define __UNALIGNED_UINT32(x)                  (((struct T_UINT32 *)(x))->v)
  77:Drivers/CMSIS/Include/cmsis_gcc.h **** #endif
  78:Drivers/CMSIS/Include/cmsis_gcc.h **** #ifndef   __UNALIGNED_UINT16_WRITE
  79:Drivers/CMSIS/Include/cmsis_gcc.h ****   #pragma GCC diagnostic push
  80:Drivers/CMSIS/Include/cmsis_gcc.h ****   #pragma GCC diagnostic ignored "-Wpacked"
  81:Drivers/CMSIS/Include/cmsis_gcc.h ****   #pragma GCC diagnostic ignored "-Wattributes"
  82:Drivers/CMSIS/Include/cmsis_gcc.h ****   __PACKED_STRUCT T_UINT16_WRITE { uint16_t v; };
  83:Drivers/CMSIS/Include/cmsis_gcc.h ****   #pragma GCC diagnostic pop
  84:Drivers/CMSIS/Include/cmsis_gcc.h ****   #define __UNALIGNED_UINT16_WRITE(addr, val)    (void)((((struct T_UINT16_WRITE *)(void *)(addr))-
  85:Drivers/CMSIS/Include/cmsis_gcc.h **** #endif
  86:Drivers/CMSIS/Include/cmsis_gcc.h **** #ifndef   __UNALIGNED_UINT16_READ
  87:Drivers/CMSIS/Include/cmsis_gcc.h ****   #pragma GCC diagnostic push
  88:Drivers/CMSIS/Include/cmsis_gcc.h ****   #pragma GCC diagnostic ignored "-Wpacked"
  89:Drivers/CMSIS/Include/cmsis_gcc.h ****   #pragma GCC diagnostic ignored "-Wattributes"
  90:Drivers/CMSIS/Include/cmsis_gcc.h ****   __PACKED_STRUCT T_UINT16_READ { uint16_t v; };
  91:Drivers/CMSIS/Include/cmsis_gcc.h ****   #pragma GCC diagnostic pop
  92:Drivers/CMSIS/Include/cmsis_gcc.h ****   #define __UNALIGNED_UINT16_READ(addr)          (((const struct T_UINT16_READ *)(const void *)(add
  93:Drivers/CMSIS/Include/cmsis_gcc.h **** #endif
  94:Drivers/CMSIS/Include/cmsis_gcc.h **** #ifndef   __UNALIGNED_UINT32_WRITE
  95:Drivers/CMSIS/Include/cmsis_gcc.h ****   #pragma GCC diagnostic push
  96:Drivers/CMSIS/Include/cmsis_gcc.h ****   #pragma GCC diagnostic ignored "-Wpacked"
  97:Drivers/CMSIS/Include/cmsis_gcc.h ****   #pragma GCC diagnostic ignored "-Wattributes"
  98:Drivers/CMSIS/Include/cmsis_gcc.h ****   __PACKED_STRUCT T_UINT32_WRITE { uint32_t v; };
  99:Drivers/CMSIS/Include/cmsis_gcc.h ****   #pragma GCC diagnostic pop
 100:Drivers/CMSIS/Include/cmsis_gcc.h ****   #define __UNALIGNED_UINT32_WRITE(addr, val)    (void)((((struct T_UINT32_WRITE *)(void *)(addr))-
 101:Drivers/CMSIS/Include/cmsis_gcc.h **** #endif
 102:Drivers/CMSIS/Include/cmsis_gcc.h **** #ifndef   __UNALIGNED_UINT32_READ
 103:Drivers/CMSIS/Include/cmsis_gcc.h ****   #pragma GCC diagnostic push
 104:Drivers/CMSIS/Include/cmsis_gcc.h ****   #pragma GCC diagnostic ignored "-Wpacked"
 105:Drivers/CMSIS/Include/cmsis_gcc.h ****   #pragma GCC diagnostic ignored "-Wattributes"
 106:Drivers/CMSIS/Include/cmsis_gcc.h ****   __PACKED_STRUCT T_UINT32_READ { uint32_t v; };
 107:Drivers/CMSIS/Include/cmsis_gcc.h ****   #pragma GCC diagnostic pop
 108:Drivers/CMSIS/Include/cmsis_gcc.h ****   #define __UNALIGNED_UINT32_READ(addr)          (((const struct T_UINT32_READ *)(const void *)(add
 109:Drivers/CMSIS/Include/cmsis_gcc.h **** #endif
 110:Drivers/CMSIS/Include/cmsis_gcc.h **** #ifndef   __ALIGNED
 111:Drivers/CMSIS/Include/cmsis_gcc.h ****   #define __ALIGNED(x)                           __attribute__((aligned(x)))
 112:Drivers/CMSIS/Include/cmsis_gcc.h **** #endif
 113:Drivers/CMSIS/Include/cmsis_gcc.h **** #ifndef   __RESTRICT
 114:Drivers/CMSIS/Include/cmsis_gcc.h ****   #define __RESTRICT                             __restrict
 115:Drivers/CMSIS/Include/cmsis_gcc.h **** #endif
 116:Drivers/CMSIS/Include/cmsis_gcc.h **** #ifndef   __COMPILER_BARRIER
 117:Drivers/CMSIS/Include/cmsis_gcc.h ****   #define __COMPILER_BARRIER()                   __ASM volatile("":::"memory")
 118:Drivers/CMSIS/Include/cmsis_gcc.h **** #endif
 119:Drivers/CMSIS/Include/cmsis_gcc.h **** 
 120:Drivers/CMSIS/Include/cmsis_gcc.h **** /* #########################  Startup and Lowlevel Init  ######################## */
 121:Drivers/CMSIS/Include/cmsis_gcc.h **** 
 122:Drivers/CMSIS/Include/cmsis_gcc.h **** #ifndef __PROGRAM_START
 123:Drivers/CMSIS/Include/cmsis_gcc.h **** 
 124:Drivers/CMSIS/Include/cmsis_gcc.h **** /**
 125:Drivers/CMSIS/Include/cmsis_gcc.h ****   \brief   Initializes data and bss sections
 126:Drivers/CMSIS/Include/cmsis_gcc.h ****   \details This default implementations initialized all data and additional bss
 127:Drivers/CMSIS/Include/cmsis_gcc.h ****            sections relying on .copy.table and .zero.table specified properly
 128:Drivers/CMSIS/Include/cmsis_gcc.h ****            in the used linker script.
ARM GAS  C:\Users\Morroway\AppData\Local\Temp\ccYl1imN.s 			page 72


 129:Drivers/CMSIS/Include/cmsis_gcc.h ****   
 130:Drivers/CMSIS/Include/cmsis_gcc.h ****  */
 131:Drivers/CMSIS/Include/cmsis_gcc.h **** __STATIC_FORCEINLINE __NO_RETURN void __cmsis_start(void)
 132:Drivers/CMSIS/Include/cmsis_gcc.h **** {
 133:Drivers/CMSIS/Include/cmsis_gcc.h ****   extern void _start(void) __NO_RETURN;
 134:Drivers/CMSIS/Include/cmsis_gcc.h ****   
 135:Drivers/CMSIS/Include/cmsis_gcc.h ****   typedef struct {
 136:Drivers/CMSIS/Include/cmsis_gcc.h ****     uint32_t const* src;
 137:Drivers/CMSIS/Include/cmsis_gcc.h ****     uint32_t* dest;
 138:Drivers/CMSIS/Include/cmsis_gcc.h ****     uint32_t  wlen;
 139:Drivers/CMSIS/Include/cmsis_gcc.h ****   } __copy_table_t;
 140:Drivers/CMSIS/Include/cmsis_gcc.h ****   
 141:Drivers/CMSIS/Include/cmsis_gcc.h ****   typedef struct {
 142:Drivers/CMSIS/Include/cmsis_gcc.h ****     uint32_t* dest;
 143:Drivers/CMSIS/Include/cmsis_gcc.h ****     uint32_t  wlen;
 144:Drivers/CMSIS/Include/cmsis_gcc.h ****   } __zero_table_t;
 145:Drivers/CMSIS/Include/cmsis_gcc.h ****   
 146:Drivers/CMSIS/Include/cmsis_gcc.h ****   extern const __copy_table_t __copy_table_start__;
 147:Drivers/CMSIS/Include/cmsis_gcc.h ****   extern const __copy_table_t __copy_table_end__;
 148:Drivers/CMSIS/Include/cmsis_gcc.h ****   extern const __zero_table_t __zero_table_start__;
 149:Drivers/CMSIS/Include/cmsis_gcc.h ****   extern const __zero_table_t __zero_table_end__;
 150:Drivers/CMSIS/Include/cmsis_gcc.h **** 
 151:Drivers/CMSIS/Include/cmsis_gcc.h ****   for (__copy_table_t const* pTable = &__copy_table_start__; pTable < &__copy_table_end__; ++pTable
 152:Drivers/CMSIS/Include/cmsis_gcc.h ****     for(uint32_t i=0u; i<pTable->wlen; ++i) {
 153:Drivers/CMSIS/Include/cmsis_gcc.h ****       pTable->dest[i] = pTable->src[i];
 154:Drivers/CMSIS/Include/cmsis_gcc.h ****     }
 155:Drivers/CMSIS/Include/cmsis_gcc.h ****   }
 156:Drivers/CMSIS/Include/cmsis_gcc.h ****  
 157:Drivers/CMSIS/Include/cmsis_gcc.h ****   for (__zero_table_t const* pTable = &__zero_table_start__; pTable < &__zero_table_end__; ++pTable
 158:Drivers/CMSIS/Include/cmsis_gcc.h ****     for(uint32_t i=0u; i<pTable->wlen; ++i) {
 159:Drivers/CMSIS/Include/cmsis_gcc.h ****       pTable->dest[i] = 0u;
 160:Drivers/CMSIS/Include/cmsis_gcc.h ****     }
 161:Drivers/CMSIS/Include/cmsis_gcc.h ****   }
 162:Drivers/CMSIS/Include/cmsis_gcc.h ****  
 163:Drivers/CMSIS/Include/cmsis_gcc.h ****   _start();
 164:Drivers/CMSIS/Include/cmsis_gcc.h **** }
 165:Drivers/CMSIS/Include/cmsis_gcc.h ****   
 166:Drivers/CMSIS/Include/cmsis_gcc.h **** #define __PROGRAM_START           __cmsis_start
 167:Drivers/CMSIS/Include/cmsis_gcc.h **** #endif
 168:Drivers/CMSIS/Include/cmsis_gcc.h **** 
 169:Drivers/CMSIS/Include/cmsis_gcc.h **** #ifndef __INITIAL_SP
 170:Drivers/CMSIS/Include/cmsis_gcc.h **** #define __INITIAL_SP              __StackTop
 171:Drivers/CMSIS/Include/cmsis_gcc.h **** #endif
 172:Drivers/CMSIS/Include/cmsis_gcc.h **** 
 173:Drivers/CMSIS/Include/cmsis_gcc.h **** #ifndef __STACK_LIMIT
 174:Drivers/CMSIS/Include/cmsis_gcc.h **** #define __STACK_LIMIT             __StackLimit
 175:Drivers/CMSIS/Include/cmsis_gcc.h **** #endif
 176:Drivers/CMSIS/Include/cmsis_gcc.h **** 
 177:Drivers/CMSIS/Include/cmsis_gcc.h **** #ifndef __VECTOR_TABLE
 178:Drivers/CMSIS/Include/cmsis_gcc.h **** #define __VECTOR_TABLE            __Vectors
 179:Drivers/CMSIS/Include/cmsis_gcc.h **** #endif
 180:Drivers/CMSIS/Include/cmsis_gcc.h **** 
 181:Drivers/CMSIS/Include/cmsis_gcc.h **** #ifndef __VECTOR_TABLE_ATTRIBUTE
 182:Drivers/CMSIS/Include/cmsis_gcc.h **** #define __VECTOR_TABLE_ATTRIBUTE  __attribute((used, section(".vectors")))
 183:Drivers/CMSIS/Include/cmsis_gcc.h **** #endif
 184:Drivers/CMSIS/Include/cmsis_gcc.h **** 
 185:Drivers/CMSIS/Include/cmsis_gcc.h **** /* ###########################  Core Function Access  ########################### */
ARM GAS  C:\Users\Morroway\AppData\Local\Temp\ccYl1imN.s 			page 73


 186:Drivers/CMSIS/Include/cmsis_gcc.h **** /** \ingroup  CMSIS_Core_FunctionInterface
 187:Drivers/CMSIS/Include/cmsis_gcc.h ****     \defgroup CMSIS_Core_RegAccFunctions CMSIS Core Register Access Functions
 188:Drivers/CMSIS/Include/cmsis_gcc.h ****   @{
 189:Drivers/CMSIS/Include/cmsis_gcc.h ****  */
 190:Drivers/CMSIS/Include/cmsis_gcc.h **** 
 191:Drivers/CMSIS/Include/cmsis_gcc.h **** /**
 192:Drivers/CMSIS/Include/cmsis_gcc.h ****   \brief   Enable IRQ Interrupts
 193:Drivers/CMSIS/Include/cmsis_gcc.h ****   \details Enables IRQ interrupts by clearing the I-bit in the CPSR.
 194:Drivers/CMSIS/Include/cmsis_gcc.h ****            Can only be executed in Privileged modes.
 195:Drivers/CMSIS/Include/cmsis_gcc.h ****  */
 196:Drivers/CMSIS/Include/cmsis_gcc.h **** __STATIC_FORCEINLINE void __enable_irq(void)
 197:Drivers/CMSIS/Include/cmsis_gcc.h **** {
 198:Drivers/CMSIS/Include/cmsis_gcc.h ****   __ASM volatile ("cpsie i" : : : "memory");
 199:Drivers/CMSIS/Include/cmsis_gcc.h **** }
 200:Drivers/CMSIS/Include/cmsis_gcc.h **** 
 201:Drivers/CMSIS/Include/cmsis_gcc.h **** 
 202:Drivers/CMSIS/Include/cmsis_gcc.h **** /**
 203:Drivers/CMSIS/Include/cmsis_gcc.h ****   \brief   Disable IRQ Interrupts
 204:Drivers/CMSIS/Include/cmsis_gcc.h ****   \details Disables IRQ interrupts by setting the I-bit in the CPSR.
 205:Drivers/CMSIS/Include/cmsis_gcc.h ****            Can only be executed in Privileged modes.
 206:Drivers/CMSIS/Include/cmsis_gcc.h ****  */
 207:Drivers/CMSIS/Include/cmsis_gcc.h **** __STATIC_FORCEINLINE void __disable_irq(void)
 208:Drivers/CMSIS/Include/cmsis_gcc.h **** {
 209:Drivers/CMSIS/Include/cmsis_gcc.h ****   __ASM volatile ("cpsid i" : : : "memory");
 2806              		.loc 2 209 3
 2807              		.syntax unified
 2808              	@ 209 "Drivers/CMSIS/Include/cmsis_gcc.h" 1
 2809 0004 72B6     		cpsid i
 2810              	@ 0 "" 2
 210:Drivers/CMSIS/Include/cmsis_gcc.h **** }
 2811              		.loc 2 210 1
 2812              		.thumb
 2813              		.syntax unified
 2814 0006 00BF     		nop
 2815              	.L121:
 2816              	.LBE14:
 2817              	.LBE13:
1025:Core/Src/main.c ****   /* USER CODE BEGIN Error_Handler_Debug */
1026:Core/Src/main.c ****   /* User can add his own implementation to report the HAL error return state */
1027:Core/Src/main.c ****   __disable_irq();
1028:Core/Src/main.c ****   while (1)
 2818              		.loc 1 1028 9 discriminator 1
 2819 0008 FEE7     		b	.L121
 2820              		.cfi_endproc
 2821              	.LFE345:
 2823              		.text
 2824              	.Letext0:
 2825              		.file 3 "Drivers/CMSIS/Device/ST/STM32L4xx/Include/stm32l4p5xx.h"
 2826              		.file 4 "c:\\users\\morroway\\appdata\\roaming\\code\\user\\globalstorage\\bmd.stm32-for-vscode\\@
 2827              		.file 5 "c:\\users\\morroway\\appdata\\roaming\\code\\user\\globalstorage\\bmd.stm32-for-vscode\\@
 2828              		.file 6 "Drivers/CMSIS/Device/ST/STM32L4xx/Include/stm32l4xx.h"
 2829              		.file 7 "c:\\users\\morroway\\appdata\\roaming\\code\\user\\globalstorage\\bmd.stm32-for-vscode\\@
 2830              		.file 8 "Drivers/STM32L4xx_HAL_Driver/Inc/stm32l4xx_hal_def.h"
 2831              		.file 9 "Drivers/STM32L4xx_HAL_Driver/Inc/stm32l4xx_hal_rcc.h"
 2832              		.file 10 "Drivers/STM32L4xx_HAL_Driver/Inc/stm32l4xx_hal_gpio.h"
 2833              		.file 11 "Drivers/STM32L4xx_HAL_Driver/Inc/stm32l4xx_hal_dma.h"
 2834              		.file 12 "Drivers/STM32L4xx_HAL_Driver/Inc/stm32l4xx_hal_adc.h"
ARM GAS  C:\Users\Morroway\AppData\Local\Temp\ccYl1imN.s 			page 74


 2835              		.file 13 "Drivers/STM32L4xx_HAL_Driver/Inc/stm32l4xx_hal_adc_ex.h"
 2836              		.file 14 "Drivers/STM32L4xx_HAL_Driver/Inc/stm32l4xx_hal_i2c.h"
 2837              		.file 15 "Drivers/STM32L4xx_HAL_Driver/Inc/stm32l4xx_ll_usb.h"
 2838              		.file 16 "Drivers/STM32L4xx_HAL_Driver/Inc/stm32l4xx_hal_pcd.h"
 2839              		.file 17 "Drivers/STM32L4xx_HAL_Driver/Inc/stm32l4xx_hal_rng.h"
 2840              		.file 18 "Drivers/STM32L4xx_HAL_Driver/Inc/stm32l4xx_hal_spi.h"
 2841              		.file 19 "Drivers/STM32L4xx_HAL_Driver/Inc/stm32l4xx_hal_tim.h"
 2842              		.file 20 "Drivers/STM32L4xx_HAL_Driver/Inc/stm32l4xx_hal_uart.h"
 2843              		.file 21 "Core/Inc/main.h"
 2844              		.file 22 "Core/Inc/5x5_font.h"
 2845              		.file 23 "Drivers/VL53L0X/platform/inc/vl53l0x_types.h"
 2846              		.file 24 "Drivers/VL53L0X/core/inc/vl53l0x_device.h"
 2847              		.file 25 "Drivers/VL53L0X/core/inc/vl53l0x_def.h"
 2848              		.file 26 "Drivers/VL53L0X/platform/inc/vl53l0x_platform.h"
 2849              		.file 27 "Drivers/STM32L4xx_HAL_Driver/Inc/stm32l4xx_hal_cortex.h"
 2850              		.file 28 "Drivers/STM32L4xx_HAL_Driver/Inc/stm32l4xx_hal_tim_ex.h"
 2851              		.file 29 "Drivers/STM32L4xx_HAL_Driver/Inc/stm32l4xx_hal_uart_ex.h"
 2852              		.file 30 "Drivers/STM32L4xx_HAL_Driver/Inc/stm32l4xx_hal_i2c_ex.h"
 2853              		.file 31 "Drivers/STM32L4xx_HAL_Driver/Inc/stm32l4xx_hal_pwr_ex.h"
 2854              		.file 32 "Drivers/VL53L0X/core/inc/vl53l0x_api.h"
 2855              		.file 33 "Core/Inc/ILI9341_STM32_Driver.h"
 2856              		.file 34 "Drivers/STM32L4xx_HAL_Driver/Inc/stm32l4xx_hal.h"
 2857              		.file 35 "Core/Inc/GCodes.h"
 2858              		.file 36 "Core/Inc/Parser.h"
 2859              		.file 37 "c:\\users\\morroway\\appdata\\roaming\\code\\user\\globalstorage\\bmd.stm32-for-vscode\\
 2860              		.file 38 "c:\\users\\morroway\\appdata\\roaming\\code\\user\\globalstorage\\bmd.stm32-for-vscode\\
 2861              		.file 39 "Core/Inc/Functions.h"
ARM GAS  C:\Users\Morroway\AppData\Local\Temp\ccYl1imN.s 			page 75


DEFINED SYMBOLS
                            *ABS*:0000000000000000 main.c
C:\Users\Morroway\AppData\Local\Temp\ccYl1imN.s:20     .bss.msg_buffer:0000000000000000 $d
C:\Users\Morroway\AppData\Local\Temp\ccYl1imN.s:23     .bss.msg_buffer:0000000000000000 msg_buffer
C:\Users\Morroway\AppData\Local\Temp\ccYl1imN.s:26     .bss.RxBuf:0000000000000000 $d
C:\Users\Morroway\AppData\Local\Temp\ccYl1imN.s:29     .bss.RxBuf:0000000000000000 RxBuf
C:\Users\Morroway\AppData\Local\Temp\ccYl1imN.s:32     .rodata.font:0000000000000000 $d
C:\Users\Morroway\AppData\Local\Temp\ccYl1imN.s:35     .rodata.font:0000000000000000 font
C:\Users\Morroway\AppData\Local\Temp\ccYl1imN.s:137    .bss.hadc1:0000000000000000 hadc1
C:\Users\Morroway\AppData\Local\Temp\ccYl1imN.s:134    .bss.hadc1:0000000000000000 $d
C:\Users\Morroway\AppData\Local\Temp\ccYl1imN.s:144    .bss.hdma_adc1:0000000000000000 hdma_adc1
C:\Users\Morroway\AppData\Local\Temp\ccYl1imN.s:141    .bss.hdma_adc1:0000000000000000 $d
C:\Users\Morroway\AppData\Local\Temp\ccYl1imN.s:151    .bss.hi2c1:0000000000000000 hi2c1
C:\Users\Morroway\AppData\Local\Temp\ccYl1imN.s:148    .bss.hi2c1:0000000000000000 $d
C:\Users\Morroway\AppData\Local\Temp\ccYl1imN.s:158    .bss.hlpuart1:0000000000000000 hlpuart1
C:\Users\Morroway\AppData\Local\Temp\ccYl1imN.s:155    .bss.hlpuart1:0000000000000000 $d
C:\Users\Morroway\AppData\Local\Temp\ccYl1imN.s:165    .bss.huart4:0000000000000000 huart4
C:\Users\Morroway\AppData\Local\Temp\ccYl1imN.s:162    .bss.huart4:0000000000000000 $d
C:\Users\Morroway\AppData\Local\Temp\ccYl1imN.s:172    .bss.hdma_lpuart1_rx:0000000000000000 hdma_lpuart1_rx
C:\Users\Morroway\AppData\Local\Temp\ccYl1imN.s:169    .bss.hdma_lpuart1_rx:0000000000000000 $d
C:\Users\Morroway\AppData\Local\Temp\ccYl1imN.s:179    .bss.hrng:0000000000000000 hrng
C:\Users\Morroway\AppData\Local\Temp\ccYl1imN.s:176    .bss.hrng:0000000000000000 $d
C:\Users\Morroway\AppData\Local\Temp\ccYl1imN.s:186    .bss.hspi1:0000000000000000 hspi1
C:\Users\Morroway\AppData\Local\Temp\ccYl1imN.s:183    .bss.hspi1:0000000000000000 $d
C:\Users\Morroway\AppData\Local\Temp\ccYl1imN.s:193    .bss.htim2:0000000000000000 htim2
C:\Users\Morroway\AppData\Local\Temp\ccYl1imN.s:190    .bss.htim2:0000000000000000 $d
C:\Users\Morroway\AppData\Local\Temp\ccYl1imN.s:200    .bss.htim3:0000000000000000 htim3
C:\Users\Morroway\AppData\Local\Temp\ccYl1imN.s:197    .bss.htim3:0000000000000000 $d
C:\Users\Morroway\AppData\Local\Temp\ccYl1imN.s:207    .bss.htim4:0000000000000000 htim4
C:\Users\Morroway\AppData\Local\Temp\ccYl1imN.s:204    .bss.htim4:0000000000000000 $d
C:\Users\Morroway\AppData\Local\Temp\ccYl1imN.s:214    .bss.htim5:0000000000000000 htim5
C:\Users\Morroway\AppData\Local\Temp\ccYl1imN.s:211    .bss.htim5:0000000000000000 $d
C:\Users\Morroway\AppData\Local\Temp\ccYl1imN.s:221    .bss.hpcd_USB_OTG_FS:0000000000000000 hpcd_USB_OTG_FS
C:\Users\Morroway\AppData\Local\Temp\ccYl1imN.s:218    .bss.hpcd_USB_OTG_FS:0000000000000000 $d
C:\Users\Morroway\AppData\Local\Temp\ccYl1imN.s:228    .bss.step:0000000000000000 step
C:\Users\Morroway\AppData\Local\Temp\ccYl1imN.s:225    .bss.step:0000000000000000 $d
C:\Users\Morroway\AppData\Local\Temp\ccYl1imN.s:235    .bss.last_time:0000000000000000 last_time
C:\Users\Morroway\AppData\Local\Temp\ccYl1imN.s:232    .bss.last_time:0000000000000000 $d
C:\Users\Morroway\AppData\Local\Temp\ccYl1imN.s:242    .bss.value:0000000000000000 value
C:\Users\Morroway\AppData\Local\Temp\ccYl1imN.s:239    .bss.value:0000000000000000 $d
C:\Users\Morroway\AppData\Local\Temp\ccYl1imN.s:249    .bss.RangingData:0000000000000000 RangingData
C:\Users\Morroway\AppData\Local\Temp\ccYl1imN.s:246    .bss.RangingData:0000000000000000 $d
C:\Users\Morroway\AppData\Local\Temp\ccYl1imN.s:256    .bss.vl53l0x_c:0000000000000000 vl53l0x_c
C:\Users\Morroway\AppData\Local\Temp\ccYl1imN.s:253    .bss.vl53l0x_c:0000000000000000 $d
C:\Users\Morroway\AppData\Local\Temp\ccYl1imN.s:263    .data.Dev:0000000000000000 Dev
C:\Users\Morroway\AppData\Local\Temp\ccYl1imN.s:260    .data.Dev:0000000000000000 $d
C:\Users\Morroway\AppData\Local\Temp\ccYl1imN.s:266    .text.HAL_UARTEx_RxEventCallback:0000000000000000 $t
C:\Users\Morroway\AppData\Local\Temp\ccYl1imN.s:272    .text.HAL_UARTEx_RxEventCallback:0000000000000000 HAL_UARTEx_RxEventCallback
C:\Users\Morroway\AppData\Local\Temp\ccYl1imN.s:322    .text.HAL_UARTEx_RxEventCallback:0000000000000038 $d
C:\Users\Morroway\AppData\Local\Temp\ccYl1imN.s:330    .text.DelayMicrosecond:0000000000000000 $t
C:\Users\Morroway\AppData\Local\Temp\ccYl1imN.s:336    .text.DelayMicrosecond:0000000000000000 DelayMicrosecond
C:\Users\Morroway\AppData\Local\Temp\ccYl1imN.s:383    .text.DelayMicrosecond:0000000000000030 $d
C:\Users\Morroway\AppData\Local\Temp\ccYl1imN.s:388    .text.GetTicks:0000000000000000 $t
C:\Users\Morroway\AppData\Local\Temp\ccYl1imN.s:394    .text.GetTicks:0000000000000000 GetTicks
C:\Users\Morroway\AppData\Local\Temp\ccYl1imN.s:422    .text.GetTicks:0000000000000014 $d
C:\Users\Morroway\AppData\Local\Temp\ccYl1imN.s:427    .rodata:0000000000000000 $d
C:\Users\Morroway\AppData\Local\Temp\ccYl1imN.s:431    .text.print_temperature:0000000000000000 $t
ARM GAS  C:\Users\Morroway\AppData\Local\Temp\ccYl1imN.s 			page 76


C:\Users\Morroway\AppData\Local\Temp\ccYl1imN.s:437    .text.print_temperature:0000000000000000 print_temperature
C:\Users\Morroway\AppData\Local\Temp\ccYl1imN.s:487    .text.print_temperature:0000000000000048 $d
C:\Users\Morroway\AppData\Local\Temp\ccYl1imN.s:495    .text.SPI_Transmit:0000000000000000 $t
C:\Users\Morroway\AppData\Local\Temp\ccYl1imN.s:501    .text.SPI_Transmit:0000000000000000 SPI_Transmit
C:\Users\Morroway\AppData\Local\Temp\ccYl1imN.s:536    .text.SPI_Transmit:0000000000000024 $d
C:\Users\Morroway\AppData\Local\Temp\ccYl1imN.s:545    .text.main:0000000000000000 $t
C:\Users\Morroway\AppData\Local\Temp\ccYl1imN.s:551    .text.main:0000000000000000 main
C:\Users\Morroway\AppData\Local\Temp\ccYl1imN.s:895    .text.SystemClock_Config:0000000000000000 SystemClock_Config
C:\Users\Morroway\AppData\Local\Temp\ccYl1imN.s:2481   .text.MX_GPIO_Init:0000000000000000 MX_GPIO_Init
C:\Users\Morroway\AppData\Local\Temp\ccYl1imN.s:2404   .text.MX_DMA_Init:0000000000000000 MX_DMA_Init
C:\Users\Morroway\AppData\Local\Temp\ccYl1imN.s:1343   .text.MX_LPUART1_UART_Init:0000000000000000 MX_LPUART1_UART_Init
C:\Users\Morroway\AppData\Local\Temp\ccYl1imN.s:2330   .text.MX_USB_OTG_FS_PCD_Init:0000000000000000 MX_USB_OTG_FS_PCD_Init
C:\Users\Morroway\AppData\Local\Temp\ccYl1imN.s:2098   .text.MX_TIM4_Init:0000000000000000 MX_TIM4_Init
C:\Users\Morroway\AppData\Local\Temp\ccYl1imN.s:1462   .text.MX_UART4_Init:0000000000000000 MX_UART4_Init
C:\Users\Morroway\AppData\Local\Temp\ccYl1imN.s:1895   .text.MX_TIM3_Init:0000000000000000 MX_TIM3_Init
C:\Users\Morroway\AppData\Local\Temp\ccYl1imN.s:1024   .text.MX_ADC1_Init:0000000000000000 MX_ADC1_Init
C:\Users\Morroway\AppData\Local\Temp\ccYl1imN.s:2214   .text.MX_TIM5_Init:0000000000000000 MX_TIM5_Init
C:\Users\Morroway\AppData\Local\Temp\ccYl1imN.s:1719   .text.MX_TIM2_Init:0000000000000000 MX_TIM2_Init
C:\Users\Morroway\AppData\Local\Temp\ccYl1imN.s:1624   .text.MX_SPI1_Init:0000000000000000 MX_SPI1_Init
C:\Users\Morroway\AppData\Local\Temp\ccYl1imN.s:1577   .text.MX_RNG_Init:0000000000000000 MX_RNG_Init
C:\Users\Morroway\AppData\Local\Temp\ccYl1imN.s:1245   .text.MX_I2C1_Init:0000000000000000 MX_I2C1_Init
C:\Users\Morroway\AppData\Local\Temp\ccYl1imN.s:870    .text.main:0000000000000258 $d
C:\Users\Morroway\AppData\Local\Temp\ccYl1imN.s:889    .text.SystemClock_Config:0000000000000000 $t
C:\Users\Morroway\AppData\Local\Temp\ccYl1imN.s:2791   .text.Error_Handler:0000000000000000 Error_Handler
C:\Users\Morroway\AppData\Local\Temp\ccYl1imN.s:1019   .text.MX_ADC1_Init:0000000000000000 $t
C:\Users\Morroway\AppData\Local\Temp\ccYl1imN.s:1231   .text.MX_ADC1_Init:0000000000000130 $d
C:\Users\Morroway\AppData\Local\Temp\ccYl1imN.s:1240   .text.MX_I2C1_Init:0000000000000000 $t
C:\Users\Morroway\AppData\Local\Temp\ccYl1imN.s:1331   .text.MX_I2C1_Init:0000000000000074 $d
C:\Users\Morroway\AppData\Local\Temp\ccYl1imN.s:1338   .text.MX_LPUART1_UART_Init:0000000000000000 $t
C:\Users\Morroway\AppData\Local\Temp\ccYl1imN.s:1451   .text.MX_LPUART1_UART_Init:0000000000000098 $d
C:\Users\Morroway\AppData\Local\Temp\ccYl1imN.s:1457   .text.MX_UART4_Init:0000000000000000 $t
C:\Users\Morroway\AppData\Local\Temp\ccYl1imN.s:1566   .text.MX_UART4_Init:0000000000000090 $d
C:\Users\Morroway\AppData\Local\Temp\ccYl1imN.s:1572   .text.MX_RNG_Init:0000000000000000 $t
C:\Users\Morroway\AppData\Local\Temp\ccYl1imN.s:1613   .text.MX_RNG_Init:0000000000000024 $d
C:\Users\Morroway\AppData\Local\Temp\ccYl1imN.s:1619   .text.MX_SPI1_Init:0000000000000000 $t
C:\Users\Morroway\AppData\Local\Temp\ccYl1imN.s:1708   .text.MX_SPI1_Init:0000000000000074 $d
C:\Users\Morroway\AppData\Local\Temp\ccYl1imN.s:1714   .text.MX_TIM2_Init:0000000000000000 $t
C:\Users\Morroway\AppData\Local\Temp\ccYl1imN.s:1885   .text.MX_TIM2_Init:00000000000000fc $d
C:\Users\Morroway\AppData\Local\Temp\ccYl1imN.s:1890   .text.MX_TIM3_Init:0000000000000000 $t
C:\Users\Morroway\AppData\Local\Temp\ccYl1imN.s:2087   .text.MX_TIM3_Init:0000000000000128 $d
C:\Users\Morroway\AppData\Local\Temp\ccYl1imN.s:2093   .text.MX_TIM4_Init:0000000000000000 $t
C:\Users\Morroway\AppData\Local\Temp\ccYl1imN.s:2203   .text.MX_TIM4_Init:0000000000000094 $d
C:\Users\Morroway\AppData\Local\Temp\ccYl1imN.s:2209   .text.MX_TIM5_Init:0000000000000000 $t
C:\Users\Morroway\AppData\Local\Temp\ccYl1imN.s:2319   .text.MX_TIM5_Init:0000000000000094 $d
C:\Users\Morroway\AppData\Local\Temp\ccYl1imN.s:2325   .text.MX_USB_OTG_FS_PCD_Init:0000000000000000 $t
C:\Users\Morroway\AppData\Local\Temp\ccYl1imN.s:2394   .text.MX_USB_OTG_FS_PCD_Init:0000000000000050 $d
C:\Users\Morroway\AppData\Local\Temp\ccYl1imN.s:2399   .text.MX_DMA_Init:0000000000000000 $t
C:\Users\Morroway\AppData\Local\Temp\ccYl1imN.s:2471   .text.MX_DMA_Init:0000000000000060 $d
C:\Users\Morroway\AppData\Local\Temp\ccYl1imN.s:2476   .text.MX_GPIO_Init:0000000000000000 $t
C:\Users\Morroway\AppData\Local\Temp\ccYl1imN.s:2776   .text.MX_GPIO_Init:0000000000000204 $d
C:\Users\Morroway\AppData\Local\Temp\ccYl1imN.s:2785   .text.Error_Handler:0000000000000000 $t

UNDEFINED SYMBOLS
HAL_UARTEx_ReceiveToIdle_DMA
GetTemperature
sprintf
strlen
ARM GAS  C:\Users\Morroway\AppData\Local\Temp\ccYl1imN.s 			page 77


HAL_UART_Transmit
HAL_SPI_Transmit
HAL_Init
HAL_TIM_PWM_Start
HAL_ADC_Start_DMA
HAL_TIM_Base_Start
memset
reset_args
ILI9341_Init
HAL_GPIO_WritePin
HAL_Delay
VL53L0X_WaitDeviceBooted
VL53L0X_DataInit
VL53L0X_StaticInit
VL53L0X_PerformRefCalibration
VL53L0X_PerformRefSpadManagement
VL53L0X_SetDeviceMode
VL53L0X_SetLimitCheckEnable
VL53L0X_SetLimitCheckValue
VL53L0X_SetMeasurementTimingBudgetMicroSeconds
VL53L0X_SetVcselPulsePeriod
ILI9341_Set_Rotation
ILI9341_Fill_Screen
VL53L0X_PerformSingleRangingMeasurement
HAL_GPIO_ReadPin
G0
M104
HAL_GPIO_TogglePin
HAL_PWREx_ControlVoltageScaling
HAL_RCC_OscConfig
HAL_RCC_ClockConfig
HAL_ADC_Init
HAL_ADCEx_MultiModeConfigChannel
HAL_ADC_ConfigChannel
HAL_I2C_Init
HAL_I2CEx_ConfigAnalogFilter
HAL_I2CEx_ConfigDigitalFilter
HAL_UART_Init
HAL_UARTEx_SetTxFifoThreshold
HAL_UARTEx_SetRxFifoThreshold
HAL_UARTEx_DisableFifoMode
HAL_RNG_Init
HAL_SPI_Init
HAL_TIM_Base_Init
HAL_TIM_ConfigClockSource
HAL_TIM_PWM_Init
HAL_TIMEx_MasterConfigSynchronization
HAL_TIM_PWM_ConfigChannel
HAL_TIM_MspPostInit
HAL_PCD_Init
HAL_NVIC_SetPriority
HAL_NVIC_EnableIRQ
HAL_PWREx_EnableVddIO2
HAL_GPIO_Init
