ARM GAS  C:\Users\Morroway\AppData\Local\Temp\ccUrCpMn.s 			page 1


   1              		.cpu cortex-m4
   2              		.arch armv7e-m
   3              		.fpu fpv4-sp-d16
   4              		.eabi_attribute 27, 1
   5              		.eabi_attribute 28, 1
   6              		.eabi_attribute 20, 1
   7              		.eabi_attribute 21, 1
   8              		.eabi_attribute 23, 3
   9              		.eabi_attribute 24, 1
  10              		.eabi_attribute 25, 1
  11              		.eabi_attribute 26, 1
  12              		.eabi_attribute 30, 6
  13              		.eabi_attribute 34, 1
  14              		.eabi_attribute 18, 4
  15              		.file	"Parser.c"
  16              		.text
  17              	.Ltext0:
  18              		.cfi_sections	.debug_frame
  19              		.section	.bss.msg_buffer,"aw",%nobits
  20              		.align	2
  23              	msg_buffer:
  24 0000 00000000 		.space	30
  24      00000000 
  24      00000000 
  24      00000000 
  24      00000000 
  25              		.section	.bss.RxBuf,"aw",%nobits
  26              		.align	2
  29              	RxBuf:
  30 0000 00000000 		.space	20
  30      00000000 
  30      00000000 
  30      00000000 
  30      00000000 
  31              		.global	R
  32              		.section	.bss.R,"aw",%nobits
  33              		.align	1
  36              	R:
  37 0000 0000     		.space	2
  38              		.global	T
  39              		.section	.bss.T,"aw",%nobits
  40              		.align	1
  43              	T:
  44 0000 0000     		.space	2
  45              		.global	S
  46              		.section	.bss.S,"aw",%nobits
  47              		.align	1
  50              	S:
  51 0000 0000     		.space	2
  52              		.global	interval
  53              		.section	.bss.interval,"aw",%nobits
  54              		.align	1
  57              	interval:
  58 0000 0000     		.space	2
  59              		.global	F
  60              		.section	.bss.F,"aw",%nobits
  61              		.align	1
ARM GAS  C:\Users\Morroway\AppData\Local\Temp\ccUrCpMn.s 			page 2


  64              	F:
  65 0000 0000     		.space	2
  66              		.global	E
  67              		.section	.bss.E,"aw",%nobits
  68              		.align	3
  71              	E:
  72 0000 00000000 		.space	8
  72      00000000 
  73              		.global	X
  74              		.section	.bss.X,"aw",%nobits
  75              		.align	3
  78              	X:
  79 0000 00000000 		.space	8
  79      00000000 
  80              		.global	Y
  81              		.section	.bss.Y,"aw",%nobits
  82              		.align	3
  85              	Y:
  86 0000 00000000 		.space	8
  86      00000000 
  87              		.global	Z
  88              		.section	.bss.Z,"aw",%nobits
  89              		.align	3
  92              	Z:
  93 0000 00000000 		.space	8
  93      00000000 
  94              		.global	hot_end_temp_goal
  95              		.section	.bss.hot_end_temp_goal,"aw",%nobits
  96              		.align	1
  99              	hot_end_temp_goal:
 100 0000 0000     		.space	2
 101              		.global	hot_bed_temp_goal
 102              		.section	.bss.hot_bed_temp_goal,"aw",%nobits
 103              		.align	1
 106              	hot_bed_temp_goal:
 107 0000 0000     		.space	2
 108              		.section	.text.reset_args,"ax",%progbits
 109              		.align	1
 110              		.global	reset_args
 111              		.syntax unified
 112              		.thumb
 113              		.thumb_func
 115              	reset_args:
 116              	.LFB321:
 117              		.file 1 "Core/Src/Parser.c"
   1:Core/Src/Parser.c **** #include "Parser.h"
   2:Core/Src/Parser.c **** 
   3:Core/Src/Parser.c **** uint16_t R, T, S;
   4:Core/Src/Parser.c **** uint16_t interval = 0;
   5:Core/Src/Parser.c **** uint16_t F = 0;
   6:Core/Src/Parser.c **** double E = 0;
   7:Core/Src/Parser.c **** double X = 0;
   8:Core/Src/Parser.c **** double Y = 0;
   9:Core/Src/Parser.c **** double Z = 0;
  10:Core/Src/Parser.c **** uint16_t hot_end_temp_goal = 0;
  11:Core/Src/Parser.c **** uint16_t hot_bed_temp_goal = 0;
  12:Core/Src/Parser.c **** 
ARM GAS  C:\Users\Morroway\AppData\Local\Temp\ccUrCpMn.s 			page 3


  13:Core/Src/Parser.c **** void reset_args()
  14:Core/Src/Parser.c **** {
 118              		.loc 1 14 1
 119              		.cfi_startproc
 120              		@ args = 0, pretend = 0, frame = 0
 121              		@ frame_needed = 1, uses_anonymous_args = 0
 122              		@ link register save eliminated.
 123 0000 80B4     		push	{r7}
 124              		.cfi_def_cfa_offset 4
 125              		.cfi_offset 7, -4
 126 0002 00AF     		add	r7, sp, #0
 127              		.cfi_def_cfa_register 7
  15:Core/Src/Parser.c ****     R = -1;
 128              		.loc 1 15 7
 129 0004 074B     		ldr	r3, .L2
 130 0006 4FF6FF72 		movw	r2, #65535
 131 000a 1A80     		strh	r2, [r3]	@ movhi
  16:Core/Src/Parser.c ****     T = 0;
 132              		.loc 1 16 7
 133 000c 064B     		ldr	r3, .L2+4
 134 000e 0022     		movs	r2, #0
 135 0010 1A80     		strh	r2, [r3]	@ movhi
  17:Core/Src/Parser.c ****     S = 0;
 136              		.loc 1 17 7
 137 0012 064B     		ldr	r3, .L2+8
 138 0014 0022     		movs	r2, #0
 139 0016 1A80     		strh	r2, [r3]	@ movhi
  18:Core/Src/Parser.c **** }
 140              		.loc 1 18 1
 141 0018 00BF     		nop
 142 001a BD46     		mov	sp, r7
 143              		.cfi_def_cfa_register 13
 144              		@ sp needed
 145 001c 5DF8047B 		ldr	r7, [sp], #4
 146              		.cfi_restore 7
 147              		.cfi_def_cfa_offset 0
 148 0020 7047     		bx	lr
 149              	.L3:
 150 0022 00BF     		.align	2
 151              	.L2:
 152 0024 00000000 		.word	R
 153 0028 00000000 		.word	T
 154 002c 00000000 		.word	S
 155              		.cfi_endproc
 156              	.LFE321:
 158              		.section	.rodata
 159              		.align	2
 160              	.LC0:
 161 0000 2000     		.ascii	" \000"
 162              		.section	.text.get_command,"ax",%progbits
 163              		.align	1
 164              		.global	get_command
 165              		.syntax unified
 166              		.thumb
 167              		.thumb_func
 169              	get_command:
 170              	.LFB322:
ARM GAS  C:\Users\Morroway\AppData\Local\Temp\ccUrCpMn.s 			page 4


  19:Core/Src/Parser.c **** 
  20:Core/Src/Parser.c **** void get_command(uint8_t buf[])
  21:Core/Src/Parser.c **** {
 171              		.loc 1 21 1
 172              		.cfi_startproc
 173              		@ args = 0, pretend = 0, frame = 16
 174              		@ frame_needed = 1, uses_anonymous_args = 0
 175 0000 80B5     		push	{r7, lr}
 176              		.cfi_def_cfa_offset 8
 177              		.cfi_offset 7, -8
 178              		.cfi_offset 14, -4
 179 0002 84B0     		sub	sp, sp, #16
 180              		.cfi_def_cfa_offset 24
 181 0004 00AF     		add	r7, sp, #0
 182              		.cfi_def_cfa_register 7
 183 0006 7860     		str	r0, [r7, #4]
  22:Core/Src/Parser.c ****     char *command;
  23:Core/Src/Parser.c ****     char *delim = " ";
 184              		.loc 1 23 11
 185 0008 3D4B     		ldr	r3, .L17
 186 000a FB60     		str	r3, [r7, #12]
  24:Core/Src/Parser.c **** 
  25:Core/Src/Parser.c ****     split_gcode(buf);
 187              		.loc 1 25 5
 188 000c 7868     		ldr	r0, [r7, #4]
 189 000e FFF7FEFF 		bl	split_gcode
  26:Core/Src/Parser.c ****     command = strtok(buf, delim);
 190              		.loc 1 26 15
 191 0012 F968     		ldr	r1, [r7, #12]
 192 0014 7868     		ldr	r0, [r7, #4]
 193 0016 FFF7FEFF 		bl	strtok
 194 001a B860     		str	r0, [r7, #8]
  27:Core/Src/Parser.c ****     switch (command[0])
 195              		.loc 1 27 20
 196 001c BB68     		ldr	r3, [r7, #8]
 197 001e 1B78     		ldrb	r3, [r3]	@ zero_extendqisi2
 198              		.loc 1 27 5
 199 0020 472B     		cmp	r3, #71
 200 0022 42D0     		beq	.L5
 201 0024 4D2B     		cmp	r3, #77
 202 0026 5FD1     		bne	.L6
  28:Core/Src/Parser.c ****     {
  29:Core/Src/Parser.c ****     case 'M':
  30:Core/Src/Parser.c ****         HAL_Delay(1);
 203              		.loc 1 30 9
 204 0028 0120     		movs	r0, #1
 205 002a FFF7FEFF 		bl	HAL_Delay
  31:Core/Src/Parser.c ****         switch (atoi(buf + 1))
 206              		.loc 1 31 26
 207 002e 7B68     		ldr	r3, [r7, #4]
 208 0030 0133     		adds	r3, r3, #1
 209              		.loc 1 31 17
 210 0032 1846     		mov	r0, r3
 211 0034 FFF7FEFF 		bl	atoi
 212 0038 0346     		mov	r3, r0
 213 003a 9B2B     		cmp	r3, #155
 214 003c 2AD0     		beq	.L7
ARM GAS  C:\Users\Morroway\AppData\Local\Temp\ccUrCpMn.s 			page 5


 215 003e 9B2B     		cmp	r3, #155
 216 0040 51DC     		bgt	.L16
 217 0042 8C2B     		cmp	r3, #140
 218 0044 1FD0     		beq	.L9
 219 0046 8C2B     		cmp	r3, #140
 220 0048 4DDC     		bgt	.L16
 221 004a 6A2B     		cmp	r3, #106
 222 004c 15D0     		beq	.L10
 223 004e 6A2B     		cmp	r3, #106
 224 0050 49DC     		bgt	.L16
 225 0052 682B     		cmp	r3, #104
 226 0054 0AD0     		beq	.L11
 227 0056 692B     		cmp	r3, #105
 228 0058 45D1     		bne	.L16
  32:Core/Src/Parser.c ****         {
  33:Core/Src/Parser.c ****         case 105:
  34:Core/Src/Parser.c ****             M105(R, T);
 229              		.loc 1 34 13
 230 005a 2A4B     		ldr	r3, .L17+4
 231 005c 1B88     		ldrh	r3, [r3]
 232 005e 2A4A     		ldr	r2, .L17+8
 233 0060 1288     		ldrh	r2, [r2]
 234 0062 1146     		mov	r1, r2
 235 0064 1846     		mov	r0, r3
 236 0066 FFF7FEFF 		bl	M105
  35:Core/Src/Parser.c ****             break;
 237              		.loc 1 35 13
 238 006a 1DE0     		b	.L8
 239              	.L11:
  36:Core/Src/Parser.c ****         case 104:
  37:Core/Src/Parser.c ****             hot_end_temp_goal = S;
 240              		.loc 1 37 31
 241 006c 274B     		ldr	r3, .L17+12
 242 006e 1A88     		ldrh	r2, [r3]
 243 0070 274B     		ldr	r3, .L17+16
 244 0072 1A80     		strh	r2, [r3]	@ movhi
  38:Core/Src/Parser.c ****             M104();
 245              		.loc 1 38 13
 246 0074 FFF7FEFF 		bl	M104
  39:Core/Src/Parser.c ****             break;
 247              		.loc 1 39 13
 248 0078 16E0     		b	.L8
 249              	.L10:
  40:Core/Src/Parser.c ****         case 106:
  41:Core/Src/Parser.c ****             M106(S);
 250              		.loc 1 41 13
 251 007a 244B     		ldr	r3, .L17+12
 252 007c 1B88     		ldrh	r3, [r3]
 253 007e 1846     		mov	r0, r3
 254 0080 FFF7FEFF 		bl	M106
  42:Core/Src/Parser.c ****             break;
 255              		.loc 1 42 13
 256 0084 10E0     		b	.L8
 257              	.L9:
  43:Core/Src/Parser.c ****         case 140:
  44:Core/Src/Parser.c ****             hot_bed_temp_goal = S;
 258              		.loc 1 44 31
ARM GAS  C:\Users\Morroway\AppData\Local\Temp\ccUrCpMn.s 			page 6


 259 0086 214B     		ldr	r3, .L17+12
 260 0088 1A88     		ldrh	r2, [r3]
 261 008a 224B     		ldr	r3, .L17+20
 262 008c 1A80     		strh	r2, [r3]	@ movhi
  45:Core/Src/Parser.c ****             M140();
 263              		.loc 1 45 13
 264 008e FFF7FEFF 		bl	M140
  46:Core/Src/Parser.c ****             break;
 265              		.loc 1 46 13
 266 0092 09E0     		b	.L8
 267              	.L7:
  47:Core/Src/Parser.c ****         case 155:
  48:Core/Src/Parser.c ****             interval = M155(S);
 268              		.loc 1 48 24
 269 0094 1D4B     		ldr	r3, .L17+12
 270 0096 1B88     		ldrh	r3, [r3]
 271 0098 1846     		mov	r0, r3
 272 009a FFF7FEFF 		bl	M155
 273 009e 0346     		mov	r3, r0
 274 00a0 1A46     		mov	r2, r3
 275              		.loc 1 48 22
 276 00a2 1D4B     		ldr	r3, .L17+24
 277 00a4 1A80     		strh	r2, [r3]	@ movhi
  49:Core/Src/Parser.c ****             break;
 278              		.loc 1 49 13
 279 00a6 00BF     		nop
 280              	.L8:
  50:Core/Src/Parser.c ****         }
  51:Core/Src/Parser.c ****         break;
 281              		.loc 1 51 9 discriminator 1
 282 00a8 1DE0     		b	.L16
 283              	.L5:
  52:Core/Src/Parser.c ****     case 'G':
  53:Core/Src/Parser.c ****         HAL_Delay(1);
 284              		.loc 1 53 9
 285 00aa 0120     		movs	r0, #1
 286 00ac FFF7FEFF 		bl	HAL_Delay
  54:Core/Src/Parser.c ****         switch (atoi(buf + 1))
 287              		.loc 1 54 26
 288 00b0 7B68     		ldr	r3, [r7, #4]
 289 00b2 0133     		adds	r3, r3, #1
 290              		.loc 1 54 17
 291 00b4 1846     		mov	r0, r3
 292 00b6 FFF7FEFF 		bl	atoi
 293 00ba 0346     		mov	r3, r0
 294 00bc 012B     		cmp	r3, #1
 295 00be 02DC     		bgt	.L12
 296 00c0 002B     		cmp	r3, #0
 297 00c2 03DA     		bge	.L13
  55:Core/Src/Parser.c ****         {
  56:Core/Src/Parser.c ****         case 0:
  57:Core/Src/Parser.c ****         case 1:
  58:Core/Src/Parser.c ****             CurStepsA = 1;
  59:Core/Src/Parser.c ****             CurStepsB = 1;
  60:Core/Src/Parser.c ****             G0();
  61:Core/Src/Parser.c ****             break;
  62:Core/Src/Parser.c ****         case 28:
ARM GAS  C:\Users\Morroway\AppData\Local\Temp\ccUrCpMn.s 			page 7


  63:Core/Src/Parser.c ****             G28();
  64:Core/Src/Parser.c ****             break;
  65:Core/Src/Parser.c ****         }
  66:Core/Src/Parser.c ****         break;
 298              		.loc 1 66 9
 299 00c4 10E0     		b	.L6
 300              	.L12:
 301 00c6 1C2B     		cmp	r3, #28
 302 00c8 09D0     		beq	.L15
 303 00ca 0DE0     		b	.L6
 304              	.L13:
  58:Core/Src/Parser.c ****             CurStepsB = 1;
 305              		.loc 1 58 23
 306 00cc 134B     		ldr	r3, .L17+28
 307 00ce 0122     		movs	r2, #1
 308 00d0 1A80     		strh	r2, [r3]	@ movhi
  59:Core/Src/Parser.c ****             G0();
 309              		.loc 1 59 23
 310 00d2 134B     		ldr	r3, .L17+32
 311 00d4 0122     		movs	r2, #1
 312 00d6 1A80     		strh	r2, [r3]	@ movhi
  60:Core/Src/Parser.c ****             break;
 313              		.loc 1 60 13
 314 00d8 FFF7FEFF 		bl	G0
  61:Core/Src/Parser.c ****         case 28:
 315              		.loc 1 61 13
 316 00dc 02E0     		b	.L14
 317              	.L15:
  63:Core/Src/Parser.c ****             break;
 318              		.loc 1 63 13
 319 00de FFF7FEFF 		bl	G28
  64:Core/Src/Parser.c ****         }
 320              		.loc 1 64 13
 321 00e2 00BF     		nop
 322              	.L14:
 323              		.loc 1 66 9 discriminator 2
 324 00e4 00E0     		b	.L6
 325              	.L16:
  51:Core/Src/Parser.c ****     case 'G':
 326              		.loc 1 51 9
 327 00e6 00BF     		nop
 328              	.L6:
  67:Core/Src/Parser.c ****     }
  68:Core/Src/Parser.c ****     reset_args();
 329              		.loc 1 68 5
 330 00e8 FFF7FEFF 		bl	reset_args
  69:Core/Src/Parser.c ****     memset(&command[0], 0, sizeof(command));
 331              		.loc 1 69 5
 332 00ec 0422     		movs	r2, #4
 333 00ee 0021     		movs	r1, #0
 334 00f0 B868     		ldr	r0, [r7, #8]
 335 00f2 FFF7FEFF 		bl	memset
  70:Core/Src/Parser.c **** }
 336              		.loc 1 70 1
 337 00f6 00BF     		nop
 338 00f8 1037     		adds	r7, r7, #16
 339              		.cfi_def_cfa_offset 8
ARM GAS  C:\Users\Morroway\AppData\Local\Temp\ccUrCpMn.s 			page 8


 340 00fa BD46     		mov	sp, r7
 341              		.cfi_def_cfa_register 13
 342              		@ sp needed
 343 00fc 80BD     		pop	{r7, pc}
 344              	.L18:
 345 00fe 00BF     		.align	2
 346              	.L17:
 347 0100 00000000 		.word	.LC0
 348 0104 00000000 		.word	R
 349 0108 00000000 		.word	T
 350 010c 00000000 		.word	S
 351 0110 00000000 		.word	hot_end_temp_goal
 352 0114 00000000 		.word	hot_bed_temp_goal
 353 0118 00000000 		.word	interval
 354 011c 00000000 		.word	CurStepsA
 355 0120 00000000 		.word	CurStepsB
 356              		.cfi_endproc
 357              	.LFE322:
 359              		.section	.text.split_gcode,"ax",%progbits
 360              		.align	1
 361              		.global	split_gcode
 362              		.syntax unified
 363              		.thumb
 364              		.thumb_func
 366              	split_gcode:
 367              	.LFB323:
  71:Core/Src/Parser.c **** 
  72:Core/Src/Parser.c **** void split_gcode(uint8_t buf[])
  73:Core/Src/Parser.c **** {
 368              		.loc 1 73 1
 369              		.cfi_startproc
 370              		@ args = 0, pretend = 0, frame = 16
 371              		@ frame_needed = 1, uses_anonymous_args = 0
 372 0000 80B5     		push	{r7, lr}
 373              		.cfi_def_cfa_offset 8
 374              		.cfi_offset 7, -8
 375              		.cfi_offset 14, -4
 376 0002 84B0     		sub	sp, sp, #16
 377              		.cfi_def_cfa_offset 24
 378 0004 00AF     		add	r7, sp, #0
 379              		.cfi_def_cfa_register 7
 380 0006 7860     		str	r0, [r7, #4]
  74:Core/Src/Parser.c ****     char *buf2;
  75:Core/Src/Parser.c ****     HAL_Delay(1);
 381              		.loc 1 75 5
 382 0008 0120     		movs	r0, #1
 383 000a FFF7FEFF 		bl	HAL_Delay
  76:Core/Src/Parser.c ****     buf2 = strtok(buf, " ");
 384              		.loc 1 76 12
 385 000e 5449     		ldr	r1, .L33
 386 0010 7868     		ldr	r0, [r7, #4]
 387 0012 FFF7FEFF 		bl	strtok
 388 0016 F860     		str	r0, [r7, #12]
  77:Core/Src/Parser.c ****     while (buf2 != NULL)
 389              		.loc 1 77 11
 390 0018 98E0     		b	.L20
 391              	.L31:
ARM GAS  C:\Users\Morroway\AppData\Local\Temp\ccUrCpMn.s 			page 9


  78:Core/Src/Parser.c ****     {
  79:Core/Src/Parser.c ****         switch (buf2[0])
 392              		.loc 1 79 21
 393 001a FB68     		ldr	r3, [r7, #12]
 394 001c 1B78     		ldrb	r3, [r3]	@ zero_extendqisi2
 395              		.loc 1 79 9
 396 001e 453B     		subs	r3, r3, #69
 397 0020 152B     		cmp	r3, #21
 398 0022 00F28B80 		bhi	.L21
 399 0026 01A2     		adr	r2, .L23
 400 0028 52F823F0 		ldr	pc, [r2, r3, lsl #2]
 401              		.p2align 2
 402              	.L23:
 403 002c 0F010000 		.word	.L30+1
 404 0030 29010000 		.word	.L29+1
 405 0034 3D010000 		.word	.L21+1
 406 0038 3D010000 		.word	.L21+1
 407 003c 3D010000 		.word	.L21+1
 408 0040 3D010000 		.word	.L21+1
 409 0044 3D010000 		.word	.L21+1
 410 0048 3D010000 		.word	.L21+1
 411 004c 3D010000 		.word	.L21+1
 412 0050 3D010000 		.word	.L21+1
 413 0054 3D010000 		.word	.L21+1
 414 0058 3D010000 		.word	.L21+1
 415 005c 3D010000 		.word	.L21+1
 416 0060 85000000 		.word	.L28+1
 417 0064 AD000000 		.word	.L27+1
 418 0068 99000000 		.word	.L26+1
 419 006c 3D010000 		.word	.L21+1
 420 0070 3D010000 		.word	.L21+1
 421 0074 3D010000 		.word	.L21+1
 422 0078 C1000000 		.word	.L25+1
 423 007c DB000000 		.word	.L24+1
 424 0080 F5000000 		.word	.L22+1
 425              		.p2align 1
 426              	.L28:
  80:Core/Src/Parser.c ****         {
  81:Core/Src/Parser.c ****         case 'R':
  82:Core/Src/Parser.c ****             R = atoi(buf2 + 1);
 427              		.loc 1 82 27
 428 0084 FB68     		ldr	r3, [r7, #12]
 429 0086 0133     		adds	r3, r3, #1
 430              		.loc 1 82 17
 431 0088 1846     		mov	r0, r3
 432 008a FFF7FEFF 		bl	atoi
 433 008e 0346     		mov	r3, r0
 434              		.loc 1 82 15
 435 0090 9AB2     		uxth	r2, r3
 436 0092 344B     		ldr	r3, .L33+4
 437 0094 1A80     		strh	r2, [r3]	@ movhi
  83:Core/Src/Parser.c ****             break;
 438              		.loc 1 83 13
 439 0096 51E0     		b	.L21
 440              	.L26:
  84:Core/Src/Parser.c ****         case 'T':
  85:Core/Src/Parser.c ****             T = atoi(buf2 + 1);
ARM GAS  C:\Users\Morroway\AppData\Local\Temp\ccUrCpMn.s 			page 10


 441              		.loc 1 85 27
 442 0098 FB68     		ldr	r3, [r7, #12]
 443 009a 0133     		adds	r3, r3, #1
 444              		.loc 1 85 17
 445 009c 1846     		mov	r0, r3
 446 009e FFF7FEFF 		bl	atoi
 447 00a2 0346     		mov	r3, r0
 448              		.loc 1 85 15
 449 00a4 9AB2     		uxth	r2, r3
 450 00a6 304B     		ldr	r3, .L33+8
 451 00a8 1A80     		strh	r2, [r3]	@ movhi
  86:Core/Src/Parser.c ****             break;
 452              		.loc 1 86 13
 453 00aa 47E0     		b	.L21
 454              	.L27:
  87:Core/Src/Parser.c ****         case 'S':
  88:Core/Src/Parser.c ****             S = atoi(buf2 + 1);
 455              		.loc 1 88 27
 456 00ac FB68     		ldr	r3, [r7, #12]
 457 00ae 0133     		adds	r3, r3, #1
 458              		.loc 1 88 17
 459 00b0 1846     		mov	r0, r3
 460 00b2 FFF7FEFF 		bl	atoi
 461 00b6 0346     		mov	r3, r0
 462              		.loc 1 88 15
 463 00b8 9AB2     		uxth	r2, r3
 464 00ba 2C4B     		ldr	r3, .L33+12
 465 00bc 1A80     		strh	r2, [r3]	@ movhi
  89:Core/Src/Parser.c ****             break;
 466              		.loc 1 89 13
 467 00be 3DE0     		b	.L21
 468              	.L25:
  90:Core/Src/Parser.c ****         case 'X':
  91:Core/Src/Parser.c ****             X = atof(buf2 + 1);
 469              		.loc 1 91 27
 470 00c0 FB68     		ldr	r3, [r7, #12]
 471 00c2 0133     		adds	r3, r3, #1
 472              		.loc 1 91 17
 473 00c4 1846     		mov	r0, r3
 474 00c6 FFF7FEFF 		bl	atof
 475 00ca B0EE407A 		vmov.f32	s14, s0
 476 00ce F0EE607A 		vmov.f32	s15, s1
 477              		.loc 1 91 15
 478 00d2 274B     		ldr	r3, .L33+16
 479 00d4 83ED007B 		vstr.64	d7, [r3]
  92:Core/Src/Parser.c ****             break;
 480              		.loc 1 92 13
 481 00d8 30E0     		b	.L21
 482              	.L24:
  93:Core/Src/Parser.c ****         case 'Y':
  94:Core/Src/Parser.c ****             Y = atof(buf2 + 1);
 483              		.loc 1 94 27
 484 00da FB68     		ldr	r3, [r7, #12]
 485 00dc 0133     		adds	r3, r3, #1
 486              		.loc 1 94 17
 487 00de 1846     		mov	r0, r3
 488 00e0 FFF7FEFF 		bl	atof
ARM GAS  C:\Users\Morroway\AppData\Local\Temp\ccUrCpMn.s 			page 11


 489 00e4 B0EE407A 		vmov.f32	s14, s0
 490 00e8 F0EE607A 		vmov.f32	s15, s1
 491              		.loc 1 94 15
 492 00ec 214B     		ldr	r3, .L33+20
 493 00ee 83ED007B 		vstr.64	d7, [r3]
  95:Core/Src/Parser.c ****             break;
 494              		.loc 1 95 13
 495 00f2 23E0     		b	.L21
 496              	.L22:
  96:Core/Src/Parser.c ****         case 'Z':
  97:Core/Src/Parser.c ****             Z = atof(buf2 + 1);
 497              		.loc 1 97 27
 498 00f4 FB68     		ldr	r3, [r7, #12]
 499 00f6 0133     		adds	r3, r3, #1
 500              		.loc 1 97 17
 501 00f8 1846     		mov	r0, r3
 502 00fa FFF7FEFF 		bl	atof
 503 00fe B0EE407A 		vmov.f32	s14, s0
 504 0102 F0EE607A 		vmov.f32	s15, s1
 505              		.loc 1 97 15
 506 0106 1C4B     		ldr	r3, .L33+24
 507 0108 83ED007B 		vstr.64	d7, [r3]
  98:Core/Src/Parser.c ****             break;
 508              		.loc 1 98 13
 509 010c 16E0     		b	.L21
 510              	.L30:
  99:Core/Src/Parser.c ****         case 'E':
 100:Core/Src/Parser.c ****             E = atof(buf2 + 1);
 511              		.loc 1 100 27
 512 010e FB68     		ldr	r3, [r7, #12]
 513 0110 0133     		adds	r3, r3, #1
 514              		.loc 1 100 17
 515 0112 1846     		mov	r0, r3
 516 0114 FFF7FEFF 		bl	atof
 517 0118 B0EE407A 		vmov.f32	s14, s0
 518 011c F0EE607A 		vmov.f32	s15, s1
 519              		.loc 1 100 15
 520 0120 164B     		ldr	r3, .L33+28
 521 0122 83ED007B 		vstr.64	d7, [r3]
 101:Core/Src/Parser.c ****             break;
 522              		.loc 1 101 13
 523 0126 09E0     		b	.L21
 524              	.L29:
 102:Core/Src/Parser.c ****         case 'F':
 103:Core/Src/Parser.c ****             F = atoi(buf2 + 1);
 525              		.loc 1 103 27
 526 0128 FB68     		ldr	r3, [r7, #12]
 527 012a 0133     		adds	r3, r3, #1
 528              		.loc 1 103 17
 529 012c 1846     		mov	r0, r3
 530 012e FFF7FEFF 		bl	atoi
 531 0132 0346     		mov	r3, r0
 532              		.loc 1 103 15
 533 0134 9AB2     		uxth	r2, r3
 534 0136 124B     		ldr	r3, .L33+32
 535 0138 1A80     		strh	r2, [r3]	@ movhi
 104:Core/Src/Parser.c ****             break;
ARM GAS  C:\Users\Morroway\AppData\Local\Temp\ccUrCpMn.s 			page 12


 536              		.loc 1 104 13
 537 013a 00BF     		nop
 538              	.L21:
 105:Core/Src/Parser.c ****         }
 106:Core/Src/Parser.c ****         HAL_Delay(1);
 539              		.loc 1 106 9
 540 013c 0120     		movs	r0, #1
 541 013e FFF7FEFF 		bl	HAL_Delay
 107:Core/Src/Parser.c ****         buf2 = strtok(NULL, " ");
 542              		.loc 1 107 16
 543 0142 0749     		ldr	r1, .L33
 544 0144 0020     		movs	r0, #0
 545 0146 FFF7FEFF 		bl	strtok
 546 014a F860     		str	r0, [r7, #12]
 547              	.L20:
  77:Core/Src/Parser.c ****     {
 548              		.loc 1 77 17
 549 014c FB68     		ldr	r3, [r7, #12]
 550 014e 002B     		cmp	r3, #0
 551 0150 7FF463AF 		bne	.L31
 108:Core/Src/Parser.c ****     }
 109:Core/Src/Parser.c **** }...
 552              		.loc 1 109 1
 553 0154 00BF     		nop
 554 0156 00BF     		nop
 555 0158 1037     		adds	r7, r7, #16
 556              		.cfi_def_cfa_offset 8
 557 015a BD46     		mov	sp, r7
 558              		.cfi_def_cfa_register 13
 559              		@ sp needed
 560 015c 80BD     		pop	{r7, pc}
 561              	.L34:
 562 015e 00BF     		.align	2
 563              	.L33:
 564 0160 00000000 		.word	.LC0
 565 0164 00000000 		.word	R
 566 0168 00000000 		.word	T
 567 016c 00000000 		.word	S
 568 0170 00000000 		.word	X
 569 0174 00000000 		.word	Y
 570 0178 00000000 		.word	Z
 571 017c 00000000 		.word	E
 572 0180 00000000 		.word	F
 573              		.cfi_endproc
 574              	.LFE323:
 576              		.text
 577              	.Letext0:
 578              		.file 2 "c:\\users\\morroway\\appdata\\roaming\\code\\user\\globalstorage\\bmd.stm32-for-vscode\\@
 579              		.file 3 "c:\\users\\morroway\\appdata\\roaming\\code\\user\\globalstorage\\bmd.stm32-for-vscode\\@
 580              		.file 4 "c:\\users\\morroway\\appdata\\roaming\\code\\user\\globalstorage\\bmd.stm32-for-vscode\\@
 581              		.file 5 "Core/Inc/Functions.h"
 582              		.file 6 "Core/Inc/main.h"
 583              		.file 7 "Core/Inc/Parser.h"
 584              		.file 8 "c:\\users\\morroway\\appdata\\roaming\\code\\user\\globalstorage\\bmd.stm32-for-vscode\\@
 585              		.file 9 "c:\\users\\morroway\\appdata\\roaming\\code\\user\\globalstorage\\bmd.stm32-for-vscode\\@
 586              		.file 10 "Core/Inc/GCodes.h"
 587              		.file 11 "Drivers/STM32L4xx_HAL_Driver/Inc/stm32l4xx_hal.h"
ARM GAS  C:\Users\Morroway\AppData\Local\Temp\ccUrCpMn.s 			page 13


ARM GAS  C:\Users\Morroway\AppData\Local\Temp\ccUrCpMn.s 			page 14


DEFINED SYMBOLS
                            *ABS*:0000000000000000 Parser.c
C:\Users\Morroway\AppData\Local\Temp\ccUrCpMn.s:20     .bss.msg_buffer:0000000000000000 $d
C:\Users\Morroway\AppData\Local\Temp\ccUrCpMn.s:23     .bss.msg_buffer:0000000000000000 msg_buffer
C:\Users\Morroway\AppData\Local\Temp\ccUrCpMn.s:26     .bss.RxBuf:0000000000000000 $d
C:\Users\Morroway\AppData\Local\Temp\ccUrCpMn.s:29     .bss.RxBuf:0000000000000000 RxBuf
C:\Users\Morroway\AppData\Local\Temp\ccUrCpMn.s:36     .bss.R:0000000000000000 R
C:\Users\Morroway\AppData\Local\Temp\ccUrCpMn.s:33     .bss.R:0000000000000000 $d
C:\Users\Morroway\AppData\Local\Temp\ccUrCpMn.s:43     .bss.T:0000000000000000 T
C:\Users\Morroway\AppData\Local\Temp\ccUrCpMn.s:40     .bss.T:0000000000000000 $d
C:\Users\Morroway\AppData\Local\Temp\ccUrCpMn.s:50     .bss.S:0000000000000000 S
C:\Users\Morroway\AppData\Local\Temp\ccUrCpMn.s:47     .bss.S:0000000000000000 $d
C:\Users\Morroway\AppData\Local\Temp\ccUrCpMn.s:57     .bss.interval:0000000000000000 interval
C:\Users\Morroway\AppData\Local\Temp\ccUrCpMn.s:54     .bss.interval:0000000000000000 $d
C:\Users\Morroway\AppData\Local\Temp\ccUrCpMn.s:64     .bss.F:0000000000000000 F
C:\Users\Morroway\AppData\Local\Temp\ccUrCpMn.s:61     .bss.F:0000000000000000 $d
C:\Users\Morroway\AppData\Local\Temp\ccUrCpMn.s:71     .bss.E:0000000000000000 E
C:\Users\Morroway\AppData\Local\Temp\ccUrCpMn.s:68     .bss.E:0000000000000000 $d
C:\Users\Morroway\AppData\Local\Temp\ccUrCpMn.s:78     .bss.X:0000000000000000 X
C:\Users\Morroway\AppData\Local\Temp\ccUrCpMn.s:75     .bss.X:0000000000000000 $d
C:\Users\Morroway\AppData\Local\Temp\ccUrCpMn.s:85     .bss.Y:0000000000000000 Y
C:\Users\Morroway\AppData\Local\Temp\ccUrCpMn.s:82     .bss.Y:0000000000000000 $d
C:\Users\Morroway\AppData\Local\Temp\ccUrCpMn.s:92     .bss.Z:0000000000000000 Z
C:\Users\Morroway\AppData\Local\Temp\ccUrCpMn.s:89     .bss.Z:0000000000000000 $d
C:\Users\Morroway\AppData\Local\Temp\ccUrCpMn.s:99     .bss.hot_end_temp_goal:0000000000000000 hot_end_temp_goal
C:\Users\Morroway\AppData\Local\Temp\ccUrCpMn.s:96     .bss.hot_end_temp_goal:0000000000000000 $d
C:\Users\Morroway\AppData\Local\Temp\ccUrCpMn.s:106    .bss.hot_bed_temp_goal:0000000000000000 hot_bed_temp_goal
C:\Users\Morroway\AppData\Local\Temp\ccUrCpMn.s:103    .bss.hot_bed_temp_goal:0000000000000000 $d
C:\Users\Morroway\AppData\Local\Temp\ccUrCpMn.s:109    .text.reset_args:0000000000000000 $t
C:\Users\Morroway\AppData\Local\Temp\ccUrCpMn.s:115    .text.reset_args:0000000000000000 reset_args
C:\Users\Morroway\AppData\Local\Temp\ccUrCpMn.s:152    .text.reset_args:0000000000000024 $d
C:\Users\Morroway\AppData\Local\Temp\ccUrCpMn.s:159    .rodata:0000000000000000 $d
C:\Users\Morroway\AppData\Local\Temp\ccUrCpMn.s:163    .text.get_command:0000000000000000 $t
C:\Users\Morroway\AppData\Local\Temp\ccUrCpMn.s:169    .text.get_command:0000000000000000 get_command
C:\Users\Morroway\AppData\Local\Temp\ccUrCpMn.s:366    .text.split_gcode:0000000000000000 split_gcode
C:\Users\Morroway\AppData\Local\Temp\ccUrCpMn.s:347    .text.get_command:0000000000000100 $d
C:\Users\Morroway\AppData\Local\Temp\ccUrCpMn.s:360    .text.split_gcode:0000000000000000 $t
C:\Users\Morroway\AppData\Local\Temp\ccUrCpMn.s:403    .text.split_gcode:000000000000002c $d
C:\Users\Morroway\AppData\Local\Temp\ccUrCpMn.s:425    .text.split_gcode:0000000000000084 $t
C:\Users\Morroway\AppData\Local\Temp\ccUrCpMn.s:564    .text.split_gcode:0000000000000160 $d

UNDEFINED SYMBOLS
strtok
HAL_Delay
atoi
M105
M104
M106
M140
M155
G0
G28
memset
CurStepsA
CurStepsB
atof
