ARM GAS  C:\Users\Morroway\AppData\Local\Temp\cclqN1N9.s 			page 1


   1              		.cpu cortex-m4
   2              		.arch armv7e-m
   3              		.fpu fpv4-sp-d16
   4              		.eabi_attribute 27, 1
   5              		.eabi_attribute 28, 1
   6              		.eabi_attribute 20, 1
   7              		.eabi_attribute 21, 1
   8              		.eabi_attribute 23, 3
   9              		.eabi_attribute 24, 1
  10              		.eabi_attribute 25, 1
  11              		.eabi_attribute 26, 1
  12              		.eabi_attribute 30, 6
  13              		.eabi_attribute 34, 1
  14              		.eabi_attribute 18, 4
  15              		.file	"Parser.c"
  16              		.text
  17              	.Ltext0:
  18              		.cfi_sections	.debug_frame
  19              		.section	.bss.msg_buffer,"aw",%nobits
  20              		.align	2
  23              	msg_buffer:
  24 0000 00000000 		.space	30
  24      00000000 
  24      00000000 
  24      00000000 
  24      00000000 
  25              		.section	.bss.RxBuf,"aw",%nobits
  26              		.align	2
  29              	RxBuf:
  30 0000 00000000 		.space	40
  30      00000000 
  30      00000000 
  30      00000000 
  30      00000000 
  31              		.global	R
  32              		.section	.bss.R,"aw",%nobits
  33              		.align	1
  36              	R:
  37 0000 0000     		.space	2
  38              		.global	T
  39              		.section	.bss.T,"aw",%nobits
  40              		.align	1
  43              	T:
  44 0000 0000     		.space	2
  45              		.global	S
  46              		.section	.bss.S,"aw",%nobits
  47              		.align	1
  50              	S:
  51 0000 0000     		.space	2
  52              		.global	interval
  53              		.section	.bss.interval,"aw",%nobits
  54              		.align	1
  57              	interval:
  58 0000 0000     		.space	2
  59              		.global	F
  60              		.section	.bss.F,"aw",%nobits
  61              		.align	1
ARM GAS  C:\Users\Morroway\AppData\Local\Temp\cclqN1N9.s 			page 2


  64              	F:
  65 0000 0000     		.space	2
  66              		.global	E
  67              		.section	.bss.E,"aw",%nobits
  68              		.align	3
  71              	E:
  72 0000 00000000 		.space	8
  72      00000000 
  73              		.global	X
  74              		.section	.bss.X,"aw",%nobits
  75              		.align	3
  78              	X:
  79 0000 00000000 		.space	8
  79      00000000 
  80              		.global	Y
  81              		.section	.bss.Y,"aw",%nobits
  82              		.align	3
  85              	Y:
  86 0000 00000000 		.space	8
  86      00000000 
  87              		.global	Z
  88              		.section	.bss.Z,"aw",%nobits
  89              		.align	3
  92              	Z:
  93 0000 00000000 		.space	8
  93      00000000 
  94              		.global	hot_end_temp_goal
  95              		.section	.bss.hot_end_temp_goal,"aw",%nobits
  96              		.align	1
  99              	hot_end_temp_goal:
 100 0000 0000     		.space	2
 101              		.global	hot_bed_temp_goal
 102              		.section	.bss.hot_bed_temp_goal,"aw",%nobits
 103              		.align	1
 106              	hot_bed_temp_goal:
 107 0000 0000     		.space	2
 108              		.section	.text.reset_args,"ax",%progbits
 109              		.align	1
 110              		.global	reset_args
 111              		.syntax unified
 112              		.thumb
 113              		.thumb_func
 115              	reset_args:
 116              	.LFB321:
 117              		.file 1 "Core/Src/Parser.c"
   1:Core/Src/Parser.c **** #include "Parser.h"
   2:Core/Src/Parser.c **** 
   3:Core/Src/Parser.c **** uint16_t R, T, S;
   4:Core/Src/Parser.c **** uint16_t interval = 0;
   5:Core/Src/Parser.c **** uint16_t F = 0;
   6:Core/Src/Parser.c **** double E = 0;
   7:Core/Src/Parser.c **** double X = 0;
   8:Core/Src/Parser.c **** double Y = 0;
   9:Core/Src/Parser.c **** double Z = 0;
  10:Core/Src/Parser.c **** uint16_t hot_end_temp_goal = 0;
  11:Core/Src/Parser.c **** uint16_t hot_bed_temp_goal = 0;
  12:Core/Src/Parser.c **** 
ARM GAS  C:\Users\Morroway\AppData\Local\Temp\cclqN1N9.s 			page 3


  13:Core/Src/Parser.c **** void reset_args()
  14:Core/Src/Parser.c **** {
 118              		.loc 1 14 1
 119              		.cfi_startproc
 120              		@ args = 0, pretend = 0, frame = 0
 121              		@ frame_needed = 1, uses_anonymous_args = 0
 122              		@ link register save eliminated.
 123 0000 80B4     		push	{r7}
 124              		.cfi_def_cfa_offset 4
 125              		.cfi_offset 7, -4
 126 0002 00AF     		add	r7, sp, #0
 127              		.cfi_def_cfa_register 7
  15:Core/Src/Parser.c ****     R = -1;
 128              		.loc 1 15 7
 129 0004 074B     		ldr	r3, .L2
 130 0006 4FF6FF72 		movw	r2, #65535
 131 000a 1A80     		strh	r2, [r3]	@ movhi
  16:Core/Src/Parser.c ****     T = 0;
 132              		.loc 1 16 7
 133 000c 064B     		ldr	r3, .L2+4
 134 000e 0022     		movs	r2, #0
 135 0010 1A80     		strh	r2, [r3]	@ movhi
  17:Core/Src/Parser.c ****     S = 0;
 136              		.loc 1 17 7
 137 0012 064B     		ldr	r3, .L2+8
 138 0014 0022     		movs	r2, #0
 139 0016 1A80     		strh	r2, [r3]	@ movhi
  18:Core/Src/Parser.c **** }
 140              		.loc 1 18 1
 141 0018 00BF     		nop
 142 001a BD46     		mov	sp, r7
 143              		.cfi_def_cfa_register 13
 144              		@ sp needed
 145 001c 5DF8047B 		ldr	r7, [sp], #4
 146              		.cfi_restore 7
 147              		.cfi_def_cfa_offset 0
 148 0020 7047     		bx	lr
 149              	.L3:
 150 0022 00BF     		.align	2
 151              	.L2:
 152 0024 00000000 		.word	R
 153 0028 00000000 		.word	T
 154 002c 00000000 		.word	S
 155              		.cfi_endproc
 156              	.LFE321:
 158              		.section	.rodata
 159              		.align	2
 160              	.LC0:
 161 0000 2000     		.ascii	" \000"
 162              		.section	.text.get_command,"ax",%progbits
 163              		.align	1
 164              		.global	get_command
 165              		.syntax unified
 166              		.thumb
 167              		.thumb_func
 169              	get_command:
 170              	.LFB322:
ARM GAS  C:\Users\Morroway\AppData\Local\Temp\cclqN1N9.s 			page 4


  19:Core/Src/Parser.c **** 
  20:Core/Src/Parser.c **** void get_command(uint8_t buf[])
  21:Core/Src/Parser.c **** {
 171              		.loc 1 21 1
 172              		.cfi_startproc
 173              		@ args = 0, pretend = 0, frame = 16
 174              		@ frame_needed = 1, uses_anonymous_args = 0
 175 0000 80B5     		push	{r7, lr}
 176              		.cfi_def_cfa_offset 8
 177              		.cfi_offset 7, -8
 178              		.cfi_offset 14, -4
 179 0002 84B0     		sub	sp, sp, #16
 180              		.cfi_def_cfa_offset 24
 181 0004 00AF     		add	r7, sp, #0
 182              		.cfi_def_cfa_register 7
 183 0006 7860     		str	r0, [r7, #4]
  22:Core/Src/Parser.c ****     char *command;
  23:Core/Src/Parser.c ****     char *delim = " ";
 184              		.loc 1 23 11
 185 0008 3E4B     		ldr	r3, .L17
 186 000a FB60     		str	r3, [r7, #12]
  24:Core/Src/Parser.c **** 
  25:Core/Src/Parser.c ****     split_gcode(buf);
 187              		.loc 1 25 5
 188 000c 7868     		ldr	r0, [r7, #4]
 189 000e FFF7FEFF 		bl	split_gcode
  26:Core/Src/Parser.c ****     command = strtok(buf, delim);
 190              		.loc 1 26 15
 191 0012 F968     		ldr	r1, [r7, #12]
 192 0014 7868     		ldr	r0, [r7, #4]
 193 0016 FFF7FEFF 		bl	strtok
 194 001a B860     		str	r0, [r7, #8]
  27:Core/Src/Parser.c ****     switch (command[0])
 195              		.loc 1 27 20
 196 001c BB68     		ldr	r3, [r7, #8]
 197 001e 1B78     		ldrb	r3, [r3]	@ zero_extendqisi2
 198              		.loc 1 27 5
 199 0020 472B     		cmp	r3, #71
 200 0022 42D0     		beq	.L5
 201 0024 4D2B     		cmp	r3, #77
 202 0026 62D1     		bne	.L6
  28:Core/Src/Parser.c ****     {
  29:Core/Src/Parser.c ****     case 'M':
  30:Core/Src/Parser.c ****         HAL_Delay(1);
 203              		.loc 1 30 9
 204 0028 0120     		movs	r0, #1
 205 002a FFF7FEFF 		bl	HAL_Delay
  31:Core/Src/Parser.c ****         switch (atoi(buf + 1))
 206              		.loc 1 31 26
 207 002e 7B68     		ldr	r3, [r7, #4]
 208 0030 0133     		adds	r3, r3, #1
 209              		.loc 1 31 17
 210 0032 1846     		mov	r0, r3
 211 0034 FFF7FEFF 		bl	atoi
 212 0038 0346     		mov	r3, r0
 213 003a 9B2B     		cmp	r3, #155
 214 003c 2AD0     		beq	.L7
ARM GAS  C:\Users\Morroway\AppData\Local\Temp\cclqN1N9.s 			page 5


 215 003e 9B2B     		cmp	r3, #155
 216 0040 54DC     		bgt	.L16
 217 0042 8C2B     		cmp	r3, #140
 218 0044 1FD0     		beq	.L9
 219 0046 8C2B     		cmp	r3, #140
 220 0048 50DC     		bgt	.L16
 221 004a 6A2B     		cmp	r3, #106
 222 004c 15D0     		beq	.L10
 223 004e 6A2B     		cmp	r3, #106
 224 0050 4CDC     		bgt	.L16
 225 0052 682B     		cmp	r3, #104
 226 0054 0AD0     		beq	.L11
 227 0056 692B     		cmp	r3, #105
 228 0058 48D1     		bne	.L16
  32:Core/Src/Parser.c ****         {
  33:Core/Src/Parser.c ****         case 105:
  34:Core/Src/Parser.c ****             M105(R, T);
 229              		.loc 1 34 13
 230 005a 2B4B     		ldr	r3, .L17+4
 231 005c 1B88     		ldrh	r3, [r3]
 232 005e 2B4A     		ldr	r2, .L17+8
 233 0060 1288     		ldrh	r2, [r2]
 234 0062 1146     		mov	r1, r2
 235 0064 1846     		mov	r0, r3
 236 0066 FFF7FEFF 		bl	M105
  35:Core/Src/Parser.c ****             break;
 237              		.loc 1 35 13
 238 006a 1DE0     		b	.L8
 239              	.L11:
  36:Core/Src/Parser.c ****         case 104:
  37:Core/Src/Parser.c ****             hot_end_temp_goal = S;
 240              		.loc 1 37 31
 241 006c 284B     		ldr	r3, .L17+12
 242 006e 1A88     		ldrh	r2, [r3]
 243 0070 284B     		ldr	r3, .L17+16
 244 0072 1A80     		strh	r2, [r3]	@ movhi
  38:Core/Src/Parser.c ****             M104();
 245              		.loc 1 38 13
 246 0074 FFF7FEFF 		bl	M104
  39:Core/Src/Parser.c ****             break;
 247              		.loc 1 39 13
 248 0078 16E0     		b	.L8
 249              	.L10:
  40:Core/Src/Parser.c ****         case 106:
  41:Core/Src/Parser.c ****             M106(S);
 250              		.loc 1 41 13
 251 007a 254B     		ldr	r3, .L17+12
 252 007c 1B88     		ldrh	r3, [r3]
 253 007e 1846     		mov	r0, r3
 254 0080 FFF7FEFF 		bl	M106
  42:Core/Src/Parser.c ****             break;
 255              		.loc 1 42 13
 256 0084 10E0     		b	.L8
 257              	.L9:
  43:Core/Src/Parser.c ****         case 140:
  44:Core/Src/Parser.c ****             hot_bed_temp_goal = S;
 258              		.loc 1 44 31
ARM GAS  C:\Users\Morroway\AppData\Local\Temp\cclqN1N9.s 			page 6


 259 0086 224B     		ldr	r3, .L17+12
 260 0088 1A88     		ldrh	r2, [r3]
 261 008a 234B     		ldr	r3, .L17+20
 262 008c 1A80     		strh	r2, [r3]	@ movhi
  45:Core/Src/Parser.c ****             M140();
 263              		.loc 1 45 13
 264 008e FFF7FEFF 		bl	M140
  46:Core/Src/Parser.c ****             break;
 265              		.loc 1 46 13
 266 0092 09E0     		b	.L8
 267              	.L7:
  47:Core/Src/Parser.c ****         case 155:
  48:Core/Src/Parser.c ****             interval = M155(S);
 268              		.loc 1 48 24
 269 0094 1E4B     		ldr	r3, .L17+12
 270 0096 1B88     		ldrh	r3, [r3]
 271 0098 1846     		mov	r0, r3
 272 009a FFF7FEFF 		bl	M155
 273 009e 0346     		mov	r3, r0
 274 00a0 1A46     		mov	r2, r3
 275              		.loc 1 48 22
 276 00a2 1E4B     		ldr	r3, .L17+24
 277 00a4 1A80     		strh	r2, [r3]	@ movhi
  49:Core/Src/Parser.c ****             break;
 278              		.loc 1 49 13
 279 00a6 00BF     		nop
 280              	.L8:
  50:Core/Src/Parser.c ****         }
  51:Core/Src/Parser.c ****         break;
 281              		.loc 1 51 9 discriminator 1
 282 00a8 20E0     		b	.L16
 283              	.L5:
  52:Core/Src/Parser.c ****     case 'G':
  53:Core/Src/Parser.c ****         HAL_Delay(1);
 284              		.loc 1 53 9
 285 00aa 0120     		movs	r0, #1
 286 00ac FFF7FEFF 		bl	HAL_Delay
  54:Core/Src/Parser.c ****         switch (atoi(buf + 1))
 287              		.loc 1 54 26
 288 00b0 7B68     		ldr	r3, [r7, #4]
 289 00b2 0133     		adds	r3, r3, #1
 290              		.loc 1 54 17
 291 00b4 1846     		mov	r0, r3
 292 00b6 FFF7FEFF 		bl	atoi
 293 00ba 0346     		mov	r3, r0
 294 00bc 012B     		cmp	r3, #1
 295 00be 02DC     		bgt	.L12
 296 00c0 002B     		cmp	r3, #0
 297 00c2 03DA     		bge	.L13
  55:Core/Src/Parser.c ****         {
  56:Core/Src/Parser.c ****         case 0:
  57:Core/Src/Parser.c ****         case 1:
  58:Core/Src/Parser.c ****             CurStepsA = 1;
  59:Core/Src/Parser.c ****             CurStepsB = 1;
  60:Core/Src/Parser.c ****             CurStepsE = 1;
  61:Core/Src/Parser.c ****             G0();
  62:Core/Src/Parser.c ****             break;
ARM GAS  C:\Users\Morroway\AppData\Local\Temp\cclqN1N9.s 			page 7


  63:Core/Src/Parser.c ****         case 28:
  64:Core/Src/Parser.c ****             G28();
  65:Core/Src/Parser.c ****             break;
  66:Core/Src/Parser.c ****         }
  67:Core/Src/Parser.c ****         break;
 298              		.loc 1 67 9
 299 00c4 13E0     		b	.L6
 300              	.L12:
 301 00c6 1C2B     		cmp	r3, #28
 302 00c8 0CD0     		beq	.L15
 303 00ca 10E0     		b	.L6
 304              	.L13:
  58:Core/Src/Parser.c ****             CurStepsB = 1;
 305              		.loc 1 58 23
 306 00cc 144B     		ldr	r3, .L17+28
 307 00ce 0122     		movs	r2, #1
 308 00d0 1A80     		strh	r2, [r3]	@ movhi
  59:Core/Src/Parser.c ****             CurStepsE = 1;
 309              		.loc 1 59 23
 310 00d2 144B     		ldr	r3, .L17+32
 311 00d4 0122     		movs	r2, #1
 312 00d6 1A80     		strh	r2, [r3]	@ movhi
  60:Core/Src/Parser.c ****             G0();
 313              		.loc 1 60 23
 314 00d8 134B     		ldr	r3, .L17+36
 315 00da 0122     		movs	r2, #1
 316 00dc 1A80     		strh	r2, [r3]	@ movhi
  61:Core/Src/Parser.c ****             break;
 317              		.loc 1 61 13
 318 00de FFF7FEFF 		bl	G0
  62:Core/Src/Parser.c ****         case 28:
 319              		.loc 1 62 13
 320 00e2 02E0     		b	.L14
 321              	.L15:
  64:Core/Src/Parser.c ****             break;
 322              		.loc 1 64 13
 323 00e4 FFF7FEFF 		bl	G28
  65:Core/Src/Parser.c ****         }
 324              		.loc 1 65 13
 325 00e8 00BF     		nop
 326              	.L14:
 327              		.loc 1 67 9 discriminator 2
 328 00ea 00E0     		b	.L6
 329              	.L16:
  51:Core/Src/Parser.c ****     case 'G':
 330              		.loc 1 51 9
 331 00ec 00BF     		nop
 332              	.L6:
  68:Core/Src/Parser.c ****     }
  69:Core/Src/Parser.c ****     reset_args();
 333              		.loc 1 69 5
 334 00ee FFF7FEFF 		bl	reset_args
  70:Core/Src/Parser.c ****     memset(&command[0], 0, sizeof(command));
 335              		.loc 1 70 5
 336 00f2 0422     		movs	r2, #4
 337 00f4 0021     		movs	r1, #0
 338 00f6 B868     		ldr	r0, [r7, #8]
ARM GAS  C:\Users\Morroway\AppData\Local\Temp\cclqN1N9.s 			page 8


 339 00f8 FFF7FEFF 		bl	memset
  71:Core/Src/Parser.c **** }
 340              		.loc 1 71 1
 341 00fc 00BF     		nop
 342 00fe 1037     		adds	r7, r7, #16
 343              		.cfi_def_cfa_offset 8
 344 0100 BD46     		mov	sp, r7
 345              		.cfi_def_cfa_register 13
 346              		@ sp needed
 347 0102 80BD     		pop	{r7, pc}
 348              	.L18:
 349              		.align	2
 350              	.L17:
 351 0104 00000000 		.word	.LC0
 352 0108 00000000 		.word	R
 353 010c 00000000 		.word	T
 354 0110 00000000 		.word	S
 355 0114 00000000 		.word	hot_end_temp_goal
 356 0118 00000000 		.word	hot_bed_temp_goal
 357 011c 00000000 		.word	interval
 358 0120 00000000 		.word	CurStepsA
 359 0124 00000000 		.word	CurStepsB
 360 0128 00000000 		.word	CurStepsE
 361              		.cfi_endproc
 362              	.LFE322:
 364              		.section	.text.split_gcode,"ax",%progbits
 365              		.align	1
 366              		.global	split_gcode
 367              		.syntax unified
 368              		.thumb
 369              		.thumb_func
 371              	split_gcode:
 372              	.LFB323:
  72:Core/Src/Parser.c **** 
  73:Core/Src/Parser.c **** void split_gcode(uint8_t buf[])
  74:Core/Src/Parser.c **** {
 373              		.loc 1 74 1
 374              		.cfi_startproc
 375              		@ args = 0, pretend = 0, frame = 16
 376              		@ frame_needed = 1, uses_anonymous_args = 0
 377 0000 80B5     		push	{r7, lr}
 378              		.cfi_def_cfa_offset 8
 379              		.cfi_offset 7, -8
 380              		.cfi_offset 14, -4
 381 0002 84B0     		sub	sp, sp, #16
 382              		.cfi_def_cfa_offset 24
 383 0004 00AF     		add	r7, sp, #0
 384              		.cfi_def_cfa_register 7
 385 0006 7860     		str	r0, [r7, #4]
  75:Core/Src/Parser.c ****     char *buf2;
  76:Core/Src/Parser.c ****     HAL_Delay(1);
 386              		.loc 1 76 5
 387 0008 0120     		movs	r0, #1
 388 000a FFF7FEFF 		bl	HAL_Delay
  77:Core/Src/Parser.c ****     buf2 = strtok(buf, " ");
 389              		.loc 1 77 12
 390 000e 5449     		ldr	r1, .L33
ARM GAS  C:\Users\Morroway\AppData\Local\Temp\cclqN1N9.s 			page 9


 391 0010 7868     		ldr	r0, [r7, #4]
 392 0012 FFF7FEFF 		bl	strtok
 393 0016 F860     		str	r0, [r7, #12]
  78:Core/Src/Parser.c ****     while (buf2 != NULL)
 394              		.loc 1 78 11
 395 0018 98E0     		b	.L20
 396              	.L31:
  79:Core/Src/Parser.c ****     {
  80:Core/Src/Parser.c ****         switch (buf2[0])
 397              		.loc 1 80 21
 398 001a FB68     		ldr	r3, [r7, #12]
 399 001c 1B78     		ldrb	r3, [r3]	@ zero_extendqisi2
 400              		.loc 1 80 9
 401 001e 453B     		subs	r3, r3, #69
 402 0020 152B     		cmp	r3, #21
 403 0022 00F28B80 		bhi	.L21
 404 0026 01A2     		adr	r2, .L23
 405 0028 52F823F0 		ldr	pc, [r2, r3, lsl #2]
 406              		.p2align 2
 407              	.L23:
 408 002c 23010000 		.word	.L30+1
 409 0030 C1000000 		.word	.L29+1
 410 0034 3D010000 		.word	.L21+1
 411 0038 3D010000 		.word	.L21+1
 412 003c 3D010000 		.word	.L21+1
 413 0040 3D010000 		.word	.L21+1
 414 0044 3D010000 		.word	.L21+1
 415 0048 3D010000 		.word	.L21+1
 416 004c 3D010000 		.word	.L21+1
 417 0050 3D010000 		.word	.L21+1
 418 0054 3D010000 		.word	.L21+1
 419 0058 3D010000 		.word	.L21+1
 420 005c 3D010000 		.word	.L21+1
 421 0060 85000000 		.word	.L28+1
 422 0064 AD000000 		.word	.L27+1
 423 0068 99000000 		.word	.L26+1
 424 006c 3D010000 		.word	.L21+1
 425 0070 3D010000 		.word	.L21+1
 426 0074 3D010000 		.word	.L21+1
 427 0078 D5000000 		.word	.L25+1
 428 007c EF000000 		.word	.L24+1
 429 0080 09010000 		.word	.L22+1
 430              		.p2align 1
 431              	.L28:
  81:Core/Src/Parser.c ****         {
  82:Core/Src/Parser.c ****         case 'R':
  83:Core/Src/Parser.c ****             R = atoi(buf2 + 1);
 432              		.loc 1 83 27
 433 0084 FB68     		ldr	r3, [r7, #12]
 434 0086 0133     		adds	r3, r3, #1
 435              		.loc 1 83 17
 436 0088 1846     		mov	r0, r3
 437 008a FFF7FEFF 		bl	atoi
 438 008e 0346     		mov	r3, r0
 439              		.loc 1 83 15
 440 0090 9AB2     		uxth	r2, r3
 441 0092 344B     		ldr	r3, .L33+4
ARM GAS  C:\Users\Morroway\AppData\Local\Temp\cclqN1N9.s 			page 10


 442 0094 1A80     		strh	r2, [r3]	@ movhi
  84:Core/Src/Parser.c ****             break;
 443              		.loc 1 84 13
 444 0096 51E0     		b	.L21
 445              	.L26:
  85:Core/Src/Parser.c ****         case 'T':
  86:Core/Src/Parser.c ****             T = atoi(buf2 + 1);
 446              		.loc 1 86 27
 447 0098 FB68     		ldr	r3, [r7, #12]
 448 009a 0133     		adds	r3, r3, #1
 449              		.loc 1 86 17
 450 009c 1846     		mov	r0, r3
 451 009e FFF7FEFF 		bl	atoi
 452 00a2 0346     		mov	r3, r0
 453              		.loc 1 86 15
 454 00a4 9AB2     		uxth	r2, r3
 455 00a6 304B     		ldr	r3, .L33+8
 456 00a8 1A80     		strh	r2, [r3]	@ movhi
  87:Core/Src/Parser.c ****             break;
 457              		.loc 1 87 13
 458 00aa 47E0     		b	.L21
 459              	.L27:
  88:Core/Src/Parser.c ****         case 'S':
  89:Core/Src/Parser.c ****             S = atoi(buf2 + 1);
 460              		.loc 1 89 27
 461 00ac FB68     		ldr	r3, [r7, #12]
 462 00ae 0133     		adds	r3, r3, #1
 463              		.loc 1 89 17
 464 00b0 1846     		mov	r0, r3
 465 00b2 FFF7FEFF 		bl	atoi
 466 00b6 0346     		mov	r3, r0
 467              		.loc 1 89 15
 468 00b8 9AB2     		uxth	r2, r3
 469 00ba 2C4B     		ldr	r3, .L33+12
 470 00bc 1A80     		strh	r2, [r3]	@ movhi
  90:Core/Src/Parser.c ****             break;
 471              		.loc 1 90 13
 472 00be 3DE0     		b	.L21
 473              	.L29:
  91:Core/Src/Parser.c ****         case 'F':
  92:Core/Src/Parser.c ****             F = atoi(buf2 + 1);
 474              		.loc 1 92 27
 475 00c0 FB68     		ldr	r3, [r7, #12]
 476 00c2 0133     		adds	r3, r3, #1
 477              		.loc 1 92 17
 478 00c4 1846     		mov	r0, r3
 479 00c6 FFF7FEFF 		bl	atoi
 480 00ca 0346     		mov	r3, r0
 481              		.loc 1 92 15
 482 00cc 9AB2     		uxth	r2, r3
 483 00ce 284B     		ldr	r3, .L33+16
 484 00d0 1A80     		strh	r2, [r3]	@ movhi
  93:Core/Src/Parser.c ****             break;
 485              		.loc 1 93 13
 486 00d2 33E0     		b	.L21
 487              	.L25:
  94:Core/Src/Parser.c ****         case 'X':
ARM GAS  C:\Users\Morroway\AppData\Local\Temp\cclqN1N9.s 			page 11


  95:Core/Src/Parser.c ****             X = atof(buf2 + 1);
 488              		.loc 1 95 27
 489 00d4 FB68     		ldr	r3, [r7, #12]
 490 00d6 0133     		adds	r3, r3, #1
 491              		.loc 1 95 17
 492 00d8 1846     		mov	r0, r3
 493 00da FFF7FEFF 		bl	atof
 494 00de B0EE407A 		vmov.f32	s14, s0
 495 00e2 F0EE607A 		vmov.f32	s15, s1
 496              		.loc 1 95 15
 497 00e6 234B     		ldr	r3, .L33+20
 498 00e8 83ED007B 		vstr.64	d7, [r3]
  96:Core/Src/Parser.c ****             break;
 499              		.loc 1 96 13
 500 00ec 26E0     		b	.L21
 501              	.L24:
  97:Core/Src/Parser.c ****         case 'Y':
  98:Core/Src/Parser.c ****             Y = atof(buf2 + 1);
 502              		.loc 1 98 27
 503 00ee FB68     		ldr	r3, [r7, #12]
 504 00f0 0133     		adds	r3, r3, #1
 505              		.loc 1 98 17
 506 00f2 1846     		mov	r0, r3
 507 00f4 FFF7FEFF 		bl	atof
 508 00f8 B0EE407A 		vmov.f32	s14, s0
 509 00fc F0EE607A 		vmov.f32	s15, s1
 510              		.loc 1 98 15
 511 0100 1D4B     		ldr	r3, .L33+24
 512 0102 83ED007B 		vstr.64	d7, [r3]
  99:Core/Src/Parser.c ****             break;
 513              		.loc 1 99 13
 514 0106 19E0     		b	.L21
 515              	.L22:
 100:Core/Src/Parser.c ****         case 'Z':
 101:Core/Src/Parser.c ****             Z = atof(buf2 + 1);
 516              		.loc 1 101 27
 517 0108 FB68     		ldr	r3, [r7, #12]
 518 010a 0133     		adds	r3, r3, #1
 519              		.loc 1 101 17
 520 010c 1846     		mov	r0, r3
 521 010e FFF7FEFF 		bl	atof
 522 0112 B0EE407A 		vmov.f32	s14, s0
 523 0116 F0EE607A 		vmov.f32	s15, s1
 524              		.loc 1 101 15
 525 011a 184B     		ldr	r3, .L33+28
 526 011c 83ED007B 		vstr.64	d7, [r3]
 102:Core/Src/Parser.c ****             break;
 527              		.loc 1 102 13
 528 0120 0CE0     		b	.L21
 529              	.L30:
 103:Core/Src/Parser.c ****         case 'E':
 104:Core/Src/Parser.c ****             E = atof(buf2 + 1);
 530              		.loc 1 104 27
 531 0122 FB68     		ldr	r3, [r7, #12]
 532 0124 0133     		adds	r3, r3, #1
 533              		.loc 1 104 17
 534 0126 1846     		mov	r0, r3
ARM GAS  C:\Users\Morroway\AppData\Local\Temp\cclqN1N9.s 			page 12


 535 0128 FFF7FEFF 		bl	atof
 536 012c B0EE407A 		vmov.f32	s14, s0
 537 0130 F0EE607A 		vmov.f32	s15, s1
 538              		.loc 1 104 15
 539 0134 124B     		ldr	r3, .L33+32
 540 0136 83ED007B 		vstr.64	d7, [r3]
 105:Core/Src/Parser.c ****             break;
 541              		.loc 1 105 13
 542 013a 00BF     		nop
 543              	.L21:
 106:Core/Src/Parser.c ****         }
 107:Core/Src/Parser.c ****         HAL_Delay(1);
 544              		.loc 1 107 9
 545 013c 0120     		movs	r0, #1
 546 013e FFF7FEFF 		bl	HAL_Delay
 108:Core/Src/Parser.c ****         buf2 = strtok(NULL, " ");
 547              		.loc 1 108 16
 548 0142 0749     		ldr	r1, .L33
 549 0144 0020     		movs	r0, #0
 550 0146 FFF7FEFF 		bl	strtok
 551 014a F860     		str	r0, [r7, #12]
 552              	.L20:
  78:Core/Src/Parser.c ****     {
 553              		.loc 1 78 17
 554 014c FB68     		ldr	r3, [r7, #12]
 555 014e 002B     		cmp	r3, #0
 556 0150 7FF463AF 		bne	.L31
 109:Core/Src/Parser.c ****     }
 110:Core/Src/Parser.c **** }...
 557              		.loc 1 110 1
 558 0154 00BF     		nop
 559 0156 00BF     		nop
 560 0158 1037     		adds	r7, r7, #16
 561              		.cfi_def_cfa_offset 8
 562 015a BD46     		mov	sp, r7
 563              		.cfi_def_cfa_register 13
 564              		@ sp needed
 565 015c 80BD     		pop	{r7, pc}
 566              	.L34:
 567 015e 00BF     		.align	2
 568              	.L33:
 569 0160 00000000 		.word	.LC0
 570 0164 00000000 		.word	R
 571 0168 00000000 		.word	T
 572 016c 00000000 		.word	S
 573 0170 00000000 		.word	F
 574 0174 00000000 		.word	X
 575 0178 00000000 		.word	Y
 576 017c 00000000 		.word	Z
 577 0180 00000000 		.word	E
 578              		.cfi_endproc
 579              	.LFE323:
 581              		.text
 582              	.Letext0:
 583              		.file 2 "c:\\users\\morroway\\appdata\\roaming\\code\\user\\globalstorage\\bmd.stm32-for-vscode\\@
 584              		.file 3 "c:\\users\\morroway\\appdata\\roaming\\code\\user\\globalstorage\\bmd.stm32-for-vscode\\@
 585              		.file 4 "c:\\users\\morroway\\appdata\\roaming\\code\\user\\globalstorage\\bmd.stm32-for-vscode\\@
ARM GAS  C:\Users\Morroway\AppData\Local\Temp\cclqN1N9.s 			page 13


 586              		.file 5 "Core/Inc/Functions.h"
 587              		.file 6 "Core/Inc/main.h"
 588              		.file 7 "Core/Inc/Parser.h"
 589              		.file 8 "c:\\users\\morroway\\appdata\\roaming\\code\\user\\globalstorage\\bmd.stm32-for-vscode\\@
 590              		.file 9 "c:\\users\\morroway\\appdata\\roaming\\code\\user\\globalstorage\\bmd.stm32-for-vscode\\@
 591              		.file 10 "Core/Inc/GCodes.h"
 592              		.file 11 "Drivers/STM32L4xx_HAL_Driver/Inc/stm32l4xx_hal.h"
ARM GAS  C:\Users\Morroway\AppData\Local\Temp\cclqN1N9.s 			page 14

