ARM GAS  C:\Users\Morroway\AppData\Local\Temp\ccYpVhPz.s 			page 1


   1              		.cpu cortex-m4
   2              		.arch armv7e-m
   3              		.fpu fpv4-sp-d16
   4              		.eabi_attribute 27, 1
   5              		.eabi_attribute 28, 1
   6              		.eabi_attribute 20, 1
   7              		.eabi_attribute 21, 1
   8              		.eabi_attribute 23, 3
   9              		.eabi_attribute 24, 1
  10              		.eabi_attribute 25, 1
  11              		.eabi_attribute 26, 1
  12              		.eabi_attribute 30, 1
  13              		.eabi_attribute 34, 1
  14              		.eabi_attribute 18, 4
  15              		.file	"Parser.c"
  16              		.text
  17              	.Ltext0:
  18              		.cfi_sections	.debug_frame
  19              		.section	.text.get_argument,"ax",%progbits
  20              		.align	1
  21              		.global	get_argument
  22              		.syntax unified
  23              		.thumb
  24              		.thumb_func
  26              	get_argument:
  27              	.LVL0:
  28              	.LFB322:
  29              		.file 1 "Core/Src/Parser.c"
   1:Core/Src/Parser.c **** #include "Parser.h"
   2:Core/Src/Parser.c **** #include "GCodes.h"
   3:Core/Src/Parser.c **** 
   4:Core/Src/Parser.c **** void get_command(char buf[])
   5:Core/Src/Parser.c **** {
   6:Core/Src/Parser.c ****     command = strtok(buf, delim);
   7:Core/Src/Parser.c ****     //split_gcode(command);
   8:Core/Src/Parser.c ****     switch(command[0])
   9:Core/Src/Parser.c ****     {
  10:Core/Src/Parser.c ****         case 'M':
  11:Core/Src/Parser.c ****         HAL_Delay(1);
  12:Core/Src/Parser.c ****         switch(get_argument(command))
  13:Core/Src/Parser.c ****         {
  14:Core/Src/Parser.c ****             case 105:
  15:Core/Src/Parser.c ****                 M105(R, T);
  16:Core/Src/Parser.c ****                 break;
  17:Core/Src/Parser.c ****         }
  18:Core/Src/Parser.c ****             break;
  19:Core/Src/Parser.c ****     }
  20:Core/Src/Parser.c ****     memset(&command[0], 0, sizeof(command));
  21:Core/Src/Parser.c **** }
  22:Core/Src/Parser.c **** 
  23:Core/Src/Parser.c **** uint16_t get_argument(char arg[])
  24:Core/Src/Parser.c **** {
  30              		.loc 1 24 1 view -0
  31              		.cfi_startproc
  32              		@ args = 0, pretend = 0, frame = 0
  33              		@ frame_needed = 0, uses_anonymous_args = 0
  34              		.loc 1 24 1 is_stmt 0 view .LVU1
ARM GAS  C:\Users\Morroway\AppData\Local\Temp\ccYpVhPz.s 			page 2


  35 0000 08B5     		push	{r3, lr}
  36              		.cfi_def_cfa_offset 8
  37              		.cfi_offset 3, -8
  38              		.cfi_offset 14, -4
  25:Core/Src/Parser.c ****     return atoi(arg+1);
  39              		.loc 1 25 5 is_stmt 1 view .LVU2
  40              		.loc 1 25 12 is_stmt 0 view .LVU3
  41 0002 0130     		adds	r0, r0, #1
  42              	.LVL1:
  43              		.loc 1 25 12 view .LVU4
  44 0004 FFF7FEFF 		bl	atoi
  45              	.LVL2:
  26:Core/Src/Parser.c **** }
  46              		.loc 1 26 1 view .LVU5
  47 0008 80B2     		uxth	r0, r0
  48 000a 08BD     		pop	{r3, pc}
  49              		.cfi_endproc
  50              	.LFE322:
  52              		.section	.rodata.get_command.str1.4,"aMS",%progbits,1
  53              		.align	2
  54              	.LC0:
  55 0000 2000     		.ascii	" \000"
  56              		.section	.text.get_command,"ax",%progbits
  57              		.align	1
  58              		.global	get_command
  59              		.syntax unified
  60              		.thumb
  61              		.thumb_func
  63              	get_command:
  64              	.LVL3:
  65              	.LFB321:
   5:Core/Src/Parser.c ****     command = strtok(buf, delim);
  66              		.loc 1 5 1 is_stmt 1 view -0
  67              		.cfi_startproc
  68              		@ args = 0, pretend = 0, frame = 0
  69              		@ frame_needed = 0, uses_anonymous_args = 0
   5:Core/Src/Parser.c ****     command = strtok(buf, delim);
  70              		.loc 1 5 1 is_stmt 0 view .LVU7
  71 0000 08B5     		push	{r3, lr}
  72              		.cfi_def_cfa_offset 8
  73              		.cfi_offset 3, -8
  74              		.cfi_offset 14, -4
   6:Core/Src/Parser.c ****     //split_gcode(command);
  75              		.loc 1 6 5 is_stmt 1 view .LVU8
   6:Core/Src/Parser.c ****     //split_gcode(command);
  76              		.loc 1 6 15 is_stmt 0 view .LVU9
  77 0002 0E49     		ldr	r1, .L7
  78 0004 FFF7FEFF 		bl	strtok
  79              	.LVL4:
   6:Core/Src/Parser.c ****     //split_gcode(command);
  80              		.loc 1 6 13 view .LVU10
  81 0008 0D4B     		ldr	r3, .L7+4
  82 000a 1860     		str	r0, [r3]
   8:Core/Src/Parser.c ****     {
  83              		.loc 1 8 5 is_stmt 1 view .LVU11
   8:Core/Src/Parser.c ****     {
  84              		.loc 1 8 19 is_stmt 0 view .LVU12
ARM GAS  C:\Users\Morroway\AppData\Local\Temp\ccYpVhPz.s 			page 3


  85 000c 0378     		ldrb	r3, [r0]	@ zero_extendqisi2
   8:Core/Src/Parser.c ****     {
  86              		.loc 1 8 5 view .LVU13
  87 000e 4D2B     		cmp	r3, #77
  88 0010 04D0     		beq	.L6
  89              	.L4:
  20:Core/Src/Parser.c **** }
  90              		.loc 1 20 5 is_stmt 1 view .LVU14
  91 0012 0B4B     		ldr	r3, .L7+4
  92 0014 1B68     		ldr	r3, [r3]
  93 0016 0022     		movs	r2, #0
  94 0018 1A60     		str	r2, [r3]	@ unaligned
  21:Core/Src/Parser.c **** 
  95              		.loc 1 21 1 is_stmt 0 view .LVU15
  96 001a 08BD     		pop	{r3, pc}
  97              	.L6:
  11:Core/Src/Parser.c ****         switch(get_argument(command))
  98              		.loc 1 11 9 is_stmt 1 view .LVU16
  99 001c 0120     		movs	r0, #1
 100 001e FFF7FEFF 		bl	HAL_Delay
 101              	.LVL5:
  12:Core/Src/Parser.c ****         {
 102              		.loc 1 12 9 view .LVU17
  12:Core/Src/Parser.c ****         {
 103              		.loc 1 12 16 is_stmt 0 view .LVU18
 104 0022 074B     		ldr	r3, .L7+4
 105 0024 1868     		ldr	r0, [r3]
 106 0026 FFF7FEFF 		bl	get_argument
 107              	.LVL6:
 108 002a 6928     		cmp	r0, #105
 109 002c F1D1     		bne	.L4
  15:Core/Src/Parser.c ****                 break;
 110              		.loc 1 15 17 is_stmt 1 view .LVU19
 111 002e 054B     		ldr	r3, .L7+8
 112 0030 1988     		ldrh	r1, [r3]
 113 0032 054B     		ldr	r3, .L7+12
 114 0034 1888     		ldrh	r0, [r3]
 115 0036 FFF7FEFF 		bl	M105
 116              	.LVL7:
  16:Core/Src/Parser.c ****         }
 117              		.loc 1 16 17 view .LVU20
 118 003a EAE7     		b	.L4
 119              	.L8:
 120              		.align	2
 121              	.L7:
 122 003c 00000000 		.word	.LC0
 123 0040 00000000 		.word	.LANCHOR0
 124 0044 00000000 		.word	.LANCHOR1
 125 0048 00000000 		.word	.LANCHOR2
 126              		.cfi_endproc
 127              	.LFE321:
 129              		.section	.text.split_gcode,"ax",%progbits
 130              		.align	1
 131              		.global	split_gcode
 132              		.syntax unified
 133              		.thumb
 134              		.thumb_func
ARM GAS  C:\Users\Morroway\AppData\Local\Temp\ccYpVhPz.s 			page 4


 136              	split_gcode:
 137              	.LVL8:
 138              	.LFB323:
  27:Core/Src/Parser.c **** 
  28:Core/Src/Parser.c **** char *split_gcode(char buf[])
  29:Core/Src/Parser.c **** {
 139              		.loc 1 29 1 view -0
 140              		.cfi_startproc
 141              		@ args = 0, pretend = 0, frame = 0
 142              		@ frame_needed = 0, uses_anonymous_args = 0
 143              		.loc 1 29 1 is_stmt 0 view .LVU22
 144 0000 10B5     		push	{r4, lr}
 145              		.cfi_def_cfa_offset 8
 146              		.cfi_offset 4, -8
 147              		.cfi_offset 14, -4
  30:Core/Src/Parser.c ****     buf = strtok(NULL, delim);
 148              		.loc 1 30 5 is_stmt 1 view .LVU23
 149              		.loc 1 30 11 is_stmt 0 view .LVU24
 150 0002 0D49     		ldr	r1, .L15
 151 0004 0020     		movs	r0, #0
 152              	.LVL9:
 153              		.loc 1 30 11 view .LVU25
 154 0006 FFF7FEFF 		bl	strtok
 155              	.LVL10:
 156 000a 0446     		mov	r4, r0
 157              	.LVL11:
  31:Core/Src/Parser.c ****     switch(buf[0])
 158              		.loc 1 31 5 is_stmt 1 view .LVU26
 159              		.loc 1 31 15 is_stmt 0 view .LVU27
 160 000c 0378     		ldrb	r3, [r0]	@ zero_extendqisi2
 161              		.loc 1 31 5 view .LVU28
 162 000e 522B     		cmp	r3, #82
 163 0010 08D0     		beq	.L10
 164 0012 542B     		cmp	r3, #84
 165 0014 0BD0     		beq	.L11
 166              	.LVL12:
 167              	.L12:
  32:Core/Src/Parser.c ****     {
  33:Core/Src/Parser.c ****         case 'R':
  34:Core/Src/Parser.c ****             R = get_argument(buf);
  35:Core/Src/Parser.c ****             break;
  36:Core/Src/Parser.c ****         case 'T':
  37:Core/Src/Parser.c ****             T = get_argument(buf);
  38:Core/Src/Parser.c ****             break;
  39:Core/Src/Parser.c ****     }
  40:Core/Src/Parser.c ****     if(buf == NULL)
 168              		.loc 1 40 5 is_stmt 1 view .LVU29
 169              		.loc 1 40 7 is_stmt 0 view .LVU30
 170 0016 1CB1     		cbz	r4, .L9
  41:Core/Src/Parser.c ****         return NULL;
  42:Core/Src/Parser.c ****     else return split_gcode(buf);
 171              		.loc 1 42 10 is_stmt 1 view .LVU31
 172              		.loc 1 42 17 is_stmt 0 view .LVU32
 173 0018 2046     		mov	r0, r4
 174 001a FFF7FEFF 		bl	split_gcode
 175              	.LVL13:
 176 001e 0446     		mov	r4, r0
ARM GAS  C:\Users\Morroway\AppData\Local\Temp\ccYpVhPz.s 			page 5


 177              	.LVL14:
 178              	.L9:
  43:Core/Src/Parser.c **** }...
 179              		.loc 1 43 1 view .LVU33
 180 0020 2046     		mov	r0, r4
 181 0022 10BD     		pop	{r4, pc}
 182              	.LVL15:
 183              	.L10:
  34:Core/Src/Parser.c ****             R = get_argument(buf);
 184              		.loc 1 34 13 is_stmt 1 view .LVU34
  34:Core/Src/Parser.c ****             R = get_argument(buf);
 185              		.loc 1 34 17 is_stmt 0 view .LVU35
 186 0024 FFF7FEFF 		bl	get_argument
 187              	.LVL16:
  34:Core/Src/Parser.c ****             R = get_argument(buf);
 188              		.loc 1 34 15 view .LVU36
 189 0028 044B     		ldr	r3, .L15+4
 190 002a 1880     		strh	r0, [r3]	@ movhi
  35:Core/Src/Parser.c ****             break;
 191              		.loc 1 35 13 is_stmt 1 view .LVU37
 192 002c F3E7     		b	.L12
 193              	.LVL17:
 194              	.L11:
  37:Core/Src/Parser.c ****             T = get_argument(buf);
 195              		.loc 1 37 13 view .LVU38
  37:Core/Src/Parser.c ****             T = get_argument(buf);
 196              		.loc 1 37 17 is_stmt 0 view .LVU39
 197 002e FFF7FEFF 		bl	get_argument
 198              	.LVL18:
  37:Core/Src/Parser.c ****             T = get_argument(buf);
 199              		.loc 1 37 15 view .LVU40
 200 0032 034B     		ldr	r3, .L15+8
 201 0034 1880     		strh	r0, [r3]	@ movhi
  38:Core/Src/Parser.c ****             break;
 202              		.loc 1 38 13 is_stmt 1 view .LVU41
 203 0036 EEE7     		b	.L12
 204              	.L16:
 205              		.align	2
 206              	.L15:
 207 0038 00000000 		.word	.LC0
 208 003c 00000000 		.word	.LANCHOR2
 209 0040 00000000 		.word	.LANCHOR1
 210              		.cfi_endproc
 211              	.LFE323:
 213              		.section	.bss.R,"aw",%nobits
 214              		.align	1
 215              		.set	.LANCHOR2,. + 0
 218              	R:
 219 0000 0000     		.space	2
 220              		.section	.bss.T,"aw",%nobits
 221              		.align	1
 222              		.set	.LANCHOR1,. + 0
 225              	T:
 226 0000 0000     		.space	2
 227              		.section	.bss.command,"aw",%nobits
 228              		.align	2
 229              		.set	.LANCHOR0,. + 0
ARM GAS  C:\Users\Morroway\AppData\Local\Temp\ccYpVhPz.s 			page 6


 232              	command:
 233 0000 00000000 		.space	4
 234              		.text
 235              	.Letext0:
 236              		.file 2 "c:\\users\\morroway\\appdata\\roaming\\code\\user\\globalstorage\\bmd.stm32-for-vscode\\@
 237              		.file 3 "c:\\users\\morroway\\appdata\\roaming\\code\\user\\globalstorage\\bmd.stm32-for-vscode\\@
 238              		.file 4 "c:\\users\\morroway\\appdata\\roaming\\code\\user\\globalstorage\\bmd.stm32-for-vscode\\@
 239              		.file 5 "Core/Inc/main.h"
 240              		.file 6 "Core/Inc/Parser.h"
 241              		.file 7 "c:\\users\\morroway\\appdata\\roaming\\code\\user\\globalstorage\\bmd.stm32-for-vscode\\@
 242              		.file 8 "c:\\users\\morroway\\appdata\\roaming\\code\\user\\globalstorage\\bmd.stm32-for-vscode\\@
 243              		.file 9 "Core/Inc/GCodes.h"
 244              		.file 10 "Drivers/STM32L4xx_HAL_Driver/Inc/stm32l4xx_hal.h"
ARM GAS  C:\Users\Morroway\AppData\Local\Temp\ccYpVhPz.s 			page 7


DEFINED SYMBOLS
                            *ABS*:0000000000000000 Parser.c
C:\Users\Morroway\AppData\Local\Temp\ccYpVhPz.s:20     .text.get_argument:0000000000000000 $t
C:\Users\Morroway\AppData\Local\Temp\ccYpVhPz.s:26     .text.get_argument:0000000000000000 get_argument
C:\Users\Morroway\AppData\Local\Temp\ccYpVhPz.s:53     .rodata.get_command.str1.4:0000000000000000 $d
C:\Users\Morroway\AppData\Local\Temp\ccYpVhPz.s:57     .text.get_command:0000000000000000 $t
C:\Users\Morroway\AppData\Local\Temp\ccYpVhPz.s:63     .text.get_command:0000000000000000 get_command
C:\Users\Morroway\AppData\Local\Temp\ccYpVhPz.s:122    .text.get_command:000000000000003c $d
C:\Users\Morroway\AppData\Local\Temp\ccYpVhPz.s:130    .text.split_gcode:0000000000000000 $t
C:\Users\Morroway\AppData\Local\Temp\ccYpVhPz.s:136    .text.split_gcode:0000000000000000 split_gcode
C:\Users\Morroway\AppData\Local\Temp\ccYpVhPz.s:207    .text.split_gcode:0000000000000038 $d
C:\Users\Morroway\AppData\Local\Temp\ccYpVhPz.s:214    .bss.R:0000000000000000 $d
C:\Users\Morroway\AppData\Local\Temp\ccYpVhPz.s:218    .bss.R:0000000000000000 R
C:\Users\Morroway\AppData\Local\Temp\ccYpVhPz.s:221    .bss.T:0000000000000000 $d
C:\Users\Morroway\AppData\Local\Temp\ccYpVhPz.s:225    .bss.T:0000000000000000 T
C:\Users\Morroway\AppData\Local\Temp\ccYpVhPz.s:228    .bss.command:0000000000000000 $d
C:\Users\Morroway\AppData\Local\Temp\ccYpVhPz.s:232    .bss.command:0000000000000000 command

UNDEFINED SYMBOLS
atoi
strtok
HAL_Delay
M105
