ARM GAS  C:\Users\Morroway\AppData\Local\Temp\ccCQJjHM.s 			page 1


   1              		.cpu cortex-m4
   2              		.arch armv7e-m
   3              		.fpu fpv4-sp-d16
   4              		.eabi_attribute 27, 1
   5              		.eabi_attribute 28, 1
   6              		.eabi_attribute 20, 1
   7              		.eabi_attribute 21, 1
   8              		.eabi_attribute 23, 3
   9              		.eabi_attribute 24, 1
  10              		.eabi_attribute 25, 1
  11              		.eabi_attribute 26, 1
  12              		.eabi_attribute 30, 6
  13              		.eabi_attribute 34, 1
  14              		.eabi_attribute 18, 4
  15              		.file	"stm32l4xx_hal_spi.c"
  16              		.text
  17              	.Ltext0:
  18              		.cfi_sections	.debug_frame
  19              		.section	.text.HAL_SPI_Init,"ax",%progbits
  20              		.align	1
  21              		.global	HAL_SPI_Init
  22              		.syntax unified
  23              		.thumb
  24              		.thumb_func
  26              	HAL_SPI_Init:
  27              	.LFB321:
  28              		.file 1 "Drivers/STM32L4xx_HAL_Driver/Src/stm32l4xx_hal_spi.c"
   1:Drivers/STM32L4xx_HAL_Driver/Src/stm32l4xx_hal_spi.c **** /**
   2:Drivers/STM32L4xx_HAL_Driver/Src/stm32l4xx_hal_spi.c ****   ******************************************************************************
   3:Drivers/STM32L4xx_HAL_Driver/Src/stm32l4xx_hal_spi.c ****   * @file    stm32l4xx_hal_spi.c
   4:Drivers/STM32L4xx_HAL_Driver/Src/stm32l4xx_hal_spi.c ****   * @author  MCD Application Team
   5:Drivers/STM32L4xx_HAL_Driver/Src/stm32l4xx_hal_spi.c ****   * @brief   SPI HAL module driver.
   6:Drivers/STM32L4xx_HAL_Driver/Src/stm32l4xx_hal_spi.c ****   *          This file provides firmware functions to manage the following
   7:Drivers/STM32L4xx_HAL_Driver/Src/stm32l4xx_hal_spi.c ****   *          functionalities of the Serial Peripheral Interface (SPI) peripheral:
   8:Drivers/STM32L4xx_HAL_Driver/Src/stm32l4xx_hal_spi.c ****   *           + Initialization and de-initialization functions
   9:Drivers/STM32L4xx_HAL_Driver/Src/stm32l4xx_hal_spi.c ****   *           + IO operation functions
  10:Drivers/STM32L4xx_HAL_Driver/Src/stm32l4xx_hal_spi.c ****   *           + Peripheral Control functions
  11:Drivers/STM32L4xx_HAL_Driver/Src/stm32l4xx_hal_spi.c ****   *           + Peripheral State functions
  12:Drivers/STM32L4xx_HAL_Driver/Src/stm32l4xx_hal_spi.c ****   ******************************************************************************
  13:Drivers/STM32L4xx_HAL_Driver/Src/stm32l4xx_hal_spi.c ****   * @attention
  14:Drivers/STM32L4xx_HAL_Driver/Src/stm32l4xx_hal_spi.c ****   *
  15:Drivers/STM32L4xx_HAL_Driver/Src/stm32l4xx_hal_spi.c ****   * Copyright (c) 2017 STMicroelectronics.
  16:Drivers/STM32L4xx_HAL_Driver/Src/stm32l4xx_hal_spi.c ****   * All rights reserved.
  17:Drivers/STM32L4xx_HAL_Driver/Src/stm32l4xx_hal_spi.c ****   *
  18:Drivers/STM32L4xx_HAL_Driver/Src/stm32l4xx_hal_spi.c ****   * This software is licensed under terms that can be found in the LICENSE file
  19:Drivers/STM32L4xx_HAL_Driver/Src/stm32l4xx_hal_spi.c ****   * in the root directory of this software component.
  20:Drivers/STM32L4xx_HAL_Driver/Src/stm32l4xx_hal_spi.c ****   * If no LICENSE file comes with this software, it is provided AS-IS.
  21:Drivers/STM32L4xx_HAL_Driver/Src/stm32l4xx_hal_spi.c ****   *
  22:Drivers/STM32L4xx_HAL_Driver/Src/stm32l4xx_hal_spi.c ****   ******************************************************************************
  23:Drivers/STM32L4xx_HAL_Driver/Src/stm32l4xx_hal_spi.c ****   @verbatim
  24:Drivers/STM32L4xx_HAL_Driver/Src/stm32l4xx_hal_spi.c ****   ==============================================================================
  25:Drivers/STM32L4xx_HAL_Driver/Src/stm32l4xx_hal_spi.c ****                         ##### How to use this driver #####
  26:Drivers/STM32L4xx_HAL_Driver/Src/stm32l4xx_hal_spi.c ****   ==============================================================================
  27:Drivers/STM32L4xx_HAL_Driver/Src/stm32l4xx_hal_spi.c ****     [..]
  28:Drivers/STM32L4xx_HAL_Driver/Src/stm32l4xx_hal_spi.c ****       The SPI HAL driver can be used as follows:
  29:Drivers/STM32L4xx_HAL_Driver/Src/stm32l4xx_hal_spi.c **** 
  30:Drivers/STM32L4xx_HAL_Driver/Src/stm32l4xx_hal_spi.c ****       (#) Declare a SPI_HandleTypeDef handle structure, for example:
ARM GAS  C:\Users\Morroway\AppData\Local\Temp\ccCQJjHM.s 			page 2


  31:Drivers/STM32L4xx_HAL_Driver/Src/stm32l4xx_hal_spi.c ****           SPI_HandleTypeDef  hspi;
  32:Drivers/STM32L4xx_HAL_Driver/Src/stm32l4xx_hal_spi.c **** 
  33:Drivers/STM32L4xx_HAL_Driver/Src/stm32l4xx_hal_spi.c ****       (#)Initialize the SPI low level resources by implementing the HAL_SPI_MspInit() API:
  34:Drivers/STM32L4xx_HAL_Driver/Src/stm32l4xx_hal_spi.c ****           (##) Enable the SPIx interface clock
  35:Drivers/STM32L4xx_HAL_Driver/Src/stm32l4xx_hal_spi.c ****           (##) SPI pins configuration
  36:Drivers/STM32L4xx_HAL_Driver/Src/stm32l4xx_hal_spi.c ****               (+++) Enable the clock for the SPI GPIOs
  37:Drivers/STM32L4xx_HAL_Driver/Src/stm32l4xx_hal_spi.c ****               (+++) Configure these SPI pins as alternate function push-pull
  38:Drivers/STM32L4xx_HAL_Driver/Src/stm32l4xx_hal_spi.c ****           (##) NVIC configuration if you need to use interrupt process
  39:Drivers/STM32L4xx_HAL_Driver/Src/stm32l4xx_hal_spi.c ****               (+++) Configure the SPIx interrupt priority
  40:Drivers/STM32L4xx_HAL_Driver/Src/stm32l4xx_hal_spi.c ****               (+++) Enable the NVIC SPI IRQ handle
  41:Drivers/STM32L4xx_HAL_Driver/Src/stm32l4xx_hal_spi.c ****           (##) DMA Configuration if you need to use DMA process
  42:Drivers/STM32L4xx_HAL_Driver/Src/stm32l4xx_hal_spi.c ****               (+++) Declare a DMA_HandleTypeDef handle structure for the transmit or receive Stream
  43:Drivers/STM32L4xx_HAL_Driver/Src/stm32l4xx_hal_spi.c ****               (+++) Enable the DMAx clock
  44:Drivers/STM32L4xx_HAL_Driver/Src/stm32l4xx_hal_spi.c ****               (+++) Configure the DMA handle parameters
  45:Drivers/STM32L4xx_HAL_Driver/Src/stm32l4xx_hal_spi.c ****               (+++) Configure the DMA Tx or Rx Stream/Channel
  46:Drivers/STM32L4xx_HAL_Driver/Src/stm32l4xx_hal_spi.c ****               (+++) Associate the initialized hdma_tx(or _rx)  handle to the hspi DMA Tx or Rx hand
  47:Drivers/STM32L4xx_HAL_Driver/Src/stm32l4xx_hal_spi.c ****               (+++) Configure the priority and enable the NVIC for the transfer complete interrupt 
  48:Drivers/STM32L4xx_HAL_Driver/Src/stm32l4xx_hal_spi.c **** 
  49:Drivers/STM32L4xx_HAL_Driver/Src/stm32l4xx_hal_spi.c ****       (#) Program the Mode, BidirectionalMode , Data size, Baudrate Prescaler, NSS
  50:Drivers/STM32L4xx_HAL_Driver/Src/stm32l4xx_hal_spi.c ****           management, Clock polarity and phase, FirstBit and CRC configuration in the hspi Init str
  51:Drivers/STM32L4xx_HAL_Driver/Src/stm32l4xx_hal_spi.c **** 
  52:Drivers/STM32L4xx_HAL_Driver/Src/stm32l4xx_hal_spi.c ****       (#) Initialize the SPI registers by calling the HAL_SPI_Init() API:
  53:Drivers/STM32L4xx_HAL_Driver/Src/stm32l4xx_hal_spi.c ****           (++) This API configures also the low level Hardware GPIO, CLOCK, CORTEX...etc)
  54:Drivers/STM32L4xx_HAL_Driver/Src/stm32l4xx_hal_spi.c ****               by calling the customized HAL_SPI_MspInit() API.
  55:Drivers/STM32L4xx_HAL_Driver/Src/stm32l4xx_hal_spi.c ****      [..]
  56:Drivers/STM32L4xx_HAL_Driver/Src/stm32l4xx_hal_spi.c ****        Circular mode restriction:
  57:Drivers/STM32L4xx_HAL_Driver/Src/stm32l4xx_hal_spi.c ****       (#) The DMA circular mode cannot be used when the SPI is configured in these modes:
  58:Drivers/STM32L4xx_HAL_Driver/Src/stm32l4xx_hal_spi.c ****           (##) Master 2Lines RxOnly
  59:Drivers/STM32L4xx_HAL_Driver/Src/stm32l4xx_hal_spi.c ****           (##) Master 1Line Rx
  60:Drivers/STM32L4xx_HAL_Driver/Src/stm32l4xx_hal_spi.c ****       (#) The CRC feature is not managed when the DMA circular mode is enabled
  61:Drivers/STM32L4xx_HAL_Driver/Src/stm32l4xx_hal_spi.c ****       (#) When the SPI DMA Pause/Stop features are used, we must use the following APIs
  62:Drivers/STM32L4xx_HAL_Driver/Src/stm32l4xx_hal_spi.c ****           the HAL_SPI_DMAPause()/ HAL_SPI_DMAStop() only under the SPI callbacks
  63:Drivers/STM32L4xx_HAL_Driver/Src/stm32l4xx_hal_spi.c ****      [..]
  64:Drivers/STM32L4xx_HAL_Driver/Src/stm32l4xx_hal_spi.c ****        Master Receive mode restriction:
  65:Drivers/STM32L4xx_HAL_Driver/Src/stm32l4xx_hal_spi.c ****       (#) In Master unidirectional receive-only mode (MSTR =1, BIDIMODE=0, RXONLY=1) or
  66:Drivers/STM32L4xx_HAL_Driver/Src/stm32l4xx_hal_spi.c ****           bidirectional receive mode (MSTR=1, BIDIMODE=1, BIDIOE=0), to ensure that the SPI
  67:Drivers/STM32L4xx_HAL_Driver/Src/stm32l4xx_hal_spi.c ****           does not initiate a new transfer the following procedure has to be respected:
  68:Drivers/STM32L4xx_HAL_Driver/Src/stm32l4xx_hal_spi.c ****           (##) HAL_SPI_DeInit()
  69:Drivers/STM32L4xx_HAL_Driver/Src/stm32l4xx_hal_spi.c ****           (##) HAL_SPI_Init()
  70:Drivers/STM32L4xx_HAL_Driver/Src/stm32l4xx_hal_spi.c ****      [..]
  71:Drivers/STM32L4xx_HAL_Driver/Src/stm32l4xx_hal_spi.c ****        Callback registration:
  72:Drivers/STM32L4xx_HAL_Driver/Src/stm32l4xx_hal_spi.c **** 
  73:Drivers/STM32L4xx_HAL_Driver/Src/stm32l4xx_hal_spi.c ****       (#) The compilation flag USE_HAL_SPI_REGISTER_CALLBACKS when set to 1U
  74:Drivers/STM32L4xx_HAL_Driver/Src/stm32l4xx_hal_spi.c ****           allows the user to configure dynamically the driver callbacks.
  75:Drivers/STM32L4xx_HAL_Driver/Src/stm32l4xx_hal_spi.c ****           Use Functions HAL_SPI_RegisterCallback() to register an interrupt callback.
  76:Drivers/STM32L4xx_HAL_Driver/Src/stm32l4xx_hal_spi.c **** 
  77:Drivers/STM32L4xx_HAL_Driver/Src/stm32l4xx_hal_spi.c ****           Function HAL_SPI_RegisterCallback() allows to register following callbacks:
  78:Drivers/STM32L4xx_HAL_Driver/Src/stm32l4xx_hal_spi.c ****             (++) TxCpltCallback        : SPI Tx Completed callback
  79:Drivers/STM32L4xx_HAL_Driver/Src/stm32l4xx_hal_spi.c ****             (++) RxCpltCallback        : SPI Rx Completed callback
  80:Drivers/STM32L4xx_HAL_Driver/Src/stm32l4xx_hal_spi.c ****             (++) TxRxCpltCallback      : SPI TxRx Completed callback
  81:Drivers/STM32L4xx_HAL_Driver/Src/stm32l4xx_hal_spi.c ****             (++) TxHalfCpltCallback    : SPI Tx Half Completed callback
  82:Drivers/STM32L4xx_HAL_Driver/Src/stm32l4xx_hal_spi.c ****             (++) RxHalfCpltCallback    : SPI Rx Half Completed callback
  83:Drivers/STM32L4xx_HAL_Driver/Src/stm32l4xx_hal_spi.c ****             (++) TxRxHalfCpltCallback  : SPI TxRx Half Completed callback
  84:Drivers/STM32L4xx_HAL_Driver/Src/stm32l4xx_hal_spi.c ****             (++) ErrorCallback         : SPI Error callback
  85:Drivers/STM32L4xx_HAL_Driver/Src/stm32l4xx_hal_spi.c ****             (++) AbortCpltCallback     : SPI Abort callback
  86:Drivers/STM32L4xx_HAL_Driver/Src/stm32l4xx_hal_spi.c ****             (++) MspInitCallback       : SPI Msp Init callback
  87:Drivers/STM32L4xx_HAL_Driver/Src/stm32l4xx_hal_spi.c ****             (++) MspDeInitCallback     : SPI Msp DeInit callback
ARM GAS  C:\Users\Morroway\AppData\Local\Temp\ccCQJjHM.s 			page 3


  88:Drivers/STM32L4xx_HAL_Driver/Src/stm32l4xx_hal_spi.c ****           This function takes as parameters the HAL peripheral handle, the Callback ID
  89:Drivers/STM32L4xx_HAL_Driver/Src/stm32l4xx_hal_spi.c ****           and a pointer to the user callback function.
  90:Drivers/STM32L4xx_HAL_Driver/Src/stm32l4xx_hal_spi.c **** 
  91:Drivers/STM32L4xx_HAL_Driver/Src/stm32l4xx_hal_spi.c **** 
  92:Drivers/STM32L4xx_HAL_Driver/Src/stm32l4xx_hal_spi.c ****       (#) Use function HAL_SPI_UnRegisterCallback to reset a callback to the default
  93:Drivers/STM32L4xx_HAL_Driver/Src/stm32l4xx_hal_spi.c ****           weak function.
  94:Drivers/STM32L4xx_HAL_Driver/Src/stm32l4xx_hal_spi.c ****           HAL_SPI_UnRegisterCallback takes as parameters the HAL peripheral handle,
  95:Drivers/STM32L4xx_HAL_Driver/Src/stm32l4xx_hal_spi.c ****           and the Callback ID.
  96:Drivers/STM32L4xx_HAL_Driver/Src/stm32l4xx_hal_spi.c ****           This function allows to reset following callbacks:
  97:Drivers/STM32L4xx_HAL_Driver/Src/stm32l4xx_hal_spi.c ****             (++) TxCpltCallback        : SPI Tx Completed callback
  98:Drivers/STM32L4xx_HAL_Driver/Src/stm32l4xx_hal_spi.c ****             (++) RxCpltCallback        : SPI Rx Completed callback
  99:Drivers/STM32L4xx_HAL_Driver/Src/stm32l4xx_hal_spi.c ****             (++) TxRxCpltCallback      : SPI TxRx Completed callback
 100:Drivers/STM32L4xx_HAL_Driver/Src/stm32l4xx_hal_spi.c ****             (++) TxHalfCpltCallback    : SPI Tx Half Completed callback
 101:Drivers/STM32L4xx_HAL_Driver/Src/stm32l4xx_hal_spi.c ****             (++) RxHalfCpltCallback    : SPI Rx Half Completed callback
 102:Drivers/STM32L4xx_HAL_Driver/Src/stm32l4xx_hal_spi.c ****             (++) TxRxHalfCpltCallback  : SPI TxRx Half Completed callback
 103:Drivers/STM32L4xx_HAL_Driver/Src/stm32l4xx_hal_spi.c ****             (++) ErrorCallback         : SPI Error callback
 104:Drivers/STM32L4xx_HAL_Driver/Src/stm32l4xx_hal_spi.c ****             (++) AbortCpltCallback     : SPI Abort callback
 105:Drivers/STM32L4xx_HAL_Driver/Src/stm32l4xx_hal_spi.c ****             (++) MspInitCallback       : SPI Msp Init callback
 106:Drivers/STM32L4xx_HAL_Driver/Src/stm32l4xx_hal_spi.c ****             (++) MspDeInitCallback     : SPI Msp DeInit callback
 107:Drivers/STM32L4xx_HAL_Driver/Src/stm32l4xx_hal_spi.c **** 
 108:Drivers/STM32L4xx_HAL_Driver/Src/stm32l4xx_hal_spi.c ****        [..]
 109:Drivers/STM32L4xx_HAL_Driver/Src/stm32l4xx_hal_spi.c ****        By default, after the HAL_SPI_Init() and when the state is HAL_SPI_STATE_RESET
 110:Drivers/STM32L4xx_HAL_Driver/Src/stm32l4xx_hal_spi.c ****        all callbacks are set to the corresponding weak functions:
 111:Drivers/STM32L4xx_HAL_Driver/Src/stm32l4xx_hal_spi.c ****        examples HAL_SPI_MasterTxCpltCallback(), HAL_SPI_MasterRxCpltCallback().
 112:Drivers/STM32L4xx_HAL_Driver/Src/stm32l4xx_hal_spi.c ****        Exception done for MspInit and MspDeInit functions that are
 113:Drivers/STM32L4xx_HAL_Driver/Src/stm32l4xx_hal_spi.c ****        reset to the legacy weak functions in the HAL_SPI_Init()/ HAL_SPI_DeInit() only when
 114:Drivers/STM32L4xx_HAL_Driver/Src/stm32l4xx_hal_spi.c ****        these callbacks are null (not registered beforehand).
 115:Drivers/STM32L4xx_HAL_Driver/Src/stm32l4xx_hal_spi.c ****        If MspInit or MspDeInit are not null, the HAL_SPI_Init()/ HAL_SPI_DeInit()
 116:Drivers/STM32L4xx_HAL_Driver/Src/stm32l4xx_hal_spi.c ****        keep and use the user MspInit/MspDeInit callbacks (registered beforehand) whatever the state
 117:Drivers/STM32L4xx_HAL_Driver/Src/stm32l4xx_hal_spi.c **** 
 118:Drivers/STM32L4xx_HAL_Driver/Src/stm32l4xx_hal_spi.c ****        [..]
 119:Drivers/STM32L4xx_HAL_Driver/Src/stm32l4xx_hal_spi.c ****        Callbacks can be registered/unregistered in HAL_SPI_STATE_READY state only.
 120:Drivers/STM32L4xx_HAL_Driver/Src/stm32l4xx_hal_spi.c ****        Exception done MspInit/MspDeInit functions that can be registered/unregistered
 121:Drivers/STM32L4xx_HAL_Driver/Src/stm32l4xx_hal_spi.c ****        in HAL_SPI_STATE_READY or HAL_SPI_STATE_RESET state,
 122:Drivers/STM32L4xx_HAL_Driver/Src/stm32l4xx_hal_spi.c ****        thus registered (user) MspInit/DeInit callbacks can be used during the Init/DeInit.
 123:Drivers/STM32L4xx_HAL_Driver/Src/stm32l4xx_hal_spi.c ****        Then, the user first registers the MspInit/MspDeInit user callbacks
 124:Drivers/STM32L4xx_HAL_Driver/Src/stm32l4xx_hal_spi.c ****        using HAL_SPI_RegisterCallback() before calling HAL_SPI_DeInit()
 125:Drivers/STM32L4xx_HAL_Driver/Src/stm32l4xx_hal_spi.c ****        or HAL_SPI_Init() function.
 126:Drivers/STM32L4xx_HAL_Driver/Src/stm32l4xx_hal_spi.c **** 
 127:Drivers/STM32L4xx_HAL_Driver/Src/stm32l4xx_hal_spi.c ****        [..]
 128:Drivers/STM32L4xx_HAL_Driver/Src/stm32l4xx_hal_spi.c ****        When the compilation define USE_HAL_PPP_REGISTER_CALLBACKS is set to 0 or
 129:Drivers/STM32L4xx_HAL_Driver/Src/stm32l4xx_hal_spi.c ****        not defined, the callback registering feature is not available
 130:Drivers/STM32L4xx_HAL_Driver/Src/stm32l4xx_hal_spi.c ****        and weak (surcharged) callbacks are used.
 131:Drivers/STM32L4xx_HAL_Driver/Src/stm32l4xx_hal_spi.c **** 
 132:Drivers/STM32L4xx_HAL_Driver/Src/stm32l4xx_hal_spi.c ****      [..]
 133:Drivers/STM32L4xx_HAL_Driver/Src/stm32l4xx_hal_spi.c ****        Using the HAL it is not possible to reach all supported SPI frequency with the different SPI
 134:Drivers/STM32L4xx_HAL_Driver/Src/stm32l4xx_hal_spi.c ****        the following table resume the max SPI frequency reached with data size 8bits/16bits,
 135:Drivers/STM32L4xx_HAL_Driver/Src/stm32l4xx_hal_spi.c ****          according to frequency of the APBx Peripheral Clock (fPCLK) used by the SPI instance.
 136:Drivers/STM32L4xx_HAL_Driver/Src/stm32l4xx_hal_spi.c **** 
 137:Drivers/STM32L4xx_HAL_Driver/Src/stm32l4xx_hal_spi.c ****   @endverbatim
 138:Drivers/STM32L4xx_HAL_Driver/Src/stm32l4xx_hal_spi.c **** 
 139:Drivers/STM32L4xx_HAL_Driver/Src/stm32l4xx_hal_spi.c ****   Additional table :
 140:Drivers/STM32L4xx_HAL_Driver/Src/stm32l4xx_hal_spi.c **** 
 141:Drivers/STM32L4xx_HAL_Driver/Src/stm32l4xx_hal_spi.c ****        DataSize = SPI_DATASIZE_8BIT:
 142:Drivers/STM32L4xx_HAL_Driver/Src/stm32l4xx_hal_spi.c ****        +-------------------------------------------------------------------------------------------
 143:Drivers/STM32L4xx_HAL_Driver/Src/stm32l4xx_hal_spi.c ****        |         |                | 2Lines Fullduplex   |     2Lines RxOnly    |         1Line     
 144:Drivers/STM32L4xx_HAL_Driver/Src/stm32l4xx_hal_spi.c ****        | Process | Transfer mode  |---------------------|----------------------|-------------------
ARM GAS  C:\Users\Morroway\AppData\Local\Temp\ccCQJjHM.s 			page 4


 145:Drivers/STM32L4xx_HAL_Driver/Src/stm32l4xx_hal_spi.c ****        |         |                |  Master  |  Slave   |  Master   |  Slave   |  Master   |  Slave
 146:Drivers/STM32L4xx_HAL_Driver/Src/stm32l4xx_hal_spi.c ****        |===========================================================================================
 147:Drivers/STM32L4xx_HAL_Driver/Src/stm32l4xx_hal_spi.c ****        |    T    |     Polling    | Fpclk/4  | Fpclk/8  |    NA     |    NA    |    NA     |   NA  
 148:Drivers/STM32L4xx_HAL_Driver/Src/stm32l4xx_hal_spi.c ****        |    X    |----------------|----------|----------|-----------|----------|-----------|-------
 149:Drivers/STM32L4xx_HAL_Driver/Src/stm32l4xx_hal_spi.c ****        |    /    |     Interrupt  | Fpclk/4  | Fpclk/16 |    NA     |    NA    |    NA     |   NA  
 150:Drivers/STM32L4xx_HAL_Driver/Src/stm32l4xx_hal_spi.c ****        |    R    |----------------|----------|----------|-----------|----------|-----------|-------
 151:Drivers/STM32L4xx_HAL_Driver/Src/stm32l4xx_hal_spi.c ****        |    X    |       DMA      | Fpclk/2  | Fpclk/2  |    NA     |    NA    |    NA     |   NA  
 152:Drivers/STM32L4xx_HAL_Driver/Src/stm32l4xx_hal_spi.c ****        |=========|================|==========|==========|===========|==========|===========|=======
 153:Drivers/STM32L4xx_HAL_Driver/Src/stm32l4xx_hal_spi.c ****        |         |     Polling    | Fpclk/4  | Fpclk/8  | Fpclk/16  | Fpclk/8  | Fpclk/8   | Fpclk/
 154:Drivers/STM32L4xx_HAL_Driver/Src/stm32l4xx_hal_spi.c ****        |         |----------------|----------|----------|-----------|----------|-----------|-------
 155:Drivers/STM32L4xx_HAL_Driver/Src/stm32l4xx_hal_spi.c ****        |    R    |     Interrupt  | Fpclk/8  | Fpclk/16 | Fpclk/8   | Fpclk/8  | Fpclk/8   | Fpclk/
 156:Drivers/STM32L4xx_HAL_Driver/Src/stm32l4xx_hal_spi.c ****        |    X    |----------------|----------|----------|-----------|----------|-----------|-------
 157:Drivers/STM32L4xx_HAL_Driver/Src/stm32l4xx_hal_spi.c ****        |         |       DMA      | Fpclk/4  | Fpclk/2  | Fpclk/2   | Fpclk/16 | Fpclk/2   | Fpclk/
 158:Drivers/STM32L4xx_HAL_Driver/Src/stm32l4xx_hal_spi.c ****        |=========|================|==========|==========|===========|==========|===========|=======
 159:Drivers/STM32L4xx_HAL_Driver/Src/stm32l4xx_hal_spi.c ****        |         |     Polling    | Fpclk/8  | Fpclk/2  |     NA    |    NA    | Fpclk/8   | Fpclk/
 160:Drivers/STM32L4xx_HAL_Driver/Src/stm32l4xx_hal_spi.c ****        |         |----------------|----------|----------|-----------|----------|-----------|-------
 161:Drivers/STM32L4xx_HAL_Driver/Src/stm32l4xx_hal_spi.c ****        |    T    |     Interrupt  | Fpclk/2  | Fpclk/4  |     NA    |    NA    | Fpclk/16  | Fpclk/
 162:Drivers/STM32L4xx_HAL_Driver/Src/stm32l4xx_hal_spi.c ****        |    X    |----------------|----------|----------|-----------|----------|-----------|-------
 163:Drivers/STM32L4xx_HAL_Driver/Src/stm32l4xx_hal_spi.c ****        |         |       DMA      | Fpclk/2  | Fpclk/2  |     NA    |    NA    | Fpclk/8   | Fpclk/
 164:Drivers/STM32L4xx_HAL_Driver/Src/stm32l4xx_hal_spi.c ****        +-------------------------------------------------------------------------------------------
 165:Drivers/STM32L4xx_HAL_Driver/Src/stm32l4xx_hal_spi.c **** 
 166:Drivers/STM32L4xx_HAL_Driver/Src/stm32l4xx_hal_spi.c ****        DataSize = SPI_DATASIZE_16BIT:
 167:Drivers/STM32L4xx_HAL_Driver/Src/stm32l4xx_hal_spi.c ****        +-------------------------------------------------------------------------------------------
 168:Drivers/STM32L4xx_HAL_Driver/Src/stm32l4xx_hal_spi.c ****        |         |                | 2Lines Fullduplex   |     2Lines RxOnly    |         1Line     
 169:Drivers/STM32L4xx_HAL_Driver/Src/stm32l4xx_hal_spi.c ****        | Process | Transfer mode  |---------------------|----------------------|-------------------
 170:Drivers/STM32L4xx_HAL_Driver/Src/stm32l4xx_hal_spi.c ****        |         |                |  Master  |  Slave   |  Master   |  Slave   |  Master   |  Slave
 171:Drivers/STM32L4xx_HAL_Driver/Src/stm32l4xx_hal_spi.c ****        |===========================================================================================
 172:Drivers/STM32L4xx_HAL_Driver/Src/stm32l4xx_hal_spi.c ****        |    T    |     Polling    | Fpclk/4  | Fpclk/8  |    NA     |    NA    |    NA     |   NA  
 173:Drivers/STM32L4xx_HAL_Driver/Src/stm32l4xx_hal_spi.c ****        |    X    |----------------|----------|----------|-----------|----------|-----------|-------
 174:Drivers/STM32L4xx_HAL_Driver/Src/stm32l4xx_hal_spi.c ****        |    /    |     Interrupt  | Fpclk/4  | Fpclk/16 |    NA     |    NA    |    NA     |   NA  
 175:Drivers/STM32L4xx_HAL_Driver/Src/stm32l4xx_hal_spi.c ****        |    R    |----------------|----------|----------|-----------|----------|-----------|-------
 176:Drivers/STM32L4xx_HAL_Driver/Src/stm32l4xx_hal_spi.c ****        |    X    |       DMA      | Fpclk/2  | Fpclk/2  |    NA     |    NA    |    NA     |   NA  
 177:Drivers/STM32L4xx_HAL_Driver/Src/stm32l4xx_hal_spi.c ****        |=========|================|==========|==========|===========|==========|===========|=======
 178:Drivers/STM32L4xx_HAL_Driver/Src/stm32l4xx_hal_spi.c ****        |         |     Polling    | Fpclk/4  | Fpclk/8  | Fpclk/16  | Fpclk/8  | Fpclk/8   | Fpclk/
 179:Drivers/STM32L4xx_HAL_Driver/Src/stm32l4xx_hal_spi.c ****        |         |----------------|----------|----------|-----------|----------|-----------|-------
 180:Drivers/STM32L4xx_HAL_Driver/Src/stm32l4xx_hal_spi.c ****        |    R    |     Interrupt  | Fpclk/8  | Fpclk/16 | Fpclk/8   | Fpclk/8  | Fpclk/8   | Fpclk/
 181:Drivers/STM32L4xx_HAL_Driver/Src/stm32l4xx_hal_spi.c ****        |    X    |----------------|----------|----------|-----------|----------|-----------|-------
 182:Drivers/STM32L4xx_HAL_Driver/Src/stm32l4xx_hal_spi.c ****        |         |       DMA      | Fpclk/4  | Fpclk/2  | Fpclk/2   | Fpclk/16 | Fpclk/2   | Fpclk/
 183:Drivers/STM32L4xx_HAL_Driver/Src/stm32l4xx_hal_spi.c ****        |=========|================|==========|==========|===========|==========|===========|=======
 184:Drivers/STM32L4xx_HAL_Driver/Src/stm32l4xx_hal_spi.c ****        |         |     Polling    | Fpclk/8  | Fpclk/2  |     NA    |    NA    | Fpclk/8   | Fpclk/
 185:Drivers/STM32L4xx_HAL_Driver/Src/stm32l4xx_hal_spi.c ****        |         |----------------|----------|----------|-----------|----------|-----------|-------
 186:Drivers/STM32L4xx_HAL_Driver/Src/stm32l4xx_hal_spi.c ****        |    T    |     Interrupt  | Fpclk/2  | Fpclk/4  |     NA    |    NA    | Fpclk/16  | Fpclk/
 187:Drivers/STM32L4xx_HAL_Driver/Src/stm32l4xx_hal_spi.c ****        |    X    |----------------|----------|----------|-----------|----------|-----------|-------
 188:Drivers/STM32L4xx_HAL_Driver/Src/stm32l4xx_hal_spi.c ****        |         |       DMA      | Fpclk/2  | Fpclk/2  |     NA    |    NA    | Fpclk/8   | Fpclk/
 189:Drivers/STM32L4xx_HAL_Driver/Src/stm32l4xx_hal_spi.c ****        +-------------------------------------------------------------------------------------------
 190:Drivers/STM32L4xx_HAL_Driver/Src/stm32l4xx_hal_spi.c ****        @note The max SPI frequency depend on SPI data size (4bits, 5bits,..., 8bits,...15bits, 16bi
 191:Drivers/STM32L4xx_HAL_Driver/Src/stm32l4xx_hal_spi.c ****              SPI mode(2 Lines fullduplex, 2 lines RxOnly, 1 line TX/RX) and Process mode (Polling, 
 192:Drivers/STM32L4xx_HAL_Driver/Src/stm32l4xx_hal_spi.c ****        @note
 193:Drivers/STM32L4xx_HAL_Driver/Src/stm32l4xx_hal_spi.c ****             (#) TX/RX processes are HAL_SPI_TransmitReceive(), HAL_SPI_TransmitReceive_IT() and HAL
 194:Drivers/STM32L4xx_HAL_Driver/Src/stm32l4xx_hal_spi.c ****             (#) RX processes are HAL_SPI_Receive(), HAL_SPI_Receive_IT() and HAL_SPI_Receive_DMA()
 195:Drivers/STM32L4xx_HAL_Driver/Src/stm32l4xx_hal_spi.c ****             (#) TX processes are HAL_SPI_Transmit(), HAL_SPI_Transmit_IT() and HAL_SPI_Transmit_DMA
 196:Drivers/STM32L4xx_HAL_Driver/Src/stm32l4xx_hal_spi.c **** 
 197:Drivers/STM32L4xx_HAL_Driver/Src/stm32l4xx_hal_spi.c ****   */
 198:Drivers/STM32L4xx_HAL_Driver/Src/stm32l4xx_hal_spi.c **** 
 199:Drivers/STM32L4xx_HAL_Driver/Src/stm32l4xx_hal_spi.c **** /* Includes ------------------------------------------------------------------*/
 200:Drivers/STM32L4xx_HAL_Driver/Src/stm32l4xx_hal_spi.c **** #include "stm32l4xx_hal.h"
 201:Drivers/STM32L4xx_HAL_Driver/Src/stm32l4xx_hal_spi.c **** 
ARM GAS  C:\Users\Morroway\AppData\Local\Temp\ccCQJjHM.s 			page 5


 202:Drivers/STM32L4xx_HAL_Driver/Src/stm32l4xx_hal_spi.c **** /** @addtogroup STM32L4xx_HAL_Driver
 203:Drivers/STM32L4xx_HAL_Driver/Src/stm32l4xx_hal_spi.c ****   * @{
 204:Drivers/STM32L4xx_HAL_Driver/Src/stm32l4xx_hal_spi.c ****   */
 205:Drivers/STM32L4xx_HAL_Driver/Src/stm32l4xx_hal_spi.c **** 
 206:Drivers/STM32L4xx_HAL_Driver/Src/stm32l4xx_hal_spi.c **** /** @defgroup SPI SPI
 207:Drivers/STM32L4xx_HAL_Driver/Src/stm32l4xx_hal_spi.c ****   * @brief SPI HAL module driver
 208:Drivers/STM32L4xx_HAL_Driver/Src/stm32l4xx_hal_spi.c ****   * @{
 209:Drivers/STM32L4xx_HAL_Driver/Src/stm32l4xx_hal_spi.c ****   */
 210:Drivers/STM32L4xx_HAL_Driver/Src/stm32l4xx_hal_spi.c **** #ifdef HAL_SPI_MODULE_ENABLED
 211:Drivers/STM32L4xx_HAL_Driver/Src/stm32l4xx_hal_spi.c **** 
 212:Drivers/STM32L4xx_HAL_Driver/Src/stm32l4xx_hal_spi.c **** /* Private typedef -----------------------------------------------------------*/
 213:Drivers/STM32L4xx_HAL_Driver/Src/stm32l4xx_hal_spi.c **** /* Private defines -----------------------------------------------------------*/
 214:Drivers/STM32L4xx_HAL_Driver/Src/stm32l4xx_hal_spi.c **** /** @defgroup SPI_Private_Constants SPI Private Constants
 215:Drivers/STM32L4xx_HAL_Driver/Src/stm32l4xx_hal_spi.c ****   * @{
 216:Drivers/STM32L4xx_HAL_Driver/Src/stm32l4xx_hal_spi.c ****   */
 217:Drivers/STM32L4xx_HAL_Driver/Src/stm32l4xx_hal_spi.c **** #define SPI_DEFAULT_TIMEOUT 100U
 218:Drivers/STM32L4xx_HAL_Driver/Src/stm32l4xx_hal_spi.c **** /**
 219:Drivers/STM32L4xx_HAL_Driver/Src/stm32l4xx_hal_spi.c ****   * @}
 220:Drivers/STM32L4xx_HAL_Driver/Src/stm32l4xx_hal_spi.c ****   */
 221:Drivers/STM32L4xx_HAL_Driver/Src/stm32l4xx_hal_spi.c **** 
 222:Drivers/STM32L4xx_HAL_Driver/Src/stm32l4xx_hal_spi.c **** /* Private macros ------------------------------------------------------------*/
 223:Drivers/STM32L4xx_HAL_Driver/Src/stm32l4xx_hal_spi.c **** /* Private variables ---------------------------------------------------------*/
 224:Drivers/STM32L4xx_HAL_Driver/Src/stm32l4xx_hal_spi.c **** /* Private function prototypes -----------------------------------------------*/
 225:Drivers/STM32L4xx_HAL_Driver/Src/stm32l4xx_hal_spi.c **** /** @defgroup SPI_Private_Functions SPI Private Functions
 226:Drivers/STM32L4xx_HAL_Driver/Src/stm32l4xx_hal_spi.c ****   * @{
 227:Drivers/STM32L4xx_HAL_Driver/Src/stm32l4xx_hal_spi.c ****   */
 228:Drivers/STM32L4xx_HAL_Driver/Src/stm32l4xx_hal_spi.c **** static void SPI_DMATransmitCplt(DMA_HandleTypeDef *hdma);
 229:Drivers/STM32L4xx_HAL_Driver/Src/stm32l4xx_hal_spi.c **** static void SPI_DMAReceiveCplt(DMA_HandleTypeDef *hdma);
 230:Drivers/STM32L4xx_HAL_Driver/Src/stm32l4xx_hal_spi.c **** static void SPI_DMATransmitReceiveCplt(DMA_HandleTypeDef *hdma);
 231:Drivers/STM32L4xx_HAL_Driver/Src/stm32l4xx_hal_spi.c **** static void SPI_DMAHalfTransmitCplt(DMA_HandleTypeDef *hdma);
 232:Drivers/STM32L4xx_HAL_Driver/Src/stm32l4xx_hal_spi.c **** static void SPI_DMAHalfReceiveCplt(DMA_HandleTypeDef *hdma);
 233:Drivers/STM32L4xx_HAL_Driver/Src/stm32l4xx_hal_spi.c **** static void SPI_DMAHalfTransmitReceiveCplt(DMA_HandleTypeDef *hdma);
 234:Drivers/STM32L4xx_HAL_Driver/Src/stm32l4xx_hal_spi.c **** static void SPI_DMAError(DMA_HandleTypeDef *hdma);
 235:Drivers/STM32L4xx_HAL_Driver/Src/stm32l4xx_hal_spi.c **** static void SPI_DMAAbortOnError(DMA_HandleTypeDef *hdma);
 236:Drivers/STM32L4xx_HAL_Driver/Src/stm32l4xx_hal_spi.c **** static void SPI_DMATxAbortCallback(DMA_HandleTypeDef *hdma);
 237:Drivers/STM32L4xx_HAL_Driver/Src/stm32l4xx_hal_spi.c **** static void SPI_DMARxAbortCallback(DMA_HandleTypeDef *hdma);
 238:Drivers/STM32L4xx_HAL_Driver/Src/stm32l4xx_hal_spi.c **** static HAL_StatusTypeDef SPI_WaitFlagStateUntilTimeout(SPI_HandleTypeDef *hspi, uint32_t Flag, Flag
 239:Drivers/STM32L4xx_HAL_Driver/Src/stm32l4xx_hal_spi.c ****                                                        uint32_t Timeout, uint32_t Tickstart);
 240:Drivers/STM32L4xx_HAL_Driver/Src/stm32l4xx_hal_spi.c **** static HAL_StatusTypeDef SPI_WaitFifoStateUntilTimeout(SPI_HandleTypeDef *hspi, uint32_t Fifo, uint
 241:Drivers/STM32L4xx_HAL_Driver/Src/stm32l4xx_hal_spi.c ****                                                        uint32_t Timeout, uint32_t Tickstart);
 242:Drivers/STM32L4xx_HAL_Driver/Src/stm32l4xx_hal_spi.c **** static void SPI_TxISR_8BIT(struct __SPI_HandleTypeDef *hspi);
 243:Drivers/STM32L4xx_HAL_Driver/Src/stm32l4xx_hal_spi.c **** static void SPI_TxISR_16BIT(struct __SPI_HandleTypeDef *hspi);
 244:Drivers/STM32L4xx_HAL_Driver/Src/stm32l4xx_hal_spi.c **** static void SPI_RxISR_8BIT(struct __SPI_HandleTypeDef *hspi);
 245:Drivers/STM32L4xx_HAL_Driver/Src/stm32l4xx_hal_spi.c **** static void SPI_RxISR_16BIT(struct __SPI_HandleTypeDef *hspi);
 246:Drivers/STM32L4xx_HAL_Driver/Src/stm32l4xx_hal_spi.c **** static void SPI_2linesRxISR_8BIT(struct __SPI_HandleTypeDef *hspi);
 247:Drivers/STM32L4xx_HAL_Driver/Src/stm32l4xx_hal_spi.c **** static void SPI_2linesTxISR_8BIT(struct __SPI_HandleTypeDef *hspi);
 248:Drivers/STM32L4xx_HAL_Driver/Src/stm32l4xx_hal_spi.c **** static void SPI_2linesTxISR_16BIT(struct __SPI_HandleTypeDef *hspi);
 249:Drivers/STM32L4xx_HAL_Driver/Src/stm32l4xx_hal_spi.c **** static void SPI_2linesRxISR_16BIT(struct __SPI_HandleTypeDef *hspi);
 250:Drivers/STM32L4xx_HAL_Driver/Src/stm32l4xx_hal_spi.c **** #if (USE_SPI_CRC != 0U)
 251:Drivers/STM32L4xx_HAL_Driver/Src/stm32l4xx_hal_spi.c **** static void SPI_RxISR_8BITCRC(struct __SPI_HandleTypeDef *hspi);
 252:Drivers/STM32L4xx_HAL_Driver/Src/stm32l4xx_hal_spi.c **** static void SPI_RxISR_16BITCRC(struct __SPI_HandleTypeDef *hspi);
 253:Drivers/STM32L4xx_HAL_Driver/Src/stm32l4xx_hal_spi.c **** static void SPI_2linesRxISR_8BITCRC(struct __SPI_HandleTypeDef *hspi);
 254:Drivers/STM32L4xx_HAL_Driver/Src/stm32l4xx_hal_spi.c **** static void SPI_2linesRxISR_16BITCRC(struct __SPI_HandleTypeDef *hspi);
 255:Drivers/STM32L4xx_HAL_Driver/Src/stm32l4xx_hal_spi.c **** #endif /* USE_SPI_CRC */
 256:Drivers/STM32L4xx_HAL_Driver/Src/stm32l4xx_hal_spi.c **** static void SPI_AbortRx_ISR(SPI_HandleTypeDef *hspi);
 257:Drivers/STM32L4xx_HAL_Driver/Src/stm32l4xx_hal_spi.c **** static void SPI_AbortTx_ISR(SPI_HandleTypeDef *hspi);
 258:Drivers/STM32L4xx_HAL_Driver/Src/stm32l4xx_hal_spi.c **** static void SPI_CloseRxTx_ISR(SPI_HandleTypeDef *hspi);
ARM GAS  C:\Users\Morroway\AppData\Local\Temp\ccCQJjHM.s 			page 6


 259:Drivers/STM32L4xx_HAL_Driver/Src/stm32l4xx_hal_spi.c **** static void SPI_CloseRx_ISR(SPI_HandleTypeDef *hspi);
 260:Drivers/STM32L4xx_HAL_Driver/Src/stm32l4xx_hal_spi.c **** static void SPI_CloseTx_ISR(SPI_HandleTypeDef *hspi);
 261:Drivers/STM32L4xx_HAL_Driver/Src/stm32l4xx_hal_spi.c **** static HAL_StatusTypeDef SPI_EndRxTransaction(SPI_HandleTypeDef *hspi, uint32_t Timeout, uint32_t T
 262:Drivers/STM32L4xx_HAL_Driver/Src/stm32l4xx_hal_spi.c **** static HAL_StatusTypeDef SPI_EndRxTxTransaction(SPI_HandleTypeDef *hspi, uint32_t Timeout, uint32_t
 263:Drivers/STM32L4xx_HAL_Driver/Src/stm32l4xx_hal_spi.c **** /**
 264:Drivers/STM32L4xx_HAL_Driver/Src/stm32l4xx_hal_spi.c ****   * @}
 265:Drivers/STM32L4xx_HAL_Driver/Src/stm32l4xx_hal_spi.c ****   */
 266:Drivers/STM32L4xx_HAL_Driver/Src/stm32l4xx_hal_spi.c **** 
 267:Drivers/STM32L4xx_HAL_Driver/Src/stm32l4xx_hal_spi.c **** /* Exported functions --------------------------------------------------------*/
 268:Drivers/STM32L4xx_HAL_Driver/Src/stm32l4xx_hal_spi.c **** /** @defgroup SPI_Exported_Functions SPI Exported Functions
 269:Drivers/STM32L4xx_HAL_Driver/Src/stm32l4xx_hal_spi.c ****   * @{
 270:Drivers/STM32L4xx_HAL_Driver/Src/stm32l4xx_hal_spi.c ****   */
 271:Drivers/STM32L4xx_HAL_Driver/Src/stm32l4xx_hal_spi.c **** 
 272:Drivers/STM32L4xx_HAL_Driver/Src/stm32l4xx_hal_spi.c **** /** @defgroup SPI_Exported_Functions_Group1 Initialization and de-initialization functions
 273:Drivers/STM32L4xx_HAL_Driver/Src/stm32l4xx_hal_spi.c ****   *  @brief    Initialization and Configuration functions
 274:Drivers/STM32L4xx_HAL_Driver/Src/stm32l4xx_hal_spi.c ****   *
 275:Drivers/STM32L4xx_HAL_Driver/Src/stm32l4xx_hal_spi.c **** @verbatim
 276:Drivers/STM32L4xx_HAL_Driver/Src/stm32l4xx_hal_spi.c ****  ===============================================================================
 277:Drivers/STM32L4xx_HAL_Driver/Src/stm32l4xx_hal_spi.c ****               ##### Initialization and de-initialization functions #####
 278:Drivers/STM32L4xx_HAL_Driver/Src/stm32l4xx_hal_spi.c ****  ===============================================================================
 279:Drivers/STM32L4xx_HAL_Driver/Src/stm32l4xx_hal_spi.c ****     [..]  This subsection provides a set of functions allowing to initialize and
 280:Drivers/STM32L4xx_HAL_Driver/Src/stm32l4xx_hal_spi.c ****           de-initialize the SPIx peripheral:
 281:Drivers/STM32L4xx_HAL_Driver/Src/stm32l4xx_hal_spi.c **** 
 282:Drivers/STM32L4xx_HAL_Driver/Src/stm32l4xx_hal_spi.c ****       (+) User must implement HAL_SPI_MspInit() function in which he configures
 283:Drivers/STM32L4xx_HAL_Driver/Src/stm32l4xx_hal_spi.c ****           all related peripherals resources (CLOCK, GPIO, DMA, IT and NVIC ).
 284:Drivers/STM32L4xx_HAL_Driver/Src/stm32l4xx_hal_spi.c **** 
 285:Drivers/STM32L4xx_HAL_Driver/Src/stm32l4xx_hal_spi.c ****       (+) Call the function HAL_SPI_Init() to configure the selected device with
 286:Drivers/STM32L4xx_HAL_Driver/Src/stm32l4xx_hal_spi.c ****           the selected configuration:
 287:Drivers/STM32L4xx_HAL_Driver/Src/stm32l4xx_hal_spi.c ****         (++) Mode
 288:Drivers/STM32L4xx_HAL_Driver/Src/stm32l4xx_hal_spi.c ****         (++) Direction
 289:Drivers/STM32L4xx_HAL_Driver/Src/stm32l4xx_hal_spi.c ****         (++) Data Size
 290:Drivers/STM32L4xx_HAL_Driver/Src/stm32l4xx_hal_spi.c ****         (++) Clock Polarity and Phase
 291:Drivers/STM32L4xx_HAL_Driver/Src/stm32l4xx_hal_spi.c ****         (++) NSS Management
 292:Drivers/STM32L4xx_HAL_Driver/Src/stm32l4xx_hal_spi.c ****         (++) BaudRate Prescaler
 293:Drivers/STM32L4xx_HAL_Driver/Src/stm32l4xx_hal_spi.c ****         (++) FirstBit
 294:Drivers/STM32L4xx_HAL_Driver/Src/stm32l4xx_hal_spi.c ****         (++) TIMode
 295:Drivers/STM32L4xx_HAL_Driver/Src/stm32l4xx_hal_spi.c ****         (++) CRC Calculation
 296:Drivers/STM32L4xx_HAL_Driver/Src/stm32l4xx_hal_spi.c ****         (++) CRC Polynomial if CRC enabled
 297:Drivers/STM32L4xx_HAL_Driver/Src/stm32l4xx_hal_spi.c ****         (++) CRC Length, used only with Data8 and Data16
 298:Drivers/STM32L4xx_HAL_Driver/Src/stm32l4xx_hal_spi.c ****         (++) FIFO reception threshold
 299:Drivers/STM32L4xx_HAL_Driver/Src/stm32l4xx_hal_spi.c **** 
 300:Drivers/STM32L4xx_HAL_Driver/Src/stm32l4xx_hal_spi.c ****       (+) Call the function HAL_SPI_DeInit() to restore the default configuration
 301:Drivers/STM32L4xx_HAL_Driver/Src/stm32l4xx_hal_spi.c ****           of the selected SPIx peripheral.
 302:Drivers/STM32L4xx_HAL_Driver/Src/stm32l4xx_hal_spi.c **** 
 303:Drivers/STM32L4xx_HAL_Driver/Src/stm32l4xx_hal_spi.c **** @endverbatim
 304:Drivers/STM32L4xx_HAL_Driver/Src/stm32l4xx_hal_spi.c ****   * @{
 305:Drivers/STM32L4xx_HAL_Driver/Src/stm32l4xx_hal_spi.c ****   */
 306:Drivers/STM32L4xx_HAL_Driver/Src/stm32l4xx_hal_spi.c **** 
 307:Drivers/STM32L4xx_HAL_Driver/Src/stm32l4xx_hal_spi.c **** /**
 308:Drivers/STM32L4xx_HAL_Driver/Src/stm32l4xx_hal_spi.c ****   * @brief  Initialize the SPI according to the specified parameters
 309:Drivers/STM32L4xx_HAL_Driver/Src/stm32l4xx_hal_spi.c ****   *         in the SPI_InitTypeDef and initialize the associated handle.
 310:Drivers/STM32L4xx_HAL_Driver/Src/stm32l4xx_hal_spi.c ****   * @param  hspi pointer to a SPI_HandleTypeDef structure that contains
 311:Drivers/STM32L4xx_HAL_Driver/Src/stm32l4xx_hal_spi.c ****   *               the configuration information for SPI module.
 312:Drivers/STM32L4xx_HAL_Driver/Src/stm32l4xx_hal_spi.c ****   * @retval HAL status
 313:Drivers/STM32L4xx_HAL_Driver/Src/stm32l4xx_hal_spi.c ****   */
 314:Drivers/STM32L4xx_HAL_Driver/Src/stm32l4xx_hal_spi.c **** HAL_StatusTypeDef HAL_SPI_Init(SPI_HandleTypeDef *hspi)
 315:Drivers/STM32L4xx_HAL_Driver/Src/stm32l4xx_hal_spi.c **** {
ARM GAS  C:\Users\Morroway\AppData\Local\Temp\ccCQJjHM.s 			page 7


  29              		.loc 1 315 1
  30              		.cfi_startproc
  31              		@ args = 0, pretend = 0, frame = 16
  32              		@ frame_needed = 1, uses_anonymous_args = 0
  33 0000 80B5     		push	{r7, lr}
  34              		.cfi_def_cfa_offset 8
  35              		.cfi_offset 7, -8
  36              		.cfi_offset 14, -4
  37 0002 84B0     		sub	sp, sp, #16
  38              		.cfi_def_cfa_offset 24
  39 0004 00AF     		add	r7, sp, #0
  40              		.cfi_def_cfa_register 7
  41 0006 7860     		str	r0, [r7, #4]
 316:Drivers/STM32L4xx_HAL_Driver/Src/stm32l4xx_hal_spi.c ****   uint32_t frxth;
 317:Drivers/STM32L4xx_HAL_Driver/Src/stm32l4xx_hal_spi.c **** 
 318:Drivers/STM32L4xx_HAL_Driver/Src/stm32l4xx_hal_spi.c ****   /* Check the SPI handle allocation */
 319:Drivers/STM32L4xx_HAL_Driver/Src/stm32l4xx_hal_spi.c ****   if (hspi == NULL)
  42              		.loc 1 319 6
  43 0008 7B68     		ldr	r3, [r7, #4]
  44 000a 002B     		cmp	r3, #0
  45 000c 01D1     		bne	.L2
 320:Drivers/STM32L4xx_HAL_Driver/Src/stm32l4xx_hal_spi.c ****   {
 321:Drivers/STM32L4xx_HAL_Driver/Src/stm32l4xx_hal_spi.c ****     return HAL_ERROR;
  46              		.loc 1 321 12
  47 000e 0123     		movs	r3, #1
  48 0010 95E0     		b	.L3
  49              	.L2:
 322:Drivers/STM32L4xx_HAL_Driver/Src/stm32l4xx_hal_spi.c ****   }
 323:Drivers/STM32L4xx_HAL_Driver/Src/stm32l4xx_hal_spi.c **** 
 324:Drivers/STM32L4xx_HAL_Driver/Src/stm32l4xx_hal_spi.c ****   /* Check the parameters */
 325:Drivers/STM32L4xx_HAL_Driver/Src/stm32l4xx_hal_spi.c ****   assert_param(IS_SPI_ALL_INSTANCE(hspi->Instance));
 326:Drivers/STM32L4xx_HAL_Driver/Src/stm32l4xx_hal_spi.c ****   assert_param(IS_SPI_MODE(hspi->Init.Mode));
 327:Drivers/STM32L4xx_HAL_Driver/Src/stm32l4xx_hal_spi.c ****   assert_param(IS_SPI_DIRECTION(hspi->Init.Direction));
 328:Drivers/STM32L4xx_HAL_Driver/Src/stm32l4xx_hal_spi.c ****   assert_param(IS_SPI_DATASIZE(hspi->Init.DataSize));
 329:Drivers/STM32L4xx_HAL_Driver/Src/stm32l4xx_hal_spi.c ****   assert_param(IS_SPI_NSS(hspi->Init.NSS));
 330:Drivers/STM32L4xx_HAL_Driver/Src/stm32l4xx_hal_spi.c ****   assert_param(IS_SPI_NSSP(hspi->Init.NSSPMode));
 331:Drivers/STM32L4xx_HAL_Driver/Src/stm32l4xx_hal_spi.c ****   assert_param(IS_SPI_BAUDRATE_PRESCALER(hspi->Init.BaudRatePrescaler));
 332:Drivers/STM32L4xx_HAL_Driver/Src/stm32l4xx_hal_spi.c ****   assert_param(IS_SPI_FIRST_BIT(hspi->Init.FirstBit));
 333:Drivers/STM32L4xx_HAL_Driver/Src/stm32l4xx_hal_spi.c ****   assert_param(IS_SPI_TIMODE(hspi->Init.TIMode));
 334:Drivers/STM32L4xx_HAL_Driver/Src/stm32l4xx_hal_spi.c ****   if (hspi->Init.TIMode == SPI_TIMODE_DISABLE)
  50              		.loc 1 334 17
  51 0012 7B68     		ldr	r3, [r7, #4]
  52 0014 5B6A     		ldr	r3, [r3, #36]
  53              		.loc 1 334 6
  54 0016 002B     		cmp	r3, #0
  55 0018 08D1     		bne	.L4
 335:Drivers/STM32L4xx_HAL_Driver/Src/stm32l4xx_hal_spi.c ****   {
 336:Drivers/STM32L4xx_HAL_Driver/Src/stm32l4xx_hal_spi.c ****     assert_param(IS_SPI_CPOL(hspi->Init.CLKPolarity));
 337:Drivers/STM32L4xx_HAL_Driver/Src/stm32l4xx_hal_spi.c ****     assert_param(IS_SPI_CPHA(hspi->Init.CLKPhase));
 338:Drivers/STM32L4xx_HAL_Driver/Src/stm32l4xx_hal_spi.c **** 
 339:Drivers/STM32L4xx_HAL_Driver/Src/stm32l4xx_hal_spi.c ****     if (hspi->Init.Mode == SPI_MODE_MASTER)
  56              		.loc 1 339 19
  57 001a 7B68     		ldr	r3, [r7, #4]
  58 001c 5B68     		ldr	r3, [r3, #4]
  59              		.loc 1 339 8
  60 001e B3F5827F 		cmp	r3, #260
  61 0022 09D0     		beq	.L5
ARM GAS  C:\Users\Morroway\AppData\Local\Temp\ccCQJjHM.s 			page 8


 340:Drivers/STM32L4xx_HAL_Driver/Src/stm32l4xx_hal_spi.c ****     {
 341:Drivers/STM32L4xx_HAL_Driver/Src/stm32l4xx_hal_spi.c ****       assert_param(IS_SPI_BAUDRATE_PRESCALER(hspi->Init.BaudRatePrescaler));
 342:Drivers/STM32L4xx_HAL_Driver/Src/stm32l4xx_hal_spi.c ****     }
 343:Drivers/STM32L4xx_HAL_Driver/Src/stm32l4xx_hal_spi.c ****     else
 344:Drivers/STM32L4xx_HAL_Driver/Src/stm32l4xx_hal_spi.c ****     {
 345:Drivers/STM32L4xx_HAL_Driver/Src/stm32l4xx_hal_spi.c ****       /* Baudrate prescaler not use in Motoraola Slave mode. force to default value */
 346:Drivers/STM32L4xx_HAL_Driver/Src/stm32l4xx_hal_spi.c ****       hspi->Init.BaudRatePrescaler = SPI_BAUDRATEPRESCALER_2;
  62              		.loc 1 346 36
  63 0024 7B68     		ldr	r3, [r7, #4]
  64 0026 0022     		movs	r2, #0
  65 0028 DA61     		str	r2, [r3, #28]
  66 002a 05E0     		b	.L5
  67              	.L4:
 347:Drivers/STM32L4xx_HAL_Driver/Src/stm32l4xx_hal_spi.c ****     }
 348:Drivers/STM32L4xx_HAL_Driver/Src/stm32l4xx_hal_spi.c ****   }
 349:Drivers/STM32L4xx_HAL_Driver/Src/stm32l4xx_hal_spi.c ****   else
 350:Drivers/STM32L4xx_HAL_Driver/Src/stm32l4xx_hal_spi.c ****   {
 351:Drivers/STM32L4xx_HAL_Driver/Src/stm32l4xx_hal_spi.c ****     assert_param(IS_SPI_BAUDRATE_PRESCALER(hspi->Init.BaudRatePrescaler));
 352:Drivers/STM32L4xx_HAL_Driver/Src/stm32l4xx_hal_spi.c **** 
 353:Drivers/STM32L4xx_HAL_Driver/Src/stm32l4xx_hal_spi.c ****     /* Force polarity and phase to TI protocaol requirements */
 354:Drivers/STM32L4xx_HAL_Driver/Src/stm32l4xx_hal_spi.c ****     hspi->Init.CLKPolarity = SPI_POLARITY_LOW;
  68              		.loc 1 354 28
  69 002c 7B68     		ldr	r3, [r7, #4]
  70 002e 0022     		movs	r2, #0
  71 0030 1A61     		str	r2, [r3, #16]
 355:Drivers/STM32L4xx_HAL_Driver/Src/stm32l4xx_hal_spi.c ****     hspi->Init.CLKPhase    = SPI_PHASE_1EDGE;
  72              		.loc 1 355 28
  73 0032 7B68     		ldr	r3, [r7, #4]
  74 0034 0022     		movs	r2, #0
  75 0036 5A61     		str	r2, [r3, #20]
  76              	.L5:
 356:Drivers/STM32L4xx_HAL_Driver/Src/stm32l4xx_hal_spi.c ****   }
 357:Drivers/STM32L4xx_HAL_Driver/Src/stm32l4xx_hal_spi.c **** #if (USE_SPI_CRC != 0U)
 358:Drivers/STM32L4xx_HAL_Driver/Src/stm32l4xx_hal_spi.c ****   assert_param(IS_SPI_CRC_CALCULATION(hspi->Init.CRCCalculation));
 359:Drivers/STM32L4xx_HAL_Driver/Src/stm32l4xx_hal_spi.c ****   if (hspi->Init.CRCCalculation == SPI_CRCCALCULATION_ENABLE)
 360:Drivers/STM32L4xx_HAL_Driver/Src/stm32l4xx_hal_spi.c ****   {
 361:Drivers/STM32L4xx_HAL_Driver/Src/stm32l4xx_hal_spi.c ****     assert_param(IS_SPI_CRC_POLYNOMIAL(hspi->Init.CRCPolynomial));
 362:Drivers/STM32L4xx_HAL_Driver/Src/stm32l4xx_hal_spi.c ****     assert_param(IS_SPI_CRC_LENGTH(hspi->Init.CRCLength));
 363:Drivers/STM32L4xx_HAL_Driver/Src/stm32l4xx_hal_spi.c ****   }
 364:Drivers/STM32L4xx_HAL_Driver/Src/stm32l4xx_hal_spi.c **** #else
 365:Drivers/STM32L4xx_HAL_Driver/Src/stm32l4xx_hal_spi.c ****   hspi->Init.CRCCalculation = SPI_CRCCALCULATION_DISABLE;
  77              		.loc 1 365 29
  78 0038 7B68     		ldr	r3, [r7, #4]
  79 003a 0022     		movs	r2, #0
  80 003c 9A62     		str	r2, [r3, #40]
 366:Drivers/STM32L4xx_HAL_Driver/Src/stm32l4xx_hal_spi.c **** #endif /* USE_SPI_CRC */
 367:Drivers/STM32L4xx_HAL_Driver/Src/stm32l4xx_hal_spi.c **** 
 368:Drivers/STM32L4xx_HAL_Driver/Src/stm32l4xx_hal_spi.c ****   if (hspi->State == HAL_SPI_STATE_RESET)
  81              		.loc 1 368 11
  82 003e 7B68     		ldr	r3, [r7, #4]
  83 0040 93F85D30 		ldrb	r3, [r3, #93]
  84 0044 DBB2     		uxtb	r3, r3
  85              		.loc 1 368 6
  86 0046 002B     		cmp	r3, #0
  87 0048 06D1     		bne	.L6
 369:Drivers/STM32L4xx_HAL_Driver/Src/stm32l4xx_hal_spi.c ****   {
 370:Drivers/STM32L4xx_HAL_Driver/Src/stm32l4xx_hal_spi.c ****     /* Allocate lock resource and initialize it */
ARM GAS  C:\Users\Morroway\AppData\Local\Temp\ccCQJjHM.s 			page 9


 371:Drivers/STM32L4xx_HAL_Driver/Src/stm32l4xx_hal_spi.c ****     hspi->Lock = HAL_UNLOCKED;
  88              		.loc 1 371 16
  89 004a 7B68     		ldr	r3, [r7, #4]
  90 004c 0022     		movs	r2, #0
  91 004e 83F85C20 		strb	r2, [r3, #92]
 372:Drivers/STM32L4xx_HAL_Driver/Src/stm32l4xx_hal_spi.c **** 
 373:Drivers/STM32L4xx_HAL_Driver/Src/stm32l4xx_hal_spi.c **** #if (USE_HAL_SPI_REGISTER_CALLBACKS == 1U)
 374:Drivers/STM32L4xx_HAL_Driver/Src/stm32l4xx_hal_spi.c ****     /* Init the SPI Callback settings */
 375:Drivers/STM32L4xx_HAL_Driver/Src/stm32l4xx_hal_spi.c ****     hspi->TxCpltCallback       = HAL_SPI_TxCpltCallback;       /* Legacy weak TxCpltCallback       
 376:Drivers/STM32L4xx_HAL_Driver/Src/stm32l4xx_hal_spi.c ****     hspi->RxCpltCallback       = HAL_SPI_RxCpltCallback;       /* Legacy weak RxCpltCallback       
 377:Drivers/STM32L4xx_HAL_Driver/Src/stm32l4xx_hal_spi.c ****     hspi->TxRxCpltCallback     = HAL_SPI_TxRxCpltCallback;     /* Legacy weak TxRxCpltCallback     
 378:Drivers/STM32L4xx_HAL_Driver/Src/stm32l4xx_hal_spi.c ****     hspi->TxHalfCpltCallback   = HAL_SPI_TxHalfCpltCallback;   /* Legacy weak TxHalfCpltCallback   
 379:Drivers/STM32L4xx_HAL_Driver/Src/stm32l4xx_hal_spi.c ****     hspi->RxHalfCpltCallback   = HAL_SPI_RxHalfCpltCallback;   /* Legacy weak RxHalfCpltCallback   
 380:Drivers/STM32L4xx_HAL_Driver/Src/stm32l4xx_hal_spi.c ****     hspi->TxRxHalfCpltCallback = HAL_SPI_TxRxHalfCpltCallback; /* Legacy weak TxRxHalfCpltCallback 
 381:Drivers/STM32L4xx_HAL_Driver/Src/stm32l4xx_hal_spi.c ****     hspi->ErrorCallback        = HAL_SPI_ErrorCallback;        /* Legacy weak ErrorCallback        
 382:Drivers/STM32L4xx_HAL_Driver/Src/stm32l4xx_hal_spi.c ****     hspi->AbortCpltCallback    = HAL_SPI_AbortCpltCallback;    /* Legacy weak AbortCpltCallback    
 383:Drivers/STM32L4xx_HAL_Driver/Src/stm32l4xx_hal_spi.c **** 
 384:Drivers/STM32L4xx_HAL_Driver/Src/stm32l4xx_hal_spi.c ****     if (hspi->MspInitCallback == NULL)
 385:Drivers/STM32L4xx_HAL_Driver/Src/stm32l4xx_hal_spi.c ****     {
 386:Drivers/STM32L4xx_HAL_Driver/Src/stm32l4xx_hal_spi.c ****       hspi->MspInitCallback = HAL_SPI_MspInit; /* Legacy weak MspInit  */
 387:Drivers/STM32L4xx_HAL_Driver/Src/stm32l4xx_hal_spi.c ****     }
 388:Drivers/STM32L4xx_HAL_Driver/Src/stm32l4xx_hal_spi.c **** 
 389:Drivers/STM32L4xx_HAL_Driver/Src/stm32l4xx_hal_spi.c ****     /* Init the low level hardware : GPIO, CLOCK, NVIC... */
 390:Drivers/STM32L4xx_HAL_Driver/Src/stm32l4xx_hal_spi.c ****     hspi->MspInitCallback(hspi);
 391:Drivers/STM32L4xx_HAL_Driver/Src/stm32l4xx_hal_spi.c **** #else
 392:Drivers/STM32L4xx_HAL_Driver/Src/stm32l4xx_hal_spi.c ****     /* Init the low level hardware : GPIO, CLOCK, NVIC... */
 393:Drivers/STM32L4xx_HAL_Driver/Src/stm32l4xx_hal_spi.c ****     HAL_SPI_MspInit(hspi);
  92              		.loc 1 393 5
  93 0052 7868     		ldr	r0, [r7, #4]
  94 0054 FFF7FEFF 		bl	HAL_SPI_MspInit
  95              	.L6:
 394:Drivers/STM32L4xx_HAL_Driver/Src/stm32l4xx_hal_spi.c **** #endif /* USE_HAL_SPI_REGISTER_CALLBACKS */
 395:Drivers/STM32L4xx_HAL_Driver/Src/stm32l4xx_hal_spi.c ****   }
 396:Drivers/STM32L4xx_HAL_Driver/Src/stm32l4xx_hal_spi.c **** 
 397:Drivers/STM32L4xx_HAL_Driver/Src/stm32l4xx_hal_spi.c ****   hspi->State = HAL_SPI_STATE_BUSY;
  96              		.loc 1 397 15
  97 0058 7B68     		ldr	r3, [r7, #4]
  98 005a 0222     		movs	r2, #2
  99 005c 83F85D20 		strb	r2, [r3, #93]
 398:Drivers/STM32L4xx_HAL_Driver/Src/stm32l4xx_hal_spi.c **** 
 399:Drivers/STM32L4xx_HAL_Driver/Src/stm32l4xx_hal_spi.c ****   /* Disable the selected SPI peripheral */
 400:Drivers/STM32L4xx_HAL_Driver/Src/stm32l4xx_hal_spi.c ****   __HAL_SPI_DISABLE(hspi);
 100              		.loc 1 400 3
 101 0060 7B68     		ldr	r3, [r7, #4]
 102 0062 1B68     		ldr	r3, [r3]
 103 0064 1A68     		ldr	r2, [r3]
 104 0066 7B68     		ldr	r3, [r7, #4]
 105 0068 1B68     		ldr	r3, [r3]
 106 006a 22F04002 		bic	r2, r2, #64
 107 006e 1A60     		str	r2, [r3]
 401:Drivers/STM32L4xx_HAL_Driver/Src/stm32l4xx_hal_spi.c **** 
 402:Drivers/STM32L4xx_HAL_Driver/Src/stm32l4xx_hal_spi.c ****   /* Align by default the rs fifo threshold on the data size */
 403:Drivers/STM32L4xx_HAL_Driver/Src/stm32l4xx_hal_spi.c ****   if (hspi->Init.DataSize > SPI_DATASIZE_8BIT)
 108              		.loc 1 403 17
 109 0070 7B68     		ldr	r3, [r7, #4]
 110 0072 DB68     		ldr	r3, [r3, #12]
 111              		.loc 1 403 6
ARM GAS  C:\Users\Morroway\AppData\Local\Temp\ccCQJjHM.s 			page 10


 112 0074 B3F5E06F 		cmp	r3, #1792
 113 0078 02D9     		bls	.L7
 404:Drivers/STM32L4xx_HAL_Driver/Src/stm32l4xx_hal_spi.c ****   {
 405:Drivers/STM32L4xx_HAL_Driver/Src/stm32l4xx_hal_spi.c ****     frxth = SPI_RXFIFO_THRESHOLD_HF;
 114              		.loc 1 405 11
 115 007a 0023     		movs	r3, #0
 116 007c FB60     		str	r3, [r7, #12]
 117 007e 02E0     		b	.L8
 118              	.L7:
 406:Drivers/STM32L4xx_HAL_Driver/Src/stm32l4xx_hal_spi.c ****   }
 407:Drivers/STM32L4xx_HAL_Driver/Src/stm32l4xx_hal_spi.c ****   else
 408:Drivers/STM32L4xx_HAL_Driver/Src/stm32l4xx_hal_spi.c ****   {
 409:Drivers/STM32L4xx_HAL_Driver/Src/stm32l4xx_hal_spi.c ****     frxth = SPI_RXFIFO_THRESHOLD_QF;
 119              		.loc 1 409 11
 120 0080 4FF48053 		mov	r3, #4096
 121 0084 FB60     		str	r3, [r7, #12]
 122              	.L8:
 410:Drivers/STM32L4xx_HAL_Driver/Src/stm32l4xx_hal_spi.c ****   }
 411:Drivers/STM32L4xx_HAL_Driver/Src/stm32l4xx_hal_spi.c **** 
 412:Drivers/STM32L4xx_HAL_Driver/Src/stm32l4xx_hal_spi.c ****   /* CRC calculation is valid only for 16Bit and 8 Bit */
 413:Drivers/STM32L4xx_HAL_Driver/Src/stm32l4xx_hal_spi.c ****   if ((hspi->Init.DataSize != SPI_DATASIZE_16BIT) && (hspi->Init.DataSize != SPI_DATASIZE_8BIT))
 123              		.loc 1 413 18
 124 0086 7B68     		ldr	r3, [r7, #4]
 125 0088 DB68     		ldr	r3, [r3, #12]
 126              		.loc 1 413 6
 127 008a B3F5706F 		cmp	r3, #3840
 128 008e 07D0     		beq	.L9
 129              		.loc 1 413 65 discriminator 1
 130 0090 7B68     		ldr	r3, [r7, #4]
 131 0092 DB68     		ldr	r3, [r3, #12]
 132              		.loc 1 413 51 discriminator 1
 133 0094 B3F5E06F 		cmp	r3, #1792
 134 0098 02D0     		beq	.L9
 414:Drivers/STM32L4xx_HAL_Driver/Src/stm32l4xx_hal_spi.c ****   {
 415:Drivers/STM32L4xx_HAL_Driver/Src/stm32l4xx_hal_spi.c ****     /* CRC must be disabled */
 416:Drivers/STM32L4xx_HAL_Driver/Src/stm32l4xx_hal_spi.c ****     hspi->Init.CRCCalculation = SPI_CRCCALCULATION_DISABLE;
 135              		.loc 1 416 31
 136 009a 7B68     		ldr	r3, [r7, #4]
 137 009c 0022     		movs	r2, #0
 138 009e 9A62     		str	r2, [r3, #40]
 139              	.L9:
 417:Drivers/STM32L4xx_HAL_Driver/Src/stm32l4xx_hal_spi.c ****   }
 418:Drivers/STM32L4xx_HAL_Driver/Src/stm32l4xx_hal_spi.c **** 
 419:Drivers/STM32L4xx_HAL_Driver/Src/stm32l4xx_hal_spi.c ****   /*----------------------- SPIx CR1 & CR2 Configuration ---------------------*/
 420:Drivers/STM32L4xx_HAL_Driver/Src/stm32l4xx_hal_spi.c ****   /* Configure : SPI Mode, Communication Mode, Clock polarity and phase, NSS management,
 421:Drivers/STM32L4xx_HAL_Driver/Src/stm32l4xx_hal_spi.c ****   Communication speed, First bit and CRC calculation state */
 422:Drivers/STM32L4xx_HAL_Driver/Src/stm32l4xx_hal_spi.c ****   WRITE_REG(hspi->Instance->CR1, ((hspi->Init.Mode & (SPI_CR1_MSTR | SPI_CR1_SSI)) |
 140              		.loc 1 422 3
 141 00a0 7B68     		ldr	r3, [r7, #4]
 142 00a2 5B68     		ldr	r3, [r3, #4]
 143 00a4 03F48272 		and	r2, r3, #260
 144 00a8 7B68     		ldr	r3, [r7, #4]
 145 00aa 9B68     		ldr	r3, [r3, #8]
 146 00ac 03F40443 		and	r3, r3, #33792
 147 00b0 1A43     		orrs	r2, r2, r3
 148 00b2 7B68     		ldr	r3, [r7, #4]
 149 00b4 1B69     		ldr	r3, [r3, #16]
ARM GAS  C:\Users\Morroway\AppData\Local\Temp\ccCQJjHM.s 			page 11


 150 00b6 03F00203 		and	r3, r3, #2
 151 00ba 1A43     		orrs	r2, r2, r3
 152 00bc 7B68     		ldr	r3, [r7, #4]
 153 00be 5B69     		ldr	r3, [r3, #20]
 154 00c0 03F00103 		and	r3, r3, #1
 155 00c4 1A43     		orrs	r2, r2, r3
 156 00c6 7B68     		ldr	r3, [r7, #4]
 157 00c8 9B69     		ldr	r3, [r3, #24]
 158 00ca 03F40073 		and	r3, r3, #512
 159 00ce 1A43     		orrs	r2, r2, r3
 160 00d0 7B68     		ldr	r3, [r7, #4]
 161 00d2 DB69     		ldr	r3, [r3, #28]
 162 00d4 03F03803 		and	r3, r3, #56
 163 00d8 1A43     		orrs	r2, r2, r3
 164 00da 7B68     		ldr	r3, [r7, #4]
 165 00dc 1B6A     		ldr	r3, [r3, #32]
 166 00de 03F08003 		and	r3, r3, #128
 167 00e2 42EA0301 		orr	r1, r2, r3
 168 00e6 7B68     		ldr	r3, [r7, #4]
 169 00e8 9B6A     		ldr	r3, [r3, #40]
 170 00ea 03F40052 		and	r2, r3, #8192
 171 00ee 7B68     		ldr	r3, [r7, #4]
 172 00f0 1B68     		ldr	r3, [r3]
 173 00f2 0A43     		orrs	r2, r2, r1
 174 00f4 1A60     		str	r2, [r3]
 423:Drivers/STM32L4xx_HAL_Driver/Src/stm32l4xx_hal_spi.c ****                                   (hspi->Init.Direction & (SPI_CR1_RXONLY | SPI_CR1_BIDIMODE)) |
 424:Drivers/STM32L4xx_HAL_Driver/Src/stm32l4xx_hal_spi.c ****                                   (hspi->Init.CLKPolarity & SPI_CR1_CPOL) |
 425:Drivers/STM32L4xx_HAL_Driver/Src/stm32l4xx_hal_spi.c ****                                   (hspi->Init.CLKPhase & SPI_CR1_CPHA) |
 426:Drivers/STM32L4xx_HAL_Driver/Src/stm32l4xx_hal_spi.c ****                                   (hspi->Init.NSS & SPI_CR1_SSM) |
 427:Drivers/STM32L4xx_HAL_Driver/Src/stm32l4xx_hal_spi.c ****                                   (hspi->Init.BaudRatePrescaler & SPI_CR1_BR_Msk) |
 428:Drivers/STM32L4xx_HAL_Driver/Src/stm32l4xx_hal_spi.c ****                                   (hspi->Init.FirstBit  & SPI_CR1_LSBFIRST) |
 429:Drivers/STM32L4xx_HAL_Driver/Src/stm32l4xx_hal_spi.c ****                                   (hspi->Init.CRCCalculation & SPI_CR1_CRCEN)));
 430:Drivers/STM32L4xx_HAL_Driver/Src/stm32l4xx_hal_spi.c **** #if (USE_SPI_CRC != 0U)
 431:Drivers/STM32L4xx_HAL_Driver/Src/stm32l4xx_hal_spi.c ****   /*---------------------------- SPIx CRCL Configuration -------------------*/
 432:Drivers/STM32L4xx_HAL_Driver/Src/stm32l4xx_hal_spi.c ****   if (hspi->Init.CRCCalculation == SPI_CRCCALCULATION_ENABLE)
 433:Drivers/STM32L4xx_HAL_Driver/Src/stm32l4xx_hal_spi.c ****   {
 434:Drivers/STM32L4xx_HAL_Driver/Src/stm32l4xx_hal_spi.c ****     /* Align the CRC Length on the data size */
 435:Drivers/STM32L4xx_HAL_Driver/Src/stm32l4xx_hal_spi.c ****     if (hspi->Init.CRCLength == SPI_CRC_LENGTH_DATASIZE)
 436:Drivers/STM32L4xx_HAL_Driver/Src/stm32l4xx_hal_spi.c ****     {
 437:Drivers/STM32L4xx_HAL_Driver/Src/stm32l4xx_hal_spi.c ****       /* CRC Length aligned on the data size : value set by default */
 438:Drivers/STM32L4xx_HAL_Driver/Src/stm32l4xx_hal_spi.c ****       if (hspi->Init.DataSize > SPI_DATASIZE_8BIT)
 439:Drivers/STM32L4xx_HAL_Driver/Src/stm32l4xx_hal_spi.c ****       {
 440:Drivers/STM32L4xx_HAL_Driver/Src/stm32l4xx_hal_spi.c ****         hspi->Init.CRCLength = SPI_CRC_LENGTH_16BIT;
 441:Drivers/STM32L4xx_HAL_Driver/Src/stm32l4xx_hal_spi.c ****       }
 442:Drivers/STM32L4xx_HAL_Driver/Src/stm32l4xx_hal_spi.c ****       else
 443:Drivers/STM32L4xx_HAL_Driver/Src/stm32l4xx_hal_spi.c ****       {
 444:Drivers/STM32L4xx_HAL_Driver/Src/stm32l4xx_hal_spi.c ****         hspi->Init.CRCLength = SPI_CRC_LENGTH_8BIT;
 445:Drivers/STM32L4xx_HAL_Driver/Src/stm32l4xx_hal_spi.c ****       }
 446:Drivers/STM32L4xx_HAL_Driver/Src/stm32l4xx_hal_spi.c ****     }
 447:Drivers/STM32L4xx_HAL_Driver/Src/stm32l4xx_hal_spi.c **** 
 448:Drivers/STM32L4xx_HAL_Driver/Src/stm32l4xx_hal_spi.c ****     /* Configure : CRC Length */
 449:Drivers/STM32L4xx_HAL_Driver/Src/stm32l4xx_hal_spi.c ****     if (hspi->Init.CRCLength == SPI_CRC_LENGTH_16BIT)
 450:Drivers/STM32L4xx_HAL_Driver/Src/stm32l4xx_hal_spi.c ****     {
 451:Drivers/STM32L4xx_HAL_Driver/Src/stm32l4xx_hal_spi.c ****       SET_BIT(hspi->Instance->CR1, SPI_CR1_CRCL);
 452:Drivers/STM32L4xx_HAL_Driver/Src/stm32l4xx_hal_spi.c ****     }
 453:Drivers/STM32L4xx_HAL_Driver/Src/stm32l4xx_hal_spi.c ****   }
 454:Drivers/STM32L4xx_HAL_Driver/Src/stm32l4xx_hal_spi.c **** #endif /* USE_SPI_CRC */
ARM GAS  C:\Users\Morroway\AppData\Local\Temp\ccCQJjHM.s 			page 12


 455:Drivers/STM32L4xx_HAL_Driver/Src/stm32l4xx_hal_spi.c **** 
 456:Drivers/STM32L4xx_HAL_Driver/Src/stm32l4xx_hal_spi.c ****   /* Configure : NSS management, TI Mode, NSS Pulse, Data size and Rx Fifo threshold */
 457:Drivers/STM32L4xx_HAL_Driver/Src/stm32l4xx_hal_spi.c ****   WRITE_REG(hspi->Instance->CR2, (((hspi->Init.NSS >> 16U) & SPI_CR2_SSOE) |
 175              		.loc 1 457 3
 176 00f6 7B68     		ldr	r3, [r7, #4]
 177 00f8 9B69     		ldr	r3, [r3, #24]
 178 00fa 1B0C     		lsrs	r3, r3, #16
 179 00fc 03F00402 		and	r2, r3, #4
 180 0100 7B68     		ldr	r3, [r7, #4]
 181 0102 5B6A     		ldr	r3, [r3, #36]
 182 0104 03F01003 		and	r3, r3, #16
 183 0108 1A43     		orrs	r2, r2, r3
 184 010a 7B68     		ldr	r3, [r7, #4]
 185 010c 5B6B     		ldr	r3, [r3, #52]
 186 010e 03F00803 		and	r3, r3, #8
 187 0112 1A43     		orrs	r2, r2, r3
 188 0114 7B68     		ldr	r3, [r7, #4]
 189 0116 DB68     		ldr	r3, [r3, #12]
 190 0118 03F47063 		and	r3, r3, #3840
 191 011c 42EA0301 		orr	r1, r2, r3
 192 0120 FB68     		ldr	r3, [r7, #12]
 193 0122 03F48052 		and	r2, r3, #4096
 194 0126 7B68     		ldr	r3, [r7, #4]
 195 0128 1B68     		ldr	r3, [r3]
 196 012a 0A43     		orrs	r2, r2, r1
 197 012c 5A60     		str	r2, [r3, #4]
 458:Drivers/STM32L4xx_HAL_Driver/Src/stm32l4xx_hal_spi.c ****                                   (hspi->Init.TIMode & SPI_CR2_FRF) |
 459:Drivers/STM32L4xx_HAL_Driver/Src/stm32l4xx_hal_spi.c ****                                   (hspi->Init.NSSPMode & SPI_CR2_NSSP) |
 460:Drivers/STM32L4xx_HAL_Driver/Src/stm32l4xx_hal_spi.c ****                                   (hspi->Init.DataSize & SPI_CR2_DS_Msk) |
 461:Drivers/STM32L4xx_HAL_Driver/Src/stm32l4xx_hal_spi.c ****                                   (frxth & SPI_CR2_FRXTH)));
 462:Drivers/STM32L4xx_HAL_Driver/Src/stm32l4xx_hal_spi.c **** 
 463:Drivers/STM32L4xx_HAL_Driver/Src/stm32l4xx_hal_spi.c **** #if (USE_SPI_CRC != 0U)
 464:Drivers/STM32L4xx_HAL_Driver/Src/stm32l4xx_hal_spi.c ****   /*---------------------------- SPIx CRCPOLY Configuration ------------------*/
 465:Drivers/STM32L4xx_HAL_Driver/Src/stm32l4xx_hal_spi.c ****   /* Configure : CRC Polynomial */
 466:Drivers/STM32L4xx_HAL_Driver/Src/stm32l4xx_hal_spi.c ****   if (hspi->Init.CRCCalculation == SPI_CRCCALCULATION_ENABLE)
 467:Drivers/STM32L4xx_HAL_Driver/Src/stm32l4xx_hal_spi.c ****   {
 468:Drivers/STM32L4xx_HAL_Driver/Src/stm32l4xx_hal_spi.c ****     WRITE_REG(hspi->Instance->CRCPR, (hspi->Init.CRCPolynomial & SPI_CRCPR_CRCPOLY_Msk));
 469:Drivers/STM32L4xx_HAL_Driver/Src/stm32l4xx_hal_spi.c ****   }
 470:Drivers/STM32L4xx_HAL_Driver/Src/stm32l4xx_hal_spi.c **** #endif /* USE_SPI_CRC */
 471:Drivers/STM32L4xx_HAL_Driver/Src/stm32l4xx_hal_spi.c **** 
 472:Drivers/STM32L4xx_HAL_Driver/Src/stm32l4xx_hal_spi.c **** #if defined(SPI_I2SCFGR_I2SMOD)
 473:Drivers/STM32L4xx_HAL_Driver/Src/stm32l4xx_hal_spi.c ****   /* Activate the SPI mode (Make sure that I2SMOD bit in I2SCFGR register is reset) */
 474:Drivers/STM32L4xx_HAL_Driver/Src/stm32l4xx_hal_spi.c ****   CLEAR_BIT(hspi->Instance->I2SCFGR, SPI_I2SCFGR_I2SMOD);
 475:Drivers/STM32L4xx_HAL_Driver/Src/stm32l4xx_hal_spi.c **** #endif /* SPI_I2SCFGR_I2SMOD */
 476:Drivers/STM32L4xx_HAL_Driver/Src/stm32l4xx_hal_spi.c **** 
 477:Drivers/STM32L4xx_HAL_Driver/Src/stm32l4xx_hal_spi.c ****   hspi->ErrorCode = HAL_SPI_ERROR_NONE;
 198              		.loc 1 477 19
 199 012e 7B68     		ldr	r3, [r7, #4]
 200 0130 0022     		movs	r2, #0
 201 0132 1A66     		str	r2, [r3, #96]
 478:Drivers/STM32L4xx_HAL_Driver/Src/stm32l4xx_hal_spi.c ****   hspi->State     = HAL_SPI_STATE_READY;
 202              		.loc 1 478 19
 203 0134 7B68     		ldr	r3, [r7, #4]
 204 0136 0122     		movs	r2, #1
 205 0138 83F85D20 		strb	r2, [r3, #93]
 479:Drivers/STM32L4xx_HAL_Driver/Src/stm32l4xx_hal_spi.c **** 
 480:Drivers/STM32L4xx_HAL_Driver/Src/stm32l4xx_hal_spi.c ****   return HAL_OK;
ARM GAS  C:\Users\Morroway\AppData\Local\Temp\ccCQJjHM.s 			page 13


 206              		.loc 1 480 10
 207 013c 0023     		movs	r3, #0
 208              	.L3:
 481:Drivers/STM32L4xx_HAL_Driver/Src/stm32l4xx_hal_spi.c **** }
 209              		.loc 1 481 1
 210 013e 1846     		mov	r0, r3
 211 0140 1037     		adds	r7, r7, #16
 212              		.cfi_def_cfa_offset 8
 213 0142 BD46     		mov	sp, r7
 214              		.cfi_def_cfa_register 13
 215              		@ sp needed
 216 0144 80BD     		pop	{r7, pc}
 217              		.cfi_endproc
 218              	.LFE321:
 220              		.section	.text.HAL_SPI_DeInit,"ax",%progbits
 221              		.align	1
 222              		.global	HAL_SPI_DeInit
 223              		.syntax unified
 224              		.thumb
 225              		.thumb_func
 227              	HAL_SPI_DeInit:
 228              	.LFB322:
 482:Drivers/STM32L4xx_HAL_Driver/Src/stm32l4xx_hal_spi.c **** 
 483:Drivers/STM32L4xx_HAL_Driver/Src/stm32l4xx_hal_spi.c **** /**
 484:Drivers/STM32L4xx_HAL_Driver/Src/stm32l4xx_hal_spi.c ****   * @brief  De-Initialize the SPI peripheral.
 485:Drivers/STM32L4xx_HAL_Driver/Src/stm32l4xx_hal_spi.c ****   * @param  hspi pointer to a SPI_HandleTypeDef structure that contains
 486:Drivers/STM32L4xx_HAL_Driver/Src/stm32l4xx_hal_spi.c ****   *               the configuration information for SPI module.
 487:Drivers/STM32L4xx_HAL_Driver/Src/stm32l4xx_hal_spi.c ****   * @retval HAL status
 488:Drivers/STM32L4xx_HAL_Driver/Src/stm32l4xx_hal_spi.c ****   */
 489:Drivers/STM32L4xx_HAL_Driver/Src/stm32l4xx_hal_spi.c **** HAL_StatusTypeDef HAL_SPI_DeInit(SPI_HandleTypeDef *hspi)
 490:Drivers/STM32L4xx_HAL_Driver/Src/stm32l4xx_hal_spi.c **** {
 229              		.loc 1 490 1
 230              		.cfi_startproc
 231              		@ args = 0, pretend = 0, frame = 8
 232              		@ frame_needed = 1, uses_anonymous_args = 0
 233 0000 80B5     		push	{r7, lr}
 234              		.cfi_def_cfa_offset 8
 235              		.cfi_offset 7, -8
 236              		.cfi_offset 14, -4
 237 0002 82B0     		sub	sp, sp, #8
 238              		.cfi_def_cfa_offset 16
 239 0004 00AF     		add	r7, sp, #0
 240              		.cfi_def_cfa_register 7
 241 0006 7860     		str	r0, [r7, #4]
 491:Drivers/STM32L4xx_HAL_Driver/Src/stm32l4xx_hal_spi.c ****   /* Check the SPI handle allocation */
 492:Drivers/STM32L4xx_HAL_Driver/Src/stm32l4xx_hal_spi.c ****   if (hspi == NULL)
 242              		.loc 1 492 6
 243 0008 7B68     		ldr	r3, [r7, #4]
 244 000a 002B     		cmp	r3, #0
 245 000c 01D1     		bne	.L11
 493:Drivers/STM32L4xx_HAL_Driver/Src/stm32l4xx_hal_spi.c ****   {
 494:Drivers/STM32L4xx_HAL_Driver/Src/stm32l4xx_hal_spi.c ****     return HAL_ERROR;
 246              		.loc 1 494 12
 247 000e 0123     		movs	r3, #1
 248 0010 1AE0     		b	.L12
 249              	.L11:
 495:Drivers/STM32L4xx_HAL_Driver/Src/stm32l4xx_hal_spi.c ****   }
ARM GAS  C:\Users\Morroway\AppData\Local\Temp\ccCQJjHM.s 			page 14


 496:Drivers/STM32L4xx_HAL_Driver/Src/stm32l4xx_hal_spi.c **** 
 497:Drivers/STM32L4xx_HAL_Driver/Src/stm32l4xx_hal_spi.c ****   /* Check SPI Instance parameter */
 498:Drivers/STM32L4xx_HAL_Driver/Src/stm32l4xx_hal_spi.c ****   assert_param(IS_SPI_ALL_INSTANCE(hspi->Instance));
 499:Drivers/STM32L4xx_HAL_Driver/Src/stm32l4xx_hal_spi.c **** 
 500:Drivers/STM32L4xx_HAL_Driver/Src/stm32l4xx_hal_spi.c ****   hspi->State = HAL_SPI_STATE_BUSY;
 250              		.loc 1 500 15
 251 0012 7B68     		ldr	r3, [r7, #4]
 252 0014 0222     		movs	r2, #2
 253 0016 83F85D20 		strb	r2, [r3, #93]
 501:Drivers/STM32L4xx_HAL_Driver/Src/stm32l4xx_hal_spi.c **** 
 502:Drivers/STM32L4xx_HAL_Driver/Src/stm32l4xx_hal_spi.c ****   /* Disable the SPI Peripheral Clock */
 503:Drivers/STM32L4xx_HAL_Driver/Src/stm32l4xx_hal_spi.c ****   __HAL_SPI_DISABLE(hspi);
 254              		.loc 1 503 3
 255 001a 7B68     		ldr	r3, [r7, #4]
 256 001c 1B68     		ldr	r3, [r3]
 257 001e 1A68     		ldr	r2, [r3]
 258 0020 7B68     		ldr	r3, [r7, #4]
 259 0022 1B68     		ldr	r3, [r3]
 260 0024 22F04002 		bic	r2, r2, #64
 261 0028 1A60     		str	r2, [r3]
 504:Drivers/STM32L4xx_HAL_Driver/Src/stm32l4xx_hal_spi.c **** 
 505:Drivers/STM32L4xx_HAL_Driver/Src/stm32l4xx_hal_spi.c **** #if (USE_HAL_SPI_REGISTER_CALLBACKS == 1U)
 506:Drivers/STM32L4xx_HAL_Driver/Src/stm32l4xx_hal_spi.c ****   if (hspi->MspDeInitCallback == NULL)
 507:Drivers/STM32L4xx_HAL_Driver/Src/stm32l4xx_hal_spi.c ****   {
 508:Drivers/STM32L4xx_HAL_Driver/Src/stm32l4xx_hal_spi.c ****     hspi->MspDeInitCallback = HAL_SPI_MspDeInit; /* Legacy weak MspDeInit  */
 509:Drivers/STM32L4xx_HAL_Driver/Src/stm32l4xx_hal_spi.c ****   }
 510:Drivers/STM32L4xx_HAL_Driver/Src/stm32l4xx_hal_spi.c **** 
 511:Drivers/STM32L4xx_HAL_Driver/Src/stm32l4xx_hal_spi.c ****   /* DeInit the low level hardware: GPIO, CLOCK, NVIC... */
 512:Drivers/STM32L4xx_HAL_Driver/Src/stm32l4xx_hal_spi.c ****   hspi->MspDeInitCallback(hspi);
 513:Drivers/STM32L4xx_HAL_Driver/Src/stm32l4xx_hal_spi.c **** #else
 514:Drivers/STM32L4xx_HAL_Driver/Src/stm32l4xx_hal_spi.c ****   /* DeInit the low level hardware: GPIO, CLOCK, NVIC... */
 515:Drivers/STM32L4xx_HAL_Driver/Src/stm32l4xx_hal_spi.c ****   HAL_SPI_MspDeInit(hspi);
 262              		.loc 1 515 3
 263 002a 7868     		ldr	r0, [r7, #4]
 264 002c FFF7FEFF 		bl	HAL_SPI_MspDeInit
 516:Drivers/STM32L4xx_HAL_Driver/Src/stm32l4xx_hal_spi.c **** #endif /* USE_HAL_SPI_REGISTER_CALLBACKS */
 517:Drivers/STM32L4xx_HAL_Driver/Src/stm32l4xx_hal_spi.c **** 
 518:Drivers/STM32L4xx_HAL_Driver/Src/stm32l4xx_hal_spi.c ****   hspi->ErrorCode = HAL_SPI_ERROR_NONE;
 265              		.loc 1 518 19
 266 0030 7B68     		ldr	r3, [r7, #4]
 267 0032 0022     		movs	r2, #0
 268 0034 1A66     		str	r2, [r3, #96]
 519:Drivers/STM32L4xx_HAL_Driver/Src/stm32l4xx_hal_spi.c ****   hspi->State = HAL_SPI_STATE_RESET;
 269              		.loc 1 519 15
 270 0036 7B68     		ldr	r3, [r7, #4]
 271 0038 0022     		movs	r2, #0
 272 003a 83F85D20 		strb	r2, [r3, #93]
 520:Drivers/STM32L4xx_HAL_Driver/Src/stm32l4xx_hal_spi.c **** 
 521:Drivers/STM32L4xx_HAL_Driver/Src/stm32l4xx_hal_spi.c ****   /* Release Lock */
 522:Drivers/STM32L4xx_HAL_Driver/Src/stm32l4xx_hal_spi.c ****   __HAL_UNLOCK(hspi);
 273              		.loc 1 522 3
 274 003e 7B68     		ldr	r3, [r7, #4]
 275 0040 0022     		movs	r2, #0
 276 0042 83F85C20 		strb	r2, [r3, #92]
 523:Drivers/STM32L4xx_HAL_Driver/Src/stm32l4xx_hal_spi.c **** 
 524:Drivers/STM32L4xx_HAL_Driver/Src/stm32l4xx_hal_spi.c ****   return HAL_OK;
 277              		.loc 1 524 10
ARM GAS  C:\Users\Morroway\AppData\Local\Temp\ccCQJjHM.s 			page 15


 278 0046 0023     		movs	r3, #0
 279              	.L12:
 525:Drivers/STM32L4xx_HAL_Driver/Src/stm32l4xx_hal_spi.c **** }
 280              		.loc 1 525 1
 281 0048 1846     		mov	r0, r3
 282 004a 0837     		adds	r7, r7, #8
 283              		.cfi_def_cfa_offset 8
 284 004c BD46     		mov	sp, r7
 285              		.cfi_def_cfa_register 13
 286              		@ sp needed
 287 004e 80BD     		pop	{r7, pc}
 288              		.cfi_endproc
 289              	.LFE322:
 291              		.section	.text.HAL_SPI_MspInit,"ax",%progbits
 292              		.align	1
 293              		.weak	HAL_SPI_MspInit
 294              		.syntax unified
 295              		.thumb
 296              		.thumb_func
 298              	HAL_SPI_MspInit:
 299              	.LFB323:
 526:Drivers/STM32L4xx_HAL_Driver/Src/stm32l4xx_hal_spi.c **** 
 527:Drivers/STM32L4xx_HAL_Driver/Src/stm32l4xx_hal_spi.c **** /**
 528:Drivers/STM32L4xx_HAL_Driver/Src/stm32l4xx_hal_spi.c ****   * @brief  Initialize the SPI MSP.
 529:Drivers/STM32L4xx_HAL_Driver/Src/stm32l4xx_hal_spi.c ****   * @param  hspi pointer to a SPI_HandleTypeDef structure that contains
 530:Drivers/STM32L4xx_HAL_Driver/Src/stm32l4xx_hal_spi.c ****   *               the configuration information for SPI module.
 531:Drivers/STM32L4xx_HAL_Driver/Src/stm32l4xx_hal_spi.c ****   * @retval None
 532:Drivers/STM32L4xx_HAL_Driver/Src/stm32l4xx_hal_spi.c ****   */
 533:Drivers/STM32L4xx_HAL_Driver/Src/stm32l4xx_hal_spi.c **** __weak void HAL_SPI_MspInit(SPI_HandleTypeDef *hspi)
 534:Drivers/STM32L4xx_HAL_Driver/Src/stm32l4xx_hal_spi.c **** {
 300              		.loc 1 534 1
 301              		.cfi_startproc
 302              		@ args = 0, pretend = 0, frame = 8
 303              		@ frame_needed = 1, uses_anonymous_args = 0
 304              		@ link register save eliminated.
 305 0000 80B4     		push	{r7}
 306              		.cfi_def_cfa_offset 4
 307              		.cfi_offset 7, -4
 308 0002 83B0     		sub	sp, sp, #12
 309              		.cfi_def_cfa_offset 16
 310 0004 00AF     		add	r7, sp, #0
 311              		.cfi_def_cfa_register 7
 312 0006 7860     		str	r0, [r7, #4]
 535:Drivers/STM32L4xx_HAL_Driver/Src/stm32l4xx_hal_spi.c ****   /* Prevent unused argument(s) compilation warning */
 536:Drivers/STM32L4xx_HAL_Driver/Src/stm32l4xx_hal_spi.c ****   UNUSED(hspi);
 537:Drivers/STM32L4xx_HAL_Driver/Src/stm32l4xx_hal_spi.c **** 
 538:Drivers/STM32L4xx_HAL_Driver/Src/stm32l4xx_hal_spi.c ****   /* NOTE : This function should not be modified, when the callback is needed,
 539:Drivers/STM32L4xx_HAL_Driver/Src/stm32l4xx_hal_spi.c ****             the HAL_SPI_MspInit should be implemented in the user file
 540:Drivers/STM32L4xx_HAL_Driver/Src/stm32l4xx_hal_spi.c ****    */
 541:Drivers/STM32L4xx_HAL_Driver/Src/stm32l4xx_hal_spi.c **** }
 313              		.loc 1 541 1
 314 0008 00BF     		nop
 315 000a 0C37     		adds	r7, r7, #12
 316              		.cfi_def_cfa_offset 4
 317 000c BD46     		mov	sp, r7
 318              		.cfi_def_cfa_register 13
 319              		@ sp needed
ARM GAS  C:\Users\Morroway\AppData\Local\Temp\ccCQJjHM.s 			page 16


 320 000e 5DF8047B 		ldr	r7, [sp], #4
 321              		.cfi_restore 7
 322              		.cfi_def_cfa_offset 0
 323 0012 7047     		bx	lr
 324              		.cfi_endproc
 325              	.LFE323:
 327              		.section	.text.HAL_SPI_MspDeInit,"ax",%progbits
 328              		.align	1
 329              		.weak	HAL_SPI_MspDeInit
 330              		.syntax unified
 331              		.thumb
 332              		.thumb_func
 334              	HAL_SPI_MspDeInit:
 335              	.LFB324:
 542:Drivers/STM32L4xx_HAL_Driver/Src/stm32l4xx_hal_spi.c **** 
 543:Drivers/STM32L4xx_HAL_Driver/Src/stm32l4xx_hal_spi.c **** /**
 544:Drivers/STM32L4xx_HAL_Driver/Src/stm32l4xx_hal_spi.c ****   * @brief  De-Initialize the SPI MSP.
 545:Drivers/STM32L4xx_HAL_Driver/Src/stm32l4xx_hal_spi.c ****   * @param  hspi pointer to a SPI_HandleTypeDef structure that contains
 546:Drivers/STM32L4xx_HAL_Driver/Src/stm32l4xx_hal_spi.c ****   *               the configuration information for SPI module.
 547:Drivers/STM32L4xx_HAL_Driver/Src/stm32l4xx_hal_spi.c ****   * @retval None
 548:Drivers/STM32L4xx_HAL_Driver/Src/stm32l4xx_hal_spi.c ****   */
 549:Drivers/STM32L4xx_HAL_Driver/Src/stm32l4xx_hal_spi.c **** __weak void HAL_SPI_MspDeInit(SPI_HandleTypeDef *hspi)
 550:Drivers/STM32L4xx_HAL_Driver/Src/stm32l4xx_hal_spi.c **** {
 336              		.loc 1 550 1
 337              		.cfi_startproc
 338              		@ args = 0, pretend = 0, frame = 8
 339              		@ frame_needed = 1, uses_anonymous_args = 0
 340              		@ link register save eliminated.
 341 0000 80B4     		push	{r7}
 342              		.cfi_def_cfa_offset 4
 343              		.cfi_offset 7, -4
 344 0002 83B0     		sub	sp, sp, #12
 345              		.cfi_def_cfa_offset 16
 346 0004 00AF     		add	r7, sp, #0
 347              		.cfi_def_cfa_register 7
 348 0006 7860     		str	r0, [r7, #4]
 551:Drivers/STM32L4xx_HAL_Driver/Src/stm32l4xx_hal_spi.c ****   /* Prevent unused argument(s) compilation warning */
 552:Drivers/STM32L4xx_HAL_Driver/Src/stm32l4xx_hal_spi.c ****   UNUSED(hspi);
 553:Drivers/STM32L4xx_HAL_Driver/Src/stm32l4xx_hal_spi.c **** 
 554:Drivers/STM32L4xx_HAL_Driver/Src/stm32l4xx_hal_spi.c ****   /* NOTE : This function should not be modified, when the callback is needed,
 555:Drivers/STM32L4xx_HAL_Driver/Src/stm32l4xx_hal_spi.c ****             the HAL_SPI_MspDeInit should be implemented in the user file
 556:Drivers/STM32L4xx_HAL_Driver/Src/stm32l4xx_hal_spi.c ****    */
 557:Drivers/STM32L4xx_HAL_Driver/Src/stm32l4xx_hal_spi.c **** }
 349              		.loc 1 557 1
 350 0008 00BF     		nop
 351 000a 0C37     		adds	r7, r7, #12
 352              		.cfi_def_cfa_offset 4
 353 000c BD46     		mov	sp, r7
 354              		.cfi_def_cfa_register 13
 355              		@ sp needed
 356 000e 5DF8047B 		ldr	r7, [sp], #4
 357              		.cfi_restore 7
 358              		.cfi_def_cfa_offset 0
 359 0012 7047     		bx	lr
 360              		.cfi_endproc
 361              	.LFE324:
 363              		.section	.text.HAL_SPI_Transmit,"ax",%progbits
ARM GAS  C:\Users\Morroway\AppData\Local\Temp\ccCQJjHM.s 			page 17


 364              		.align	1
 365              		.global	HAL_SPI_Transmit
 366              		.syntax unified
 367              		.thumb
 368              		.thumb_func
 370              	HAL_SPI_Transmit:
 371              	.LFB325:
 558:Drivers/STM32L4xx_HAL_Driver/Src/stm32l4xx_hal_spi.c **** 
 559:Drivers/STM32L4xx_HAL_Driver/Src/stm32l4xx_hal_spi.c **** #if (USE_HAL_SPI_REGISTER_CALLBACKS == 1U)
 560:Drivers/STM32L4xx_HAL_Driver/Src/stm32l4xx_hal_spi.c **** /**
 561:Drivers/STM32L4xx_HAL_Driver/Src/stm32l4xx_hal_spi.c ****   * @brief  Register a User SPI Callback
 562:Drivers/STM32L4xx_HAL_Driver/Src/stm32l4xx_hal_spi.c ****   *         To be used instead of the weak predefined callback
 563:Drivers/STM32L4xx_HAL_Driver/Src/stm32l4xx_hal_spi.c ****   * @param  hspi Pointer to a SPI_HandleTypeDef structure that contains
 564:Drivers/STM32L4xx_HAL_Driver/Src/stm32l4xx_hal_spi.c ****   *                the configuration information for the specified SPI.
 565:Drivers/STM32L4xx_HAL_Driver/Src/stm32l4xx_hal_spi.c ****   * @param  CallbackID ID of the callback to be registered
 566:Drivers/STM32L4xx_HAL_Driver/Src/stm32l4xx_hal_spi.c ****   * @param  pCallback pointer to the Callback function
 567:Drivers/STM32L4xx_HAL_Driver/Src/stm32l4xx_hal_spi.c ****   * @retval HAL status
 568:Drivers/STM32L4xx_HAL_Driver/Src/stm32l4xx_hal_spi.c ****   */
 569:Drivers/STM32L4xx_HAL_Driver/Src/stm32l4xx_hal_spi.c **** HAL_StatusTypeDef HAL_SPI_RegisterCallback(SPI_HandleTypeDef *hspi, HAL_SPI_CallbackIDTypeDef Callb
 570:Drivers/STM32L4xx_HAL_Driver/Src/stm32l4xx_hal_spi.c ****                                            pSPI_CallbackTypeDef pCallback)
 571:Drivers/STM32L4xx_HAL_Driver/Src/stm32l4xx_hal_spi.c **** {
 572:Drivers/STM32L4xx_HAL_Driver/Src/stm32l4xx_hal_spi.c ****   HAL_StatusTypeDef status = HAL_OK;
 573:Drivers/STM32L4xx_HAL_Driver/Src/stm32l4xx_hal_spi.c **** 
 574:Drivers/STM32L4xx_HAL_Driver/Src/stm32l4xx_hal_spi.c ****   if (pCallback == NULL)
 575:Drivers/STM32L4xx_HAL_Driver/Src/stm32l4xx_hal_spi.c ****   {
 576:Drivers/STM32L4xx_HAL_Driver/Src/stm32l4xx_hal_spi.c ****     /* Update the error code */
 577:Drivers/STM32L4xx_HAL_Driver/Src/stm32l4xx_hal_spi.c ****     hspi->ErrorCode |= HAL_SPI_ERROR_INVALID_CALLBACK;
 578:Drivers/STM32L4xx_HAL_Driver/Src/stm32l4xx_hal_spi.c **** 
 579:Drivers/STM32L4xx_HAL_Driver/Src/stm32l4xx_hal_spi.c ****     return HAL_ERROR;
 580:Drivers/STM32L4xx_HAL_Driver/Src/stm32l4xx_hal_spi.c ****   }
 581:Drivers/STM32L4xx_HAL_Driver/Src/stm32l4xx_hal_spi.c ****   /* Process locked */
 582:Drivers/STM32L4xx_HAL_Driver/Src/stm32l4xx_hal_spi.c ****   __HAL_LOCK(hspi);
 583:Drivers/STM32L4xx_HAL_Driver/Src/stm32l4xx_hal_spi.c **** 
 584:Drivers/STM32L4xx_HAL_Driver/Src/stm32l4xx_hal_spi.c ****   if (HAL_SPI_STATE_READY == hspi->State)
 585:Drivers/STM32L4xx_HAL_Driver/Src/stm32l4xx_hal_spi.c ****   {
 586:Drivers/STM32L4xx_HAL_Driver/Src/stm32l4xx_hal_spi.c ****     switch (CallbackID)
 587:Drivers/STM32L4xx_HAL_Driver/Src/stm32l4xx_hal_spi.c ****     {
 588:Drivers/STM32L4xx_HAL_Driver/Src/stm32l4xx_hal_spi.c ****       case HAL_SPI_TX_COMPLETE_CB_ID :
 589:Drivers/STM32L4xx_HAL_Driver/Src/stm32l4xx_hal_spi.c ****         hspi->TxCpltCallback = pCallback;
 590:Drivers/STM32L4xx_HAL_Driver/Src/stm32l4xx_hal_spi.c ****         break;
 591:Drivers/STM32L4xx_HAL_Driver/Src/stm32l4xx_hal_spi.c **** 
 592:Drivers/STM32L4xx_HAL_Driver/Src/stm32l4xx_hal_spi.c ****       case HAL_SPI_RX_COMPLETE_CB_ID :
 593:Drivers/STM32L4xx_HAL_Driver/Src/stm32l4xx_hal_spi.c ****         hspi->RxCpltCallback = pCallback;
 594:Drivers/STM32L4xx_HAL_Driver/Src/stm32l4xx_hal_spi.c ****         break;
 595:Drivers/STM32L4xx_HAL_Driver/Src/stm32l4xx_hal_spi.c **** 
 596:Drivers/STM32L4xx_HAL_Driver/Src/stm32l4xx_hal_spi.c ****       case HAL_SPI_TX_RX_COMPLETE_CB_ID :
 597:Drivers/STM32L4xx_HAL_Driver/Src/stm32l4xx_hal_spi.c ****         hspi->TxRxCpltCallback = pCallback;
 598:Drivers/STM32L4xx_HAL_Driver/Src/stm32l4xx_hal_spi.c ****         break;
 599:Drivers/STM32L4xx_HAL_Driver/Src/stm32l4xx_hal_spi.c **** 
 600:Drivers/STM32L4xx_HAL_Driver/Src/stm32l4xx_hal_spi.c ****       case HAL_SPI_TX_HALF_COMPLETE_CB_ID :
 601:Drivers/STM32L4xx_HAL_Driver/Src/stm32l4xx_hal_spi.c ****         hspi->TxHalfCpltCallback = pCallback;
 602:Drivers/STM32L4xx_HAL_Driver/Src/stm32l4xx_hal_spi.c ****         break;
 603:Drivers/STM32L4xx_HAL_Driver/Src/stm32l4xx_hal_spi.c **** 
 604:Drivers/STM32L4xx_HAL_Driver/Src/stm32l4xx_hal_spi.c ****       case HAL_SPI_RX_HALF_COMPLETE_CB_ID :
 605:Drivers/STM32L4xx_HAL_Driver/Src/stm32l4xx_hal_spi.c ****         hspi->RxHalfCpltCallback = pCallback;
 606:Drivers/STM32L4xx_HAL_Driver/Src/stm32l4xx_hal_spi.c ****         break;
 607:Drivers/STM32L4xx_HAL_Driver/Src/stm32l4xx_hal_spi.c **** 
ARM GAS  C:\Users\Morroway\AppData\Local\Temp\ccCQJjHM.s 			page 18


 608:Drivers/STM32L4xx_HAL_Driver/Src/stm32l4xx_hal_spi.c ****       case HAL_SPI_TX_RX_HALF_COMPLETE_CB_ID :
 609:Drivers/STM32L4xx_HAL_Driver/Src/stm32l4xx_hal_spi.c ****         hspi->TxRxHalfCpltCallback = pCallback;
 610:Drivers/STM32L4xx_HAL_Driver/Src/stm32l4xx_hal_spi.c ****         break;
 611:Drivers/STM32L4xx_HAL_Driver/Src/stm32l4xx_hal_spi.c **** 
 612:Drivers/STM32L4xx_HAL_Driver/Src/stm32l4xx_hal_spi.c ****       case HAL_SPI_ERROR_CB_ID :
 613:Drivers/STM32L4xx_HAL_Driver/Src/stm32l4xx_hal_spi.c ****         hspi->ErrorCallback = pCallback;
 614:Drivers/STM32L4xx_HAL_Driver/Src/stm32l4xx_hal_spi.c ****         break;
 615:Drivers/STM32L4xx_HAL_Driver/Src/stm32l4xx_hal_spi.c **** 
 616:Drivers/STM32L4xx_HAL_Driver/Src/stm32l4xx_hal_spi.c ****       case HAL_SPI_ABORT_CB_ID :
 617:Drivers/STM32L4xx_HAL_Driver/Src/stm32l4xx_hal_spi.c ****         hspi->AbortCpltCallback = pCallback;
 618:Drivers/STM32L4xx_HAL_Driver/Src/stm32l4xx_hal_spi.c ****         break;
 619:Drivers/STM32L4xx_HAL_Driver/Src/stm32l4xx_hal_spi.c **** 
 620:Drivers/STM32L4xx_HAL_Driver/Src/stm32l4xx_hal_spi.c ****       case HAL_SPI_MSPINIT_CB_ID :
 621:Drivers/STM32L4xx_HAL_Driver/Src/stm32l4xx_hal_spi.c ****         hspi->MspInitCallback = pCallback;
 622:Drivers/STM32L4xx_HAL_Driver/Src/stm32l4xx_hal_spi.c ****         break;
 623:Drivers/STM32L4xx_HAL_Driver/Src/stm32l4xx_hal_spi.c **** 
 624:Drivers/STM32L4xx_HAL_Driver/Src/stm32l4xx_hal_spi.c ****       case HAL_SPI_MSPDEINIT_CB_ID :
 625:Drivers/STM32L4xx_HAL_Driver/Src/stm32l4xx_hal_spi.c ****         hspi->MspDeInitCallback = pCallback;
 626:Drivers/STM32L4xx_HAL_Driver/Src/stm32l4xx_hal_spi.c ****         break;
 627:Drivers/STM32L4xx_HAL_Driver/Src/stm32l4xx_hal_spi.c **** 
 628:Drivers/STM32L4xx_HAL_Driver/Src/stm32l4xx_hal_spi.c ****       default :
 629:Drivers/STM32L4xx_HAL_Driver/Src/stm32l4xx_hal_spi.c ****         /* Update the error code */
 630:Drivers/STM32L4xx_HAL_Driver/Src/stm32l4xx_hal_spi.c ****         SET_BIT(hspi->ErrorCode, HAL_SPI_ERROR_INVALID_CALLBACK);
 631:Drivers/STM32L4xx_HAL_Driver/Src/stm32l4xx_hal_spi.c **** 
 632:Drivers/STM32L4xx_HAL_Driver/Src/stm32l4xx_hal_spi.c ****         /* Return error status */
 633:Drivers/STM32L4xx_HAL_Driver/Src/stm32l4xx_hal_spi.c ****         status =  HAL_ERROR;
 634:Drivers/STM32L4xx_HAL_Driver/Src/stm32l4xx_hal_spi.c ****         break;
 635:Drivers/STM32L4xx_HAL_Driver/Src/stm32l4xx_hal_spi.c ****     }
 636:Drivers/STM32L4xx_HAL_Driver/Src/stm32l4xx_hal_spi.c ****   }
 637:Drivers/STM32L4xx_HAL_Driver/Src/stm32l4xx_hal_spi.c ****   else if (HAL_SPI_STATE_RESET == hspi->State)
 638:Drivers/STM32L4xx_HAL_Driver/Src/stm32l4xx_hal_spi.c ****   {
 639:Drivers/STM32L4xx_HAL_Driver/Src/stm32l4xx_hal_spi.c ****     switch (CallbackID)
 640:Drivers/STM32L4xx_HAL_Driver/Src/stm32l4xx_hal_spi.c ****     {
 641:Drivers/STM32L4xx_HAL_Driver/Src/stm32l4xx_hal_spi.c ****       case HAL_SPI_MSPINIT_CB_ID :
 642:Drivers/STM32L4xx_HAL_Driver/Src/stm32l4xx_hal_spi.c ****         hspi->MspInitCallback = pCallback;
 643:Drivers/STM32L4xx_HAL_Driver/Src/stm32l4xx_hal_spi.c ****         break;
 644:Drivers/STM32L4xx_HAL_Driver/Src/stm32l4xx_hal_spi.c **** 
 645:Drivers/STM32L4xx_HAL_Driver/Src/stm32l4xx_hal_spi.c ****       case HAL_SPI_MSPDEINIT_CB_ID :
 646:Drivers/STM32L4xx_HAL_Driver/Src/stm32l4xx_hal_spi.c ****         hspi->MspDeInitCallback = pCallback;
 647:Drivers/STM32L4xx_HAL_Driver/Src/stm32l4xx_hal_spi.c ****         break;
 648:Drivers/STM32L4xx_HAL_Driver/Src/stm32l4xx_hal_spi.c **** 
 649:Drivers/STM32L4xx_HAL_Driver/Src/stm32l4xx_hal_spi.c ****       default :
 650:Drivers/STM32L4xx_HAL_Driver/Src/stm32l4xx_hal_spi.c ****         /* Update the error code */
 651:Drivers/STM32L4xx_HAL_Driver/Src/stm32l4xx_hal_spi.c ****         SET_BIT(hspi->ErrorCode, HAL_SPI_ERROR_INVALID_CALLBACK);
 652:Drivers/STM32L4xx_HAL_Driver/Src/stm32l4xx_hal_spi.c **** 
 653:Drivers/STM32L4xx_HAL_Driver/Src/stm32l4xx_hal_spi.c ****         /* Return error status */
 654:Drivers/STM32L4xx_HAL_Driver/Src/stm32l4xx_hal_spi.c ****         status =  HAL_ERROR;
 655:Drivers/STM32L4xx_HAL_Driver/Src/stm32l4xx_hal_spi.c ****         break;
 656:Drivers/STM32L4xx_HAL_Driver/Src/stm32l4xx_hal_spi.c ****     }
 657:Drivers/STM32L4xx_HAL_Driver/Src/stm32l4xx_hal_spi.c ****   }
 658:Drivers/STM32L4xx_HAL_Driver/Src/stm32l4xx_hal_spi.c ****   else
 659:Drivers/STM32L4xx_HAL_Driver/Src/stm32l4xx_hal_spi.c ****   {
 660:Drivers/STM32L4xx_HAL_Driver/Src/stm32l4xx_hal_spi.c ****     /* Update the error code */
 661:Drivers/STM32L4xx_HAL_Driver/Src/stm32l4xx_hal_spi.c ****     SET_BIT(hspi->ErrorCode, HAL_SPI_ERROR_INVALID_CALLBACK);
 662:Drivers/STM32L4xx_HAL_Driver/Src/stm32l4xx_hal_spi.c **** 
 663:Drivers/STM32L4xx_HAL_Driver/Src/stm32l4xx_hal_spi.c ****     /* Return error status */
 664:Drivers/STM32L4xx_HAL_Driver/Src/stm32l4xx_hal_spi.c ****     status =  HAL_ERROR;
ARM GAS  C:\Users\Morroway\AppData\Local\Temp\ccCQJjHM.s 			page 19


 665:Drivers/STM32L4xx_HAL_Driver/Src/stm32l4xx_hal_spi.c ****   }
 666:Drivers/STM32L4xx_HAL_Driver/Src/stm32l4xx_hal_spi.c **** 
 667:Drivers/STM32L4xx_HAL_Driver/Src/stm32l4xx_hal_spi.c ****   /* Release Lock */
 668:Drivers/STM32L4xx_HAL_Driver/Src/stm32l4xx_hal_spi.c ****   __HAL_UNLOCK(hspi);
 669:Drivers/STM32L4xx_HAL_Driver/Src/stm32l4xx_hal_spi.c ****   return status;
 670:Drivers/STM32L4xx_HAL_Driver/Src/stm32l4xx_hal_spi.c **** }
 671:Drivers/STM32L4xx_HAL_Driver/Src/stm32l4xx_hal_spi.c **** 
 672:Drivers/STM32L4xx_HAL_Driver/Src/stm32l4xx_hal_spi.c **** /**
 673:Drivers/STM32L4xx_HAL_Driver/Src/stm32l4xx_hal_spi.c ****   * @brief  Unregister an SPI Callback
 674:Drivers/STM32L4xx_HAL_Driver/Src/stm32l4xx_hal_spi.c ****   *         SPI callback is redirected to the weak predefined callback
 675:Drivers/STM32L4xx_HAL_Driver/Src/stm32l4xx_hal_spi.c ****   * @param  hspi Pointer to a SPI_HandleTypeDef structure that contains
 676:Drivers/STM32L4xx_HAL_Driver/Src/stm32l4xx_hal_spi.c ****   *                the configuration information for the specified SPI.
 677:Drivers/STM32L4xx_HAL_Driver/Src/stm32l4xx_hal_spi.c ****   * @param  CallbackID ID of the callback to be unregistered
 678:Drivers/STM32L4xx_HAL_Driver/Src/stm32l4xx_hal_spi.c ****   * @retval HAL status
 679:Drivers/STM32L4xx_HAL_Driver/Src/stm32l4xx_hal_spi.c ****   */
 680:Drivers/STM32L4xx_HAL_Driver/Src/stm32l4xx_hal_spi.c **** HAL_StatusTypeDef HAL_SPI_UnRegisterCallback(SPI_HandleTypeDef *hspi, HAL_SPI_CallbackIDTypeDef Cal
 681:Drivers/STM32L4xx_HAL_Driver/Src/stm32l4xx_hal_spi.c **** {
 682:Drivers/STM32L4xx_HAL_Driver/Src/stm32l4xx_hal_spi.c ****   HAL_StatusTypeDef status = HAL_OK;
 683:Drivers/STM32L4xx_HAL_Driver/Src/stm32l4xx_hal_spi.c **** 
 684:Drivers/STM32L4xx_HAL_Driver/Src/stm32l4xx_hal_spi.c ****   /* Process locked */
 685:Drivers/STM32L4xx_HAL_Driver/Src/stm32l4xx_hal_spi.c ****   __HAL_LOCK(hspi);
 686:Drivers/STM32L4xx_HAL_Driver/Src/stm32l4xx_hal_spi.c **** 
 687:Drivers/STM32L4xx_HAL_Driver/Src/stm32l4xx_hal_spi.c ****   if (HAL_SPI_STATE_READY == hspi->State)
 688:Drivers/STM32L4xx_HAL_Driver/Src/stm32l4xx_hal_spi.c ****   {
 689:Drivers/STM32L4xx_HAL_Driver/Src/stm32l4xx_hal_spi.c ****     switch (CallbackID)
 690:Drivers/STM32L4xx_HAL_Driver/Src/stm32l4xx_hal_spi.c ****     {
 691:Drivers/STM32L4xx_HAL_Driver/Src/stm32l4xx_hal_spi.c ****       case HAL_SPI_TX_COMPLETE_CB_ID :
 692:Drivers/STM32L4xx_HAL_Driver/Src/stm32l4xx_hal_spi.c ****         hspi->TxCpltCallback = HAL_SPI_TxCpltCallback;             /* Legacy weak TxCpltCallback   
 693:Drivers/STM32L4xx_HAL_Driver/Src/stm32l4xx_hal_spi.c ****         break;
 694:Drivers/STM32L4xx_HAL_Driver/Src/stm32l4xx_hal_spi.c **** 
 695:Drivers/STM32L4xx_HAL_Driver/Src/stm32l4xx_hal_spi.c ****       case HAL_SPI_RX_COMPLETE_CB_ID :
 696:Drivers/STM32L4xx_HAL_Driver/Src/stm32l4xx_hal_spi.c ****         hspi->RxCpltCallback = HAL_SPI_RxCpltCallback;             /* Legacy weak RxCpltCallback   
 697:Drivers/STM32L4xx_HAL_Driver/Src/stm32l4xx_hal_spi.c ****         break;
 698:Drivers/STM32L4xx_HAL_Driver/Src/stm32l4xx_hal_spi.c **** 
 699:Drivers/STM32L4xx_HAL_Driver/Src/stm32l4xx_hal_spi.c ****       case HAL_SPI_TX_RX_COMPLETE_CB_ID :
 700:Drivers/STM32L4xx_HAL_Driver/Src/stm32l4xx_hal_spi.c ****         hspi->TxRxCpltCallback = HAL_SPI_TxRxCpltCallback;         /* Legacy weak TxRxCpltCallback 
 701:Drivers/STM32L4xx_HAL_Driver/Src/stm32l4xx_hal_spi.c ****         break;
 702:Drivers/STM32L4xx_HAL_Driver/Src/stm32l4xx_hal_spi.c **** 
 703:Drivers/STM32L4xx_HAL_Driver/Src/stm32l4xx_hal_spi.c ****       case HAL_SPI_TX_HALF_COMPLETE_CB_ID :
 704:Drivers/STM32L4xx_HAL_Driver/Src/stm32l4xx_hal_spi.c ****         hspi->TxHalfCpltCallback = HAL_SPI_TxHalfCpltCallback;     /* Legacy weak TxHalfCpltCallbac
 705:Drivers/STM32L4xx_HAL_Driver/Src/stm32l4xx_hal_spi.c ****         break;
 706:Drivers/STM32L4xx_HAL_Driver/Src/stm32l4xx_hal_spi.c **** 
 707:Drivers/STM32L4xx_HAL_Driver/Src/stm32l4xx_hal_spi.c ****       case HAL_SPI_RX_HALF_COMPLETE_CB_ID :
 708:Drivers/STM32L4xx_HAL_Driver/Src/stm32l4xx_hal_spi.c ****         hspi->RxHalfCpltCallback = HAL_SPI_RxHalfCpltCallback;     /* Legacy weak RxHalfCpltCallbac
 709:Drivers/STM32L4xx_HAL_Driver/Src/stm32l4xx_hal_spi.c ****         break;
 710:Drivers/STM32L4xx_HAL_Driver/Src/stm32l4xx_hal_spi.c **** 
 711:Drivers/STM32L4xx_HAL_Driver/Src/stm32l4xx_hal_spi.c ****       case HAL_SPI_TX_RX_HALF_COMPLETE_CB_ID :
 712:Drivers/STM32L4xx_HAL_Driver/Src/stm32l4xx_hal_spi.c ****         hspi->TxRxHalfCpltCallback = HAL_SPI_TxRxHalfCpltCallback; /* Legacy weak TxRxHalfCpltCallb
 713:Drivers/STM32L4xx_HAL_Driver/Src/stm32l4xx_hal_spi.c ****         break;
 714:Drivers/STM32L4xx_HAL_Driver/Src/stm32l4xx_hal_spi.c **** 
 715:Drivers/STM32L4xx_HAL_Driver/Src/stm32l4xx_hal_spi.c ****       case HAL_SPI_ERROR_CB_ID :
 716:Drivers/STM32L4xx_HAL_Driver/Src/stm32l4xx_hal_spi.c ****         hspi->ErrorCallback = HAL_SPI_ErrorCallback;               /* Legacy weak ErrorCallback    
 717:Drivers/STM32L4xx_HAL_Driver/Src/stm32l4xx_hal_spi.c ****         break;
 718:Drivers/STM32L4xx_HAL_Driver/Src/stm32l4xx_hal_spi.c **** 
 719:Drivers/STM32L4xx_HAL_Driver/Src/stm32l4xx_hal_spi.c ****       case HAL_SPI_ABORT_CB_ID :
 720:Drivers/STM32L4xx_HAL_Driver/Src/stm32l4xx_hal_spi.c ****         hspi->AbortCpltCallback = HAL_SPI_AbortCpltCallback;       /* Legacy weak AbortCpltCallback
 721:Drivers/STM32L4xx_HAL_Driver/Src/stm32l4xx_hal_spi.c ****         break;
ARM GAS  C:\Users\Morroway\AppData\Local\Temp\ccCQJjHM.s 			page 20


 722:Drivers/STM32L4xx_HAL_Driver/Src/stm32l4xx_hal_spi.c **** 
 723:Drivers/STM32L4xx_HAL_Driver/Src/stm32l4xx_hal_spi.c ****       case HAL_SPI_MSPINIT_CB_ID :
 724:Drivers/STM32L4xx_HAL_Driver/Src/stm32l4xx_hal_spi.c ****         hspi->MspInitCallback = HAL_SPI_MspInit;                   /* Legacy weak MspInit          
 725:Drivers/STM32L4xx_HAL_Driver/Src/stm32l4xx_hal_spi.c ****         break;
 726:Drivers/STM32L4xx_HAL_Driver/Src/stm32l4xx_hal_spi.c **** 
 727:Drivers/STM32L4xx_HAL_Driver/Src/stm32l4xx_hal_spi.c ****       case HAL_SPI_MSPDEINIT_CB_ID :
 728:Drivers/STM32L4xx_HAL_Driver/Src/stm32l4xx_hal_spi.c ****         hspi->MspDeInitCallback = HAL_SPI_MspDeInit;               /* Legacy weak MspDeInit        
 729:Drivers/STM32L4xx_HAL_Driver/Src/stm32l4xx_hal_spi.c ****         break;
 730:Drivers/STM32L4xx_HAL_Driver/Src/stm32l4xx_hal_spi.c **** 
 731:Drivers/STM32L4xx_HAL_Driver/Src/stm32l4xx_hal_spi.c ****       default :
 732:Drivers/STM32L4xx_HAL_Driver/Src/stm32l4xx_hal_spi.c ****         /* Update the error code */
 733:Drivers/STM32L4xx_HAL_Driver/Src/stm32l4xx_hal_spi.c ****         SET_BIT(hspi->ErrorCode, HAL_SPI_ERROR_INVALID_CALLBACK);
 734:Drivers/STM32L4xx_HAL_Driver/Src/stm32l4xx_hal_spi.c **** 
 735:Drivers/STM32L4xx_HAL_Driver/Src/stm32l4xx_hal_spi.c ****         /* Return error status */
 736:Drivers/STM32L4xx_HAL_Driver/Src/stm32l4xx_hal_spi.c ****         status =  HAL_ERROR;
 737:Drivers/STM32L4xx_HAL_Driver/Src/stm32l4xx_hal_spi.c ****         break;
 738:Drivers/STM32L4xx_HAL_Driver/Src/stm32l4xx_hal_spi.c ****     }
 739:Drivers/STM32L4xx_HAL_Driver/Src/stm32l4xx_hal_spi.c ****   }
 740:Drivers/STM32L4xx_HAL_Driver/Src/stm32l4xx_hal_spi.c ****   else if (HAL_SPI_STATE_RESET == hspi->State)
 741:Drivers/STM32L4xx_HAL_Driver/Src/stm32l4xx_hal_spi.c ****   {
 742:Drivers/STM32L4xx_HAL_Driver/Src/stm32l4xx_hal_spi.c ****     switch (CallbackID)
 743:Drivers/STM32L4xx_HAL_Driver/Src/stm32l4xx_hal_spi.c ****     {
 744:Drivers/STM32L4xx_HAL_Driver/Src/stm32l4xx_hal_spi.c ****       case HAL_SPI_MSPINIT_CB_ID :
 745:Drivers/STM32L4xx_HAL_Driver/Src/stm32l4xx_hal_spi.c ****         hspi->MspInitCallback = HAL_SPI_MspInit;                   /* Legacy weak MspInit          
 746:Drivers/STM32L4xx_HAL_Driver/Src/stm32l4xx_hal_spi.c ****         break;
 747:Drivers/STM32L4xx_HAL_Driver/Src/stm32l4xx_hal_spi.c **** 
 748:Drivers/STM32L4xx_HAL_Driver/Src/stm32l4xx_hal_spi.c ****       case HAL_SPI_MSPDEINIT_CB_ID :
 749:Drivers/STM32L4xx_HAL_Driver/Src/stm32l4xx_hal_spi.c ****         hspi->MspDeInitCallback = HAL_SPI_MspDeInit;               /* Legacy weak MspDeInit        
 750:Drivers/STM32L4xx_HAL_Driver/Src/stm32l4xx_hal_spi.c ****         break;
 751:Drivers/STM32L4xx_HAL_Driver/Src/stm32l4xx_hal_spi.c **** 
 752:Drivers/STM32L4xx_HAL_Driver/Src/stm32l4xx_hal_spi.c ****       default :
 753:Drivers/STM32L4xx_HAL_Driver/Src/stm32l4xx_hal_spi.c ****         /* Update the error code */
 754:Drivers/STM32L4xx_HAL_Driver/Src/stm32l4xx_hal_spi.c ****         SET_BIT(hspi->ErrorCode, HAL_SPI_ERROR_INVALID_CALLBACK);
 755:Drivers/STM32L4xx_HAL_Driver/Src/stm32l4xx_hal_spi.c **** 
 756:Drivers/STM32L4xx_HAL_Driver/Src/stm32l4xx_hal_spi.c ****         /* Return error status */
 757:Drivers/STM32L4xx_HAL_Driver/Src/stm32l4xx_hal_spi.c ****         status =  HAL_ERROR;
 758:Drivers/STM32L4xx_HAL_Driver/Src/stm32l4xx_hal_spi.c ****         break;
 759:Drivers/STM32L4xx_HAL_Driver/Src/stm32l4xx_hal_spi.c ****     }
 760:Drivers/STM32L4xx_HAL_Driver/Src/stm32l4xx_hal_spi.c ****   }
 761:Drivers/STM32L4xx_HAL_Driver/Src/stm32l4xx_hal_spi.c ****   else
 762:Drivers/STM32L4xx_HAL_Driver/Src/stm32l4xx_hal_spi.c ****   {
 763:Drivers/STM32L4xx_HAL_Driver/Src/stm32l4xx_hal_spi.c ****     /* Update the error code */
 764:Drivers/STM32L4xx_HAL_Driver/Src/stm32l4xx_hal_spi.c ****     SET_BIT(hspi->ErrorCode, HAL_SPI_ERROR_INVALID_CALLBACK);
 765:Drivers/STM32L4xx_HAL_Driver/Src/stm32l4xx_hal_spi.c **** 
 766:Drivers/STM32L4xx_HAL_Driver/Src/stm32l4xx_hal_spi.c ****     /* Return error status */
 767:Drivers/STM32L4xx_HAL_Driver/Src/stm32l4xx_hal_spi.c ****     status =  HAL_ERROR;
 768:Drivers/STM32L4xx_HAL_Driver/Src/stm32l4xx_hal_spi.c ****   }
 769:Drivers/STM32L4xx_HAL_Driver/Src/stm32l4xx_hal_spi.c **** 
 770:Drivers/STM32L4xx_HAL_Driver/Src/stm32l4xx_hal_spi.c ****   /* Release Lock */
 771:Drivers/STM32L4xx_HAL_Driver/Src/stm32l4xx_hal_spi.c ****   __HAL_UNLOCK(hspi);
 772:Drivers/STM32L4xx_HAL_Driver/Src/stm32l4xx_hal_spi.c ****   return status;
 773:Drivers/STM32L4xx_HAL_Driver/Src/stm32l4xx_hal_spi.c **** }
 774:Drivers/STM32L4xx_HAL_Driver/Src/stm32l4xx_hal_spi.c **** #endif /* USE_HAL_SPI_REGISTER_CALLBACKS */
 775:Drivers/STM32L4xx_HAL_Driver/Src/stm32l4xx_hal_spi.c **** /**
 776:Drivers/STM32L4xx_HAL_Driver/Src/stm32l4xx_hal_spi.c ****   * @}
 777:Drivers/STM32L4xx_HAL_Driver/Src/stm32l4xx_hal_spi.c ****   */
 778:Drivers/STM32L4xx_HAL_Driver/Src/stm32l4xx_hal_spi.c **** 
ARM GAS  C:\Users\Morroway\AppData\Local\Temp\ccCQJjHM.s 			page 21


 779:Drivers/STM32L4xx_HAL_Driver/Src/stm32l4xx_hal_spi.c **** /** @defgroup SPI_Exported_Functions_Group2 IO operation functions
 780:Drivers/STM32L4xx_HAL_Driver/Src/stm32l4xx_hal_spi.c ****   *  @brief   Data transfers functions
 781:Drivers/STM32L4xx_HAL_Driver/Src/stm32l4xx_hal_spi.c ****   *
 782:Drivers/STM32L4xx_HAL_Driver/Src/stm32l4xx_hal_spi.c **** @verbatim
 783:Drivers/STM32L4xx_HAL_Driver/Src/stm32l4xx_hal_spi.c ****   ==============================================================================
 784:Drivers/STM32L4xx_HAL_Driver/Src/stm32l4xx_hal_spi.c ****                       ##### IO operation functions #####
 785:Drivers/STM32L4xx_HAL_Driver/Src/stm32l4xx_hal_spi.c ****  ===============================================================================
 786:Drivers/STM32L4xx_HAL_Driver/Src/stm32l4xx_hal_spi.c ****  [..]
 787:Drivers/STM32L4xx_HAL_Driver/Src/stm32l4xx_hal_spi.c ****     This subsection provides a set of functions allowing to manage the SPI
 788:Drivers/STM32L4xx_HAL_Driver/Src/stm32l4xx_hal_spi.c ****     data transfers.
 789:Drivers/STM32L4xx_HAL_Driver/Src/stm32l4xx_hal_spi.c **** 
 790:Drivers/STM32L4xx_HAL_Driver/Src/stm32l4xx_hal_spi.c ****     [..] The SPI supports master and slave mode :
 791:Drivers/STM32L4xx_HAL_Driver/Src/stm32l4xx_hal_spi.c **** 
 792:Drivers/STM32L4xx_HAL_Driver/Src/stm32l4xx_hal_spi.c ****     (#) There are two modes of transfer:
 793:Drivers/STM32L4xx_HAL_Driver/Src/stm32l4xx_hal_spi.c ****        (++) Blocking mode: The communication is performed in polling mode.
 794:Drivers/STM32L4xx_HAL_Driver/Src/stm32l4xx_hal_spi.c ****             The HAL status of all data processing is returned by the same function
 795:Drivers/STM32L4xx_HAL_Driver/Src/stm32l4xx_hal_spi.c ****             after finishing transfer.
 796:Drivers/STM32L4xx_HAL_Driver/Src/stm32l4xx_hal_spi.c ****        (++) No-Blocking mode: The communication is performed using Interrupts
 797:Drivers/STM32L4xx_HAL_Driver/Src/stm32l4xx_hal_spi.c ****             or DMA, These APIs return the HAL status.
 798:Drivers/STM32L4xx_HAL_Driver/Src/stm32l4xx_hal_spi.c ****             The end of the data processing will be indicated through the
 799:Drivers/STM32L4xx_HAL_Driver/Src/stm32l4xx_hal_spi.c ****             dedicated SPI IRQ when using Interrupt mode or the DMA IRQ when
 800:Drivers/STM32L4xx_HAL_Driver/Src/stm32l4xx_hal_spi.c ****             using DMA mode.
 801:Drivers/STM32L4xx_HAL_Driver/Src/stm32l4xx_hal_spi.c ****             The HAL_SPI_TxCpltCallback(), HAL_SPI_RxCpltCallback() and HAL_SPI_TxRxCpltCallback() u
 802:Drivers/STM32L4xx_HAL_Driver/Src/stm32l4xx_hal_spi.c ****             will be executed respectively at the end of the transmit or Receive process
 803:Drivers/STM32L4xx_HAL_Driver/Src/stm32l4xx_hal_spi.c ****             The HAL_SPI_ErrorCallback()user callback will be executed when a communication error is
 804:Drivers/STM32L4xx_HAL_Driver/Src/stm32l4xx_hal_spi.c **** 
 805:Drivers/STM32L4xx_HAL_Driver/Src/stm32l4xx_hal_spi.c ****     (#) APIs provided for these 2 transfer modes (Blocking mode or Non blocking mode using either I
 806:Drivers/STM32L4xx_HAL_Driver/Src/stm32l4xx_hal_spi.c ****         exist for 1Line (simplex) and 2Lines (full duplex) modes.
 807:Drivers/STM32L4xx_HAL_Driver/Src/stm32l4xx_hal_spi.c **** 
 808:Drivers/STM32L4xx_HAL_Driver/Src/stm32l4xx_hal_spi.c **** @endverbatim
 809:Drivers/STM32L4xx_HAL_Driver/Src/stm32l4xx_hal_spi.c ****   * @{
 810:Drivers/STM32L4xx_HAL_Driver/Src/stm32l4xx_hal_spi.c ****   */
 811:Drivers/STM32L4xx_HAL_Driver/Src/stm32l4xx_hal_spi.c **** 
 812:Drivers/STM32L4xx_HAL_Driver/Src/stm32l4xx_hal_spi.c **** /**
 813:Drivers/STM32L4xx_HAL_Driver/Src/stm32l4xx_hal_spi.c ****   * @brief  Transmit an amount of data in blocking mode.
 814:Drivers/STM32L4xx_HAL_Driver/Src/stm32l4xx_hal_spi.c ****   * @param  hspi pointer to a SPI_HandleTypeDef structure that contains
 815:Drivers/STM32L4xx_HAL_Driver/Src/stm32l4xx_hal_spi.c ****   *               the configuration information for SPI module.
 816:Drivers/STM32L4xx_HAL_Driver/Src/stm32l4xx_hal_spi.c ****   * @param  pData pointer to data buffer
 817:Drivers/STM32L4xx_HAL_Driver/Src/stm32l4xx_hal_spi.c ****   * @param  Size amount of data to be sent
 818:Drivers/STM32L4xx_HAL_Driver/Src/stm32l4xx_hal_spi.c ****   * @param  Timeout Timeout duration
 819:Drivers/STM32L4xx_HAL_Driver/Src/stm32l4xx_hal_spi.c ****   * @retval HAL status
 820:Drivers/STM32L4xx_HAL_Driver/Src/stm32l4xx_hal_spi.c ****   */
 821:Drivers/STM32L4xx_HAL_Driver/Src/stm32l4xx_hal_spi.c **** HAL_StatusTypeDef HAL_SPI_Transmit(SPI_HandleTypeDef *hspi, uint8_t *pData, uint16_t Size, uint32_t
 822:Drivers/STM32L4xx_HAL_Driver/Src/stm32l4xx_hal_spi.c **** {
 372              		.loc 1 822 1
 373              		.cfi_startproc
 374              		@ args = 0, pretend = 0, frame = 32
 375              		@ frame_needed = 1, uses_anonymous_args = 0
 376 0000 80B5     		push	{r7, lr}
 377              		.cfi_def_cfa_offset 8
 378              		.cfi_offset 7, -8
 379              		.cfi_offset 14, -4
 380 0002 88B0     		sub	sp, sp, #32
 381              		.cfi_def_cfa_offset 40
 382 0004 00AF     		add	r7, sp, #0
 383              		.cfi_def_cfa_register 7
 384 0006 F860     		str	r0, [r7, #12]
ARM GAS  C:\Users\Morroway\AppData\Local\Temp\ccCQJjHM.s 			page 22


 385 0008 B960     		str	r1, [r7, #8]
 386 000a 3B60     		str	r3, [r7]
 387 000c 1346     		mov	r3, r2	@ movhi
 388 000e FB80     		strh	r3, [r7, #6]	@ movhi
 823:Drivers/STM32L4xx_HAL_Driver/Src/stm32l4xx_hal_spi.c ****   uint32_t tickstart;
 824:Drivers/STM32L4xx_HAL_Driver/Src/stm32l4xx_hal_spi.c ****   HAL_StatusTypeDef errorcode = HAL_OK;
 389              		.loc 1 824 21
 390 0010 0023     		movs	r3, #0
 391 0012 FB77     		strb	r3, [r7, #31]
 825:Drivers/STM32L4xx_HAL_Driver/Src/stm32l4xx_hal_spi.c ****   uint16_t initial_TxXferCount;
 826:Drivers/STM32L4xx_HAL_Driver/Src/stm32l4xx_hal_spi.c **** 
 827:Drivers/STM32L4xx_HAL_Driver/Src/stm32l4xx_hal_spi.c ****   /* Check Direction parameter */
 828:Drivers/STM32L4xx_HAL_Driver/Src/stm32l4xx_hal_spi.c ****   assert_param(IS_SPI_DIRECTION_2LINES_OR_1LINE(hspi->Init.Direction));
 829:Drivers/STM32L4xx_HAL_Driver/Src/stm32l4xx_hal_spi.c **** 
 830:Drivers/STM32L4xx_HAL_Driver/Src/stm32l4xx_hal_spi.c ****   /* Process Locked */
 831:Drivers/STM32L4xx_HAL_Driver/Src/stm32l4xx_hal_spi.c ****   __HAL_LOCK(hspi);
 392              		.loc 1 831 3
 393 0014 FB68     		ldr	r3, [r7, #12]
 394 0016 93F85C30 		ldrb	r3, [r3, #92]	@ zero_extendqisi2
 395 001a 012B     		cmp	r3, #1
 396 001c 01D1     		bne	.L16
 397              		.loc 1 831 3 is_stmt 0 discriminator 1
 398 001e 0223     		movs	r3, #2
 399 0020 58E1     		b	.L17
 400              	.L16:
 401              		.loc 1 831 3 discriminator 2
 402 0022 FB68     		ldr	r3, [r7, #12]
 403 0024 0122     		movs	r2, #1
 404 0026 83F85C20 		strb	r2, [r3, #92]
 832:Drivers/STM32L4xx_HAL_Driver/Src/stm32l4xx_hal_spi.c **** 
 833:Drivers/STM32L4xx_HAL_Driver/Src/stm32l4xx_hal_spi.c ****   /* Init tickstart for timeout management*/
 834:Drivers/STM32L4xx_HAL_Driver/Src/stm32l4xx_hal_spi.c ****   tickstart = HAL_GetTick();
 405              		.loc 1 834 15 is_stmt 1 discriminator 2
 406 002a FFF7FEFF 		bl	HAL_GetTick
 407 002e B861     		str	r0, [r7, #24]
 835:Drivers/STM32L4xx_HAL_Driver/Src/stm32l4xx_hal_spi.c ****   initial_TxXferCount = Size;
 408              		.loc 1 835 23 discriminator 2
 409 0030 FB88     		ldrh	r3, [r7, #6]	@ movhi
 410 0032 FB82     		strh	r3, [r7, #22]	@ movhi
 836:Drivers/STM32L4xx_HAL_Driver/Src/stm32l4xx_hal_spi.c **** 
 837:Drivers/STM32L4xx_HAL_Driver/Src/stm32l4xx_hal_spi.c ****   if (hspi->State != HAL_SPI_STATE_READY)
 411              		.loc 1 837 11 discriminator 2
 412 0034 FB68     		ldr	r3, [r7, #12]
 413 0036 93F85D30 		ldrb	r3, [r3, #93]
 414 003a DBB2     		uxtb	r3, r3
 415              		.loc 1 837 6 discriminator 2
 416 003c 012B     		cmp	r3, #1
 417 003e 02D0     		beq	.L18
 838:Drivers/STM32L4xx_HAL_Driver/Src/stm32l4xx_hal_spi.c ****   {
 839:Drivers/STM32L4xx_HAL_Driver/Src/stm32l4xx_hal_spi.c ****     errorcode = HAL_BUSY;
 418              		.loc 1 839 15
 419 0040 0223     		movs	r3, #2
 420 0042 FB77     		strb	r3, [r7, #31]
 840:Drivers/STM32L4xx_HAL_Driver/Src/stm32l4xx_hal_spi.c ****     goto error;
 421              		.loc 1 840 5
 422 0044 3DE1     		b	.L19
 423              	.L18:
ARM GAS  C:\Users\Morroway\AppData\Local\Temp\ccCQJjHM.s 			page 23


 841:Drivers/STM32L4xx_HAL_Driver/Src/stm32l4xx_hal_spi.c ****   }
 842:Drivers/STM32L4xx_HAL_Driver/Src/stm32l4xx_hal_spi.c **** 
 843:Drivers/STM32L4xx_HAL_Driver/Src/stm32l4xx_hal_spi.c ****   if ((pData == NULL) || (Size == 0U))
 424              		.loc 1 843 6
 425 0046 BB68     		ldr	r3, [r7, #8]
 426 0048 002B     		cmp	r3, #0
 427 004a 02D0     		beq	.L20
 428              		.loc 1 843 23 discriminator 1
 429 004c FB88     		ldrh	r3, [r7, #6]
 430 004e 002B     		cmp	r3, #0
 431 0050 02D1     		bne	.L21
 432              	.L20:
 844:Drivers/STM32L4xx_HAL_Driver/Src/stm32l4xx_hal_spi.c ****   {
 845:Drivers/STM32L4xx_HAL_Driver/Src/stm32l4xx_hal_spi.c ****     errorcode = HAL_ERROR;
 433              		.loc 1 845 15
 434 0052 0123     		movs	r3, #1
 435 0054 FB77     		strb	r3, [r7, #31]
 846:Drivers/STM32L4xx_HAL_Driver/Src/stm32l4xx_hal_spi.c ****     goto error;
 436              		.loc 1 846 5
 437 0056 34E1     		b	.L19
 438              	.L21:
 847:Drivers/STM32L4xx_HAL_Driver/Src/stm32l4xx_hal_spi.c ****   }
 848:Drivers/STM32L4xx_HAL_Driver/Src/stm32l4xx_hal_spi.c **** 
 849:Drivers/STM32L4xx_HAL_Driver/Src/stm32l4xx_hal_spi.c ****   /* Set the transaction information */
 850:Drivers/STM32L4xx_HAL_Driver/Src/stm32l4xx_hal_spi.c ****   hspi->State       = HAL_SPI_STATE_BUSY_TX;
 439              		.loc 1 850 21
 440 0058 FB68     		ldr	r3, [r7, #12]
 441 005a 0322     		movs	r2, #3
 442 005c 83F85D20 		strb	r2, [r3, #93]
 851:Drivers/STM32L4xx_HAL_Driver/Src/stm32l4xx_hal_spi.c ****   hspi->ErrorCode   = HAL_SPI_ERROR_NONE;
 443              		.loc 1 851 21
 444 0060 FB68     		ldr	r3, [r7, #12]
 445 0062 0022     		movs	r2, #0
 446 0064 1A66     		str	r2, [r3, #96]
 852:Drivers/STM32L4xx_HAL_Driver/Src/stm32l4xx_hal_spi.c ****   hspi->pTxBuffPtr  = (uint8_t *)pData;
 447              		.loc 1 852 21
 448 0066 FB68     		ldr	r3, [r7, #12]
 449 0068 BA68     		ldr	r2, [r7, #8]
 450 006a 9A63     		str	r2, [r3, #56]
 853:Drivers/STM32L4xx_HAL_Driver/Src/stm32l4xx_hal_spi.c ****   hspi->TxXferSize  = Size;
 451              		.loc 1 853 21
 452 006c FB68     		ldr	r3, [r7, #12]
 453 006e FA88     		ldrh	r2, [r7, #6]	@ movhi
 454 0070 9A87     		strh	r2, [r3, #60]	@ movhi
 854:Drivers/STM32L4xx_HAL_Driver/Src/stm32l4xx_hal_spi.c ****   hspi->TxXferCount = Size;
 455              		.loc 1 854 21
 456 0072 FB68     		ldr	r3, [r7, #12]
 457 0074 FA88     		ldrh	r2, [r7, #6]	@ movhi
 458 0076 DA87     		strh	r2, [r3, #62]	@ movhi
 855:Drivers/STM32L4xx_HAL_Driver/Src/stm32l4xx_hal_spi.c **** 
 856:Drivers/STM32L4xx_HAL_Driver/Src/stm32l4xx_hal_spi.c ****   /*Init field not used in handle to zero */
 857:Drivers/STM32L4xx_HAL_Driver/Src/stm32l4xx_hal_spi.c ****   hspi->pRxBuffPtr  = (uint8_t *)NULL;
 459              		.loc 1 857 21
 460 0078 FB68     		ldr	r3, [r7, #12]
 461 007a 0022     		movs	r2, #0
 462 007c 1A64     		str	r2, [r3, #64]
 858:Drivers/STM32L4xx_HAL_Driver/Src/stm32l4xx_hal_spi.c ****   hspi->RxXferSize  = 0U;
ARM GAS  C:\Users\Morroway\AppData\Local\Temp\ccCQJjHM.s 			page 24


 463              		.loc 1 858 21
 464 007e FB68     		ldr	r3, [r7, #12]
 465 0080 0022     		movs	r2, #0
 466 0082 A3F84420 		strh	r2, [r3, #68]	@ movhi
 859:Drivers/STM32L4xx_HAL_Driver/Src/stm32l4xx_hal_spi.c ****   hspi->RxXferCount = 0U;
 467              		.loc 1 859 21
 468 0086 FB68     		ldr	r3, [r7, #12]
 469 0088 0022     		movs	r2, #0
 470 008a A3F84620 		strh	r2, [r3, #70]	@ movhi
 860:Drivers/STM32L4xx_HAL_Driver/Src/stm32l4xx_hal_spi.c ****   hspi->TxISR       = NULL;
 471              		.loc 1 860 21
 472 008e FB68     		ldr	r3, [r7, #12]
 473 0090 0022     		movs	r2, #0
 474 0092 1A65     		str	r2, [r3, #80]
 861:Drivers/STM32L4xx_HAL_Driver/Src/stm32l4xx_hal_spi.c ****   hspi->RxISR       = NULL;
 475              		.loc 1 861 21
 476 0094 FB68     		ldr	r3, [r7, #12]
 477 0096 0022     		movs	r2, #0
 478 0098 DA64     		str	r2, [r3, #76]
 862:Drivers/STM32L4xx_HAL_Driver/Src/stm32l4xx_hal_spi.c **** 
 863:Drivers/STM32L4xx_HAL_Driver/Src/stm32l4xx_hal_spi.c ****   /* Configure communication direction : 1Line */
 864:Drivers/STM32L4xx_HAL_Driver/Src/stm32l4xx_hal_spi.c ****   if (hspi->Init.Direction == SPI_DIRECTION_1LINE)
 479              		.loc 1 864 17
 480 009a FB68     		ldr	r3, [r7, #12]
 481 009c 9B68     		ldr	r3, [r3, #8]
 482              		.loc 1 864 6
 483 009e B3F5004F 		cmp	r3, #32768
 484 00a2 0FD1     		bne	.L22
 865:Drivers/STM32L4xx_HAL_Driver/Src/stm32l4xx_hal_spi.c ****   {
 866:Drivers/STM32L4xx_HAL_Driver/Src/stm32l4xx_hal_spi.c ****     /* Disable SPI Peripheral before set 1Line direction (BIDIOE bit) */
 867:Drivers/STM32L4xx_HAL_Driver/Src/stm32l4xx_hal_spi.c ****     __HAL_SPI_DISABLE(hspi);
 485              		.loc 1 867 5
 486 00a4 FB68     		ldr	r3, [r7, #12]
 487 00a6 1B68     		ldr	r3, [r3]
 488 00a8 1A68     		ldr	r2, [r3]
 489 00aa FB68     		ldr	r3, [r7, #12]
 490 00ac 1B68     		ldr	r3, [r3]
 491 00ae 22F04002 		bic	r2, r2, #64
 492 00b2 1A60     		str	r2, [r3]
 868:Drivers/STM32L4xx_HAL_Driver/Src/stm32l4xx_hal_spi.c ****     SPI_1LINE_TX(hspi);
 493              		.loc 1 868 5
 494 00b4 FB68     		ldr	r3, [r7, #12]
 495 00b6 1B68     		ldr	r3, [r3]
 496 00b8 1A68     		ldr	r2, [r3]
 497 00ba FB68     		ldr	r3, [r7, #12]
 498 00bc 1B68     		ldr	r3, [r3]
 499 00be 42F48042 		orr	r2, r2, #16384
 500 00c2 1A60     		str	r2, [r3]
 501              	.L22:
 869:Drivers/STM32L4xx_HAL_Driver/Src/stm32l4xx_hal_spi.c ****   }
 870:Drivers/STM32L4xx_HAL_Driver/Src/stm32l4xx_hal_spi.c **** 
 871:Drivers/STM32L4xx_HAL_Driver/Src/stm32l4xx_hal_spi.c **** #if (USE_SPI_CRC != 0U)
 872:Drivers/STM32L4xx_HAL_Driver/Src/stm32l4xx_hal_spi.c ****   /* Reset CRC Calculation */
 873:Drivers/STM32L4xx_HAL_Driver/Src/stm32l4xx_hal_spi.c ****   if (hspi->Init.CRCCalculation == SPI_CRCCALCULATION_ENABLE)
 874:Drivers/STM32L4xx_HAL_Driver/Src/stm32l4xx_hal_spi.c ****   {
 875:Drivers/STM32L4xx_HAL_Driver/Src/stm32l4xx_hal_spi.c ****     SPI_RESET_CRC(hspi);
 876:Drivers/STM32L4xx_HAL_Driver/Src/stm32l4xx_hal_spi.c ****   }
ARM GAS  C:\Users\Morroway\AppData\Local\Temp\ccCQJjHM.s 			page 25


 877:Drivers/STM32L4xx_HAL_Driver/Src/stm32l4xx_hal_spi.c **** #endif /* USE_SPI_CRC */
 878:Drivers/STM32L4xx_HAL_Driver/Src/stm32l4xx_hal_spi.c **** 
 879:Drivers/STM32L4xx_HAL_Driver/Src/stm32l4xx_hal_spi.c ****   /* Check if the SPI is already enabled */
 880:Drivers/STM32L4xx_HAL_Driver/Src/stm32l4xx_hal_spi.c ****   if ((hspi->Instance->CR1 & SPI_CR1_SPE) != SPI_CR1_SPE)
 502              		.loc 1 880 12
 503 00c4 FB68     		ldr	r3, [r7, #12]
 504 00c6 1B68     		ldr	r3, [r3]
 505              		.loc 1 880 22
 506 00c8 1B68     		ldr	r3, [r3]
 507              		.loc 1 880 28
 508 00ca 03F04003 		and	r3, r3, #64
 509              		.loc 1 880 6
 510 00ce 402B     		cmp	r3, #64
 511 00d0 07D0     		beq	.L23
 881:Drivers/STM32L4xx_HAL_Driver/Src/stm32l4xx_hal_spi.c ****   {
 882:Drivers/STM32L4xx_HAL_Driver/Src/stm32l4xx_hal_spi.c ****     /* Enable SPI peripheral */
 883:Drivers/STM32L4xx_HAL_Driver/Src/stm32l4xx_hal_spi.c ****     __HAL_SPI_ENABLE(hspi);
 512              		.loc 1 883 5
 513 00d2 FB68     		ldr	r3, [r7, #12]
 514 00d4 1B68     		ldr	r3, [r3]
 515 00d6 1A68     		ldr	r2, [r3]
 516 00d8 FB68     		ldr	r3, [r7, #12]
 517 00da 1B68     		ldr	r3, [r3]
 518 00dc 42F04002 		orr	r2, r2, #64
 519 00e0 1A60     		str	r2, [r3]
 520              	.L23:
 884:Drivers/STM32L4xx_HAL_Driver/Src/stm32l4xx_hal_spi.c ****   }
 885:Drivers/STM32L4xx_HAL_Driver/Src/stm32l4xx_hal_spi.c **** 
 886:Drivers/STM32L4xx_HAL_Driver/Src/stm32l4xx_hal_spi.c ****   /* Transmit data in 16 Bit mode */
 887:Drivers/STM32L4xx_HAL_Driver/Src/stm32l4xx_hal_spi.c ****   if (hspi->Init.DataSize > SPI_DATASIZE_8BIT)
 521              		.loc 1 887 17
 522 00e2 FB68     		ldr	r3, [r7, #12]
 523 00e4 DB68     		ldr	r3, [r3, #12]
 524              		.loc 1 887 6
 525 00e6 B3F5E06F 		cmp	r3, #1792
 526 00ea 4BD9     		bls	.L24
 888:Drivers/STM32L4xx_HAL_Driver/Src/stm32l4xx_hal_spi.c ****   {
 889:Drivers/STM32L4xx_HAL_Driver/Src/stm32l4xx_hal_spi.c ****     if ((hspi->Init.Mode == SPI_MODE_SLAVE) || (initial_TxXferCount == 0x01U))
 527              		.loc 1 889 20
 528 00ec FB68     		ldr	r3, [r7, #12]
 529 00ee 5B68     		ldr	r3, [r3, #4]
 530              		.loc 1 889 8
 531 00f0 002B     		cmp	r3, #0
 532 00f2 02D0     		beq	.L25
 533              		.loc 1 889 45 discriminator 1
 534 00f4 FB8A     		ldrh	r3, [r7, #22]
 535 00f6 012B     		cmp	r3, #1
 536 00f8 3ED1     		bne	.L27
 537              	.L25:
 890:Drivers/STM32L4xx_HAL_Driver/Src/stm32l4xx_hal_spi.c ****     {
 891:Drivers/STM32L4xx_HAL_Driver/Src/stm32l4xx_hal_spi.c ****       hspi->Instance->DR = *((uint16_t *)hspi->pTxBuffPtr);
 538              		.loc 1 891 46
 539 00fa FB68     		ldr	r3, [r7, #12]
 540 00fc 9B6B     		ldr	r3, [r3, #56]
 541              		.loc 1 891 28
 542 00fe 1A88     		ldrh	r2, [r3]
 543              		.loc 1 891 11
ARM GAS  C:\Users\Morroway\AppData\Local\Temp\ccCQJjHM.s 			page 26


 544 0100 FB68     		ldr	r3, [r7, #12]
 545 0102 1B68     		ldr	r3, [r3]
 546              		.loc 1 891 26
 547 0104 DA60     		str	r2, [r3, #12]
 892:Drivers/STM32L4xx_HAL_Driver/Src/stm32l4xx_hal_spi.c ****       hspi->pTxBuffPtr += sizeof(uint16_t);
 548              		.loc 1 892 24
 549 0106 FB68     		ldr	r3, [r7, #12]
 550 0108 9B6B     		ldr	r3, [r3, #56]
 551 010a 9A1C     		adds	r2, r3, #2
 552 010c FB68     		ldr	r3, [r7, #12]
 553 010e 9A63     		str	r2, [r3, #56]
 893:Drivers/STM32L4xx_HAL_Driver/Src/stm32l4xx_hal_spi.c ****       hspi->TxXferCount--;
 554              		.loc 1 893 11
 555 0110 FB68     		ldr	r3, [r7, #12]
 556 0112 DB8F     		ldrh	r3, [r3, #62]	@ movhi
 557 0114 9BB2     		uxth	r3, r3
 558              		.loc 1 893 24
 559 0116 013B     		subs	r3, r3, #1
 560 0118 9AB2     		uxth	r2, r3
 561 011a FB68     		ldr	r3, [r7, #12]
 562 011c DA87     		strh	r2, [r3, #62]	@ movhi
 894:Drivers/STM32L4xx_HAL_Driver/Src/stm32l4xx_hal_spi.c ****     }
 895:Drivers/STM32L4xx_HAL_Driver/Src/stm32l4xx_hal_spi.c ****     /* Transmit data in 16 Bit mode */
 896:Drivers/STM32L4xx_HAL_Driver/Src/stm32l4xx_hal_spi.c ****     while (hspi->TxXferCount > 0U)
 563              		.loc 1 896 11
 564 011e 2BE0     		b	.L27
 565              	.L31:
 897:Drivers/STM32L4xx_HAL_Driver/Src/stm32l4xx_hal_spi.c ****     {
 898:Drivers/STM32L4xx_HAL_Driver/Src/stm32l4xx_hal_spi.c ****       /* Wait until TXE flag is set to send data */
 899:Drivers/STM32L4xx_HAL_Driver/Src/stm32l4xx_hal_spi.c ****       if (__HAL_SPI_GET_FLAG(hspi, SPI_FLAG_TXE))
 566              		.loc 1 899 11
 567 0120 FB68     		ldr	r3, [r7, #12]
 568 0122 1B68     		ldr	r3, [r3]
 569 0124 9B68     		ldr	r3, [r3, #8]
 570 0126 03F00203 		and	r3, r3, #2
 571              		.loc 1 899 10
 572 012a 022B     		cmp	r3, #2
 573 012c 12D1     		bne	.L28
 900:Drivers/STM32L4xx_HAL_Driver/Src/stm32l4xx_hal_spi.c ****       {
 901:Drivers/STM32L4xx_HAL_Driver/Src/stm32l4xx_hal_spi.c ****         hspi->Instance->DR = *((uint16_t *)hspi->pTxBuffPtr);
 574              		.loc 1 901 48
 575 012e FB68     		ldr	r3, [r7, #12]
 576 0130 9B6B     		ldr	r3, [r3, #56]
 577              		.loc 1 901 30
 578 0132 1A88     		ldrh	r2, [r3]
 579              		.loc 1 901 13
 580 0134 FB68     		ldr	r3, [r7, #12]
 581 0136 1B68     		ldr	r3, [r3]
 582              		.loc 1 901 28
 583 0138 DA60     		str	r2, [r3, #12]
 902:Drivers/STM32L4xx_HAL_Driver/Src/stm32l4xx_hal_spi.c ****         hspi->pTxBuffPtr += sizeof(uint16_t);
 584              		.loc 1 902 26
 585 013a FB68     		ldr	r3, [r7, #12]
 586 013c 9B6B     		ldr	r3, [r3, #56]
 587 013e 9A1C     		adds	r2, r3, #2
 588 0140 FB68     		ldr	r3, [r7, #12]
 589 0142 9A63     		str	r2, [r3, #56]
ARM GAS  C:\Users\Morroway\AppData\Local\Temp\ccCQJjHM.s 			page 27


 903:Drivers/STM32L4xx_HAL_Driver/Src/stm32l4xx_hal_spi.c ****         hspi->TxXferCount--;
 590              		.loc 1 903 13
 591 0144 FB68     		ldr	r3, [r7, #12]
 592 0146 DB8F     		ldrh	r3, [r3, #62]	@ movhi
 593 0148 9BB2     		uxth	r3, r3
 594              		.loc 1 903 26
 595 014a 013B     		subs	r3, r3, #1
 596 014c 9AB2     		uxth	r2, r3
 597 014e FB68     		ldr	r3, [r7, #12]
 598 0150 DA87     		strh	r2, [r3, #62]	@ movhi
 599 0152 11E0     		b	.L27
 600              	.L28:
 904:Drivers/STM32L4xx_HAL_Driver/Src/stm32l4xx_hal_spi.c ****       }
 905:Drivers/STM32L4xx_HAL_Driver/Src/stm32l4xx_hal_spi.c ****       else
 906:Drivers/STM32L4xx_HAL_Driver/Src/stm32l4xx_hal_spi.c ****       {
 907:Drivers/STM32L4xx_HAL_Driver/Src/stm32l4xx_hal_spi.c ****         /* Timeout management */
 908:Drivers/STM32L4xx_HAL_Driver/Src/stm32l4xx_hal_spi.c ****         if ((((HAL_GetTick() - tickstart) >=  Timeout) && (Timeout != HAL_MAX_DELAY)) || (Timeout =
 601              		.loc 1 908 16
 602 0154 FFF7FEFF 		bl	HAL_GetTick
 603 0158 0246     		mov	r2, r0
 604              		.loc 1 908 30
 605 015a BB69     		ldr	r3, [r7, #24]
 606 015c D31A     		subs	r3, r2, r3
 607              		.loc 1 908 12
 608 015e 3A68     		ldr	r2, [r7]
 609 0160 9A42     		cmp	r2, r3
 610 0162 03D8     		bhi	.L29
 611              		.loc 1 908 56 discriminator 1
 612 0164 3B68     		ldr	r3, [r7]
 613 0166 B3F1FF3F 		cmp	r3, #-1
 614 016a 02D1     		bne	.L30
 615              	.L29:
 616              		.loc 1 908 87 discriminator 3
 617 016c 3B68     		ldr	r3, [r7]
 618 016e 002B     		cmp	r3, #0
 619 0170 02D1     		bne	.L27
 620              	.L30:
 909:Drivers/STM32L4xx_HAL_Driver/Src/stm32l4xx_hal_spi.c ****         {
 910:Drivers/STM32L4xx_HAL_Driver/Src/stm32l4xx_hal_spi.c ****           errorcode = HAL_TIMEOUT;
 621              		.loc 1 910 21
 622 0172 0323     		movs	r3, #3
 623 0174 FB77     		strb	r3, [r7, #31]
 911:Drivers/STM32L4xx_HAL_Driver/Src/stm32l4xx_hal_spi.c ****           goto error;
 624              		.loc 1 911 11
 625 0176 A4E0     		b	.L19
 626              	.L27:
 896:Drivers/STM32L4xx_HAL_Driver/Src/stm32l4xx_hal_spi.c ****     {
 627              		.loc 1 896 16
 628 0178 FB68     		ldr	r3, [r7, #12]
 629 017a DB8F     		ldrh	r3, [r3, #62]	@ movhi
 630 017c 9BB2     		uxth	r3, r3
 896:Drivers/STM32L4xx_HAL_Driver/Src/stm32l4xx_hal_spi.c ****     {
 631              		.loc 1 896 30
 632 017e 002B     		cmp	r3, #0
 633 0180 CED1     		bne	.L31
 634 0182 7CE0     		b	.L32
 635              	.L24:
ARM GAS  C:\Users\Morroway\AppData\Local\Temp\ccCQJjHM.s 			page 28


 912:Drivers/STM32L4xx_HAL_Driver/Src/stm32l4xx_hal_spi.c ****         }
 913:Drivers/STM32L4xx_HAL_Driver/Src/stm32l4xx_hal_spi.c ****       }
 914:Drivers/STM32L4xx_HAL_Driver/Src/stm32l4xx_hal_spi.c ****     }
 915:Drivers/STM32L4xx_HAL_Driver/Src/stm32l4xx_hal_spi.c ****   }
 916:Drivers/STM32L4xx_HAL_Driver/Src/stm32l4xx_hal_spi.c ****   /* Transmit data in 8 Bit mode */
 917:Drivers/STM32L4xx_HAL_Driver/Src/stm32l4xx_hal_spi.c ****   else
 918:Drivers/STM32L4xx_HAL_Driver/Src/stm32l4xx_hal_spi.c ****   {
 919:Drivers/STM32L4xx_HAL_Driver/Src/stm32l4xx_hal_spi.c ****     if ((hspi->Init.Mode == SPI_MODE_SLAVE) || (initial_TxXferCount == 0x01U))
 636              		.loc 1 919 20
 637 0184 FB68     		ldr	r3, [r7, #12]
 638 0186 5B68     		ldr	r3, [r3, #4]
 639              		.loc 1 919 8
 640 0188 002B     		cmp	r3, #0
 641 018a 02D0     		beq	.L33
 642              		.loc 1 919 45 discriminator 1
 643 018c FB8A     		ldrh	r3, [r7, #22]
 644 018e 012B     		cmp	r3, #1
 645 0190 70D1     		bne	.L36
 646              	.L33:
 920:Drivers/STM32L4xx_HAL_Driver/Src/stm32l4xx_hal_spi.c ****     {
 921:Drivers/STM32L4xx_HAL_Driver/Src/stm32l4xx_hal_spi.c ****       if (hspi->TxXferCount > 1U)
 647              		.loc 1 921 15
 648 0192 FB68     		ldr	r3, [r7, #12]
 649 0194 DB8F     		ldrh	r3, [r3, #62]	@ movhi
 650 0196 9BB2     		uxth	r3, r3
 651              		.loc 1 921 10
 652 0198 012B     		cmp	r3, #1
 653 019a 12D9     		bls	.L35
 922:Drivers/STM32L4xx_HAL_Driver/Src/stm32l4xx_hal_spi.c ****       {
 923:Drivers/STM32L4xx_HAL_Driver/Src/stm32l4xx_hal_spi.c ****         /* write on the data register in packing mode */
 924:Drivers/STM32L4xx_HAL_Driver/Src/stm32l4xx_hal_spi.c ****         hspi->Instance->DR = *((uint16_t *)hspi->pTxBuffPtr);
 654              		.loc 1 924 48
 655 019c FB68     		ldr	r3, [r7, #12]
 656 019e 9B6B     		ldr	r3, [r3, #56]
 657              		.loc 1 924 30
 658 01a0 1A88     		ldrh	r2, [r3]
 659              		.loc 1 924 13
 660 01a2 FB68     		ldr	r3, [r7, #12]
 661 01a4 1B68     		ldr	r3, [r3]
 662              		.loc 1 924 28
 663 01a6 DA60     		str	r2, [r3, #12]
 925:Drivers/STM32L4xx_HAL_Driver/Src/stm32l4xx_hal_spi.c ****         hspi->pTxBuffPtr += sizeof(uint16_t);
 664              		.loc 1 925 26
 665 01a8 FB68     		ldr	r3, [r7, #12]
 666 01aa 9B6B     		ldr	r3, [r3, #56]
 667 01ac 9A1C     		adds	r2, r3, #2
 668 01ae FB68     		ldr	r3, [r7, #12]
 669 01b0 9A63     		str	r2, [r3, #56]
 926:Drivers/STM32L4xx_HAL_Driver/Src/stm32l4xx_hal_spi.c ****         hspi->TxXferCount -= 2U;
 670              		.loc 1 926 27
 671 01b2 FB68     		ldr	r3, [r7, #12]
 672 01b4 DB8F     		ldrh	r3, [r3, #62]	@ movhi
 673 01b6 9BB2     		uxth	r3, r3
 674 01b8 023B     		subs	r3, r3, #2
 675 01ba 9AB2     		uxth	r2, r3
 676 01bc FB68     		ldr	r3, [r7, #12]
 677 01be DA87     		strh	r2, [r3, #62]	@ movhi
ARM GAS  C:\Users\Morroway\AppData\Local\Temp\ccCQJjHM.s 			page 29


 678 01c0 58E0     		b	.L36
 679              	.L35:
 927:Drivers/STM32L4xx_HAL_Driver/Src/stm32l4xx_hal_spi.c ****       }
 928:Drivers/STM32L4xx_HAL_Driver/Src/stm32l4xx_hal_spi.c ****       else
 929:Drivers/STM32L4xx_HAL_Driver/Src/stm32l4xx_hal_spi.c ****       {
 930:Drivers/STM32L4xx_HAL_Driver/Src/stm32l4xx_hal_spi.c ****         *((__IO uint8_t *)&hspi->Instance->DR) = (*hspi->pTxBuffPtr);
 680              		.loc 1 930 56
 681 01c2 FB68     		ldr	r3, [r7, #12]
 682 01c4 9A6B     		ldr	r2, [r3, #56]
 683              		.loc 1 930 32
 684 01c6 FB68     		ldr	r3, [r7, #12]
 685 01c8 1B68     		ldr	r3, [r3]
 686              		.loc 1 930 27
 687 01ca 0C33     		adds	r3, r3, #12
 688              		.loc 1 930 51
 689 01cc 1278     		ldrb	r2, [r2]	@ zero_extendqisi2
 690              		.loc 1 930 48
 691 01ce 1A70     		strb	r2, [r3]
 931:Drivers/STM32L4xx_HAL_Driver/Src/stm32l4xx_hal_spi.c ****         hspi->pTxBuffPtr ++;
 692              		.loc 1 931 13
 693 01d0 FB68     		ldr	r3, [r7, #12]
 694 01d2 9B6B     		ldr	r3, [r3, #56]
 695              		.loc 1 931 26
 696 01d4 5A1C     		adds	r2, r3, #1
 697 01d6 FB68     		ldr	r3, [r7, #12]
 698 01d8 9A63     		str	r2, [r3, #56]
 932:Drivers/STM32L4xx_HAL_Driver/Src/stm32l4xx_hal_spi.c ****         hspi->TxXferCount--;
 699              		.loc 1 932 13
 700 01da FB68     		ldr	r3, [r7, #12]
 701 01dc DB8F     		ldrh	r3, [r3, #62]	@ movhi
 702 01de 9BB2     		uxth	r3, r3
 703              		.loc 1 932 26
 704 01e0 013B     		subs	r3, r3, #1
 705 01e2 9AB2     		uxth	r2, r3
 706 01e4 FB68     		ldr	r3, [r7, #12]
 707 01e6 DA87     		strh	r2, [r3, #62]	@ movhi
 933:Drivers/STM32L4xx_HAL_Driver/Src/stm32l4xx_hal_spi.c ****       }
 934:Drivers/STM32L4xx_HAL_Driver/Src/stm32l4xx_hal_spi.c ****     }
 935:Drivers/STM32L4xx_HAL_Driver/Src/stm32l4xx_hal_spi.c ****     while (hspi->TxXferCount > 0U)
 708              		.loc 1 935 11
 709 01e8 44E0     		b	.L36
 710              	.L41:
 936:Drivers/STM32L4xx_HAL_Driver/Src/stm32l4xx_hal_spi.c ****     {
 937:Drivers/STM32L4xx_HAL_Driver/Src/stm32l4xx_hal_spi.c ****       /* Wait until TXE flag is set to send data */
 938:Drivers/STM32L4xx_HAL_Driver/Src/stm32l4xx_hal_spi.c ****       if (__HAL_SPI_GET_FLAG(hspi, SPI_FLAG_TXE))
 711              		.loc 1 938 11
 712 01ea FB68     		ldr	r3, [r7, #12]
 713 01ec 1B68     		ldr	r3, [r3]
 714 01ee 9B68     		ldr	r3, [r3, #8]
 715 01f0 03F00203 		and	r3, r3, #2
 716              		.loc 1 938 10
 717 01f4 022B     		cmp	r3, #2
 718 01f6 2BD1     		bne	.L37
 939:Drivers/STM32L4xx_HAL_Driver/Src/stm32l4xx_hal_spi.c ****       {
 940:Drivers/STM32L4xx_HAL_Driver/Src/stm32l4xx_hal_spi.c ****         if (hspi->TxXferCount > 1U)
 719              		.loc 1 940 17
 720 01f8 FB68     		ldr	r3, [r7, #12]
ARM GAS  C:\Users\Morroway\AppData\Local\Temp\ccCQJjHM.s 			page 30


 721 01fa DB8F     		ldrh	r3, [r3, #62]	@ movhi
 722 01fc 9BB2     		uxth	r3, r3
 723              		.loc 1 940 12
 724 01fe 012B     		cmp	r3, #1
 725 0200 12D9     		bls	.L38
 941:Drivers/STM32L4xx_HAL_Driver/Src/stm32l4xx_hal_spi.c ****         {
 942:Drivers/STM32L4xx_HAL_Driver/Src/stm32l4xx_hal_spi.c ****           /* write on the data register in packing mode */
 943:Drivers/STM32L4xx_HAL_Driver/Src/stm32l4xx_hal_spi.c ****           hspi->Instance->DR = *((uint16_t *)hspi->pTxBuffPtr);
 726              		.loc 1 943 50
 727 0202 FB68     		ldr	r3, [r7, #12]
 728 0204 9B6B     		ldr	r3, [r3, #56]
 729              		.loc 1 943 32
 730 0206 1A88     		ldrh	r2, [r3]
 731              		.loc 1 943 15
 732 0208 FB68     		ldr	r3, [r7, #12]
 733 020a 1B68     		ldr	r3, [r3]
 734              		.loc 1 943 30
 735 020c DA60     		str	r2, [r3, #12]
 944:Drivers/STM32L4xx_HAL_Driver/Src/stm32l4xx_hal_spi.c ****           hspi->pTxBuffPtr += sizeof(uint16_t);
 736              		.loc 1 944 28
 737 020e FB68     		ldr	r3, [r7, #12]
 738 0210 9B6B     		ldr	r3, [r3, #56]
 739 0212 9A1C     		adds	r2, r3, #2
 740 0214 FB68     		ldr	r3, [r7, #12]
 741 0216 9A63     		str	r2, [r3, #56]
 945:Drivers/STM32L4xx_HAL_Driver/Src/stm32l4xx_hal_spi.c ****           hspi->TxXferCount -= 2U;
 742              		.loc 1 945 29
 743 0218 FB68     		ldr	r3, [r7, #12]
 744 021a DB8F     		ldrh	r3, [r3, #62]	@ movhi
 745 021c 9BB2     		uxth	r3, r3
 746 021e 023B     		subs	r3, r3, #2
 747 0220 9AB2     		uxth	r2, r3
 748 0222 FB68     		ldr	r3, [r7, #12]
 749 0224 DA87     		strh	r2, [r3, #62]	@ movhi
 750 0226 25E0     		b	.L36
 751              	.L38:
 946:Drivers/STM32L4xx_HAL_Driver/Src/stm32l4xx_hal_spi.c ****         }
 947:Drivers/STM32L4xx_HAL_Driver/Src/stm32l4xx_hal_spi.c ****         else
 948:Drivers/STM32L4xx_HAL_Driver/Src/stm32l4xx_hal_spi.c ****         {
 949:Drivers/STM32L4xx_HAL_Driver/Src/stm32l4xx_hal_spi.c ****           *((__IO uint8_t *)&hspi->Instance->DR) = (*hspi->pTxBuffPtr);
 752              		.loc 1 949 58
 753 0228 FB68     		ldr	r3, [r7, #12]
 754 022a 9A6B     		ldr	r2, [r3, #56]
 755              		.loc 1 949 34
 756 022c FB68     		ldr	r3, [r7, #12]
 757 022e 1B68     		ldr	r3, [r3]
 758              		.loc 1 949 29
 759 0230 0C33     		adds	r3, r3, #12
 760              		.loc 1 949 53
 761 0232 1278     		ldrb	r2, [r2]	@ zero_extendqisi2
 762              		.loc 1 949 50
 763 0234 1A70     		strb	r2, [r3]
 950:Drivers/STM32L4xx_HAL_Driver/Src/stm32l4xx_hal_spi.c ****           hspi->pTxBuffPtr++;
 764              		.loc 1 950 15
 765 0236 FB68     		ldr	r3, [r7, #12]
 766 0238 9B6B     		ldr	r3, [r3, #56]
 767              		.loc 1 950 27
ARM GAS  C:\Users\Morroway\AppData\Local\Temp\ccCQJjHM.s 			page 31


 768 023a 5A1C     		adds	r2, r3, #1
 769 023c FB68     		ldr	r3, [r7, #12]
 770 023e 9A63     		str	r2, [r3, #56]
 951:Drivers/STM32L4xx_HAL_Driver/Src/stm32l4xx_hal_spi.c ****           hspi->TxXferCount--;
 771              		.loc 1 951 15
 772 0240 FB68     		ldr	r3, [r7, #12]
 773 0242 DB8F     		ldrh	r3, [r3, #62]	@ movhi
 774 0244 9BB2     		uxth	r3, r3
 775              		.loc 1 951 28
 776 0246 013B     		subs	r3, r3, #1
 777 0248 9AB2     		uxth	r2, r3
 778 024a FB68     		ldr	r3, [r7, #12]
 779 024c DA87     		strh	r2, [r3, #62]	@ movhi
 780 024e 11E0     		b	.L36
 781              	.L37:
 952:Drivers/STM32L4xx_HAL_Driver/Src/stm32l4xx_hal_spi.c ****         }
 953:Drivers/STM32L4xx_HAL_Driver/Src/stm32l4xx_hal_spi.c ****       }
 954:Drivers/STM32L4xx_HAL_Driver/Src/stm32l4xx_hal_spi.c ****       else
 955:Drivers/STM32L4xx_HAL_Driver/Src/stm32l4xx_hal_spi.c ****       {
 956:Drivers/STM32L4xx_HAL_Driver/Src/stm32l4xx_hal_spi.c ****         /* Timeout management */
 957:Drivers/STM32L4xx_HAL_Driver/Src/stm32l4xx_hal_spi.c ****         if ((((HAL_GetTick() - tickstart) >=  Timeout) && (Timeout != HAL_MAX_DELAY)) || (Timeout =
 782              		.loc 1 957 16
 783 0250 FFF7FEFF 		bl	HAL_GetTick
 784 0254 0246     		mov	r2, r0
 785              		.loc 1 957 30
 786 0256 BB69     		ldr	r3, [r7, #24]
 787 0258 D31A     		subs	r3, r2, r3
 788              		.loc 1 957 12
 789 025a 3A68     		ldr	r2, [r7]
 790 025c 9A42     		cmp	r2, r3
 791 025e 03D8     		bhi	.L39
 792              		.loc 1 957 56 discriminator 1
 793 0260 3B68     		ldr	r3, [r7]
 794 0262 B3F1FF3F 		cmp	r3, #-1
 795 0266 02D1     		bne	.L40
 796              	.L39:
 797              		.loc 1 957 87 discriminator 3
 798 0268 3B68     		ldr	r3, [r7]
 799 026a 002B     		cmp	r3, #0
 800 026c 02D1     		bne	.L36
 801              	.L40:
 958:Drivers/STM32L4xx_HAL_Driver/Src/stm32l4xx_hal_spi.c ****         {
 959:Drivers/STM32L4xx_HAL_Driver/Src/stm32l4xx_hal_spi.c ****           errorcode = HAL_TIMEOUT;
 802              		.loc 1 959 21
 803 026e 0323     		movs	r3, #3
 804 0270 FB77     		strb	r3, [r7, #31]
 960:Drivers/STM32L4xx_HAL_Driver/Src/stm32l4xx_hal_spi.c ****           goto error;
 805              		.loc 1 960 11
 806 0272 26E0     		b	.L19
 807              	.L36:
 935:Drivers/STM32L4xx_HAL_Driver/Src/stm32l4xx_hal_spi.c ****     {
 808              		.loc 1 935 16
 809 0274 FB68     		ldr	r3, [r7, #12]
 810 0276 DB8F     		ldrh	r3, [r3, #62]	@ movhi
 811 0278 9BB2     		uxth	r3, r3
 935:Drivers/STM32L4xx_HAL_Driver/Src/stm32l4xx_hal_spi.c ****     {
 812              		.loc 1 935 30
ARM GAS  C:\Users\Morroway\AppData\Local\Temp\ccCQJjHM.s 			page 32


 813 027a 002B     		cmp	r3, #0
 814 027c B5D1     		bne	.L41
 815              	.L32:
 961:Drivers/STM32L4xx_HAL_Driver/Src/stm32l4xx_hal_spi.c ****         }
 962:Drivers/STM32L4xx_HAL_Driver/Src/stm32l4xx_hal_spi.c ****       }
 963:Drivers/STM32L4xx_HAL_Driver/Src/stm32l4xx_hal_spi.c ****     }
 964:Drivers/STM32L4xx_HAL_Driver/Src/stm32l4xx_hal_spi.c ****   }
 965:Drivers/STM32L4xx_HAL_Driver/Src/stm32l4xx_hal_spi.c **** #if (USE_SPI_CRC != 0U)
 966:Drivers/STM32L4xx_HAL_Driver/Src/stm32l4xx_hal_spi.c ****   /* Enable CRC Transmission */
 967:Drivers/STM32L4xx_HAL_Driver/Src/stm32l4xx_hal_spi.c ****   if (hspi->Init.CRCCalculation == SPI_CRCCALCULATION_ENABLE)
 968:Drivers/STM32L4xx_HAL_Driver/Src/stm32l4xx_hal_spi.c ****   {
 969:Drivers/STM32L4xx_HAL_Driver/Src/stm32l4xx_hal_spi.c ****     SET_BIT(hspi->Instance->CR1, SPI_CR1_CRCNEXT);
 970:Drivers/STM32L4xx_HAL_Driver/Src/stm32l4xx_hal_spi.c ****   }
 971:Drivers/STM32L4xx_HAL_Driver/Src/stm32l4xx_hal_spi.c **** #endif /* USE_SPI_CRC */
 972:Drivers/STM32L4xx_HAL_Driver/Src/stm32l4xx_hal_spi.c **** 
 973:Drivers/STM32L4xx_HAL_Driver/Src/stm32l4xx_hal_spi.c ****   /* Check the end of the transaction */
 974:Drivers/STM32L4xx_HAL_Driver/Src/stm32l4xx_hal_spi.c ****   if (SPI_EndRxTxTransaction(hspi, Timeout, tickstart) != HAL_OK)
 816              		.loc 1 974 7
 817 027e BA69     		ldr	r2, [r7, #24]
 818 0280 3968     		ldr	r1, [r7]
 819 0282 F868     		ldr	r0, [r7, #12]
 820 0284 FFF7FEFF 		bl	SPI_EndRxTxTransaction
 821 0288 0346     		mov	r3, r0
 822              		.loc 1 974 6
 823 028a 002B     		cmp	r3, #0
 824 028c 02D0     		beq	.L42
 975:Drivers/STM32L4xx_HAL_Driver/Src/stm32l4xx_hal_spi.c ****   {
 976:Drivers/STM32L4xx_HAL_Driver/Src/stm32l4xx_hal_spi.c ****     hspi->ErrorCode = HAL_SPI_ERROR_FLAG;
 825              		.loc 1 976 21
 826 028e FB68     		ldr	r3, [r7, #12]
 827 0290 2022     		movs	r2, #32
 828 0292 1A66     		str	r2, [r3, #96]
 829              	.L42:
 977:Drivers/STM32L4xx_HAL_Driver/Src/stm32l4xx_hal_spi.c ****   }
 978:Drivers/STM32L4xx_HAL_Driver/Src/stm32l4xx_hal_spi.c **** 
 979:Drivers/STM32L4xx_HAL_Driver/Src/stm32l4xx_hal_spi.c ****   /* Clear overrun flag in 2 Lines communication mode because received is not read */
 980:Drivers/STM32L4xx_HAL_Driver/Src/stm32l4xx_hal_spi.c ****   if (hspi->Init.Direction == SPI_DIRECTION_2LINES)
 830              		.loc 1 980 17
 831 0294 FB68     		ldr	r3, [r7, #12]
 832 0296 9B68     		ldr	r3, [r3, #8]
 833              		.loc 1 980 6
 834 0298 002B     		cmp	r3, #0
 835 029a 0AD1     		bne	.L43
 836              	.LBB2:
 981:Drivers/STM32L4xx_HAL_Driver/Src/stm32l4xx_hal_spi.c ****   {
 982:Drivers/STM32L4xx_HAL_Driver/Src/stm32l4xx_hal_spi.c ****     __HAL_SPI_CLEAR_OVRFLAG(hspi);
 837              		.loc 1 982 5
 838 029c 0023     		movs	r3, #0
 839 029e 3B61     		str	r3, [r7, #16]
 840 02a0 FB68     		ldr	r3, [r7, #12]
 841 02a2 1B68     		ldr	r3, [r3]
 842 02a4 DB68     		ldr	r3, [r3, #12]
 843 02a6 3B61     		str	r3, [r7, #16]
 844 02a8 FB68     		ldr	r3, [r7, #12]
 845 02aa 1B68     		ldr	r3, [r3]
 846 02ac 9B68     		ldr	r3, [r3, #8]
 847 02ae 3B61     		str	r3, [r7, #16]
ARM GAS  C:\Users\Morroway\AppData\Local\Temp\ccCQJjHM.s 			page 33


 848 02b0 3B69     		ldr	r3, [r7, #16]
 849              	.L43:
 850              	.LBE2:
 983:Drivers/STM32L4xx_HAL_Driver/Src/stm32l4xx_hal_spi.c ****   }
 984:Drivers/STM32L4xx_HAL_Driver/Src/stm32l4xx_hal_spi.c **** 
 985:Drivers/STM32L4xx_HAL_Driver/Src/stm32l4xx_hal_spi.c ****   if (hspi->ErrorCode != HAL_SPI_ERROR_NONE)
 851              		.loc 1 985 11
 852 02b2 FB68     		ldr	r3, [r7, #12]
 853 02b4 1B6E     		ldr	r3, [r3, #96]
 854              		.loc 1 985 6
 855 02b6 002B     		cmp	r3, #0
 856 02b8 02D0     		beq	.L44
 986:Drivers/STM32L4xx_HAL_Driver/Src/stm32l4xx_hal_spi.c ****   {
 987:Drivers/STM32L4xx_HAL_Driver/Src/stm32l4xx_hal_spi.c ****     errorcode = HAL_ERROR;
 857              		.loc 1 987 15
 858 02ba 0123     		movs	r3, #1
 859 02bc FB77     		strb	r3, [r7, #31]
 860 02be 00E0     		b	.L19
 861              	.L44:
 988:Drivers/STM32L4xx_HAL_Driver/Src/stm32l4xx_hal_spi.c ****   }
 989:Drivers/STM32L4xx_HAL_Driver/Src/stm32l4xx_hal_spi.c **** 
 990:Drivers/STM32L4xx_HAL_Driver/Src/stm32l4xx_hal_spi.c **** error:
 862              		.loc 1 990 1
 863 02c0 00BF     		nop
 864              	.L19:
 991:Drivers/STM32L4xx_HAL_Driver/Src/stm32l4xx_hal_spi.c ****   hspi->State = HAL_SPI_STATE_READY;
 865              		.loc 1 991 15
 866 02c2 FB68     		ldr	r3, [r7, #12]
 867 02c4 0122     		movs	r2, #1
 868 02c6 83F85D20 		strb	r2, [r3, #93]
 992:Drivers/STM32L4xx_HAL_Driver/Src/stm32l4xx_hal_spi.c ****   /* Process Unlocked */
 993:Drivers/STM32L4xx_HAL_Driver/Src/stm32l4xx_hal_spi.c ****   __HAL_UNLOCK(hspi);
 869              		.loc 1 993 3
 870 02ca FB68     		ldr	r3, [r7, #12]
 871 02cc 0022     		movs	r2, #0
 872 02ce 83F85C20 		strb	r2, [r3, #92]
 994:Drivers/STM32L4xx_HAL_Driver/Src/stm32l4xx_hal_spi.c ****   return errorcode;
 873              		.loc 1 994 10
 874 02d2 FB7F     		ldrb	r3, [r7, #31]	@ zero_extendqisi2
 875              	.L17:
 995:Drivers/STM32L4xx_HAL_Driver/Src/stm32l4xx_hal_spi.c **** }
 876              		.loc 1 995 1
 877 02d4 1846     		mov	r0, r3
 878 02d6 2037     		adds	r7, r7, #32
 879              		.cfi_def_cfa_offset 8
 880 02d8 BD46     		mov	sp, r7
 881              		.cfi_def_cfa_register 13
 882              		@ sp needed
 883 02da 80BD     		pop	{r7, pc}
 884              		.cfi_endproc
 885              	.LFE325:
 887              		.section	.text.HAL_SPI_Receive,"ax",%progbits
 888              		.align	1
 889              		.global	HAL_SPI_Receive
 890              		.syntax unified
 891              		.thumb
 892              		.thumb_func
ARM GAS  C:\Users\Morroway\AppData\Local\Temp\ccCQJjHM.s 			page 34


 894              	HAL_SPI_Receive:
 895              	.LFB326:
 996:Drivers/STM32L4xx_HAL_Driver/Src/stm32l4xx_hal_spi.c **** 
 997:Drivers/STM32L4xx_HAL_Driver/Src/stm32l4xx_hal_spi.c **** /**
 998:Drivers/STM32L4xx_HAL_Driver/Src/stm32l4xx_hal_spi.c ****   * @brief  Receive an amount of data in blocking mode.
 999:Drivers/STM32L4xx_HAL_Driver/Src/stm32l4xx_hal_spi.c ****   * @param  hspi pointer to a SPI_HandleTypeDef structure that contains
1000:Drivers/STM32L4xx_HAL_Driver/Src/stm32l4xx_hal_spi.c ****   *               the configuration information for SPI module.
1001:Drivers/STM32L4xx_HAL_Driver/Src/stm32l4xx_hal_spi.c ****   * @param  pData pointer to data buffer
1002:Drivers/STM32L4xx_HAL_Driver/Src/stm32l4xx_hal_spi.c ****   * @param  Size amount of data to be received
1003:Drivers/STM32L4xx_HAL_Driver/Src/stm32l4xx_hal_spi.c ****   * @param  Timeout Timeout duration
1004:Drivers/STM32L4xx_HAL_Driver/Src/stm32l4xx_hal_spi.c ****   * @retval HAL status
1005:Drivers/STM32L4xx_HAL_Driver/Src/stm32l4xx_hal_spi.c ****   */
1006:Drivers/STM32L4xx_HAL_Driver/Src/stm32l4xx_hal_spi.c **** HAL_StatusTypeDef HAL_SPI_Receive(SPI_HandleTypeDef *hspi, uint8_t *pData, uint16_t Size, uint32_t 
1007:Drivers/STM32L4xx_HAL_Driver/Src/stm32l4xx_hal_spi.c **** {
 896              		.loc 1 1007 1
 897              		.cfi_startproc
 898              		@ args = 0, pretend = 0, frame = 24
 899              		@ frame_needed = 1, uses_anonymous_args = 0
 900 0000 80B5     		push	{r7, lr}
 901              		.cfi_def_cfa_offset 8
 902              		.cfi_offset 7, -8
 903              		.cfi_offset 14, -4
 904 0002 88B0     		sub	sp, sp, #32
 905              		.cfi_def_cfa_offset 40
 906 0004 02AF     		add	r7, sp, #8
 907              		.cfi_def_cfa 7, 32
 908 0006 F860     		str	r0, [r7, #12]
 909 0008 B960     		str	r1, [r7, #8]
 910 000a 3B60     		str	r3, [r7]
 911 000c 1346     		mov	r3, r2	@ movhi
 912 000e FB80     		strh	r3, [r7, #6]	@ movhi
1008:Drivers/STM32L4xx_HAL_Driver/Src/stm32l4xx_hal_spi.c **** #if (USE_SPI_CRC != 0U)
1009:Drivers/STM32L4xx_HAL_Driver/Src/stm32l4xx_hal_spi.c ****   __IO uint32_t tmpreg = 0U;
1010:Drivers/STM32L4xx_HAL_Driver/Src/stm32l4xx_hal_spi.c ****   __IO uint8_t  *ptmpreg8;
1011:Drivers/STM32L4xx_HAL_Driver/Src/stm32l4xx_hal_spi.c ****   __IO uint8_t  tmpreg8 = 0;
1012:Drivers/STM32L4xx_HAL_Driver/Src/stm32l4xx_hal_spi.c **** #endif /* USE_SPI_CRC */
1013:Drivers/STM32L4xx_HAL_Driver/Src/stm32l4xx_hal_spi.c ****   uint32_t tickstart;
1014:Drivers/STM32L4xx_HAL_Driver/Src/stm32l4xx_hal_spi.c ****   HAL_StatusTypeDef errorcode = HAL_OK;
 913              		.loc 1 1014 21
 914 0010 0023     		movs	r3, #0
 915 0012 FB75     		strb	r3, [r7, #23]
1015:Drivers/STM32L4xx_HAL_Driver/Src/stm32l4xx_hal_spi.c **** 
1016:Drivers/STM32L4xx_HAL_Driver/Src/stm32l4xx_hal_spi.c ****   if ((hspi->Init.Mode == SPI_MODE_MASTER) && (hspi->Init.Direction == SPI_DIRECTION_2LINES))
 916              		.loc 1 1016 18
 917 0014 FB68     		ldr	r3, [r7, #12]
 918 0016 5B68     		ldr	r3, [r3, #4]
 919              		.loc 1 1016 6
 920 0018 B3F5827F 		cmp	r3, #260
 921 001c 12D1     		bne	.L46
 922              		.loc 1 1016 58 discriminator 1
 923 001e FB68     		ldr	r3, [r7, #12]
 924 0020 9B68     		ldr	r3, [r3, #8]
 925              		.loc 1 1016 44 discriminator 1
 926 0022 002B     		cmp	r3, #0
 927 0024 0ED1     		bne	.L46
1017:Drivers/STM32L4xx_HAL_Driver/Src/stm32l4xx_hal_spi.c ****   {
1018:Drivers/STM32L4xx_HAL_Driver/Src/stm32l4xx_hal_spi.c ****     hspi->State = HAL_SPI_STATE_BUSY_RX;
ARM GAS  C:\Users\Morroway\AppData\Local\Temp\ccCQJjHM.s 			page 35


 928              		.loc 1 1018 17
 929 0026 FB68     		ldr	r3, [r7, #12]
 930 0028 0422     		movs	r2, #4
 931 002a 83F85D20 		strb	r2, [r3, #93]
1019:Drivers/STM32L4xx_HAL_Driver/Src/stm32l4xx_hal_spi.c ****     /* Call transmit-receive function to send Dummy data on Tx line and generate clock on CLK line 
1020:Drivers/STM32L4xx_HAL_Driver/Src/stm32l4xx_hal_spi.c ****     return HAL_SPI_TransmitReceive(hspi, pData, pData, Size, Timeout);
 932              		.loc 1 1020 12
 933 002e FA88     		ldrh	r2, [r7, #6]
 934 0030 3B68     		ldr	r3, [r7]
 935 0032 0093     		str	r3, [sp]
 936 0034 1346     		mov	r3, r2
 937 0036 BA68     		ldr	r2, [r7, #8]
 938 0038 B968     		ldr	r1, [r7, #8]
 939 003a F868     		ldr	r0, [r7, #12]
 940 003c FFF7FEFF 		bl	HAL_SPI_TransmitReceive
 941 0040 0346     		mov	r3, r0
 942 0042 09E1     		b	.L47
 943              	.L46:
1021:Drivers/STM32L4xx_HAL_Driver/Src/stm32l4xx_hal_spi.c ****   }
1022:Drivers/STM32L4xx_HAL_Driver/Src/stm32l4xx_hal_spi.c **** 
1023:Drivers/STM32L4xx_HAL_Driver/Src/stm32l4xx_hal_spi.c ****   /* Process Locked */
1024:Drivers/STM32L4xx_HAL_Driver/Src/stm32l4xx_hal_spi.c ****   __HAL_LOCK(hspi);
 944              		.loc 1 1024 3
 945 0044 FB68     		ldr	r3, [r7, #12]
 946 0046 93F85C30 		ldrb	r3, [r3, #92]	@ zero_extendqisi2
 947 004a 012B     		cmp	r3, #1
 948 004c 01D1     		bne	.L48
 949              		.loc 1 1024 3 is_stmt 0 discriminator 1
 950 004e 0223     		movs	r3, #2
 951 0050 02E1     		b	.L47
 952              	.L48:
 953              		.loc 1 1024 3 discriminator 2
 954 0052 FB68     		ldr	r3, [r7, #12]
 955 0054 0122     		movs	r2, #1
 956 0056 83F85C20 		strb	r2, [r3, #92]
1025:Drivers/STM32L4xx_HAL_Driver/Src/stm32l4xx_hal_spi.c **** 
1026:Drivers/STM32L4xx_HAL_Driver/Src/stm32l4xx_hal_spi.c ****   /* Init tickstart for timeout management*/
1027:Drivers/STM32L4xx_HAL_Driver/Src/stm32l4xx_hal_spi.c ****   tickstart = HAL_GetTick();
 957              		.loc 1 1027 15 is_stmt 1 discriminator 2
 958 005a FFF7FEFF 		bl	HAL_GetTick
 959 005e 3861     		str	r0, [r7, #16]
1028:Drivers/STM32L4xx_HAL_Driver/Src/stm32l4xx_hal_spi.c **** 
1029:Drivers/STM32L4xx_HAL_Driver/Src/stm32l4xx_hal_spi.c ****   if (hspi->State != HAL_SPI_STATE_READY)
 960              		.loc 1 1029 11 discriminator 2
 961 0060 FB68     		ldr	r3, [r7, #12]
 962 0062 93F85D30 		ldrb	r3, [r3, #93]
 963 0066 DBB2     		uxtb	r3, r3
 964              		.loc 1 1029 6 discriminator 2
 965 0068 012B     		cmp	r3, #1
 966 006a 02D0     		beq	.L49
1030:Drivers/STM32L4xx_HAL_Driver/Src/stm32l4xx_hal_spi.c ****   {
1031:Drivers/STM32L4xx_HAL_Driver/Src/stm32l4xx_hal_spi.c ****     errorcode = HAL_BUSY;
 967              		.loc 1 1031 15
 968 006c 0223     		movs	r3, #2
 969 006e FB75     		strb	r3, [r7, #23]
1032:Drivers/STM32L4xx_HAL_Driver/Src/stm32l4xx_hal_spi.c ****     goto error;
 970              		.loc 1 1032 5
ARM GAS  C:\Users\Morroway\AppData\Local\Temp\ccCQJjHM.s 			page 36


 971 0070 E9E0     		b	.L50
 972              	.L49:
1033:Drivers/STM32L4xx_HAL_Driver/Src/stm32l4xx_hal_spi.c ****   }
1034:Drivers/STM32L4xx_HAL_Driver/Src/stm32l4xx_hal_spi.c **** 
1035:Drivers/STM32L4xx_HAL_Driver/Src/stm32l4xx_hal_spi.c ****   if ((pData == NULL) || (Size == 0U))
 973              		.loc 1 1035 6
 974 0072 BB68     		ldr	r3, [r7, #8]
 975 0074 002B     		cmp	r3, #0
 976 0076 02D0     		beq	.L51
 977              		.loc 1 1035 23 discriminator 1
 978 0078 FB88     		ldrh	r3, [r7, #6]
 979 007a 002B     		cmp	r3, #0
 980 007c 02D1     		bne	.L52
 981              	.L51:
1036:Drivers/STM32L4xx_HAL_Driver/Src/stm32l4xx_hal_spi.c ****   {
1037:Drivers/STM32L4xx_HAL_Driver/Src/stm32l4xx_hal_spi.c ****     errorcode = HAL_ERROR;
 982              		.loc 1 1037 15
 983 007e 0123     		movs	r3, #1
 984 0080 FB75     		strb	r3, [r7, #23]
1038:Drivers/STM32L4xx_HAL_Driver/Src/stm32l4xx_hal_spi.c ****     goto error;
 985              		.loc 1 1038 5
 986 0082 E0E0     		b	.L50
 987              	.L52:
1039:Drivers/STM32L4xx_HAL_Driver/Src/stm32l4xx_hal_spi.c ****   }
1040:Drivers/STM32L4xx_HAL_Driver/Src/stm32l4xx_hal_spi.c **** 
1041:Drivers/STM32L4xx_HAL_Driver/Src/stm32l4xx_hal_spi.c ****   /* Set the transaction information */
1042:Drivers/STM32L4xx_HAL_Driver/Src/stm32l4xx_hal_spi.c ****   hspi->State       = HAL_SPI_STATE_BUSY_RX;
 988              		.loc 1 1042 21
 989 0084 FB68     		ldr	r3, [r7, #12]
 990 0086 0422     		movs	r2, #4
 991 0088 83F85D20 		strb	r2, [r3, #93]
1043:Drivers/STM32L4xx_HAL_Driver/Src/stm32l4xx_hal_spi.c ****   hspi->ErrorCode   = HAL_SPI_ERROR_NONE;
 992              		.loc 1 1043 21
 993 008c FB68     		ldr	r3, [r7, #12]
 994 008e 0022     		movs	r2, #0
 995 0090 1A66     		str	r2, [r3, #96]
1044:Drivers/STM32L4xx_HAL_Driver/Src/stm32l4xx_hal_spi.c ****   hspi->pRxBuffPtr  = (uint8_t *)pData;
 996              		.loc 1 1044 21
 997 0092 FB68     		ldr	r3, [r7, #12]
 998 0094 BA68     		ldr	r2, [r7, #8]
 999 0096 1A64     		str	r2, [r3, #64]
1045:Drivers/STM32L4xx_HAL_Driver/Src/stm32l4xx_hal_spi.c ****   hspi->RxXferSize  = Size;
 1000              		.loc 1 1045 21
 1001 0098 FB68     		ldr	r3, [r7, #12]
 1002 009a FA88     		ldrh	r2, [r7, #6]	@ movhi
 1003 009c A3F84420 		strh	r2, [r3, #68]	@ movhi
1046:Drivers/STM32L4xx_HAL_Driver/Src/stm32l4xx_hal_spi.c ****   hspi->RxXferCount = Size;
 1004              		.loc 1 1046 21
 1005 00a0 FB68     		ldr	r3, [r7, #12]
 1006 00a2 FA88     		ldrh	r2, [r7, #6]	@ movhi
 1007 00a4 A3F84620 		strh	r2, [r3, #70]	@ movhi
1047:Drivers/STM32L4xx_HAL_Driver/Src/stm32l4xx_hal_spi.c **** 
1048:Drivers/STM32L4xx_HAL_Driver/Src/stm32l4xx_hal_spi.c ****   /*Init field not used in handle to zero */
1049:Drivers/STM32L4xx_HAL_Driver/Src/stm32l4xx_hal_spi.c ****   hspi->pTxBuffPtr  = (uint8_t *)NULL;
 1008              		.loc 1 1049 21
 1009 00a8 FB68     		ldr	r3, [r7, #12]
 1010 00aa 0022     		movs	r2, #0
ARM GAS  C:\Users\Morroway\AppData\Local\Temp\ccCQJjHM.s 			page 37


 1011 00ac 9A63     		str	r2, [r3, #56]
1050:Drivers/STM32L4xx_HAL_Driver/Src/stm32l4xx_hal_spi.c ****   hspi->TxXferSize  = 0U;
 1012              		.loc 1 1050 21
 1013 00ae FB68     		ldr	r3, [r7, #12]
 1014 00b0 0022     		movs	r2, #0
 1015 00b2 9A87     		strh	r2, [r3, #60]	@ movhi
1051:Drivers/STM32L4xx_HAL_Driver/Src/stm32l4xx_hal_spi.c ****   hspi->TxXferCount = 0U;
 1016              		.loc 1 1051 21
 1017 00b4 FB68     		ldr	r3, [r7, #12]
 1018 00b6 0022     		movs	r2, #0
 1019 00b8 DA87     		strh	r2, [r3, #62]	@ movhi
1052:Drivers/STM32L4xx_HAL_Driver/Src/stm32l4xx_hal_spi.c ****   hspi->RxISR       = NULL;
 1020              		.loc 1 1052 21
 1021 00ba FB68     		ldr	r3, [r7, #12]
 1022 00bc 0022     		movs	r2, #0
 1023 00be DA64     		str	r2, [r3, #76]
1053:Drivers/STM32L4xx_HAL_Driver/Src/stm32l4xx_hal_spi.c ****   hspi->TxISR       = NULL;
 1024              		.loc 1 1053 21
 1025 00c0 FB68     		ldr	r3, [r7, #12]
 1026 00c2 0022     		movs	r2, #0
 1027 00c4 1A65     		str	r2, [r3, #80]
1054:Drivers/STM32L4xx_HAL_Driver/Src/stm32l4xx_hal_spi.c **** 
1055:Drivers/STM32L4xx_HAL_Driver/Src/stm32l4xx_hal_spi.c **** #if (USE_SPI_CRC != 0U)
1056:Drivers/STM32L4xx_HAL_Driver/Src/stm32l4xx_hal_spi.c ****   /* Reset CRC Calculation */
1057:Drivers/STM32L4xx_HAL_Driver/Src/stm32l4xx_hal_spi.c ****   if (hspi->Init.CRCCalculation == SPI_CRCCALCULATION_ENABLE)
1058:Drivers/STM32L4xx_HAL_Driver/Src/stm32l4xx_hal_spi.c ****   {
1059:Drivers/STM32L4xx_HAL_Driver/Src/stm32l4xx_hal_spi.c ****     SPI_RESET_CRC(hspi);
1060:Drivers/STM32L4xx_HAL_Driver/Src/stm32l4xx_hal_spi.c ****     /* this is done to handle the CRCNEXT before the latest data */
1061:Drivers/STM32L4xx_HAL_Driver/Src/stm32l4xx_hal_spi.c ****     hspi->RxXferCount--;
1062:Drivers/STM32L4xx_HAL_Driver/Src/stm32l4xx_hal_spi.c ****   }
1063:Drivers/STM32L4xx_HAL_Driver/Src/stm32l4xx_hal_spi.c **** #endif /* USE_SPI_CRC */
1064:Drivers/STM32L4xx_HAL_Driver/Src/stm32l4xx_hal_spi.c **** 
1065:Drivers/STM32L4xx_HAL_Driver/Src/stm32l4xx_hal_spi.c ****   /* Set the Rx Fifo threshold */
1066:Drivers/STM32L4xx_HAL_Driver/Src/stm32l4xx_hal_spi.c ****   if (hspi->Init.DataSize > SPI_DATASIZE_8BIT)
 1028              		.loc 1 1066 17
 1029 00c6 FB68     		ldr	r3, [r7, #12]
 1030 00c8 DB68     		ldr	r3, [r3, #12]
 1031              		.loc 1 1066 6
 1032 00ca B3F5E06F 		cmp	r3, #1792
 1033 00ce 08D9     		bls	.L53
1067:Drivers/STM32L4xx_HAL_Driver/Src/stm32l4xx_hal_spi.c ****   {
1068:Drivers/STM32L4xx_HAL_Driver/Src/stm32l4xx_hal_spi.c ****     /* Set RX Fifo threshold according the reception data length: 16bit */
1069:Drivers/STM32L4xx_HAL_Driver/Src/stm32l4xx_hal_spi.c ****     CLEAR_BIT(hspi->Instance->CR2, SPI_RXFIFO_THRESHOLD);
 1034              		.loc 1 1069 5
 1035 00d0 FB68     		ldr	r3, [r7, #12]
 1036 00d2 1B68     		ldr	r3, [r3]
 1037 00d4 5A68     		ldr	r2, [r3, #4]
 1038 00d6 FB68     		ldr	r3, [r7, #12]
 1039 00d8 1B68     		ldr	r3, [r3]
 1040 00da 22F48052 		bic	r2, r2, #4096
 1041 00de 5A60     		str	r2, [r3, #4]
 1042 00e0 07E0     		b	.L54
 1043              	.L53:
1070:Drivers/STM32L4xx_HAL_Driver/Src/stm32l4xx_hal_spi.c ****   }
1071:Drivers/STM32L4xx_HAL_Driver/Src/stm32l4xx_hal_spi.c ****   else
1072:Drivers/STM32L4xx_HAL_Driver/Src/stm32l4xx_hal_spi.c ****   {
1073:Drivers/STM32L4xx_HAL_Driver/Src/stm32l4xx_hal_spi.c ****     /* Set RX Fifo threshold according the reception data length: 8bit */
ARM GAS  C:\Users\Morroway\AppData\Local\Temp\ccCQJjHM.s 			page 38


1074:Drivers/STM32L4xx_HAL_Driver/Src/stm32l4xx_hal_spi.c ****     SET_BIT(hspi->Instance->CR2, SPI_RXFIFO_THRESHOLD);
 1044              		.loc 1 1074 5
 1045 00e2 FB68     		ldr	r3, [r7, #12]
 1046 00e4 1B68     		ldr	r3, [r3]
 1047 00e6 5A68     		ldr	r2, [r3, #4]
 1048 00e8 FB68     		ldr	r3, [r7, #12]
 1049 00ea 1B68     		ldr	r3, [r3]
 1050 00ec 42F48052 		orr	r2, r2, #4096
 1051 00f0 5A60     		str	r2, [r3, #4]
 1052              	.L54:
1075:Drivers/STM32L4xx_HAL_Driver/Src/stm32l4xx_hal_spi.c ****   }
1076:Drivers/STM32L4xx_HAL_Driver/Src/stm32l4xx_hal_spi.c **** 
1077:Drivers/STM32L4xx_HAL_Driver/Src/stm32l4xx_hal_spi.c ****   /* Configure communication direction: 1Line */
1078:Drivers/STM32L4xx_HAL_Driver/Src/stm32l4xx_hal_spi.c ****   if (hspi->Init.Direction == SPI_DIRECTION_1LINE)
 1053              		.loc 1 1078 17
 1054 00f2 FB68     		ldr	r3, [r7, #12]
 1055 00f4 9B68     		ldr	r3, [r3, #8]
 1056              		.loc 1 1078 6
 1057 00f6 B3F5004F 		cmp	r3, #32768
 1058 00fa 0FD1     		bne	.L55
1079:Drivers/STM32L4xx_HAL_Driver/Src/stm32l4xx_hal_spi.c ****   {
1080:Drivers/STM32L4xx_HAL_Driver/Src/stm32l4xx_hal_spi.c ****     /* Disable SPI Peripheral before set 1Line direction (BIDIOE bit) */
1081:Drivers/STM32L4xx_HAL_Driver/Src/stm32l4xx_hal_spi.c ****     __HAL_SPI_DISABLE(hspi);
 1059              		.loc 1 1081 5
 1060 00fc FB68     		ldr	r3, [r7, #12]
 1061 00fe 1B68     		ldr	r3, [r3]
 1062 0100 1A68     		ldr	r2, [r3]
 1063 0102 FB68     		ldr	r3, [r7, #12]
 1064 0104 1B68     		ldr	r3, [r3]
 1065 0106 22F04002 		bic	r2, r2, #64
 1066 010a 1A60     		str	r2, [r3]
1082:Drivers/STM32L4xx_HAL_Driver/Src/stm32l4xx_hal_spi.c ****     SPI_1LINE_RX(hspi);
 1067              		.loc 1 1082 5
 1068 010c FB68     		ldr	r3, [r7, #12]
 1069 010e 1B68     		ldr	r3, [r3]
 1070 0110 1A68     		ldr	r2, [r3]
 1071 0112 FB68     		ldr	r3, [r7, #12]
 1072 0114 1B68     		ldr	r3, [r3]
 1073 0116 22F48042 		bic	r2, r2, #16384
 1074 011a 1A60     		str	r2, [r3]
 1075              	.L55:
1083:Drivers/STM32L4xx_HAL_Driver/Src/stm32l4xx_hal_spi.c ****   }
1084:Drivers/STM32L4xx_HAL_Driver/Src/stm32l4xx_hal_spi.c **** 
1085:Drivers/STM32L4xx_HAL_Driver/Src/stm32l4xx_hal_spi.c ****   /* Check if the SPI is already enabled */
1086:Drivers/STM32L4xx_HAL_Driver/Src/stm32l4xx_hal_spi.c ****   if ((hspi->Instance->CR1 & SPI_CR1_SPE) != SPI_CR1_SPE)
 1076              		.loc 1 1086 12
 1077 011c FB68     		ldr	r3, [r7, #12]
 1078 011e 1B68     		ldr	r3, [r3]
 1079              		.loc 1 1086 22
 1080 0120 1B68     		ldr	r3, [r3]
 1081              		.loc 1 1086 28
 1082 0122 03F04003 		and	r3, r3, #64
 1083              		.loc 1 1086 6
 1084 0126 402B     		cmp	r3, #64
 1085 0128 07D0     		beq	.L56
1087:Drivers/STM32L4xx_HAL_Driver/Src/stm32l4xx_hal_spi.c ****   {
1088:Drivers/STM32L4xx_HAL_Driver/Src/stm32l4xx_hal_spi.c ****     /* Enable SPI peripheral */
ARM GAS  C:\Users\Morroway\AppData\Local\Temp\ccCQJjHM.s 			page 39


1089:Drivers/STM32L4xx_HAL_Driver/Src/stm32l4xx_hal_spi.c ****     __HAL_SPI_ENABLE(hspi);
 1086              		.loc 1 1089 5
 1087 012a FB68     		ldr	r3, [r7, #12]
 1088 012c 1B68     		ldr	r3, [r3]
 1089 012e 1A68     		ldr	r2, [r3]
 1090 0130 FB68     		ldr	r3, [r7, #12]
 1091 0132 1B68     		ldr	r3, [r3]
 1092 0134 42F04002 		orr	r2, r2, #64
 1093 0138 1A60     		str	r2, [r3]
 1094              	.L56:
1090:Drivers/STM32L4xx_HAL_Driver/Src/stm32l4xx_hal_spi.c ****   }
1091:Drivers/STM32L4xx_HAL_Driver/Src/stm32l4xx_hal_spi.c **** 
1092:Drivers/STM32L4xx_HAL_Driver/Src/stm32l4xx_hal_spi.c ****   /* Receive data in 8 Bit mode */
1093:Drivers/STM32L4xx_HAL_Driver/Src/stm32l4xx_hal_spi.c ****   if (hspi->Init.DataSize <= SPI_DATASIZE_8BIT)
 1095              		.loc 1 1093 17
 1096 013a FB68     		ldr	r3, [r7, #12]
 1097 013c DB68     		ldr	r3, [r3, #12]
 1098              		.loc 1 1093 6
 1099 013e B3F5E06F 		cmp	r3, #1792
 1100 0142 67D8     		bhi	.L64
1094:Drivers/STM32L4xx_HAL_Driver/Src/stm32l4xx_hal_spi.c ****   {
1095:Drivers/STM32L4xx_HAL_Driver/Src/stm32l4xx_hal_spi.c ****     /* Transfer loop */
1096:Drivers/STM32L4xx_HAL_Driver/Src/stm32l4xx_hal_spi.c ****     while (hspi->RxXferCount > 0U)
 1101              		.loc 1 1096 11
 1102 0144 30E0     		b	.L58
 1103              	.L62:
1097:Drivers/STM32L4xx_HAL_Driver/Src/stm32l4xx_hal_spi.c ****     {
1098:Drivers/STM32L4xx_HAL_Driver/Src/stm32l4xx_hal_spi.c ****       /* Check the RXNE flag */
1099:Drivers/STM32L4xx_HAL_Driver/Src/stm32l4xx_hal_spi.c ****       if (__HAL_SPI_GET_FLAG(hspi, SPI_FLAG_RXNE))
 1104              		.loc 1 1099 11
 1105 0146 FB68     		ldr	r3, [r7, #12]
 1106 0148 1B68     		ldr	r3, [r3]
 1107 014a 9B68     		ldr	r3, [r3, #8]
 1108 014c 03F00103 		and	r3, r3, #1
 1109              		.loc 1 1099 10
 1110 0150 012B     		cmp	r3, #1
 1111 0152 17D1     		bne	.L59
1100:Drivers/STM32L4xx_HAL_Driver/Src/stm32l4xx_hal_spi.c ****       {
1101:Drivers/STM32L4xx_HAL_Driver/Src/stm32l4xx_hal_spi.c ****         /* read the received data */
1102:Drivers/STM32L4xx_HAL_Driver/Src/stm32l4xx_hal_spi.c ****         (* (uint8_t *)hspi->pRxBuffPtr) = *(__IO uint8_t *)&hspi->Instance->DR;
 1112              		.loc 1 1102 65
 1113 0154 FB68     		ldr	r3, [r7, #12]
 1114 0156 1B68     		ldr	r3, [r3]
 1115              		.loc 1 1102 60
 1116 0158 03F10C02 		add	r2, r3, #12
 1117              		.loc 1 1102 27
 1118 015c FB68     		ldr	r3, [r7, #12]
 1119 015e 1B6C     		ldr	r3, [r3, #64]
 1120              		.loc 1 1102 43
 1121 0160 1278     		ldrb	r2, [r2]
 1122 0162 D2B2     		uxtb	r2, r2
 1123              		.loc 1 1102 41
 1124 0164 1A70     		strb	r2, [r3]
1103:Drivers/STM32L4xx_HAL_Driver/Src/stm32l4xx_hal_spi.c ****         hspi->pRxBuffPtr += sizeof(uint8_t);
 1125              		.loc 1 1103 26
 1126 0166 FB68     		ldr	r3, [r7, #12]
 1127 0168 1B6C     		ldr	r3, [r3, #64]
ARM GAS  C:\Users\Morroway\AppData\Local\Temp\ccCQJjHM.s 			page 40


 1128 016a 5A1C     		adds	r2, r3, #1
 1129 016c FB68     		ldr	r3, [r7, #12]
 1130 016e 1A64     		str	r2, [r3, #64]
1104:Drivers/STM32L4xx_HAL_Driver/Src/stm32l4xx_hal_spi.c ****         hspi->RxXferCount--;
 1131              		.loc 1 1104 13
 1132 0170 FB68     		ldr	r3, [r7, #12]
 1133 0172 B3F84630 		ldrh	r3, [r3, #70]	@ movhi
 1134 0176 9BB2     		uxth	r3, r3
 1135              		.loc 1 1104 26
 1136 0178 013B     		subs	r3, r3, #1
 1137 017a 9AB2     		uxth	r2, r3
 1138 017c FB68     		ldr	r3, [r7, #12]
 1139 017e A3F84620 		strh	r2, [r3, #70]	@ movhi
 1140 0182 11E0     		b	.L58
 1141              	.L59:
1105:Drivers/STM32L4xx_HAL_Driver/Src/stm32l4xx_hal_spi.c ****       }
1106:Drivers/STM32L4xx_HAL_Driver/Src/stm32l4xx_hal_spi.c ****       else
1107:Drivers/STM32L4xx_HAL_Driver/Src/stm32l4xx_hal_spi.c ****       {
1108:Drivers/STM32L4xx_HAL_Driver/Src/stm32l4xx_hal_spi.c ****         /* Timeout management */
1109:Drivers/STM32L4xx_HAL_Driver/Src/stm32l4xx_hal_spi.c ****         if ((((HAL_GetTick() - tickstart) >=  Timeout) && (Timeout != HAL_MAX_DELAY)) || (Timeout =
 1142              		.loc 1 1109 16
 1143 0184 FFF7FEFF 		bl	HAL_GetTick
 1144 0188 0246     		mov	r2, r0
 1145              		.loc 1 1109 30
 1146 018a 3B69     		ldr	r3, [r7, #16]
 1147 018c D31A     		subs	r3, r2, r3
 1148              		.loc 1 1109 12
 1149 018e 3A68     		ldr	r2, [r7]
 1150 0190 9A42     		cmp	r2, r3
 1151 0192 03D8     		bhi	.L60
 1152              		.loc 1 1109 56 discriminator 1
 1153 0194 3B68     		ldr	r3, [r7]
 1154 0196 B3F1FF3F 		cmp	r3, #-1
 1155 019a 02D1     		bne	.L61
 1156              	.L60:
 1157              		.loc 1 1109 87 discriminator 3
 1158 019c 3B68     		ldr	r3, [r7]
 1159 019e 002B     		cmp	r3, #0
 1160 01a0 02D1     		bne	.L58
 1161              	.L61:
1110:Drivers/STM32L4xx_HAL_Driver/Src/stm32l4xx_hal_spi.c ****         {
1111:Drivers/STM32L4xx_HAL_Driver/Src/stm32l4xx_hal_spi.c ****           errorcode = HAL_TIMEOUT;
 1162              		.loc 1 1111 21
 1163 01a2 0323     		movs	r3, #3
 1164 01a4 FB75     		strb	r3, [r7, #23]
1112:Drivers/STM32L4xx_HAL_Driver/Src/stm32l4xx_hal_spi.c ****           goto error;
 1165              		.loc 1 1112 11
 1166 01a6 4EE0     		b	.L50
 1167              	.L58:
1096:Drivers/STM32L4xx_HAL_Driver/Src/stm32l4xx_hal_spi.c ****     {
 1168              		.loc 1 1096 16
 1169 01a8 FB68     		ldr	r3, [r7, #12]
 1170 01aa B3F84630 		ldrh	r3, [r3, #70]	@ movhi
 1171 01ae 9BB2     		uxth	r3, r3
1096:Drivers/STM32L4xx_HAL_Driver/Src/stm32l4xx_hal_spi.c ****     {
 1172              		.loc 1 1096 30
 1173 01b0 002B     		cmp	r3, #0
ARM GAS  C:\Users\Morroway\AppData\Local\Temp\ccCQJjHM.s 			page 41


 1174 01b2 C8D1     		bne	.L62
 1175 01b4 34E0     		b	.L63
 1176              	.L68:
1113:Drivers/STM32L4xx_HAL_Driver/Src/stm32l4xx_hal_spi.c ****         }
1114:Drivers/STM32L4xx_HAL_Driver/Src/stm32l4xx_hal_spi.c ****       }
1115:Drivers/STM32L4xx_HAL_Driver/Src/stm32l4xx_hal_spi.c ****     }
1116:Drivers/STM32L4xx_HAL_Driver/Src/stm32l4xx_hal_spi.c ****   }
1117:Drivers/STM32L4xx_HAL_Driver/Src/stm32l4xx_hal_spi.c ****   else
1118:Drivers/STM32L4xx_HAL_Driver/Src/stm32l4xx_hal_spi.c ****   {
1119:Drivers/STM32L4xx_HAL_Driver/Src/stm32l4xx_hal_spi.c ****     /* Transfer loop */
1120:Drivers/STM32L4xx_HAL_Driver/Src/stm32l4xx_hal_spi.c ****     while (hspi->RxXferCount > 0U)
1121:Drivers/STM32L4xx_HAL_Driver/Src/stm32l4xx_hal_spi.c ****     {
1122:Drivers/STM32L4xx_HAL_Driver/Src/stm32l4xx_hal_spi.c ****       /* Check the RXNE flag */
1123:Drivers/STM32L4xx_HAL_Driver/Src/stm32l4xx_hal_spi.c ****       if (__HAL_SPI_GET_FLAG(hspi, SPI_FLAG_RXNE))
 1177              		.loc 1 1123 11
 1178 01b6 FB68     		ldr	r3, [r7, #12]
 1179 01b8 1B68     		ldr	r3, [r3]
 1180 01ba 9B68     		ldr	r3, [r3, #8]
 1181 01bc 03F00103 		and	r3, r3, #1
 1182              		.loc 1 1123 10
 1183 01c0 012B     		cmp	r3, #1
 1184 01c2 15D1     		bne	.L65
1124:Drivers/STM32L4xx_HAL_Driver/Src/stm32l4xx_hal_spi.c ****       {
1125:Drivers/STM32L4xx_HAL_Driver/Src/stm32l4xx_hal_spi.c ****         *((uint16_t *)hspi->pRxBuffPtr) = (uint16_t)hspi->Instance->DR;
 1185              		.loc 1 1125 57
 1186 01c4 FB68     		ldr	r3, [r7, #12]
 1187 01c6 1B68     		ldr	r3, [r3]
 1188              		.loc 1 1125 67
 1189 01c8 DA68     		ldr	r2, [r3, #12]
 1190              		.loc 1 1125 27
 1191 01ca FB68     		ldr	r3, [r7, #12]
 1192 01cc 1B6C     		ldr	r3, [r3, #64]
 1193              		.loc 1 1125 43
 1194 01ce 92B2     		uxth	r2, r2
 1195              		.loc 1 1125 41
 1196 01d0 1A80     		strh	r2, [r3]	@ movhi
1126:Drivers/STM32L4xx_HAL_Driver/Src/stm32l4xx_hal_spi.c ****         hspi->pRxBuffPtr += sizeof(uint16_t);
 1197              		.loc 1 1126 26
 1198 01d2 FB68     		ldr	r3, [r7, #12]
 1199 01d4 1B6C     		ldr	r3, [r3, #64]
 1200 01d6 9A1C     		adds	r2, r3, #2
 1201 01d8 FB68     		ldr	r3, [r7, #12]
 1202 01da 1A64     		str	r2, [r3, #64]
1127:Drivers/STM32L4xx_HAL_Driver/Src/stm32l4xx_hal_spi.c ****         hspi->RxXferCount--;
 1203              		.loc 1 1127 13
 1204 01dc FB68     		ldr	r3, [r7, #12]
 1205 01de B3F84630 		ldrh	r3, [r3, #70]	@ movhi
 1206 01e2 9BB2     		uxth	r3, r3
 1207              		.loc 1 1127 26
 1208 01e4 013B     		subs	r3, r3, #1
 1209 01e6 9AB2     		uxth	r2, r3
 1210 01e8 FB68     		ldr	r3, [r7, #12]
 1211 01ea A3F84620 		strh	r2, [r3, #70]	@ movhi
 1212 01ee 11E0     		b	.L64
 1213              	.L65:
1128:Drivers/STM32L4xx_HAL_Driver/Src/stm32l4xx_hal_spi.c ****       }
1129:Drivers/STM32L4xx_HAL_Driver/Src/stm32l4xx_hal_spi.c ****       else
ARM GAS  C:\Users\Morroway\AppData\Local\Temp\ccCQJjHM.s 			page 42


1130:Drivers/STM32L4xx_HAL_Driver/Src/stm32l4xx_hal_spi.c ****       {
1131:Drivers/STM32L4xx_HAL_Driver/Src/stm32l4xx_hal_spi.c ****         /* Timeout management */
1132:Drivers/STM32L4xx_HAL_Driver/Src/stm32l4xx_hal_spi.c ****         if ((((HAL_GetTick() - tickstart) >=  Timeout) && (Timeout != HAL_MAX_DELAY)) || (Timeout =
 1214              		.loc 1 1132 16
 1215 01f0 FFF7FEFF 		bl	HAL_GetTick
 1216 01f4 0246     		mov	r2, r0
 1217              		.loc 1 1132 30
 1218 01f6 3B69     		ldr	r3, [r7, #16]
 1219 01f8 D31A     		subs	r3, r2, r3
 1220              		.loc 1 1132 12
 1221 01fa 3A68     		ldr	r2, [r7]
 1222 01fc 9A42     		cmp	r2, r3
 1223 01fe 03D8     		bhi	.L66
 1224              		.loc 1 1132 56 discriminator 1
 1225 0200 3B68     		ldr	r3, [r7]
 1226 0202 B3F1FF3F 		cmp	r3, #-1
 1227 0206 02D1     		bne	.L67
 1228              	.L66:
 1229              		.loc 1 1132 87 discriminator 3
 1230 0208 3B68     		ldr	r3, [r7]
 1231 020a 002B     		cmp	r3, #0
 1232 020c 02D1     		bne	.L64
 1233              	.L67:
1133:Drivers/STM32L4xx_HAL_Driver/Src/stm32l4xx_hal_spi.c ****         {
1134:Drivers/STM32L4xx_HAL_Driver/Src/stm32l4xx_hal_spi.c ****           errorcode = HAL_TIMEOUT;
 1234              		.loc 1 1134 21
 1235 020e 0323     		movs	r3, #3
 1236 0210 FB75     		strb	r3, [r7, #23]
1135:Drivers/STM32L4xx_HAL_Driver/Src/stm32l4xx_hal_spi.c ****           goto error;
 1237              		.loc 1 1135 11
 1238 0212 18E0     		b	.L50
 1239              	.L64:
1120:Drivers/STM32L4xx_HAL_Driver/Src/stm32l4xx_hal_spi.c ****     {
 1240              		.loc 1 1120 16
 1241 0214 FB68     		ldr	r3, [r7, #12]
 1242 0216 B3F84630 		ldrh	r3, [r3, #70]	@ movhi
 1243 021a 9BB2     		uxth	r3, r3
1120:Drivers/STM32L4xx_HAL_Driver/Src/stm32l4xx_hal_spi.c ****     {
 1244              		.loc 1 1120 30
 1245 021c 002B     		cmp	r3, #0
 1246 021e CAD1     		bne	.L68
 1247              	.L63:
1136:Drivers/STM32L4xx_HAL_Driver/Src/stm32l4xx_hal_spi.c ****         }
1137:Drivers/STM32L4xx_HAL_Driver/Src/stm32l4xx_hal_spi.c ****       }
1138:Drivers/STM32L4xx_HAL_Driver/Src/stm32l4xx_hal_spi.c ****     }
1139:Drivers/STM32L4xx_HAL_Driver/Src/stm32l4xx_hal_spi.c ****   }
1140:Drivers/STM32L4xx_HAL_Driver/Src/stm32l4xx_hal_spi.c **** 
1141:Drivers/STM32L4xx_HAL_Driver/Src/stm32l4xx_hal_spi.c **** #if (USE_SPI_CRC != 0U)
1142:Drivers/STM32L4xx_HAL_Driver/Src/stm32l4xx_hal_spi.c ****   /* Handle the CRC Transmission */
1143:Drivers/STM32L4xx_HAL_Driver/Src/stm32l4xx_hal_spi.c ****   if (hspi->Init.CRCCalculation == SPI_CRCCALCULATION_ENABLE)
1144:Drivers/STM32L4xx_HAL_Driver/Src/stm32l4xx_hal_spi.c ****   {
1145:Drivers/STM32L4xx_HAL_Driver/Src/stm32l4xx_hal_spi.c ****     /* freeze the CRC before the latest data */
1146:Drivers/STM32L4xx_HAL_Driver/Src/stm32l4xx_hal_spi.c ****     SET_BIT(hspi->Instance->CR1, SPI_CR1_CRCNEXT);
1147:Drivers/STM32L4xx_HAL_Driver/Src/stm32l4xx_hal_spi.c **** 
1148:Drivers/STM32L4xx_HAL_Driver/Src/stm32l4xx_hal_spi.c ****     /* Read the latest data */
1149:Drivers/STM32L4xx_HAL_Driver/Src/stm32l4xx_hal_spi.c ****     if (SPI_WaitFlagStateUntilTimeout(hspi, SPI_FLAG_RXNE, SET, Timeout, tickstart) != HAL_OK)
1150:Drivers/STM32L4xx_HAL_Driver/Src/stm32l4xx_hal_spi.c ****     {
ARM GAS  C:\Users\Morroway\AppData\Local\Temp\ccCQJjHM.s 			page 43


1151:Drivers/STM32L4xx_HAL_Driver/Src/stm32l4xx_hal_spi.c ****       /* the latest data has not been received */
1152:Drivers/STM32L4xx_HAL_Driver/Src/stm32l4xx_hal_spi.c ****       errorcode = HAL_TIMEOUT;
1153:Drivers/STM32L4xx_HAL_Driver/Src/stm32l4xx_hal_spi.c ****       goto error;
1154:Drivers/STM32L4xx_HAL_Driver/Src/stm32l4xx_hal_spi.c ****     }
1155:Drivers/STM32L4xx_HAL_Driver/Src/stm32l4xx_hal_spi.c **** 
1156:Drivers/STM32L4xx_HAL_Driver/Src/stm32l4xx_hal_spi.c ****     /* Receive last data in 16 Bit mode */
1157:Drivers/STM32L4xx_HAL_Driver/Src/stm32l4xx_hal_spi.c ****     if (hspi->Init.DataSize > SPI_DATASIZE_8BIT)
1158:Drivers/STM32L4xx_HAL_Driver/Src/stm32l4xx_hal_spi.c ****     {
1159:Drivers/STM32L4xx_HAL_Driver/Src/stm32l4xx_hal_spi.c ****       *((uint16_t *)hspi->pRxBuffPtr) = (uint16_t)hspi->Instance->DR;
1160:Drivers/STM32L4xx_HAL_Driver/Src/stm32l4xx_hal_spi.c ****     }
1161:Drivers/STM32L4xx_HAL_Driver/Src/stm32l4xx_hal_spi.c ****     /* Receive last data in 8 Bit mode */
1162:Drivers/STM32L4xx_HAL_Driver/Src/stm32l4xx_hal_spi.c ****     else
1163:Drivers/STM32L4xx_HAL_Driver/Src/stm32l4xx_hal_spi.c ****     {
1164:Drivers/STM32L4xx_HAL_Driver/Src/stm32l4xx_hal_spi.c ****       (*(uint8_t *)hspi->pRxBuffPtr) = *(__IO uint8_t *)&hspi->Instance->DR;
1165:Drivers/STM32L4xx_HAL_Driver/Src/stm32l4xx_hal_spi.c ****     }
1166:Drivers/STM32L4xx_HAL_Driver/Src/stm32l4xx_hal_spi.c **** 
1167:Drivers/STM32L4xx_HAL_Driver/Src/stm32l4xx_hal_spi.c ****     /* Wait the CRC data */
1168:Drivers/STM32L4xx_HAL_Driver/Src/stm32l4xx_hal_spi.c ****     if (SPI_WaitFlagStateUntilTimeout(hspi, SPI_FLAG_RXNE, SET, Timeout, tickstart) != HAL_OK)
1169:Drivers/STM32L4xx_HAL_Driver/Src/stm32l4xx_hal_spi.c ****     {
1170:Drivers/STM32L4xx_HAL_Driver/Src/stm32l4xx_hal_spi.c ****       SET_BIT(hspi->ErrorCode, HAL_SPI_ERROR_CRC);
1171:Drivers/STM32L4xx_HAL_Driver/Src/stm32l4xx_hal_spi.c ****       errorcode = HAL_TIMEOUT;
1172:Drivers/STM32L4xx_HAL_Driver/Src/stm32l4xx_hal_spi.c ****       goto error;
1173:Drivers/STM32L4xx_HAL_Driver/Src/stm32l4xx_hal_spi.c ****     }
1174:Drivers/STM32L4xx_HAL_Driver/Src/stm32l4xx_hal_spi.c **** 
1175:Drivers/STM32L4xx_HAL_Driver/Src/stm32l4xx_hal_spi.c ****     /* Read CRC to Flush DR and RXNE flag */
1176:Drivers/STM32L4xx_HAL_Driver/Src/stm32l4xx_hal_spi.c ****     if (hspi->Init.DataSize == SPI_DATASIZE_16BIT)
1177:Drivers/STM32L4xx_HAL_Driver/Src/stm32l4xx_hal_spi.c ****     {
1178:Drivers/STM32L4xx_HAL_Driver/Src/stm32l4xx_hal_spi.c ****       /* Read 16bit CRC */
1179:Drivers/STM32L4xx_HAL_Driver/Src/stm32l4xx_hal_spi.c ****       tmpreg = READ_REG(hspi->Instance->DR);
1180:Drivers/STM32L4xx_HAL_Driver/Src/stm32l4xx_hal_spi.c ****       /* To avoid GCC warning */
1181:Drivers/STM32L4xx_HAL_Driver/Src/stm32l4xx_hal_spi.c ****       UNUSED(tmpreg);
1182:Drivers/STM32L4xx_HAL_Driver/Src/stm32l4xx_hal_spi.c ****     }
1183:Drivers/STM32L4xx_HAL_Driver/Src/stm32l4xx_hal_spi.c ****     else
1184:Drivers/STM32L4xx_HAL_Driver/Src/stm32l4xx_hal_spi.c ****     {
1185:Drivers/STM32L4xx_HAL_Driver/Src/stm32l4xx_hal_spi.c ****       /* Initialize the 8bit temporary pointer */
1186:Drivers/STM32L4xx_HAL_Driver/Src/stm32l4xx_hal_spi.c ****       ptmpreg8 = (__IO uint8_t *)&hspi->Instance->DR;
1187:Drivers/STM32L4xx_HAL_Driver/Src/stm32l4xx_hal_spi.c ****       /* Read 8bit CRC */
1188:Drivers/STM32L4xx_HAL_Driver/Src/stm32l4xx_hal_spi.c ****       tmpreg8 = *ptmpreg8;
1189:Drivers/STM32L4xx_HAL_Driver/Src/stm32l4xx_hal_spi.c ****       /* To avoid GCC warning */
1190:Drivers/STM32L4xx_HAL_Driver/Src/stm32l4xx_hal_spi.c ****       UNUSED(tmpreg8);
1191:Drivers/STM32L4xx_HAL_Driver/Src/stm32l4xx_hal_spi.c **** 
1192:Drivers/STM32L4xx_HAL_Driver/Src/stm32l4xx_hal_spi.c ****       if ((hspi->Init.DataSize == SPI_DATASIZE_8BIT) && (hspi->Init.CRCLength == SPI_CRC_LENGTH_16B
1193:Drivers/STM32L4xx_HAL_Driver/Src/stm32l4xx_hal_spi.c ****       {
1194:Drivers/STM32L4xx_HAL_Driver/Src/stm32l4xx_hal_spi.c ****         if (SPI_WaitFlagStateUntilTimeout(hspi, SPI_FLAG_RXNE, SET, Timeout, tickstart) != HAL_OK)
1195:Drivers/STM32L4xx_HAL_Driver/Src/stm32l4xx_hal_spi.c ****         {
1196:Drivers/STM32L4xx_HAL_Driver/Src/stm32l4xx_hal_spi.c ****           /* Error on the CRC reception */
1197:Drivers/STM32L4xx_HAL_Driver/Src/stm32l4xx_hal_spi.c ****           SET_BIT(hspi->ErrorCode, HAL_SPI_ERROR_CRC);
1198:Drivers/STM32L4xx_HAL_Driver/Src/stm32l4xx_hal_spi.c ****           errorcode = HAL_TIMEOUT;
1199:Drivers/STM32L4xx_HAL_Driver/Src/stm32l4xx_hal_spi.c ****           goto error;
1200:Drivers/STM32L4xx_HAL_Driver/Src/stm32l4xx_hal_spi.c ****         }
1201:Drivers/STM32L4xx_HAL_Driver/Src/stm32l4xx_hal_spi.c ****         /* Read 8bit CRC again in case of 16bit CRC in 8bit Data mode */
1202:Drivers/STM32L4xx_HAL_Driver/Src/stm32l4xx_hal_spi.c ****         tmpreg8 = *ptmpreg8;
1203:Drivers/STM32L4xx_HAL_Driver/Src/stm32l4xx_hal_spi.c ****         /* To avoid GCC warning */
1204:Drivers/STM32L4xx_HAL_Driver/Src/stm32l4xx_hal_spi.c ****         UNUSED(tmpreg8);
1205:Drivers/STM32L4xx_HAL_Driver/Src/stm32l4xx_hal_spi.c ****       }
1206:Drivers/STM32L4xx_HAL_Driver/Src/stm32l4xx_hal_spi.c ****     }
1207:Drivers/STM32L4xx_HAL_Driver/Src/stm32l4xx_hal_spi.c ****   }
ARM GAS  C:\Users\Morroway\AppData\Local\Temp\ccCQJjHM.s 			page 44


1208:Drivers/STM32L4xx_HAL_Driver/Src/stm32l4xx_hal_spi.c **** #endif /* USE_SPI_CRC */
1209:Drivers/STM32L4xx_HAL_Driver/Src/stm32l4xx_hal_spi.c **** 
1210:Drivers/STM32L4xx_HAL_Driver/Src/stm32l4xx_hal_spi.c ****   /* Check the end of the transaction */
1211:Drivers/STM32L4xx_HAL_Driver/Src/stm32l4xx_hal_spi.c ****   if (SPI_EndRxTransaction(hspi, Timeout, tickstart) != HAL_OK)
 1248              		.loc 1 1211 7
 1249 0220 3A69     		ldr	r2, [r7, #16]
 1250 0222 3968     		ldr	r1, [r7]
 1251 0224 F868     		ldr	r0, [r7, #12]
 1252 0226 FFF7FEFF 		bl	SPI_EndRxTransaction
 1253 022a 0346     		mov	r3, r0
 1254              		.loc 1 1211 6
 1255 022c 002B     		cmp	r3, #0
 1256 022e 02D0     		beq	.L69
1212:Drivers/STM32L4xx_HAL_Driver/Src/stm32l4xx_hal_spi.c ****   {
1213:Drivers/STM32L4xx_HAL_Driver/Src/stm32l4xx_hal_spi.c ****     hspi->ErrorCode = HAL_SPI_ERROR_FLAG;
 1257              		.loc 1 1213 21
 1258 0230 FB68     		ldr	r3, [r7, #12]
 1259 0232 2022     		movs	r2, #32
 1260 0234 1A66     		str	r2, [r3, #96]
 1261              	.L69:
1214:Drivers/STM32L4xx_HAL_Driver/Src/stm32l4xx_hal_spi.c ****   }
1215:Drivers/STM32L4xx_HAL_Driver/Src/stm32l4xx_hal_spi.c **** 
1216:Drivers/STM32L4xx_HAL_Driver/Src/stm32l4xx_hal_spi.c **** #if (USE_SPI_CRC != 0U)
1217:Drivers/STM32L4xx_HAL_Driver/Src/stm32l4xx_hal_spi.c ****   /* Check if CRC error occurred */
1218:Drivers/STM32L4xx_HAL_Driver/Src/stm32l4xx_hal_spi.c ****   if (__HAL_SPI_GET_FLAG(hspi, SPI_FLAG_CRCERR))
1219:Drivers/STM32L4xx_HAL_Driver/Src/stm32l4xx_hal_spi.c ****   {
1220:Drivers/STM32L4xx_HAL_Driver/Src/stm32l4xx_hal_spi.c ****     SET_BIT(hspi->ErrorCode, HAL_SPI_ERROR_CRC);
1221:Drivers/STM32L4xx_HAL_Driver/Src/stm32l4xx_hal_spi.c ****     __HAL_SPI_CLEAR_CRCERRFLAG(hspi);
1222:Drivers/STM32L4xx_HAL_Driver/Src/stm32l4xx_hal_spi.c ****   }
1223:Drivers/STM32L4xx_HAL_Driver/Src/stm32l4xx_hal_spi.c **** #endif /* USE_SPI_CRC */
1224:Drivers/STM32L4xx_HAL_Driver/Src/stm32l4xx_hal_spi.c **** 
1225:Drivers/STM32L4xx_HAL_Driver/Src/stm32l4xx_hal_spi.c ****   if (hspi->ErrorCode != HAL_SPI_ERROR_NONE)
 1262              		.loc 1 1225 11
 1263 0236 FB68     		ldr	r3, [r7, #12]
 1264 0238 1B6E     		ldr	r3, [r3, #96]
 1265              		.loc 1 1225 6
 1266 023a 002B     		cmp	r3, #0
 1267 023c 02D0     		beq	.L70
1226:Drivers/STM32L4xx_HAL_Driver/Src/stm32l4xx_hal_spi.c ****   {
1227:Drivers/STM32L4xx_HAL_Driver/Src/stm32l4xx_hal_spi.c ****     errorcode = HAL_ERROR;
 1268              		.loc 1 1227 15
 1269 023e 0123     		movs	r3, #1
 1270 0240 FB75     		strb	r3, [r7, #23]
 1271 0242 00E0     		b	.L50
 1272              	.L70:
1228:Drivers/STM32L4xx_HAL_Driver/Src/stm32l4xx_hal_spi.c ****   }
1229:Drivers/STM32L4xx_HAL_Driver/Src/stm32l4xx_hal_spi.c **** 
1230:Drivers/STM32L4xx_HAL_Driver/Src/stm32l4xx_hal_spi.c **** error :
 1273              		.loc 1 1230 1
 1274 0244 00BF     		nop
 1275              	.L50:
1231:Drivers/STM32L4xx_HAL_Driver/Src/stm32l4xx_hal_spi.c ****   hspi->State = HAL_SPI_STATE_READY;
 1276              		.loc 1 1231 15
 1277 0246 FB68     		ldr	r3, [r7, #12]
 1278 0248 0122     		movs	r2, #1
 1279 024a 83F85D20 		strb	r2, [r3, #93]
1232:Drivers/STM32L4xx_HAL_Driver/Src/stm32l4xx_hal_spi.c ****   __HAL_UNLOCK(hspi);
ARM GAS  C:\Users\Morroway\AppData\Local\Temp\ccCQJjHM.s 			page 45


 1280              		.loc 1 1232 3
 1281 024e FB68     		ldr	r3, [r7, #12]
 1282 0250 0022     		movs	r2, #0
 1283 0252 83F85C20 		strb	r2, [r3, #92]
1233:Drivers/STM32L4xx_HAL_Driver/Src/stm32l4xx_hal_spi.c ****   return errorcode;
 1284              		.loc 1 1233 10
 1285 0256 FB7D     		ldrb	r3, [r7, #23]	@ zero_extendqisi2
 1286              	.L47:
1234:Drivers/STM32L4xx_HAL_Driver/Src/stm32l4xx_hal_spi.c **** }
 1287              		.loc 1 1234 1
 1288 0258 1846     		mov	r0, r3
 1289 025a 1837     		adds	r7, r7, #24
 1290              		.cfi_def_cfa_offset 8
 1291 025c BD46     		mov	sp, r7
 1292              		.cfi_def_cfa_register 13
 1293              		@ sp needed
 1294 025e 80BD     		pop	{r7, pc}
 1295              		.cfi_endproc
 1296              	.LFE326:
 1298              		.section	.text.HAL_SPI_TransmitReceive,"ax",%progbits
 1299              		.align	1
 1300              		.global	HAL_SPI_TransmitReceive
 1301              		.syntax unified
 1302              		.thumb
 1303              		.thumb_func
 1305              	HAL_SPI_TransmitReceive:
 1306              	.LFB327:
1235:Drivers/STM32L4xx_HAL_Driver/Src/stm32l4xx_hal_spi.c **** 
1236:Drivers/STM32L4xx_HAL_Driver/Src/stm32l4xx_hal_spi.c **** /**
1237:Drivers/STM32L4xx_HAL_Driver/Src/stm32l4xx_hal_spi.c ****   * @brief  Transmit and Receive an amount of data in blocking mode.
1238:Drivers/STM32L4xx_HAL_Driver/Src/stm32l4xx_hal_spi.c ****   * @param  hspi pointer to a SPI_HandleTypeDef structure that contains
1239:Drivers/STM32L4xx_HAL_Driver/Src/stm32l4xx_hal_spi.c ****   *               the configuration information for SPI module.
1240:Drivers/STM32L4xx_HAL_Driver/Src/stm32l4xx_hal_spi.c ****   * @param  pTxData pointer to transmission data buffer
1241:Drivers/STM32L4xx_HAL_Driver/Src/stm32l4xx_hal_spi.c ****   * @param  pRxData pointer to reception data buffer
1242:Drivers/STM32L4xx_HAL_Driver/Src/stm32l4xx_hal_spi.c ****   * @param  Size amount of data to be sent and received
1243:Drivers/STM32L4xx_HAL_Driver/Src/stm32l4xx_hal_spi.c ****   * @param  Timeout Timeout duration
1244:Drivers/STM32L4xx_HAL_Driver/Src/stm32l4xx_hal_spi.c ****   * @retval HAL status
1245:Drivers/STM32L4xx_HAL_Driver/Src/stm32l4xx_hal_spi.c ****   */
1246:Drivers/STM32L4xx_HAL_Driver/Src/stm32l4xx_hal_spi.c **** HAL_StatusTypeDef HAL_SPI_TransmitReceive(SPI_HandleTypeDef *hspi, uint8_t *pTxData, uint8_t *pRxDa
1247:Drivers/STM32L4xx_HAL_Driver/Src/stm32l4xx_hal_spi.c ****                                           uint32_t Timeout)
1248:Drivers/STM32L4xx_HAL_Driver/Src/stm32l4xx_hal_spi.c **** {
 1307              		.loc 1 1248 1
 1308              		.cfi_startproc
 1309              		@ args = 4, pretend = 0, frame = 40
 1310              		@ frame_needed = 1, uses_anonymous_args = 0
 1311 0000 80B5     		push	{r7, lr}
 1312              		.cfi_def_cfa_offset 8
 1313              		.cfi_offset 7, -8
 1314              		.cfi_offset 14, -4
 1315 0002 8AB0     		sub	sp, sp, #40
 1316              		.cfi_def_cfa_offset 48
 1317 0004 00AF     		add	r7, sp, #0
 1318              		.cfi_def_cfa_register 7
 1319 0006 F860     		str	r0, [r7, #12]
 1320 0008 B960     		str	r1, [r7, #8]
 1321 000a 7A60     		str	r2, [r7, #4]
 1322 000c 7B80     		strh	r3, [r7, #2]	@ movhi
ARM GAS  C:\Users\Morroway\AppData\Local\Temp\ccCQJjHM.s 			page 46


1249:Drivers/STM32L4xx_HAL_Driver/Src/stm32l4xx_hal_spi.c ****   uint16_t             initial_TxXferCount;
1250:Drivers/STM32L4xx_HAL_Driver/Src/stm32l4xx_hal_spi.c ****   uint16_t             initial_RxXferCount;
1251:Drivers/STM32L4xx_HAL_Driver/Src/stm32l4xx_hal_spi.c ****   uint32_t             tmp_mode;
1252:Drivers/STM32L4xx_HAL_Driver/Src/stm32l4xx_hal_spi.c ****   HAL_SPI_StateTypeDef tmp_state;
1253:Drivers/STM32L4xx_HAL_Driver/Src/stm32l4xx_hal_spi.c ****   uint32_t             tickstart;
1254:Drivers/STM32L4xx_HAL_Driver/Src/stm32l4xx_hal_spi.c **** #if (USE_SPI_CRC != 0U)
1255:Drivers/STM32L4xx_HAL_Driver/Src/stm32l4xx_hal_spi.c ****   __IO uint32_t tmpreg = 0U;
1256:Drivers/STM32L4xx_HAL_Driver/Src/stm32l4xx_hal_spi.c ****   uint32_t             spi_cr1;
1257:Drivers/STM32L4xx_HAL_Driver/Src/stm32l4xx_hal_spi.c ****   uint32_t             spi_cr2;
1258:Drivers/STM32L4xx_HAL_Driver/Src/stm32l4xx_hal_spi.c ****   __IO uint8_t  *ptmpreg8;
1259:Drivers/STM32L4xx_HAL_Driver/Src/stm32l4xx_hal_spi.c ****   __IO uint8_t  tmpreg8 = 0;
1260:Drivers/STM32L4xx_HAL_Driver/Src/stm32l4xx_hal_spi.c **** #endif /* USE_SPI_CRC */
1261:Drivers/STM32L4xx_HAL_Driver/Src/stm32l4xx_hal_spi.c **** 
1262:Drivers/STM32L4xx_HAL_Driver/Src/stm32l4xx_hal_spi.c ****   /* Variable used to alternate Rx and Tx during transfer */
1263:Drivers/STM32L4xx_HAL_Driver/Src/stm32l4xx_hal_spi.c ****   uint32_t             txallowed = 1U;
 1323              		.loc 1 1263 24
 1324 000e 0123     		movs	r3, #1
 1325 0010 7B62     		str	r3, [r7, #36]
1264:Drivers/STM32L4xx_HAL_Driver/Src/stm32l4xx_hal_spi.c ****   HAL_StatusTypeDef    errorcode = HAL_OK;
 1326              		.loc 1 1264 24
 1327 0012 0023     		movs	r3, #0
 1328 0014 87F82330 		strb	r3, [r7, #35]
1265:Drivers/STM32L4xx_HAL_Driver/Src/stm32l4xx_hal_spi.c **** 
1266:Drivers/STM32L4xx_HAL_Driver/Src/stm32l4xx_hal_spi.c ****   /* Check Direction parameter */
1267:Drivers/STM32L4xx_HAL_Driver/Src/stm32l4xx_hal_spi.c ****   assert_param(IS_SPI_DIRECTION_2LINES(hspi->Init.Direction));
1268:Drivers/STM32L4xx_HAL_Driver/Src/stm32l4xx_hal_spi.c **** 
1269:Drivers/STM32L4xx_HAL_Driver/Src/stm32l4xx_hal_spi.c ****   /* Process Locked */
1270:Drivers/STM32L4xx_HAL_Driver/Src/stm32l4xx_hal_spi.c ****   __HAL_LOCK(hspi);
 1329              		.loc 1 1270 3
 1330 0018 FB68     		ldr	r3, [r7, #12]
 1331 001a 93F85C30 		ldrb	r3, [r3, #92]	@ zero_extendqisi2
 1332 001e 012B     		cmp	r3, #1
 1333 0020 01D1     		bne	.L72
 1334              		.loc 1 1270 3 is_stmt 0 discriminator 1
 1335 0022 0223     		movs	r3, #2
 1336 0024 FBE1     		b	.L73
 1337              	.L72:
 1338              		.loc 1 1270 3 discriminator 2
 1339 0026 FB68     		ldr	r3, [r7, #12]
 1340 0028 0122     		movs	r2, #1
 1341 002a 83F85C20 		strb	r2, [r3, #92]
1271:Drivers/STM32L4xx_HAL_Driver/Src/stm32l4xx_hal_spi.c **** 
1272:Drivers/STM32L4xx_HAL_Driver/Src/stm32l4xx_hal_spi.c ****   /* Init tickstart for timeout management*/
1273:Drivers/STM32L4xx_HAL_Driver/Src/stm32l4xx_hal_spi.c ****   tickstart = HAL_GetTick();
 1342              		.loc 1 1273 15 is_stmt 1 discriminator 2
 1343 002e FFF7FEFF 		bl	HAL_GetTick
 1344 0032 F861     		str	r0, [r7, #28]
1274:Drivers/STM32L4xx_HAL_Driver/Src/stm32l4xx_hal_spi.c **** 
1275:Drivers/STM32L4xx_HAL_Driver/Src/stm32l4xx_hal_spi.c ****   /* Init temporary variables */
1276:Drivers/STM32L4xx_HAL_Driver/Src/stm32l4xx_hal_spi.c ****   tmp_state           = hspi->State;
 1345              		.loc 1 1276 23 discriminator 2
 1346 0034 FB68     		ldr	r3, [r7, #12]
 1347 0036 93F85D30 		ldrb	r3, [r3, #93]
 1348 003a FB76     		strb	r3, [r7, #27]
1277:Drivers/STM32L4xx_HAL_Driver/Src/stm32l4xx_hal_spi.c ****   tmp_mode            = hspi->Init.Mode;
 1349              		.loc 1 1277 23 discriminator 2
 1350 003c FB68     		ldr	r3, [r7, #12]
ARM GAS  C:\Users\Morroway\AppData\Local\Temp\ccCQJjHM.s 			page 47


 1351 003e 5B68     		ldr	r3, [r3, #4]
 1352 0040 7B61     		str	r3, [r7, #20]
1278:Drivers/STM32L4xx_HAL_Driver/Src/stm32l4xx_hal_spi.c ****   initial_TxXferCount = Size;
 1353              		.loc 1 1278 23 discriminator 2
 1354 0042 7B88     		ldrh	r3, [r7, #2]	@ movhi
 1355 0044 7B82     		strh	r3, [r7, #18]	@ movhi
1279:Drivers/STM32L4xx_HAL_Driver/Src/stm32l4xx_hal_spi.c ****   initial_RxXferCount = Size;
 1356              		.loc 1 1279 23 discriminator 2
 1357 0046 7B88     		ldrh	r3, [r7, #2]	@ movhi
 1358 0048 3B82     		strh	r3, [r7, #16]	@ movhi
1280:Drivers/STM32L4xx_HAL_Driver/Src/stm32l4xx_hal_spi.c **** #if (USE_SPI_CRC != 0U)
1281:Drivers/STM32L4xx_HAL_Driver/Src/stm32l4xx_hal_spi.c ****   spi_cr1             = READ_REG(hspi->Instance->CR1);
1282:Drivers/STM32L4xx_HAL_Driver/Src/stm32l4xx_hal_spi.c ****   spi_cr2             = READ_REG(hspi->Instance->CR2);
1283:Drivers/STM32L4xx_HAL_Driver/Src/stm32l4xx_hal_spi.c **** #endif /* USE_SPI_CRC */
1284:Drivers/STM32L4xx_HAL_Driver/Src/stm32l4xx_hal_spi.c **** 
1285:Drivers/STM32L4xx_HAL_Driver/Src/stm32l4xx_hal_spi.c ****   if (!((tmp_state == HAL_SPI_STATE_READY) || \
 1359              		.loc 1 1285 6 discriminator 2
 1360 004a FB7E     		ldrb	r3, [r7, #27]	@ zero_extendqisi2
 1361 004c 012B     		cmp	r3, #1
 1362 004e 0ED0     		beq	.L74
 1363              		.loc 1 1285 7 discriminator 1
 1364 0050 7B69     		ldr	r3, [r7, #20]
 1365 0052 B3F5827F 		cmp	r3, #260
 1366 0056 06D1     		bne	.L75
1286:Drivers/STM32L4xx_HAL_Driver/Src/stm32l4xx_hal_spi.c ****         ((tmp_mode == SPI_MODE_MASTER) && (hspi->Init.Direction == SPI_DIRECTION_2LINES) && (tmp_st
 1367              		.loc 1 1286 54
 1368 0058 FB68     		ldr	r3, [r7, #12]
 1369 005a 9B68     		ldr	r3, [r3, #8]
 1370              		.loc 1 1286 40
 1371 005c 002B     		cmp	r3, #0
 1372 005e 02D1     		bne	.L75
 1373              		.loc 1 1286 90 discriminator 1
 1374 0060 FB7E     		ldrb	r3, [r7, #27]	@ zero_extendqisi2
 1375 0062 042B     		cmp	r3, #4
 1376 0064 03D0     		beq	.L74
 1377              	.L75:
1287:Drivers/STM32L4xx_HAL_Driver/Src/stm32l4xx_hal_spi.c ****   {
1288:Drivers/STM32L4xx_HAL_Driver/Src/stm32l4xx_hal_spi.c ****     errorcode = HAL_BUSY;
 1378              		.loc 1 1288 15
 1379 0066 0223     		movs	r3, #2
 1380 0068 87F82330 		strb	r3, [r7, #35]
1289:Drivers/STM32L4xx_HAL_Driver/Src/stm32l4xx_hal_spi.c ****     goto error;
 1381              		.loc 1 1289 5
 1382 006c CDE1     		b	.L76
 1383              	.L74:
1290:Drivers/STM32L4xx_HAL_Driver/Src/stm32l4xx_hal_spi.c ****   }
1291:Drivers/STM32L4xx_HAL_Driver/Src/stm32l4xx_hal_spi.c **** 
1292:Drivers/STM32L4xx_HAL_Driver/Src/stm32l4xx_hal_spi.c ****   if ((pTxData == NULL) || (pRxData == NULL) || (Size == 0U))
 1384              		.loc 1 1292 6
 1385 006e BB68     		ldr	r3, [r7, #8]
 1386 0070 002B     		cmp	r3, #0
 1387 0072 05D0     		beq	.L77
 1388              		.loc 1 1292 25 discriminator 1
 1389 0074 7B68     		ldr	r3, [r7, #4]
 1390 0076 002B     		cmp	r3, #0
 1391 0078 02D0     		beq	.L77
 1392              		.loc 1 1292 46 discriminator 2
ARM GAS  C:\Users\Morroway\AppData\Local\Temp\ccCQJjHM.s 			page 48


 1393 007a 7B88     		ldrh	r3, [r7, #2]
 1394 007c 002B     		cmp	r3, #0
 1395 007e 03D1     		bne	.L78
 1396              	.L77:
1293:Drivers/STM32L4xx_HAL_Driver/Src/stm32l4xx_hal_spi.c ****   {
1294:Drivers/STM32L4xx_HAL_Driver/Src/stm32l4xx_hal_spi.c ****     errorcode = HAL_ERROR;
 1397              		.loc 1 1294 15
 1398 0080 0123     		movs	r3, #1
 1399 0082 87F82330 		strb	r3, [r7, #35]
1295:Drivers/STM32L4xx_HAL_Driver/Src/stm32l4xx_hal_spi.c ****     goto error;
 1400              		.loc 1 1295 5
 1401 0086 C0E1     		b	.L76
 1402              	.L78:
1296:Drivers/STM32L4xx_HAL_Driver/Src/stm32l4xx_hal_spi.c ****   }
1297:Drivers/STM32L4xx_HAL_Driver/Src/stm32l4xx_hal_spi.c **** 
1298:Drivers/STM32L4xx_HAL_Driver/Src/stm32l4xx_hal_spi.c ****   /* Don't overwrite in case of HAL_SPI_STATE_BUSY_RX */
1299:Drivers/STM32L4xx_HAL_Driver/Src/stm32l4xx_hal_spi.c ****   if (hspi->State != HAL_SPI_STATE_BUSY_RX)
 1403              		.loc 1 1299 11
 1404 0088 FB68     		ldr	r3, [r7, #12]
 1405 008a 93F85D30 		ldrb	r3, [r3, #93]
 1406 008e DBB2     		uxtb	r3, r3
 1407              		.loc 1 1299 6
 1408 0090 042B     		cmp	r3, #4
 1409 0092 03D0     		beq	.L79
1300:Drivers/STM32L4xx_HAL_Driver/Src/stm32l4xx_hal_spi.c ****   {
1301:Drivers/STM32L4xx_HAL_Driver/Src/stm32l4xx_hal_spi.c ****     hspi->State = HAL_SPI_STATE_BUSY_TX_RX;
 1410              		.loc 1 1301 17
 1411 0094 FB68     		ldr	r3, [r7, #12]
 1412 0096 0522     		movs	r2, #5
 1413 0098 83F85D20 		strb	r2, [r3, #93]
 1414              	.L79:
1302:Drivers/STM32L4xx_HAL_Driver/Src/stm32l4xx_hal_spi.c ****   }
1303:Drivers/STM32L4xx_HAL_Driver/Src/stm32l4xx_hal_spi.c **** 
1304:Drivers/STM32L4xx_HAL_Driver/Src/stm32l4xx_hal_spi.c ****   /* Set the transaction information */
1305:Drivers/STM32L4xx_HAL_Driver/Src/stm32l4xx_hal_spi.c ****   hspi->ErrorCode   = HAL_SPI_ERROR_NONE;
 1415              		.loc 1 1305 21
 1416 009c FB68     		ldr	r3, [r7, #12]
 1417 009e 0022     		movs	r2, #0
 1418 00a0 1A66     		str	r2, [r3, #96]
1306:Drivers/STM32L4xx_HAL_Driver/Src/stm32l4xx_hal_spi.c ****   hspi->pRxBuffPtr  = (uint8_t *)pRxData;
 1419              		.loc 1 1306 21
 1420 00a2 FB68     		ldr	r3, [r7, #12]
 1421 00a4 7A68     		ldr	r2, [r7, #4]
 1422 00a6 1A64     		str	r2, [r3, #64]
1307:Drivers/STM32L4xx_HAL_Driver/Src/stm32l4xx_hal_spi.c ****   hspi->RxXferCount = Size;
 1423              		.loc 1 1307 21
 1424 00a8 FB68     		ldr	r3, [r7, #12]
 1425 00aa 7A88     		ldrh	r2, [r7, #2]	@ movhi
 1426 00ac A3F84620 		strh	r2, [r3, #70]	@ movhi
1308:Drivers/STM32L4xx_HAL_Driver/Src/stm32l4xx_hal_spi.c ****   hspi->RxXferSize  = Size;
 1427              		.loc 1 1308 21
 1428 00b0 FB68     		ldr	r3, [r7, #12]
 1429 00b2 7A88     		ldrh	r2, [r7, #2]	@ movhi
 1430 00b4 A3F84420 		strh	r2, [r3, #68]	@ movhi
1309:Drivers/STM32L4xx_HAL_Driver/Src/stm32l4xx_hal_spi.c ****   hspi->pTxBuffPtr  = (uint8_t *)pTxData;
 1431              		.loc 1 1309 21
 1432 00b8 FB68     		ldr	r3, [r7, #12]
ARM GAS  C:\Users\Morroway\AppData\Local\Temp\ccCQJjHM.s 			page 49


 1433 00ba BA68     		ldr	r2, [r7, #8]
 1434 00bc 9A63     		str	r2, [r3, #56]
1310:Drivers/STM32L4xx_HAL_Driver/Src/stm32l4xx_hal_spi.c ****   hspi->TxXferCount = Size;
 1435              		.loc 1 1310 21
 1436 00be FB68     		ldr	r3, [r7, #12]
 1437 00c0 7A88     		ldrh	r2, [r7, #2]	@ movhi
 1438 00c2 DA87     		strh	r2, [r3, #62]	@ movhi
1311:Drivers/STM32L4xx_HAL_Driver/Src/stm32l4xx_hal_spi.c ****   hspi->TxXferSize  = Size;
 1439              		.loc 1 1311 21
 1440 00c4 FB68     		ldr	r3, [r7, #12]
 1441 00c6 7A88     		ldrh	r2, [r7, #2]	@ movhi
 1442 00c8 9A87     		strh	r2, [r3, #60]	@ movhi
1312:Drivers/STM32L4xx_HAL_Driver/Src/stm32l4xx_hal_spi.c **** 
1313:Drivers/STM32L4xx_HAL_Driver/Src/stm32l4xx_hal_spi.c ****   /*Init field not used in handle to zero */
1314:Drivers/STM32L4xx_HAL_Driver/Src/stm32l4xx_hal_spi.c ****   hspi->RxISR       = NULL;
 1443              		.loc 1 1314 21
 1444 00ca FB68     		ldr	r3, [r7, #12]
 1445 00cc 0022     		movs	r2, #0
 1446 00ce DA64     		str	r2, [r3, #76]
1315:Drivers/STM32L4xx_HAL_Driver/Src/stm32l4xx_hal_spi.c ****   hspi->TxISR       = NULL;
 1447              		.loc 1 1315 21
 1448 00d0 FB68     		ldr	r3, [r7, #12]
 1449 00d2 0022     		movs	r2, #0
 1450 00d4 1A65     		str	r2, [r3, #80]
1316:Drivers/STM32L4xx_HAL_Driver/Src/stm32l4xx_hal_spi.c **** 
1317:Drivers/STM32L4xx_HAL_Driver/Src/stm32l4xx_hal_spi.c **** #if (USE_SPI_CRC != 0U)
1318:Drivers/STM32L4xx_HAL_Driver/Src/stm32l4xx_hal_spi.c ****   /* Reset CRC Calculation */
1319:Drivers/STM32L4xx_HAL_Driver/Src/stm32l4xx_hal_spi.c ****   if (hspi->Init.CRCCalculation == SPI_CRCCALCULATION_ENABLE)
1320:Drivers/STM32L4xx_HAL_Driver/Src/stm32l4xx_hal_spi.c ****   {
1321:Drivers/STM32L4xx_HAL_Driver/Src/stm32l4xx_hal_spi.c ****     SPI_RESET_CRC(hspi);
1322:Drivers/STM32L4xx_HAL_Driver/Src/stm32l4xx_hal_spi.c ****   }
1323:Drivers/STM32L4xx_HAL_Driver/Src/stm32l4xx_hal_spi.c **** #endif /* USE_SPI_CRC */
1324:Drivers/STM32L4xx_HAL_Driver/Src/stm32l4xx_hal_spi.c **** 
1325:Drivers/STM32L4xx_HAL_Driver/Src/stm32l4xx_hal_spi.c ****   /* Set the Rx Fifo threshold */
1326:Drivers/STM32L4xx_HAL_Driver/Src/stm32l4xx_hal_spi.c ****   if ((hspi->Init.DataSize > SPI_DATASIZE_8BIT) || (initial_RxXferCount > 1U))
 1451              		.loc 1 1326 18
 1452 00d6 FB68     		ldr	r3, [r7, #12]
 1453 00d8 DB68     		ldr	r3, [r3, #12]
 1454              		.loc 1 1326 6
 1455 00da B3F5E06F 		cmp	r3, #1792
 1456 00de 02D8     		bhi	.L80
 1457              		.loc 1 1326 49 discriminator 1
 1458 00e0 3B8A     		ldrh	r3, [r7, #16]
 1459 00e2 012B     		cmp	r3, #1
 1460 00e4 08D9     		bls	.L81
 1461              	.L80:
1327:Drivers/STM32L4xx_HAL_Driver/Src/stm32l4xx_hal_spi.c ****   {
1328:Drivers/STM32L4xx_HAL_Driver/Src/stm32l4xx_hal_spi.c ****     /* Set fiforxthreshold according the reception data length: 16bit */
1329:Drivers/STM32L4xx_HAL_Driver/Src/stm32l4xx_hal_spi.c ****     CLEAR_BIT(hspi->Instance->CR2, SPI_RXFIFO_THRESHOLD);
 1462              		.loc 1 1329 5
 1463 00e6 FB68     		ldr	r3, [r7, #12]
 1464 00e8 1B68     		ldr	r3, [r3]
 1465 00ea 5A68     		ldr	r2, [r3, #4]
 1466 00ec FB68     		ldr	r3, [r7, #12]
 1467 00ee 1B68     		ldr	r3, [r3]
 1468 00f0 22F48052 		bic	r2, r2, #4096
 1469 00f4 5A60     		str	r2, [r3, #4]
ARM GAS  C:\Users\Morroway\AppData\Local\Temp\ccCQJjHM.s 			page 50


 1470 00f6 07E0     		b	.L82
 1471              	.L81:
1330:Drivers/STM32L4xx_HAL_Driver/Src/stm32l4xx_hal_spi.c ****   }
1331:Drivers/STM32L4xx_HAL_Driver/Src/stm32l4xx_hal_spi.c ****   else
1332:Drivers/STM32L4xx_HAL_Driver/Src/stm32l4xx_hal_spi.c ****   {
1333:Drivers/STM32L4xx_HAL_Driver/Src/stm32l4xx_hal_spi.c ****     /* Set fiforxthreshold according the reception data length: 8bit */
1334:Drivers/STM32L4xx_HAL_Driver/Src/stm32l4xx_hal_spi.c ****     SET_BIT(hspi->Instance->CR2, SPI_RXFIFO_THRESHOLD);
 1472              		.loc 1 1334 5
 1473 00f8 FB68     		ldr	r3, [r7, #12]
 1474 00fa 1B68     		ldr	r3, [r3]
 1475 00fc 5A68     		ldr	r2, [r3, #4]
 1476 00fe FB68     		ldr	r3, [r7, #12]
 1477 0100 1B68     		ldr	r3, [r3]
 1478 0102 42F48052 		orr	r2, r2, #4096
 1479 0106 5A60     		str	r2, [r3, #4]
 1480              	.L82:
1335:Drivers/STM32L4xx_HAL_Driver/Src/stm32l4xx_hal_spi.c ****   }
1336:Drivers/STM32L4xx_HAL_Driver/Src/stm32l4xx_hal_spi.c **** 
1337:Drivers/STM32L4xx_HAL_Driver/Src/stm32l4xx_hal_spi.c ****   /* Check if the SPI is already enabled */
1338:Drivers/STM32L4xx_HAL_Driver/Src/stm32l4xx_hal_spi.c ****   if ((hspi->Instance->CR1 & SPI_CR1_SPE) != SPI_CR1_SPE)
 1481              		.loc 1 1338 12
 1482 0108 FB68     		ldr	r3, [r7, #12]
 1483 010a 1B68     		ldr	r3, [r3]
 1484              		.loc 1 1338 22
 1485 010c 1B68     		ldr	r3, [r3]
 1486              		.loc 1 1338 28
 1487 010e 03F04003 		and	r3, r3, #64
 1488              		.loc 1 1338 6
 1489 0112 402B     		cmp	r3, #64
 1490 0114 07D0     		beq	.L83
1339:Drivers/STM32L4xx_HAL_Driver/Src/stm32l4xx_hal_spi.c ****   {
1340:Drivers/STM32L4xx_HAL_Driver/Src/stm32l4xx_hal_spi.c ****     /* Enable SPI peripheral */
1341:Drivers/STM32L4xx_HAL_Driver/Src/stm32l4xx_hal_spi.c ****     __HAL_SPI_ENABLE(hspi);
 1491              		.loc 1 1341 5
 1492 0116 FB68     		ldr	r3, [r7, #12]
 1493 0118 1B68     		ldr	r3, [r3]
 1494 011a 1A68     		ldr	r2, [r3]
 1495 011c FB68     		ldr	r3, [r7, #12]
 1496 011e 1B68     		ldr	r3, [r3]
 1497 0120 42F04002 		orr	r2, r2, #64
 1498 0124 1A60     		str	r2, [r3]
 1499              	.L83:
1342:Drivers/STM32L4xx_HAL_Driver/Src/stm32l4xx_hal_spi.c ****   }
1343:Drivers/STM32L4xx_HAL_Driver/Src/stm32l4xx_hal_spi.c **** 
1344:Drivers/STM32L4xx_HAL_Driver/Src/stm32l4xx_hal_spi.c ****   /* Transmit and Receive data in 16 Bit mode */
1345:Drivers/STM32L4xx_HAL_Driver/Src/stm32l4xx_hal_spi.c ****   if (hspi->Init.DataSize > SPI_DATASIZE_8BIT)
 1500              		.loc 1 1345 17
 1501 0126 FB68     		ldr	r3, [r7, #12]
 1502 0128 DB68     		ldr	r3, [r3, #12]
 1503              		.loc 1 1345 6
 1504 012a B3F5E06F 		cmp	r3, #1792
 1505 012e 7CD9     		bls	.L84
1346:Drivers/STM32L4xx_HAL_Driver/Src/stm32l4xx_hal_spi.c ****   {
1347:Drivers/STM32L4xx_HAL_Driver/Src/stm32l4xx_hal_spi.c ****     if ((hspi->Init.Mode == SPI_MODE_SLAVE) || (initial_TxXferCount == 0x01U))
 1506              		.loc 1 1347 20
 1507 0130 FB68     		ldr	r3, [r7, #12]
 1508 0132 5B68     		ldr	r3, [r3, #4]
ARM GAS  C:\Users\Morroway\AppData\Local\Temp\ccCQJjHM.s 			page 51


 1509              		.loc 1 1347 8
 1510 0134 002B     		cmp	r3, #0
 1511 0136 02D0     		beq	.L85
 1512              		.loc 1 1347 45 discriminator 1
 1513 0138 7B8A     		ldrh	r3, [r7, #18]
 1514 013a 012B     		cmp	r3, #1
 1515 013c 69D1     		bne	.L87
 1516              	.L85:
1348:Drivers/STM32L4xx_HAL_Driver/Src/stm32l4xx_hal_spi.c ****     {
1349:Drivers/STM32L4xx_HAL_Driver/Src/stm32l4xx_hal_spi.c ****       hspi->Instance->DR = *((uint16_t *)hspi->pTxBuffPtr);
 1517              		.loc 1 1349 46
 1518 013e FB68     		ldr	r3, [r7, #12]
 1519 0140 9B6B     		ldr	r3, [r3, #56]
 1520              		.loc 1 1349 28
 1521 0142 1A88     		ldrh	r2, [r3]
 1522              		.loc 1 1349 11
 1523 0144 FB68     		ldr	r3, [r7, #12]
 1524 0146 1B68     		ldr	r3, [r3]
 1525              		.loc 1 1349 26
 1526 0148 DA60     		str	r2, [r3, #12]
1350:Drivers/STM32L4xx_HAL_Driver/Src/stm32l4xx_hal_spi.c ****       hspi->pTxBuffPtr += sizeof(uint16_t);
 1527              		.loc 1 1350 24
 1528 014a FB68     		ldr	r3, [r7, #12]
 1529 014c 9B6B     		ldr	r3, [r3, #56]
 1530 014e 9A1C     		adds	r2, r3, #2
 1531 0150 FB68     		ldr	r3, [r7, #12]
 1532 0152 9A63     		str	r2, [r3, #56]
1351:Drivers/STM32L4xx_HAL_Driver/Src/stm32l4xx_hal_spi.c ****       hspi->TxXferCount--;
 1533              		.loc 1 1351 11
 1534 0154 FB68     		ldr	r3, [r7, #12]
 1535 0156 DB8F     		ldrh	r3, [r3, #62]	@ movhi
 1536 0158 9BB2     		uxth	r3, r3
 1537              		.loc 1 1351 24
 1538 015a 013B     		subs	r3, r3, #1
 1539 015c 9AB2     		uxth	r2, r3
 1540 015e FB68     		ldr	r3, [r7, #12]
 1541 0160 DA87     		strh	r2, [r3, #62]	@ movhi
1352:Drivers/STM32L4xx_HAL_Driver/Src/stm32l4xx_hal_spi.c ****     }
1353:Drivers/STM32L4xx_HAL_Driver/Src/stm32l4xx_hal_spi.c ****     while ((hspi->TxXferCount > 0U) || (hspi->RxXferCount > 0U))
 1542              		.loc 1 1353 11
 1543 0162 56E0     		b	.L87
 1544              	.L90:
1354:Drivers/STM32L4xx_HAL_Driver/Src/stm32l4xx_hal_spi.c ****     {
1355:Drivers/STM32L4xx_HAL_Driver/Src/stm32l4xx_hal_spi.c ****       /* Check TXE flag */
1356:Drivers/STM32L4xx_HAL_Driver/Src/stm32l4xx_hal_spi.c ****       if ((__HAL_SPI_GET_FLAG(hspi, SPI_FLAG_TXE)) && (hspi->TxXferCount > 0U) && (txallowed == 1U)
 1545              		.loc 1 1356 12
 1546 0164 FB68     		ldr	r3, [r7, #12]
 1547 0166 1B68     		ldr	r3, [r3]
 1548 0168 9B68     		ldr	r3, [r3, #8]
 1549 016a 03F00203 		and	r3, r3, #2
 1550              		.loc 1 1356 10
 1551 016e 022B     		cmp	r3, #2
 1552 0170 1BD1     		bne	.L88
 1553              		.loc 1 1356 60 discriminator 1
 1554 0172 FB68     		ldr	r3, [r7, #12]
 1555 0174 DB8F     		ldrh	r3, [r3, #62]	@ movhi
 1556 0176 9BB2     		uxth	r3, r3
ARM GAS  C:\Users\Morroway\AppData\Local\Temp\ccCQJjHM.s 			page 52


 1557              		.loc 1 1356 52 discriminator 1
 1558 0178 002B     		cmp	r3, #0
 1559 017a 16D0     		beq	.L88
 1560              		.loc 1 1356 80 discriminator 2
 1561 017c 7B6A     		ldr	r3, [r7, #36]
 1562 017e 012B     		cmp	r3, #1
 1563 0180 13D1     		bne	.L88
1357:Drivers/STM32L4xx_HAL_Driver/Src/stm32l4xx_hal_spi.c ****       {
1358:Drivers/STM32L4xx_HAL_Driver/Src/stm32l4xx_hal_spi.c ****         hspi->Instance->DR = *((uint16_t *)hspi->pTxBuffPtr);
 1564              		.loc 1 1358 48
 1565 0182 FB68     		ldr	r3, [r7, #12]
 1566 0184 9B6B     		ldr	r3, [r3, #56]
 1567              		.loc 1 1358 30
 1568 0186 1A88     		ldrh	r2, [r3]
 1569              		.loc 1 1358 13
 1570 0188 FB68     		ldr	r3, [r7, #12]
 1571 018a 1B68     		ldr	r3, [r3]
 1572              		.loc 1 1358 28
 1573 018c DA60     		str	r2, [r3, #12]
1359:Drivers/STM32L4xx_HAL_Driver/Src/stm32l4xx_hal_spi.c ****         hspi->pTxBuffPtr += sizeof(uint16_t);
 1574              		.loc 1 1359 26
 1575 018e FB68     		ldr	r3, [r7, #12]
 1576 0190 9B6B     		ldr	r3, [r3, #56]
 1577 0192 9A1C     		adds	r2, r3, #2
 1578 0194 FB68     		ldr	r3, [r7, #12]
 1579 0196 9A63     		str	r2, [r3, #56]
1360:Drivers/STM32L4xx_HAL_Driver/Src/stm32l4xx_hal_spi.c ****         hspi->TxXferCount--;
 1580              		.loc 1 1360 13
 1581 0198 FB68     		ldr	r3, [r7, #12]
 1582 019a DB8F     		ldrh	r3, [r3, #62]	@ movhi
 1583 019c 9BB2     		uxth	r3, r3
 1584              		.loc 1 1360 26
 1585 019e 013B     		subs	r3, r3, #1
 1586 01a0 9AB2     		uxth	r2, r3
 1587 01a2 FB68     		ldr	r3, [r7, #12]
 1588 01a4 DA87     		strh	r2, [r3, #62]	@ movhi
1361:Drivers/STM32L4xx_HAL_Driver/Src/stm32l4xx_hal_spi.c ****         /* Next Data is a reception (Rx). Tx not allowed */
1362:Drivers/STM32L4xx_HAL_Driver/Src/stm32l4xx_hal_spi.c ****         txallowed = 0U;
 1589              		.loc 1 1362 19
 1590 01a6 0023     		movs	r3, #0
 1591 01a8 7B62     		str	r3, [r7, #36]
 1592              	.L88:
1363:Drivers/STM32L4xx_HAL_Driver/Src/stm32l4xx_hal_spi.c **** 
1364:Drivers/STM32L4xx_HAL_Driver/Src/stm32l4xx_hal_spi.c **** #if (USE_SPI_CRC != 0U)
1365:Drivers/STM32L4xx_HAL_Driver/Src/stm32l4xx_hal_spi.c ****         /* Enable CRC Transmission */
1366:Drivers/STM32L4xx_HAL_Driver/Src/stm32l4xx_hal_spi.c ****         if ((hspi->TxXferCount == 0U) && (hspi->Init.CRCCalculation == SPI_CRCCALCULATION_ENABLE))
1367:Drivers/STM32L4xx_HAL_Driver/Src/stm32l4xx_hal_spi.c ****         {
1368:Drivers/STM32L4xx_HAL_Driver/Src/stm32l4xx_hal_spi.c ****           /* Set NSS Soft to received correctly the CRC on slave mode with NSS pulse activated */
1369:Drivers/STM32L4xx_HAL_Driver/Src/stm32l4xx_hal_spi.c ****           if ((READ_BIT(spi_cr1, SPI_CR1_MSTR) == 0U) && (READ_BIT(spi_cr2, SPI_CR2_NSSP) == SPI_CR
1370:Drivers/STM32L4xx_HAL_Driver/Src/stm32l4xx_hal_spi.c ****           {
1371:Drivers/STM32L4xx_HAL_Driver/Src/stm32l4xx_hal_spi.c ****             SET_BIT(hspi->Instance->CR1, SPI_CR1_SSM);
1372:Drivers/STM32L4xx_HAL_Driver/Src/stm32l4xx_hal_spi.c ****           }
1373:Drivers/STM32L4xx_HAL_Driver/Src/stm32l4xx_hal_spi.c ****           SET_BIT(hspi->Instance->CR1, SPI_CR1_CRCNEXT);
1374:Drivers/STM32L4xx_HAL_Driver/Src/stm32l4xx_hal_spi.c ****         }
1375:Drivers/STM32L4xx_HAL_Driver/Src/stm32l4xx_hal_spi.c **** #endif /* USE_SPI_CRC */
1376:Drivers/STM32L4xx_HAL_Driver/Src/stm32l4xx_hal_spi.c ****       }
1377:Drivers/STM32L4xx_HAL_Driver/Src/stm32l4xx_hal_spi.c **** 
ARM GAS  C:\Users\Morroway\AppData\Local\Temp\ccCQJjHM.s 			page 53


1378:Drivers/STM32L4xx_HAL_Driver/Src/stm32l4xx_hal_spi.c ****       /* Check RXNE flag */
1379:Drivers/STM32L4xx_HAL_Driver/Src/stm32l4xx_hal_spi.c ****       if ((__HAL_SPI_GET_FLAG(hspi, SPI_FLAG_RXNE)) && (hspi->RxXferCount > 0U))
 1593              		.loc 1 1379 12
 1594 01aa FB68     		ldr	r3, [r7, #12]
 1595 01ac 1B68     		ldr	r3, [r3]
 1596 01ae 9B68     		ldr	r3, [r3, #8]
 1597 01b0 03F00103 		and	r3, r3, #1
 1598              		.loc 1 1379 10
 1599 01b4 012B     		cmp	r3, #1
 1600 01b6 1CD1     		bne	.L89
 1601              		.loc 1 1379 61 discriminator 1
 1602 01b8 FB68     		ldr	r3, [r7, #12]
 1603 01ba B3F84630 		ldrh	r3, [r3, #70]	@ movhi
 1604 01be 9BB2     		uxth	r3, r3
 1605              		.loc 1 1379 53 discriminator 1
 1606 01c0 002B     		cmp	r3, #0
 1607 01c2 16D0     		beq	.L89
1380:Drivers/STM32L4xx_HAL_Driver/Src/stm32l4xx_hal_spi.c ****       {
1381:Drivers/STM32L4xx_HAL_Driver/Src/stm32l4xx_hal_spi.c ****         *((uint16_t *)hspi->pRxBuffPtr) = (uint16_t)hspi->Instance->DR;
 1608              		.loc 1 1381 57
 1609 01c4 FB68     		ldr	r3, [r7, #12]
 1610 01c6 1B68     		ldr	r3, [r3]
 1611              		.loc 1 1381 67
 1612 01c8 DA68     		ldr	r2, [r3, #12]
 1613              		.loc 1 1381 27
 1614 01ca FB68     		ldr	r3, [r7, #12]
 1615 01cc 1B6C     		ldr	r3, [r3, #64]
 1616              		.loc 1 1381 43
 1617 01ce 92B2     		uxth	r2, r2
 1618              		.loc 1 1381 41
 1619 01d0 1A80     		strh	r2, [r3]	@ movhi
1382:Drivers/STM32L4xx_HAL_Driver/Src/stm32l4xx_hal_spi.c ****         hspi->pRxBuffPtr += sizeof(uint16_t);
 1620              		.loc 1 1382 26
 1621 01d2 FB68     		ldr	r3, [r7, #12]
 1622 01d4 1B6C     		ldr	r3, [r3, #64]
 1623 01d6 9A1C     		adds	r2, r3, #2
 1624 01d8 FB68     		ldr	r3, [r7, #12]
 1625 01da 1A64     		str	r2, [r3, #64]
1383:Drivers/STM32L4xx_HAL_Driver/Src/stm32l4xx_hal_spi.c ****         hspi->RxXferCount--;
 1626              		.loc 1 1383 13
 1627 01dc FB68     		ldr	r3, [r7, #12]
 1628 01de B3F84630 		ldrh	r3, [r3, #70]	@ movhi
 1629 01e2 9BB2     		uxth	r3, r3
 1630              		.loc 1 1383 26
 1631 01e4 013B     		subs	r3, r3, #1
 1632 01e6 9AB2     		uxth	r2, r3
 1633 01e8 FB68     		ldr	r3, [r7, #12]
 1634 01ea A3F84620 		strh	r2, [r3, #70]	@ movhi
1384:Drivers/STM32L4xx_HAL_Driver/Src/stm32l4xx_hal_spi.c ****         /* Next Data is a Transmission (Tx). Tx is allowed */
1385:Drivers/STM32L4xx_HAL_Driver/Src/stm32l4xx_hal_spi.c ****         txallowed = 1U;
 1635              		.loc 1 1385 19
 1636 01ee 0123     		movs	r3, #1
 1637 01f0 7B62     		str	r3, [r7, #36]
 1638              	.L89:
1386:Drivers/STM32L4xx_HAL_Driver/Src/stm32l4xx_hal_spi.c ****       }
1387:Drivers/STM32L4xx_HAL_Driver/Src/stm32l4xx_hal_spi.c ****       if (((HAL_GetTick() - tickstart) >=  Timeout) && (Timeout != HAL_MAX_DELAY))
 1639              		.loc 1 1387 13
ARM GAS  C:\Users\Morroway\AppData\Local\Temp\ccCQJjHM.s 			page 54


 1640 01f2 FFF7FEFF 		bl	HAL_GetTick
 1641 01f6 0246     		mov	r2, r0
 1642              		.loc 1 1387 27
 1643 01f8 FB69     		ldr	r3, [r7, #28]
 1644 01fa D31A     		subs	r3, r2, r3
 1645              		.loc 1 1387 10
 1646 01fc 3A6B     		ldr	r2, [r7, #48]
 1647 01fe 9A42     		cmp	r2, r3
 1648 0200 07D8     		bhi	.L87
 1649              		.loc 1 1387 53 discriminator 1
 1650 0202 3B6B     		ldr	r3, [r7, #48]
 1651 0204 B3F1FF3F 		cmp	r3, #-1
 1652 0208 03D0     		beq	.L87
1388:Drivers/STM32L4xx_HAL_Driver/Src/stm32l4xx_hal_spi.c ****       {
1389:Drivers/STM32L4xx_HAL_Driver/Src/stm32l4xx_hal_spi.c ****         errorcode = HAL_TIMEOUT;
 1653              		.loc 1 1389 19
 1654 020a 0323     		movs	r3, #3
 1655 020c 87F82330 		strb	r3, [r7, #35]
1390:Drivers/STM32L4xx_HAL_Driver/Src/stm32l4xx_hal_spi.c ****         goto error;
 1656              		.loc 1 1390 9
 1657 0210 FBE0     		b	.L76
 1658              	.L87:
1353:Drivers/STM32L4xx_HAL_Driver/Src/stm32l4xx_hal_spi.c ****     {
 1659              		.loc 1 1353 17
 1660 0212 FB68     		ldr	r3, [r7, #12]
 1661 0214 DB8F     		ldrh	r3, [r3, #62]	@ movhi
 1662 0216 9BB2     		uxth	r3, r3
1353:Drivers/STM32L4xx_HAL_Driver/Src/stm32l4xx_hal_spi.c ****     {
 1663              		.loc 1 1353 37
 1664 0218 002B     		cmp	r3, #0
 1665 021a A3D1     		bne	.L90
1353:Drivers/STM32L4xx_HAL_Driver/Src/stm32l4xx_hal_spi.c ****     {
 1666              		.loc 1 1353 45 discriminator 1
 1667 021c FB68     		ldr	r3, [r7, #12]
 1668 021e B3F84630 		ldrh	r3, [r3, #70]	@ movhi
 1669 0222 9BB2     		uxth	r3, r3
1353:Drivers/STM32L4xx_HAL_Driver/Src/stm32l4xx_hal_spi.c ****     {
 1670              		.loc 1 1353 37 discriminator 1
 1671 0224 002B     		cmp	r3, #0
 1672 0226 9DD1     		bne	.L90
 1673 0228 DFE0     		b	.L91
 1674              	.L84:
1391:Drivers/STM32L4xx_HAL_Driver/Src/stm32l4xx_hal_spi.c ****       }
1392:Drivers/STM32L4xx_HAL_Driver/Src/stm32l4xx_hal_spi.c ****     }
1393:Drivers/STM32L4xx_HAL_Driver/Src/stm32l4xx_hal_spi.c ****   }
1394:Drivers/STM32L4xx_HAL_Driver/Src/stm32l4xx_hal_spi.c ****   /* Transmit and Receive data in 8 Bit mode */
1395:Drivers/STM32L4xx_HAL_Driver/Src/stm32l4xx_hal_spi.c ****   else
1396:Drivers/STM32L4xx_HAL_Driver/Src/stm32l4xx_hal_spi.c ****   {
1397:Drivers/STM32L4xx_HAL_Driver/Src/stm32l4xx_hal_spi.c ****     if ((hspi->Init.Mode == SPI_MODE_SLAVE) || (initial_TxXferCount == 0x01U))
 1675              		.loc 1 1397 20
 1676 022a FB68     		ldr	r3, [r7, #12]
 1677 022c 5B68     		ldr	r3, [r3, #4]
 1678              		.loc 1 1397 8
 1679 022e 002B     		cmp	r3, #0
 1680 0230 03D0     		beq	.L92
 1681              		.loc 1 1397 45 discriminator 1
 1682 0232 7B8A     		ldrh	r3, [r7, #18]
ARM GAS  C:\Users\Morroway\AppData\Local\Temp\ccCQJjHM.s 			page 55


 1683 0234 012B     		cmp	r3, #1
 1684 0236 40F0CB80 		bne	.L95
 1685              	.L92:
1398:Drivers/STM32L4xx_HAL_Driver/Src/stm32l4xx_hal_spi.c ****     {
1399:Drivers/STM32L4xx_HAL_Driver/Src/stm32l4xx_hal_spi.c ****       if (hspi->TxXferCount > 1U)
 1686              		.loc 1 1399 15
 1687 023a FB68     		ldr	r3, [r7, #12]
 1688 023c DB8F     		ldrh	r3, [r3, #62]	@ movhi
 1689 023e 9BB2     		uxth	r3, r3
 1690              		.loc 1 1399 10
 1691 0240 012B     		cmp	r3, #1
 1692 0242 12D9     		bls	.L94
1400:Drivers/STM32L4xx_HAL_Driver/Src/stm32l4xx_hal_spi.c ****       {
1401:Drivers/STM32L4xx_HAL_Driver/Src/stm32l4xx_hal_spi.c ****         hspi->Instance->DR = *((uint16_t *)hspi->pTxBuffPtr);
 1693              		.loc 1 1401 48
 1694 0244 FB68     		ldr	r3, [r7, #12]
 1695 0246 9B6B     		ldr	r3, [r3, #56]
 1696              		.loc 1 1401 30
 1697 0248 1A88     		ldrh	r2, [r3]
 1698              		.loc 1 1401 13
 1699 024a FB68     		ldr	r3, [r7, #12]
 1700 024c 1B68     		ldr	r3, [r3]
 1701              		.loc 1 1401 28
 1702 024e DA60     		str	r2, [r3, #12]
1402:Drivers/STM32L4xx_HAL_Driver/Src/stm32l4xx_hal_spi.c ****         hspi->pTxBuffPtr += sizeof(uint16_t);
 1703              		.loc 1 1402 26
 1704 0250 FB68     		ldr	r3, [r7, #12]
 1705 0252 9B6B     		ldr	r3, [r3, #56]
 1706 0254 9A1C     		adds	r2, r3, #2
 1707 0256 FB68     		ldr	r3, [r7, #12]
 1708 0258 9A63     		str	r2, [r3, #56]
1403:Drivers/STM32L4xx_HAL_Driver/Src/stm32l4xx_hal_spi.c ****         hspi->TxXferCount -= 2U;
 1709              		.loc 1 1403 27
 1710 025a FB68     		ldr	r3, [r7, #12]
 1711 025c DB8F     		ldrh	r3, [r3, #62]	@ movhi
 1712 025e 9BB2     		uxth	r3, r3
 1713 0260 023B     		subs	r3, r3, #2
 1714 0262 9AB2     		uxth	r2, r3
 1715 0264 FB68     		ldr	r3, [r7, #12]
 1716 0266 DA87     		strh	r2, [r3, #62]	@ movhi
 1717 0268 B2E0     		b	.L95
 1718              	.L94:
1404:Drivers/STM32L4xx_HAL_Driver/Src/stm32l4xx_hal_spi.c ****       }
1405:Drivers/STM32L4xx_HAL_Driver/Src/stm32l4xx_hal_spi.c ****       else
1406:Drivers/STM32L4xx_HAL_Driver/Src/stm32l4xx_hal_spi.c ****       {
1407:Drivers/STM32L4xx_HAL_Driver/Src/stm32l4xx_hal_spi.c ****         *(__IO uint8_t *)&hspi->Instance->DR = (*hspi->pTxBuffPtr);
 1719              		.loc 1 1407 54
 1720 026a FB68     		ldr	r3, [r7, #12]
 1721 026c 9A6B     		ldr	r2, [r3, #56]
 1722              		.loc 1 1407 31
 1723 026e FB68     		ldr	r3, [r7, #12]
 1724 0270 1B68     		ldr	r3, [r3]
 1725              		.loc 1 1407 26
 1726 0272 0C33     		adds	r3, r3, #12
 1727              		.loc 1 1407 49
 1728 0274 1278     		ldrb	r2, [r2]	@ zero_extendqisi2
 1729              		.loc 1 1407 46
ARM GAS  C:\Users\Morroway\AppData\Local\Temp\ccCQJjHM.s 			page 56


 1730 0276 1A70     		strb	r2, [r3]
1408:Drivers/STM32L4xx_HAL_Driver/Src/stm32l4xx_hal_spi.c ****         hspi->pTxBuffPtr++;
 1731              		.loc 1 1408 13
 1732 0278 FB68     		ldr	r3, [r7, #12]
 1733 027a 9B6B     		ldr	r3, [r3, #56]
 1734              		.loc 1 1408 25
 1735 027c 5A1C     		adds	r2, r3, #1
 1736 027e FB68     		ldr	r3, [r7, #12]
 1737 0280 9A63     		str	r2, [r3, #56]
1409:Drivers/STM32L4xx_HAL_Driver/Src/stm32l4xx_hal_spi.c ****         hspi->TxXferCount--;
 1738              		.loc 1 1409 13
 1739 0282 FB68     		ldr	r3, [r7, #12]
 1740 0284 DB8F     		ldrh	r3, [r3, #62]	@ movhi
 1741 0286 9BB2     		uxth	r3, r3
 1742              		.loc 1 1409 26
 1743 0288 013B     		subs	r3, r3, #1
 1744 028a 9AB2     		uxth	r2, r3
 1745 028c FB68     		ldr	r3, [r7, #12]
 1746 028e DA87     		strh	r2, [r3, #62]	@ movhi
1410:Drivers/STM32L4xx_HAL_Driver/Src/stm32l4xx_hal_spi.c ****       }
1411:Drivers/STM32L4xx_HAL_Driver/Src/stm32l4xx_hal_spi.c ****     }
1412:Drivers/STM32L4xx_HAL_Driver/Src/stm32l4xx_hal_spi.c ****     while ((hspi->TxXferCount > 0U) || (hspi->RxXferCount > 0U))
 1747              		.loc 1 1412 11
 1748 0290 9EE0     		b	.L95
 1749              	.L104:
1413:Drivers/STM32L4xx_HAL_Driver/Src/stm32l4xx_hal_spi.c ****     {
1414:Drivers/STM32L4xx_HAL_Driver/Src/stm32l4xx_hal_spi.c ****       /* Check TXE flag */
1415:Drivers/STM32L4xx_HAL_Driver/Src/stm32l4xx_hal_spi.c ****       if ((__HAL_SPI_GET_FLAG(hspi, SPI_FLAG_TXE)) && (hspi->TxXferCount > 0U) && (txallowed == 1U)
 1750              		.loc 1 1415 12
 1751 0292 FB68     		ldr	r3, [r7, #12]
 1752 0294 1B68     		ldr	r3, [r3]
 1753 0296 9B68     		ldr	r3, [r3, #8]
 1754 0298 03F00203 		and	r3, r3, #2
 1755              		.loc 1 1415 10
 1756 029c 022B     		cmp	r3, #2
 1757 029e 34D1     		bne	.L96
 1758              		.loc 1 1415 60 discriminator 1
 1759 02a0 FB68     		ldr	r3, [r7, #12]
 1760 02a2 DB8F     		ldrh	r3, [r3, #62]	@ movhi
 1761 02a4 9BB2     		uxth	r3, r3
 1762              		.loc 1 1415 52 discriminator 1
 1763 02a6 002B     		cmp	r3, #0
 1764 02a8 2FD0     		beq	.L96
 1765              		.loc 1 1415 80 discriminator 2
 1766 02aa 7B6A     		ldr	r3, [r7, #36]
 1767 02ac 012B     		cmp	r3, #1
 1768 02ae 2CD1     		bne	.L96
1416:Drivers/STM32L4xx_HAL_Driver/Src/stm32l4xx_hal_spi.c ****       {
1417:Drivers/STM32L4xx_HAL_Driver/Src/stm32l4xx_hal_spi.c ****         if (hspi->TxXferCount > 1U)
 1769              		.loc 1 1417 17
 1770 02b0 FB68     		ldr	r3, [r7, #12]
 1771 02b2 DB8F     		ldrh	r3, [r3, #62]	@ movhi
 1772 02b4 9BB2     		uxth	r3, r3
 1773              		.loc 1 1417 12
 1774 02b6 012B     		cmp	r3, #1
 1775 02b8 12D9     		bls	.L97
1418:Drivers/STM32L4xx_HAL_Driver/Src/stm32l4xx_hal_spi.c ****         {
ARM GAS  C:\Users\Morroway\AppData\Local\Temp\ccCQJjHM.s 			page 57


1419:Drivers/STM32L4xx_HAL_Driver/Src/stm32l4xx_hal_spi.c ****           hspi->Instance->DR = *((uint16_t *)hspi->pTxBuffPtr);
 1776              		.loc 1 1419 50
 1777 02ba FB68     		ldr	r3, [r7, #12]
 1778 02bc 9B6B     		ldr	r3, [r3, #56]
 1779              		.loc 1 1419 32
 1780 02be 1A88     		ldrh	r2, [r3]
 1781              		.loc 1 1419 15
 1782 02c0 FB68     		ldr	r3, [r7, #12]
 1783 02c2 1B68     		ldr	r3, [r3]
 1784              		.loc 1 1419 30
 1785 02c4 DA60     		str	r2, [r3, #12]
1420:Drivers/STM32L4xx_HAL_Driver/Src/stm32l4xx_hal_spi.c ****           hspi->pTxBuffPtr += sizeof(uint16_t);
 1786              		.loc 1 1420 28
 1787 02c6 FB68     		ldr	r3, [r7, #12]
 1788 02c8 9B6B     		ldr	r3, [r3, #56]
 1789 02ca 9A1C     		adds	r2, r3, #2
 1790 02cc FB68     		ldr	r3, [r7, #12]
 1791 02ce 9A63     		str	r2, [r3, #56]
1421:Drivers/STM32L4xx_HAL_Driver/Src/stm32l4xx_hal_spi.c ****           hspi->TxXferCount -= 2U;
 1792              		.loc 1 1421 29
 1793 02d0 FB68     		ldr	r3, [r7, #12]
 1794 02d2 DB8F     		ldrh	r3, [r3, #62]	@ movhi
 1795 02d4 9BB2     		uxth	r3, r3
 1796 02d6 023B     		subs	r3, r3, #2
 1797 02d8 9AB2     		uxth	r2, r3
 1798 02da FB68     		ldr	r3, [r7, #12]
 1799 02dc DA87     		strh	r2, [r3, #62]	@ movhi
 1800 02de 12E0     		b	.L98
 1801              	.L97:
1422:Drivers/STM32L4xx_HAL_Driver/Src/stm32l4xx_hal_spi.c ****         }
1423:Drivers/STM32L4xx_HAL_Driver/Src/stm32l4xx_hal_spi.c ****         else
1424:Drivers/STM32L4xx_HAL_Driver/Src/stm32l4xx_hal_spi.c ****         {
1425:Drivers/STM32L4xx_HAL_Driver/Src/stm32l4xx_hal_spi.c ****           *(__IO uint8_t *)&hspi->Instance->DR = (*hspi->pTxBuffPtr);
 1802              		.loc 1 1425 56
 1803 02e0 FB68     		ldr	r3, [r7, #12]
 1804 02e2 9A6B     		ldr	r2, [r3, #56]
 1805              		.loc 1 1425 33
 1806 02e4 FB68     		ldr	r3, [r7, #12]
 1807 02e6 1B68     		ldr	r3, [r3]
 1808              		.loc 1 1425 28
 1809 02e8 0C33     		adds	r3, r3, #12
 1810              		.loc 1 1425 51
 1811 02ea 1278     		ldrb	r2, [r2]	@ zero_extendqisi2
 1812              		.loc 1 1425 48
 1813 02ec 1A70     		strb	r2, [r3]
1426:Drivers/STM32L4xx_HAL_Driver/Src/stm32l4xx_hal_spi.c ****           hspi->pTxBuffPtr++;
 1814              		.loc 1 1426 15
 1815 02ee FB68     		ldr	r3, [r7, #12]
 1816 02f0 9B6B     		ldr	r3, [r3, #56]
 1817              		.loc 1 1426 27
 1818 02f2 5A1C     		adds	r2, r3, #1
 1819 02f4 FB68     		ldr	r3, [r7, #12]
 1820 02f6 9A63     		str	r2, [r3, #56]
1427:Drivers/STM32L4xx_HAL_Driver/Src/stm32l4xx_hal_spi.c ****           hspi->TxXferCount--;
 1821              		.loc 1 1427 15
 1822 02f8 FB68     		ldr	r3, [r7, #12]
 1823 02fa DB8F     		ldrh	r3, [r3, #62]	@ movhi
ARM GAS  C:\Users\Morroway\AppData\Local\Temp\ccCQJjHM.s 			page 58


 1824 02fc 9BB2     		uxth	r3, r3
 1825              		.loc 1 1427 28
 1826 02fe 013B     		subs	r3, r3, #1
 1827 0300 9AB2     		uxth	r2, r3
 1828 0302 FB68     		ldr	r3, [r7, #12]
 1829 0304 DA87     		strh	r2, [r3, #62]	@ movhi
 1830              	.L98:
1428:Drivers/STM32L4xx_HAL_Driver/Src/stm32l4xx_hal_spi.c ****         }
1429:Drivers/STM32L4xx_HAL_Driver/Src/stm32l4xx_hal_spi.c ****         /* Next Data is a reception (Rx). Tx not allowed */
1430:Drivers/STM32L4xx_HAL_Driver/Src/stm32l4xx_hal_spi.c ****         txallowed = 0U;
 1831              		.loc 1 1430 19
 1832 0306 0023     		movs	r3, #0
 1833 0308 7B62     		str	r3, [r7, #36]
 1834              	.L96:
1431:Drivers/STM32L4xx_HAL_Driver/Src/stm32l4xx_hal_spi.c **** 
1432:Drivers/STM32L4xx_HAL_Driver/Src/stm32l4xx_hal_spi.c **** #if (USE_SPI_CRC != 0U)
1433:Drivers/STM32L4xx_HAL_Driver/Src/stm32l4xx_hal_spi.c ****         /* Enable CRC Transmission */
1434:Drivers/STM32L4xx_HAL_Driver/Src/stm32l4xx_hal_spi.c ****         if ((hspi->TxXferCount == 0U) && (hspi->Init.CRCCalculation == SPI_CRCCALCULATION_ENABLE))
1435:Drivers/STM32L4xx_HAL_Driver/Src/stm32l4xx_hal_spi.c ****         {
1436:Drivers/STM32L4xx_HAL_Driver/Src/stm32l4xx_hal_spi.c ****           /* Set NSS Soft to received correctly the CRC on slave mode with NSS pulse activated */
1437:Drivers/STM32L4xx_HAL_Driver/Src/stm32l4xx_hal_spi.c ****           if ((READ_BIT(spi_cr1, SPI_CR1_MSTR) == 0U) && (READ_BIT(spi_cr2, SPI_CR2_NSSP) == SPI_CR
1438:Drivers/STM32L4xx_HAL_Driver/Src/stm32l4xx_hal_spi.c ****           {
1439:Drivers/STM32L4xx_HAL_Driver/Src/stm32l4xx_hal_spi.c ****             SET_BIT(hspi->Instance->CR1, SPI_CR1_SSM);
1440:Drivers/STM32L4xx_HAL_Driver/Src/stm32l4xx_hal_spi.c ****           }
1441:Drivers/STM32L4xx_HAL_Driver/Src/stm32l4xx_hal_spi.c ****           SET_BIT(hspi->Instance->CR1, SPI_CR1_CRCNEXT);
1442:Drivers/STM32L4xx_HAL_Driver/Src/stm32l4xx_hal_spi.c ****         }
1443:Drivers/STM32L4xx_HAL_Driver/Src/stm32l4xx_hal_spi.c **** #endif /* USE_SPI_CRC */
1444:Drivers/STM32L4xx_HAL_Driver/Src/stm32l4xx_hal_spi.c ****       }
1445:Drivers/STM32L4xx_HAL_Driver/Src/stm32l4xx_hal_spi.c **** 
1446:Drivers/STM32L4xx_HAL_Driver/Src/stm32l4xx_hal_spi.c ****       /* Wait until RXNE flag is reset */
1447:Drivers/STM32L4xx_HAL_Driver/Src/stm32l4xx_hal_spi.c ****       if ((__HAL_SPI_GET_FLAG(hspi, SPI_FLAG_RXNE)) && (hspi->RxXferCount > 0U))
 1835              		.loc 1 1447 12
 1836 030a FB68     		ldr	r3, [r7, #12]
 1837 030c 1B68     		ldr	r3, [r3]
 1838 030e 9B68     		ldr	r3, [r3, #8]
 1839 0310 03F00103 		and	r3, r3, #1
 1840              		.loc 1 1447 10
 1841 0314 012B     		cmp	r3, #1
 1842 0316 48D1     		bne	.L99
 1843              		.loc 1 1447 61 discriminator 1
 1844 0318 FB68     		ldr	r3, [r7, #12]
 1845 031a B3F84630 		ldrh	r3, [r3, #70]	@ movhi
 1846 031e 9BB2     		uxth	r3, r3
 1847              		.loc 1 1447 53 discriminator 1
 1848 0320 002B     		cmp	r3, #0
 1849 0322 42D0     		beq	.L99
1448:Drivers/STM32L4xx_HAL_Driver/Src/stm32l4xx_hal_spi.c ****       {
1449:Drivers/STM32L4xx_HAL_Driver/Src/stm32l4xx_hal_spi.c ****         if (hspi->RxXferCount > 1U)
 1850              		.loc 1 1449 17
 1851 0324 FB68     		ldr	r3, [r7, #12]
 1852 0326 B3F84630 		ldrh	r3, [r3, #70]	@ movhi
 1853 032a 9BB2     		uxth	r3, r3
 1854              		.loc 1 1449 12
 1855 032c 012B     		cmp	r3, #1
 1856 032e 23D9     		bls	.L100
1450:Drivers/STM32L4xx_HAL_Driver/Src/stm32l4xx_hal_spi.c ****         {
1451:Drivers/STM32L4xx_HAL_Driver/Src/stm32l4xx_hal_spi.c ****           *((uint16_t *)hspi->pRxBuffPtr) = (uint16_t)hspi->Instance->DR;
ARM GAS  C:\Users\Morroway\AppData\Local\Temp\ccCQJjHM.s 			page 59


 1857              		.loc 1 1451 59
 1858 0330 FB68     		ldr	r3, [r7, #12]
 1859 0332 1B68     		ldr	r3, [r3]
 1860              		.loc 1 1451 69
 1861 0334 DA68     		ldr	r2, [r3, #12]
 1862              		.loc 1 1451 29
 1863 0336 FB68     		ldr	r3, [r7, #12]
 1864 0338 1B6C     		ldr	r3, [r3, #64]
 1865              		.loc 1 1451 45
 1866 033a 92B2     		uxth	r2, r2
 1867              		.loc 1 1451 43
 1868 033c 1A80     		strh	r2, [r3]	@ movhi
1452:Drivers/STM32L4xx_HAL_Driver/Src/stm32l4xx_hal_spi.c ****           hspi->pRxBuffPtr += sizeof(uint16_t);
 1869              		.loc 1 1452 28
 1870 033e FB68     		ldr	r3, [r7, #12]
 1871 0340 1B6C     		ldr	r3, [r3, #64]
 1872 0342 9A1C     		adds	r2, r3, #2
 1873 0344 FB68     		ldr	r3, [r7, #12]
 1874 0346 1A64     		str	r2, [r3, #64]
1453:Drivers/STM32L4xx_HAL_Driver/Src/stm32l4xx_hal_spi.c ****           hspi->RxXferCount -= 2U;
 1875              		.loc 1 1453 29
 1876 0348 FB68     		ldr	r3, [r7, #12]
 1877 034a B3F84630 		ldrh	r3, [r3, #70]	@ movhi
 1878 034e 9BB2     		uxth	r3, r3
 1879 0350 023B     		subs	r3, r3, #2
 1880 0352 9AB2     		uxth	r2, r3
 1881 0354 FB68     		ldr	r3, [r7, #12]
 1882 0356 A3F84620 		strh	r2, [r3, #70]	@ movhi
1454:Drivers/STM32L4xx_HAL_Driver/Src/stm32l4xx_hal_spi.c ****           if (hspi->RxXferCount <= 1U)
 1883              		.loc 1 1454 19
 1884 035a FB68     		ldr	r3, [r7, #12]
 1885 035c B3F84630 		ldrh	r3, [r3, #70]	@ movhi
 1886 0360 9BB2     		uxth	r3, r3
 1887              		.loc 1 1454 14
 1888 0362 012B     		cmp	r3, #1
 1889 0364 1FD8     		bhi	.L101
1455:Drivers/STM32L4xx_HAL_Driver/Src/stm32l4xx_hal_spi.c ****           {
1456:Drivers/STM32L4xx_HAL_Driver/Src/stm32l4xx_hal_spi.c ****             /* Set RX Fifo threshold before to switch on 8 bit data size */
1457:Drivers/STM32L4xx_HAL_Driver/Src/stm32l4xx_hal_spi.c ****             SET_BIT(hspi->Instance->CR2, SPI_RXFIFO_THRESHOLD);
 1890              		.loc 1 1457 13
 1891 0366 FB68     		ldr	r3, [r7, #12]
 1892 0368 1B68     		ldr	r3, [r3]
 1893 036a 5A68     		ldr	r2, [r3, #4]
 1894 036c FB68     		ldr	r3, [r7, #12]
 1895 036e 1B68     		ldr	r3, [r3]
 1896 0370 42F48052 		orr	r2, r2, #4096
 1897 0374 5A60     		str	r2, [r3, #4]
 1898 0376 16E0     		b	.L101
 1899              	.L100:
1458:Drivers/STM32L4xx_HAL_Driver/Src/stm32l4xx_hal_spi.c ****           }
1459:Drivers/STM32L4xx_HAL_Driver/Src/stm32l4xx_hal_spi.c ****         }
1460:Drivers/STM32L4xx_HAL_Driver/Src/stm32l4xx_hal_spi.c ****         else
1461:Drivers/STM32L4xx_HAL_Driver/Src/stm32l4xx_hal_spi.c ****         {
1462:Drivers/STM32L4xx_HAL_Driver/Src/stm32l4xx_hal_spi.c ****           (*(uint8_t *)hspi->pRxBuffPtr) = *(__IO uint8_t *)&hspi->Instance->DR;
 1900              		.loc 1 1462 66
 1901 0378 FB68     		ldr	r3, [r7, #12]
 1902 037a 1B68     		ldr	r3, [r3]
ARM GAS  C:\Users\Morroway\AppData\Local\Temp\ccCQJjHM.s 			page 60


 1903              		.loc 1 1462 61
 1904 037c 03F10C02 		add	r2, r3, #12
 1905              		.loc 1 1462 28
 1906 0380 FB68     		ldr	r3, [r7, #12]
 1907 0382 1B6C     		ldr	r3, [r3, #64]
 1908              		.loc 1 1462 44
 1909 0384 1278     		ldrb	r2, [r2]
 1910 0386 D2B2     		uxtb	r2, r2
 1911              		.loc 1 1462 42
 1912 0388 1A70     		strb	r2, [r3]
1463:Drivers/STM32L4xx_HAL_Driver/Src/stm32l4xx_hal_spi.c ****           hspi->pRxBuffPtr++;
 1913              		.loc 1 1463 15
 1914 038a FB68     		ldr	r3, [r7, #12]
 1915 038c 1B6C     		ldr	r3, [r3, #64]
 1916              		.loc 1 1463 27
 1917 038e 5A1C     		adds	r2, r3, #1
 1918 0390 FB68     		ldr	r3, [r7, #12]
 1919 0392 1A64     		str	r2, [r3, #64]
1464:Drivers/STM32L4xx_HAL_Driver/Src/stm32l4xx_hal_spi.c ****           hspi->RxXferCount--;
 1920              		.loc 1 1464 15
 1921 0394 FB68     		ldr	r3, [r7, #12]
 1922 0396 B3F84630 		ldrh	r3, [r3, #70]	@ movhi
 1923 039a 9BB2     		uxth	r3, r3
 1924              		.loc 1 1464 28
 1925 039c 013B     		subs	r3, r3, #1
 1926 039e 9AB2     		uxth	r2, r3
 1927 03a0 FB68     		ldr	r3, [r7, #12]
 1928 03a2 A3F84620 		strh	r2, [r3, #70]	@ movhi
 1929              	.L101:
1465:Drivers/STM32L4xx_HAL_Driver/Src/stm32l4xx_hal_spi.c ****         }
1466:Drivers/STM32L4xx_HAL_Driver/Src/stm32l4xx_hal_spi.c ****         /* Next Data is a Transmission (Tx). Tx is allowed */
1467:Drivers/STM32L4xx_HAL_Driver/Src/stm32l4xx_hal_spi.c ****         txallowed = 1U;
 1930              		.loc 1 1467 19
 1931 03a6 0123     		movs	r3, #1
 1932 03a8 7B62     		str	r3, [r7, #36]
 1933              	.L99:
1468:Drivers/STM32L4xx_HAL_Driver/Src/stm32l4xx_hal_spi.c ****       }
1469:Drivers/STM32L4xx_HAL_Driver/Src/stm32l4xx_hal_spi.c ****       if ((((HAL_GetTick() - tickstart) >=  Timeout) && ((Timeout != HAL_MAX_DELAY))) || (Timeout =
 1934              		.loc 1 1469 14
 1935 03aa FFF7FEFF 		bl	HAL_GetTick
 1936 03ae 0246     		mov	r2, r0
 1937              		.loc 1 1469 28
 1938 03b0 FB69     		ldr	r3, [r7, #28]
 1939 03b2 D31A     		subs	r3, r2, r3
 1940              		.loc 1 1469 10
 1941 03b4 3A6B     		ldr	r2, [r7, #48]
 1942 03b6 9A42     		cmp	r2, r3
 1943 03b8 03D8     		bhi	.L102
 1944              		.loc 1 1469 54 discriminator 1
 1945 03ba 3B6B     		ldr	r3, [r7, #48]
 1946 03bc B3F1FF3F 		cmp	r3, #-1
 1947 03c0 02D1     		bne	.L103
 1948              	.L102:
 1949              		.loc 1 1469 87 discriminator 3
 1950 03c2 3B6B     		ldr	r3, [r7, #48]
 1951 03c4 002B     		cmp	r3, #0
 1952 03c6 03D1     		bne	.L95
ARM GAS  C:\Users\Morroway\AppData\Local\Temp\ccCQJjHM.s 			page 61


 1953              	.L103:
1470:Drivers/STM32L4xx_HAL_Driver/Src/stm32l4xx_hal_spi.c ****       {
1471:Drivers/STM32L4xx_HAL_Driver/Src/stm32l4xx_hal_spi.c ****         errorcode = HAL_TIMEOUT;
 1954              		.loc 1 1471 19
 1955 03c8 0323     		movs	r3, #3
 1956 03ca 87F82330 		strb	r3, [r7, #35]
1472:Drivers/STM32L4xx_HAL_Driver/Src/stm32l4xx_hal_spi.c ****         goto error;
 1957              		.loc 1 1472 9
 1958 03ce 1CE0     		b	.L76
 1959              	.L95:
1412:Drivers/STM32L4xx_HAL_Driver/Src/stm32l4xx_hal_spi.c ****     {
 1960              		.loc 1 1412 17
 1961 03d0 FB68     		ldr	r3, [r7, #12]
 1962 03d2 DB8F     		ldrh	r3, [r3, #62]	@ movhi
 1963 03d4 9BB2     		uxth	r3, r3
1412:Drivers/STM32L4xx_HAL_Driver/Src/stm32l4xx_hal_spi.c ****     {
 1964              		.loc 1 1412 37
 1965 03d6 002B     		cmp	r3, #0
 1966 03d8 7FF45BAF 		bne	.L104
1412:Drivers/STM32L4xx_HAL_Driver/Src/stm32l4xx_hal_spi.c ****     {
 1967              		.loc 1 1412 45 discriminator 1
 1968 03dc FB68     		ldr	r3, [r7, #12]
 1969 03de B3F84630 		ldrh	r3, [r3, #70]	@ movhi
 1970 03e2 9BB2     		uxth	r3, r3
1412:Drivers/STM32L4xx_HAL_Driver/Src/stm32l4xx_hal_spi.c ****     {
 1971              		.loc 1 1412 37 discriminator 1
 1972 03e4 002B     		cmp	r3, #0
 1973 03e6 7FF454AF 		bne	.L104
 1974              	.L91:
1473:Drivers/STM32L4xx_HAL_Driver/Src/stm32l4xx_hal_spi.c ****       }
1474:Drivers/STM32L4xx_HAL_Driver/Src/stm32l4xx_hal_spi.c ****     }
1475:Drivers/STM32L4xx_HAL_Driver/Src/stm32l4xx_hal_spi.c ****   }
1476:Drivers/STM32L4xx_HAL_Driver/Src/stm32l4xx_hal_spi.c **** 
1477:Drivers/STM32L4xx_HAL_Driver/Src/stm32l4xx_hal_spi.c **** #if (USE_SPI_CRC != 0U)
1478:Drivers/STM32L4xx_HAL_Driver/Src/stm32l4xx_hal_spi.c ****   /* Read CRC from DR to close CRC calculation process */
1479:Drivers/STM32L4xx_HAL_Driver/Src/stm32l4xx_hal_spi.c ****   if (hspi->Init.CRCCalculation == SPI_CRCCALCULATION_ENABLE)
1480:Drivers/STM32L4xx_HAL_Driver/Src/stm32l4xx_hal_spi.c ****   {
1481:Drivers/STM32L4xx_HAL_Driver/Src/stm32l4xx_hal_spi.c ****     /* Wait until TXE flag */
1482:Drivers/STM32L4xx_HAL_Driver/Src/stm32l4xx_hal_spi.c ****     if (SPI_WaitFlagStateUntilTimeout(hspi, SPI_FLAG_RXNE, SET, Timeout, tickstart) != HAL_OK)
1483:Drivers/STM32L4xx_HAL_Driver/Src/stm32l4xx_hal_spi.c ****     {
1484:Drivers/STM32L4xx_HAL_Driver/Src/stm32l4xx_hal_spi.c ****       /* Error on the CRC reception */
1485:Drivers/STM32L4xx_HAL_Driver/Src/stm32l4xx_hal_spi.c ****       SET_BIT(hspi->ErrorCode, HAL_SPI_ERROR_CRC);
1486:Drivers/STM32L4xx_HAL_Driver/Src/stm32l4xx_hal_spi.c ****       errorcode = HAL_TIMEOUT;
1487:Drivers/STM32L4xx_HAL_Driver/Src/stm32l4xx_hal_spi.c ****       goto error;
1488:Drivers/STM32L4xx_HAL_Driver/Src/stm32l4xx_hal_spi.c ****     }
1489:Drivers/STM32L4xx_HAL_Driver/Src/stm32l4xx_hal_spi.c ****     /* Read CRC */
1490:Drivers/STM32L4xx_HAL_Driver/Src/stm32l4xx_hal_spi.c ****     if (hspi->Init.DataSize == SPI_DATASIZE_16BIT)
1491:Drivers/STM32L4xx_HAL_Driver/Src/stm32l4xx_hal_spi.c ****     {
1492:Drivers/STM32L4xx_HAL_Driver/Src/stm32l4xx_hal_spi.c ****       /* Read 16bit CRC */
1493:Drivers/STM32L4xx_HAL_Driver/Src/stm32l4xx_hal_spi.c ****       tmpreg = READ_REG(hspi->Instance->DR);
1494:Drivers/STM32L4xx_HAL_Driver/Src/stm32l4xx_hal_spi.c ****       /* To avoid GCC warning */
1495:Drivers/STM32L4xx_HAL_Driver/Src/stm32l4xx_hal_spi.c ****       UNUSED(tmpreg);
1496:Drivers/STM32L4xx_HAL_Driver/Src/stm32l4xx_hal_spi.c ****     }
1497:Drivers/STM32L4xx_HAL_Driver/Src/stm32l4xx_hal_spi.c ****     else
1498:Drivers/STM32L4xx_HAL_Driver/Src/stm32l4xx_hal_spi.c ****     {
1499:Drivers/STM32L4xx_HAL_Driver/Src/stm32l4xx_hal_spi.c ****       /* Initialize the 8bit temporary pointer */
1500:Drivers/STM32L4xx_HAL_Driver/Src/stm32l4xx_hal_spi.c ****       ptmpreg8 = (__IO uint8_t *)&hspi->Instance->DR;
ARM GAS  C:\Users\Morroway\AppData\Local\Temp\ccCQJjHM.s 			page 62


1501:Drivers/STM32L4xx_HAL_Driver/Src/stm32l4xx_hal_spi.c ****       /* Read 8bit CRC */
1502:Drivers/STM32L4xx_HAL_Driver/Src/stm32l4xx_hal_spi.c ****       tmpreg8 = *ptmpreg8;
1503:Drivers/STM32L4xx_HAL_Driver/Src/stm32l4xx_hal_spi.c ****       /* To avoid GCC warning */
1504:Drivers/STM32L4xx_HAL_Driver/Src/stm32l4xx_hal_spi.c ****       UNUSED(tmpreg8);
1505:Drivers/STM32L4xx_HAL_Driver/Src/stm32l4xx_hal_spi.c **** 
1506:Drivers/STM32L4xx_HAL_Driver/Src/stm32l4xx_hal_spi.c ****       if (hspi->Init.CRCLength == SPI_CRC_LENGTH_16BIT)
1507:Drivers/STM32L4xx_HAL_Driver/Src/stm32l4xx_hal_spi.c ****       {
1508:Drivers/STM32L4xx_HAL_Driver/Src/stm32l4xx_hal_spi.c ****         if (SPI_WaitFlagStateUntilTimeout(hspi, SPI_FLAG_RXNE, SET, Timeout, tickstart) != HAL_OK)
1509:Drivers/STM32L4xx_HAL_Driver/Src/stm32l4xx_hal_spi.c ****         {
1510:Drivers/STM32L4xx_HAL_Driver/Src/stm32l4xx_hal_spi.c ****           /* Error on the CRC reception */
1511:Drivers/STM32L4xx_HAL_Driver/Src/stm32l4xx_hal_spi.c ****           SET_BIT(hspi->ErrorCode, HAL_SPI_ERROR_CRC);
1512:Drivers/STM32L4xx_HAL_Driver/Src/stm32l4xx_hal_spi.c ****           errorcode = HAL_TIMEOUT;
1513:Drivers/STM32L4xx_HAL_Driver/Src/stm32l4xx_hal_spi.c ****           goto error;
1514:Drivers/STM32L4xx_HAL_Driver/Src/stm32l4xx_hal_spi.c ****         }
1515:Drivers/STM32L4xx_HAL_Driver/Src/stm32l4xx_hal_spi.c ****         /* Read 8bit CRC again in case of 16bit CRC in 8bit Data mode */
1516:Drivers/STM32L4xx_HAL_Driver/Src/stm32l4xx_hal_spi.c ****         tmpreg8 = *ptmpreg8;
1517:Drivers/STM32L4xx_HAL_Driver/Src/stm32l4xx_hal_spi.c ****         /* To avoid GCC warning */
1518:Drivers/STM32L4xx_HAL_Driver/Src/stm32l4xx_hal_spi.c ****         UNUSED(tmpreg8);
1519:Drivers/STM32L4xx_HAL_Driver/Src/stm32l4xx_hal_spi.c ****       }
1520:Drivers/STM32L4xx_HAL_Driver/Src/stm32l4xx_hal_spi.c ****     }
1521:Drivers/STM32L4xx_HAL_Driver/Src/stm32l4xx_hal_spi.c ****   }
1522:Drivers/STM32L4xx_HAL_Driver/Src/stm32l4xx_hal_spi.c **** 
1523:Drivers/STM32L4xx_HAL_Driver/Src/stm32l4xx_hal_spi.c ****   /* Check if CRC error occurred */
1524:Drivers/STM32L4xx_HAL_Driver/Src/stm32l4xx_hal_spi.c ****   if (__HAL_SPI_GET_FLAG(hspi, SPI_FLAG_CRCERR))
1525:Drivers/STM32L4xx_HAL_Driver/Src/stm32l4xx_hal_spi.c ****   {
1526:Drivers/STM32L4xx_HAL_Driver/Src/stm32l4xx_hal_spi.c ****     SET_BIT(hspi->ErrorCode, HAL_SPI_ERROR_CRC);
1527:Drivers/STM32L4xx_HAL_Driver/Src/stm32l4xx_hal_spi.c ****     /* Clear CRC Flag */
1528:Drivers/STM32L4xx_HAL_Driver/Src/stm32l4xx_hal_spi.c ****     __HAL_SPI_CLEAR_CRCERRFLAG(hspi);
1529:Drivers/STM32L4xx_HAL_Driver/Src/stm32l4xx_hal_spi.c **** 
1530:Drivers/STM32L4xx_HAL_Driver/Src/stm32l4xx_hal_spi.c ****     errorcode = HAL_ERROR;
1531:Drivers/STM32L4xx_HAL_Driver/Src/stm32l4xx_hal_spi.c ****   }
1532:Drivers/STM32L4xx_HAL_Driver/Src/stm32l4xx_hal_spi.c **** #endif /* USE_SPI_CRC */
1533:Drivers/STM32L4xx_HAL_Driver/Src/stm32l4xx_hal_spi.c **** 
1534:Drivers/STM32L4xx_HAL_Driver/Src/stm32l4xx_hal_spi.c ****   /* Check the end of the transaction */
1535:Drivers/STM32L4xx_HAL_Driver/Src/stm32l4xx_hal_spi.c ****   if (SPI_EndRxTxTransaction(hspi, Timeout, tickstart) != HAL_OK)
 1975              		.loc 1 1535 7
 1976 03ea FA69     		ldr	r2, [r7, #28]
 1977 03ec 396B     		ldr	r1, [r7, #48]
 1978 03ee F868     		ldr	r0, [r7, #12]
 1979 03f0 FFF7FEFF 		bl	SPI_EndRxTxTransaction
 1980 03f4 0346     		mov	r3, r0
 1981              		.loc 1 1535 6
 1982 03f6 002B     		cmp	r3, #0
 1983 03f8 06D0     		beq	.L105
1536:Drivers/STM32L4xx_HAL_Driver/Src/stm32l4xx_hal_spi.c ****   {
1537:Drivers/STM32L4xx_HAL_Driver/Src/stm32l4xx_hal_spi.c ****     errorcode = HAL_ERROR;
 1984              		.loc 1 1537 15
 1985 03fa 0123     		movs	r3, #1
 1986 03fc 87F82330 		strb	r3, [r7, #35]
1538:Drivers/STM32L4xx_HAL_Driver/Src/stm32l4xx_hal_spi.c ****     hspi->ErrorCode = HAL_SPI_ERROR_FLAG;
 1987              		.loc 1 1538 21
 1988 0400 FB68     		ldr	r3, [r7, #12]
 1989 0402 2022     		movs	r2, #32
 1990 0404 1A66     		str	r2, [r3, #96]
 1991 0406 00E0     		b	.L76
 1992              	.L105:
1539:Drivers/STM32L4xx_HAL_Driver/Src/stm32l4xx_hal_spi.c ****   }
ARM GAS  C:\Users\Morroway\AppData\Local\Temp\ccCQJjHM.s 			page 63


1540:Drivers/STM32L4xx_HAL_Driver/Src/stm32l4xx_hal_spi.c **** 
1541:Drivers/STM32L4xx_HAL_Driver/Src/stm32l4xx_hal_spi.c **** error :
 1993              		.loc 1 1541 1
 1994 0408 00BF     		nop
 1995              	.L76:
1542:Drivers/STM32L4xx_HAL_Driver/Src/stm32l4xx_hal_spi.c ****   hspi->State = HAL_SPI_STATE_READY;
 1996              		.loc 1 1542 15
 1997 040a FB68     		ldr	r3, [r7, #12]
 1998 040c 0122     		movs	r2, #1
 1999 040e 83F85D20 		strb	r2, [r3, #93]
1543:Drivers/STM32L4xx_HAL_Driver/Src/stm32l4xx_hal_spi.c ****   __HAL_UNLOCK(hspi);
 2000              		.loc 1 1543 3
 2001 0412 FB68     		ldr	r3, [r7, #12]
 2002 0414 0022     		movs	r2, #0
 2003 0416 83F85C20 		strb	r2, [r3, #92]
1544:Drivers/STM32L4xx_HAL_Driver/Src/stm32l4xx_hal_spi.c ****   return errorcode;
 2004              		.loc 1 1544 10
 2005 041a 97F82330 		ldrb	r3, [r7, #35]	@ zero_extendqisi2
 2006              	.L73:
1545:Drivers/STM32L4xx_HAL_Driver/Src/stm32l4xx_hal_spi.c **** }
 2007              		.loc 1 1545 1
 2008 041e 1846     		mov	r0, r3
 2009 0420 2837     		adds	r7, r7, #40
 2010              		.cfi_def_cfa_offset 8
 2011 0422 BD46     		mov	sp, r7
 2012              		.cfi_def_cfa_register 13
 2013              		@ sp needed
 2014 0424 80BD     		pop	{r7, pc}
 2015              		.cfi_endproc
 2016              	.LFE327:
 2018              		.section	.text.HAL_SPI_Transmit_IT,"ax",%progbits
 2019              		.align	1
 2020              		.global	HAL_SPI_Transmit_IT
 2021              		.syntax unified
 2022              		.thumb
 2023              		.thumb_func
 2025              	HAL_SPI_Transmit_IT:
 2026              	.LFB328:
1546:Drivers/STM32L4xx_HAL_Driver/Src/stm32l4xx_hal_spi.c **** 
1547:Drivers/STM32L4xx_HAL_Driver/Src/stm32l4xx_hal_spi.c **** /**
1548:Drivers/STM32L4xx_HAL_Driver/Src/stm32l4xx_hal_spi.c ****   * @brief  Transmit an amount of data in non-blocking mode with Interrupt.
1549:Drivers/STM32L4xx_HAL_Driver/Src/stm32l4xx_hal_spi.c ****   * @param  hspi pointer to a SPI_HandleTypeDef structure that contains
1550:Drivers/STM32L4xx_HAL_Driver/Src/stm32l4xx_hal_spi.c ****   *               the configuration information for SPI module.
1551:Drivers/STM32L4xx_HAL_Driver/Src/stm32l4xx_hal_spi.c ****   * @param  pData pointer to data buffer
1552:Drivers/STM32L4xx_HAL_Driver/Src/stm32l4xx_hal_spi.c ****   * @param  Size amount of data to be sent
1553:Drivers/STM32L4xx_HAL_Driver/Src/stm32l4xx_hal_spi.c ****   * @retval HAL status
1554:Drivers/STM32L4xx_HAL_Driver/Src/stm32l4xx_hal_spi.c ****   */
1555:Drivers/STM32L4xx_HAL_Driver/Src/stm32l4xx_hal_spi.c **** HAL_StatusTypeDef HAL_SPI_Transmit_IT(SPI_HandleTypeDef *hspi, uint8_t *pData, uint16_t Size)
1556:Drivers/STM32L4xx_HAL_Driver/Src/stm32l4xx_hal_spi.c **** {
 2027              		.loc 1 1556 1
 2028              		.cfi_startproc
 2029              		@ args = 0, pretend = 0, frame = 24
 2030              		@ frame_needed = 1, uses_anonymous_args = 0
 2031              		@ link register save eliminated.
 2032 0000 80B4     		push	{r7}
 2033              		.cfi_def_cfa_offset 4
 2034              		.cfi_offset 7, -4
ARM GAS  C:\Users\Morroway\AppData\Local\Temp\ccCQJjHM.s 			page 64


 2035 0002 87B0     		sub	sp, sp, #28
 2036              		.cfi_def_cfa_offset 32
 2037 0004 00AF     		add	r7, sp, #0
 2038              		.cfi_def_cfa_register 7
 2039 0006 F860     		str	r0, [r7, #12]
 2040 0008 B960     		str	r1, [r7, #8]
 2041 000a 1346     		mov	r3, r2
 2042 000c FB80     		strh	r3, [r7, #6]	@ movhi
1557:Drivers/STM32L4xx_HAL_Driver/Src/stm32l4xx_hal_spi.c ****   HAL_StatusTypeDef errorcode = HAL_OK;
 2043              		.loc 1 1557 21
 2044 000e 0023     		movs	r3, #0
 2045 0010 FB75     		strb	r3, [r7, #23]
1558:Drivers/STM32L4xx_HAL_Driver/Src/stm32l4xx_hal_spi.c **** 
1559:Drivers/STM32L4xx_HAL_Driver/Src/stm32l4xx_hal_spi.c ****   /* Check Direction parameter */
1560:Drivers/STM32L4xx_HAL_Driver/Src/stm32l4xx_hal_spi.c ****   assert_param(IS_SPI_DIRECTION_2LINES_OR_1LINE(hspi->Init.Direction));
1561:Drivers/STM32L4xx_HAL_Driver/Src/stm32l4xx_hal_spi.c **** 
1562:Drivers/STM32L4xx_HAL_Driver/Src/stm32l4xx_hal_spi.c ****   /* Process Locked */
1563:Drivers/STM32L4xx_HAL_Driver/Src/stm32l4xx_hal_spi.c ****   __HAL_LOCK(hspi);
 2046              		.loc 1 1563 3
 2047 0012 FB68     		ldr	r3, [r7, #12]
 2048 0014 93F85C30 		ldrb	r3, [r3, #92]	@ zero_extendqisi2
 2049 0018 012B     		cmp	r3, #1
 2050 001a 01D1     		bne	.L107
 2051              		.loc 1 1563 3 is_stmt 0 discriminator 1
 2052 001c 0223     		movs	r3, #2
 2053 001e 72E0     		b	.L108
 2054              	.L107:
 2055              		.loc 1 1563 3 discriminator 2
 2056 0020 FB68     		ldr	r3, [r7, #12]
 2057 0022 0122     		movs	r2, #1
 2058 0024 83F85C20 		strb	r2, [r3, #92]
1564:Drivers/STM32L4xx_HAL_Driver/Src/stm32l4xx_hal_spi.c **** 
1565:Drivers/STM32L4xx_HAL_Driver/Src/stm32l4xx_hal_spi.c ****   if ((pData == NULL) || (Size == 0U))
 2059              		.loc 1 1565 6 is_stmt 1 discriminator 2
 2060 0028 BB68     		ldr	r3, [r7, #8]
 2061 002a 002B     		cmp	r3, #0
 2062 002c 02D0     		beq	.L109
 2063              		.loc 1 1565 23 discriminator 1
 2064 002e FB88     		ldrh	r3, [r7, #6]
 2065 0030 002B     		cmp	r3, #0
 2066 0032 02D1     		bne	.L110
 2067              	.L109:
1566:Drivers/STM32L4xx_HAL_Driver/Src/stm32l4xx_hal_spi.c ****   {
1567:Drivers/STM32L4xx_HAL_Driver/Src/stm32l4xx_hal_spi.c ****     errorcode = HAL_ERROR;
 2068              		.loc 1 1567 15
 2069 0034 0123     		movs	r3, #1
 2070 0036 FB75     		strb	r3, [r7, #23]
1568:Drivers/STM32L4xx_HAL_Driver/Src/stm32l4xx_hal_spi.c ****     goto error;
 2071              		.loc 1 1568 5
 2072 0038 60E0     		b	.L111
 2073              	.L110:
1569:Drivers/STM32L4xx_HAL_Driver/Src/stm32l4xx_hal_spi.c ****   }
1570:Drivers/STM32L4xx_HAL_Driver/Src/stm32l4xx_hal_spi.c **** 
1571:Drivers/STM32L4xx_HAL_Driver/Src/stm32l4xx_hal_spi.c ****   if (hspi->State != HAL_SPI_STATE_READY)
 2074              		.loc 1 1571 11
 2075 003a FB68     		ldr	r3, [r7, #12]
 2076 003c 93F85D30 		ldrb	r3, [r3, #93]
ARM GAS  C:\Users\Morroway\AppData\Local\Temp\ccCQJjHM.s 			page 65


 2077 0040 DBB2     		uxtb	r3, r3
 2078              		.loc 1 1571 6
 2079 0042 012B     		cmp	r3, #1
 2080 0044 02D0     		beq	.L112
1572:Drivers/STM32L4xx_HAL_Driver/Src/stm32l4xx_hal_spi.c ****   {
1573:Drivers/STM32L4xx_HAL_Driver/Src/stm32l4xx_hal_spi.c ****     errorcode = HAL_BUSY;
 2081              		.loc 1 1573 15
 2082 0046 0223     		movs	r3, #2
 2083 0048 FB75     		strb	r3, [r7, #23]
1574:Drivers/STM32L4xx_HAL_Driver/Src/stm32l4xx_hal_spi.c ****     goto error;
 2084              		.loc 1 1574 5
 2085 004a 57E0     		b	.L111
 2086              	.L112:
1575:Drivers/STM32L4xx_HAL_Driver/Src/stm32l4xx_hal_spi.c ****   }
1576:Drivers/STM32L4xx_HAL_Driver/Src/stm32l4xx_hal_spi.c **** 
1577:Drivers/STM32L4xx_HAL_Driver/Src/stm32l4xx_hal_spi.c ****   /* Set the transaction information */
1578:Drivers/STM32L4xx_HAL_Driver/Src/stm32l4xx_hal_spi.c ****   hspi->State       = HAL_SPI_STATE_BUSY_TX;
 2087              		.loc 1 1578 21
 2088 004c FB68     		ldr	r3, [r7, #12]
 2089 004e 0322     		movs	r2, #3
 2090 0050 83F85D20 		strb	r2, [r3, #93]
1579:Drivers/STM32L4xx_HAL_Driver/Src/stm32l4xx_hal_spi.c ****   hspi->ErrorCode   = HAL_SPI_ERROR_NONE;
 2091              		.loc 1 1579 21
 2092 0054 FB68     		ldr	r3, [r7, #12]
 2093 0056 0022     		movs	r2, #0
 2094 0058 1A66     		str	r2, [r3, #96]
1580:Drivers/STM32L4xx_HAL_Driver/Src/stm32l4xx_hal_spi.c ****   hspi->pTxBuffPtr  = (uint8_t *)pData;
 2095              		.loc 1 1580 21
 2096 005a FB68     		ldr	r3, [r7, #12]
 2097 005c BA68     		ldr	r2, [r7, #8]
 2098 005e 9A63     		str	r2, [r3, #56]
1581:Drivers/STM32L4xx_HAL_Driver/Src/stm32l4xx_hal_spi.c ****   hspi->TxXferSize  = Size;
 2099              		.loc 1 1581 21
 2100 0060 FB68     		ldr	r3, [r7, #12]
 2101 0062 FA88     		ldrh	r2, [r7, #6]	@ movhi
 2102 0064 9A87     		strh	r2, [r3, #60]	@ movhi
1582:Drivers/STM32L4xx_HAL_Driver/Src/stm32l4xx_hal_spi.c ****   hspi->TxXferCount = Size;
 2103              		.loc 1 1582 21
 2104 0066 FB68     		ldr	r3, [r7, #12]
 2105 0068 FA88     		ldrh	r2, [r7, #6]	@ movhi
 2106 006a DA87     		strh	r2, [r3, #62]	@ movhi
1583:Drivers/STM32L4xx_HAL_Driver/Src/stm32l4xx_hal_spi.c **** 
1584:Drivers/STM32L4xx_HAL_Driver/Src/stm32l4xx_hal_spi.c ****   /* Init field not used in handle to zero */
1585:Drivers/STM32L4xx_HAL_Driver/Src/stm32l4xx_hal_spi.c ****   hspi->pRxBuffPtr  = (uint8_t *)NULL;
 2107              		.loc 1 1585 21
 2108 006c FB68     		ldr	r3, [r7, #12]
 2109 006e 0022     		movs	r2, #0
 2110 0070 1A64     		str	r2, [r3, #64]
1586:Drivers/STM32L4xx_HAL_Driver/Src/stm32l4xx_hal_spi.c ****   hspi->RxXferSize  = 0U;
 2111              		.loc 1 1586 21
 2112 0072 FB68     		ldr	r3, [r7, #12]
 2113 0074 0022     		movs	r2, #0
 2114 0076 A3F84420 		strh	r2, [r3, #68]	@ movhi
1587:Drivers/STM32L4xx_HAL_Driver/Src/stm32l4xx_hal_spi.c ****   hspi->RxXferCount = 0U;
 2115              		.loc 1 1587 21
 2116 007a FB68     		ldr	r3, [r7, #12]
 2117 007c 0022     		movs	r2, #0
ARM GAS  C:\Users\Morroway\AppData\Local\Temp\ccCQJjHM.s 			page 66


 2118 007e A3F84620 		strh	r2, [r3, #70]	@ movhi
1588:Drivers/STM32L4xx_HAL_Driver/Src/stm32l4xx_hal_spi.c ****   hspi->RxISR       = NULL;
 2119              		.loc 1 1588 21
 2120 0082 FB68     		ldr	r3, [r7, #12]
 2121 0084 0022     		movs	r2, #0
 2122 0086 DA64     		str	r2, [r3, #76]
1589:Drivers/STM32L4xx_HAL_Driver/Src/stm32l4xx_hal_spi.c **** 
1590:Drivers/STM32L4xx_HAL_Driver/Src/stm32l4xx_hal_spi.c ****   /* Set the function for IT treatment */
1591:Drivers/STM32L4xx_HAL_Driver/Src/stm32l4xx_hal_spi.c ****   if (hspi->Init.DataSize > SPI_DATASIZE_8BIT)
 2123              		.loc 1 1591 17
 2124 0088 FB68     		ldr	r3, [r7, #12]
 2125 008a DB68     		ldr	r3, [r3, #12]
 2126              		.loc 1 1591 6
 2127 008c B3F5E06F 		cmp	r3, #1792
 2128 0090 03D9     		bls	.L113
1592:Drivers/STM32L4xx_HAL_Driver/Src/stm32l4xx_hal_spi.c ****   {
1593:Drivers/STM32L4xx_HAL_Driver/Src/stm32l4xx_hal_spi.c ****     hspi->TxISR = SPI_TxISR_16BIT;
 2129              		.loc 1 1593 17
 2130 0092 FB68     		ldr	r3, [r7, #12]
 2131 0094 1F4A     		ldr	r2, .L117
 2132 0096 1A65     		str	r2, [r3, #80]
 2133 0098 02E0     		b	.L114
 2134              	.L113:
1594:Drivers/STM32L4xx_HAL_Driver/Src/stm32l4xx_hal_spi.c ****   }
1595:Drivers/STM32L4xx_HAL_Driver/Src/stm32l4xx_hal_spi.c ****   else
1596:Drivers/STM32L4xx_HAL_Driver/Src/stm32l4xx_hal_spi.c ****   {
1597:Drivers/STM32L4xx_HAL_Driver/Src/stm32l4xx_hal_spi.c ****     hspi->TxISR = SPI_TxISR_8BIT;
 2135              		.loc 1 1597 17
 2136 009a FB68     		ldr	r3, [r7, #12]
 2137 009c 1E4A     		ldr	r2, .L117+4
 2138 009e 1A65     		str	r2, [r3, #80]
 2139              	.L114:
1598:Drivers/STM32L4xx_HAL_Driver/Src/stm32l4xx_hal_spi.c ****   }
1599:Drivers/STM32L4xx_HAL_Driver/Src/stm32l4xx_hal_spi.c **** 
1600:Drivers/STM32L4xx_HAL_Driver/Src/stm32l4xx_hal_spi.c ****   /* Configure communication direction : 1Line */
1601:Drivers/STM32L4xx_HAL_Driver/Src/stm32l4xx_hal_spi.c ****   if (hspi->Init.Direction == SPI_DIRECTION_1LINE)
 2140              		.loc 1 1601 17
 2141 00a0 FB68     		ldr	r3, [r7, #12]
 2142 00a2 9B68     		ldr	r3, [r3, #8]
 2143              		.loc 1 1601 6
 2144 00a4 B3F5004F 		cmp	r3, #32768
 2145 00a8 0FD1     		bne	.L115
1602:Drivers/STM32L4xx_HAL_Driver/Src/stm32l4xx_hal_spi.c ****   {
1603:Drivers/STM32L4xx_HAL_Driver/Src/stm32l4xx_hal_spi.c ****     /* Disable SPI Peripheral before set 1Line direction (BIDIOE bit) */
1604:Drivers/STM32L4xx_HAL_Driver/Src/stm32l4xx_hal_spi.c ****     __HAL_SPI_DISABLE(hspi);
 2146              		.loc 1 1604 5
 2147 00aa FB68     		ldr	r3, [r7, #12]
 2148 00ac 1B68     		ldr	r3, [r3]
 2149 00ae 1A68     		ldr	r2, [r3]
 2150 00b0 FB68     		ldr	r3, [r7, #12]
 2151 00b2 1B68     		ldr	r3, [r3]
 2152 00b4 22F04002 		bic	r2, r2, #64
 2153 00b8 1A60     		str	r2, [r3]
1605:Drivers/STM32L4xx_HAL_Driver/Src/stm32l4xx_hal_spi.c ****     SPI_1LINE_TX(hspi);
 2154              		.loc 1 1605 5
 2155 00ba FB68     		ldr	r3, [r7, #12]
 2156 00bc 1B68     		ldr	r3, [r3]
ARM GAS  C:\Users\Morroway\AppData\Local\Temp\ccCQJjHM.s 			page 67


 2157 00be 1A68     		ldr	r2, [r3]
 2158 00c0 FB68     		ldr	r3, [r7, #12]
 2159 00c2 1B68     		ldr	r3, [r3]
 2160 00c4 42F48042 		orr	r2, r2, #16384
 2161 00c8 1A60     		str	r2, [r3]
 2162              	.L115:
1606:Drivers/STM32L4xx_HAL_Driver/Src/stm32l4xx_hal_spi.c ****   }
1607:Drivers/STM32L4xx_HAL_Driver/Src/stm32l4xx_hal_spi.c **** 
1608:Drivers/STM32L4xx_HAL_Driver/Src/stm32l4xx_hal_spi.c **** #if (USE_SPI_CRC != 0U)
1609:Drivers/STM32L4xx_HAL_Driver/Src/stm32l4xx_hal_spi.c ****   /* Reset CRC Calculation */
1610:Drivers/STM32L4xx_HAL_Driver/Src/stm32l4xx_hal_spi.c ****   if (hspi->Init.CRCCalculation == SPI_CRCCALCULATION_ENABLE)
1611:Drivers/STM32L4xx_HAL_Driver/Src/stm32l4xx_hal_spi.c ****   {
1612:Drivers/STM32L4xx_HAL_Driver/Src/stm32l4xx_hal_spi.c ****     SPI_RESET_CRC(hspi);
1613:Drivers/STM32L4xx_HAL_Driver/Src/stm32l4xx_hal_spi.c ****   }
1614:Drivers/STM32L4xx_HAL_Driver/Src/stm32l4xx_hal_spi.c **** #endif /* USE_SPI_CRC */
1615:Drivers/STM32L4xx_HAL_Driver/Src/stm32l4xx_hal_spi.c **** 
1616:Drivers/STM32L4xx_HAL_Driver/Src/stm32l4xx_hal_spi.c ****   /* Enable TXE and ERR interrupt */
1617:Drivers/STM32L4xx_HAL_Driver/Src/stm32l4xx_hal_spi.c ****   __HAL_SPI_ENABLE_IT(hspi, (SPI_IT_TXE | SPI_IT_ERR));
 2163              		.loc 1 1617 3
 2164 00ca FB68     		ldr	r3, [r7, #12]
 2165 00cc 1B68     		ldr	r3, [r3]
 2166 00ce 5A68     		ldr	r2, [r3, #4]
 2167 00d0 FB68     		ldr	r3, [r7, #12]
 2168 00d2 1B68     		ldr	r3, [r3]
 2169 00d4 42F0A002 		orr	r2, r2, #160
 2170 00d8 5A60     		str	r2, [r3, #4]
1618:Drivers/STM32L4xx_HAL_Driver/Src/stm32l4xx_hal_spi.c **** 
1619:Drivers/STM32L4xx_HAL_Driver/Src/stm32l4xx_hal_spi.c **** 
1620:Drivers/STM32L4xx_HAL_Driver/Src/stm32l4xx_hal_spi.c ****   /* Check if the SPI is already enabled */
1621:Drivers/STM32L4xx_HAL_Driver/Src/stm32l4xx_hal_spi.c ****   if ((hspi->Instance->CR1 & SPI_CR1_SPE) != SPI_CR1_SPE)
 2171              		.loc 1 1621 12
 2172 00da FB68     		ldr	r3, [r7, #12]
 2173 00dc 1B68     		ldr	r3, [r3]
 2174              		.loc 1 1621 22
 2175 00de 1B68     		ldr	r3, [r3]
 2176              		.loc 1 1621 28
 2177 00e0 03F04003 		and	r3, r3, #64
 2178              		.loc 1 1621 6
 2179 00e4 402B     		cmp	r3, #64
 2180 00e6 08D0     		beq	.L116
1622:Drivers/STM32L4xx_HAL_Driver/Src/stm32l4xx_hal_spi.c ****   {
1623:Drivers/STM32L4xx_HAL_Driver/Src/stm32l4xx_hal_spi.c ****     /* Enable SPI peripheral */
1624:Drivers/STM32L4xx_HAL_Driver/Src/stm32l4xx_hal_spi.c ****     __HAL_SPI_ENABLE(hspi);
 2181              		.loc 1 1624 5
 2182 00e8 FB68     		ldr	r3, [r7, #12]
 2183 00ea 1B68     		ldr	r3, [r3]
 2184 00ec 1A68     		ldr	r2, [r3]
 2185 00ee FB68     		ldr	r3, [r7, #12]
 2186 00f0 1B68     		ldr	r3, [r3]
 2187 00f2 42F04002 		orr	r2, r2, #64
 2188 00f6 1A60     		str	r2, [r3]
 2189 00f8 00E0     		b	.L111
 2190              	.L116:
1625:Drivers/STM32L4xx_HAL_Driver/Src/stm32l4xx_hal_spi.c ****   }
1626:Drivers/STM32L4xx_HAL_Driver/Src/stm32l4xx_hal_spi.c **** 
1627:Drivers/STM32L4xx_HAL_Driver/Src/stm32l4xx_hal_spi.c **** error :
 2191              		.loc 1 1627 1
ARM GAS  C:\Users\Morroway\AppData\Local\Temp\ccCQJjHM.s 			page 68


 2192 00fa 00BF     		nop
 2193              	.L111:
1628:Drivers/STM32L4xx_HAL_Driver/Src/stm32l4xx_hal_spi.c ****   __HAL_UNLOCK(hspi);
 2194              		.loc 1 1628 3
 2195 00fc FB68     		ldr	r3, [r7, #12]
 2196 00fe 0022     		movs	r2, #0
 2197 0100 83F85C20 		strb	r2, [r3, #92]
1629:Drivers/STM32L4xx_HAL_Driver/Src/stm32l4xx_hal_spi.c ****   return errorcode;
 2198              		.loc 1 1629 10
 2199 0104 FB7D     		ldrb	r3, [r7, #23]	@ zero_extendqisi2
 2200              	.L108:
1630:Drivers/STM32L4xx_HAL_Driver/Src/stm32l4xx_hal_spi.c **** }
 2201              		.loc 1 1630 1
 2202 0106 1846     		mov	r0, r3
 2203 0108 1C37     		adds	r7, r7, #28
 2204              		.cfi_def_cfa_offset 4
 2205 010a BD46     		mov	sp, r7
 2206              		.cfi_def_cfa_register 13
 2207              		@ sp needed
 2208 010c 5DF8047B 		ldr	r7, [sp], #4
 2209              		.cfi_restore 7
 2210              		.cfi_def_cfa_offset 0
 2211 0110 7047     		bx	lr
 2212              	.L118:
 2213 0112 00BF     		.align	2
 2214              	.L117:
 2215 0114 00000000 		.word	SPI_TxISR_16BIT
 2216 0118 00000000 		.word	SPI_TxISR_8BIT
 2217              		.cfi_endproc
 2218              	.LFE328:
 2220              		.section	.text.HAL_SPI_Receive_IT,"ax",%progbits
 2221              		.align	1
 2222              		.global	HAL_SPI_Receive_IT
 2223              		.syntax unified
 2224              		.thumb
 2225              		.thumb_func
 2227              	HAL_SPI_Receive_IT:
 2228              	.LFB329:
1631:Drivers/STM32L4xx_HAL_Driver/Src/stm32l4xx_hal_spi.c **** 
1632:Drivers/STM32L4xx_HAL_Driver/Src/stm32l4xx_hal_spi.c **** /**
1633:Drivers/STM32L4xx_HAL_Driver/Src/stm32l4xx_hal_spi.c ****   * @brief  Receive an amount of data in non-blocking mode with Interrupt.
1634:Drivers/STM32L4xx_HAL_Driver/Src/stm32l4xx_hal_spi.c ****   * @param  hspi pointer to a SPI_HandleTypeDef structure that contains
1635:Drivers/STM32L4xx_HAL_Driver/Src/stm32l4xx_hal_spi.c ****   *               the configuration information for SPI module.
1636:Drivers/STM32L4xx_HAL_Driver/Src/stm32l4xx_hal_spi.c ****   * @param  pData pointer to data buffer
1637:Drivers/STM32L4xx_HAL_Driver/Src/stm32l4xx_hal_spi.c ****   * @param  Size amount of data to be sent
1638:Drivers/STM32L4xx_HAL_Driver/Src/stm32l4xx_hal_spi.c ****   * @retval HAL status
1639:Drivers/STM32L4xx_HAL_Driver/Src/stm32l4xx_hal_spi.c ****   */
1640:Drivers/STM32L4xx_HAL_Driver/Src/stm32l4xx_hal_spi.c **** HAL_StatusTypeDef HAL_SPI_Receive_IT(SPI_HandleTypeDef *hspi, uint8_t *pData, uint16_t Size)
1641:Drivers/STM32L4xx_HAL_Driver/Src/stm32l4xx_hal_spi.c **** {
 2229              		.loc 1 1641 1
 2230              		.cfi_startproc
 2231              		@ args = 0, pretend = 0, frame = 24
 2232              		@ frame_needed = 1, uses_anonymous_args = 0
 2233 0000 80B5     		push	{r7, lr}
 2234              		.cfi_def_cfa_offset 8
 2235              		.cfi_offset 7, -8
 2236              		.cfi_offset 14, -4
ARM GAS  C:\Users\Morroway\AppData\Local\Temp\ccCQJjHM.s 			page 69


 2237 0002 86B0     		sub	sp, sp, #24
 2238              		.cfi_def_cfa_offset 32
 2239 0004 00AF     		add	r7, sp, #0
 2240              		.cfi_def_cfa_register 7
 2241 0006 F860     		str	r0, [r7, #12]
 2242 0008 B960     		str	r1, [r7, #8]
 2243 000a 1346     		mov	r3, r2
 2244 000c FB80     		strh	r3, [r7, #6]	@ movhi
1642:Drivers/STM32L4xx_HAL_Driver/Src/stm32l4xx_hal_spi.c ****   HAL_StatusTypeDef errorcode = HAL_OK;
 2245              		.loc 1 1642 21
 2246 000e 0023     		movs	r3, #0
 2247 0010 FB75     		strb	r3, [r7, #23]
1643:Drivers/STM32L4xx_HAL_Driver/Src/stm32l4xx_hal_spi.c **** 
1644:Drivers/STM32L4xx_HAL_Driver/Src/stm32l4xx_hal_spi.c ****   if ((hspi->Init.Direction == SPI_DIRECTION_2LINES) && (hspi->Init.Mode == SPI_MODE_MASTER))
 2248              		.loc 1 1644 18
 2249 0012 FB68     		ldr	r3, [r7, #12]
 2250 0014 9B68     		ldr	r3, [r3, #8]
