ARM GAS  C:\Users\Morroway\AppData\Local\Temp\ccCQJjHM.s 			page 1


   1              		.cpu cortex-m4
   2              		.arch armv7e-m
   3              		.fpu fpv4-sp-d16
   4              		.eabi_attribute 27, 1
   5              		.eabi_attribute 28, 1
   6              		.eabi_attribute 20, 1
   7              		.eabi_attribute 21, 1
   8              		.eabi_attribute 23, 3
   9              		.eabi_attribute 24, 1
  10              		.eabi_attribute 25, 1
  11              		.eabi_attribute 26, 1
  12              		.eabi_attribute 30, 6
  13              		.eabi_attribute 34, 1
  14              		.eabi_attribute 18, 4
  15              		.file	"stm32l4xx_hal_spi.c"
  16              		.text
  17              	.Ltext0:
  18              		.cfi_sections	.debug_frame
  19              		.section	.text.HAL_SPI_Init,"ax",%progbits
  20              		.align	1
  21              		.global	HAL_SPI_Init
  22              		.syntax unified
  23              		.thumb
  24              		.thumb_func
  26              	HAL_SPI_Init:
  27              	.LFB321:
  28              		.file 1 "Drivers/STM32L4xx_HAL_Driver/Src/stm32l4xx_hal_spi.c"
   1:Drivers/STM32L4xx_HAL_Driver/Src/stm32l4xx_hal_spi.c **** /**
   2:Drivers/STM32L4xx_HAL_Driver/Src/stm32l4xx_hal_spi.c ****   ******************************************************************************
   3:Drivers/STM32L4xx_HAL_Driver/Src/stm32l4xx_hal_spi.c ****   * @file    stm32l4xx_hal_spi.c
   4:Drivers/STM32L4xx_HAL_Driver/Src/stm32l4xx_hal_spi.c ****   * @author  MCD Application Team
   5:Drivers/STM32L4xx_HAL_Driver/Src/stm32l4xx_hal_spi.c ****   * @brief   SPI HAL module driver.
   6:Drivers/STM32L4xx_HAL_Driver/Src/stm32l4xx_hal_spi.c ****   *          This file provides firmware functions to manage the following
   7:Drivers/STM32L4xx_HAL_Driver/Src/stm32l4xx_hal_spi.c ****   *          functionalities of the Serial Peripheral Interface (SPI) peripheral:
   8:Drivers/STM32L4xx_HAL_Driver/Src/stm32l4xx_hal_spi.c ****   *           + Initialization and de-initialization functions
   9:Drivers/STM32L4xx_HAL_Driver/Src/stm32l4xx_hal_spi.c ****   *           + IO operation functions
  10:Drivers/STM32L4xx_HAL_Driver/Src/stm32l4xx_hal_spi.c ****   *           + Peripheral Control functions
  11:Drivers/STM32L4xx_HAL_Driver/Src/stm32l4xx_hal_spi.c ****   *           + Peripheral State functions
  12:Drivers/STM32L4xx_HAL_Driver/Src/stm32l4xx_hal_spi.c ****   ******************************************************************************
  13:Drivers/STM32L4xx_HAL_Driver/Src/stm32l4xx_hal_spi.c ****   * @attention
  14:Drivers/STM32L4xx_HAL_Driver/Src/stm32l4xx_hal_spi.c ****   *
  15:Drivers/STM32L4xx_HAL_Driver/Src/stm32l4xx_hal_spi.c ****   * Copyright (c) 2017 STMicroelectronics.
  16:Drivers/STM32L4xx_HAL_Driver/Src/stm32l4xx_hal_spi.c ****   * All rights reserved.
  17:Drivers/STM32L4xx_HAL_Driver/Src/stm32l4xx_hal_spi.c ****   *
  18:Drivers/STM32L4xx_HAL_Driver/Src/stm32l4xx_hal_spi.c ****   * This software is licensed under terms that can be found in the LICENSE file
  19:Drivers/STM32L4xx_HAL_Driver/Src/stm32l4xx_hal_spi.c ****   * in the root directory of this software component.
  20:Drivers/STM32L4xx_HAL_Driver/Src/stm32l4xx_hal_spi.c ****   * If no LICENSE file comes with this software, it is provided AS-IS.
  21:Drivers/STM32L4xx_HAL_Driver/Src/stm32l4xx_hal_spi.c ****   *
  22:Drivers/STM32L4xx_HAL_Driver/Src/stm32l4xx_hal_spi.c ****   ******************************************************************************
  23:Drivers/STM32L4xx_HAL_Driver/Src/stm32l4xx_hal_spi.c ****   @verbatim
  24:Drivers/STM32L4xx_HAL_Driver/Src/stm32l4xx_hal_spi.c ****   ==============================================================================
  25:Drivers/STM32L4xx_HAL_Driver/Src/stm32l4xx_hal_spi.c ****                         ##### How to use this driver #####
  26:Drivers/STM32L4xx_HAL_Driver/Src/stm32l4xx_hal_spi.c ****   ==============================================================================
  27:Drivers/STM32L4xx_HAL_Driver/Src/stm32l4xx_hal_spi.c ****     [..]
  28:Drivers/STM32L4xx_HAL_Driver/Src/stm32l4xx_hal_spi.c ****       The SPI HAL driver can be used as follows:
  29:Drivers/STM32L4xx_HAL_Driver/Src/stm32l4xx_hal_spi.c **** 
  30:Drivers/STM32L4xx_HAL_Driver/Src/stm32l4xx_hal_spi.c ****       (#) Declare a SPI_HandleTypeDef handle structure, for example:
ARM GAS  C:\Users\Morroway\AppData\Local\Temp\ccCQJjHM.s 			page 2


  31:Drivers/STM32L4xx_HAL_Driver/Src/stm32l4xx_hal_spi.c ****           SPI_HandleTypeDef  hspi;
  32:Drivers/STM32L4xx_HAL_Driver/Src/stm32l4xx_hal_spi.c **** 
  33:Drivers/STM32L4xx_HAL_Driver/Src/stm32l4xx_hal_spi.c ****       (#)Initialize the SPI low level resources by implementing the HAL_SPI_MspInit() API:
  34:Drivers/STM32L4xx_HAL_Driver/Src/stm32l4xx_hal_spi.c ****           (##) Enable the SPIx interface clock
  35:Drivers/STM32L4xx_HAL_Driver/Src/stm32l4xx_hal_spi.c ****           (##) SPI pins configuration
  36:Drivers/STM32L4xx_HAL_Driver/Src/stm32l4xx_hal_spi.c ****               (+++) Enable the clock for the SPI GPIOs
  37:Drivers/STM32L4xx_HAL_Driver/Src/stm32l4xx_hal_spi.c ****               (+++) Configure these SPI pins as alternate function push-pull
  38:Drivers/STM32L4xx_HAL_Driver/Src/stm32l4xx_hal_spi.c ****           (##) NVIC configuration if you need to use interrupt process
  39:Drivers/STM32L4xx_HAL_Driver/Src/stm32l4xx_hal_spi.c ****               (+++) Configure the SPIx interrupt priority
  40:Drivers/STM32L4xx_HAL_Driver/Src/stm32l4xx_hal_spi.c ****               (+++) Enable the NVIC SPI IRQ handle
  41:Drivers/STM32L4xx_HAL_Driver/Src/stm32l4xx_hal_spi.c ****           (##) DMA Configuration if you need to use DMA process
  42:Drivers/STM32L4xx_HAL_Driver/Src/stm32l4xx_hal_spi.c ****               (+++) Declare a DMA_HandleTypeDef handle structure for the transmit or receive Stream
  43:Drivers/STM32L4xx_HAL_Driver/Src/stm32l4xx_hal_spi.c ****               (+++) Enable the DMAx clock
  44:Drivers/STM32L4xx_HAL_Driver/Src/stm32l4xx_hal_spi.c ****               (+++) Configure the DMA handle parameters
  45:Drivers/STM32L4xx_HAL_Driver/Src/stm32l4xx_hal_spi.c ****               (+++) Configure the DMA Tx or Rx Stream/Channel
  46:Drivers/STM32L4xx_HAL_Driver/Src/stm32l4xx_hal_spi.c ****               (+++) Associate the initialized hdma_tx(or _rx)  handle to the hspi DMA Tx or Rx hand
  47:Drivers/STM32L4xx_HAL_Driver/Src/stm32l4xx_hal_spi.c ****               (+++) Configure the priority and enable the NVIC for the transfer complete interrupt 
  48:Drivers/STM32L4xx_HAL_Driver/Src/stm32l4xx_hal_spi.c **** 
  49:Drivers/STM32L4xx_HAL_Driver/Src/stm32l4xx_hal_spi.c ****       (#) Program the Mode, BidirectionalMode , Data size, Baudrate Prescaler, NSS
  50:Drivers/STM32L4xx_HAL_Driver/Src/stm32l4xx_hal_spi.c ****           management, Clock polarity and phase, FirstBit and CRC configuration in the hspi Init str
  51:Drivers/STM32L4xx_HAL_Driver/Src/stm32l4xx_hal_spi.c **** 
  52:Drivers/STM32L4xx_HAL_Driver/Src/stm32l4xx_hal_spi.c ****       (#) Initialize the SPI registers by calling the HAL_SPI_Init() API:
  53:Drivers/STM32L4xx_HAL_Driver/Src/stm32l4xx_hal_spi.c ****           (++) This API configures also the low level Hardware GPIO, CLOCK, CORTEX...etc)
  54:Drivers/STM32L4xx_HAL_Driver/Src/stm32l4xx_hal_spi.c ****               by calling the customized HAL_SPI_MspInit() API.
  55:Drivers/STM32L4xx_HAL_Driver/Src/stm32l4xx_hal_spi.c ****      [..]
  56:Drivers/STM32L4xx_HAL_Driver/Src/stm32l4xx_hal_spi.c ****        Circular mode restriction:
  57:Drivers/STM32L4xx_HAL_Driver/Src/stm32l4xx_hal_spi.c ****       (#) The DMA circular mode cannot be used when the SPI is configured in these modes:
  58:Drivers/STM32L4xx_HAL_Driver/Src/stm32l4xx_hal_spi.c ****           (##) Master 2Lines RxOnly
  59:Drivers/STM32L4xx_HAL_Driver/Src/stm32l4xx_hal_spi.c ****           (##) Master 1Line Rx
  60:Drivers/STM32L4xx_HAL_Driver/Src/stm32l4xx_hal_spi.c ****       (#) The CRC feature is not managed when the DMA circular mode is enabled
  61:Drivers/STM32L4xx_HAL_Driver/Src/stm32l4xx_hal_spi.c ****       (#) When the SPI DMA Pause/Stop features are used, we must use the following APIs
  62:Drivers/STM32L4xx_HAL_Driver/Src/stm32l4xx_hal_spi.c ****           the HAL_SPI_DMAPause()/ HAL_SPI_DMAStop() only under the SPI callbacks
  63:Drivers/STM32L4xx_HAL_Driver/Src/stm32l4xx_hal_spi.c ****      [..]
  64:Drivers/STM32L4xx_HAL_Driver/Src/stm32l4xx_hal_spi.c ****        Master Receive mode restriction:
  65:Drivers/STM32L4xx_HAL_Driver/Src/stm32l4xx_hal_spi.c ****       (#) In Master unidirectional receive-only mode (MSTR =1, BIDIMODE=0, RXONLY=1) or
  66:Drivers/STM32L4xx_HAL_Driver/Src/stm32l4xx_hal_spi.c ****           bidirectional receive mode (MSTR=1, BIDIMODE=1, BIDIOE=0), to ensure that the SPI
  67:Drivers/STM32L4xx_HAL_Driver/Src/stm32l4xx_hal_spi.c ****           does not initiate a new transfer the following procedure has to be respected:
  68:Drivers/STM32L4xx_HAL_Driver/Src/stm32l4xx_hal_spi.c ****           (##) HAL_SPI_DeInit()
  69:Drivers/STM32L4xx_HAL_Driver/Src/stm32l4xx_hal_spi.c ****           (##) HAL_SPI_Init()
  70:Drivers/STM32L4xx_HAL_Driver/Src/stm32l4xx_hal_spi.c ****      [..]
  71:Drivers/STM32L4xx_HAL_Driver/Src/stm32l4xx_hal_spi.c ****        Callback registration:
  72:Drivers/STM32L4xx_HAL_Driver/Src/stm32l4xx_hal_spi.c **** 
  73:Drivers/STM32L4xx_HAL_Driver/Src/stm32l4xx_hal_spi.c ****       (#) The compilation flag USE_HAL_SPI_REGISTER_CALLBACKS when set to 1U
  74:Drivers/STM32L4xx_HAL_Driver/Src/stm32l4xx_hal_spi.c ****           allows the user to configure dynamically the driver callbacks.
  75:Drivers/STM32L4xx_HAL_Driver/Src/stm32l4xx_hal_spi.c ****           Use Functions HAL_SPI_RegisterCallback() to register an interrupt callback.
  76:Drivers/STM32L4xx_HAL_Driver/Src/stm32l4xx_hal_spi.c **** 
  77:Drivers/STM32L4xx_HAL_Driver/Src/stm32l4xx_hal_spi.c ****           Function HAL_SPI_RegisterCallback() allows to register following callbacks:
  78:Drivers/STM32L4xx_HAL_Driver/Src/stm32l4xx_hal_spi.c ****             (++) TxCpltCallback        : SPI Tx Completed callback
  79:Drivers/STM32L4xx_HAL_Driver/Src/stm32l4xx_hal_spi.c ****             (++) RxCpltCallback        : SPI Rx Completed callback
  80:Drivers/STM32L4xx_HAL_Driver/Src/stm32l4xx_hal_spi.c ****             (++) TxRxCpltCallback      : SPI TxRx Completed callback
  81:Drivers/STM32L4xx_HAL_Driver/Src/stm32l4xx_hal_spi.c ****             (++) TxHalfCpltCallback    : SPI Tx Half Completed callback
  82:Drivers/STM32L4xx_HAL_Driver/Src/stm32l4xx_hal_spi.c ****             (++) RxHalfCpltCallback    : SPI Rx Half Completed callback
  83:Drivers/STM32L4xx_HAL_Driver/Src/stm32l4xx_hal_spi.c ****             (++) TxRxHalfCpltCallback  : SPI TxRx Half Completed callback
  84:Drivers/STM32L4xx_HAL_Driver/Src/stm32l4xx_hal_spi.c ****             (++) ErrorCallback         : SPI Error callback
  85:Drivers/STM32L4xx_HAL_Driver/Src/stm32l4xx_hal_spi.c ****             (++) AbortCpltCallback     : SPI Abort callback
  86:Drivers/STM32L4xx_HAL_Driver/Src/stm32l4xx_hal_spi.c ****             (++) MspInitCallback       : SPI Msp Init callback
  87:Drivers/STM32L4xx_HAL_Driver/Src/stm32l4xx_hal_spi.c ****             (++) MspDeInitCallback     : SPI Msp DeInit callback
ARM GAS  C:\Users\Morroway\AppData\Local\Temp\ccCQJjHM.s 			page 3


  88:Drivers/STM32L4xx_HAL_Driver/Src/stm32l4xx_hal_spi.c ****           This function takes as parameters the HAL peripheral handle, the Callback ID
  89:Drivers/STM32L4xx_HAL_Driver/Src/stm32l4xx_hal_spi.c ****           and a pointer to the user callback function.
  90:Drivers/STM32L4xx_HAL_Driver/Src/stm32l4xx_hal_spi.c **** 
  91:Drivers/STM32L4xx_HAL_Driver/Src/stm32l4xx_hal_spi.c **** 
  92:Drivers/STM32L4xx_HAL_Driver/Src/stm32l4xx_hal_spi.c ****       (#) Use function HAL_SPI_UnRegisterCallback to reset a callback to the default
  93:Drivers/STM32L4xx_HAL_Driver/Src/stm32l4xx_hal_spi.c ****           weak function.
  94:Drivers/STM32L4xx_HAL_Driver/Src/stm32l4xx_hal_spi.c ****           HAL_SPI_UnRegisterCallback takes as parameters the HAL peripheral handle,
  95:Drivers/STM32L4xx_HAL_Driver/Src/stm32l4xx_hal_spi.c ****           and the Callback ID.
  96:Drivers/STM32L4xx_HAL_Driver/Src/stm32l4xx_hal_spi.c ****           This function allows to reset following callbacks:
  97:Drivers/STM32L4xx_HAL_Driver/Src/stm32l4xx_hal_spi.c ****             (++) TxCpltCallback        : SPI Tx Completed callback
  98:Drivers/STM32L4xx_HAL_Driver/Src/stm32l4xx_hal_spi.c ****             (++) RxCpltCallback        : SPI Rx Completed callback
  99:Drivers/STM32L4xx_HAL_Driver/Src/stm32l4xx_hal_spi.c ****             (++) TxRxCpltCallback      : SPI TxRx Completed callback
 100:Drivers/STM32L4xx_HAL_Driver/Src/stm32l4xx_hal_spi.c ****             (++) TxHalfCpltCallback    : SPI Tx Half Completed callback
 101:Drivers/STM32L4xx_HAL_Driver/Src/stm32l4xx_hal_spi.c ****             (++) RxHalfCpltCallback    : SPI Rx Half Completed callback
 102:Drivers/STM32L4xx_HAL_Driver/Src/stm32l4xx_hal_spi.c ****             (++) TxRxHalfCpltCallback  : SPI TxRx Half Completed callback
 103:Drivers/STM32L4xx_HAL_Driver/Src/stm32l4xx_hal_spi.c ****             (++) ErrorCallback         : SPI Error callback
 104:Drivers/STM32L4xx_HAL_Driver/Src/stm32l4xx_hal_spi.c ****             (++) AbortCpltCallback     : SPI Abort callback
 105:Drivers/STM32L4xx_HAL_Driver/Src/stm32l4xx_hal_spi.c ****             (++) MspInitCallback       : SPI Msp Init callback
 106:Drivers/STM32L4xx_HAL_Driver/Src/stm32l4xx_hal_spi.c ****             (++) MspDeInitCallback     : SPI Msp DeInit callback
 107:Drivers/STM32L4xx_HAL_Driver/Src/stm32l4xx_hal_spi.c **** 
 108:Drivers/STM32L4xx_HAL_Driver/Src/stm32l4xx_hal_spi.c ****        [..]
 109:Drivers/STM32L4xx_HAL_Driver/Src/stm32l4xx_hal_spi.c ****        By default, after the HAL_SPI_Init() and when the state is HAL_SPI_STATE_RESET
 110:Drivers/STM32L4xx_HAL_Driver/Src/stm32l4xx_hal_spi.c ****        all callbacks are set to the corresponding weak functions:
 111:Drivers/STM32L4xx_HAL_Driver/Src/stm32l4xx_hal_spi.c ****        examples HAL_SPI_MasterTxCpltCallback(), HAL_SPI_MasterRxCpltCallback().
 112:Drivers/STM32L4xx_HAL_Driver/Src/stm32l4xx_hal_spi.c ****        Exception done for MspInit and MspDeInit functions that are
 113:Drivers/STM32L4xx_HAL_Driver/Src/stm32l4xx_hal_spi.c ****        reset to the legacy weak functions in the HAL_SPI_Init()/ HAL_SPI_DeInit() only when
 114:Drivers/STM32L4xx_HAL_Driver/Src/stm32l4xx_hal_spi.c ****        these callbacks are null (not registered beforehand).
 115:Drivers/STM32L4xx_HAL_Driver/Src/stm32l4xx_hal_spi.c ****        If MspInit or MspDeInit are not null, the HAL_SPI_Init()/ HAL_SPI_DeInit()
 116:Drivers/STM32L4xx_HAL_Driver/Src/stm32l4xx_hal_spi.c ****        keep and use the user MspInit/MspDeInit callbacks (registered beforehand) whatever the state
 117:Drivers/STM32L4xx_HAL_Driver/Src/stm32l4xx_hal_spi.c **** 
 118:Drivers/STM32L4xx_HAL_Driver/Src/stm32l4xx_hal_spi.c ****        [..]
 119:Drivers/STM32L4xx_HAL_Driver/Src/stm32l4xx_hal_spi.c ****        Callbacks can be registered/unregistered in HAL_SPI_STATE_READY state only.
 120:Drivers/STM32L4xx_HAL_Driver/Src/stm32l4xx_hal_spi.c ****        Exception done MspInit/MspDeInit functions that can be registered/unregistered
 121:Drivers/STM32L4xx_HAL_Driver/Src/stm32l4xx_hal_spi.c ****        in HAL_SPI_STATE_READY or HAL_SPI_STATE_RESET state,
 122:Drivers/STM32L4xx_HAL_Driver/Src/stm32l4xx_hal_spi.c ****        thus registered (user) MspInit/DeInit callbacks can be used during the Init/DeInit.
 123:Drivers/STM32L4xx_HAL_Driver/Src/stm32l4xx_hal_spi.c ****        Then, the user first registers the MspInit/MspDeInit user callbacks
 124:Drivers/STM32L4xx_HAL_Driver/Src/stm32l4xx_hal_spi.c ****        using HAL_SPI_RegisterCallback() before calling HAL_SPI_DeInit()
 125:Drivers/STM32L4xx_HAL_Driver/Src/stm32l4xx_hal_spi.c ****        or HAL_SPI_Init() function.
 126:Drivers/STM32L4xx_HAL_Driver/Src/stm32l4xx_hal_spi.c **** 
 127:Drivers/STM32L4xx_HAL_Driver/Src/stm32l4xx_hal_spi.c ****        [..]
 128:Drivers/STM32L4xx_HAL_Driver/Src/stm32l4xx_hal_spi.c ****        When the compilation define USE_HAL_PPP_REGISTER_CALLBACKS is set to 0 or
 129:Drivers/STM32L4xx_HAL_Driver/Src/stm32l4xx_hal_spi.c ****        not defined, the callback registering feature is not available
 130:Drivers/STM32L4xx_HAL_Driver/Src/stm32l4xx_hal_spi.c ****        and weak (surcharged) callbacks are used.
 131:Drivers/STM32L4xx_HAL_Driver/Src/stm32l4xx_hal_spi.c **** 
 132:Drivers/STM32L4xx_HAL_Driver/Src/stm32l4xx_hal_spi.c ****      [..]
 133:Drivers/STM32L4xx_HAL_Driver/Src/stm32l4xx_hal_spi.c ****        Using the HAL it is not possible to reach all supported SPI frequency with the different SPI
 134:Drivers/STM32L4xx_HAL_Driver/Src/stm32l4xx_hal_spi.c ****        the following table resume the max SPI frequency reached with data size 8bits/16bits,
 135:Drivers/STM32L4xx_HAL_Driver/Src/stm32l4xx_hal_spi.c ****          according to frequency of the APBx Peripheral Clock (fPCLK) used by the SPI instance.
 136:Drivers/STM32L4xx_HAL_Driver/Src/stm32l4xx_hal_spi.c **** 
 137:Drivers/STM32L4xx_HAL_Driver/Src/stm32l4xx_hal_spi.c ****   @endverbatim
 138:Drivers/STM32L4xx_HAL_Driver/Src/stm32l4xx_hal_spi.c **** 
 139:Drivers/STM32L4xx_HAL_Driver/Src/stm32l4xx_hal_spi.c ****   Additional table :
 140:Drivers/STM32L4xx_HAL_Driver/Src/stm32l4xx_hal_spi.c **** 
 141:Drivers/STM32L4xx_HAL_Driver/Src/stm32l4xx_hal_spi.c ****        DataSize = SPI_DATASIZE_8BIT:
 142:Drivers/STM32L4xx_HAL_Driver/Src/stm32l4xx_hal_spi.c ****        +-------------------------------------------------------------------------------------------
 143:Drivers/STM32L4xx_HAL_Driver/Src/stm32l4xx_hal_spi.c ****        |         |                | 2Lines Fullduplex   |     2Lines RxOnly    |         1Line     
 144:Drivers/STM32L4xx_HAL_Driver/Src/stm32l4xx_hal_spi.c ****        | Process | Transfer mode  |---------------------|----------------------|-------------------
ARM GAS  C:\Users\Morroway\AppData\Local\Temp\ccCQJjHM.s 			page 4


 145:Drivers/STM32L4xx_HAL_Driver/Src/stm32l4xx_hal_spi.c ****        |         |                |  Master  |  Slave   |  Master   |  Slave   |  Master   |  Slave
 146:Drivers/STM32L4xx_HAL_Driver/Src/stm32l4xx_hal_spi.c ****        |===========================================================================================
 147:Drivers/STM32L4xx_HAL_Driver/Src/stm32l4xx_hal_spi.c ****        |    T    |     Polling    | Fpclk/4  | Fpclk/8  |    NA     |    NA    |    NA     |   NA  
 148:Drivers/STM32L4xx_HAL_Driver/Src/stm32l4xx_hal_spi.c ****        |    X    |----------------|----------|----------|-----------|----------|-----------|-------
 149:Drivers/STM32L4xx_HAL_Driver/Src/stm32l4xx_hal_spi.c ****        |    /    |     Interrupt  | Fpclk/4  | Fpclk/16 |    NA     |    NA    |    NA     |   NA  
 150:Drivers/STM32L4xx_HAL_Driver/Src/stm32l4xx_hal_spi.c ****        |    R    |----------------|----------|----------|-----------|----------|-----------|-------
 151:Drivers/STM32L4xx_HAL_Driver/Src/stm32l4xx_hal_spi.c ****        |    X    |       DMA      | Fpclk/2  | Fpclk/2  |    NA     |    NA    |    NA     |   NA  
 152:Drivers/STM32L4xx_HAL_Driver/Src/stm32l4xx_hal_spi.c ****        |=========|================|==========|==========|===========|==========|===========|=======
 153:Drivers/STM32L4xx_HAL_Driver/Src/stm32l4xx_hal_spi.c ****        |         |     Polling    | Fpclk/4  | Fpclk/8  | Fpclk/16  | Fpclk/8  | Fpclk/8   | Fpclk/
 154:Drivers/STM32L4xx_HAL_Driver/Src/stm32l4xx_hal_spi.c ****        |         |----------------|----------|----------|-----------|----------|-----------|-------
 155:Drivers/STM32L4xx_HAL_Driver/Src/stm32l4xx_hal_spi.c ****        |    R    |     Interrupt  | Fpclk/8  | Fpclk/16 | Fpclk/8   | Fpclk/8  | Fpclk/8   | Fpclk/
 156:Drivers/STM32L4xx_HAL_Driver/Src/stm32l4xx_hal_spi.c ****        |    X    |----------------|----------|----------|-----------|----------|-----------|-------
 157:Drivers/STM32L4xx_HAL_Driver/Src/stm32l4xx_hal_spi.c ****        |         |       DMA      | Fpclk/4  | Fpclk/2  | Fpclk/2   | Fpclk/16 | Fpclk/2   | Fpclk/
 158:Drivers/STM32L4xx_HAL_Driver/Src/stm32l4xx_hal_spi.c ****        |=========|================|==========|==========|===========|==========|===========|=======
 159:Drivers/STM32L4xx_HAL_Driver/Src/stm32l4xx_hal_spi.c ****        |         |     Polling    | Fpclk/8  | Fpclk/2  |     NA    |    NA    | Fpclk/8   | Fpclk/
 160:Drivers/STM32L4xx_HAL_Driver/Src/stm32l4xx_hal_spi.c ****        |         |----------------|----------|----------|-----------|----------|-----------|-------
 161:Drivers/STM32L4xx_HAL_Driver/Src/stm32l4xx_hal_spi.c ****        |    T    |     Interrupt  | Fpclk/2  | Fpclk/4  |     NA    |    NA    | Fpclk/16  | Fpclk/
 162:Drivers/STM32L4xx_HAL_Driver/Src/stm32l4xx_hal_spi.c ****        |    X    |----------------|----------|----------|-----------|----------|-----------|-------
 163:Drivers/STM32L4xx_HAL_Driver/Src/stm32l4xx_hal_spi.c ****        |         |       DMA      | Fpclk/2  | Fpclk/2  |     NA    |    NA    | Fpclk/8   | Fpclk/
 164:Drivers/STM32L4xx_HAL_Driver/Src/stm32l4xx_hal_spi.c ****        +-------------------------------------------------------------------------------------------
 165:Drivers/STM32L4xx_HAL_Driver/Src/stm32l4xx_hal_spi.c **** 
 166:Drivers/STM32L4xx_HAL_Driver/Src/stm32l4xx_hal_spi.c ****        DataSize = SPI_DATASIZE_16BIT:
 167:Drivers/STM32L4xx_HAL_Driver/Src/stm32l4xx_hal_spi.c ****        +-------------------------------------------------------------------------------------------
 168:Drivers/STM32L4xx_HAL_Driver/Src/stm32l4xx_hal_spi.c ****        |         |                | 2Lines Fullduplex   |     2Lines RxOnly    |         1Line     
 169:Drivers/STM32L4xx_HAL_Driver/Src/stm32l4xx_hal_spi.c ****        | Process | Transfer mode  |---------------------|----------------------|-------------------
 170:Drivers/STM32L4xx_HAL_Driver/Src/stm32l4xx_hal_spi.c ****        |         |                |  Master  |  Slave   |  Master   |  Slave   |  Master   |  Slave
 171:Drivers/STM32L4xx_HAL_Driver/Src/stm32l4xx_hal_spi.c ****        |===========================================================================================
 172:Drivers/STM32L4xx_HAL_Driver/Src/stm32l4xx_hal_spi.c ****        |    T    |     Polling    | Fpclk/4  | Fpclk/8  |    NA     |    NA    |    NA     |   NA  
 173:Drivers/STM32L4xx_HAL_Driver/Src/stm32l4xx_hal_spi.c ****        |    X    |----------------|----------|----------|-----------|----------|-----------|-------
 174:Drivers/STM32L4xx_HAL_Driver/Src/stm32l4xx_hal_spi.c ****        |    /    |     Interrupt  | Fpclk/4  | Fpclk/16 |    NA     |    NA    |    NA     |   NA  
 175:Drivers/STM32L4xx_HAL_Driver/Src/stm32l4xx_hal_spi.c ****        |    R    |----------------|----------|----------|-----------|----------|-----------|-------
 176:Drivers/STM32L4xx_HAL_Driver/Src/stm32l4xx_hal_spi.c ****        |    X    |       DMA      | Fpclk/2  | Fpclk/2  |    NA     |    NA    |    NA     |   NA  
 177:Drivers/STM32L4xx_HAL_Driver/Src/stm32l4xx_hal_spi.c ****        |=========|================|==========|==========|===========|==========|===========|=======
 178:Drivers/STM32L4xx_HAL_Driver/Src/stm32l4xx_hal_spi.c ****        |         |     Polling    | Fpclk/4  | Fpclk/8  | Fpclk/16  | Fpclk/8  | Fpclk/8   | Fpclk/
 179:Drivers/STM32L4xx_HAL_Driver/Src/stm32l4xx_hal_spi.c ****        |         |----------------|----------|----------|-----------|----------|-----------|-------
 180:Drivers/STM32L4xx_HAL_Driver/Src/stm32l4xx_hal_spi.c ****        |    R    |     Interrupt  | Fpclk/8  | Fpclk/16 | Fpclk/8   | Fpclk/8  | Fpclk/8   | Fpclk/
 181:Drivers/STM32L4xx_HAL_Driver/Src/stm32l4xx_hal_spi.c ****        |    X    |----------------|----------|----------|-----------|----------|-----------|-------
 182:Drivers/STM32L4xx_HAL_Driver/Src/stm32l4xx_hal_spi.c ****        |         |       DMA      | Fpclk/4  | Fpclk/2  | Fpclk/2   | Fpclk/16 | Fpclk/2   | Fpclk/
 183:Drivers/STM32L4xx_HAL_Driver/Src/stm32l4xx_hal_spi.c ****        |=========|================|==========|==========|===========|==========|===========|=======
 184:Drivers/STM32L4xx_HAL_Driver/Src/stm32l4xx_hal_spi.c ****        |         |     Polling    | Fpclk/8  | Fpclk/2  |     NA    |    NA    | Fpclk/8   | Fpclk/
 185:Drivers/STM32L4xx_HAL_Driver/Src/stm32l4xx_hal_spi.c ****        |         |----------------|----------|----------|-----------|----------|-----------|-------
 186:Drivers/STM32L4xx_HAL_Driver/Src/stm32l4xx_hal_spi.c ****        |    T    |     Interrupt  | Fpclk/2  | Fpclk/4  |     NA    |    NA    | Fpclk/16  | Fpclk/
 187:Drivers/STM32L4xx_HAL_Driver/Src/stm32l4xx_hal_spi.c ****        |    X    |----------------|----------|----------|-----------|----------|-----------|-------
 188:Drivers/STM32L4xx_HAL_Driver/Src/stm32l4xx_hal_spi.c ****        |         |       DMA      | Fpclk/2  | Fpclk/2  |     NA    |    NA    | Fpclk/8   | Fpclk/
 189:Drivers/STM32L4xx_HAL_Driver/Src/stm32l4xx_hal_spi.c ****        +-------------------------------------------------------------------------------------------
 190:Drivers/STM32L4xx_HAL_Driver/Src/stm32l4xx_hal_spi.c ****        @note The max SPI frequency depend on SPI data size (4bits, 5bits,..., 8bits,...15bits, 16bi
 191:Drivers/STM32L4xx_HAL_Driver/Src/stm32l4xx_hal_spi.c ****              SPI mode(2 Lines fullduplex, 2 lines RxOnly, 1 line TX/RX) and Process mode (Polling, 
 192:Drivers/STM32L4xx_HAL_Driver/Src/stm32l4xx_hal_spi.c ****        @note
 193:Drivers/STM32L4xx_HAL_Driver/Src/stm32l4xx_hal_spi.c ****             (#) TX/RX processes are HAL_SPI_TransmitReceive(), HAL_SPI_TransmitReceive_IT() and HAL
 194:Drivers/STM32L4xx_HAL_Driver/Src/stm32l4xx_hal_spi.c ****             (#) RX processes are HAL_SPI_Receive(), HAL_SPI_Receive_IT() and HAL_SPI_Receive_DMA()
 195:Drivers/STM32L4xx_HAL_Driver/Src/stm32l4xx_hal_spi.c ****             (#) TX processes are HAL_SPI_Transmit(), HAL_SPI_Transmit_IT() and HAL_SPI_Transmit_DMA
 196:Drivers/STM32L4xx_HAL_Driver/Src/stm32l4xx_hal_spi.c **** 
 197:Drivers/STM32L4xx_HAL_Driver/Src/stm32l4xx_hal_spi.c ****   */
 198:Drivers/STM32L4xx_HAL_Driver/Src/stm32l4xx_hal_spi.c **** 
 199:Drivers/STM32L4xx_HAL_Driver/Src/stm32l4xx_hal_spi.c **** /* Includes ------------------------------------------------------------------*/
 200:Drivers/STM32L4xx_HAL_Driver/Src/stm32l4xx_hal_spi.c **** #include "stm32l4xx_hal.h"
 201:Drivers/STM32L4xx_HAL_Driver/Src/stm32l4xx_hal_spi.c **** 
ARM GAS  C:\Users\Morroway\AppData\Local\Temp\ccCQJjHM.s 			page 5


 202:Drivers/STM32L4xx_HAL_Driver/Src/stm32l4xx_hal_spi.c **** /** @addtogroup STM32L4xx_HAL_Driver
 203:Drivers/STM32L4xx_HAL_Driver/Src/stm32l4xx_hal_spi.c ****   * @{
 204:Drivers/STM32L4xx_HAL_Driver/Src/stm32l4xx_hal_spi.c ****   */
 205:Drivers/STM32L4xx_HAL_Driver/Src/stm32l4xx_hal_spi.c **** 
 206:Drivers/STM32L4xx_HAL_Driver/Src/stm32l4xx_hal_spi.c **** /** @defgroup SPI SPI
 207:Drivers/STM32L4xx_HAL_Driver/Src/stm32l4xx_hal_spi.c ****   * @brief SPI HAL module driver
 208:Drivers/STM32L4xx_HAL_Driver/Src/stm32l4xx_hal_spi.c ****   * @{
 209:Drivers/STM32L4xx_HAL_Driver/Src/stm32l4xx_hal_spi.c ****   */
 210:Drivers/STM32L4xx_HAL_Driver/Src/stm32l4xx_hal_spi.c **** #ifdef HAL_SPI_MODULE_ENABLED
 211:Drivers/STM32L4xx_HAL_Driver/Src/stm32l4xx_hal_spi.c **** 
 212:Drivers/STM32L4xx_HAL_Driver/Src/stm32l4xx_hal_spi.c **** /* Private typedef -----------------------------------------------------------*/
 213:Drivers/STM32L4xx_HAL_Driver/Src/stm32l4xx_hal_spi.c **** /* Private defines -----------------------------------------------------------*/
 214:Drivers/STM32L4xx_HAL_Driver/Src/stm32l4xx_hal_spi.c **** /** @defgroup SPI_Private_Constants SPI Private Constants
 215:Drivers/STM32L4xx_HAL_Driver/Src/stm32l4xx_hal_spi.c ****   * @{
 216:Drivers/STM32L4xx_HAL_Driver/Src/stm32l4xx_hal_spi.c ****   */
 217:Drivers/STM32L4xx_HAL_Driver/Src/stm32l4xx_hal_spi.c **** #define SPI_DEFAULT_TIMEOUT 100U
 218:Drivers/STM32L4xx_HAL_Driver/Src/stm32l4xx_hal_spi.c **** /**
 219:Drivers/STM32L4xx_HAL_Driver/Src/stm32l4xx_hal_spi.c ****   * @}
 220:Drivers/STM32L4xx_HAL_Driver/Src/stm32l4xx_hal_spi.c ****   */
 221:Drivers/STM32L4xx_HAL_Driver/Src/stm32l4xx_hal_spi.c **** 
 222:Drivers/STM32L4xx_HAL_Driver/Src/stm32l4xx_hal_spi.c **** /* Private macros ------------------------------------------------------------*/
 223:Drivers/STM32L4xx_HAL_Driver/Src/stm32l4xx_hal_spi.c **** /* Private variables ---------------------------------------------------------*/
 224:Drivers/STM32L4xx_HAL_Driver/Src/stm32l4xx_hal_spi.c **** /* Private function prototypes -----------------------------------------------*/
 225:Drivers/STM32L4xx_HAL_Driver/Src/stm32l4xx_hal_spi.c **** /** @defgroup SPI_Private_Functions SPI Private Functions
 226:Drivers/STM32L4xx_HAL_Driver/Src/stm32l4xx_hal_spi.c ****   * @{
 227:Drivers/STM32L4xx_HAL_Driver/Src/stm32l4xx_hal_spi.c ****   */
 228:Drivers/STM32L4xx_HAL_Driver/Src/stm32l4xx_hal_spi.c **** static void SPI_DMATransmitCplt(DMA_HandleTypeDef *hdma);
 229:Drivers/STM32L4xx_HAL_Driver/Src/stm32l4xx_hal_spi.c **** static void SPI_DMAReceiveCplt(DMA_HandleTypeDef *hdma);
 230:Drivers/STM32L4xx_HAL_Driver/Src/stm32l4xx_hal_spi.c **** static void SPI_DMATransmitReceiveCplt(DMA_HandleTypeDef *hdma);
 231:Drivers/STM32L4xx_HAL_Driver/Src/stm32l4xx_hal_spi.c **** static void SPI_DMAHalfTransmitCplt(DMA_HandleTypeDef *hdma);
 232:Drivers/STM32L4xx_HAL_Driver/Src/stm32l4xx_hal_spi.c **** static void SPI_DMAHalfReceiveCplt(DMA_HandleTypeDef *hdma);
 233:Drivers/STM32L4xx_HAL_Driver/Src/stm32l4xx_hal_spi.c **** static void SPI_DMAHalfTransmitReceiveCplt(DMA_HandleTypeDef *hdma);
 234:Drivers/STM32L4xx_HAL_Driver/Src/stm32l4xx_hal_spi.c **** static void SPI_DMAError(DMA_HandleTypeDef *hdma);
 235:Drivers/STM32L4xx_HAL_Driver/Src/stm32l4xx_hal_spi.c **** static void SPI_DMAAbortOnError(DMA_HandleTypeDef *hdma);
 236:Drivers/STM32L4xx_HAL_Driver/Src/stm32l4xx_hal_spi.c **** static void SPI_DMATxAbortCallback(DMA_HandleTypeDef *hdma);
 237:Drivers/STM32L4xx_HAL_Driver/Src/stm32l4xx_hal_spi.c **** static void SPI_DMARxAbortCallback(DMA_HandleTypeDef *hdma);
 238:Drivers/STM32L4xx_HAL_Driver/Src/stm32l4xx_hal_spi.c **** static HAL_StatusTypeDef SPI_WaitFlagStateUntilTimeout(SPI_HandleTypeDef *hspi, uint32_t Flag, Flag
 239:Drivers/STM32L4xx_HAL_Driver/Src/stm32l4xx_hal_spi.c ****                                                        uint32_t Timeout, uint32_t Tickstart);
 240:Drivers/STM32L4xx_HAL_Driver/Src/stm32l4xx_hal_spi.c **** static HAL_StatusTypeDef SPI_WaitFifoStateUntilTimeout(SPI_HandleTypeDef *hspi, uint32_t Fifo, uint
 241:Drivers/STM32L4xx_HAL_Driver/Src/stm32l4xx_hal_spi.c ****                                                        uint32_t Timeout, uint32_t Tickstart);
 242:Drivers/STM32L4xx_HAL_Driver/Src/stm32l4xx_hal_spi.c **** static void SPI_TxISR_8BIT(struct __SPI_HandleTypeDef *hspi);
 243:Drivers/STM32L4xx_HAL_Driver/Src/stm32l4xx_hal_spi.c **** static void SPI_TxISR_16BIT(struct __SPI_HandleTypeDef *hspi);
 244:Drivers/STM32L4xx_HAL_Driver/Src/stm32l4xx_hal_spi.c **** static void SPI_RxISR_8BIT(struct __SPI_HandleTypeDef *hspi);
 245:Drivers/STM32L4xx_HAL_Driver/Src/stm32l4xx_hal_spi.c **** static void SPI_RxISR_16BIT(struct __SPI_HandleTypeDef *hspi);
 246:Drivers/STM32L4xx_HAL_Driver/Src/stm32l4xx_hal_spi.c **** static void SPI_2linesRxISR_8BIT(struct __SPI_HandleTypeDef *hspi);
 247:Drivers/STM32L4xx_HAL_Driver/Src/stm32l4xx_hal_spi.c **** static void SPI_2linesTxISR_8BIT(struct __SPI_HandleTypeDef *hspi);
 248:Drivers/STM32L4xx_HAL_Driver/Src/stm32l4xx_hal_spi.c **** static void SPI_2linesTxISR_16BIT(struct __SPI_HandleTypeDef *hspi);
 249:Drivers/STM32L4xx_HAL_Driver/Src/stm32l4xx_hal_spi.c **** static void SPI_2linesRxISR_16BIT(struct __SPI_HandleTypeDef *hspi);
 250:Drivers/STM32L4xx_HAL_Driver/Src/stm32l4xx_hal_spi.c **** #if (USE_SPI_CRC != 0U)
 251:Drivers/STM32L4xx_HAL_Driver/Src/stm32l4xx_hal_spi.c **** static void SPI_RxISR_8BITCRC(struct __SPI_HandleTypeDef *hspi);
 252:Drivers/STM32L4xx_HAL_Driver/Src/stm32l4xx_hal_spi.c **** static void SPI_RxISR_16BITCRC(struct __SPI_HandleTypeDef *hspi);
 253:Drivers/STM32L4xx_HAL_Driver/Src/stm32l4xx_hal_spi.c **** static void SPI_2linesRxISR_8BITCRC(struct __SPI_HandleTypeDef *hspi);
 254:Drivers/STM32L4xx_HAL_Driver/Src/stm32l4xx_hal_spi.c **** static void SPI_2linesRxISR_16BITCRC(struct __SPI_HandleTypeDef *hspi);
 255:Drivers/STM32L4xx_HAL_Driver/Src/stm32l4xx_hal_spi.c **** #endif /* USE_SPI_CRC */
 256:Drivers/STM32L4xx_HAL_Driver/Src/stm32l4xx_hal_spi.c **** static void SPI_AbortRx_ISR(SPI_HandleTypeDef *hspi);
 257:Drivers/STM32L4xx_HAL_Driver/Src/stm32l4xx_hal_spi.c **** static void SPI_AbortTx_ISR(SPI_HandleTypeDef *hspi);
 258:Drivers/STM32L4xx_HAL_Driver/Src/stm32l4xx_hal_spi.c **** static void SPI_CloseRxTx_ISR(SPI_HandleTypeDef *hspi);
ARM GAS  C:\Users\Morroway\AppData\Local\Temp\ccCQJjHM.s 			page 6


 259:Drivers/STM32L4xx_HAL_Driver/Src/stm32l4xx_hal_spi.c **** static void SPI_CloseRx_ISR(SPI_HandleTypeDef *hspi);
 260:Drivers/STM32L4xx_HAL_Driver/Src/stm32l4xx_hal_spi.c **** static void SPI_CloseTx_ISR(SPI_HandleTypeDef *hspi);
 261:Drivers/STM32L4xx_HAL_Driver/Src/stm32l4xx_hal_spi.c **** static HAL_StatusTypeDef SPI_EndRxTransaction(SPI_HandleTypeDef *hspi, uint32_t Timeout, uint32_t T
 262:Drivers/STM32L4xx_HAL_Driver/Src/stm32l4xx_hal_spi.c **** static HAL_StatusTypeDef SPI_EndRxTxTransaction(SPI_HandleTypeDef *hspi, uint32_t Timeout, uint32_t
 263:Drivers/STM32L4xx_HAL_Driver/Src/stm32l4xx_hal_spi.c **** /**
 264:Drivers/STM32L4xx_HAL_Driver/Src/stm32l4xx_hal_spi.c ****   * @}
 265:Drivers/STM32L4xx_HAL_Driver/Src/stm32l4xx_hal_spi.c ****   */
 266:Drivers/STM32L4xx_HAL_Driver/Src/stm32l4xx_hal_spi.c **** 
 267:Drivers/STM32L4xx_HAL_Driver/Src/stm32l4xx_hal_spi.c **** /* Exported functions --------------------------------------------------------*/
 268:Drivers/STM32L4xx_HAL_Driver/Src/stm32l4xx_hal_spi.c **** /** @defgroup SPI_Exported_Functions SPI Exported Functions
 269:Drivers/STM32L4xx_HAL_Driver/Src/stm32l4xx_hal_spi.c ****   * @{
 270:Drivers/STM32L4xx_HAL_Driver/Src/stm32l4xx_hal_spi.c ****   */
 271:Drivers/STM32L4xx_HAL_Driver/Src/stm32l4xx_hal_spi.c **** 
 272:Drivers/STM32L4xx_HAL_Driver/Src/stm32l4xx_hal_spi.c **** /** @defgroup SPI_Exported_Functions_Group1 Initialization and de-initialization functions
 273:Drivers/STM32L4xx_HAL_Driver/Src/stm32l4xx_hal_spi.c ****   *  @brief    Initialization and Configuration functions
 274:Drivers/STM32L4xx_HAL_Driver/Src/stm32l4xx_hal_spi.c ****   *
 275:Drivers/STM32L4xx_HAL_Driver/Src/stm32l4xx_hal_spi.c **** @verbatim
 276:Drivers/STM32L4xx_HAL_Driver/Src/stm32l4xx_hal_spi.c ****  ===============================================================================
 277:Drivers/STM32L4xx_HAL_Driver/Src/stm32l4xx_hal_spi.c ****               ##### Initialization and de-initialization functions #####
 278:Drivers/STM32L4xx_HAL_Driver/Src/stm32l4xx_hal_spi.c ****  ===============================================================================
 279:Drivers/STM32L4xx_HAL_Driver/Src/stm32l4xx_hal_spi.c ****     [..]  This subsection provides a set of functions allowing to initialize and
 280:Drivers/STM32L4xx_HAL_Driver/Src/stm32l4xx_hal_spi.c ****           de-initialize the SPIx peripheral:
 281:Drivers/STM32L4xx_HAL_Driver/Src/stm32l4xx_hal_spi.c **** 
 282:Drivers/STM32L4xx_HAL_Driver/Src/stm32l4xx_hal_spi.c ****       (+) User must implement HAL_SPI_MspInit() function in which he configures
 283:Drivers/STM32L4xx_HAL_Driver/Src/stm32l4xx_hal_spi.c ****           all related peripherals resources (CLOCK, GPIO, DMA, IT and NVIC ).
 284:Drivers/STM32L4xx_HAL_Driver/Src/stm32l4xx_hal_spi.c **** 
 285:Drivers/STM32L4xx_HAL_Driver/Src/stm32l4xx_hal_spi.c ****       (+) Call the function HAL_SPI_Init() to configure the selected device with
 286:Drivers/STM32L4xx_HAL_Driver/Src/stm32l4xx_hal_spi.c ****           the selected configuration:
 287:Drivers/STM32L4xx_HAL_Driver/Src/stm32l4xx_hal_spi.c ****         (++) Mode
 288:Drivers/STM32L4xx_HAL_Driver/Src/stm32l4xx_hal_spi.c ****         (++) Direction
 289:Drivers/STM32L4xx_HAL_Driver/Src/stm32l4xx_hal_spi.c ****         (++) Data Size
 290:Drivers/STM32L4xx_HAL_Driver/Src/stm32l4xx_hal_spi.c ****         (++) Clock Polarity and Phase
 291:Drivers/STM32L4xx_HAL_Driver/Src/stm32l4xx_hal_spi.c ****         (++) NSS Management
 292:Drivers/STM32L4xx_HAL_Driver/Src/stm32l4xx_hal_spi.c ****         (++) BaudRate Prescaler
 293:Drivers/STM32L4xx_HAL_Driver/Src/stm32l4xx_hal_spi.c ****         (++) FirstBit
 294:Drivers/STM32L4xx_HAL_Driver/Src/stm32l4xx_hal_spi.c ****         (++) TIMode
 295:Drivers/STM32L4xx_HAL_Driver/Src/stm32l4xx_hal_spi.c ****         (++) CRC Calculation
 296:Drivers/STM32L4xx_HAL_Driver/Src/stm32l4xx_hal_spi.c ****         (++) CRC Polynomial if CRC enabled
 297:Drivers/STM32L4xx_HAL_Driver/Src/stm32l4xx_hal_spi.c ****         (++) CRC Length, used only with Data8 and Data16
 298:Drivers/STM32L4xx_HAL_Driver/Src/stm32l4xx_hal_spi.c ****         (++) FIFO reception threshold
 299:Drivers/STM32L4xx_HAL_Driver/Src/stm32l4xx_hal_spi.c **** 
 300:Drivers/STM32L4xx_HAL_Driver/Src/stm32l4xx_hal_spi.c ****       (+) Call the function HAL_SPI_DeInit() to restore the default configuration
 301:Drivers/STM32L4xx_HAL_Driver/Src/stm32l4xx_hal_spi.c ****           of the selected SPIx peripheral.
 302:Drivers/STM32L4xx_HAL_Driver/Src/stm32l4xx_hal_spi.c **** 
 303:Drivers/STM32L4xx_HAL_Driver/Src/stm32l4xx_hal_spi.c **** @endverbatim
 304:Drivers/STM32L4xx_HAL_Driver/Src/stm32l4xx_hal_spi.c ****   * @{
 305:Drivers/STM32L4xx_HAL_Driver/Src/stm32l4xx_hal_spi.c ****   */
 306:Drivers/STM32L4xx_HAL_Driver/Src/stm32l4xx_hal_spi.c **** 
 307:Drivers/STM32L4xx_HAL_Driver/Src/stm32l4xx_hal_spi.c **** /**
 308:Drivers/STM32L4xx_HAL_Driver/Src/stm32l4xx_hal_spi.c ****   * @brief  Initialize the SPI according to the specified parameters
 309:Drivers/STM32L4xx_HAL_Driver/Src/stm32l4xx_hal_spi.c ****   *         in the SPI_InitTypeDef and initialize the associated handle.
 310:Drivers/STM32L4xx_HAL_Driver/Src/stm32l4xx_hal_spi.c ****   * @param  hspi pointer to a SPI_HandleTypeDef structure that contains
 311:Drivers/STM32L4xx_HAL_Driver/Src/stm32l4xx_hal_spi.c ****   *               the configuration information for SPI module.
 312:Drivers/STM32L4xx_HAL_Driver/Src/stm32l4xx_hal_spi.c ****   * @retval HAL status
 313:Drivers/STM32L4xx_HAL_Driver/Src/stm32l4xx_hal_spi.c ****   */
 314:Drivers/STM32L4xx_HAL_Driver/Src/stm32l4xx_hal_spi.c **** HAL_StatusTypeDef HAL_SPI_Init(SPI_HandleTypeDef *hspi)
 315:Drivers/STM32L4xx_HAL_Driver/Src/stm32l4xx_hal_spi.c **** {
ARM GAS  C:\Users\Morroway\AppData\Local\Temp\ccCQJjHM.s 			page 7


  29              		.loc 1 315 1
  30              		.cfi_startproc
  31              		@ args = 0, pretend = 0, frame = 16
  32              		@ frame_needed = 1, uses_anonymous_args = 0
  33 0000 80B5     		push	{r7, lr}
  34              		.cfi_def_cfa_offset 8
  35              		.cfi_offset 7, -8
  36              		.cfi_offset 14, -4
  37 0002 84B0     		sub	sp, sp, #16
  38              		.cfi_def_cfa_offset 24
  39 0004 00AF     		add	r7, sp, #0
  40              		.cfi_def_cfa_register 7
  41 0006 7860     		str	r0, [r7, #4]
 316:Drivers/STM32L4xx_HAL_Driver/Src/stm32l4xx_hal_spi.c ****   uint32_t frxth;
 317:Drivers/STM32L4xx_HAL_Driver/Src/stm32l4xx_hal_spi.c **** 
 318:Drivers/STM32L4xx_HAL_Driver/Src/stm32l4xx_hal_spi.c ****   /* Check the SPI handle allocation */
 319:Drivers/STM32L4xx_HAL_Driver/Src/stm32l4xx_hal_spi.c ****   if (hspi == NULL)
  42              		.loc 1 319 6
  43 0008 7B68     		ldr	r3, [r7, #4]
  44 000a 002B     		cmp	r3, #0
  45 000c 01D1     		bne	.L2
 320:Drivers/STM32L4xx_HAL_Driver/Src/stm32l4xx_hal_spi.c ****   {
 321:Drivers/STM32L4xx_HAL_Driver/Src/stm32l4xx_hal_spi.c ****     return HAL_ERROR;
  46              		.loc 1 321 12
  47 000e 0123     		movs	r3, #1
  48 0010 95E0     		b	.L3
  49              	.L2:
 322:Drivers/STM32L4xx_HAL_Driver/Src/stm32l4xx_hal_spi.c ****   }
 323:Drivers/STM32L4xx_HAL_Driver/Src/stm32l4xx_hal_spi.c **** 
 324:Drivers/STM32L4xx_HAL_Driver/Src/stm32l4xx_hal_spi.c ****   /* Check the parameters */
 325:Drivers/STM32L4xx_HAL_Driver/Src/stm32l4xx_hal_spi.c ****   assert_param(IS_SPI_ALL_INSTANCE(hspi->Instance));
 326:Drivers/STM32L4xx_HAL_Driver/Src/stm32l4xx_hal_spi.c ****   assert_param(IS_SPI_MODE(hspi->Init.Mode));
 327:Drivers/STM32L4xx_HAL_Driver/Src/stm32l4xx_hal_spi.c ****   assert_param(IS_SPI_DIRECTION(hspi->Init.Direction));
 328:Drivers/STM32L4xx_HAL_Driver/Src/stm32l4xx_hal_spi.c ****   assert_param(IS_SPI_DATASIZE(hspi->Init.DataSize));
 329:Drivers/STM32L4xx_HAL_Driver/Src/stm32l4xx_hal_spi.c ****   assert_param(IS_SPI_NSS(hspi->Init.NSS));
 330:Drivers/STM32L4xx_HAL_Driver/Src/stm32l4xx_hal_spi.c ****   assert_param(IS_SPI_NSSP(hspi->Init.NSSPMode));
 331:Drivers/STM32L4xx_HAL_Driver/Src/stm32l4xx_hal_spi.c ****   assert_param(IS_SPI_BAUDRATE_PRESCALER(hspi->Init.BaudRatePrescaler));
 332:Drivers/STM32L4xx_HAL_Driver/Src/stm32l4xx_hal_spi.c ****   assert_param(IS_SPI_FIRST_BIT(hspi->Init.FirstBit));
 333:Drivers/STM32L4xx_HAL_Driver/Src/stm32l4xx_hal_spi.c ****   assert_param(IS_SPI_TIMODE(hspi->Init.TIMode));
 334:Drivers/STM32L4xx_HAL_Driver/Src/stm32l4xx_hal_spi.c ****   if (hspi->Init.TIMode == SPI_TIMODE_DISABLE)
  50              		.loc 1 334 17
  51 0012 7B68     		ldr	r3, [r7, #4]
  52 0014 5B6A     		ldr	r3, [r3, #36]
  53              		.loc 1 334 6
  54 0016 002B     		cmp	r3, #0
  55 0018 08D1     		bne	.L4
 335:Drivers/STM32L4xx_HAL_Driver/Src/stm32l4xx_hal_spi.c ****   {
 336:Drivers/STM32L4xx_HAL_Driver/Src/stm32l4xx_hal_spi.c ****     assert_param(IS_SPI_CPOL(hspi->Init.CLKPolarity));
 337:Drivers/STM32L4xx_HAL_Driver/Src/stm32l4xx_hal_spi.c ****     assert_param(IS_SPI_CPHA(hspi->Init.CLKPhase));
 338:Drivers/STM32L4xx_HAL_Driver/Src/stm32l4xx_hal_spi.c **** 
 339:Drivers/STM32L4xx_HAL_Driver/Src/stm32l4xx_hal_spi.c ****     if (hspi->Init.Mode == SPI_MODE_MASTER)
  56              		.loc 1 339 19
  57 001a 7B68     		ldr	r3, [r7, #4]
  58 001c 5B68     		ldr	r3, [r3, #4]
  59              		.loc 1 339 8
  60 001e B3F5827F 		cmp	r3, #260
  61 0022 09D0     		beq	.L5
ARM GAS  C:\Users\Morroway\AppData\Local\Temp\ccCQJjHM.s 			page 8


 340:Drivers/STM32L4xx_HAL_Driver/Src/stm32l4xx_hal_spi.c ****     {
 341:Drivers/STM32L4xx_HAL_Driver/Src/stm32l4xx_hal_spi.c ****       assert_param(IS_SPI_BAUDRATE_PRESCALER(hspi->Init.BaudRatePrescaler));
 342:Drivers/STM32L4xx_HAL_Driver/Src/stm32l4xx_hal_spi.c ****     }
 343:Drivers/STM32L4xx_HAL_Driver/Src/stm32l4xx_hal_spi.c ****     else
 344:Drivers/STM32L4xx_HAL_Driver/Src/stm32l4xx_hal_spi.c ****     {
 345:Drivers/STM32L4xx_HAL_Driver/Src/stm32l4xx_hal_spi.c ****       /* Baudrate prescaler not use in Motoraola Slave mode. force to default value */
 346:Drivers/STM32L4xx_HAL_Driver/Src/stm32l4xx_hal_spi.c ****       hspi->Init.BaudRatePrescaler = SPI_BAUDRATEPRESCALER_2;
  62              		.loc 1 346 36
  63 0024 7B68     		ldr	r3, [r7, #4]
  64 0026 0022     		movs	r2, #0
  65 0028 DA61     		str	r2, [r3, #28]
  66 002a 05E0     		b	.L5
  67              	.L4:
 347:Drivers/STM32L4xx_HAL_Driver/Src/stm32l4xx_hal_spi.c ****     }
 348:Drivers/STM32L4xx_HAL_Driver/Src/stm32l4xx_hal_spi.c ****   }
 349:Drivers/STM32L4xx_HAL_Driver/Src/stm32l4xx_hal_spi.c ****   else
 350:Drivers/STM32L4xx_HAL_Driver/Src/stm32l4xx_hal_spi.c ****   {
 351:Drivers/STM32L4xx_HAL_Driver/Src/stm32l4xx_hal_spi.c ****     assert_param(IS_SPI_BAUDRATE_PRESCALER(hspi->Init.BaudRatePrescaler));
 352:Drivers/STM32L4xx_HAL_Driver/Src/stm32l4xx_hal_spi.c **** 
 353:Drivers/STM32L4xx_HAL_Driver/Src/stm32l4xx_hal_spi.c ****     /* Force polarity and phase to TI protocaol requirements */
 354:Drivers/STM32L4xx_HAL_Driver/Src/stm32l4xx_hal_spi.c ****     hspi->Init.CLKPolarity = SPI_POLARITY_LOW;
  68              		.loc 1 354 28
  69 002c 7B68     		ldr	r3, [r7, #4]
  70 002e 0022     		movs	r2, #0
  71 0030 1A61     		str	r2, [r3, #16]
 355:Drivers/STM32L4xx_HAL_Driver/Src/stm32l4xx_hal_spi.c ****     hspi->Init.CLKPhase    = SPI_PHASE_1EDGE;
  72              		.loc 1 355 28
  73 0032 7B68     		ldr	r3, [r7, #4]
  74 0034 0022     		movs	r2, #0
  75 0036 5A61     		str	r2, [r3, #20]
  76              	.L5:
 356:Drivers/STM32L4xx_HAL_Driver/Src/stm32l4xx_hal_spi.c ****   }
 357:Drivers/STM32L4xx_HAL_Driver/Src/stm32l4xx_hal_spi.c **** #if (USE_SPI_CRC != 0U)
 358:Drivers/STM32L4xx_HAL_Driver/Src/stm32l4xx_hal_spi.c ****   assert_param(IS_SPI_CRC_CALCULATION(hspi->Init.CRCCalculation));
 359:Drivers/STM32L4xx_HAL_Driver/Src/stm32l4xx_hal_spi.c ****   if (hspi->Init.CRCCalculation == SPI_CRCCALCULATION_ENABLE)
 360:Drivers/STM32L4xx_HAL_Driver/Src/stm32l4xx_hal_spi.c ****   {
 361:Drivers/STM32L4xx_HAL_Driver/Src/stm32l4xx_hal_spi.c ****     assert_param(IS_SPI_CRC_POLYNOMIAL(hspi->Init.CRCPolynomial));
 362:Drivers/STM32L4xx_HAL_Driver/Src/stm32l4xx_hal_spi.c ****     assert_param(IS_SPI_CRC_LENGTH(hspi->Init.CRCLength));
 363:Drivers/STM32L4xx_HAL_Driver/Src/stm32l4xx_hal_spi.c ****   }
 364:Drivers/STM32L4xx_HAL_Driver/Src/stm32l4xx_hal_spi.c **** #else
 365:Drivers/STM32L4xx_HAL_Driver/Src/stm32l4xx_hal_spi.c ****   hspi->Init.CRCCalculation = SPI_CRCCALCULATION_DISABLE;
  77              		.loc 1 365 29
  78 0038 7B68     		ldr	r3, [r7, #4]
  79 003a 0022     		movs	r2, #0
  80 003c 9A62     		str	r2, [r3, #40]
 366:Drivers/STM32L4xx_HAL_Driver/Src/stm32l4xx_hal_spi.c **** #endif /* USE_SPI_CRC */
 367:Drivers/STM32L4xx_HAL_Driver/Src/stm32l4xx_hal_spi.c **** 
 368:Drivers/STM32L4xx_HAL_Driver/Src/stm32l4xx_hal_spi.c ****   if (hspi->State == HAL_SPI_STATE_RESET)
  81              		.loc 1 368 11
  82 003e 7B68     		ldr	r3, [r7, #4]
  83 0040 93F85D30 		ldrb	r3, [r3, #93]
  84 0044 DBB2     		uxtb	r3, r3
  85              		.loc 1 368 6
  86 0046 002B     		cmp	r3, #0
  87 0048 06D1     		bne	.L6
 369:Drivers/STM32L4xx_HAL_Driver/Src/stm32l4xx_hal_spi.c ****   {
 370:Drivers/STM32L4xx_HAL_Driver/Src/stm32l4xx_hal_spi.c ****     /* Allocate lock resource and initialize it */
ARM GAS  C:\Users\Morroway\AppData\Local\Temp\ccCQJjHM.s 			page 9


 371:Drivers/STM32L4xx_HAL_Driver/Src/stm32l4xx_hal_spi.c ****     hspi->Lock = HAL_UNLOCKED;
  88              		.loc 1 371 16
  89 004a 7B68     		ldr	r3, [r7, #4]
  90 004c 0022     		movs	r2, #0
  91 004e 83F85C20 		strb	r2, [r3, #92]
 372:Drivers/STM32L4xx_HAL_Driver/Src/stm32l4xx_hal_spi.c **** 
 373:Drivers/STM32L4xx_HAL_Driver/Src/stm32l4xx_hal_spi.c **** #if (USE_HAL_SPI_REGISTER_CALLBACKS == 1U)
 374:Drivers/STM32L4xx_HAL_Driver/Src/stm32l4xx_hal_spi.c ****     /* Init the SPI Callback settings */
 375:Drivers/STM32L4xx_HAL_Driver/Src/stm32l4xx_hal_spi.c ****     hspi->TxCpltCallback       = HAL_SPI_TxCpltCallback;       /* Legacy weak TxCpltCallback       
 376:Drivers/STM32L4xx_HAL_Driver/Src/stm32l4xx_hal_spi.c ****     hspi->RxCpltCallback       = HAL_SPI_RxCpltCallback;       /* Legacy weak RxCpltCallback       
 377:Drivers/STM32L4xx_HAL_Driver/Src/stm32l4xx_hal_spi.c ****     hspi->TxRxCpltCallback     = HAL_SPI_TxRxCpltCallback;     /* Legacy weak TxRxCpltCallback     
 378:Drivers/STM32L4xx_HAL_Driver/Src/stm32l4xx_hal_spi.c ****     hspi->TxHalfCpltCallback   = HAL_SPI_TxHalfCpltCallback;   /* Legacy weak TxHalfCpltCallback   
 379:Drivers/STM32L4xx_HAL_Driver/Src/stm32l4xx_hal_spi.c ****     hspi->RxHalfCpltCallback   = HAL_SPI_RxHalfCpltCallback;   /* Legacy weak RxHalfCpltCallback   
 380:Drivers/STM32L4xx_HAL_Driver/Src/stm32l4xx_hal_spi.c ****     hspi->TxRxHalfCpltCallback = HAL_SPI_TxRxHalfCpltCallback; /* Legacy weak TxRxHalfCpltCallback 
 381:Drivers/STM32L4xx_HAL_Driver/Src/stm32l4xx_hal_spi.c ****     hspi->ErrorCallback        = HAL_SPI_ErrorCallback;        /* Legacy weak ErrorCallback        
 382:Drivers/STM32L4xx_HAL_Driver/Src/stm32l4xx_hal_spi.c ****     hspi->AbortCpltCallback    = HAL_SPI_AbortCpltCallback;    /* Legacy weak AbortCpltCallback    
 383:Drivers/STM32L4xx_HAL_Driver/Src/stm32l4xx_hal_spi.c **** 
 384:Drivers/STM32L4xx_HAL_Driver/Src/stm32l4xx_hal_spi.c ****     if (hspi->MspInitCallback == NULL)
 385:Drivers/STM32L4xx_HAL_Driver/Src/stm32l4xx_hal_spi.c ****     {
 386:Drivers/STM32L4xx_HAL_Driver/Src/stm32l4xx_hal_spi.c ****       hspi->MspInitCallback = HAL_SPI_MspInit; /* Legacy weak MspInit  */
 387:Drivers/STM32L4xx_HAL_Driver/Src/stm32l4xx_hal_spi.c ****     }
 388:Drivers/STM32L4xx_HAL_Driver/Src/stm32l4xx_hal_spi.c **** 
 389:Drivers/STM32L4xx_HAL_Driver/Src/stm32l4xx_hal_spi.c ****     /* Init the low level hardware : GPIO, CLOCK, NVIC... */
 390:Drivers/STM32L4xx_HAL_Driver/Src/stm32l4xx_hal_spi.c ****     hspi->MspInitCallback(hspi);
 391:Drivers/STM32L4xx_HAL_Driver/Src/stm32l4xx_hal_spi.c **** #else
 392:Drivers/STM32L4xx_HAL_Driver/Src/stm32l4xx_hal_spi.c ****     /* Init the low level hardware : GPIO, CLOCK, NVIC... */
 393:Drivers/STM32L4xx_HAL_Driver/Src/stm32l4xx_hal_spi.c ****     HAL_SPI_MspInit(hspi);
  92              		.loc 1 393 5
  93 0052 7868     		ldr	r0, [r7, #4]
  94 0054 FFF7FEFF 		bl	HAL_SPI_MspInit
  95              	.L6:
 394:Drivers/STM32L4xx_HAL_Driver/Src/stm32l4xx_hal_spi.c **** #endif /* USE_HAL_SPI_REGISTER_CALLBACKS */
 395:Drivers/STM32L4xx_HAL_Driver/Src/stm32l4xx_hal_spi.c ****   }
 396:Drivers/STM32L4xx_HAL_Driver/Src/stm32l4xx_hal_spi.c **** 
 397:Drivers/STM32L4xx_HAL_Driver/Src/stm32l4xx_hal_spi.c ****   hspi->State = HAL_SPI_STATE_BUSY;
  96              		.loc 1 397 15
  97 0058 7B68     		ldr	r3, [r7, #4]
  98 005a 0222     		movs	r2, #2
  99 005c 83F85D20 		strb	r2, [r3, #93]
 398:Drivers/STM32L4xx_HAL_Driver/Src/stm32l4xx_hal_spi.c **** 
 399:Drivers/STM32L4xx_HAL_Driver/Src/stm32l4xx_hal_spi.c ****   /* Disable the selected SPI peripheral */
 400:Drivers/STM32L4xx_HAL_Driver/Src/stm32l4xx_hal_spi.c ****   __HAL_SPI_DISABLE(hspi);
 100              		.loc 1 400 3
 101 0060 7B68     		ldr	r3, [r7, #4]
 102 0062 1B68     		ldr	r3, [r3]
 103 0064 1A68     		ldr	r2, [r3]
 104 0066 7B68     		ldr	r3, [r7, #4]
 105 0068 1B68     		ldr	r3, [r3]
 106 006a 22F04002 		bic	r2, r2, #64
 107 006e 1A60     		str	r2, [r3]
 401:Drivers/STM32L4xx_HAL_Driver/Src/stm32l4xx_hal_spi.c **** 
 402:Drivers/STM32L4xx_HAL_Driver/Src/stm32l4xx_hal_spi.c ****   /* Align by default the rs fifo threshold on the data size */
 403:Drivers/STM32L4xx_HAL_Driver/Src/stm32l4xx_hal_spi.c ****   if (hspi->Init.DataSize > SPI_DATASIZE_8BIT)
 108              		.loc 1 403 17
 109 0070 7B68     		ldr	r3, [r7, #4]
 110 0072 DB68     		ldr	r3, [r3, #12]
 111              		.loc 1 403 6
ARM GAS  C:\Users\Morroway\AppData\Local\Temp\ccCQJjHM.s 			page 10


 112 0074 B3F5E06F 		cmp	r3, #1792
 113 0078 02D9     		bls	.L7
 404:Drivers/STM32L4xx_HAL_Driver/Src/stm32l4xx_hal_spi.c ****   {
 405:Drivers/STM32L4xx_HAL_Driver/Src/stm32l4xx_hal_spi.c ****     frxth = SPI_RXFIFO_THRESHOLD_HF;
 114              		.loc 1 405 11
 115 007a 0023     		movs	r3, #0
 116 007c FB60     		str	r3, [r7, #12]
 117 007e 02E0     		b	.L8
 118              	.L7:
 406:Drivers/STM32L4xx_HAL_Driver/Src/stm32l4xx_hal_spi.c ****   }
 407:Drivers/STM32L4xx_HAL_Driver/Src/stm32l4xx_hal_spi.c ****   else
 408:Drivers/STM32L4xx_HAL_Driver/Src/stm32l4xx_hal_spi.c ****   {
 409:Drivers/STM32L4xx_HAL_Driver/Src/stm32l4xx_hal_spi.c ****     frxth = SPI_RXFIFO_THRESHOLD_QF;
 119              		.loc 1 409 11
 120 0080 4FF48053 		mov	r3, #4096
 121 0084 FB60     		str	r3, [r7, #12]
 122              	.L8:
 410:Drivers/STM32L4xx_HAL_Driver/Src/stm32l4xx_hal_spi.c ****   }
 411:Drivers/STM32L4xx_HAL_Driver/Src/stm32l4xx_hal_spi.c **** 
 412:Drivers/STM32L4xx_HAL_Driver/Src/stm32l4xx_hal_spi.c ****   /* CRC calculation is valid only for 16Bit and 8 Bit */
 413:Drivers/STM32L4xx_HAL_Driver/Src/stm32l4xx_hal_spi.c ****   if ((hspi->Init.DataSize != SPI_DATASIZE_16BIT) && (hspi->Init.DataSize != SPI_DATASIZE_8BIT))
 123              		.loc 1 413 18
 124 0086 7B68     		ldr	r3, [r7, #4]
 125 0088 DB68     		ldr	r3, [r3, #12]
 126              		.loc 1 413 6
 127 008a B3F5706F 		cmp	r3, #3840
 128 008e 07D0     		beq	.L9
 129              		.loc 1 413 65 discriminator 1
 130 0090 7B68     		ldr	r3, [r7, #4]
 131 0092 DB68     		ldr	r3, [r3, #12]
 132              		.loc 1 413 51 discriminator 1
 133 0094 B3F5E06F 		cmp	r3, #1792
 134 0098 02D0     		beq	.L9
 414:Drivers/STM32L4xx_HAL_Driver/Src/stm32l4xx_hal_spi.c ****   {
 415:Drivers/STM32L4xx_HAL_Driver/Src/stm32l4xx_hal_spi.c ****     /* CRC must be disabled */
 416:Drivers/STM32L4xx_HAL_Driver/Src/stm32l4xx_hal_spi.c ****     hspi->Init.CRCCalculation = SPI_CRCCALCULATION_DISABLE;
 135              		.loc 1 416 31
 136 009a 7B68     		ldr	r3, [r7, #4]
 137 009c 0022     		movs	r2, #0
 138 009e 9A62     		str	r2, [r3, #40]
 139              	.L9:
 417:Drivers/STM32L4xx_HAL_Driver/Src/stm32l4xx_hal_spi.c ****   }
 418:Drivers/STM32L4xx_HAL_Driver/Src/stm32l4xx_hal_spi.c **** 
 419:Drivers/STM32L4xx_HAL_Driver/Src/stm32l4xx_hal_spi.c ****   /*----------------------- SPIx CR1 & CR2 Configuration ---------------------*/
 420:Drivers/STM32L4xx_HAL_Driver/Src/stm32l4xx_hal_spi.c ****   /* Configure : SPI Mode, Communication Mode, Clock polarity and phase, NSS management,
 421:Drivers/STM32L4xx_HAL_Driver/Src/stm32l4xx_hal_spi.c ****   Communication speed, First bit and CRC calculation state */
 422:Drivers/STM32L4xx_HAL_Driver/Src/stm32l4xx_hal_spi.c ****   WRITE_REG(hspi->Instance->CR1, ((hspi->Init.Mode & (SPI_CR1_MSTR | SPI_CR1_SSI)) |
 140              		.loc 1 422 3
 141 00a0 7B68     		ldr	r3, [r7, #4]
 142 00a2 5B68     		ldr	r3, [r3, #4]
 143 00a4 03F48272 		and	r2, r3, #260
 144 00a8 7B68     		ldr	r3, [r7, #4]
 145 00aa 9B68     		ldr	r3, [r3, #8]
 146 00ac 03F40443 		and	r3, r3, #33792
 147 00b0 1A43     		orrs	r2, r2, r3
 148 00b2 7B68     		ldr	r3, [r7, #4]
 149 00b4 1B69     		ldr	r3, [r3, #16]
ARM GAS  C:\Users\Morroway\AppData\Local\Temp\ccCQJjHM.s 			page 11


 150 00b6 03F00203 		and	r3, r3, #2
 151 00ba 1A43     		orrs	r2, r2, r3
 152 00bc 7B68     		ldr	r3, [r7, #4]
 153 00be 5B69     		ldr	r3, [r3, #20]
 154 00c0 03F00103 		and	r3, r3, #1
 155 00c4 1A43     		orrs	r2, r2, r3
 156 00c6 7B68     		ldr	r3, [r7, #4]
 157 00c8 9B69     		ldr	r3, [r3, #24]
 158 00ca 03F40073 		and	r3, r3, #512
 159 00ce 1A43     		orrs	r2, r2, r3
 160 00d0 7B68     		ldr	r3, [r7, #4]
 161 00d2 DB69     		ldr	r3, [r3, #28]
 162 00d4 03F03803 		and	r3, r3, #56
 163 00d8 1A43     		orrs	r2, r2, r3
 164 00da 7B68     		ldr	r3, [r7, #4]
 165 00dc 1B6A     		ldr	r3, [r3, #32]
 166 00de 03F08003 		and	r3, r3, #128
 167 00e2 42EA0301 		orr	r1, r2, r3
 168 00e6 7B68     		ldr	r3, [r7, #4]
 169 00e8 9B6A     		ldr	r3, [r3, #40]
 170 00ea 03F40052 		and	r2, r3, #8192
 171 00ee 7B68     		ldr	r3, [r7, #4]
 172 00f0 1B68     		ldr	r3, [r3]
 173 00f2 0A43     		orrs	r2, r2, r1
 174 00f4 1A60     		str	r2, [r3]
 423:Drivers/STM32L4xx_HAL_Driver/Src/stm32l4xx_hal_spi.c ****                                   (hspi->Init.Direction & (SPI_CR1_RXONLY | SPI_CR1_BIDIMODE)) |
 424:Drivers/STM32L4xx_HAL_Driver/Src/stm32l4xx_hal_spi.c ****                                   (hspi->Init.CLKPolarity & SPI_CR1_CPOL) |
 425:Drivers/STM32L4xx_HAL_Driver/Src/stm32l4xx_hal_spi.c ****                                   (hspi->Init.CLKPhase & SPI_CR1_CPHA) |
 426:Drivers/STM32L4xx_HAL_Driver/Src/stm32l4xx_hal_spi.c ****                                   (hspi->Init.NSS & SPI_CR1_SSM) |
 427:Drivers/STM32L4xx_HAL_Driver/Src/stm32l4xx_hal_spi.c ****                                   (hspi->Init.BaudRatePrescaler & SPI_CR1_BR_Msk) |
 428:Drivers/STM32L4xx_HAL_Driver/Src/stm32l4xx_hal_spi.c ****                                   (hspi->Init.FirstBit  & SPI_CR1_LSBFIRST) |
 429:Drivers/STM32L4xx_HAL_Driver/Src/stm32l4xx_hal_spi.c ****                                   (hspi->Init.CRCCalculation & SPI_CR1_CRCEN)));
 430:Drivers/STM32L4xx_HAL_Driver/Src/stm32l4xx_hal_spi.c **** #if (USE_SPI_CRC != 0U)
 431:Drivers/STM32L4xx_HAL_Driver/Src/stm32l4xx_hal_spi.c ****   /*---------------------------- SPIx CRCL Configuration -------------------*/
 432:Drivers/STM32L4xx_HAL_Driver/Src/stm32l4xx_hal_spi.c ****   if (hspi->Init.CRCCalculation == SPI_CRCCALCULATION_ENABLE)
 433:Drivers/STM32L4xx_HAL_Driver/Src/stm32l4xx_hal_spi.c ****   {
 434:Drivers/STM32L4xx_HAL_Driver/Src/stm32l4xx_hal_spi.c ****     /* Align the CRC Length on the data size */
 435:Drivers/STM32L4xx_HAL_Driver/Src/stm32l4xx_hal_spi.c ****     if (hspi->Init.CRCLength == SPI_CRC_LENGTH_DATASIZE)
 436:Drivers/STM32L4xx_HAL_Driver/Src/stm32l4xx_hal_spi.c ****     {
 437:Drivers/STM32L4xx_HAL_Driver/Src/stm32l4xx_hal_spi.c ****       /* CRC Length aligned on the data size : value set by default */
 438:Drivers/STM32L4xx_HAL_Driver/Src/stm32l4xx_hal_spi.c ****       if (hspi->Init.DataSize > SPI_DATASIZE_8BIT)
 439:Drivers/STM32L4xx_HAL_Driver/Src/stm32l4xx_hal_spi.c ****       {
 440:Drivers/STM32L4xx_HAL_Driver/Src/stm32l4xx_hal_spi.c ****         hspi->Init.CRCLength = SPI_CRC_LENGTH_16BIT;
 441:Drivers/STM32L4xx_HAL_Driver/Src/stm32l4xx_hal_spi.c ****       }
 442:Drivers/STM32L4xx_HAL_Driver/Src/stm32l4xx_hal_spi.c ****       else
 443:Drivers/STM32L4xx_HAL_Driver/Src/stm32l4xx_hal_spi.c ****       {
 444:Drivers/STM32L4xx_HAL_Driver/Src/stm32l4xx_hal_spi.c ****         hspi->Init.CRCLength = SPI_CRC_LENGTH_8BIT;
 445:Drivers/STM32L4xx_HAL_Driver/Src/stm32l4xx_hal_spi.c ****       }
 446:Drivers/STM32L4xx_HAL_Driver/Src/stm32l4xx_hal_spi.c ****     }
 447:Drivers/STM32L4xx_HAL_Driver/Src/stm32l4xx_hal_spi.c **** 
 448:Drivers/STM32L4xx_HAL_Driver/Src/stm32l4xx_hal_spi.c ****     /* Configure : CRC Length */
 449:Drivers/STM32L4xx_HAL_Driver/Src/stm32l4xx_hal_spi.c ****     if (hspi->Init.CRCLength == SPI_CRC_LENGTH_16BIT)
 450:Drivers/STM32L4xx_HAL_Driver/Src/stm32l4xx_hal_spi.c ****     {
 451:Drivers/STM32L4xx_HAL_Driver/Src/stm32l4xx_hal_spi.c ****       SET_BIT(hspi->Instance->CR1, SPI_CR1_CRCL);
 452:Drivers/STM32L4xx_HAL_Driver/Src/stm32l4xx_hal_spi.c ****     }
 453:Drivers/STM32L4xx_HAL_Driver/Src/stm32l4xx_hal_spi.c ****   }
 454:Drivers/STM32L4xx_HAL_Driver/Src/stm32l4xx_hal_spi.c **** #endif /* USE_SPI_CRC */
ARM GAS  C:\Users\Morroway\AppData\Local\Temp\ccCQJjHM.s 			page 12


 455:Drivers/STM32L4xx_HAL_Driver/Src/stm32l4xx_hal_spi.c **** 
 456:Drivers/STM32L4xx_HAL_Driver/Src/stm32l4xx_hal_spi.c ****   /* Configure : NSS management, TI Mode, NSS Pulse, Data size and Rx Fifo threshold */
 457:Drivers/STM32L4xx_HAL_Driver/Src/stm32l4xx_hal_spi.c ****   WRITE_REG(hspi->Instance->CR2, (((hspi->Init.NSS >> 16U) & SPI_CR2_SSOE) |
 175              		.loc 1 457 3
 176 00f6 7B68     		ldr	r3, [r7, #4]
 177 00f8 9B69     		ldr	r3, [r3, #24]
 178 00fa 1B0C     		lsrs	r3, r3, #16
 179 00fc 03F00402 		and	r2, r3, #4
 180 0100 7B68     		ldr	r3, [r7, #4]
 181 0102 5B6A     		ldr	r3, [r3, #36]
 182 0104 03F01003 		and	r3, r3, #16
 183 0108 1A43     		orrs	r2, r2, r3
 184 010a 7B68     		ldr	r3, [r7, #4]
 185 010c 5B6B     		ldr	r3, [r3, #52]
 186 010e 03F00803 		and	r3, r3, #8
 187 0112 1A43     		orrs	r2, r2, r3
 188 0114 7B68     		ldr	r3, [r7, #4]
 189 0116 DB68     		ldr	r3, [r3, #12]
 190 0118 03F47063 		and	r3, r3, #3840
 191 011c 42EA0301 		orr	r1, r2, r3
 192 0120 FB68     		ldr	r3, [r7, #12]
 193 0122 03F48052 		and	r2, r3, #4096
 194 0126 7B68     		ldr	r3, [r7, #4]
 195 0128 1B68     		ldr	r3, [r3]
 196 012a 0A43     		orrs	r2, r2, r1
 197 012c 5A60     		str	r2, [r3, #4]
 458:Drivers/STM32L4xx_HAL_Driver/Src/stm32l4xx_hal_spi.c ****                                   (hspi->Init.TIMode & SPI_CR2_FRF) |
 459:Drivers/STM32L4xx_HAL_Driver/Src/stm32l4xx_hal_spi.c ****                                   (hspi->Init.NSSPMode & SPI_CR2_NSSP) |
 460:Drivers/STM32L4xx_HAL_Driver/Src/stm32l4xx_hal_spi.c ****                                   (hspi->Init.DataSize & SPI_CR2_DS_Msk) |
 461:Drivers/STM32L4xx_HAL_Driver/Src/stm32l4xx_hal_spi.c ****                                   (frxth & SPI_CR2_FRXTH)));
 462:Drivers/STM32L4xx_HAL_Driver/Src/stm32l4xx_hal_spi.c **** 
 463:Drivers/STM32L4xx_HAL_Driver/Src/stm32l4xx_hal_spi.c **** #if (USE_SPI_CRC != 0U)
 464:Drivers/STM32L4xx_HAL_Driver/Src/stm32l4xx_hal_spi.c ****   /*---------------------------- SPIx CRCPOLY Configuration ------------------*/
 465:Drivers/STM32L4xx_HAL_Driver/Src/stm32l4xx_hal_spi.c ****   /* Configure : CRC Polynomial */
 466:Drivers/STM32L4xx_HAL_Driver/Src/stm32l4xx_hal_spi.c ****   if (hspi->Init.CRCCalculation == SPI_CRCCALCULATION_ENABLE)
 467:Drivers/STM32L4xx_HAL_Driver/Src/stm32l4xx_hal_spi.c ****   {
 468:Drivers/STM32L4xx_HAL_Driver/Src/stm32l4xx_hal_spi.c ****     WRITE_REG(hspi->Instance->CRCPR, (hspi->Init.CRCPolynomial & SPI_CRCPR_CRCPOLY_Msk));
 469:Drivers/STM32L4xx_HAL_Driver/Src/stm32l4xx_hal_spi.c ****   }
 470:Drivers/STM32L4xx_HAL_Driver/Src/stm32l4xx_hal_spi.c **** #endif /* USE_SPI_CRC */
 471:Drivers/STM32L4xx_HAL_Driver/Src/stm32l4xx_hal_spi.c **** 
 472:Drivers/STM32L4xx_HAL_Driver/Src/stm32l4xx_hal_spi.c **** #if defined(SPI_I2SCFGR_I2SMOD)
 473:Drivers/STM32L4xx_HAL_Driver/Src/stm32l4xx_hal_spi.c ****   /* Activate the SPI mode (Make sure that I2SMOD bit in I2SCFGR register is reset) */
 474:Drivers/STM32L4xx_HAL_Driver/Src/stm32l4xx_hal_spi.c ****   CLEAR_BIT(hspi->Instance->I2SCFGR, SPI_I2SCFGR_I2SMOD);
 475:Drivers/STM32L4xx_HAL_Driver/Src/stm32l4xx_hal_spi.c **** #endif /* SPI_I2SCFGR_I2SMOD */
 476:Drivers/STM32L4xx_HAL_Driver/Src/stm32l4xx_hal_spi.c **** 
 477:Drivers/STM32L4xx_HAL_Driver/Src/stm32l4xx_hal_spi.c ****   hspi->ErrorCode = HAL_SPI_ERROR_NONE;
 198              		.loc 1 477 19
 199 012e 7B68     		ldr	r3, [r7, #4]
 200 0130 0022     		movs	r2, #0
 201 0132 1A66     		str	r2, [r3, #96]
 478:Drivers/STM32L4xx_HAL_Driver/Src/stm32l4xx_hal_spi.c ****   hspi->State     = HAL_SPI_STATE_READY;
 202              		.loc 1 478 19
 203 0134 7B68     		ldr	r3, [r7, #4]
 204 0136 0122     		movs	r2, #1
 205 0138 83F85D20 		strb	r2, [r3, #93]
 479:Drivers/STM32L4xx_HAL_Driver/Src/stm32l4xx_hal_spi.c **** 
 480:Drivers/STM32L4xx_HAL_Driver/Src/stm32l4xx_hal_spi.c ****   return HAL_OK;
ARM GAS  C:\Users\Morroway\AppData\Local\Temp\ccCQJjHM.s 			page 13


 206              		.loc 1 480 10
 207 013c 0023     		movs	r3, #0
 208              	.L3:
 481:Drivers/STM32L4xx_HAL_Driver/Src/stm32l4xx_hal_spi.c **** }
 209              		.loc 1 481 1
 210 013e 1846     		mov	r0, r3
 211 0140 1037     		adds	r7, r7, #16
 212              		.cfi_def_cfa_offset 8
 213 0142 BD46     		mov	sp, r7
 214              		.cfi_def_cfa_register 13
 215              		@ sp needed
 216 0144 80BD     		pop	{r7, pc}
 217              		.cfi_endproc
 218              	.LFE321:
 220              		.section	.text.HAL_SPI_DeInit,"ax",%progbits
 221              		.align	1
 222              		.global	HAL_SPI_DeInit
 223              		.syntax unified
 224              		.thumb
 225              		.thumb_func
 227              	HAL_SPI_DeInit:
 228              	.LFB322:
 482:Drivers/STM32L4xx_HAL_Driver/Src/stm32l4xx_hal_spi.c **** 
 483:Drivers/STM32L4xx_HAL_Driver/Src/stm32l4xx_hal_spi.c **** /**
 484:Drivers/STM32L4xx_HAL_Driver/Src/stm32l4xx_hal_spi.c ****   * @brief  De-Initialize the SPI peripheral.
 485:Drivers/STM32L4xx_HAL_Driver/Src/stm32l4xx_hal_spi.c ****   * @param  hspi pointer to a SPI_HandleTypeDef structure that contains
 486:Drivers/STM32L4xx_HAL_Driver/Src/stm32l4xx_hal_spi.c ****   *               the configuration information for SPI module.
 487:Drivers/STM32L4xx_HAL_Driver/Src/stm32l4xx_hal_spi.c ****   * @retval HAL status
 488:Drivers/STM32L4xx_HAL_Driver/Src/stm32l4xx_hal_spi.c ****   */
 489:Drivers/STM32L4xx_HAL_Driver/Src/stm32l4xx_hal_spi.c **** HAL_StatusTypeDef HAL_SPI_DeInit(SPI_HandleTypeDef *hspi)
 490:Drivers/STM32L4xx_HAL_Driver/Src/stm32l4xx_hal_spi.c **** {
 229              		.loc 1 490 1
 230              		.cfi_startproc
 231              		@ args = 0, pretend = 0, frame = 8
 232              		@ frame_needed = 1, uses_anonymous_args = 0
 233 0000 80B5     		push	{r7, lr}
 234              		.cfi_def_cfa_offset 8
 235              		.cfi_offset 7, -8
 236              		.cfi_offset 14, -4
 237 0002 82B0     		sub	sp, sp, #8
 238              		.cfi_def_cfa_offset 16
 239 0004 00AF     		add	r7, sp, #0
 240              		.cfi_def_cfa_register 7
 241 0006 7860     		str	r0, [r7, #4]
 491:Drivers/STM32L4xx_HAL_Driver/Src/stm32l4xx_hal_spi.c ****   /* Check the SPI handle allocation */
 492:Drivers/STM32L4xx_HAL_Driver/Src/stm32l4xx_hal_spi.c ****   if (hspi == NULL)
 242              		.loc 1 492 6
 243 0008 7B68     		ldr	r3, [r7, #4]
 244 000a 002B     		cmp	r3, #0
 245 000c 01D1     		bne	.L11
 493:Drivers/STM32L4xx_HAL_Driver/Src/stm32l4xx_hal_spi.c ****   {
 494:Drivers/STM32L4xx_HAL_Driver/Src/stm32l4xx_hal_spi.c ****     return HAL_ERROR;
 246              		.loc 1 494 12
 247 000e 0123     		movs	r3, #1
 248 0010 1AE0     		b	.L12
 249              	.L11:
 495:Drivers/STM32L4xx_HAL_Driver/Src/stm32l4xx_hal_spi.c ****   }
ARM GAS  C:\Users\Morroway\AppData\Local\Temp\ccCQJjHM.s 			page 14


 496:Drivers/STM32L4xx_HAL_Driver/Src/stm32l4xx_hal_spi.c **** 
 497:Drivers/STM32L4xx_HAL_Driver/Src/stm32l4xx_hal_spi.c ****   /* Check SPI Instance parameter */
 498:Drivers/STM32L4xx_HAL_Driver/Src/stm32l4xx_hal_spi.c ****   assert_param(IS_SPI_ALL_INSTANCE(hspi->Instance));
 499:Drivers/STM32L4xx_HAL_Driver/Src/stm32l4xx_hal_spi.c **** 
 500:Drivers/STM32L4xx_HAL_Driver/Src/stm32l4xx_hal_spi.c ****   hspi->State = HAL_SPI_STATE_BUSY;
 250              		.loc 1 500 15
 251 0012 7B68     		ldr	r3, [r7, #4]
 252 0014 0222     		movs	r2, #2
 253 0016 83F85D20 		strb	r2, [r3, #93]
 501:Drivers/STM32L4xx_HAL_Driver/Src/stm32l4xx_hal_spi.c **** 
 502:Drivers/STM32L4xx_HAL_Driver/Src/stm32l4xx_hal_spi.c ****   /* Disable the SPI Peripheral Clock */
 503:Drivers/STM32L4xx_HAL_Driver/Src/stm32l4xx_hal_spi.c ****   __HAL_SPI_DISABLE(hspi);
 254              		.loc 1 503 3
 255 001a 7B68     		ldr	r3, [r7, #4]
 256 001c 1B68     		ldr	r3, [r3]
 257 001e 1A68     		ldr	r2, [r3]
 258 0020 7B68     		ldr	r3, [r7, #4]
 259 0022 1B68     		ldr	r3, [r3]
 260 0024 22F04002 		bic	r2, r2, #64
 261 0028 1A60     		str	r2, [r3]
 504:Drivers/STM32L4xx_HAL_Driver/Src/stm32l4xx_hal_spi.c **** 
 505:Drivers/STM32L4xx_HAL_Driver/Src/stm32l4xx_hal_spi.c **** #if (USE_HAL_SPI_REGISTER_CALLBACKS == 1U)
 506:Drivers/STM32L4xx_HAL_Driver/Src/stm32l4xx_hal_spi.c ****   if (hspi->MspDeInitCallback == NULL)
 507:Drivers/STM32L4xx_HAL_Driver/Src/stm32l4xx_hal_spi.c ****   {
 508:Drivers/STM32L4xx_HAL_Driver/Src/stm32l4xx_hal_spi.c ****     hspi->MspDeInitCallback = HAL_SPI_MspDeInit; /* Legacy weak MspDeInit  */
 509:Drivers/STM32L4xx_HAL_Driver/Src/stm32l4xx_hal_spi.c ****   }
 510:Drivers/STM32L4xx_HAL_Driver/Src/stm32l4xx_hal_spi.c **** 
 511:Drivers/STM32L4xx_HAL_Driver/Src/stm32l4xx_hal_spi.c ****   /* DeInit the low level hardware: GPIO, CLOCK, NVIC... */
 512:Drivers/STM32L4xx_HAL_Driver/Src/stm32l4xx_hal_spi.c ****   hspi->MspDeInitCallback(hspi);
 513:Drivers/STM32L4xx_HAL_Driver/Src/stm32l4xx_hal_spi.c **** #else
 514:Drivers/STM32L4xx_HAL_Driver/Src/stm32l4xx_hal_spi.c ****   /* DeInit the low level hardware: GPIO, CLOCK, NVIC... */
 515:Drivers/STM32L4xx_HAL_Driver/Src/stm32l4xx_hal_spi.c ****   HAL_SPI_MspDeInit(hspi);
 262              		.loc 1 515 3
 263 002a 7868     		ldr	r0, [r7, #4]
 264 002c FFF7FEFF 		bl	HAL_SPI_MspDeInit
 516:Drivers/STM32L4xx_HAL_Driver/Src/stm32l4xx_hal_spi.c **** #endif /* USE_HAL_SPI_REGISTER_CALLBACKS */
 517:Drivers/STM32L4xx_HAL_Driver/Src/stm32l4xx_hal_spi.c **** 
 518:Drivers/STM32L4xx_HAL_Driver/Src/stm32l4xx_hal_spi.c ****   hspi->ErrorCode = HAL_SPI_ERROR_NONE;
 265              		.loc 1 518 19
 266 0030 7B68     		ldr	r3, [r7, #4]
 267 0032 0022     		movs	r2, #0
 268 0034 1A66     		str	r2, [r3, #96]
 519:Drivers/STM32L4xx_HAL_Driver/Src/stm32l4xx_hal_spi.c ****   hspi->State = HAL_SPI_STATE_RESET;
 269              		.loc 1 519 15
 270 0036 7B68     		ldr	r3, [r7, #4]
 271 0038 0022     		movs	r2, #0
 272 003a 83F85D20 		strb	r2, [r3, #93]
 520:Drivers/STM32L4xx_HAL_Driver/Src/stm32l4xx_hal_spi.c **** 
 521:Drivers/STM32L4xx_HAL_Driver/Src/stm32l4xx_hal_spi.c ****   /* Release Lock */
 522:Drivers/STM32L4xx_HAL_Driver/Src/stm32l4xx_hal_spi.c ****   __HAL_UNLOCK(hspi);
 273              		.loc 1 522 3
 274 003e 7B68     		ldr	r3, [r7, #4]
 275 0040 0022     		movs	r2, #0
 276 0042 83F85C20 		strb	r2, [r3, #92]
 523:Drivers/STM32L4xx_HAL_Driver/Src/stm32l4xx_hal_spi.c **** 
 524:Drivers/STM32L4xx_HAL_Driver/Src/stm32l4xx_hal_spi.c ****   return HAL_OK;
 277              		.loc 1 524 10
ARM GAS  C:\Users\Morroway\AppData\Local\Temp\ccCQJjHM.s 			page 15


 278 0046 0023     		movs	r3, #0
 279              	.L12:
 525:Drivers/STM32L4xx_HAL_Driver/Src/stm32l4xx_hal_spi.c **** }
 280              		.loc 1 525 1
 281 0048 1846     		mov	r0, r3
 282 004a 0837     		adds	r7, r7, #8
 283              		.cfi_def_cfa_offset 8
 284 004c BD46     		mov	sp, r7
 285              		.cfi_def_cfa_register 13
 286              		@ sp needed
 287 004e 80BD     		pop	{r7, pc}
 288              		.cfi_endproc
 289              	.LFE322:
 291              		.section	.text.HAL_SPI_MspInit,"ax",%progbits
 292              		.align	1
 293              		.weak	HAL_SPI_MspInit
 294              		.syntax unified
 295              		.thumb
 296              		.thumb_func
 298              	HAL_SPI_MspInit:
 299              	.LFB323:
 526:Drivers/STM32L4xx_HAL_Driver/Src/stm32l4xx_hal_spi.c **** 
 527:Drivers/STM32L4xx_HAL_Driver/Src/stm32l4xx_hal_spi.c **** /**
 528:Drivers/STM32L4xx_HAL_Driver/Src/stm32l4xx_hal_spi.c ****   * @brief  Initialize the SPI MSP.
 529:Drivers/STM32L4xx_HAL_Driver/Src/stm32l4xx_hal_spi.c ****   * @param  hspi pointer to a SPI_HandleTypeDef structure that contains
 530:Drivers/STM32L4xx_HAL_Driver/Src/stm32l4xx_hal_spi.c ****   *               the configuration information for SPI module.
 531:Drivers/STM32L4xx_HAL_Driver/Src/stm32l4xx_hal_spi.c ****   * @retval None
 532:Drivers/STM32L4xx_HAL_Driver/Src/stm32l4xx_hal_spi.c ****   */
 533:Drivers/STM32L4xx_HAL_Driver/Src/stm32l4xx_hal_spi.c **** __weak void HAL_SPI_MspInit(SPI_HandleTypeDef *hspi)
 534:Drivers/STM32L4xx_HAL_Driver/Src/stm32l4xx_hal_spi.c **** {
 300              		.loc 1 534 1
 301              		.cfi_startproc
 302              		@ args = 0, pretend = 0, frame = 8
 303              		@ frame_needed = 1, uses_anonymous_args = 0
 304              		@ link register save eliminated.
 305 0000 80B4     		push	{r7}
 306              		.cfi_def_cfa_offset 4
 307              		.cfi_offset 7, -4
 308 0002 83B0     		sub	sp, sp, #12
 309              		.cfi_def_cfa_offset 16
 310 0004 00AF     		add	r7, sp, #0
 311              		.cfi_def_cfa_register 7
 312 0006 7860     		str	r0, [r7, #4]
 535:Drivers/STM32L4xx_HAL_Driver/Src/stm32l4xx_hal_spi.c ****   /* Prevent unused argument(s) compilation warning */
 536:Drivers/STM32L4xx_HAL_Driver/Src/stm32l4xx_hal_spi.c ****   UNUSED(hspi);
 537:Drivers/STM32L4xx_HAL_Driver/Src/stm32l4xx_hal_spi.c **** 
 538:Drivers/STM32L4xx_HAL_Driver/Src/stm32l4xx_hal_spi.c ****   /* NOTE : This function should not be modified, when the callback is needed,
 539:Drivers/STM32L4xx_HAL_Driver/Src/stm32l4xx_hal_spi.c ****             the HAL_SPI_MspInit should be implemented in the user file
 540:Drivers/STM32L4xx_HAL_Driver/Src/stm32l4xx_hal_spi.c ****    */
 541:Drivers/STM32L4xx_HAL_Driver/Src/stm32l4xx_hal_spi.c **** }
 313              		.loc 1 541 1
 314 0008 00BF     		nop
 315 000a 0C37     		adds	r7, r7, #12
 316              		.cfi_def_cfa_offset 4
 317 000c BD46     		mov	sp, r7
 318              		.cfi_def_cfa_register 13
 319              		@ sp needed
ARM GAS  C:\Users\Morroway\AppData\Local\Temp\ccCQJjHM.s 			page 16


 320 000e 5DF8047B 		ldr	r7, [sp], #4
 321              		.cfi_restore 7
 322              		.cfi_def_cfa_offset 0
 323 0012 7047     		bx	lr
 324              		.cfi_endproc
 325              	.LFE323:
 327              		.section	.text.HAL_SPI_MspDeInit,"ax",%progbits
 328              		.align	1
 329              		.weak	HAL_SPI_MspDeInit
 330              		.syntax unified
 331              		.thumb
 332              		.thumb_func
 334              	HAL_SPI_MspDeInit:
 335              	.LFB324:
 542:Drivers/STM32L4xx_HAL_Driver/Src/stm32l4xx_hal_spi.c **** 
 543:Drivers/STM32L4xx_HAL_Driver/Src/stm32l4xx_hal_spi.c **** /**
 544:Drivers/STM32L4xx_HAL_Driver/Src/stm32l4xx_hal_spi.c ****   * @brief  De-Initialize the SPI MSP.
 545:Drivers/STM32L4xx_HAL_Driver/Src/stm32l4xx_hal_spi.c ****   * @param  hspi pointer to a SPI_HandleTypeDef structure that contains
 546:Drivers/STM32L4xx_HAL_Driver/Src/stm32l4xx_hal_spi.c ****   *               the configuration information for SPI module.
 547:Drivers/STM32L4xx_HAL_Driver/Src/stm32l4xx_hal_spi.c ****   * @retval None
 548:Drivers/STM32L4xx_HAL_Driver/Src/stm32l4xx_hal_spi.c ****   */
 549:Drivers/STM32L4xx_HAL_Driver/Src/stm32l4xx_hal_spi.c **** __weak void HAL_SPI_MspDeInit(SPI_HandleTypeDef *hspi)
 550:Drivers/STM32L4xx_HAL_Driver/Src/stm32l4xx_hal_spi.c **** {
 336              		.loc 1 550 1
 337              		.cfi_startproc
 338              		@ args = 0, pretend = 0, frame = 8
 339              		@ frame_needed = 1, uses_anonymous_args = 0
 340              		@ link register save eliminated.
 341 0000 80B4     		push	{r7}
 342              		.cfi_def_cfa_offset 4
 343              		.cfi_offset 7, -4
 344 0002 83B0     		sub	sp, sp, #12
 345              		.cfi_def_cfa_offset 16
 346 0004 00AF     		add	r7, sp, #0
 347              		.cfi_def_cfa_register 7
 348 0006 7860     		str	r0, [r7, #4]
 551:Drivers/STM32L4xx_HAL_Driver/Src/stm32l4xx_hal_spi.c ****   /* Prevent unused argument(s) compilation warning */
 552:Drivers/STM32L4xx_HAL_Driver/Src/stm32l4xx_hal_spi.c ****   UNUSED(hspi);
 553:Drivers/STM32L4xx_HAL_Driver/Src/stm32l4xx_hal_spi.c **** 
 554:Drivers/STM32L4xx_HAL_Driver/Src/stm32l4xx_hal_spi.c ****   /* NOTE : This function should not be modified, when the callback is needed,
 555:Drivers/STM32L4xx_HAL_Driver/Src/stm32l4xx_hal_spi.c ****             the HAL_SPI_MspDeInit should be implemented in the user file
 556:Drivers/STM32L4xx_HAL_Driver/Src/stm32l4xx_hal_spi.c ****    */
 557:Drivers/STM32L4xx_HAL_Driver/Src/stm32l4xx_hal_spi.c **** }
 349              		.loc 1 557 1
 350 0008 00BF     		nop
 351 000a 0C37     		adds	r7, r7, #12
 352              		.cfi_def_cfa_offset 4
 353 000c BD46     		mov	sp, r7
 354              		.cfi_def_cfa_register 13
 355              		@ sp needed
 356 000e 5DF8047B 		ldr	r7, [sp], #4
 357              		.cfi_restore 7
 358              		.cfi_def_cfa_offset 0
 359 0012 7047     		bx	lr
 360              		.cfi_endproc
 361              	.LFE324:
 363              		.section	.text.HAL_SPI_Transmit,"ax",%progbits
ARM GAS  C:\Users\Morroway\AppData\Local\Temp\ccCQJjHM.s 			page 17


 364              		.align	1
 365              		.global	HAL_SPI_Transmit
 366              		.syntax unified
 367              		.thumb
 368              		.thumb_func
 370              	HAL_SPI_Transmit:
 371              	.LFB325:
 558:Drivers/STM32L4xx_HAL_Driver/Src/stm32l4xx_hal_spi.c **** 
 559:Drivers/STM32L4xx_HAL_Driver/Src/stm32l4xx_hal_spi.c **** #if (USE_HAL_SPI_REGISTER_CALLBACKS == 1U)
 560:Drivers/STM32L4xx_HAL_Driver/Src/stm32l4xx_hal_spi.c **** /**
 561:Drivers/STM32L4xx_HAL_Driver/Src/stm32l4xx_hal_spi.c ****   * @brief  Register a User SPI Callback
 562:Drivers/STM32L4xx_HAL_Driver/Src/stm32l4xx_hal_spi.c ****   *         To be used instead of the weak predefined callback
 563:Drivers/STM32L4xx_HAL_Driver/Src/stm32l4xx_hal_spi.c ****   * @param  hspi Pointer to a SPI_HandleTypeDef structure that contains
 564:Drivers/STM32L4xx_HAL_Driver/Src/stm32l4xx_hal_spi.c ****   *                the configuration information for the specified SPI.
 565:Drivers/STM32L4xx_HAL_Driver/Src/stm32l4xx_hal_spi.c ****   * @param  CallbackID ID of the callback to be registered
 566:Drivers/STM32L4xx_HAL_Driver/Src/stm32l4xx_hal_spi.c ****   * @param  pCallback pointer to the Callback function
 567:Drivers/STM32L4xx_HAL_Driver/Src/stm32l4xx_hal_spi.c ****   * @retval HAL status
 568:Drivers/STM32L4xx_HAL_Driver/Src/stm32l4xx_hal_spi.c ****   */
 569:Drivers/STM32L4xx_HAL_Driver/Src/stm32l4xx_hal_spi.c **** HAL_StatusTypeDef HAL_SPI_RegisterCallback(SPI_HandleTypeDef *hspi, HAL_SPI_CallbackIDTypeDef Callb
 570:Drivers/STM32L4xx_HAL_Driver/Src/stm32l4xx_hal_spi.c ****                                            pSPI_CallbackTypeDef pCallback)
 571:Drivers/STM32L4xx_HAL_Driver/Src/stm32l4xx_hal_spi.c **** {
 572:Drivers/STM32L4xx_HAL_Driver/Src/stm32l4xx_hal_spi.c ****   HAL_StatusTypeDef status = HAL_OK;
 573:Drivers/STM32L4xx_HAL_Driver/Src/stm32l4xx_hal_spi.c **** 
 574:Drivers/STM32L4xx_HAL_Driver/Src/stm32l4xx_hal_spi.c ****   if (pCallback == NULL)
 575:Drivers/STM32L4xx_HAL_Driver/Src/stm32l4xx_hal_spi.c ****   {
 576:Drivers/STM32L4xx_HAL_Driver/Src/stm32l4xx_hal_spi.c ****     /* Update the error code */
 577:Drivers/STM32L4xx_HAL_Driver/Src/stm32l4xx_hal_spi.c ****     hspi->ErrorCode |= HAL_SPI_ERROR_INVALID_CALLBACK;
 578:Drivers/STM32L4xx_HAL_Driver/Src/stm32l4xx_hal_spi.c **** 
 579:Drivers/STM32L4xx_HAL_Driver/Src/stm32l4xx_hal_spi.c ****     return HAL_ERROR;
 580:Drivers/STM32L4xx_HAL_Driver/Src/stm32l4xx_hal_spi.c ****   }
 581:Drivers/STM32L4xx_HAL_Driver/Src/stm32l4xx_hal_spi.c ****   /* Process locked */
 582:Drivers/STM32L4xx_HAL_Driver/Src/stm32l4xx_hal_spi.c ****   __HAL_LOCK(hspi);
 583:Drivers/STM32L4xx_HAL_Driver/Src/stm32l4xx_hal_spi.c **** 
 584:Drivers/STM32L4xx_HAL_Driver/Src/stm32l4xx_hal_spi.c ****   if (HAL_SPI_STATE_READY == hspi->State)
 585:Drivers/STM32L4xx_HAL_Driver/Src/stm32l4xx_hal_spi.c ****   {
 586:Drivers/STM32L4xx_HAL_Driver/Src/stm32l4xx_hal_spi.c ****     switch (CallbackID)
 587:Drivers/STM32L4xx_HAL_Driver/Src/stm32l4xx_hal_spi.c ****     {
 588:Drivers/STM32L4xx_HAL_Driver/Src/stm32l4xx_hal_spi.c ****       case HAL_SPI_TX_COMPLETE_CB_ID :
 589:Drivers/STM32L4xx_HAL_Driver/Src/stm32l4xx_hal_spi.c ****         hspi->TxCpltCallback = pCallback;
 590:Drivers/STM32L4xx_HAL_Driver/Src/stm32l4xx_hal_spi.c ****         break;
 591:Drivers/STM32L4xx_HAL_Driver/Src/stm32l4xx_hal_spi.c **** 
 592:Drivers/STM32L4xx_HAL_Driver/Src/stm32l4xx_hal_spi.c ****       case HAL_SPI_RX_COMPLETE_CB_ID :
 593:Drivers/STM32L4xx_HAL_Driver/Src/stm32l4xx_hal_spi.c ****         hspi->RxCpltCallback = pCallback;
 594:Drivers/STM32L4xx_HAL_Driver/Src/stm32l4xx_hal_spi.c ****         break;
 595:Drivers/STM32L4xx_HAL_Driver/Src/stm32l4xx_hal_spi.c **** 
 596:Drivers/STM32L4xx_HAL_Driver/Src/stm32l4xx_hal_spi.c ****       case HAL_SPI_TX_RX_COMPLETE_CB_ID :
 597:Drivers/STM32L4xx_HAL_Driver/Src/stm32l4xx_hal_spi.c ****         hspi->TxRxCpltCallback = pCallback;
 598:Drivers/STM32L4xx_HAL_Driver/Src/stm32l4xx_hal_spi.c ****         break;
 599:Drivers/STM32L4xx_HAL_Driver/Src/stm32l4xx_hal_spi.c **** 
 600:Drivers/STM32L4xx_HAL_Driver/Src/stm32l4xx_hal_spi.c ****       case HAL_SPI_TX_HALF_COMPLETE_CB_ID :
 601:Drivers/STM32L4xx_HAL_Driver/Src/stm32l4xx_hal_spi.c ****         hspi->TxHalfCpltCallback = pCallback;
 602:Drivers/STM32L4xx_HAL_Driver/Src/stm32l4xx_hal_spi.c ****         break;
 603:Drivers/STM32L4xx_HAL_Driver/Src/stm32l4xx_hal_spi.c **** 
 604:Drivers/STM32L4xx_HAL_Driver/Src/stm32l4xx_hal_spi.c ****       case HAL_SPI_RX_HALF_COMPLETE_CB_ID :
 605:Drivers/STM32L4xx_HAL_Driver/Src/stm32l4xx_hal_spi.c ****         hspi->RxHalfCpltCallback = pCallback;
 606:Drivers/STM32L4xx_HAL_Driver/Src/stm32l4xx_hal_spi.c ****         break;
 607:Drivers/STM32L4xx_HAL_Driver/Src/stm32l4xx_hal_spi.c **** 
ARM GAS  C:\Users\Morroway\AppData\Local\Temp\ccCQJjHM.s 			page 18


 608:Drivers/STM32L4xx_HAL_Driver/Src/stm32l4xx_hal_spi.c ****       case HAL_SPI_TX_RX_HALF_COMPLETE_CB_ID :
 609:Drivers/STM32L4xx_HAL_Driver/Src/stm32l4xx_hal_spi.c ****         hspi->TxRxHalfCpltCallback = pCallback;
 610:Drivers/STM32L4xx_HAL_Driver/Src/stm32l4xx_hal_spi.c ****         break;
 611:Drivers/STM32L4xx_HAL_Driver/Src/stm32l4xx_hal_spi.c **** 
 612:Drivers/STM32L4xx_HAL_Driver/Src/stm32l4xx_hal_spi.c ****       case HAL_SPI_ERROR_CB_ID :
 613:Drivers/STM32L4xx_HAL_Driver/Src/stm32l4xx_hal_spi.c ****         hspi->ErrorCallback = pCallback;
 614:Drivers/STM32L4xx_HAL_Driver/Src/stm32l4xx_hal_spi.c ****         break;
 615:Drivers/STM32L4xx_HAL_Driver/Src/stm32l4xx_hal_spi.c **** 
 616:Drivers/STM32L4xx_HAL_Driver/Src/stm32l4xx_hal_spi.c ****       case HAL_SPI_ABORT_CB_ID :
 617:Drivers/STM32L4xx_HAL_Driver/Src/stm32l4xx_hal_spi.c ****         hspi->AbortCpltCallback = pCallback;
 618:Drivers/STM32L4xx_HAL_Driver/Src/stm32l4xx_hal_spi.c ****         break;
 619:Drivers/STM32L4xx_HAL_Driver/Src/stm32l4xx_hal_spi.c **** 
 620:Drivers/STM32L4xx_HAL_Driver/Src/stm32l4xx_hal_spi.c ****       case HAL_SPI_MSPINIT_CB_ID :
 621:Drivers/STM32L4xx_HAL_Driver/Src/stm32l4xx_hal_spi.c ****         hspi->MspInitCallback = pCallback;
 622:Drivers/STM32L4xx_HAL_Driver/Src/stm32l4xx_hal_spi.c ****         break;
 623:Drivers/STM32L4xx_HAL_Driver/Src/stm32l4xx_hal_spi.c **** 
 624:Drivers/STM32L4xx_HAL_Driver/Src/stm32l4xx_hal_spi.c ****       case HAL_SPI_MSPDEINIT_CB_ID :
 625:Drivers/STM32L4xx_HAL_Driver/Src/stm32l4xx_hal_spi.c ****         hspi->MspDeInitCallback = pCallback;
 626:Drivers/STM32L4xx_HAL_Driver/Src/stm32l4xx_hal_spi.c ****         break;
 627:Drivers/STM32L4xx_HAL_Driver/Src/stm32l4xx_hal_spi.c **** 
 628:Drivers/STM32L4xx_HAL_Driver/Src/stm32l4xx_hal_spi.c ****       default :
 629:Drivers/STM32L4xx_HAL_Driver/Src/stm32l4xx_hal_spi.c ****         /* Update the error code */
 630:Drivers/STM32L4xx_HAL_Driver/Src/stm32l4xx_hal_spi.c ****         SET_BIT(hspi->ErrorCode, HAL_SPI_ERROR_INVALID_CALLBACK);
 631:Drivers/STM32L4xx_HAL_Driver/Src/stm32l4xx_hal_spi.c **** 
 632:Drivers/STM32L4xx_HAL_Driver/Src/stm32l4xx_hal_spi.c ****         /* Return error status */
 633:Drivers/STM32L4xx_HAL_Driver/Src/stm32l4xx_hal_spi.c ****         status =  HAL_ERROR;
 634:Drivers/STM32L4xx_HAL_Driver/Src/stm32l4xx_hal_spi.c ****         break;
 635:Drivers/STM32L4xx_HAL_Driver/Src/stm32l4xx_hal_spi.c ****     }
 636:Drivers/STM32L4xx_HAL_Driver/Src/stm32l4xx_hal_spi.c ****   }
 637:Drivers/STM32L4xx_HAL_Driver/Src/stm32l4xx_hal_spi.c ****   else if (HAL_SPI_STATE_RESET == hspi->State)
 638:Drivers/STM32L4xx_HAL_Driver/Src/stm32l4xx_hal_spi.c ****   {
 639:Drivers/STM32L4xx_HAL_Driver/Src/stm32l4xx_hal_spi.c ****     switch (CallbackID)
 640:Drivers/STM32L4xx_HAL_Driver/Src/stm32l4xx_hal_spi.c ****     {
 641:Drivers/STM32L4xx_HAL_Driver/Src/stm32l4xx_hal_spi.c ****       case HAL_SPI_MSPINIT_CB_ID :
 642:Drivers/STM32L4xx_HAL_Driver/Src/stm32l4xx_hal_spi.c ****         hspi->MspInitCallback = pCallback;
 643:Drivers/STM32L4xx_HAL_Driver/Src/stm32l4xx_hal_spi.c ****         break;
 644:Drivers/STM32L4xx_HAL_Driver/Src/stm32l4xx_hal_spi.c **** 
 645:Drivers/STM32L4xx_HAL_Driver/Src/stm32l4xx_hal_spi.c ****       case HAL_SPI_MSPDEINIT_CB_ID :
 646:Drivers/STM32L4xx_HAL_Driver/Src/stm32l4xx_hal_spi.c ****         hspi->MspDeInitCallback = pCallback;
 647:Drivers/STM32L4xx_HAL_Driver/Src/stm32l4xx_hal_spi.c ****         break;
 648:Drivers/STM32L4xx_HAL_Driver/Src/stm32l4xx_hal_spi.c **** 
 649:Drivers/STM32L4xx_HAL_Driver/Src/stm32l4xx_hal_spi.c ****       default :
 650:Drivers/STM32L4xx_HAL_Driver/Src/stm32l4xx_hal_spi.c ****         /* Update the error code */
 651:Drivers/STM32L4xx_HAL_Driver/Src/stm32l4xx_hal_spi.c ****         SET_BIT(hspi->ErrorCode, HAL_SPI_ERROR_INVALID_CALLBACK);
 652:Drivers/STM32L4xx_HAL_Driver/Src/stm32l4xx_hal_spi.c **** 
 653:Drivers/STM32L4xx_HAL_Driver/Src/stm32l4xx_hal_spi.c ****         /* Return error status */
 654:Drivers/STM32L4xx_HAL_Driver/Src/stm32l4xx_hal_spi.c ****         status =  HAL_ERROR;
 655:Drivers/STM32L4xx_HAL_Driver/Src/stm32l4xx_hal_spi.c ****         break;
 656:Drivers/STM32L4xx_HAL_Driver/Src/stm32l4xx_hal_spi.c ****     }
 657:Drivers/STM32L4xx_HAL_Driver/Src/stm32l4xx_hal_spi.c ****   }
 658:Drivers/STM32L4xx_HAL_Driver/Src/stm32l4xx_hal_spi.c ****   else
 659:Drivers/STM32L4xx_HAL_Driver/Src/stm32l4xx_hal_spi.c ****   {
 660:Drivers/STM32L4xx_HAL_Driver/Src/stm32l4xx_hal_spi.c ****     /* Update the error code */
 661:Drivers/STM32L4xx_HAL_Driver/Src/stm32l4xx_hal_spi.c ****     SET_BIT(hspi->ErrorCode, HAL_SPI_ERROR_INVALID_CALLBACK);
 662:Drivers/STM32L4xx_HAL_Driver/Src/stm32l4xx_hal_spi.c **** 
 663:Drivers/STM32L4xx_HAL_Driver/Src/stm32l4xx_hal_spi.c ****     /* Return error status */
 664:Drivers/STM32L4xx_HAL_Driver/Src/stm32l4xx_hal_spi.c ****     status =  HAL_ERROR;
ARM GAS  C:\Users\Morroway\AppData\Local\Temp\ccCQJjHM.s 			page 19


 665:Drivers/STM32L4xx_HAL_Driver/Src/stm32l4xx_hal_spi.c ****   }
 666:Drivers/STM32L4xx_HAL_Driver/Src/stm32l4xx_hal_spi.c **** 
 667:Drivers/STM32L4xx_HAL_Driver/Src/stm32l4xx_hal_spi.c ****   /* Release Lock */
 668:Drivers/STM32L4xx_HAL_Driver/Src/stm32l4xx_hal_spi.c ****   __HAL_UNLOCK(hspi);
 669:Drivers/STM32L4xx_HAL_Driver/Src/stm32l4xx_hal_spi.c ****   return status;
 670:Drivers/STM32L4xx_HAL_Driver/Src/stm32l4xx_hal_spi.c **** }
 671:Drivers/STM32L4xx_HAL_Driver/Src/stm32l4xx_hal_spi.c **** 
 672:Drivers/STM32L4xx_HAL_Driver/Src/stm32l4xx_hal_spi.c **** /**
 673:Drivers/STM32L4xx_HAL_Driver/Src/stm32l4xx_hal_spi.c ****   * @brief  Unregister an SPI Callback
 674:Drivers/STM32L4xx_HAL_Driver/Src/stm32l4xx_hal_spi.c ****   *         SPI callback is redirected to the weak predefined callback
 675:Drivers/STM32L4xx_HAL_Driver/Src/stm32l4xx_hal_spi.c ****   * @param  hspi Pointer to a SPI_HandleTypeDef structure that contains
 676:Drivers/STM32L4xx_HAL_Driver/Src/stm32l4xx_hal_spi.c ****   *                the configuration information for the specified SPI.
 677:Drivers/STM32L4xx_HAL_Driver/Src/stm32l4xx_hal_spi.c ****   * @param  CallbackID ID of the callback to be unregistered
 678:Drivers/STM32L4xx_HAL_Driver/Src/stm32l4xx_hal_spi.c ****   * @retval HAL status
 679:Drivers/STM32L4xx_HAL_Driver/Src/stm32l4xx_hal_spi.c ****   */
 680:Drivers/STM32L4xx_HAL_Driver/Src/stm32l4xx_hal_spi.c **** HAL_StatusTypeDef HAL_SPI_UnRegisterCallback(SPI_HandleTypeDef *hspi, HAL_SPI_CallbackIDTypeDef Cal
 681:Drivers/STM32L4xx_HAL_Driver/Src/stm32l4xx_hal_spi.c **** {
 682:Drivers/STM32L4xx_HAL_Driver/Src/stm32l4xx_hal_spi.c ****   HAL_StatusTypeDef status = HAL_OK;
 683:Drivers/STM32L4xx_HAL_Driver/Src/stm32l4xx_hal_spi.c **** 
 684:Drivers/STM32L4xx_HAL_Driver/Src/stm32l4xx_hal_spi.c ****   /* Process locked */
 685:Drivers/STM32L4xx_HAL_Driver/Src/stm32l4xx_hal_spi.c ****   __HAL_LOCK(hspi);
 686:Drivers/STM32L4xx_HAL_Driver/Src/stm32l4xx_hal_spi.c **** 
 687:Drivers/STM32L4xx_HAL_Driver/Src/stm32l4xx_hal_spi.c ****   if (HAL_SPI_STATE_READY == hspi->State)
 688:Drivers/STM32L4xx_HAL_Driver/Src/stm32l4xx_hal_spi.c ****   {
 689:Drivers/STM32L4xx_HAL_Driver/Src/stm32l4xx_hal_spi.c ****     switch (CallbackID)
 690:Drivers/STM32L4xx_HAL_Driver/Src/stm32l4xx_hal_spi.c ****     {
 691:Drivers/STM32L4xx_HAL_Driver/Src/stm32l4xx_hal_spi.c ****       case HAL_SPI_TX_COMPLETE_CB_ID :
 692:Drivers/STM32L4xx_HAL_Driver/Src/stm32l4xx_hal_spi.c ****         hspi->TxCpltCallback = HAL_SPI_TxCpltCallback;             /* Legacy weak TxCpltCallback   
 693:Drivers/STM32L4xx_HAL_Driver/Src/stm32l4xx_hal_spi.c ****         break;
 694:Drivers/STM32L4xx_HAL_Driver/Src/stm32l4xx_hal_spi.c **** 
 695:Drivers/STM32L4xx_HAL_Driver/Src/stm32l4xx_hal_spi.c ****       case HAL_SPI_RX_COMPLETE_CB_ID :
 696:Drivers/STM32L4xx_HAL_Driver/Src/stm32l4xx_hal_spi.c ****         hspi->RxCpltCallback = HAL_SPI_RxCpltCallback;             /* Legacy weak RxCpltCallback   
 697:Drivers/STM32L4xx_HAL_Driver/Src/stm32l4xx_hal_spi.c ****         break;
 698:Drivers/STM32L4xx_HAL_Driver/Src/stm32l4xx_hal_spi.c **** 
 699:Drivers/STM32L4xx_HAL_Driver/Src/stm32l4xx_hal_spi.c ****       case HAL_SPI_TX_RX_COMPLETE_CB_ID :
 700:Drivers/STM32L4xx_HAL_Driver/Src/stm32l4xx_hal_spi.c ****         hspi->TxRxCpltCallback = HAL_SPI_TxRxCpltCallback;         /* Legacy weak TxRxCpltCallback 
 701:Drivers/STM32L4xx_HAL_Driver/Src/stm32l4xx_hal_spi.c ****         break;
 702:Drivers/STM32L4xx_HAL_Driver/Src/stm32l4xx_hal_spi.c **** 
 703:Drivers/STM32L4xx_HAL_Driver/Src/stm32l4xx_hal_spi.c ****       case HAL_SPI_TX_HALF_COMPLETE_CB_ID :
 704:Drivers/STM32L4xx_HAL_Driver/Src/stm32l4xx_hal_spi.c ****         hspi->TxHalfCpltCallback = HAL_SPI_TxHalfCpltCallback;     /* Legacy weak TxHalfCpltCallbac
 705:Drivers/STM32L4xx_HAL_Driver/Src/stm32l4xx_hal_spi.c ****         break;
 706:Drivers/STM32L4xx_HAL_Driver/Src/stm32l4xx_hal_spi.c **** 
 707:Drivers/STM32L4xx_HAL_Driver/Src/stm32l4xx_hal_spi.c ****       case HAL_SPI_RX_HALF_COMPLETE_CB_ID :
 708:Drivers/STM32L4xx_HAL_Driver/Src/stm32l4xx_hal_spi.c ****         hspi->RxHalfCpltCallback = HAL_SPI_RxHalfCpltCallback;     /* Legacy weak RxHalfCpltCallbac
 709:Drivers/STM32L4xx_HAL_Driver/Src/stm32l4xx_hal_spi.c ****         break;
 710:Drivers/STM32L4xx_HAL_Driver/Src/stm32l4xx_hal_spi.c **** 
 711:Drivers/STM32L4xx_HAL_Driver/Src/stm32l4xx_hal_spi.c ****       case HAL_SPI_TX_RX_HALF_COMPLETE_CB_ID :
 712:Drivers/STM32L4xx_HAL_Driver/Src/stm32l4xx_hal_spi.c ****         hspi->TxRxHalfCpltCallback = HAL_SPI_TxRxHalfCpltCallback; /* Legacy weak TxRxHalfCpltCallb
 713:Drivers/STM32L4xx_HAL_Driver/Src/stm32l4xx_hal_spi.c ****         break;
 714:Drivers/STM32L4xx_HAL_Driver/Src/stm32l4xx_hal_spi.c **** 
 715:Drivers/STM32L4xx_HAL_Driver/Src/stm32l4xx_hal_spi.c ****       case HAL_SPI_ERROR_CB_ID :
 716:Drivers/STM32L4xx_HAL_Driver/Src/stm32l4xx_hal_spi.c ****         hspi->ErrorCallback = HAL_SPI_ErrorCallback;               /* Legacy weak ErrorCallback    
 717:Drivers/STM32L4xx_HAL_Driver/Src/stm32l4xx_hal_spi.c ****         break;
 718:Drivers/STM32L4xx_HAL_Driver/Src/stm32l4xx_hal_spi.c **** 
 719:Drivers/STM32L4xx_HAL_Driver/Src/stm32l4xx_hal_spi.c ****       case HAL_SPI_ABORT_CB_ID :
 720:Drivers/STM32L4xx_HAL_Driver/Src/stm32l4xx_hal_spi.c ****         hspi->AbortCpltCallback = HAL_SPI_AbortCpltCallback;       /* Legacy weak AbortCpltCallback
 721:Drivers/STM32L4xx_HAL_Driver/Src/stm32l4xx_hal_spi.c ****         break;
ARM GAS  C:\Users\Morroway\AppData\Local\Temp\ccCQJjHM.s 			page 20


 722:Drivers/STM32L4xx_HAL_Driver/Src/stm32l4xx_hal_spi.c **** 
 723:Drivers/STM32L4xx_HAL_Driver/Src/stm32l4xx_hal_spi.c ****       case HAL_SPI_MSPINIT_CB_ID :
 724:Drivers/STM32L4xx_HAL_Driver/Src/stm32l4xx_hal_spi.c ****         hspi->MspInitCallback = HAL_SPI_MspInit;                   /* Legacy weak MspInit          
 725:Drivers/STM32L4xx_HAL_Driver/Src/stm32l4xx_hal_spi.c ****         break;
 726:Drivers/STM32L4xx_HAL_Driver/Src/stm32l4xx_hal_spi.c **** 
 727:Drivers/STM32L4xx_HAL_Driver/Src/stm32l4xx_hal_spi.c ****       case HAL_SPI_MSPDEINIT_CB_ID :
 728:Drivers/STM32L4xx_HAL_Driver/Src/stm32l4xx_hal_spi.c ****         hspi->MspDeInitCallback = HAL_SPI_MspDeInit;               /* Legacy weak MspDeInit        
 729:Drivers/STM32L4xx_HAL_Driver/Src/stm32l4xx_hal_spi.c ****         break;
 730:Drivers/STM32L4xx_HAL_Driver/Src/stm32l4xx_hal_spi.c **** 
 731:Drivers/STM32L4xx_HAL_Driver/Src/stm32l4xx_hal_spi.c ****       default :
 732:Drivers/STM32L4xx_HAL_Driver/Src/stm32l4xx_hal_spi.c ****         /* Update the error code */
 733:Drivers/STM32L4xx_HAL_Driver/Src/stm32l4xx_hal_spi.c ****         SET_BIT(hspi->ErrorCode, HAL_SPI_ERROR_INVALID_CALLBACK);
 734:Drivers/STM32L4xx_HAL_Driver/Src/stm32l4xx_hal_spi.c **** 
 735:Drivers/STM32L4xx_HAL_Driver/Src/stm32l4xx_hal_spi.c ****         /* Return error status */
 736:Drivers/STM32L4xx_HAL_Driver/Src/stm32l4xx_hal_spi.c ****         status =  HAL_ERROR;
 737:Drivers/STM32L4xx_HAL_Driver/Src/stm32l4xx_hal_spi.c ****         break;
 738:Drivers/STM32L4xx_HAL_Driver/Src/stm32l4xx_hal_spi.c ****     }
 739:Drivers/STM32L4xx_HAL_Driver/Src/stm32l4xx_hal_spi.c ****   }
 740:Drivers/STM32L4xx_HAL_Driver/Src/stm32l4xx_hal_spi.c ****   else if (HAL_SPI_STATE_RESET == hspi->State)
 741:Drivers/STM32L4xx_HAL_Driver/Src/stm32l4xx_hal_spi.c ****   {
 742:Drivers/STM32L4xx_HAL_Driver/Src/stm32l4xx_hal_spi.c ****     switch (CallbackID)
 743:Drivers/STM32L4xx_HAL_Driver/Src/stm32l4xx_hal_spi.c ****     {
 744:Drivers/STM32L4xx_HAL_Driver/Src/stm32l4xx_hal_spi.c ****       case HAL_SPI_MSPINIT_CB_ID :
 745:Drivers/STM32L4xx_HAL_Driver/Src/stm32l4xx_hal_spi.c ****         hspi->MspInitCallback = HAL_SPI_MspInit;                   /* Legacy weak MspInit          
 746:Drivers/STM32L4xx_HAL_Driver/Src/stm32l4xx_hal_spi.c ****         break;
 747:Drivers/STM32L4xx_HAL_Driver/Src/stm32l4xx_hal_spi.c **** 
 748:Drivers/STM32L4xx_HAL_Driver/Src/stm32l4xx_hal_spi.c ****       case HAL_SPI_MSPDEINIT_CB_ID :
 749:Drivers/STM32L4xx_HAL_Driver/Src/stm32l4xx_hal_spi.c ****         hspi->MspDeInitCallback = HAL_SPI_MspDeInit;               /* Legacy weak MspDeInit        
 750:Drivers/STM32L4xx_HAL_Driver/Src/stm32l4xx_hal_spi.c ****         break;
 751:Drivers/STM32L4xx_HAL_Driver/Src/stm32l4xx_hal_spi.c **** 
 752:Drivers/STM32L4xx_HAL_Driver/Src/stm32l4xx_hal_spi.c ****       default :
 753:Drivers/STM32L4xx_HAL_Driver/Src/stm32l4xx_hal_spi.c ****         /* Update the error code */
 754:Drivers/STM32L4xx_HAL_Driver/Src/stm32l4xx_hal_spi.c ****         SET_BIT(hspi->ErrorCode, HAL_SPI_ERROR_INVALID_CALLBACK);
 755:Drivers/STM32L4xx_HAL_Driver/Src/stm32l4xx_hal_spi.c **** 
 756:Drivers/STM32L4xx_HAL_Driver/Src/stm32l4xx_hal_spi.c ****         /* Return error status */
 757:Drivers/STM32L4xx_HAL_Driver/Src/stm32l4xx_hal_spi.c ****         status =  HAL_ERROR;
 758:Drivers/STM32L4xx_HAL_Driver/Src/stm32l4xx_hal_spi.c ****         break;
 759:Drivers/STM32L4xx_HAL_Driver/Src/stm32l4xx_hal_spi.c ****     }
 760:Drivers/STM32L4xx_HAL_Driver/Src/stm32l4xx_hal_spi.c ****   }
 761:Drivers/STM32L4xx_HAL_Driver/Src/stm32l4xx_hal_spi.c ****   else
 762:Drivers/STM32L4xx_HAL_Driver/Src/stm32l4xx_hal_spi.c ****   {
 763:Drivers/STM32L4xx_HAL_Driver/Src/stm32l4xx_hal_spi.c ****     /* Update the error code */
 764:Drivers/STM32L4xx_HAL_Driver/Src/stm32l4xx_hal_spi.c ****     SET_BIT(hspi->ErrorCode, HAL_SPI_ERROR_INVALID_CALLBACK);
 765:Drivers/STM32L4xx_HAL_Driver/Src/stm32l4xx_hal_spi.c **** 
 766:Drivers/STM32L4xx_HAL_Driver/Src/stm32l4xx_hal_spi.c ****     /* Return error status */
 767:Drivers/STM32L4xx_HAL_Driver/Src/stm32l4xx_hal_spi.c ****     status =  HAL_ERROR;
 768:Drivers/STM32L4xx_HAL_Driver/Src/stm32l4xx_hal_spi.c ****   }
 769:Drivers/STM32L4xx_HAL_Driver/Src/stm32l4xx_hal_spi.c **** 
 770:Drivers/STM32L4xx_HAL_Driver/Src/stm32l4xx_hal_spi.c ****   /* Release Lock */
 771:Drivers/STM32L4xx_HAL_Driver/Src/stm32l4xx_hal_spi.c ****   __HAL_UNLOCK(hspi);
 772:Drivers/STM32L4xx_HAL_Driver/Src/stm32l4xx_hal_spi.c ****   return status;
 773:Drivers/STM32L4xx_HAL_Driver/Src/stm32l4xx_hal_spi.c **** }
 774:Drivers/STM32L4xx_HAL_Driver/Src/stm32l4xx_hal_spi.c **** #endif /* USE_HAL_SPI_REGISTER_CALLBACKS */
 775:Drivers/STM32L4xx_HAL_Driver/Src/stm32l4xx_hal_spi.c **** /**
 776:Drivers/STM32L4xx_HAL_Driver/Src/stm32l4xx_hal_spi.c ****   * @}
 777:Drivers/STM32L4xx_HAL_Driver/Src/stm32l4xx_hal_spi.c ****   */
 778:Drivers/STM32L4xx_HAL_Driver/Src/stm32l4xx_hal_spi.c **** 
ARM GAS  C:\Users\Morroway\AppData\Local\Temp\ccCQJjHM.s 			page 21


 779:Drivers/STM32L4xx_HAL_Driver/Src/stm32l4xx_hal_spi.c **** /** @defgroup SPI_Exported_Functions_Group2 IO operation functions
 780:Drivers/STM32L4xx_HAL_Driver/Src/stm32l4xx_hal_spi.c ****   *  @brief   Data transfers functions
 781:Drivers/STM32L4xx_HAL_Driver/Src/stm32l4xx_hal_spi.c ****   *
 782:Drivers/STM32L4xx_HAL_Driver/Src/stm32l4xx_hal_spi.c **** @verbatim
 783:Drivers/STM32L4xx_HAL_Driver/Src/stm32l4xx_hal_spi.c ****   ==============================================================================
 784:Drivers/STM32L4xx_HAL_Driver/Src/stm32l4xx_hal_spi.c ****                       ##### IO operation functions #####
 785:Drivers/STM32L4xx_HAL_Driver/Src/stm32l4xx_hal_spi.c ****  ===============================================================================
 786:Drivers/STM32L4xx_HAL_Driver/Src/stm32l4xx_hal_spi.c ****  [..]
 787:Drivers/STM32L4xx_HAL_Driver/Src/stm32l4xx_hal_spi.c ****     This subsection provides a set of functions allowing to manage the SPI
 788:Drivers/STM32L4xx_HAL_Driver/Src/stm32l4xx_hal_spi.c ****     data transfers.
 789:Drivers/STM32L4xx_HAL_Driver/Src/stm32l4xx_hal_spi.c **** 
 790:Drivers/STM32L4xx_HAL_Driver/Src/stm32l4xx_hal_spi.c ****     [..] The SPI supports master and slave mode :
 791:Drivers/STM32L4xx_HAL_Driver/Src/stm32l4xx_hal_spi.c **** 
 792:Drivers/STM32L4xx_HAL_Driver/Src/stm32l4xx_hal_spi.c ****     (#) There are two modes of transfer:
 793:Drivers/STM32L4xx_HAL_Driver/Src/stm32l4xx_hal_spi.c ****        (++) Blocking mode: The communication is performed in polling mode.
 794:Drivers/STM32L4xx_HAL_Driver/Src/stm32l4xx_hal_spi.c ****             The HAL status of all data processing is returned by the same function
 795:Drivers/STM32L4xx_HAL_Driver/Src/stm32l4xx_hal_spi.c ****             after finishing transfer.
 796:Drivers/STM32L4xx_HAL_Driver/Src/stm32l4xx_hal_spi.c ****        (++) No-Blocking mode: The communication is performed using Interrupts
 797:Drivers/STM32L4xx_HAL_Driver/Src/stm32l4xx_hal_spi.c ****             or DMA, These APIs return the HAL status.
 798:Drivers/STM32L4xx_HAL_Driver/Src/stm32l4xx_hal_spi.c ****             The end of the data processing will be indicated through the
 799:Drivers/STM32L4xx_HAL_Driver/Src/stm32l4xx_hal_spi.c ****             dedicated SPI IRQ when using Interrupt mode or the DMA IRQ when
 800:Drivers/STM32L4xx_HAL_Driver/Src/stm32l4xx_hal_spi.c ****             using DMA mode.
 801:Drivers/STM32L4xx_HAL_Driver/Src/stm32l4xx_hal_spi.c ****             The HAL_SPI_TxCpltCallback(), HAL_SPI_RxCpltCallback() and HAL_SPI_TxRxCpltCallback() u
 802:Drivers/STM32L4xx_HAL_Driver/Src/stm32l4xx_hal_spi.c ****             will be executed respectively at the end of the transmit or Receive process
 803:Drivers/STM32L4xx_HAL_Driver/Src/stm32l4xx_hal_spi.c ****             The HAL_SPI_ErrorCallback()user callback will be executed when a communication error is
 804:Drivers/STM32L4xx_HAL_Driver/Src/stm32l4xx_hal_spi.c **** 
 805:Drivers/STM32L4xx_HAL_Driver/Src/stm32l4xx_hal_spi.c ****     (#) APIs provided for these 2 transfer modes (Blocking mode or Non blocking mode using either I
 806:Drivers/STM32L4xx_HAL_Driver/Src/stm32l4xx_hal_spi.c ****         exist for 1Line (simplex) and 2Lines (full duplex) modes.
 807:Drivers/STM32L4xx_HAL_Driver/Src/stm32l4xx_hal_spi.c **** 
 808:Drivers/STM32L4xx_HAL_Driver/Src/stm32l4xx_hal_spi.c **** @endverbatim
 809:Drivers/STM32L4xx_HAL_Driver/Src/stm32l4xx_hal_spi.c ****   * @{
 810:Drivers/STM32L4xx_HAL_Driver/Src/stm32l4xx_hal_spi.c ****   */
 811:Drivers/STM32L4xx_HAL_Driver/Src/stm32l4xx_hal_spi.c **** 
 812:Drivers/STM32L4xx_HAL_Driver/Src/stm32l4xx_hal_spi.c **** /**
 813:Drivers/STM32L4xx_HAL_Driver/Src/stm32l4xx_hal_spi.c ****   * @brief  Transmit an amount of data in blocking mode.
 814:Drivers/STM32L4xx_HAL_Driver/Src/stm32l4xx_hal_spi.c ****   * @param  hspi pointer to a SPI_HandleTypeDef structure that contains
 815:Drivers/STM32L4xx_HAL_Driver/Src/stm32l4xx_hal_spi.c ****   *               the configuration information for SPI module.
 816:Drivers/STM32L4xx_HAL_Driver/Src/stm32l4xx_hal_spi.c ****   * @param  pData pointer to data buffer
 817:Drivers/STM32L4xx_HAL_Driver/Src/stm32l4xx_hal_spi.c ****   * @param  Size amount of data to be sent
 818:Drivers/STM32L4xx_HAL_Driver/Src/stm32l4xx_hal_spi.c ****   * @param  Timeout Timeout duration
 819:Drivers/STM32L4xx_HAL_Driver/Src/stm32l4xx_hal_spi.c ****   * @retval HAL status
 820:Drivers/STM32L4xx_HAL_Driver/Src/stm32l4xx_hal_spi.c ****   */
 821:Drivers/STM32L4xx_HAL_Driver/Src/stm32l4xx_hal_spi.c **** HAL_StatusTypeDef HAL_SPI_Transmit(SPI_HandleTypeDef *hspi, uint8_t *pData, uint16_t Size, uint32_t
 822:Drivers/STM32L4xx_HAL_Driver/Src/stm32l4xx_hal_spi.c **** {
 372              		.loc 1 822 1
 373              		.cfi_startproc
 374              		@ args = 0, pretend = 0, frame = 32
 375              		@ frame_needed = 1, uses_anonymous_args = 0
 376 0000 80B5     		push	{r7, lr}
 377              		.cfi_def_cfa_offset 8
 378              		.cfi_offset 7, -8
 379              		.cfi_offset 14, -4
 380 0002 88B0     		sub	sp, sp, #32
 381              		.cfi_def_cfa_offset 40
 382 0004 00AF     		add	r7, sp, #0
 383              		.cfi_def_cfa_register 7
 384 0006 F860     		str	r0, [r7, #12]
ARM GAS  C:\Users\Morroway\AppData\Local\Temp\ccCQJjHM.s 			page 22


 385 0008 B960     		str	r1, [r7, #8]
 386 000a 3B60     		str	r3, [r7]
 387 000c 1346     		mov	r3, r2	@ movhi
 388 000e FB80     		strh	r3, [r7, #6]	@ movhi
 823:Drivers/STM32L4xx_HAL_Driver/Src/stm32l4xx_hal_spi.c ****   uint32_t tickstart;
 824:Drivers/STM32L4xx_HAL_Driver/Src/stm32l4xx_hal_spi.c ****   HAL_StatusTypeDef errorcode = HAL_OK;
 389              		.loc 1 824 21
 390 0010 0023     		movs	r3, #0
 391 0012 FB77     		strb	r3, [r7, #31]
 825:Drivers/STM32L4xx_HAL_Driver/Src/stm32l4xx_hal_spi.c ****   uint16_t initial_TxXferCount;
 826:Drivers/STM32L4xx_HAL_Driver/Src/stm32l4xx_hal_spi.c **** 
 827:Drivers/STM32L4xx_HAL_Driver/Src/stm32l4xx_hal_spi.c ****   /* Check Direction parameter */
 828:Drivers/STM32L4xx_HAL_Driver/Src/stm32l4xx_hal_spi.c ****   assert_param(IS_SPI_DIRECTION_2LINES_OR_1LINE(hspi->Init.Direction));
 829:Drivers/STM32L4xx_HAL_Driver/Src/stm32l4xx_hal_spi.c **** 
 830:Drivers/STM32L4xx_HAL_Driver/Src/stm32l4xx_hal_spi.c ****   /* Process Locked */
 831:Drivers/STM32L4xx_HAL_Driver/Src/stm32l4xx_hal_spi.c ****   __HAL_LOCK(hspi);
 392              		.loc 1 831 3
 393 0014 FB68     		ldr	r3, [r7, #12]
 394 0016 93F85C30 		ldrb	r3, [r3, #92]	@ zero_extendqisi2
 395 001a 012B     		cmp	r3, #1
 396 001c 01D1     		bne	.L16
 397              		.loc 1 831 3 is_stmt 0 discriminator 1
 398 001e 0223     		movs	r3, #2
 399 0020 58E1     		b	.L17
 400              	.L16:
 401              		.loc 1 831 3 discriminator 2
 402 0022 FB68     		ldr	r3, [r7, #12]
 403 0024 0122     		movs	r2, #1
 404 0026 83F85C20 		strb	r2, [r3, #92]
 832:Drivers/STM32L4xx_HAL_Driver/Src/stm32l4xx_hal_spi.c **** 
 833:Drivers/STM32L4xx_HAL_Driver/Src/stm32l4xx_hal_spi.c ****   /* Init tickstart for timeout management*/
 834:Drivers/STM32L4xx_HAL_Driver/Src/stm32l4xx_hal_spi.c ****   tickstart = HAL_GetTick();
 405              		.loc 1 834 15 is_stmt 1 discriminator 2
 406 002a FFF7FEFF 		bl	HAL_GetTick
 407 002e B861     		str	r0, [r7, #24]
 835:Drivers/STM32L4xx_HAL_Driver/Src/stm32l4xx_hal_spi.c ****   initial_TxXferCount = Size;
 408              		.loc 1 835 23 discriminator 2
 409 0030 FB88     		ldrh	r3, [r7, #6]	@ movhi
 410 0032 FB82     		strh	r3, [r7, #22]	@ movhi
 836:Drivers/STM32L4xx_HAL_Driver/Src/stm32l4xx_hal_spi.c **** 
 837:Drivers/STM32L4xx_HAL_Driver/Src/stm32l4xx_hal_spi.c ****   if (hspi->State != HAL_SPI_STATE_READY)
 411              		.loc 1 837 11 discriminator 2
 412 0034 FB68     		ldr	r3, [r7, #12]
 413 0036 93F85D30 		ldrb	r3, [r3, #93]
 414 003a DBB2     		uxtb	r3, r3
 415              		.loc 1 837 6 discriminator 2
 416 003c 012B     		cmp	r3, #1
 417 003e 02D0     		beq	.L18
 838:Drivers/STM32L4xx_HAL_Driver/Src/stm32l4xx_hal_spi.c ****   {
 839:Drivers/STM32L4xx_HAL_Driver/Src/stm32l4xx_hal_spi.c ****     errorcode = HAL_BUSY;
 418              		.loc 1 839 15
 419 0040 0223     		movs	r3, #2
 420 0042 FB77     		strb	r3, [r7, #31]
 840:Drivers/STM32L4xx_HAL_Driver/Src/stm32l4xx_hal_spi.c ****     goto error;
 421              		.loc 1 840 5
 422 0044 3DE1     		b	.L19
 423              	.L18:
ARM GAS  C:\Users\Morroway\AppData\Local\Temp\ccCQJjHM.s 			page 23


 841:Drivers/STM32L4xx_HAL_Driver/Src/stm32l4xx_hal_spi.c ****   }
 842:Drivers/STM32L4xx_HAL_Driver/Src/stm32l4xx_hal_spi.c **** 
 843:Drivers/STM32L4xx_HAL_Driver/Src/stm32l4xx_hal_spi.c ****   if ((pData == NULL) || (Size == 0U))
 424              		.loc 1 843 6
 425 0046 BB68     		ldr	r3, [r7, #8]
 426 0048 002B     		cmp	r3, #0
 427 004a 02D0     		beq	.L20
 428              		.loc 1 843 23 discriminator 1
 429 004c FB88     		ldrh	r3, [r7, #6]
 430 004e 002B     		cmp	r3, #0
 431 0050 02D1     		bne	.L21
 432              	.L20:
 844:Drivers/STM32L4xx_HAL_Driver/Src/stm32l4xx_hal_spi.c ****   {
 845:Drivers/STM32L4xx_HAL_Driver/Src/stm32l4xx_hal_spi.c ****     errorcode = HAL_ERROR;
 433              		.loc 1 845 15
 434 0052 0123     		movs	r3, #1
 435 0054 FB77     		strb	r3, [r7, #31]
 846:Drivers/STM32L4xx_HAL_Driver/Src/stm32l4xx_hal_spi.c ****     goto error;
 436              		.loc 1 846 5
 437 0056 34E1     		b	.L19
 438              	.L21:
 847:Drivers/STM32L4xx_HAL_Driver/Src/stm32l4xx_hal_spi.c ****   }
 848:Drivers/STM32L4xx_HAL_Driver/Src/stm32l4xx_hal_spi.c **** 
 849:Drivers/STM32L4xx_HAL_Driver/Src/stm32l4xx_hal_spi.c ****   /* Set the transaction information */
 850:Drivers/STM32L4xx_HAL_Driver/Src/stm32l4xx_hal_spi.c ****   hspi->State       = HAL_SPI_STATE_BUSY_TX;
 439              		.loc 1 850 21
 440 0058 FB68     		ldr	r3, [r7, #12]
 441 005a 0322     		movs	r2, #3
 442 005c 83F85D20 		strb	r2, [r3, #93]
 851:Drivers/STM32L4xx_HAL_Driver/Src/stm32l4xx_hal_spi.c ****   hspi->ErrorCode   = HAL_SPI_ERROR_NONE;
 443              		.loc 1 851 21
 444 0060 FB68     		ldr	r3, [r7, #12]
 445 0062 0022     		movs	r2, #0
 446 0064 1A66     		str	r2, [r3, #96]
 852:Drivers/STM32L4xx_HAL_Driver/Src/stm32l4xx_hal_spi.c ****   hspi->pTxBuffPtr  = (uint8_t *)pData;
 447              		.loc 1 852 21
 448 0066 FB68     		ldr	r3, [r7, #12]
 449 0068 BA68     		ldr	r2, [r7, #8]
 450 006a 9A63     		str	r2, [r3, #56]
 853:Drivers/STM32L4xx_HAL_Driver/Src/stm32l4xx_hal_spi.c ****   hspi->TxXferSize  = Size;
 451              		.loc 1 853 21
 452 006c FB68     		ldr	r3, [r7, #12]
 453 006e FA88     		ldrh	r2, [r7, #6]	@ movhi
 454 0070 9A87     		strh	r2, [r3, #60]	@ movhi
 854:Drivers/STM32L4xx_HAL_Driver/Src/stm32l4xx_hal_spi.c ****   hspi->TxXferCount = Size;
 455              		.loc 1 854 21
 456 0072 FB68     		ldr	r3, [r7, #12]
 457 0074 FA88     		ldrh	r2, [r7, #6]	@ movhi
 458 0076 DA87     		strh	r2, [r3, #62]	@ movhi
 855:Drivers/STM32L4xx_HAL_Driver/Src/stm32l4xx_hal_spi.c **** 
 856:Drivers/STM32L4xx_HAL_Driver/Src/stm32l4xx_hal_spi.c ****   /*Init field not used in handle to zero */
 857:Drivers/STM32L4xx_HAL_Driver/Src/stm32l4xx_hal_spi.c ****   hspi->pRxBuffPtr  = (uint8_t *)NULL;
 459              		.loc 1 857 21
 460 0078 FB68     		ldr	r3, [r7, #12]
 461 007a 0022     		movs	r2, #0
 462 007c 1A64     		str	r2, [r3, #64]
 858:Drivers/STM32L4xx_HAL_Driver/Src/stm32l4xx_hal_spi.c ****   hspi->RxXferSize  = 0U;
ARM GAS  C:\Users\Morroway\AppData\Local\Temp\ccCQJjHM.s 			page 24


 463              		.loc 1 858 21
 464 007e FB68     		ldr	r3, [r7, #12]
 465 0080 0022     		movs	r2, #0
 466 0082 A3F84420 		strh	r2, [r3, #68]	@ movhi
 859:Drivers/STM32L4xx_HAL_Driver/Src/stm32l4xx_hal_spi.c ****   hspi->RxXferCount = 0U;
 467              		.loc 1 859 21
 468 0086 FB68     		ldr	r3, [r7, #12]
 469 0088 0022     		movs	r2, #0
 470 008a A3F84620 		strh	r2, [r3, #70]	@ movhi
 860:Drivers/STM32L4xx_HAL_Driver/Src/stm32l4xx_hal_spi.c ****   hspi->TxISR       = NULL;
 471              		.loc 1 860 21
 472 008e FB68     		ldr	r3, [r7, #12]
 473 0090 0022     		movs	r2, #0
 474 0092 1A65     		str	r2, [r3, #80]
 861:Drivers/STM32L4xx_HAL_Driver/Src/stm32l4xx_hal_spi.c ****   hspi->RxISR       = NULL;
 475              		.loc 1 861 21
 476 0094 FB68     		ldr	r3, [r7, #12]
 477 0096 0022     		movs	r2, #0
 478 0098 DA64     		str	r2, [r3, #76]
 862:Drivers/STM32L4xx_HAL_Driver/Src/stm32l4xx_hal_spi.c **** 
 863:Drivers/STM32L4xx_HAL_Driver/Src/stm32l4xx_hal_spi.c ****   /* Configure communication direction : 1Line */
 864:Drivers/STM32L4xx_HAL_Driver/Src/stm32l4xx_hal_spi.c ****   if (hspi->Init.Direction == SPI_DIRECTION_1LINE)
 479              		.loc 1 864 17
 480 009a FB68     		ldr	r3, [r7, #12]
 481 009c 9B68     		ldr	r3, [r3, #8]
 482              		.loc 1 864 6
 483 009e B3F5004F 		cmp	r3, #32768
 484 00a2 0FD1     		bne	.L22
 865:Drivers/STM32L4xx_HAL_Driver/Src/stm32l4xx_hal_spi.c ****   {
 866:Drivers/STM32L4xx_HAL_Driver/Src/stm32l4xx_hal_spi.c ****     /* Disable SPI Peripheral before set 1Line direction (BIDIOE bit) */
 867:Drivers/STM32L4xx_HAL_Driver/Src/stm32l4xx_hal_spi.c ****     __HAL_SPI_DISABLE(hspi);
 485              		.loc 1 867 5
 486 00a4 FB68     		ldr	r3, [r7, #12]
 487 00a6 1B68     		ldr	r3, [r3]
 488 00a8 1A68     		ldr	r2, [r3]
 489 00aa FB68     		ldr	r3, [r7, #12]
 490 00ac 1B68     		ldr	r3, [r3]
 491 00ae 22F04002 		bic	r2, r2, #64
 492 00b2 1A60     		str	r2, [r3]
 868:Drivers/STM32L4xx_HAL_Driver/Src/stm32l4xx_hal_spi.c ****     SPI_1LINE_TX(hspi);
 493              		.loc 1 868 5
 494 00b4 FB68     		ldr	r3, [r7, #12]
 495 00b6 1B68     		ldr	r3, [r3]
 496 00b8 1A68     		ldr	r2, [r3]
 497 00ba FB68     		ldr	r3, [r7, #12]
 498 00bc 1B68     		ldr	r3, [r3]
 499 00be 42F48042 		orr	r2, r2, #16384
 500 00c2 1A60     		str	r2, [r3]
 501              	.L22:
 869:Drivers/STM32L4xx_HAL_Driver/Src/stm32l4xx_hal_spi.c ****   }
 870:Drivers/STM32L4xx_HAL_Driver/Src/stm32l4xx_hal_spi.c **** 
 871:Drivers/STM32L4xx_HAL_Driver/Src/stm32l4xx_hal_spi.c **** #if (USE_SPI_CRC != 0U)
 872:Drivers/STM32L4xx_HAL_Driver/Src/stm32l4xx_hal_spi.c ****   /* Reset CRC Calculation */
 873:Drivers/STM32L4xx_HAL_Driver/Src/stm32l4xx_hal_spi.c ****   if (hspi->Init.CRCCalculation == SPI_CRCCALCULATION_ENABLE)
 874:Drivers/STM32L4xx_HAL_Driver/Src/stm32l4xx_hal_spi.c ****   {
 875:Drivers/STM32L4xx_HAL_Driver/Src/stm32l4xx_hal_spi.c ****     SPI_RESET_CRC(hspi);
 876:Drivers/STM32L4xx_HAL_Driver/Src/stm32l4xx_hal_spi.c ****   }
ARM GAS  C:\Users\Morroway\AppData\Local\Temp\ccCQJjHM.s 			page 25


 877:Drivers/STM32L4xx_HAL_Driver/Src/stm32l4xx_hal_spi.c **** #endif /* USE_SPI_CRC */
 878:Drivers/STM32L4xx_HAL_Driver/Src/stm32l4xx_hal_spi.c **** 
 879:Drivers/STM32L4xx_HAL_Driver/Src/stm32l4xx_hal_spi.c ****   /* Check if the SPI is already enabled */
 880:Drivers/STM32L4xx_HAL_Driver/Src/stm32l4xx_hal_spi.c ****   if ((hspi->Instance->CR1 & SPI_CR1_SPE) != SPI_CR1_SPE)
 502              		.loc 1 880 12
 503 00c4 FB68     		ldr	r3, [r7, #12]
 504 00c6 1B68     		ldr	r3, [r3]
 505              		.loc 1 880 22
 506 00c8 1B68     		ldr	r3, [r3]
 507              		.loc 1 880 28
 508 00ca 03F04003 		and	r3, r3, #64
 509              		.loc 1 880 6
 510 00ce 402B     		cmp	r3, #64
 511 00d0 07D0     		beq	.L23
 881:Drivers/STM32L4xx_HAL_Driver/Src/stm32l4xx_hal_spi.c ****   {
 882:Drivers/STM32L4xx_HAL_Driver/Src/stm32l4xx_hal_spi.c ****     /* Enable SPI peripheral */
 883:Drivers/STM32L4xx_HAL_Driver/Src/stm32l4xx_hal_spi.c ****     __HAL_SPI_ENABLE(hspi);
 512              		.loc 1 883 5
 513 00d2 FB68     		ldr	r3, [r7, #12]
 514 00d4 1B68     		ldr	r3, [r3]
 515 00d6 1A68     		ldr	r2, [r3]
 516 00d8 FB68     		ldr	r3, [r7, #12]
 517 00da 1B68     		ldr	r3, [r3]
 518 00dc 42F04002 		orr	r2, r2, #64
 519 00e0 1A60     		str	r2, [r3]
 520              	.L23:
 884:Drivers/STM32L4xx_HAL_Driver/Src/stm32l4xx_hal_spi.c ****   }
 885:Drivers/STM32L4xx_HAL_Driver/Src/stm32l4xx_hal_spi.c **** 
 886:Drivers/STM32L4xx_HAL_Driver/Src/stm32l4xx_hal_spi.c ****   /* Transmit data in 16 Bit mode */
 887:Drivers/STM32L4xx_HAL_Driver/Src/stm32l4xx_hal_spi.c ****   if (hspi->Init.DataSize > SPI_DATASIZE_8BIT)
 521              		.loc 1 887 17
 522 00e2 FB68     		ldr	r3, [r7, #12]
 523 00e4 DB68     		ldr	r3, [r3, #12]
 524              		.loc 1 887 6
 525 00e6 B3F5E06F 		cmp	r3, #1792
 526 00ea 4BD9     		bls	.L24
 888:Drivers/STM32L4xx_HAL_Driver/Src/stm32l4xx_hal_spi.c ****   {
 889:Drivers/STM32L4xx_HAL_Driver/Src/stm32l4xx_hal_spi.c ****     if ((hspi->Init.Mode == SPI_MODE_SLAVE) || (initial_TxXferCount == 0x01U))
 527              		.loc 1 889 20
 528 00ec FB68     		ldr	r3, [r7, #12]
 529 00ee 5B68     		ldr	r3, [r3, #4]
 530              		.loc 1 889 8
 531 00f0 002B     		cmp	r3, #0
 532 00f2 02D0     		beq	.L25
 533              		.loc 1 889 45 discriminator 1
 534 00f4 FB8A     		ldrh	r3, [r7, #22]
 535 00f6 012B     		cmp	r3, #1
 536 00f8 3ED1     		bne	.L27
 537              	.L25:
 890:Drivers/STM32L4xx_HAL_Driver/Src/stm32l4xx_hal_spi.c ****     {
 891:Drivers/STM32L4xx_HAL_Driver/Src/stm32l4xx_hal_spi.c ****       hspi->Instance->DR = *((uint16_t *)hspi->pTxBuffPtr);
 538              		.loc 1 891 46
 539 00fa FB68     		ldr	r3, [r7, #12]
 540 00fc 9B6B     		ldr	r3, [r3, #56]
 541              		.loc 1 891 28
 542 00fe 1A88     		ldrh	r2, [r3]
 543              		.loc 1 891 11
ARM GAS  C:\Users\Morroway\AppData\Local\Temp\ccCQJjHM.s 			page 26


 544 0100 FB68     		ldr	r3, [r7, #12]
 545 0102 1B68     		ldr	r3, [r3]
 546              		.loc 1 891 26
 547 0104 DA60     		str	r2, [r3, #12]
 892:Drivers/STM32L4xx_HAL_Driver/Src/stm32l4xx_hal_spi.c ****       hspi->pTxBuffPtr += sizeof(uint16_t);
 548              		.loc 1 892 24
 549 0106 FB68     		ldr	r3, [r7, #12]
 550 0108 9B6B     		ldr	r3, [r3, #56]
 551 010a 9A1C     		adds	r2, r3, #2
 552 010c FB68     		ldr	r3, [r7, #12]
 553 010e 9A63     		str	r2, [r3, #56]
 893:Drivers/STM32L4xx_HAL_Driver/Src/stm32l4xx_hal_spi.c ****       hspi->TxXferCount--;
 554              		.loc 1 893 11
 555 0110 FB68     		ldr	r3, [r7, #12]
 556 0112 DB8F     		ldrh	r3, [r3, #62]	@ movhi
 557 0114 9BB2     		uxth	r3, r3
 558              		.loc 1 893 24
 559 0116 013B     		subs	r3, r3, #1
 560 0118 9AB2     		uxth	r2, r3
 561 011a FB68     		ldr	r3, [r7, #12]
 562 011c DA87     		strh	r2, [r3, #62]	@ movhi
 894:Drivers/STM32L4xx_HAL_Driver/Src/stm32l4xx_hal_spi.c ****     }
 895:Drivers/STM32L4xx_HAL_Driver/Src/stm32l4xx_hal_spi.c ****     /* Transmit data in 16 Bit mode */
 896:Drivers/STM32L4xx_HAL_Driver/Src/stm32l4xx_hal_spi.c ****     while (hspi->TxXferCount > 0U)
 563              		.loc 1 896 11
 564 011e 2BE0     		b	.L27
 565              	.L31:
 897:Drivers/STM32L4xx_HAL_Driver/Src/stm32l4xx_hal_spi.c ****     {
 898:Drivers/STM32L4xx_HAL_Driver/Src/stm32l4xx_hal_spi.c ****       /* Wait until TXE flag is set to send data */
 899:Drivers/STM32L4xx_HAL_Driver/Src/stm32l4xx_hal_spi.c ****       if (__HAL_SPI_GET_FLAG(hspi, SPI_FLAG_TXE))
 566              		.loc 1 899 11
 567 0120 FB68     		ldr	r3, [r7, #12]
 568 0122 1B68     		ldr	r3, [r3]
 569 0124 9B68     		ldr	r3, [r3, #8]
 570 0126 03F00203 		and	r3, r3, #2
 571              		.loc 1 899 10
 572 012a 022B     		cmp	r3, #2
 573 012c 12D1     		bne	.L28
 900:Drivers/STM32L4xx_HAL_Driver/Src/stm32l4xx_hal_spi.c ****       {
 901:Drivers/STM32L4xx_HAL_Driver/Src/stm32l4xx_hal_spi.c ****         hspi->Instance->DR = *((uint16_t *)hspi->pTxBuffPtr);
 574              		.loc 1 901 48
 575 012e FB68     		ldr	r3, [r7, #12]
 576 0130 9B6B     		ldr	r3, [r3, #56]
 577              		.loc 1 901 30
 578 0132 1A88     		ldrh	r2, [r3]
 579              		.loc 1 901 13
 580 0134 FB68     		ldr	r3, [r7, #12]
 581 0136 1B68     		ldr	r3, [r3]
 582              		.loc 1 901 28
 583 0138 DA60     		str	r2, [r3, #12]
 902:Drivers/STM32L4xx_HAL_Driver/Src/stm32l4xx_hal_spi.c ****         hspi->pTxBuffPtr += sizeof(uint16_t);
 584              		.loc 1 902 26
 585 013a FB68     		ldr	r3, [r7, #12]
 586 013c 9B6B     		ldr	r3, [r3, #56]
 587 013e 9A1C     		adds	r2, r3, #2
 588 0140 FB68     		ldr	r3, [r7, #12]
 589 0142 9A63     		str	r2, [r3, #56]
ARM GAS  C:\Users\Morroway\AppData\Local\Temp\ccCQJjHM.s 			page 27


 903:Drivers/STM32L4xx_HAL_Driver/Src/stm32l4xx_hal_spi.c ****         hspi->TxXferCount--;
 590              		.loc 1 903 13
 591 0144 FB68     		ldr	r3, [r7, #12]
 592 0146 DB8F     		ldrh	r3, [r3, #62]	@ movhi
 593 0148 9BB2     		uxth	r3, r3
 594              		.loc 1 903 26
 595 014a 013B     		subs	r3, r3, #1
 596 014c 9AB2     		uxth	r2, r3
 597 014e FB68     		ldr	r3, [r7, #12]
 598 0150 DA87     		strh	r2, [r3, #62]	@ movhi
 599 0152 11E0     		b	.L27
 600              	.L28:
 904:Drivers/STM32L4xx_HAL_Driver/Src/stm32l4xx_hal_spi.c ****       }
 905:Drivers/STM32L4xx_HAL_Driver/Src/stm32l4xx_hal_spi.c ****       else
 906:Drivers/STM32L4xx_HAL_Driver/Src/stm32l4xx_hal_spi.c ****       {
 907:Drivers/STM32L4xx_HAL_Driver/Src/stm32l4xx_hal_spi.c ****         /* Timeout management */
 908:Drivers/STM32L4xx_HAL_Driver/Src/stm32l4xx_hal_spi.c ****         if ((((HAL_GetTick() - tickstart) >=  Timeout) && (Timeout != HAL_MAX_DELAY)) || (Timeout =
 601              		.loc 1 908 16
 602 0154 FFF7FEFF 		bl	HAL_GetTick
 603 0158 0246     		mov	r2, r0
 604              		.loc 1 908 30
 605 015a BB69     		ldr	r3, [r7, #24]
 606 015c D31A     		subs	r3, r2, r3
 607              		.loc 1 908 12
 608 015e 3A68     		ldr	r2, [r7]
 609 0160 9A42     		cmp	r2, r3
 610 0162 03D8     		bhi	.L29
 611              		.loc 1 908 56 discriminator 1
 612 0164 3B68     		ldr	r3, [r7]
 613 0166 B3F1FF3F 		cmp	r3, #-1
 614 016a 02D1     		bne	.L30
 615              	.L29:
 616              		.loc 1 908 87 discriminator 3
 617 016c 3B68     		ldr	r3, [r7]
 618 016e 002B     		cmp	r3, #0
 619 0170 02D1     		bne	.L27
 620              	.L30:
 909:Drivers/STM32L4xx_HAL_Driver/Src/stm32l4xx_hal_spi.c ****         {
 910:Drivers/STM32L4xx_HAL_Driver/Src/stm32l4xx_hal_spi.c ****           errorcode = HAL_TIMEOUT;
 621              		.loc 1 910 21
 622 0172 0323     		movs	r3, #3
 623 0174 FB77     		strb	r3, [r7, #31]
 911:Drivers/STM32L4xx_HAL_Driver/Src/stm32l4xx_hal_spi.c ****           goto error;
 624              		.loc 1 911 11
 625 0176 A4E0     		b	.L19
 626              	.L27:
 896:Drivers/STM32L4xx_HAL_Driver/Src/stm32l4xx_hal_spi.c ****     {
 627              		.loc 1 896 16
 628 0178 FB68     		ldr	r3, [r7, #12]
 629 017a DB8F     		ldrh	r3, [r3, #62]	@ movhi
 630 017c 9BB2     		uxth	r3, r3
 896:Drivers/STM32L4xx_HAL_Driver/Src/stm32l4xx_hal_spi.c ****     {
 631              		.loc 1 896 30
 632 017e 002B     		cmp	r3, #0
 633 0180 CED1     		bne	.L31
 634 0182 7CE0     		b	.L32
 635              	.L24:
ARM GAS  C:\Users\Morroway\AppData\Local\Temp\ccCQJjHM.s 			page 28


 912:Drivers/STM32L4xx_HAL_Driver/Src/stm32l4xx_hal_spi.c ****         }
 913:Drivers/STM32L4xx_HAL_Driver/Src/stm32l4xx_hal_spi.c ****       }
 914:Drivers/STM32L4xx_HAL_Driver/Src/stm32l4xx_hal_spi.c ****     }
 915:Drivers/STM32L4xx_HAL_Driver/Src/stm32l4xx_hal_spi.c ****   }
 916:Drivers/STM32L4xx_HAL_Driver/Src/stm32l4xx_hal_spi.c ****   /* Transmit data in 8 Bit mode */
 917:Drivers/STM32L4xx_HAL_Driver/Src/stm32l4xx_hal_spi.c ****   else
 918:Drivers/STM32L4xx_HAL_Driver/Src/stm32l4xx_hal_spi.c ****   {
 919:Drivers/STM32L4xx_HAL_Driver/Src/stm32l4xx_hal_spi.c ****     if ((hspi->Init.Mode == SPI_MODE_SLAVE) || (initial_TxXferCount == 0x01U))
 636              		.loc 1 919 20
 637 0184 FB68     		ldr	r3, [r7, #12]
 638 0186 5B68     		ldr	r3, [r3, #4]
 639              		.loc 1 919 8
 640 0188 002B     		cmp	r3, #0
 641 018a 02D0     		beq	.L33
 642              		.loc 1 919 45 discriminator 1
 643 018c FB8A     		ldrh	r3, [r7, #22]
 644 018e 012B     		cmp	r3, #1
 645 0190 70D1     		bne	.L36
 646              	.L33:
 920:Drivers/STM32L4xx_HAL_Driver/Src/stm32l4xx_hal_spi.c ****     {
 921:Drivers/STM32L4xx_HAL_Driver/Src/stm32l4xx_hal_spi.c ****       if (hspi->TxXferCount > 1U)
 647              		.loc 1 921 15
 648 0192 FB68     		ldr	r3, [r7, #12]
 649 0194 DB8F     		ldrh	r3, [r3, #62]	@ movhi
 650 0196 9BB2     		uxth	r3, r3
 651              		.loc 1 921 10
 652 0198 012B     		cmp	r3, #1
 653 019a 12D9     		bls	.L35
 922:Drivers/STM32L4xx_HAL_Driver/Src/stm32l4xx_hal_spi.c ****       {
 923:Drivers/STM32L4xx_HAL_Driver/Src/stm32l4xx_hal_spi.c ****         /* write on the data register in packing mode */
 924:Drivers/STM32L4xx_HAL_Driver/Src/stm32l4xx_hal_spi.c ****         hspi->Instance->DR = *((uint16_t *)hspi->pTxBuffPtr);
 654              		.loc 1 924 48
 655 019c FB68     		ldr	r3, [r7, #12]
 656 019e 9B6B     		ldr	r3, [r3, #56]
 657              		.loc 1 924 30
 658 01a0 1A88     		ldrh	r2, [r3]
 659              		.loc 1 924 13
 660 01a2 FB68     		ldr	r3, [r7, #12]
 661 01a4 1B68     		ldr	r3, [r3]
 662              		.loc 1 924 28
 663 01a6 DA60     		str	r2, [r3, #12]
 925:Drivers/STM32L4xx_HAL_Driver/Src/stm32l4xx_hal_spi.c ****         hspi->pTxBuffPtr += sizeof(uint16_t);
 664              		.loc 1 925 26
 665 01a8 FB68     		ldr	r3, [r7, #12]
 666 01aa 9B6B     		ldr	r3, [r3, #56]
 667 01ac 9A1C     		adds	r2, r3, #2
 668 01ae FB68     		ldr	r3, [r7, #12]
 669 01b0 9A63     		str	r2, [r3, #56]
 926:Drivers/STM32L4xx_HAL_Driver/Src/stm32l4xx_hal_spi.c ****         hspi->TxXferCount -= 2U;
 670              		.loc 1 926 27
 671 01b2 FB68     		ldr	r3, [r7, #12]
 672 01b4 DB8F     		ldrh	r3, [r3, #62]	@ movhi
 673 01b6 9BB2     		uxth	r3, r3
 674 01b8 023B     		subs	r3, r3, #2
 675 01ba 9AB2     		uxth	r2, r3
 676 01bc FB68     		ldr	r3, [r7, #12]
 677 01be DA87     		strh	r2, [r3, #62]	@ movhi
ARM GAS  C:\Users\Morroway\AppData\Local\Temp\ccCQJjHM.s 			page 29


 678 01c0 58E0     		b	.L36
 679              	.L35:
 927:Drivers/STM32L4xx_HAL_Driver/Src/stm32l4xx_hal_spi.c ****       }
 928:Drivers/STM32L4xx_HAL_Driver/Src/stm32l4xx_hal_spi.c ****       else
 929:Drivers/STM32L4xx_HAL_Driver/Src/stm32l4xx_hal_spi.c ****       {
 930:Drivers/STM32L4xx_HAL_Driver/Src/stm32l4xx_hal_spi.c ****         *((__IO uint8_t *)&hspi->Instance->DR) = (*hspi->pTxBuffPtr);
 680              		.loc 1 930 56
 681 01c2 FB68     		ldr	r3, [r7, #12]
 682 01c4 9A6B     		ldr	r2, [r3, #56]
 683              		.loc 1 930 32
 684 01c6 FB68     		ldr	r3, [r7, #12]
 685 01c8 1B68     		ldr	r3, [r3]
 686              		.loc 1 930 27
 687 01ca 0C33     		adds	r3, r3, #12
 688              		.loc 1 930 51
 689 01cc 1278     		ldrb	r2, [r2]	@ zero_extendqisi2
 690              		.loc 1 930 48
 691 01ce 1A70     		strb	r2, [r3]
 931:Drivers/STM32L4xx_HAL_Driver/Src/stm32l4xx_hal_spi.c ****         hspi->pTxBuffPtr ++;
 692              		.loc 1 931 13
 693 01d0 FB68     		ldr	r3, [r7, #12]
 694 01d2 9B6B     		ldr	r3, [r3, #56]
 695              		.loc 1 931 26
 696 01d4 5A1C     		adds	r2, r3, #1
 697 01d6 FB68     		ldr	r3, [r7, #12]
 698 01d8 9A63     		str	r2, [r3, #56]
 932:Drivers/STM32L4xx_HAL_Driver/Src/stm32l4xx_hal_spi.c ****         hspi->TxXferCount--;
 699              		.loc 1 932 13
 700 01da FB68     		ldr	r3, [r7, #12]
 701 01dc DB8F     		ldrh	r3, [r3, #62]	@ movhi
 702 01de 9BB2     		uxth	r3, r3
 703              		.loc 1 932 26
 704 01e0 013B     		subs	r3, r3, #1
 705 01e2 9AB2     		uxth	r2, r3
 706 01e4 FB68     		ldr	r3, [r7, #12]
 707 01e6 DA87     		strh	r2, [r3, #62]	@ movhi
 933:Drivers/STM32L4xx_HAL_Driver/Src/stm32l4xx_hal_spi.c ****       }
 934:Drivers/STM32L4xx_HAL_Driver/Src/stm32l4xx_hal_spi.c ****     }
 935:Drivers/STM32L4xx_HAL_Driver/Src/stm32l4xx_hal_spi.c ****     while (hspi->TxXferCount > 0U)
 708              		.loc 1 935 11
 709 01e8 44E0     		b	.L36
 710              	.L41:
 936:Drivers/STM32L4xx_HAL_Driver/Src/stm32l4xx_hal_spi.c ****     {
 937:Drivers/STM32L4xx_HAL_Driver/Src/stm32l4xx_hal_spi.c ****       /* Wait until TXE flag is set to send data */
 938:Drivers/STM32L4xx_HAL_Driver/Src/stm32l4xx_hal_spi.c ****       if (__HAL_SPI_GET_FLAG(hspi, SPI_FLAG_TXE))
 711              		.loc 1 938 11
 712 01ea FB68     		ldr	r3, [r7, #12]
 713 01ec 1B68     		ldr	r3, [r3]
 714 01ee 9B68     		ldr	r3, [r3, #8]
 715 01f0 03F00203 		and	r3, r3, #2
 716              		.loc 1 938 10
 717 01f4 022B     		cmp	r3, #2
 718 01f6 2BD1     		bne	.L37
 939:Drivers/STM32L4xx_HAL_Driver/Src/stm32l4xx_hal_spi.c ****       {
 940:Drivers/STM32L4xx_HAL_Driver/Src/stm32l4xx_hal_spi.c ****         if (hspi->TxXferCount > 1U)
 719              		.loc 1 940 17
 720 01f8 FB68     		ldr	r3, [r7, #12]
ARM GAS  C:\Users\Morroway\AppData\Local\Temp\ccCQJjHM.s 			page 30


 721 01fa DB8F     		ldrh	r3, [r3, #62]	@ movhi
 722 01fc 9BB2     		uxth	r3, r3
 723              		.loc 1 940 12
 724 01fe 012B     		cmp	r3, #1
 725 0200 12D9     		bls	.L38
 941:Drivers/STM32L4xx_HAL_Driver/Src/stm32l4xx_hal_spi.c ****         {
 942:Drivers/STM32L4xx_HAL_Driver/Src/stm32l4xx_hal_spi.c ****           /* write on the data register in packing mode */
 943:Drivers/STM32L4xx_HAL_Driver/Src/stm32l4xx_hal_spi.c ****           hspi->Instance->DR = *((uint16_t *)hspi->pTxBuffPtr);
 726              		.loc 1 943 50
 727 0202 FB68     		ldr	r3, [r7, #12]
 728 0204 9B6B     		ldr	r3, [r3, #56]
 729              		.loc 1 943 32
 730 0206 1A88     		ldrh	r2, [r3]
 731              		.loc 1 943 15
 732 0208 FB68     		ldr	r3, [r7, #12]
 733 020a 1B68     		ldr	r3, [r3]
 734              		.loc 1 943 30
 735 020c DA60     		str	r2, [r3, #12]
 944:Drivers/STM32L4xx_HAL_Driver/Src/stm32l4xx_hal_spi.c ****           hspi->pTxBuffPtr += sizeof(uint16_t);
 736              		.loc 1 944 28
 737 020e FB68     		ldr	r3, [r7, #12]
 738 0210 9B6B     		ldr	r3, [r3, #56]
 739 0212 9A1C     		adds	r2, r3, #2
 740 0214 FB68     		ldr	r3, [r7, #12]
 741 0216 9A63     		str	r2, [r3, #56]
 945:Drivers/STM32L4xx_HAL_Driver/Src/stm32l4xx_hal_spi.c ****           hspi->TxXferCount -= 2U;
 742              		.loc 1 945 29
 743 0218 FB68     		ldr	r3, [r7, #12]
 744 021a DB8F     		ldrh	r3, [r3, #62]	@ movhi
 745 021c 9BB2     		uxth	r3, r3
 746 021e 023B     		subs	r3, r3, #2
 747 0220 9AB2     		uxth	r2, r3
 748 0222 FB68     		ldr	r3, [r7, #12]
 749 0224 DA87     		strh	r2, [r3, #62]	@ movhi
 750 0226 25E0     		b	.L36
 751              	.L38:
 946:Drivers/STM32L4xx_HAL_Driver/Src/stm32l4xx_hal_spi.c ****         }
 947:Drivers/STM32L4xx_HAL_Driver/Src/stm32l4xx_hal_spi.c ****         else
 948:Drivers/STM32L4xx_HAL_Driver/Src/stm32l4xx_hal_spi.c ****         {
 949:Drivers/STM32L4xx_HAL_Driver/Src/stm32l4xx_hal_spi.c ****           *((__IO uint8_t *)&hspi->Instance->DR) = (*hspi->pTxBuffPtr);
 752              		.loc 1 949 58
 753 0228 FB68     		ldr	r3, [r7, #12]
 754 022a 9A6B     		ldr	r2, [r3, #56]
 755              		.loc 1 949 34
 756 022c FB68     		ldr	r3, [r7, #12]
 757 022e 1B68     		ldr	r3, [r3]
 758              		.loc 1 949 29
 759 0230 0C33     		adds	r3, r3, #12
 760              		.loc 1 949 53
 761 0232 1278     		ldrb	r2, [r2]	@ zero_extendqisi2
 762              		.loc 1 949 50
 763 0234 1A70     		strb	r2, [r3]
 950:Drivers/STM32L4xx_HAL_Driver/Src/stm32l4xx_hal_spi.c ****           hspi->pTxBuffPtr++;
 764              		.loc 1 950 15
 765 0236 FB68     		ldr	r3, [r7, #12]
 766 0238 9B6B     		ldr	r3, [r3, #56]
 767              		.loc 1 950 27
ARM GAS  C:\Users\Morroway\AppData\Local\Temp\ccCQJjHM.s 			page 31


 768 023a 5A1C     		adds	r2, r3, #1
 769 023c FB68     		ldr	r3, [r7, #12]
 770 023e 9A63     		str	r2, [r3, #56]
 951:Drivers/STM32L4xx_HAL_Driver/Src/stm32l4xx_hal_spi.c ****           hspi->TxXferCount--;
 771              		.loc 1 951 15
 772 0240 FB68     		ldr	r3, [r7, #12]
 773 0242 DB8F     		ldrh	r3, [r3, #62]	@ movhi
 774 0244 9BB2     		uxth	r3, r3
 775              		.loc 1 951 28
 776 0246 013B     		subs	r3, r3, #1
 777 0248 9AB2     		uxth	r2, r3
 778 024a FB68     		ldr	r3, [r7, #12]
 779 024c DA87     		strh	r2, [r3, #62]	@ movhi
 780 024e 11E0     		b	.L36
 781              	.L37:
 952:Drivers/STM32L4xx_HAL_Driver/Src/stm32l4xx_hal_spi.c ****         }
 953:Drivers/STM32L4xx_HAL_Driver/Src/stm32l4xx_hal_spi.c ****       }
 954:Drivers/STM32L4xx_HAL_Driver/Src/stm32l4xx_hal_spi.c ****       else
 955:Drivers/STM32L4xx_HAL_Driver/Src/stm32l4xx_hal_spi.c ****       {
 956:Drivers/STM32L4xx_HAL_Driver/Src/stm32l4xx_hal_spi.c ****         /* Timeout management */
 957:Drivers/STM32L4xx_HAL_Driver/Src/stm32l4xx_hal_spi.c ****         if ((((HAL_GetTick() - tickstart) >=  Timeout) && (Timeout != HAL_MAX_DELAY)) || (Timeout =
 782              		.loc 1 957 16
 783 0250 FFF7FEFF 		bl	HAL_GetTick
 784 0254 0246     		mov	r2, r0
 785              		.loc 1 957 30
 786 0256 BB69     		ldr	r3, [r7, #24]
 787 0258 D31A     		subs	r3, r2, r3
 788              		.loc 1 957 12
 789 025a 3A68     		ldr	r2, [r7]
 790 025c 9A42     		cmp	r2, r3
 791 025e 03D8     		bhi	.L39
 792              		.loc 1 957 56 discriminator 1
 793 0260 3B68     		ldr	r3, [r7]
 794 0262 B3F1FF3F 		cmp	r3, #-1
 795 0266 02D1     		bne	.L40
 796              	.L39:
 797              		.loc 1 957 87 discriminator 3
 798 0268 3B68     		ldr	r3, [r7]
 799 026a 002B     		cmp	r3, #0
 800 026c 02D1     		bne	.L36
 801              	.L40:
 958:Drivers/STM32L4xx_HAL_Driver/Src/stm32l4xx_hal_spi.c ****         {
 959:Drivers/STM32L4xx_HAL_Driver/Src/stm32l4xx_hal_spi.c ****           errorcode = HAL_TIMEOUT;
 802              		.loc 1 959 21
 803 026e 0323     		movs	r3, #3
 804 0270 FB77     		strb	r3, [r7, #31]
 960:Drivers/STM32L4xx_HAL_Driver/Src/stm32l4xx_hal_spi.c ****           goto error;
 805              		.loc 1 960 11
 806 0272 26E0     		b	.L19
 807              	.L36:
 935:Drivers/STM32L4xx_HAL_Driver/Src/stm32l4xx_hal_spi.c ****     {
 808              		.loc 1 935 16
 809 0274 FB68     		ldr	r3, [r7, #12]
 810 0276 DB8F     		ldrh	r3, [r3, #62]	@ movhi
 811 0278 9BB2     		uxth	r3, r3
 935:Drivers/STM32L4xx_HAL_Driver/Src/stm32l4xx_hal_spi.c ****     {
 812              		.loc 1 935 30
ARM GAS  C:\Users\Morroway\AppData\Local\Temp\ccCQJjHM.s 			page 32


 813 027a 002B     		cmp	r3, #0
 814 027c B5D1     		bne	.L41
 815              	.L32:
 961:Drivers/STM32L4xx_HAL_Driver/Src/stm32l4xx_hal_spi.c ****         }
 962:Drivers/STM32L4xx_HAL_Driver/Src/stm32l4xx_hal_spi.c ****       }
 963:Drivers/STM32L4xx_HAL_Driver/Src/stm32l4xx_hal_spi.c ****     }
 964:Drivers/STM32L4xx_HAL_Driver/Src/stm32l4xx_hal_spi.c ****   }
 965:Drivers/STM32L4xx_HAL_Driver/Src/stm32l4xx_hal_spi.c **** #if (USE_SPI_CRC != 0U)
 966:Drivers/STM32L4xx_HAL_Driver/Src/stm32l4xx_hal_spi.c ****   /* Enable CRC Transmission */
 967:Drivers/STM32L4xx_HAL_Driver/Src/stm32l4xx_hal_spi.c ****   if (hspi->Init.CRCCalculation == SPI_CRCCALCULATION_ENABLE)
 968:Drivers/STM32L4xx_HAL_Driver/Src/stm32l4xx_hal_spi.c ****   {
 969:Drivers/STM32L4xx_HAL_Driver/Src/stm32l4xx_hal_spi.c ****     SET_BIT(hspi->Instance->CR1, SPI_CR1_CRCNEXT);
 970:Drivers/STM32L4xx_HAL_Driver/Src/stm32l4xx_hal_spi.c ****   }
 971:Drivers/STM32L4xx_HAL_Driver/Src/stm32l4xx_hal_spi.c **** #endif /* USE_SPI_CRC */
 972:Drivers/STM32L4xx_HAL_Driver/Src/stm32l4xx_hal_spi.c **** 
 973:Drivers/STM32L4xx_HAL_Driver/Src/stm32l4xx_hal_spi.c ****   /* Check the end of the transaction */
 974:Drivers/STM32L4xx_HAL_Driver/Src/stm32l4xx_hal_spi.c ****   if (SPI_EndRxTxTransaction(hspi, Timeout, tickstart) != HAL_OK)
 816              		.loc 1 974 7
 817 027e BA69     		ldr	r2, [r7, #24]
 818 0280 3968     		ldr	r1, [r7]
 819 0282 F868     		ldr	r0, [r7, #12]
 820 0284 FFF7FEFF 		bl	SPI_EndRxTxTransaction
 821 0288 0346     		mov	r3, r0
 822              		.loc 1 974 6
 823 028a 002B     		cmp	r3, #0
 824 028c 02D0     		beq	.L42
 975:Drivers/STM32L4xx_HAL_Driver/Src/stm32l4xx_hal_spi.c ****   {
 976:Drivers/STM32L4xx_HAL_Driver/Src/stm32l4xx_hal_spi.c ****     hspi->ErrorCode = HAL_SPI_ERROR_FLAG;
 825              		.loc 1 976 21
 826 028e FB68     		ldr	r3, [r7, #12]
 827 0290 2022     		movs	r2, #32
 828 0292 1A66     		str	r2, [r3, #96]
 829              	.L42:
 977:Drivers/STM32L4xx_HAL_Driver/Src/stm32l4xx_hal_spi.c ****   }
 978:Drivers/STM32L4xx_HAL_Driver/Src/stm32l4xx_hal_spi.c **** 
 979:Drivers/STM32L4xx_HAL_Driver/Src/stm32l4xx_hal_spi.c ****   /* Clear overrun flag in 2 Lines communication mode because received is not read */
 980:Drivers/STM32L4xx_HAL_Driver/Src/stm32l4xx_hal_spi.c ****   if (hspi->Init.Direction == SPI_DIRECTION_2LINES)
 830              		.loc 1 980 17
 831 0294 FB68     		ldr	r3, [r7, #12]
 832 0296 9B68     		ldr	r3, [r3, #8]
 833              		.loc 1 980 6
 834 0298 002B     		cmp	r3, #0
 835 029a 0AD1     		bne	.L43
 836              	.LBB2:
 981:Drivers/STM32L4xx_HAL_Driver/Src/stm32l4xx_hal_spi.c ****   {
 982:Drivers/STM32L4xx_HAL_Driver/Src/stm32l4xx_hal_spi.c ****     __HAL_SPI_CLEAR_OVRFLAG(hspi);
 837              		.loc 1 982 5
 838 029c 0023     		movs	r3, #0
 839 029e 3B61     		str	r3, [r7, #16]
 840 02a0 FB68     		ldr	r3, [r7, #12]
 841 02a2 1B68     		ldr	r3, [r3]
 842 02a4 DB68     		ldr	r3, [r3, #12]
 843 02a6 3B61     		str	r3, [r7, #16]
 844 02a8 FB68     		ldr	r3, [r7, #12]
 845 02aa 1B68     		ldr	r3, [r3]
 846 02ac 9B68     		ldr	r3, [r3, #8]
 847 02ae 3B61     		str	r3, [r7, #16]
ARM GAS  C:\Users\Morroway\AppData\Local\Temp\ccCQJjHM.s 			page 33


 848 02b0 3B69     		ldr	r3, [r7, #16]
 849              	.L43:
 850              	.LBE2:
 983:Drivers/STM32L4xx_HAL_Driver/Src/stm32l4xx_hal_spi.c ****   }
 984:Drivers/STM32L4xx_HAL_Driver/Src/stm32l4xx_hal_spi.c **** 
 985:Drivers/STM32L4xx_HAL_Driver/Src/stm32l4xx_hal_spi.c ****   if (hspi->ErrorCode != HAL_SPI_ERROR_NONE)
 851              		.loc 1 985 11
 852 02b2 FB68     		ldr	r3, [r7, #12]
 853 02b4 1B6E     		ldr	r3, [r3, #96]
 854              		.loc 1 985 6
 855 02b6 002B     		cmp	r3, #0
 856 02b8 02D0     		beq	.L44
 986:Drivers/STM32L4xx_HAL_Driver/Src/stm32l4xx_hal_spi.c ****   {
 987:Drivers/STM32L4xx_HAL_Driver/Src/stm32l4xx_hal_spi.c ****     errorcode = HAL_ERROR;
 857              		.loc 1 987 15
 858 02ba 0123     		movs	r3, #1
 859 02bc FB77     		strb	r3, [r7, #31]
 860 02be 00E0     		b	.L19
 861              	.L44:
 988:Drivers/STM32L4xx_HAL_Driver/Src/stm32l4xx_hal_spi.c ****   }
 989:Drivers/STM32L4xx_HAL_Driver/Src/stm32l4xx_hal_spi.c **** 
 990:Drivers/STM32L4xx_HAL_Driver/Src/stm32l4xx_hal_spi.c **** error:
 862              		.loc 1 990 1
 863 02c0 00BF     		nop
 864              	.L19:
 991:Drivers/STM32L4xx_HAL_Driver/Src/stm32l4xx_hal_spi.c ****   hspi->State = HAL_SPI_STATE_READY;
 865              		.loc 1 991 15
 866 02c2 FB68     		ldr	r3, [r7, #12]
 867 02c4 0122     		movs	r2, #1
 868 02c6 83F85D20 		strb	r2, [r3, #93]
 992:Drivers/STM32L4xx_HAL_Driver/Src/stm32l4xx_hal_spi.c ****   /* Process Unlocked */
 993:Drivers/STM32L4xx_HAL_Driver/Src/stm32l4xx_hal_spi.c ****   __HAL_UNLOCK(hspi);
 869              		.loc 1 993 3
 870 02ca FB68     		ldr	r3, [r7, #12]
 871 02cc 0022     		movs	r2, #0
 872 02ce 83F85C20 		strb	r2, [r3, #92]
 994:Drivers/STM32L4xx_HAL_Driver/Src/stm32l4xx_hal_spi.c ****   return errorcode;
 873              		.loc 1 994 10
 874 02d2 FB7F     		ldrb	r3, [r7, #31]	@ zero_extendqisi2
 875              	.L17:
 995:Drivers/STM32L4xx_HAL_Driver/Src/stm32l4xx_hal_spi.c **** }
 876              		.loc 1 995 1
 877 02d4 1846     		mov	r0, r3
 878 02d6 2037     		adds	r7, r7, #32
 879              		.cfi_def_cfa_offset 8
 880 02d8 BD46     		mov	sp, r7
 881              		.cfi_def_cfa_register 13
 882              		@ sp needed
 883 02da 80BD     		pop	{r7, pc}
 884              		.cfi_endproc
 885              	.LFE325:
 887              		.section	.text.HAL_SPI_Receive,"ax",%progbits
 888              		.align	1
 889              		.global	HAL_SPI_Receive
 890              		.syntax unified
 891              		.thumb
 892              		.thumb_func
ARM GAS  C:\Users\Morroway\AppData\Local\Temp\ccCQJjHM.s 			page 34


 894              	HAL_SPI_Receive:
 895              	.LFB326:
 996:Drivers/STM32L4xx_HAL_Driver/Src/stm32l4xx_hal_spi.c **** 
 997:Drivers/STM32L4xx_HAL_Driver/Src/stm32l4xx_hal_spi.c **** /**
 998:Drivers/STM32L4xx_HAL_Driver/Src/stm32l4xx_hal_spi.c ****   * @brief  Receive an amount of data in blocking mode.
 999:Drivers/STM32L4xx_HAL_Driver/Src/stm32l4xx_hal_spi.c ****   * @param  hspi pointer to a SPI_HandleTypeDef structure that contains
1000:Drivers/STM32L4xx_HAL_Driver/Src/stm32l4xx_hal_spi.c ****   *               the configuration information for SPI module.
1001:Drivers/STM32L4xx_HAL_Driver/Src/stm32l4xx_hal_spi.c ****   * @param  pData pointer to data buffer
1002:Drivers/STM32L4xx_HAL_Driver/Src/stm32l4xx_hal_spi.c ****   * @param  Size amount of data to be received
1003:Drivers/STM32L4xx_HAL_Driver/Src/stm32l4xx_hal_spi.c ****   * @param  Timeout Timeout duration
1004:Drivers/STM32L4xx_HAL_Driver/Src/stm32l4xx_hal_spi.c ****   * @retval HAL status
1005:Drivers/STM32L4xx_HAL_Driver/Src/stm32l4xx_hal_spi.c ****   */
1006:Drivers/STM32L4xx_HAL_Driver/Src/stm32l4xx_hal_spi.c **** HAL_StatusTypeDef HAL_SPI_Receive(SPI_HandleTypeDef *hspi, uint8_t *pData, uint16_t Size, uint32_t 
1007:Drivers/STM32L4xx_HAL_Driver/Src/stm32l4xx_hal_spi.c **** {
 896              		.loc 1 1007 1
 897              		.cfi_startproc
 898              		@ args = 0, pretend = 0, frame = 24
 899              		@ frame_needed = 1, uses_anonymous_args = 0
 900 0000 80B5     		push	{r7, lr}
 901              		.cfi_def_cfa_offset 8
 902              		.cfi_offset 7, -8
 903              		.cfi_offset 14, -4
 904 0002 88B0     		sub	sp, sp, #32
 905              		.cfi_def_cfa_offset 40
 906 0004 02AF     		add	r7, sp, #8
 907              		.cfi_def_cfa 7, 32
 908 0006 F860     		str	r0, [r7, #12]
 909 0008 B960     		str	r1, [r7, #8]
 910 000a 3B60     		str	r3, [r7]
 911 000c 1346     		mov	r3, r2	@ movhi
 912 000e FB80     		strh	r3, [r7, #6]	@ movhi
1008:Drivers/STM32L4xx_HAL_Driver/Src/stm32l4xx_hal_spi.c **** #if (USE_SPI_CRC != 0U)
1009:Drivers/STM32L4xx_HAL_Driver/Src/stm32l4xx_hal_spi.c ****   __IO uint32_t tmpreg = 0U;
1010:Drivers/STM32L4xx_HAL_Driver/Src/stm32l4xx_hal_spi.c ****   __IO uint8_t  *ptmpreg8;
1011:Drivers/STM32L4xx_HAL_Driver/Src/stm32l4xx_hal_spi.c ****   __IO uint8_t  tmpreg8 = 0;
1012:Drivers/STM32L4xx_HAL_Driver/Src/stm32l4xx_hal_spi.c **** #endif /* USE_SPI_CRC */
1013:Drivers/STM32L4xx_HAL_Driver/Src/stm32l4xx_hal_spi.c ****   uint32_t tickstart;
1014:Drivers/STM32L4xx_HAL_Driver/Src/stm32l4xx_hal_spi.c ****   HAL_StatusTypeDef errorcode = HAL_OK;
 913              		.loc 1 1014 21
 914 0010 0023     		movs	r3, #0
 915 0012 FB75     		strb	r3, [r7, #23]
1015:Drivers/STM32L4xx_HAL_Driver/Src/stm32l4xx_hal_spi.c **** 
1016:Drivers/STM32L4xx_HAL_Driver/Src/stm32l4xx_hal_spi.c ****   if ((hspi->Init.Mode == SPI_MODE_MASTER) && (hspi->Init.Direction == SPI_DIRECTION_2LINES))
 916              		.loc 1 1016 18
 917 0014 FB68     		ldr	r3, [r7, #12]
 918 0016 5B68     		ldr	r3, [r3, #4]
 919              		.loc 1 1016 6
 920 0018 B3F5827F 		cmp	r3, #260
 921 001c 12D1     		bne	.L46
 922              		.loc 1 1016 58 discriminator 1
 923 001e FB68     		ldr	r3, [r7, #12]
 924 0020 9B68     		ldr	r3, [r3, #8]
 925              		.loc 1 1016 44 discriminator 1
 926 0022 002B     		cmp	r3, #0
 927 0024 0ED1     		bne	.L46
1017:Drivers/STM32L4xx_HAL_Driver/Src/stm32l4xx_hal_spi.c ****   {
1018:Drivers/STM32L4xx_HAL_Driver/Src/stm32l4xx_hal_spi.c ****     hspi->State = HAL_SPI_STATE_BUSY_RX;
ARM GAS  C:\Users\Morroway\AppData\Local\Temp\ccCQJjHM.s 			page 35


 928              		.loc 1 1018 17
 929 0026 FB68     		ldr	r3, [r7, #12]
 930 0028 0422     		movs	r2, #4
 931 002a 83F85D20 		strb	r2, [r3, #93]
1019:Drivers/STM32L4xx_HAL_Driver/Src/stm32l4xx_hal_spi.c ****     /* Call transmit-receive function to send Dummy data on Tx line and generate clock on CLK line 
1020:Drivers/STM32L4xx_HAL_Driver/Src/stm32l4xx_hal_spi.c ****     return HAL_SPI_TransmitReceive(hspi, pData, pData, Size, Timeout);
 932              		.loc 1 1020 12
 933 002e FA88     		ldrh	r2, [r7, #6]
 934 0030 3B68     		ldr	r3, [r7]
 935 0032 0093     		str	r3, [sp]
 936 0034 1346     		mov	r3, r2
 937 0036 BA68     		ldr	r2, [r7, #8]
 938 0038 B968     		ldr	r1, [r7, #8]
 939 003a F868     		ldr	r0, [r7, #12]
 940 003c FFF7FEFF 		bl	HAL_SPI_TransmitReceive
 941 0040 0346     		mov	r3, r0
 942 0042 09E1     		b	.L47
 943              	.L46:
1021:Drivers/STM32L4xx_HAL_Driver/Src/stm32l4xx_hal_spi.c ****   }
1022:Drivers/STM32L4xx_HAL_Driver/Src/stm32l4xx_hal_spi.c **** 
1023:Drivers/STM32L4xx_HAL_Driver/Src/stm32l4xx_hal_spi.c ****   /* Process Locked */
1024:Drivers/STM32L4xx_HAL_Driver/Src/stm32l4xx_hal_spi.c ****   __HAL_LOCK(hspi);
 944              		.loc 1 1024 3
 945 0044 FB68     		ldr	r3, [r7, #12]
 946 0046 93F85C30 		ldrb	r3, [r3, #92]	@ zero_extendqisi2
 947 004a 012B     		cmp	r3, #1
 948 004c 01D1     		bne	.L48
 949              		.loc 1 1024 3 is_stmt 0 discriminator 1
 950 004e 0223     		movs	r3, #2
 951 0050 02E1     		b	.L47
 952              	.L48:
 953              		.loc 1 1024 3 discriminator 2
 954 0052 FB68     		ldr	r3, [r7, #12]
 955 0054 0122     		movs	r2, #1
 956 0056 83F85C20 		strb	r2, [r3, #92]
1025:Drivers/STM32L4xx_HAL_Driver/Src/stm32l4xx_hal_spi.c **** 
1026:Drivers/STM32L4xx_HAL_Driver/Src/stm32l4xx_hal_spi.c ****   /* Init tickstart for timeout management*/
1027:Drivers/STM32L4xx_HAL_Driver/Src/stm32l4xx_hal_spi.c ****   tickstart = HAL_GetTick();
 957              		.loc 1 1027 15 is_stmt 1 discriminator 2
 958 005a FFF7FEFF 		bl	HAL_GetTick
 959 005e 3861     		str	r0, [r7, #16]
1028:Drivers/STM32L4xx_HAL_Driver/Src/stm32l4xx_hal_spi.c **** 
1029:Drivers/STM32L4xx_HAL_Driver/Src/stm32l4xx_hal_spi.c ****   if (hspi->State != HAL_SPI_STATE_READY)
 960              		.loc 1 1029 11 discriminator 2
 961 0060 FB68     		ldr	r3, [r7, #12]
 962 0062 93F85D30 		ldrb	r3, [r3, #93]
 963 0066 DBB2     		uxtb	r3, r3
 964              		.loc 1 1029 6 discriminator 2
 965 0068 012B     		cmp	r3, #1
 966 006a 02D0     		beq	.L49
1030:Drivers/STM32L4xx_HAL_Driver/Src/stm32l4xx_hal_spi.c ****   {
1031:Drivers/STM32L4xx_HAL_Driver/Src/stm32l4xx_hal_spi.c ****     errorcode = HAL_BUSY;
 967              		.loc 1 1031 15
 968 006c 0223     		movs	r3, #2
 969 006e FB75     		strb	r3, [r7, #23]
1032:Drivers/STM32L4xx_HAL_Driver/Src/stm32l4xx_hal_spi.c ****     goto error;
 970              		.loc 1 1032 5
ARM GAS  C:\Users\Morroway\AppData\Local\Temp\ccCQJjHM.s 			page 36


 971 0070 E9E0     		b	.L50
 972              	.L49:
1033:Drivers/STM32L4xx_HAL_Driver/Src/stm32l4xx_hal_spi.c ****   }
1034:Drivers/STM32L4xx_HAL_Driver/Src/stm32l4xx_hal_spi.c **** 
1035:Drivers/STM32L4xx_HAL_Driver/Src/stm32l4xx_hal_spi.c ****   if ((pData == NULL) || (Size == 0U))
 973              		.loc 1 1035 6
 974 0072 BB68     		ldr	r3, [r7, #8]
 975 0074 002B     		cmp	r3, #0
 976 0076 02D0     		beq	.L51
 977              		.loc 1 1035 23 discriminator 1
 978 0078 FB88     		ldrh	r3, [r7, #6]
 979 007a 002B     		cmp	r3, #0
 980 007c 02D1     		bne	.L52
 981              	.L51:
1036:Drivers/STM32L4xx_HAL_Driver/Src/stm32l4xx_hal_spi.c ****   {
1037:Drivers/STM32L4xx_HAL_Driver/Src/stm32l4xx_hal_spi.c ****     errorcode = HAL_ERROR;
 982              		.loc 1 1037 15
 983 007e 0123     		movs	r3, #1
 984 0080 FB75     		strb	r3, [r7, #23]
1038:Drivers/STM32L4xx_HAL_Driver/Src/stm32l4xx_hal_spi.c ****     goto error;
 985              		.loc 1 1038 5
 986 0082 E0E0     		b	.L50
 987              	.L52:
1039:Drivers/STM32L4xx_HAL_Driver/Src/stm32l4xx_hal_spi.c ****   }
1040:Drivers/STM32L4xx_HAL_Driver/Src/stm32l4xx_hal_spi.c **** 
1041:Drivers/STM32L4xx_HAL_Driver/Src/stm32l4xx_hal_spi.c ****   /* Set the transaction information */
1042:Drivers/STM32L4xx_HAL_Driver/Src/stm32l4xx_hal_spi.c ****   hspi->State       = HAL_SPI_STATE_BUSY_RX;
 988              		.loc 1 1042 21
 989 0084 FB68     		ldr	r3, [r7, #12]
 990 0086 0422     		movs	r2, #4
 991 0088 83F85D20 		strb	r2, [r3, #93]
1043:Drivers/STM32L4xx_HAL_Driver/Src/stm32l4xx_hal_spi.c ****   hspi->ErrorCode   = HAL_SPI_ERROR_NONE;
 992              		.loc 1 1043 21
 993 008c FB68     		ldr	r3, [r7, #12]
 994 008e 0022     		movs	r2, #0
 995 0090 1A66     		str	r2, [r3, #96]
1044:Drivers/STM32L4xx_HAL_Driver/Src/stm32l4xx_hal_spi.c ****   hspi->pRxBuffPtr  = (uint8_t *)pData;
 996              		.loc 1 1044 21
 997 0092 FB68     		ldr	r3, [r7, #12]
 998 0094 BA68     		ldr	r2, [r7, #8]
 999 0096 1A64     		str	r2, [r3, #64]
1045:Drivers/STM32L4xx_HAL_Driver/Src/stm32l4xx_hal_spi.c ****   hspi->RxXferSize  = Size;
 1000              		.loc 1 1045 21
 1001 0098 FB68     		ldr	r3, [r7, #12]
 1002 009a FA88     		ldrh	r2, [r7, #6]	@ movhi
 1003 009c A3F84420 		strh	r2, [r3, #68]	@ movhi
1046:Drivers/STM32L4xx_HAL_Driver/Src/stm32l4xx_hal_spi.c ****   hspi->RxXferCount = Size;
 1004              		.loc 1 1046 21
 1005 00a0 FB68     		ldr	r3, [r7, #12]
 1006 00a2 FA88     		ldrh	r2, [r7, #6]	@ movhi
 1007 00a4 A3F84620 		strh	r2, [r3, #70]	@ movhi
1047:Drivers/STM32L4xx_HAL_Driver/Src/stm32l4xx_hal_spi.c **** 
1048:Drivers/STM32L4xx_HAL_Driver/Src/stm32l4xx_hal_spi.c ****   /*Init field not used in handle to zero */
1049:Drivers/STM32L4xx_HAL_Driver/Src/stm32l4xx_hal_spi.c ****   hspi->pTxBuffPtr  = (uint8_t *)NULL;
 1008              		.loc 1 1049 21
 1009 00a8 FB68     		ldr	r3, [r7, #12]
 1010 00aa 0022     		movs	r2, #0
ARM GAS  C:\Users\Morroway\AppData\Local\Temp\ccCQJjHM.s 			page 37


 1011 00ac 9A63     		str	r2, [r3, #56]
1050:Drivers/STM32L4xx_HAL_Driver/Src/stm32l4xx_hal_spi.c ****   hspi->TxXferSize  = 0U;
 1012              		.loc 1 1050 21
 1013 00ae FB68     		ldr	r3, [r7, #12]
 1014 00b0 0022     		movs	r2, #0
 1015 00b2 9A87     		strh	r2, [r3, #60]	@ movhi
1051:Drivers/STM32L4xx_HAL_Driver/Src/stm32l4xx_hal_spi.c ****   hspi->TxXferCount = 0U;
 1016              		.loc 1 1051 21
 1017 00b4 FB68     		ldr	r3, [r7, #12]
 1018 00b6 0022     		movs	r2, #0
 1019 00b8 DA87     		strh	r2, [r3, #62]	@ movhi
1052:Drivers/STM32L4xx_HAL_Driver/Src/stm32l4xx_hal_spi.c ****   hspi->RxISR       = NULL;
 1020              		.loc 1 1052 21
 1021 00ba FB68     		ldr	r3, [r7, #12]
 1022 00bc 0022     		movs	r2, #0
 1023 00be DA64     		str	r2, [r3, #76]
1053:Drivers/STM32L4xx_HAL_Driver/Src/stm32l4xx_hal_spi.c ****   hspi->TxISR       = NULL;
 1024              		.loc 1 1053 21
 1025 00c0 FB68     		ldr	r3, [r7, #12]
 1026 00c2 0022     		movs	r2, #0
 1027 00c4 1A65     		str	r2, [r3, #80]
1054:Drivers/STM32L4xx_HAL_Driver/Src/stm32l4xx_hal_spi.c **** 
1055:Drivers/STM32L4xx_HAL_Driver/Src/stm32l4xx_hal_spi.c **** #if (USE_SPI_CRC != 0U)
1056:Drivers/STM32L4xx_HAL_Driver/Src/stm32l4xx_hal_spi.c ****   /* Reset CRC Calculation */
1057:Drivers/STM32L4xx_HAL_Driver/Src/stm32l4xx_hal_spi.c ****   if (hspi->Init.CRCCalculation == SPI_CRCCALCULATION_ENABLE)
1058:Drivers/STM32L4xx_HAL_Driver/Src/stm32l4xx_hal_spi.c ****   {
1059:Drivers/STM32L4xx_HAL_Driver/Src/stm32l4xx_hal_spi.c ****     SPI_RESET_CRC(hspi);
1060:Drivers/STM32L4xx_HAL_Driver/Src/stm32l4xx_hal_spi.c ****     /* this is done to handle the CRCNEXT before the latest data */
1061:Drivers/STM32L4xx_HAL_Driver/Src/stm32l4xx_hal_spi.c ****     hspi->RxXferCount--;
1062:Drivers/STM32L4xx_HAL_Driver/Src/stm32l4xx_hal_spi.c ****   }
1063:Drivers/STM32L4xx_HAL_Driver/Src/stm32l4xx_hal_spi.c **** #endif /* USE_SPI_CRC */
1064:Drivers/STM32L4xx_HAL_Driver/Src/stm32l4xx_hal_spi.c **** 
1065:Drivers/STM32L4xx_HAL_Driver/Src/stm32l4xx_hal_spi.c ****   /* Set the Rx Fifo threshold */
1066:Drivers/STM32L4xx_HAL_Driver/Src/stm32l4xx_hal_spi.c ****   if (hspi->Init.DataSize > SPI_DATASIZE_8BIT)
 1028              		.loc 1 1066 17
 1029 00c6 FB68     		ldr	r3, [r7, #12]
 1030 00c8 DB68     		ldr	r3, [r3, #12]
 1031              		.loc 1 1066 6
 1032 00ca B3F5E06F 		cmp	r3, #1792
 1033 00ce 08D9     		bls	.L53
1067:Drivers/STM32L4xx_HAL_Driver/Src/stm32l4xx_hal_spi.c ****   {
1068:Drivers/STM32L4xx_HAL_Driver/Src/stm32l4xx_hal_spi.c ****     /* Set RX Fifo threshold according the reception data length: 16bit */
1069:Drivers/STM32L4xx_HAL_Driver/Src/stm32l4xx_hal_spi.c ****     CLEAR_BIT(hspi->Instance->CR2, SPI_RXFIFO_THRESHOLD);
 1034              		.loc 1 1069 5
 1035 00d0 FB68     		ldr	r3, [r7, #12]
 1036 00d2 1B68     		ldr	r3, [r3]
 1037 00d4 5A68     		ldr	r2, [r3, #4]
 1038 00d6 FB68     		ldr	r3, [r7, #12]
 1039 00d8 1B68     		ldr	r3, [r3]
 1040 00da 22F48052 		bic	r2, r2, #4096
 1041 00de 5A60     		str	r2, [r3, #4]
 1042 00e0 07E0     		b	.L54
 1043              	.L53:
1070:Drivers/STM32L4xx_HAL_Driver/Src/stm32l4xx_hal_spi.c ****   }
1071:Drivers/STM32L4xx_HAL_Driver/Src/stm32l4xx_hal_spi.c ****   else
1072:Drivers/STM32L4xx_HAL_Driver/Src/stm32l4xx_hal_spi.c ****   {
1073:Drivers/STM32L4xx_HAL_Driver/Src/stm32l4xx_hal_spi.c ****     /* Set RX Fifo threshold according the reception data length: 8bit */
ARM GAS  C:\Users\Morroway\AppData\Local\Temp\ccCQJjHM.s 			page 38


1074:Drivers/STM32L4xx_HAL_Driver/Src/stm32l4xx_hal_spi.c ****     SET_BIT(hspi->Instance->CR2, SPI_RXFIFO_THRESHOLD);
 1044              		.loc 1 1074 5
 1045 00e2 FB68     		ldr	r3, [r7, #12]
 1046 00e4 1B68     		ldr	r3, [r3]
 1047 00e6 5A68     		ldr	r2, [r3, #4]
 1048 00e8 FB68     		ldr	r3, [r7, #12]
 1049 00ea 1B68     		ldr	r3, [r3]
 1050 00ec 42F48052 		orr	r2, r2, #4096
 1051 00f0 5A60     		str	r2, [r3, #4]
 1052              	.L54:
1075:Drivers/STM32L4xx_HAL_Driver/Src/stm32l4xx_hal_spi.c ****   }
1076:Drivers/STM32L4xx_HAL_Driver/Src/stm32l4xx_hal_spi.c **** 
1077:Drivers/STM32L4xx_HAL_Driver/Src/stm32l4xx_hal_spi.c ****   /* Configure communication direction: 1Line */
1078:Drivers/STM32L4xx_HAL_Driver/Src/stm32l4xx_hal_spi.c ****   if (hspi->Init.Direction == SPI_DIRECTION_1LINE)
 1053              		.loc 1 1078 17
 1054 00f2 FB68     		ldr	r3, [r7, #12]
 1055 00f4 9B68     		ldr	r3, [r3, #8]
 1056              		.loc 1 1078 6
 1057 00f6 B3F5004F 		cmp	r3, #32768
 1058 00fa 0FD1     		bne	.L55
1079:Drivers/STM32L4xx_HAL_Driver/Src/stm32l4xx_hal_spi.c ****   {
1080:Drivers/STM32L4xx_HAL_Driver/Src/stm32l4xx_hal_spi.c ****     /* Disable SPI Peripheral before set 1Line direction (BIDIOE bit) */
1081:Drivers/STM32L4xx_HAL_Driver/Src/stm32l4xx_hal_spi.c ****     __HAL_SPI_DISABLE(hspi);
 1059              		.loc 1 1081 5
 1060 00fc FB68     		ldr	r3, [r7, #12]
 1061 00fe 1B68     		ldr	r3, [r3]
 1062 0100 1A68     		ldr	r2, [r3]
 1063 0102 FB68     		ldr	r3, [r7, #12]
 1064 0104 1B68     		ldr	r3, [r3]
 1065 0106 22F04002 		bic	r2, r2, #64
 1066 010a 1A60     		str	r2, [r3]
1082:Drivers/STM32L4xx_HAL_Driver/Src/stm32l4xx_hal_spi.c ****     SPI_1LINE_RX(hspi);
 1067              		.loc 1 1082 5
 1068 010c FB68     		ldr	r3, [r7, #12]
 1069 010e 1B68     		ldr	r3, [r3]
 1070 0110 1A68     		ldr	r2, [r3]
 1071 0112 FB68     		ldr	r3, [r7, #12]
 1072 0114 1B68     		ldr	r3, [r3]
 1073 0116 22F48042 		bic	r2, r2, #16384
 1074 011a 1A60     		str	r2, [r3]
 1075              	.L55:
1083:Drivers/STM32L4xx_HAL_Driver/Src/stm32l4xx_hal_spi.c ****   }
1084:Drivers/STM32L4xx_HAL_Driver/Src/stm32l4xx_hal_spi.c **** 
1085:Drivers/STM32L4xx_HAL_Driver/Src/stm32l4xx_hal_spi.c ****   /* Check if the SPI is already enabled */
1086:Drivers/STM32L4xx_HAL_Driver/Src/stm32l4xx_hal_spi.c ****   if ((hspi->Instance->CR1 & SPI_CR1_SPE) != SPI_CR1_SPE)
 1076              		.loc 1 1086 12
 1077 011c FB68     		ldr	r3, [r7, #12]
 1078 011e 1B68     		ldr	r3, [r3]
 1079              		.loc 1 1086 22
 1080 0120 1B68     		ldr	r3, [r3]
 1081              		.loc 1 1086 28
 1082 0122 03F04003 		and	r3, r3, #64
 1083              		.loc 1 1086 6
 1084 0126 402B     		cmp	r3, #64
 1085 0128 07D0     		beq	.L56
1087:Drivers/STM32L4xx_HAL_Driver/Src/stm32l4xx_hal_spi.c ****   {
1088:Drivers/STM32L4xx_HAL_Driver/Src/stm32l4xx_hal_spi.c ****     /* Enable SPI peripheral */
ARM GAS  C:\Users\Morroway\AppData\Local\Temp\ccCQJjHM.s 			page 39


1089:Drivers/STM32L4xx_HAL_Driver/Src/stm32l4xx_hal_spi.c ****     __HAL_SPI_ENABLE(hspi);
 1086              		.loc 1 1089 5
 1087 012a FB68     		ldr	r3, [r7, #12]
 1088 012c 1B68     		ldr	r3, [r3]
 1089 012e 1A68     		ldr	r2, [r3]
 1090 0130 FB68     		ldr	r3, [r7, #12]
 1091 0132 1B68     		ldr	r3, [r3]
 1092 0134 42F04002 		orr	r2, r2, #64
 1093 0138 1A60     		str	r2, [r3]
 1094              	.L56:
1090:Drivers/STM32L4xx_HAL_Driver/Src/stm32l4xx_hal_spi.c ****   }
1091:Drivers/STM32L4xx_HAL_Driver/Src/stm32l4xx_hal_spi.c **** 
1092:Drivers/STM32L4xx_HAL_Driver/Src/stm32l4xx_hal_spi.c ****   /* Receive data in 8 Bit mode */
1093:Drivers/STM32L4xx_HAL_Driver/Src/stm32l4xx_hal_spi.c ****   if (hspi->Init.DataSize <= SPI_DATASIZE_8BIT)
 1095              		.loc 1 1093 17
 1096 013a FB68     		ldr	r3, [r7, #12]
 1097 013c DB68     		ldr	r3, [r3, #12]
 1098              		.loc 1 1093 6
 1099 013e B3F5E06F 		cmp	r3, #1792
 1100 0142 67D8     		bhi	.L64
1094:Drivers/STM32L4xx_HAL_Driver/Src/stm32l4xx_hal_spi.c ****   {
1095:Drivers/STM32L4xx_HAL_Driver/Src/stm32l4xx_hal_spi.c ****     /* Transfer loop */
1096:Drivers/STM32L4xx_HAL_Driver/Src/stm32l4xx_hal_spi.c ****     while (hspi->RxXferCount > 0U)
 1101              		.loc 1 1096 11
 1102 0144 30E0     		b	.L58
 1103              	.L62:
1097:Drivers/STM32L4xx_HAL_Driver/Src/stm32l4xx_hal_spi.c ****     {
1098:Drivers/STM32L4xx_HAL_Driver/Src/stm32l4xx_hal_spi.c ****       /* Check the RXNE flag */
1099:Drivers/STM32L4xx_HAL_Driver/Src/stm32l4xx_hal_spi.c ****       if (__HAL_SPI_GET_FLAG(hspi, SPI_FLAG_RXNE))
 1104              		.loc 1 1099 11
 1105 0146 FB68     		ldr	r3, [r7, #12]
 1106 0148 1B68     		ldr	r3, [r3]
 1107 014a 9B68     		ldr	r3, [r3, #8]
 1108 014c 03F00103 		and	r3, r3, #1
 1109              		.loc 1 1099 10
 1110 0150 012B     		cmp	r3, #1
 1111 0152 17D1     		bne	.L59
1100:Drivers/STM32L4xx_HAL_Driver/Src/stm32l4xx_hal_spi.c ****       {
1101:Drivers/STM32L4xx_HAL_Driver/Src/stm32l4xx_hal_spi.c ****         /* read the received data */
1102:Drivers/STM32L4xx_HAL_Driver/Src/stm32l4xx_hal_spi.c ****         (* (uint8_t *)hspi->pRxBuffPtr) = *(__IO uint8_t *)&hspi->Instance->DR;
 1112              		.loc 1 1102 65
 1113 0154 FB68     		ldr	r3, [r7, #12]
 1114 0156 1B68     		ldr	r3, [r3]
 1115              		.loc 1 1102 60
 1116 0158 03F10C02 		add	r2, r3, #12
 1117              		.loc 1 1102 27
 1118 015c FB68     		ldr	r3, [r7, #12]
 1119 015e 1B6C     		ldr	r3, [r3, #64]
 1120              		.loc 1 1102 43
 1121 0160 1278     		ldrb	r2, [r2]
 1122 0162 D2B2     		uxtb	r2, r2
 1123              		.loc 1 1102 41
 1124 0164 1A70     		strb	r2, [r3]
1103:Drivers/STM32L4xx_HAL_Driver/Src/stm32l4xx_hal_spi.c ****         hspi->pRxBuffPtr += sizeof(uint8_t);
 1125              		.loc 1 1103 26
 1126 0166 FB68     		ldr	r3, [r7, #12]
 1127 0168 1B6C     		ldr	r3, [r3, #64]
ARM GAS  C:\Users\Morroway\AppData\Local\Temp\ccCQJjHM.s 			page 40


 1128 016a 5A1C     		adds	r2, r3, #1
 1129 016c FB68     		ldr	r3, [r7, #12]
 1130 016e 1A64     		str	r2, [r3, #64]
1104:Drivers/STM32L4xx_HAL_Driver/Src/stm32l4xx_hal_spi.c ****         hspi->RxXferCount--;
 1131              		.loc 1 1104 13
 1132 0170 FB68     		ldr	r3, [r7, #12]
 1133 0172 B3F84630 		ldrh	r3, [r3, #70]	@ movhi
 1134 0176 9BB2     		uxth	r3, r3
 1135              		.loc 1 1104 26
 1136 0178 013B     		subs	r3, r3, #1
 1137 017a 9AB2     		uxth	r2, r3
 1138 017c FB68     		ldr	r3, [r7, #12]
 1139 017e A3F84620 		strh	r2, [r3, #70]	@ movhi
 1140 0182 11E0     		b	.L58
 1141              	.L59:
1105:Drivers/STM32L4xx_HAL_Driver/Src/stm32l4xx_hal_spi.c ****       }
1106:Drivers/STM32L4xx_HAL_Driver/Src/stm32l4xx_hal_spi.c ****       else
1107:Drivers/STM32L4xx_HAL_Driver/Src/stm32l4xx_hal_spi.c ****       {
1108:Drivers/STM32L4xx_HAL_Driver/Src/stm32l4xx_hal_spi.c ****         /* Timeout management */
1109:Drivers/STM32L4xx_HAL_Driver/Src/stm32l4xx_hal_spi.c ****         if ((((HAL_GetTick() - tickstart) >=  Timeout) && (Timeout != HAL_MAX_DELAY)) || (Timeout =
 1142              		.loc 1 1109 16
 1143 0184 FFF7FEFF 		bl	HAL_GetTick
 1144 0188 0246     		mov	r2, r0
 1145              		.loc 1 1109 30
 1146 018a 3B69     		ldr	r3, [r7, #16]
 1147 018c D31A     		subs	r3, r2, r3
 1148              		.loc 1 1109 12
 1149 018e 3A68     		ldr	r2, [r7]
 1150 0190 9A42     		cmp	r2, r3
 1151 0192 03D8     		bhi	.L60
 1152              		.loc 1 1109 56 discriminator 1
 1153 0194 3B68     		ldr	r3, [r7]
 1154 0196 B3F1FF3F 		cmp	r3, #-1
 1155 019a 02D1     		bne	.L61
 1156              	.L60:
 1157              		.loc 1 1109 87 discriminator 3
 1158 019c 3B68     		ldr	r3, [r7]
 1159 019e 002B     		cmp	r3, #0
 1160 01a0 02D1     		bne	.L58
 1161              	.L61:
1110:Drivers/STM32L4xx_HAL_Driver/Src/stm32l4xx_hal_spi.c ****         {
1111:Drivers/STM32L4xx_HAL_Driver/Src/stm32l4xx_hal_spi.c ****           errorcode = HAL_TIMEOUT;
 1162              		.loc 1 1111 21
 1163 01a2 0323     		movs	r3, #3
 1164 01a4 FB75     		strb	r3, [r7, #23]
1112:Drivers/STM32L4xx_HAL_Driver/Src/stm32l4xx_hal_spi.c ****           goto error;
 1165              		.loc 1 1112 11
 1166 01a6 4EE0     		b	.L50
 1167              	.L58:
1096:Drivers/STM32L4xx_HAL_Driver/Src/stm32l4xx_hal_spi.c ****     {
 1168              		.loc 1 1096 16
 1169 01a8 FB68     		ldr	r3, [r7, #12]
 1170 01aa B3F84630 		ldrh	r3, [r3, #70]	@ movhi
 1171 01ae 9BB2     		uxth	r3, r3
1096:Drivers/STM32L4xx_HAL_Driver/Src/stm32l4xx_hal_spi.c ****     {
 1172              		.loc 1 1096 30
 1173 01b0 002B     		cmp	r3, #0
ARM GAS  C:\Users\Morroway\AppData\Local\Temp\ccCQJjHM.s 			page 41


 1174 01b2 C8D1     		bne	.L62
 1175 01b4 34E0     		b	.L63
 1176              	.L68:
1113:Drivers/STM32L4xx_HAL_Driver/Src/stm32l4xx_hal_spi.c ****         }
1114:Drivers/STM32L4xx_HAL_Driver/Src/stm32l4xx_hal_spi.c ****       }
1115:Drivers/STM32L4xx_HAL_Driver/Src/stm32l4xx_hal_spi.c ****     }
1116:Drivers/STM32L4xx_HAL_Driver/Src/stm32l4xx_hal_spi.c ****   }
1117:Drivers/STM32L4xx_HAL_Driver/Src/stm32l4xx_hal_spi.c ****   else
1118:Drivers/STM32L4xx_HAL_Driver/Src/stm32l4xx_hal_spi.c ****   {
1119:Drivers/STM32L4xx_HAL_Driver/Src/stm32l4xx_hal_spi.c ****     /* Transfer loop */
1120:Drivers/STM32L4xx_HAL_Driver/Src/stm32l4xx_hal_spi.c ****     while (hspi->RxXferCount > 0U)
1121:Drivers/STM32L4xx_HAL_Driver/Src/stm32l4xx_hal_spi.c ****     {
1122:Drivers/STM32L4xx_HAL_Driver/Src/stm32l4xx_hal_spi.c ****       /* Check the RXNE flag */
1123:Drivers/STM32L4xx_HAL_Driver/Src/stm32l4xx_hal_spi.c ****       if (__HAL_SPI_GET_FLAG(hspi, SPI_FLAG_RXNE))
 1177              		.loc 1 1123 11
 1178 01b6 FB68     		ldr	r3, [r7, #12]
 1179 01b8 1B68     		ldr	r3, [r3]
 1180 01ba 9B68     		ldr	r3, [r3, #8]
 1181 01bc 03F00103 		and	r3, r3, #1
 1182              		.loc 1 1123 10
 1183 01c0 012B     		cmp	r3, #1
 1184 01c2 15D1     		bne	.L65
1124:Drivers/STM32L4xx_HAL_Driver/Src/stm32l4xx_hal_spi.c ****       {
1125:Drivers/STM32L4xx_HAL_Driver/Src/stm32l4xx_hal_spi.c ****         *((uint16_t *)hspi->pRxBuffPtr) = (uint16_t)hspi->Instance->DR;
 1185              		.loc 1 1125 57
 1186 01c4 FB68     		ldr	r3, [r7, #12]
 1187 01c6 1B68     		ldr	r3, [r3]
 1188              		.loc 1 1125 67
 1189 01c8 DA68     		ldr	r2, [r3, #12]
 1190              		.loc 1 1125 27
 1191 01ca FB68     		ldr	r3, [r7, #12]
 1192 01cc 1B6C     		ldr	r3, [r3, #64]
 1193              		.loc 1 1125 43
 1194 01ce 92B2     		uxth	r2, r2
 1195              		.loc 1 1125 41
 1196 01d0 1A80     		strh	r2, [r3]	@ movhi
1126:Drivers/STM32L4xx_HAL_Driver/Src/stm32l4xx_hal_spi.c ****         hspi->pRxBuffPtr += sizeof(uint16_t);
 1197              		.loc 1 1126 26
 1198 01d2 FB68     		ldr	r3, [r7, #12]
 1199 01d4 1B6C     		ldr	r3, [r3, #64]
 1200 01d6 9A1C     		adds	r2, r3, #2
 1201 01d8 FB68     		ldr	r3, [r7, #12]
 1202 01da 1A64     		str	r2, [r3, #64]
1127:Drivers/STM32L4xx_HAL_Driver/Src/stm32l4xx_hal_spi.c ****         hspi->RxXferCount--;
 1203              		.loc 1 1127 13
 1204 01dc FB68     		ldr	r3, [r7, #12]
 1205 01de B3F84630 		ldrh	r3, [r3, #70]	@ movhi
 1206 01e2 9BB2     		uxth	r3, r3
 1207              		.loc 1 1127 26
 1208 01e4 013B     		subs	r3, r3, #1
 1209 01e6 9AB2     		uxth	r2, r3
 1210 01e8 FB68     		ldr	r3, [r7, #12]
 1211 01ea A3F84620 		strh	r2, [r3, #70]	@ movhi
 1212 01ee 11E0     		b	.L64
 1213              	.L65:
1128:Drivers/STM32L4xx_HAL_Driver/Src/stm32l4xx_hal_spi.c ****       }
1129:Drivers/STM32L4xx_HAL_Driver/Src/stm32l4xx_hal_spi.c ****       else
ARM GAS  C:\Users\Morroway\AppData\Local\Temp\ccCQJjHM.s 			page 42


1130:Drivers/STM32L4xx_HAL_Driver/Src/stm32l4xx_hal_spi.c ****       {
1131:Drivers/STM32L4xx_HAL_Driver/Src/stm32l4xx_hal_spi.c ****         /* Timeout management */
1132:Drivers/STM32L4xx_HAL_Driver/Src/stm32l4xx_hal_spi.c ****         if ((((HAL_GetTick() - tickstart) >=  Timeout) && (Timeout != HAL_MAX_DELAY)) || (Timeout =
 1214              		.loc 1 1132 16
 1215 01f0 FFF7FEFF 		bl	HAL_GetTick
 1216 01f4 0246     		mov	r2, r0
 1217              		.loc 1 1132 30
 1218 01f6 3B69     		ldr	r3, [r7, #16]
 1219 01f8 D31A     		subs	r3, r2, r3
 1220              		.loc 1 1132 12
 1221 01fa 3A68     		ldr	r2, [r7]
 1222 01fc 9A42     		cmp	r2, r3
 1223 01fe 03D8     		bhi	.L66
 1224              		.loc 1 1132 56 discriminator 1
 1225 0200 3B68     		ldr	r3, [r7]
 1226 0202 B3F1FF3F 		cmp	r3, #-1
 1227 0206 02D1     		bne	.L67
 1228              	.L66:
 1229              		.loc 1 1132 87 discriminator 3
 1230 0208 3B68     		ldr	r3, [r7]
 1231 020a 002B     		cmp	r3, #0
 1232 020c 02D1     		bne	.L64
 1233              	.L67:
1133:Drivers/STM32L4xx_HAL_Driver/Src/stm32l4xx_hal_spi.c ****         {
1134:Drivers/STM32L4xx_HAL_Driver/Src/stm32l4xx_hal_spi.c ****           errorcode = HAL_TIMEOUT;
 1234              		.loc 1 1134 21
 1235 020e 0323     		movs	r3, #3
 1236 0210 FB75     		strb	r3, [r7, #23]
1135:Drivers/STM32L4xx_HAL_Driver/Src/stm32l4xx_hal_spi.c ****           goto error;
 1237              		.loc 1 1135 11
 1238 0212 18E0     		b	.L50
 1239              	.L64:
1120:Drivers/STM32L4xx_HAL_Driver/Src/stm32l4xx_hal_spi.c ****     {
 1240              		.loc 1 1120 16
 1241 0214 FB68     		ldr	r3, [r7, #12]
 1242 0216 B3F84630 		ldrh	r3, [r3, #70]	@ movhi
 1243 021a 9BB2     		uxth	r3, r3
1120:Drivers/STM32L4xx_HAL_Driver/Src/stm32l4xx_hal_spi.c ****     {
 1244              		.loc 1 1120 30
 1245 021c 002B     		cmp	r3, #0
 1246 021e CAD1     		bne	.L68
 1247              	.L63:
1136:Drivers/STM32L4xx_HAL_Driver/Src/stm32l4xx_hal_spi.c ****         }
1137:Drivers/STM32L4xx_HAL_Driver/Src/stm32l4xx_hal_spi.c ****       }
1138:Drivers/STM32L4xx_HAL_Driver/Src/stm32l4xx_hal_spi.c ****     }
1139:Drivers/STM32L4xx_HAL_Driver/Src/stm32l4xx_hal_spi.c ****   }
1140:Drivers/STM32L4xx_HAL_Driver/Src/stm32l4xx_hal_spi.c **** 
1141:Drivers/STM32L4xx_HAL_Driver/Src/stm32l4xx_hal_spi.c **** #if (USE_SPI_CRC != 0U)
1142:Drivers/STM32L4xx_HAL_Driver/Src/stm32l4xx_hal_spi.c ****   /* Handle the CRC Transmission */
1143:Drivers/STM32L4xx_HAL_Driver/Src/stm32l4xx_hal_spi.c ****   if (hspi->Init.CRCCalculation == SPI_CRCCALCULATION_ENABLE)
1144:Drivers/STM32L4xx_HAL_Driver/Src/stm32l4xx_hal_spi.c ****   {
1145:Drivers/STM32L4xx_HAL_Driver/Src/stm32l4xx_hal_spi.c ****     /* freeze the CRC before the latest data */
1146:Drivers/STM32L4xx_HAL_Driver/Src/stm32l4xx_hal_spi.c ****     SET_BIT(hspi->Instance->CR1, SPI_CR1_CRCNEXT);
1147:Drivers/STM32L4xx_HAL_Driver/Src/stm32l4xx_hal_spi.c **** 
1148:Drivers/STM32L4xx_HAL_Driver/Src/stm32l4xx_hal_spi.c ****     /* Read the latest data */
1149:Drivers/STM32L4xx_HAL_Driver/Src/stm32l4xx_hal_spi.c ****     if (SPI_WaitFlagStateUntilTimeout(hspi, SPI_FLAG_RXNE, SET, Timeout, tickstart) != HAL_OK)
1150:Drivers/STM32L4xx_HAL_Driver/Src/stm32l4xx_hal_spi.c ****     {
ARM GAS  C:\Users\Morroway\AppData\Local\Temp\ccCQJjHM.s 			page 43


1151:Drivers/STM32L4xx_HAL_Driver/Src/stm32l4xx_hal_spi.c ****       /* the latest data has not been received */
1152:Drivers/STM32L4xx_HAL_Driver/Src/stm32l4xx_hal_spi.c ****       errorcode = HAL_TIMEOUT;
1153:Drivers/STM32L4xx_HAL_Driver/Src/stm32l4xx_hal_spi.c ****       goto error;
1154:Drivers/STM32L4xx_HAL_Driver/Src/stm32l4xx_hal_spi.c ****     }
1155:Drivers/STM32L4xx_HAL_Driver/Src/stm32l4xx_hal_spi.c **** 
1156:Drivers/STM32L4xx_HAL_Driver/Src/stm32l4xx_hal_spi.c ****     /* Receive last data in 16 Bit mode */
1157:Drivers/STM32L4xx_HAL_Driver/Src/stm32l4xx_hal_spi.c ****     if (hspi->Init.DataSize > SPI_DATASIZE_8BIT)
1158:Drivers/STM32L4xx_HAL_Driver/Src/stm32l4xx_hal_spi.c ****     {
1159:Drivers/STM32L4xx_HAL_Driver/Src/stm32l4xx_hal_spi.c ****       *((uint16_t *)hspi->pRxBuffPtr) = (uint16_t)hspi->Instance->DR;
1160:Drivers/STM32L4xx_HAL_Driver/Src/stm32l4xx_hal_spi.c ****     }
1161:Drivers/STM32L4xx_HAL_Driver/Src/stm32l4xx_hal_spi.c ****     /* Receive last data in 8 Bit mode */
1162:Drivers/STM32L4xx_HAL_Driver/Src/stm32l4xx_hal_spi.c ****     else
1163:Drivers/STM32L4xx_HAL_Driver/Src/stm32l4xx_hal_spi.c ****     {
1164:Drivers/STM32L4xx_HAL_Driver/Src/stm32l4xx_hal_spi.c ****       (*(uint8_t *)hspi->pRxBuffPtr) = *(__IO uint8_t *)&hspi->Instance->DR;
1165:Drivers/STM32L4xx_HAL_Driver/Src/stm32l4xx_hal_spi.c ****     }
1166:Drivers/STM32L4xx_HAL_Driver/Src/stm32l4xx_hal_spi.c **** 
1167:Drivers/STM32L4xx_HAL_Driver/Src/stm32l4xx_hal_spi.c ****     /* Wait the CRC data */
1168:Drivers/STM32L4xx_HAL_Driver/Src/stm32l4xx_hal_spi.c ****     if (SPI_WaitFlagStateUntilTimeout(hspi, SPI_FLAG_RXNE, SET, Timeout, tickstart) != HAL_OK)
1169:Drivers/STM32L4xx_HAL_Driver/Src/stm32l4xx_hal_spi.c ****     {
1170:Drivers/STM32L4xx_HAL_Driver/Src/stm32l4xx_hal_spi.c ****       SET_BIT(hspi->ErrorCode, HAL_SPI_ERROR_CRC);
1171:Drivers/STM32L4xx_HAL_Driver/Src/stm32l4xx_hal_spi.c ****       errorcode = HAL_TIMEOUT;
1172:Drivers/STM32L4xx_HAL_Driver/Src/stm32l4xx_hal_spi.c ****       goto error;
1173:Drivers/STM32L4xx_HAL_Driver/Src/stm32l4xx_hal_spi.c ****     }
1174:Drivers/STM32L4xx_HAL_Driver/Src/stm32l4xx_hal_spi.c **** 
1175:Drivers/STM32L4xx_HAL_Driver/Src/stm32l4xx_hal_spi.c ****     /* Read CRC to Flush DR and RXNE flag */
1176:Drivers/STM32L4xx_HAL_Driver/Src/stm32l4xx_hal_spi.c ****     if (hspi->Init.DataSize == SPI_DATASIZE_16BIT)
1177:Drivers/STM32L4xx_HAL_Driver/Src/stm32l4xx_hal_spi.c ****     {
1178:Drivers/STM32L4xx_HAL_Driver/Src/stm32l4xx_hal_spi.c ****       /* Read 16bit CRC */
1179:Drivers/STM32L4xx_HAL_Driver/Src/stm32l4xx_hal_spi.c ****       tmpreg = READ_REG(hspi->Instance->DR);
1180:Drivers/STM32L4xx_HAL_Driver/Src/stm32l4xx_hal_spi.c ****       /* To avoid GCC warning */
1181:Drivers/STM32L4xx_HAL_Driver/Src/stm32l4xx_hal_spi.c ****       UNUSED(tmpreg);
1182:Drivers/STM32L4xx_HAL_Driver/Src/stm32l4xx_hal_spi.c ****     }
1183:Drivers/STM32L4xx_HAL_Driver/Src/stm32l4xx_hal_spi.c ****     else
1184:Drivers/STM32L4xx_HAL_Driver/Src/stm32l4xx_hal_spi.c ****     {
1185:Drivers/STM32L4xx_HAL_Driver/Src/stm32l4xx_hal_spi.c ****       /* Initialize the 8bit temporary pointer */
1186:Drivers/STM32L4xx_HAL_Driver/Src/stm32l4xx_hal_spi.c ****       ptmpreg8 = (__IO uint8_t *)&hspi->Instance->DR;
1187:Drivers/STM32L4xx_HAL_Driver/Src/stm32l4xx_hal_spi.c ****       /* Read 8bit CRC */
1188:Drivers/STM32L4xx_HAL_Driver/Src/stm32l4xx_hal_spi.c ****       tmpreg8 = *ptmpreg8;
1189:Drivers/STM32L4xx_HAL_Driver/Src/stm32l4xx_hal_spi.c ****       /* To avoid GCC warning */
1190:Drivers/STM32L4xx_HAL_Driver/Src/stm32l4xx_hal_spi.c ****       UNUSED(tmpreg8);
1191:Drivers/STM32L4xx_HAL_Driver/Src/stm32l4xx_hal_spi.c **** 
1192:Drivers/STM32L4xx_HAL_Driver/Src/stm32l4xx_hal_spi.c ****       if ((hspi->Init.DataSize == SPI_DATASIZE_8BIT) && (hspi->Init.CRCLength == SPI_CRC_LENGTH_16B
1193:Drivers/STM32L4xx_HAL_Driver/Src/stm32l4xx_hal_spi.c ****       {
1194:Drivers/STM32L4xx_HAL_Driver/Src/stm32l4xx_hal_spi.c ****         if (SPI_WaitFlagStateUntilTimeout(hspi, SPI_FLAG_RXNE, SET, Timeout, tickstart) != HAL_OK)
1195:Drivers/STM32L4xx_HAL_Driver/Src/stm32l4xx_hal_spi.c ****         {
1196:Drivers/STM32L4xx_HAL_Driver/Src/stm32l4xx_hal_spi.c ****           /* Error on the CRC reception */
1197:Drivers/STM32L4xx_HAL_Driver/Src/stm32l4xx_hal_spi.c ****           SET_BIT(hspi->ErrorCode, HAL_SPI_ERROR_CRC);
1198:Drivers/STM32L4xx_HAL_Driver/Src/stm32l4xx_hal_spi.c ****           errorcode = HAL_TIMEOUT;
1199:Drivers/STM32L4xx_HAL_Driver/Src/stm32l4xx_hal_spi.c ****           goto error;
1200:Drivers/STM32L4xx_HAL_Driver/Src/stm32l4xx_hal_spi.c ****         }
1201:Drivers/STM32L4xx_HAL_Driver/Src/stm32l4xx_hal_spi.c ****         /* Read 8bit CRC again in case of 16bit CRC in 8bit Data mode */
1202:Drivers/STM32L4xx_HAL_Driver/Src/stm32l4xx_hal_spi.c ****         tmpreg8 = *ptmpreg8;
1203:Drivers/STM32L4xx_HAL_Driver/Src/stm32l4xx_hal_spi.c ****         /* To avoid GCC warning */
1204:Drivers/STM32L4xx_HAL_Driver/Src/stm32l4xx_hal_spi.c ****         UNUSED(tmpreg8);
1205:Drivers/STM32L4xx_HAL_Driver/Src/stm32l4xx_hal_spi.c ****       }
1206:Drivers/STM32L4xx_HAL_Driver/Src/stm32l4xx_hal_spi.c ****     }
1207:Drivers/STM32L4xx_HAL_Driver/Src/stm32l4xx_hal_spi.c ****   }
ARM GAS  C:\Users\Morroway\AppData\Local\Temp\ccCQJjHM.s 			page 44


1208:Drivers/STM32L4xx_HAL_Driver/Src/stm32l4xx_hal_spi.c **** #endif /* USE_SPI_CRC */
1209:Drivers/STM32L4xx_HAL_Driver/Src/stm32l4xx_hal_spi.c **** 
1210:Drivers/STM32L4xx_HAL_Driver/Src/stm32l4xx_hal_spi.c ****   /* Check the end of the transaction */
1211:Drivers/STM32L4xx_HAL_Driver/Src/stm32l4xx_hal_spi.c ****   if (SPI_EndRxTransaction(hspi, Timeout, tickstart) != HAL_OK)
 1248              		.loc 1 1211 7
 1249 0220 3A69     		ldr	r2, [r7, #16]
 1250 0222 3968     		ldr	r1, [r7]
 1251 0224 F868     		ldr	r0, [r7, #12]
 1252 0226 FFF7FEFF 		bl	SPI_EndRxTransaction
 1253 022a 0346     		mov	r3, r0
 1254              		.loc 1 1211 6
 1255 022c 002B     		cmp	r3, #0
 1256 022e 02D0     		beq	.L69
1212:Drivers/STM32L4xx_HAL_Driver/Src/stm32l4xx_hal_spi.c ****   {
1213:Drivers/STM32L4xx_HAL_Driver/Src/stm32l4xx_hal_spi.c ****     hspi->ErrorCode = HAL_SPI_ERROR_FLAG;
 1257              		.loc 1 1213 21
 1258 0230 FB68     		ldr	r3, [r7, #12]
 1259 0232 2022     		movs	r2, #32
 1260 0234 1A66     		str	r2, [r3, #96]
 1261              	.L69:
1214:Drivers/STM32L4xx_HAL_Driver/Src/stm32l4xx_hal_spi.c ****   }
1215:Drivers/STM32L4xx_HAL_Driver/Src/stm32l4xx_hal_spi.c **** 
1216:Drivers/STM32L4xx_HAL_Driver/Src/stm32l4xx_hal_spi.c **** #if (USE_SPI_CRC != 0U)
1217:Drivers/STM32L4xx_HAL_Driver/Src/stm32l4xx_hal_spi.c ****   /* Check if CRC error occurred */
1218:Drivers/STM32L4xx_HAL_Driver/Src/stm32l4xx_hal_spi.c ****   if (__HAL_SPI_GET_FLAG(hspi, SPI_FLAG_CRCERR))
1219:Drivers/STM32L4xx_HAL_Driver/Src/stm32l4xx_hal_spi.c ****   {
1220:Drivers/STM32L4xx_HAL_Driver/Src/stm32l4xx_hal_spi.c ****     SET_BIT(hspi->ErrorCode, HAL_SPI_ERROR_CRC);
1221:Drivers/STM32L4xx_HAL_Driver/Src/stm32l4xx_hal_spi.c ****     __HAL_SPI_CLEAR_CRCERRFLAG(hspi);
1222:Drivers/STM32L4xx_HAL_Driver/Src/stm32l4xx_hal_spi.c ****   }
1223:Drivers/STM32L4xx_HAL_Driver/Src/stm32l4xx_hal_spi.c **** #endif /* USE_SPI_CRC */
1224:Drivers/STM32L4xx_HAL_Driver/Src/stm32l4xx_hal_spi.c **** 
1225:Drivers/STM32L4xx_HAL_Driver/Src/stm32l4xx_hal_spi.c ****   if (hspi->ErrorCode != HAL_SPI_ERROR_NONE)
 1262              		.loc 1 1225 11
 1263 0236 FB68     		ldr	r3, [r7, #12]
 1264 0238 1B6E     		ldr	r3, [r3, #96]
 1265              		.loc 1 1225 6
 1266 023a 002B     		cmp	r3, #0
 1267 023c 02D0     		beq	.L70
1226:Drivers/STM32L4xx_HAL_Driver/Src/stm32l4xx_hal_spi.c ****   {
1227:Drivers/STM32L4xx_HAL_Driver/Src/stm32l4xx_hal_spi.c ****     errorcode = HAL_ERROR;
 1268              		.loc 1 1227 15
 1269 023e 0123     		movs	r3, #1
 1270 0240 FB75     		strb	r3, [r7, #23]
 1271 0242 00E0     		b	.L50
 1272              	.L70:
1228:Drivers/STM32L4xx_HAL_Driver/Src/stm32l4xx_hal_spi.c ****   }
1229:Drivers/STM32L4xx_HAL_Driver/Src/stm32l4xx_hal_spi.c **** 
1230:Drivers/STM32L4xx_HAL_Driver/Src/stm32l4xx_hal_spi.c **** error :
 1273              		.loc 1 1230 1
 1274 0244 00BF     		nop
 1275              	.L50:
1231:Drivers/STM32L4xx_HAL_Driver/Src/stm32l4xx_hal_spi.c ****   hspi->State = HAL_SPI_STATE_READY;
 1276              		.loc 1 1231 15
 1277 0246 FB68     		ldr	r3, [r7, #12]
 1278 0248 0122     		movs	r2, #1
 1279 024a 83F85D20 		strb	r2, [r3, #93]
1232:Drivers/STM32L4xx_HAL_Driver/Src/stm32l4xx_hal_spi.c ****   __HAL_UNLOCK(hspi);
ARM GAS  C:\Users\Morroway\AppData\Local\Temp\ccCQJjHM.s 			page 45


 1280              		.loc 1 1232 3
 1281 024e FB68     		ldr	r3, [r7, #12]
 1282 0250 0022     		movs	r2, #0
 1283 0252 83F85C20 		strb	r2, [r3, #92]
1233:Drivers/STM32L4xx_HAL_Driver/Src/stm32l4xx_hal_spi.c ****   return errorcode;
 1284              		.loc 1 1233 10
 1285 0256 FB7D     		ldrb	r3, [r7, #23]	@ zero_extendqisi2
 1286              	.L47:
1234:Drivers/STM32L4xx_HAL_Driver/Src/stm32l4xx_hal_spi.c **** }
 1287              		.loc 1 1234 1
 1288 0258 1846     		mov	r0, r3
 1289 025a 1837     		adds	r7, r7, #24
 1290              		.cfi_def_cfa_offset 8
 1291 025c BD46     		mov	sp, r7
 1292              		.cfi_def_cfa_register 13
 1293              		@ sp needed
 1294 025e 80BD     		pop	{r7, pc}
 1295              		.cfi_endproc
 1296              	.LFE326:
 1298              		.section	.text.HAL_SPI_TransmitReceive,"ax",%progbits
 1299              		.align	1
 1300              		.global	HAL_SPI_TransmitReceive
 1301              		.syntax unified
 1302              		.thumb
 1303              		.thumb_func
 1305              	HAL_SPI_TransmitReceive:
 1306              	.LFB327:
1235:Drivers/STM32L4xx_HAL_Driver/Src/stm32l4xx_hal_spi.c **** 
1236:Drivers/STM32L4xx_HAL_Driver/Src/stm32l4xx_hal_spi.c **** /**
1237:Drivers/STM32L4xx_HAL_Driver/Src/stm32l4xx_hal_spi.c ****   * @brief  Transmit and Receive an amount of data in blocking mode.
1238:Drivers/STM32L4xx_HAL_Driver/Src/stm32l4xx_hal_spi.c ****   * @param  hspi pointer to a SPI_HandleTypeDef structure that contains
1239:Drivers/STM32L4xx_HAL_Driver/Src/stm32l4xx_hal_spi.c ****   *               the configuration information for SPI module.
1240:Drivers/STM32L4xx_HAL_Driver/Src/stm32l4xx_hal_spi.c ****   * @param  pTxData pointer to transmission data buffer
1241:Drivers/STM32L4xx_HAL_Driver/Src/stm32l4xx_hal_spi.c ****   * @param  pRxData pointer to reception data buffer
1242:Drivers/STM32L4xx_HAL_Driver/Src/stm32l4xx_hal_spi.c ****   * @param  Size amount of data to be sent and received
1243:Drivers/STM32L4xx_HAL_Driver/Src/stm32l4xx_hal_spi.c ****   * @param  Timeout Timeout duration
1244:Drivers/STM32L4xx_HAL_Driver/Src/stm32l4xx_hal_spi.c ****   * @retval HAL status
1245:Drivers/STM32L4xx_HAL_Driver/Src/stm32l4xx_hal_spi.c ****   */
1246:Drivers/STM32L4xx_HAL_Driver/Src/stm32l4xx_hal_spi.c **** HAL_StatusTypeDef HAL_SPI_TransmitReceive(SPI_HandleTypeDef *hspi, uint8_t *pTxData, uint8_t *pRxDa
1247:Drivers/STM32L4xx_HAL_Driver/Src/stm32l4xx_hal_spi.c ****                                           uint32_t Timeout)
1248:Drivers/STM32L4xx_HAL_Driver/Src/stm32l4xx_hal_spi.c **** {
 1307              		.loc 1 1248 1
 1308              		.cfi_startproc
 1309              		@ args = 4, pretend = 0, frame = 40
 1310              		@ frame_needed = 1, uses_anonymous_args = 0
 1311 0000 80B5     		push	{r7, lr}
 1312              		.cfi_def_cfa_offset 8
 1313              		.cfi_offset 7, -8
 1314              		.cfi_offset 14, -4
 1315 0002 8AB0     		sub	sp, sp, #40
 1316              		.cfi_def_cfa_offset 48
 1317 0004 00AF     		add	r7, sp, #0
 1318              		.cfi_def_cfa_register 7
 1319 0006 F860     		str	r0, [r7, #12]
 1320 0008 B960     		str	r1, [r7, #8]
 1321 000a 7A60     		str	r2, [r7, #4]
 1322 000c 7B80     		strh	r3, [r7, #2]	@ movhi
ARM GAS  C:\Users\Morroway\AppData\Local\Temp\ccCQJjHM.s 			page 46


1249:Drivers/STM32L4xx_HAL_Driver/Src/stm32l4xx_hal_spi.c ****   uint16_t             initial_TxXferCount;
1250:Drivers/STM32L4xx_HAL_Driver/Src/stm32l4xx_hal_spi.c ****   uint16_t             initial_RxXferCount;
1251:Drivers/STM32L4xx_HAL_Driver/Src/stm32l4xx_hal_spi.c ****   uint32_t             tmp_mode;
1252:Drivers/STM32L4xx_HAL_Driver/Src/stm32l4xx_hal_spi.c ****   HAL_SPI_StateTypeDef tmp_state;
1253:Drivers/STM32L4xx_HAL_Driver/Src/stm32l4xx_hal_spi.c ****   uint32_t             tickstart;
1254:Drivers/STM32L4xx_HAL_Driver/Src/stm32l4xx_hal_spi.c **** #if (USE_SPI_CRC != 0U)
1255:Drivers/STM32L4xx_HAL_Driver/Src/stm32l4xx_hal_spi.c ****   __IO uint32_t tmpreg = 0U;
1256:Drivers/STM32L4xx_HAL_Driver/Src/stm32l4xx_hal_spi.c ****   uint32_t             spi_cr1;
1257:Drivers/STM32L4xx_HAL_Driver/Src/stm32l4xx_hal_spi.c ****   uint32_t             spi_cr2;
1258:Drivers/STM32L4xx_HAL_Driver/Src/stm32l4xx_hal_spi.c ****   __IO uint8_t  *ptmpreg8;
1259:Drivers/STM32L4xx_HAL_Driver/Src/stm32l4xx_hal_spi.c ****   __IO uint8_t  tmpreg8 = 0;
1260:Drivers/STM32L4xx_HAL_Driver/Src/stm32l4xx_hal_spi.c **** #endif /* USE_SPI_CRC */
1261:Drivers/STM32L4xx_HAL_Driver/Src/stm32l4xx_hal_spi.c **** 
1262:Drivers/STM32L4xx_HAL_Driver/Src/stm32l4xx_hal_spi.c ****   /* Variable used to alternate Rx and Tx during transfer */
1263:Drivers/STM32L4xx_HAL_Driver/Src/stm32l4xx_hal_spi.c ****   uint32_t             txallowed = 1U;
 1323              		.loc 1 1263 24
 1324 000e 0123     		movs	r3, #1
 1325 0010 7B62     		str	r3, [r7, #36]
1264:Drivers/STM32L4xx_HAL_Driver/Src/stm32l4xx_hal_spi.c ****   HAL_StatusTypeDef    errorcode = HAL_OK;
 1326              		.loc 1 1264 24
 1327 0012 0023     		movs	r3, #0
 1328 0014 87F82330 		strb	r3, [r7, #35]
1265:Drivers/STM32L4xx_HAL_Driver/Src/stm32l4xx_hal_spi.c **** 
1266:Drivers/STM32L4xx_HAL_Driver/Src/stm32l4xx_hal_spi.c ****   /* Check Direction parameter */
1267:Drivers/STM32L4xx_HAL_Driver/Src/stm32l4xx_hal_spi.c ****   assert_param(IS_SPI_DIRECTION_2LINES(hspi->Init.Direction));
1268:Drivers/STM32L4xx_HAL_Driver/Src/stm32l4xx_hal_spi.c **** 
1269:Drivers/STM32L4xx_HAL_Driver/Src/stm32l4xx_hal_spi.c ****   /* Process Locked */
1270:Drivers/STM32L4xx_HAL_Driver/Src/stm32l4xx_hal_spi.c ****   __HAL_LOCK(hspi);
 1329              		.loc 1 1270 3
 1330 0018 FB68     		ldr	r3, [r7, #12]
 1331 001a 93F85C30 		ldrb	r3, [r3, #92]	@ zero_extendqisi2
 1332 001e 012B     		cmp	r3, #1
 1333 0020 01D1     		bne	.L72
 1334              		.loc 1 1270 3 is_stmt 0 discriminator 1
 1335 0022 0223     		movs	r3, #2
 1336 0024 FBE1     		b	.L73
 1337              	.L72:
 1338              		.loc 1 1270 3 discriminator 2
 1339 0026 FB68     		ldr	r3, [r7, #12]
 1340 0028 0122     		movs	r2, #1
 1341 002a 83F85C20 		strb	r2, [r3, #92]
1271:Drivers/STM32L4xx_HAL_Driver/Src/stm32l4xx_hal_spi.c **** 
1272:Drivers/STM32L4xx_HAL_Driver/Src/stm32l4xx_hal_spi.c ****   /* Init tickstart for timeout management*/
1273:Drivers/STM32L4xx_HAL_Driver/Src/stm32l4xx_hal_spi.c ****   tickstart = HAL_GetTick();
 1342              		.loc 1 1273 15 is_stmt 1 discriminator 2
 1343 002e FFF7FEFF 		bl	HAL_GetTick
 1344 0032 F861     		str	r0, [r7, #28]
1274:Drivers/STM32L4xx_HAL_Driver/Src/stm32l4xx_hal_spi.c **** 
1275:Drivers/STM32L4xx_HAL_Driver/Src/stm32l4xx_hal_spi.c ****   /* Init temporary variables */
1276:Drivers/STM32L4xx_HAL_Driver/Src/stm32l4xx_hal_spi.c ****   tmp_state           = hspi->State;
 1345              		.loc 1 1276 23 discriminator 2
 1346 0034 FB68     		ldr	r3, [r7, #12]
 1347 0036 93F85D30 		ldrb	r3, [r3, #93]
 1348 003a FB76     		strb	r3, [r7, #27]
1277:Drivers/STM32L4xx_HAL_Driver/Src/stm32l4xx_hal_spi.c ****   tmp_mode            = hspi->Init.Mode;
 1349              		.loc 1 1277 23 discriminator 2
 1350 003c FB68     		ldr	r3, [r7, #12]
ARM GAS  C:\Users\Morroway\AppData\Local\Temp\ccCQJjHM.s 			page 47


 1351 003e 5B68     		ldr	r3, [r3, #4]
 1352 0040 7B61     		str	r3, [r7, #20]
1278:Drivers/STM32L4xx_HAL_Driver/Src/stm32l4xx_hal_spi.c ****   initial_TxXferCount = Size;
 1353              		.loc 1 1278 23 discriminator 2
 1354 0042 7B88     		ldrh	r3, [r7, #2]	@ movhi
 1355 0044 7B82     		strh	r3, [r7, #18]	@ movhi
1279:Drivers/STM32L4xx_HAL_Driver/Src/stm32l4xx_hal_spi.c ****   initial_RxXferCount = Size;
 1356              		.loc 1 1279 23 discriminator 2
 1357 0046 7B88     		ldrh	r3, [r7, #2]	@ movhi
 1358 0048 3B82     		strh	r3, [r7, #16]	@ movhi
1280:Drivers/STM32L4xx_HAL_Driver/Src/stm32l4xx_hal_spi.c **** #if (USE_SPI_CRC != 0U)
1281:Drivers/STM32L4xx_HAL_Driver/Src/stm32l4xx_hal_spi.c ****   spi_cr1             = READ_REG(hspi->Instance->CR1);
1282:Drivers/STM32L4xx_HAL_Driver/Src/stm32l4xx_hal_spi.c ****   spi_cr2             = READ_REG(hspi->Instance->CR2);
1283:Drivers/STM32L4xx_HAL_Driver/Src/stm32l4xx_hal_spi.c **** #endif /* USE_SPI_CRC */
1284:Drivers/STM32L4xx_HAL_Driver/Src/stm32l4xx_hal_spi.c **** 
1285:Drivers/STM32L4xx_HAL_Driver/Src/stm32l4xx_hal_spi.c ****   if (!((tmp_state == HAL_SPI_STATE_READY) || \
 1359              		.loc 1 1285 6 discriminator 2
 1360 004a FB7E     		ldrb	r3, [r7, #27]	@ zero_extendqisi2
 1361 004c 012B     		cmp	r3, #1
 1362 004e 0ED0     		beq	.L74
 1363              		.loc 1 1285 7 discriminator 1
 1364 0050 7B69     		ldr	r3, [r7, #20]
 1365 0052 B3F5827F 		cmp	r3, #260
 1366 0056 06D1     		bne	.L75
1286:Drivers/STM32L4xx_HAL_Driver/Src/stm32l4xx_hal_spi.c ****         ((tmp_mode == SPI_MODE_MASTER) && (hspi->Init.Direction == SPI_DIRECTION_2LINES) && (tmp_st
 1367              		.loc 1 1286 54
 1368 0058 FB68     		ldr	r3, [r7, #12]
 1369 005a 9B68     		ldr	r3, [r3, #8]
 1370              		.loc 1 1286 40
 1371 005c 002B     		cmp	r3, #0
 1372 005e 02D1     		bne	.L75
 1373              		.loc 1 1286 90 discriminator 1
 1374 0060 FB7E     		ldrb	r3, [r7, #27]	@ zero_extendqisi2
 1375 0062 042B     		cmp	r3, #4
 1376 0064 03D0     		beq	.L74
 1377              	.L75:
1287:Drivers/STM32L4xx_HAL_Driver/Src/stm32l4xx_hal_spi.c ****   {
1288:Drivers/STM32L4xx_HAL_Driver/Src/stm32l4xx_hal_spi.c ****     errorcode = HAL_BUSY;
 1378              		.loc 1 1288 15
 1379 0066 0223     		movs	r3, #2
 1380 0068 87F82330 		strb	r3, [r7, #35]
1289:Drivers/STM32L4xx_HAL_Driver/Src/stm32l4xx_hal_spi.c ****     goto error;
 1381              		.loc 1 1289 5
 1382 006c CDE1     		b	.L76
 1383              	.L74:
1290:Drivers/STM32L4xx_HAL_Driver/Src/stm32l4xx_hal_spi.c ****   }
1291:Drivers/STM32L4xx_HAL_Driver/Src/stm32l4xx_hal_spi.c **** 
1292:Drivers/STM32L4xx_HAL_Driver/Src/stm32l4xx_hal_spi.c ****   if ((pTxData == NULL) || (pRxData == NULL) || (Size == 0U))
 1384              		.loc 1 1292 6
 1385 006e BB68     		ldr	r3, [r7, #8]
 1386 0070 002B     		cmp	r3, #0
 1387 0072 05D0     		beq	.L77
 1388              		.loc 1 1292 25 discriminator 1
 1389 0074 7B68     		ldr	r3, [r7, #4]
 1390 0076 002B     		cmp	r3, #0
 1391 0078 02D0     		beq	.L77
 1392              		.loc 1 1292 46 discriminator 2
ARM GAS  C:\Users\Morroway\AppData\Local\Temp\ccCQJjHM.s 			page 48


 1393 007a 7B88     		ldrh	r3, [r7, #2]
 1394 007c 002B     		cmp	r3, #0
 1395 007e 03D1     		bne	.L78
 1396              	.L77:
1293:Drivers/STM32L4xx_HAL_Driver/Src/stm32l4xx_hal_spi.c ****   {
1294:Drivers/STM32L4xx_HAL_Driver/Src/stm32l4xx_hal_spi.c ****     errorcode = HAL_ERROR;
 1397              		.loc 1 1294 15
 1398 0080 0123     		movs	r3, #1
 1399 0082 87F82330 		strb	r3, [r7, #35]
1295:Drivers/STM32L4xx_HAL_Driver/Src/stm32l4xx_hal_spi.c ****     goto error;
 1400              		.loc 1 1295 5
 1401 0086 C0E1     		b	.L76
 1402              	.L78:
1296:Drivers/STM32L4xx_HAL_Driver/Src/stm32l4xx_hal_spi.c ****   }
1297:Drivers/STM32L4xx_HAL_Driver/Src/stm32l4xx_hal_spi.c **** 
1298:Drivers/STM32L4xx_HAL_Driver/Src/stm32l4xx_hal_spi.c ****   /* Don't overwrite in case of HAL_SPI_STATE_BUSY_RX */
1299:Drivers/STM32L4xx_HAL_Driver/Src/stm32l4xx_hal_spi.c ****   if (hspi->State != HAL_SPI_STATE_BUSY_RX)
 1403              		.loc 1 1299 11
 1404 0088 FB68     		ldr	r3, [r7, #12]
 1405 008a 93F85D30 		ldrb	r3, [r3, #93]
 1406 008e DBB2     		uxtb	r3, r3
 1407              		.loc 1 1299 6
 1408 0090 042B     		cmp	r3, #4
 1409 0092 03D0     		beq	.L79
1300:Drivers/STM32L4xx_HAL_Driver/Src/stm32l4xx_hal_spi.c ****   {
1301:Drivers/STM32L4xx_HAL_Driver/Src/stm32l4xx_hal_spi.c ****     hspi->State = HAL_SPI_STATE_BUSY_TX_RX;
 1410              		.loc 1 1301 17
 1411 0094 FB68     		ldr	r3, [r7, #12]
 1412 0096 0522     		movs	r2, #5
 1413 0098 83F85D20 		strb	r2, [r3, #93]
 1414              	.L79:
1302:Drivers/STM32L4xx_HAL_Driver/Src/stm32l4xx_hal_spi.c ****   }
1303:Drivers/STM32L4xx_HAL_Driver/Src/stm32l4xx_hal_spi.c **** 
1304:Drivers/STM32L4xx_HAL_Driver/Src/stm32l4xx_hal_spi.c ****   /* Set the transaction information */
1305:Drivers/STM32L4xx_HAL_Driver/Src/stm32l4xx_hal_spi.c ****   hspi->ErrorCode   = HAL_SPI_ERROR_NONE;
 1415              		.loc 1 1305 21
 1416 009c FB68     		ldr	r3, [r7, #12]
 1417 009e 0022     		movs	r2, #0
 1418 00a0 1A66     		str	r2, [r3, #96]
1306:Drivers/STM32L4xx_HAL_Driver/Src/stm32l4xx_hal_spi.c ****   hspi->pRxBuffPtr  = (uint8_t *)pRxData;
 1419              		.loc 1 1306 21
 1420 00a2 FB68     		ldr	r3, [r7, #12]
 1421 00a4 7A68     		ldr	r2, [r7, #4]
 1422 00a6 1A64     		str	r2, [r3, #64]
1307:Drivers/STM32L4xx_HAL_Driver/Src/stm32l4xx_hal_spi.c ****   hspi->RxXferCount = Size;
 1423              		.loc 1 1307 21
 1424 00a8 FB68     		ldr	r3, [r7, #12]
 1425 00aa 7A88     		ldrh	r2, [r7, #2]	@ movhi
 1426 00ac A3F84620 		strh	r2, [r3, #70]	@ movhi
1308:Drivers/STM32L4xx_HAL_Driver/Src/stm32l4xx_hal_spi.c ****   hspi->RxXferSize  = Size;
 1427              		.loc 1 1308 21
 1428 00b0 FB68     		ldr	r3, [r7, #12]
 1429 00b2 7A88     		ldrh	r2, [r7, #2]	@ movhi
 1430 00b4 A3F84420 		strh	r2, [r3, #68]	@ movhi
1309:Drivers/STM32L4xx_HAL_Driver/Src/stm32l4xx_hal_spi.c ****   hspi->pTxBuffPtr  = (uint8_t *)pTxData;
 1431              		.loc 1 1309 21
 1432 00b8 FB68     		ldr	r3, [r7, #12]
ARM GAS  C:\Users\Morroway\AppData\Local\Temp\ccCQJjHM.s 			page 49


 1433 00ba BA68     		ldr	r2, [r7, #8]
 1434 00bc 9A63     		str	r2, [r3, #56]
1310:Drivers/STM32L4xx_HAL_Driver/Src/stm32l4xx_hal_spi.c ****   hspi->TxXferCount = Size;
 1435              		.loc 1 1310 21
 1436 00be FB68     		ldr	r3, [r7, #12]
 1437 00c0 7A88     		ldrh	r2, [r7, #2]	@ movhi
 1438 00c2 DA87     		strh	r2, [r3, #62]	@ movhi
1311:Drivers/STM32L4xx_HAL_Driver/Src/stm32l4xx_hal_spi.c ****   hspi->TxXferSize  = Size;
 1439              		.loc 1 1311 21
 1440 00c4 FB68     		ldr	r3, [r7, #12]
 1441 00c6 7A88     		ldrh	r2, [r7, #2]	@ movhi
 1442 00c8 9A87     		strh	r2, [r3, #60]	@ movhi
1312:Drivers/STM32L4xx_HAL_Driver/Src/stm32l4xx_hal_spi.c **** 
1313:Drivers/STM32L4xx_HAL_Driver/Src/stm32l4xx_hal_spi.c ****   /*Init field not used in handle to zero */
1314:Drivers/STM32L4xx_HAL_Driver/Src/stm32l4xx_hal_spi.c ****   hspi->RxISR       = NULL;
 1443              		.loc 1 1314 21
 1444 00ca FB68     		ldr	r3, [r7, #12]
 1445 00cc 0022     		movs	r2, #0
 1446 00ce DA64     		str	r2, [r3, #76]
1315:Drivers/STM32L4xx_HAL_Driver/Src/stm32l4xx_hal_spi.c ****   hspi->TxISR       = NULL;
 1447              		.loc 1 1315 21
 1448 00d0 FB68     		ldr	r3, [r7, #12]
 1449 00d2 0022     		movs	r2, #0
 1450 00d4 1A65     		str	r2, [r3, #80]
1316:Drivers/STM32L4xx_HAL_Driver/Src/stm32l4xx_hal_spi.c **** 
1317:Drivers/STM32L4xx_HAL_Driver/Src/stm32l4xx_hal_spi.c **** #if (USE_SPI_CRC != 0U)
1318:Drivers/STM32L4xx_HAL_Driver/Src/stm32l4xx_hal_spi.c ****   /* Reset CRC Calculation */
1319:Drivers/STM32L4xx_HAL_Driver/Src/stm32l4xx_hal_spi.c ****   if (hspi->Init.CRCCalculation == SPI_CRCCALCULATION_ENABLE)
1320:Drivers/STM32L4xx_HAL_Driver/Src/stm32l4xx_hal_spi.c ****   {
1321:Drivers/STM32L4xx_HAL_Driver/Src/stm32l4xx_hal_spi.c ****     SPI_RESET_CRC(hspi);
1322:Drivers/STM32L4xx_HAL_Driver/Src/stm32l4xx_hal_spi.c ****   }
1323:Drivers/STM32L4xx_HAL_Driver/Src/stm32l4xx_hal_spi.c **** #endif /* USE_SPI_CRC */
1324:Drivers/STM32L4xx_HAL_Driver/Src/stm32l4xx_hal_spi.c **** 
1325:Drivers/STM32L4xx_HAL_Driver/Src/stm32l4xx_hal_spi.c ****   /* Set the Rx Fifo threshold */
1326:Drivers/STM32L4xx_HAL_Driver/Src/stm32l4xx_hal_spi.c ****   if ((hspi->Init.DataSize > SPI_DATASIZE_8BIT) || (initial_RxXferCount > 1U))
 1451              		.loc 1 1326 18
 1452 00d6 FB68     		ldr	r3, [r7, #12]
 1453 00d8 DB68     		ldr	r3, [r3, #12]
 1454              		.loc 1 1326 6
 1455 00da B3F5E06F 		cmp	r3, #1792
 1456 00de 02D8     		bhi	.L80
 1457              		.loc 1 1326 49 discriminator 1
 1458 00e0 3B8A     		ldrh	r3, [r7, #16]
 1459 00e2 012B     		cmp	r3, #1
 1460 00e4 08D9     		bls	.L81
 1461              	.L80:
1327:Drivers/STM32L4xx_HAL_Driver/Src/stm32l4xx_hal_spi.c ****   {
1328:Drivers/STM32L4xx_HAL_Driver/Src/stm32l4xx_hal_spi.c ****     /* Set fiforxthreshold according the reception data length: 16bit */
1329:Drivers/STM32L4xx_HAL_Driver/Src/stm32l4xx_hal_spi.c ****     CLEAR_BIT(hspi->Instance->CR2, SPI_RXFIFO_THRESHOLD);
 1462              		.loc 1 1329 5
 1463 00e6 FB68     		ldr	r3, [r7, #12]
 1464 00e8 1B68     		ldr	r3, [r3]
 1465 00ea 5A68     		ldr	r2, [r3, #4]
 1466 00ec FB68     		ldr	r3, [r7, #12]
 1467 00ee 1B68     		ldr	r3, [r3]
 1468 00f0 22F48052 		bic	r2, r2, #4096
 1469 00f4 5A60     		str	r2, [r3, #4]
ARM GAS  C:\Users\Morroway\AppData\Local\Temp\ccCQJjHM.s 			page 50


 1470 00f6 07E0     		b	.L82
 1471              	.L81:
1330:Drivers/STM32L4xx_HAL_Driver/Src/stm32l4xx_hal_spi.c ****   }
1331:Drivers/STM32L4xx_HAL_Driver/Src/stm32l4xx_hal_spi.c ****   else
1332:Drivers/STM32L4xx_HAL_Driver/Src/stm32l4xx_hal_spi.c ****   {
1333:Drivers/STM32L4xx_HAL_Driver/Src/stm32l4xx_hal_spi.c ****     /* Set fiforxthreshold according the reception data length: 8bit */
1334:Drivers/STM32L4xx_HAL_Driver/Src/stm32l4xx_hal_spi.c ****     SET_BIT(hspi->Instance->CR2, SPI_RXFIFO_THRESHOLD);
 1472              		.loc 1 1334 5
 1473 00f8 FB68     		ldr	r3, [r7, #12]
 1474 00fa 1B68     		ldr	r3, [r3]
 1475 00fc 5A68     		ldr	r2, [r3, #4]
 1476 00fe FB68     		ldr	r3, [r7, #12]
 1477 0100 1B68     		ldr	r3, [r3]
 1478 0102 42F48052 		orr	r2, r2, #4096
 1479 0106 5A60     		str	r2, [r3, #4]
 1480              	.L82:
1335:Drivers/STM32L4xx_HAL_Driver/Src/stm32l4xx_hal_spi.c ****   }
1336:Drivers/STM32L4xx_HAL_Driver/Src/stm32l4xx_hal_spi.c **** 
1337:Drivers/STM32L4xx_HAL_Driver/Src/stm32l4xx_hal_spi.c ****   /* Check if the SPI is already enabled */
1338:Drivers/STM32L4xx_HAL_Driver/Src/stm32l4xx_hal_spi.c ****   if ((hspi->Instance->CR1 & SPI_CR1_SPE) != SPI_CR1_SPE)
 1481              		.loc 1 1338 12
 1482 0108 FB68     		ldr	r3, [r7, #12]
 1483 010a 1B68     		ldr	r3, [r3]
 1484              		.loc 1 1338 22
 1485 010c 1B68     		ldr	r3, [r3]
 1486              		.loc 1 1338 28
 1487 010e 03F04003 		and	r3, r3, #64
 1488              		.loc 1 1338 6
 1489 0112 402B     		cmp	r3, #64
 1490 0114 07D0     		beq	.L83
1339:Drivers/STM32L4xx_HAL_Driver/Src/stm32l4xx_hal_spi.c ****   {
1340:Drivers/STM32L4xx_HAL_Driver/Src/stm32l4xx_hal_spi.c ****     /* Enable SPI peripheral */
1341:Drivers/STM32L4xx_HAL_Driver/Src/stm32l4xx_hal_spi.c ****     __HAL_SPI_ENABLE(hspi);
 1491              		.loc 1 1341 5
 1492 0116 FB68     		ldr	r3, [r7, #12]
 1493 0118 1B68     		ldr	r3, [r3]
 1494 011a 1A68     		ldr	r2, [r3]
 1495 011c FB68     		ldr	r3, [r7, #12]
 1496 011e 1B68     		ldr	r3, [r3]
 1497 0120 42F04002 		orr	r2, r2, #64
 1498 0124 1A60     		str	r2, [r3]
 1499              	.L83:
1342:Drivers/STM32L4xx_HAL_Driver/Src/stm32l4xx_hal_spi.c ****   }
1343:Drivers/STM32L4xx_HAL_Driver/Src/stm32l4xx_hal_spi.c **** 
1344:Drivers/STM32L4xx_HAL_Driver/Src/stm32l4xx_hal_spi.c ****   /* Transmit and Receive data in 16 Bit mode */
1345:Drivers/STM32L4xx_HAL_Driver/Src/stm32l4xx_hal_spi.c ****   if (hspi->Init.DataSize > SPI_DATASIZE_8BIT)
 1500              		.loc 1 1345 17
 1501 0126 FB68     		ldr	r3, [r7, #12]
 1502 0128 DB68     		ldr	r3, [r3, #12]
 1503              		.loc 1 1345 6
 1504 012a B3F5E06F 		cmp	r3, #1792
 1505 012e 7CD9     		bls	.L84
1346:Drivers/STM32L4xx_HAL_Driver/Src/stm32l4xx_hal_spi.c ****   {
1347:Drivers/STM32L4xx_HAL_Driver/Src/stm32l4xx_hal_spi.c ****     if ((hspi->Init.Mode == SPI_MODE_SLAVE) || (initial_TxXferCount == 0x01U))
 1506              		.loc 1 1347 20
 1507 0130 FB68     		ldr	r3, [r7, #12]
 1508 0132 5B68     		ldr	r3, [r3, #4]
ARM GAS  C:\Users\Morroway\AppData\Local\Temp\ccCQJjHM.s 			page 51


 1509              		.loc 1 1347 8
 1510 0134 002B     		cmp	r3, #0
 1511 0136 02D0     		beq	.L85
 1512              		.loc 1 1347 45 discriminator 1
 1513 0138 7B8A     		ldrh	r3, [r7, #18]
 1514 013a 012B     		cmp	r3, #1
 1515 013c 69D1     		bne	.L87
 1516              	.L85:
1348:Drivers/STM32L4xx_HAL_Driver/Src/stm32l4xx_hal_spi.c ****     {
1349:Drivers/STM32L4xx_HAL_Driver/Src/stm32l4xx_hal_spi.c ****       hspi->Instance->DR = *((uint16_t *)hspi->pTxBuffPtr);
 1517              		.loc 1 1349 46
 1518 013e FB68     		ldr	r3, [r7, #12]
 1519 0140 9B6B     		ldr	r3, [r3, #56]
 1520              		.loc 1 1349 28
 1521 0142 1A88     		ldrh	r2, [r3]
 1522              		.loc 1 1349 11
 1523 0144 FB68     		ldr	r3, [r7, #12]
 1524 0146 1B68     		ldr	r3, [r3]
 1525              		.loc 1 1349 26
 1526 0148 DA60     		str	r2, [r3, #12]
1350:Drivers/STM32L4xx_HAL_Driver/Src/stm32l4xx_hal_spi.c ****       hspi->pTxBuffPtr += sizeof(uint16_t);
 1527              		.loc 1 1350 24
 1528 014a FB68     		ldr	r3, [r7, #12]
 1529 014c 9B6B     		ldr	r3, [r3, #56]
 1530 014e 9A1C     		adds	r2, r3, #2
 1531 0150 FB68     		ldr	r3, [r7, #12]
 1532 0152 9A63     		str	r2, [r3, #56]
1351:Drivers/STM32L4xx_HAL_Driver/Src/stm32l4xx_hal_spi.c ****       hspi->TxXferCount--;
 1533              		.loc 1 1351 11
 1534 0154 FB68     		ldr	r3, [r7, #12]
 1535 0156 DB8F     		ldrh	r3, [r3, #62]	@ movhi
 1536 0158 9BB2     		uxth	r3, r3
 1537              		.loc 1 1351 24
 1538 015a 013B     		subs	r3, r3, #1
 1539 015c 9AB2     		uxth	r2, r3
 1540 015e FB68     		ldr	r3, [r7, #12]
 1541 0160 DA87     		strh	r2, [r3, #62]	@ movhi
1352:Drivers/STM32L4xx_HAL_Driver/Src/stm32l4xx_hal_spi.c ****     }
1353:Drivers/STM32L4xx_HAL_Driver/Src/stm32l4xx_hal_spi.c ****     while ((hspi->TxXferCount > 0U) || (hspi->RxXferCount > 0U))
 1542              		.loc 1 1353 11
 1543 0162 56E0     		b	.L87
 1544              	.L90:
1354:Drivers/STM32L4xx_HAL_Driver/Src/stm32l4xx_hal_spi.c ****     {
1355:Drivers/STM32L4xx_HAL_Driver/Src/stm32l4xx_hal_spi.c ****       /* Check TXE flag */
1356:Drivers/STM32L4xx_HAL_Driver/Src/stm32l4xx_hal_spi.c ****       if ((__HAL_SPI_GET_FLAG(hspi, SPI_FLAG_TXE)) && (hspi->TxXferCount > 0U) && (txallowed == 1U)
 1545              		.loc 1 1356 12
 1546 0164 FB68     		ldr	r3, [r7, #12]
 1547 0166 1B68     		ldr	r3, [r3]
 1548 0168 9B68     		ldr	r3, [r3, #8]
 1549 016a 03F00203 		and	r3, r3, #2
 1550              		.loc 1 1356 10
 1551 016e 022B     		cmp	r3, #2
 1552 0170 1BD1     		bne	.L88
 1553              		.loc 1 1356 60 discriminator 1
 1554 0172 FB68     		ldr	r3, [r7, #12]
 1555 0174 DB8F     		ldrh	r3, [r3, #62]	@ movhi
 1556 0176 9BB2     		uxth	r3, r3
ARM GAS  C:\Users\Morroway\AppData\Local\Temp\ccCQJjHM.s 			page 52


 1557              		.loc 1 1356 52 discriminator 1
 1558 0178 002B     		cmp	r3, #0
 1559 017a 16D0     		beq	.L88
 1560              		.loc 1 1356 80 discriminator 2
 1561 017c 7B6A     		ldr	r3, [r7, #36]
 1562 017e 012B     		cmp	r3, #1
 1563 0180 13D1     		bne	.L88
1357:Drivers/STM32L4xx_HAL_Driver/Src/stm32l4xx_hal_spi.c ****       {
1358:Drivers/STM32L4xx_HAL_Driver/Src/stm32l4xx_hal_spi.c ****         hspi->Instance->DR = *((uint16_t *)hspi->pTxBuffPtr);
 1564              		.loc 1 1358 48
 1565 0182 FB68     		ldr	r3, [r7, #12]
 1566 0184 9B6B     		ldr	r3, [r3, #56]
 1567              		.loc 1 1358 30
 1568 0186 1A88     		ldrh	r2, [r3]
 1569              		.loc 1 1358 13
 1570 0188 FB68     		ldr	r3, [r7, #12]
 1571 018a 1B68     		ldr	r3, [r3]
 1572              		.loc 1 1358 28
 1573 018c DA60     		str	r2, [r3, #12]
1359:Drivers/STM32L4xx_HAL_Driver/Src/stm32l4xx_hal_spi.c ****         hspi->pTxBuffPtr += sizeof(uint16_t);
 1574              		.loc 1 1359 26
 1575 018e FB68     		ldr	r3, [r7, #12]
 1576 0190 9B6B     		ldr	r3, [r3, #56]
 1577 0192 9A1C     		adds	r2, r3, #2
 1578 0194 FB68     		ldr	r3, [r7, #12]
 1579 0196 9A63     		str	r2, [r3, #56]
1360:Drivers/STM32L4xx_HAL_Driver/Src/stm32l4xx_hal_spi.c ****         hspi->TxXferCount--;
 1580              		.loc 1 1360 13
 1581 0198 FB68     		ldr	r3, [r7, #12]
 1582 019a DB8F     		ldrh	r3, [r3, #62]	@ movhi
 1583 019c 9BB2     		uxth	r3, r3
 1584              		.loc 1 1360 26
 1585 019e 013B     		subs	r3, r3, #1
 1586 01a0 9AB2     		uxth	r2, r3
 1587 01a2 FB68     		ldr	r3, [r7, #12]
 1588 01a4 DA87     		strh	r2, [r3, #62]	@ movhi
1361:Drivers/STM32L4xx_HAL_Driver/Src/stm32l4xx_hal_spi.c ****         /* Next Data is a reception (Rx). Tx not allowed */
1362:Drivers/STM32L4xx_HAL_Driver/Src/stm32l4xx_hal_spi.c ****         txallowed = 0U;
 1589              		.loc 1 1362 19
 1590 01a6 0023     		movs	r3, #0
 1591 01a8 7B62     		str	r3, [r7, #36]
 1592              	.L88:
1363:Drivers/STM32L4xx_HAL_Driver/Src/stm32l4xx_hal_spi.c **** 
1364:Drivers/STM32L4xx_HAL_Driver/Src/stm32l4xx_hal_spi.c **** #if (USE_SPI_CRC != 0U)
1365:Drivers/STM32L4xx_HAL_Driver/Src/stm32l4xx_hal_spi.c ****         /* Enable CRC Transmission */
1366:Drivers/STM32L4xx_HAL_Driver/Src/stm32l4xx_hal_spi.c ****         if ((hspi->TxXferCount == 0U) && (hspi->Init.CRCCalculation == SPI_CRCCALCULATION_ENABLE))
1367:Drivers/STM32L4xx_HAL_Driver/Src/stm32l4xx_hal_spi.c ****         {
1368:Drivers/STM32L4xx_HAL_Driver/Src/stm32l4xx_hal_spi.c ****           /* Set NSS Soft to received correctly the CRC on slave mode with NSS pulse activated */
1369:Drivers/STM32L4xx_HAL_Driver/Src/stm32l4xx_hal_spi.c ****           if ((READ_BIT(spi_cr1, SPI_CR1_MSTR) == 0U) && (READ_BIT(spi_cr2, SPI_CR2_NSSP) == SPI_CR
1370:Drivers/STM32L4xx_HAL_Driver/Src/stm32l4xx_hal_spi.c ****           {
1371:Drivers/STM32L4xx_HAL_Driver/Src/stm32l4xx_hal_spi.c ****             SET_BIT(hspi->Instance->CR1, SPI_CR1_SSM);
1372:Drivers/STM32L4xx_HAL_Driver/Src/stm32l4xx_hal_spi.c ****           }
1373:Drivers/STM32L4xx_HAL_Driver/Src/stm32l4xx_hal_spi.c ****           SET_BIT(hspi->Instance->CR1, SPI_CR1_CRCNEXT);
1374:Drivers/STM32L4xx_HAL_Driver/Src/stm32l4xx_hal_spi.c ****         }
1375:Drivers/STM32L4xx_HAL_Driver/Src/stm32l4xx_hal_spi.c **** #endif /* USE_SPI_CRC */
1376:Drivers/STM32L4xx_HAL_Driver/Src/stm32l4xx_hal_spi.c ****       }
1377:Drivers/STM32L4xx_HAL_Driver/Src/stm32l4xx_hal_spi.c **** 
ARM GAS  C:\Users\Morroway\AppData\Local\Temp\ccCQJjHM.s 			page 53


1378:Drivers/STM32L4xx_HAL_Driver/Src/stm32l4xx_hal_spi.c ****       /* Check RXNE flag */
1379:Drivers/STM32L4xx_HAL_Driver/Src/stm32l4xx_hal_spi.c ****       if ((__HAL_SPI_GET_FLAG(hspi, SPI_FLAG_RXNE)) && (hspi->RxXferCount > 0U))
 1593              		.loc 1 1379 12
 1594 01aa FB68     		ldr	r3, [r7, #12]
 1595 01ac 1B68     		ldr	r3, [r3]
 1596 01ae 9B68     		ldr	r3, [r3, #8]
 1597 01b0 03F00103 		and	r3, r3, #1
 1598              		.loc 1 1379 10
 1599 01b4 012B     		cmp	r3, #1
 1600 01b6 1CD1     		bne	.L89
 1601              		.loc 1 1379 61 discriminator 1
 1602 01b8 FB68     		ldr	r3, [r7, #12]
 1603 01ba B3F84630 		ldrh	r3, [r3, #70]	@ movhi
 1604 01be 9BB2     		uxth	r3, r3
 1605              		.loc 1 1379 53 discriminator 1
 1606 01c0 002B     		cmp	r3, #0
 1607 01c2 16D0     		beq	.L89
1380:Drivers/STM32L4xx_HAL_Driver/Src/stm32l4xx_hal_spi.c ****       {
1381:Drivers/STM32L4xx_HAL_Driver/Src/stm32l4xx_hal_spi.c ****         *((uint16_t *)hspi->pRxBuffPtr) = (uint16_t)hspi->Instance->DR;
 1608              		.loc 1 1381 57
 1609 01c4 FB68     		ldr	r3, [r7, #12]
 1610 01c6 1B68     		ldr	r3, [r3]
 1611              		.loc 1 1381 67
 1612 01c8 DA68     		ldr	r2, [r3, #12]
 1613              		.loc 1 1381 27
 1614 01ca FB68     		ldr	r3, [r7, #12]
 1615 01cc 1B6C     		ldr	r3, [r3, #64]
 1616              		.loc 1 1381 43
 1617 01ce 92B2     		uxth	r2, r2
 1618              		.loc 1 1381 41
 1619 01d0 1A80     		strh	r2, [r3]	@ movhi
1382:Drivers/STM32L4xx_HAL_Driver/Src/stm32l4xx_hal_spi.c ****         hspi->pRxBuffPtr += sizeof(uint16_t);
 1620              		.loc 1 1382 26
 1621 01d2 FB68     		ldr	r3, [r7, #12]
 1622 01d4 1B6C     		ldr	r3, [r3, #64]
 1623 01d6 9A1C     		adds	r2, r3, #2
 1624 01d8 FB68     		ldr	r3, [r7, #12]
 1625 01da 1A64     		str	r2, [r3, #64]
1383:Drivers/STM32L4xx_HAL_Driver/Src/stm32l4xx_hal_spi.c ****         hspi->RxXferCount--;
 1626              		.loc 1 1383 13
 1627 01dc FB68     		ldr	r3, [r7, #12]
 1628 01de B3F84630 		ldrh	r3, [r3, #70]	@ movhi
 1629 01e2 9BB2     		uxth	r3, r3
 1630              		.loc 1 1383 26
 1631 01e4 013B     		subs	r3, r3, #1
 1632 01e6 9AB2     		uxth	r2, r3
 1633 01e8 FB68     		ldr	r3, [r7, #12]
 1634 01ea A3F84620 		strh	r2, [r3, #70]	@ movhi
1384:Drivers/STM32L4xx_HAL_Driver/Src/stm32l4xx_hal_spi.c ****         /* Next Data is a Transmission (Tx). Tx is allowed */
1385:Drivers/STM32L4xx_HAL_Driver/Src/stm32l4xx_hal_spi.c ****         txallowed = 1U;
 1635              		.loc 1 1385 19
 1636 01ee 0123     		movs	r3, #1
 1637 01f0 7B62     		str	r3, [r7, #36]
 1638              	.L89:
1386:Drivers/STM32L4xx_HAL_Driver/Src/stm32l4xx_hal_spi.c ****       }
1387:Drivers/STM32L4xx_HAL_Driver/Src/stm32l4xx_hal_spi.c ****       if (((HAL_GetTick() - tickstart) >=  Timeout) && (Timeout != HAL_MAX_DELAY))
 1639              		.loc 1 1387 13
ARM GAS  C:\Users\Morroway\AppData\Local\Temp\ccCQJjHM.s 			page 54


 1640 01f2 FFF7FEFF 		bl	HAL_GetTick
 1641 01f6 0246     		mov	r2, r0
 1642              		.loc 1 1387 27
 1643 01f8 FB69     		ldr	r3, [r7, #28]
 1644 01fa D31A     		subs	r3, r2, r3
 1645              		.loc 1 1387 10
 1646 01fc 3A6B     		ldr	r2, [r7, #48]
 1647 01fe 9A42     		cmp	r2, r3
 1648 0200 07D8     		bhi	.L87
 1649              		.loc 1 1387 53 discriminator 1
 1650 0202 3B6B     		ldr	r3, [r7, #48]
 1651 0204 B3F1FF3F 		cmp	r3, #-1
 1652 0208 03D0     		beq	.L87
1388:Drivers/STM32L4xx_HAL_Driver/Src/stm32l4xx_hal_spi.c ****       {
1389:Drivers/STM32L4xx_HAL_Driver/Src/stm32l4xx_hal_spi.c ****         errorcode = HAL_TIMEOUT;
 1653              		.loc 1 1389 19
 1654 020a 0323     		movs	r3, #3
 1655 020c 87F82330 		strb	r3, [r7, #35]
1390:Drivers/STM32L4xx_HAL_Driver/Src/stm32l4xx_hal_spi.c ****         goto error;
 1656              		.loc 1 1390 9
 1657 0210 FBE0     		b	.L76
 1658              	.L87:
1353:Drivers/STM32L4xx_HAL_Driver/Src/stm32l4xx_hal_spi.c ****     {
 1659              		.loc 1 1353 17
 1660 0212 FB68     		ldr	r3, [r7, #12]
 1661 0214 DB8F     		ldrh	r3, [r3, #62]	@ movhi
 1662 0216 9BB2     		uxth	r3, r3
1353:Drivers/STM32L4xx_HAL_Driver/Src/stm32l4xx_hal_spi.c ****     {
 1663              		.loc 1 1353 37
 1664 0218 002B     		cmp	r3, #0
 1665 021a A3D1     		bne	.L90
1353:Drivers/STM32L4xx_HAL_Driver/Src/stm32l4xx_hal_spi.c ****     {
 1666              		.loc 1 1353 45 discriminator 1
 1667 021c FB68     		ldr	r3, [r7, #12]
 1668 021e B3F84630 		ldrh	r3, [r3, #70]	@ movhi
 1669 0222 9BB2     		uxth	r3, r3
1353:Drivers/STM32L4xx_HAL_Driver/Src/stm32l4xx_hal_spi.c ****     {
 1670              		.loc 1 1353 37 discriminator 1
 1671 0224 002B     		cmp	r3, #0
 1672 0226 9DD1     		bne	.L90
 1673 0228 DFE0     		b	.L91
 1674              	.L84:
1391:Drivers/STM32L4xx_HAL_Driver/Src/stm32l4xx_hal_spi.c ****       }
1392:Drivers/STM32L4xx_HAL_Driver/Src/stm32l4xx_hal_spi.c ****     }
1393:Drivers/STM32L4xx_HAL_Driver/Src/stm32l4xx_hal_spi.c ****   }
1394:Drivers/STM32L4xx_HAL_Driver/Src/stm32l4xx_hal_spi.c ****   /* Transmit and Receive data in 8 Bit mode */
1395:Drivers/STM32L4xx_HAL_Driver/Src/stm32l4xx_hal_spi.c ****   else
1396:Drivers/STM32L4xx_HAL_Driver/Src/stm32l4xx_hal_spi.c ****   {
1397:Drivers/STM32L4xx_HAL_Driver/Src/stm32l4xx_hal_spi.c ****     if ((hspi->Init.Mode == SPI_MODE_SLAVE) || (initial_TxXferCount == 0x01U))
 1675              		.loc 1 1397 20
 1676 022a FB68     		ldr	r3, [r7, #12]
 1677 022c 5B68     		ldr	r3, [r3, #4]
 1678              		.loc 1 1397 8
 1679 022e 002B     		cmp	r3, #0
 1680 0230 03D0     		beq	.L92
 1681              		.loc 1 1397 45 discriminator 1
 1682 0232 7B8A     		ldrh	r3, [r7, #18]
ARM GAS  C:\Users\Morroway\AppData\Local\Temp\ccCQJjHM.s 			page 55


 1683 0234 012B     		cmp	r3, #1
 1684 0236 40F0CB80 		bne	.L95
 1685              	.L92:
1398:Drivers/STM32L4xx_HAL_Driver/Src/stm32l4xx_hal_spi.c ****     {
1399:Drivers/STM32L4xx_HAL_Driver/Src/stm32l4xx_hal_spi.c ****       if (hspi->TxXferCount > 1U)
 1686              		.loc 1 1399 15
 1687 023a FB68     		ldr	r3, [r7, #12]
 1688 023c DB8F     		ldrh	r3, [r3, #62]	@ movhi
 1689 023e 9BB2     		uxth	r3, r3
 1690              		.loc 1 1399 10
 1691 0240 012B     		cmp	r3, #1
 1692 0242 12D9     		bls	.L94
1400:Drivers/STM32L4xx_HAL_Driver/Src/stm32l4xx_hal_spi.c ****       {
1401:Drivers/STM32L4xx_HAL_Driver/Src/stm32l4xx_hal_spi.c ****         hspi->Instance->DR = *((uint16_t *)hspi->pTxBuffPtr);
 1693              		.loc 1 1401 48
 1694 0244 FB68     		ldr	r3, [r7, #12]
 1695 0246 9B6B     		ldr	r3, [r3, #56]
 1696              		.loc 1 1401 30
 1697 0248 1A88     		ldrh	r2, [r3]
 1698              		.loc 1 1401 13
 1699 024a FB68     		ldr	r3, [r7, #12]
 1700 024c 1B68     		ldr	r3, [r3]
 1701              		.loc 1 1401 28
 1702 024e DA60     		str	r2, [r3, #12]
1402:Drivers/STM32L4xx_HAL_Driver/Src/stm32l4xx_hal_spi.c ****         hspi->pTxBuffPtr += sizeof(uint16_t);
 1703              		.loc 1 1402 26
 1704 0250 FB68     		ldr	r3, [r7, #12]
 1705 0252 9B6B     		ldr	r3, [r3, #56]
 1706 0254 9A1C     		adds	r2, r3, #2
 1707 0256 FB68     		ldr	r3, [r7, #12]
 1708 0258 9A63     		str	r2, [r3, #56]
1403:Drivers/STM32L4xx_HAL_Driver/Src/stm32l4xx_hal_spi.c ****         hspi->TxXferCount -= 2U;
 1709              		.loc 1 1403 27
 1710 025a FB68     		ldr	r3, [r7, #12]
 1711 025c DB8F     		ldrh	r3, [r3, #62]	@ movhi
 1712 025e 9BB2     		uxth	r3, r3
 1713 0260 023B     		subs	r3, r3, #2
 1714 0262 9AB2     		uxth	r2, r3
 1715 0264 FB68     		ldr	r3, [r7, #12]
 1716 0266 DA87     		strh	r2, [r3, #62]	@ movhi
 1717 0268 B2E0     		b	.L95
 1718              	.L94:
1404:Drivers/STM32L4xx_HAL_Driver/Src/stm32l4xx_hal_spi.c ****       }
1405:Drivers/STM32L4xx_HAL_Driver/Src/stm32l4xx_hal_spi.c ****       else
1406:Drivers/STM32L4xx_HAL_Driver/Src/stm32l4xx_hal_spi.c ****       {
1407:Drivers/STM32L4xx_HAL_Driver/Src/stm32l4xx_hal_spi.c ****         *(__IO uint8_t *)&hspi->Instance->DR = (*hspi->pTxBuffPtr);
 1719              		.loc 1 1407 54
 1720 026a FB68     		ldr	r3, [r7, #12]
 1721 026c 9A6B     		ldr	r2, [r3, #56]
 1722              		.loc 1 1407 31
 1723 026e FB68     		ldr	r3, [r7, #12]
 1724 0270 1B68     		ldr	r3, [r3]
 1725              		.loc 1 1407 26
 1726 0272 0C33     		adds	r3, r3, #12
 1727              		.loc 1 1407 49
 1728 0274 1278     		ldrb	r2, [r2]	@ zero_extendqisi2
 1729              		.loc 1 1407 46
ARM GAS  C:\Users\Morroway\AppData\Local\Temp\ccCQJjHM.s 			page 56


 1730 0276 1A70     		strb	r2, [r3]
1408:Drivers/STM32L4xx_HAL_Driver/Src/stm32l4xx_hal_spi.c ****         hspi->pTxBuffPtr++;
 1731              		.loc 1 1408 13
 1732 0278 FB68     		ldr	r3, [r7, #12]
 1733 027a 9B6B     		ldr	r3, [r3, #56]
 1734              		.loc 1 1408 25
 1735 027c 5A1C     		adds	r2, r3, #1
 1736 027e FB68     		ldr	r3, [r7, #12]
 1737 0280 9A63     		str	r2, [r3, #56]
1409:Drivers/STM32L4xx_HAL_Driver/Src/stm32l4xx_hal_spi.c ****         hspi->TxXferCount--;
 1738              		.loc 1 1409 13
 1739 0282 FB68     		ldr	r3, [r7, #12]
 1740 0284 DB8F     		ldrh	r3, [r3, #62]	@ movhi
 1741 0286 9BB2     		uxth	r3, r3
 1742              		.loc 1 1409 26
 1743 0288 013B     		subs	r3, r3, #1
 1744 028a 9AB2     		uxth	r2, r3
 1745 028c FB68     		ldr	r3, [r7, #12]
 1746 028e DA87     		strh	r2, [r3, #62]	@ movhi
1410:Drivers/STM32L4xx_HAL_Driver/Src/stm32l4xx_hal_spi.c ****       }
1411:Drivers/STM32L4xx_HAL_Driver/Src/stm32l4xx_hal_spi.c ****     }
1412:Drivers/STM32L4xx_HAL_Driver/Src/stm32l4xx_hal_spi.c ****     while ((hspi->TxXferCount > 0U) || (hspi->RxXferCount > 0U))
 1747              		.loc 1 1412 11
 1748 0290 9EE0     		b	.L95
 1749              	.L104:
1413:Drivers/STM32L4xx_HAL_Driver/Src/stm32l4xx_hal_spi.c ****     {
1414:Drivers/STM32L4xx_HAL_Driver/Src/stm32l4xx_hal_spi.c ****       /* Check TXE flag */
1415:Drivers/STM32L4xx_HAL_Driver/Src/stm32l4xx_hal_spi.c ****       if ((__HAL_SPI_GET_FLAG(hspi, SPI_FLAG_TXE)) && (hspi->TxXferCount > 0U) && (txallowed == 1U)
 1750              		.loc 1 1415 12
 1751 0292 FB68     		ldr	r3, [r7, #12]
 1752 0294 1B68     		ldr	r3, [r3]
 1753 0296 9B68     		ldr	r3, [r3, #8]
 1754 0298 03F00203 		and	r3, r3, #2
 1755              		.loc 1 1415 10
 1756 029c 022B     		cmp	r3, #2
 1757 029e 34D1     		bne	.L96
 1758              		.loc 1 1415 60 discriminator 1
 1759 02a0 FB68     		ldr	r3, [r7, #12]
 1760 02a2 DB8F     		ldrh	r3, [r3, #62]	@ movhi
 1761 02a4 9BB2     		uxth	r3, r3
 1762              		.loc 1 1415 52 discriminator 1
 1763 02a6 002B     		cmp	r3, #0
 1764 02a8 2FD0     		beq	.L96
 1765              		.loc 1 1415 80 discriminator 2
 1766 02aa 7B6A     		ldr	r3, [r7, #36]
 1767 02ac 012B     		cmp	r3, #1
 1768 02ae 2CD1     		bne	.L96
1416:Drivers/STM32L4xx_HAL_Driver/Src/stm32l4xx_hal_spi.c ****       {
1417:Drivers/STM32L4xx_HAL_Driver/Src/stm32l4xx_hal_spi.c ****         if (hspi->TxXferCount > 1U)
 1769              		.loc 1 1417 17
 1770 02b0 FB68     		ldr	r3, [r7, #12]
 1771 02b2 DB8F     		ldrh	r3, [r3, #62]	@ movhi
 1772 02b4 9BB2     		uxth	r3, r3
 1773              		.loc 1 1417 12
 1774 02b6 012B     		cmp	r3, #1
 1775 02b8 12D9     		bls	.L97
1418:Drivers/STM32L4xx_HAL_Driver/Src/stm32l4xx_hal_spi.c ****         {
ARM GAS  C:\Users\Morroway\AppData\Local\Temp\ccCQJjHM.s 			page 57


1419:Drivers/STM32L4xx_HAL_Driver/Src/stm32l4xx_hal_spi.c ****           hspi->Instance->DR = *((uint16_t *)hspi->pTxBuffPtr);
 1776              		.loc 1 1419 50
 1777 02ba FB68     		ldr	r3, [r7, #12]
 1778 02bc 9B6B     		ldr	r3, [r3, #56]
 1779              		.loc 1 1419 32
 1780 02be 1A88     		ldrh	r2, [r3]
 1781              		.loc 1 1419 15
 1782 02c0 FB68     		ldr	r3, [r7, #12]
 1783 02c2 1B68     		ldr	r3, [r3]
 1784              		.loc 1 1419 30
 1785 02c4 DA60     		str	r2, [r3, #12]
1420:Drivers/STM32L4xx_HAL_Driver/Src/stm32l4xx_hal_spi.c ****           hspi->pTxBuffPtr += sizeof(uint16_t);
 1786              		.loc 1 1420 28
 1787 02c6 FB68     		ldr	r3, [r7, #12]
 1788 02c8 9B6B     		ldr	r3, [r3, #56]
 1789 02ca 9A1C     		adds	r2, r3, #2
 1790 02cc FB68     		ldr	r3, [r7, #12]
 1791 02ce 9A63     		str	r2, [r3, #56]
1421:Drivers/STM32L4xx_HAL_Driver/Src/stm32l4xx_hal_spi.c ****           hspi->TxXferCount -= 2U;
 1792              		.loc 1 1421 29
 1793 02d0 FB68     		ldr	r3, [r7, #12]
 1794 02d2 DB8F     		ldrh	r3, [r3, #62]	@ movhi
 1795 02d4 9BB2     		uxth	r3, r3
 1796 02d6 023B     		subs	r3, r3, #2
 1797 02d8 9AB2     		uxth	r2, r3
 1798 02da FB68     		ldr	r3, [r7, #12]
 1799 02dc DA87     		strh	r2, [r3, #62]	@ movhi
 1800 02de 12E0     		b	.L98
 1801              	.L97:
1422:Drivers/STM32L4xx_HAL_Driver/Src/stm32l4xx_hal_spi.c ****         }
1423:Drivers/STM32L4xx_HAL_Driver/Src/stm32l4xx_hal_spi.c ****         else
1424:Drivers/STM32L4xx_HAL_Driver/Src/stm32l4xx_hal_spi.c ****         {
1425:Drivers/STM32L4xx_HAL_Driver/Src/stm32l4xx_hal_spi.c ****           *(__IO uint8_t *)&hspi->Instance->DR = (*hspi->pTxBuffPtr);
 1802              		.loc 1 1425 56
 1803 02e0 FB68     		ldr	r3, [r7, #12]
 1804 02e2 9A6B     		ldr	r2, [r3, #56]
 1805              		.loc 1 1425 33
 1806 02e4 FB68     		ldr	r3, [r7, #12]
 1807 02e6 1B68     		ldr	r3, [r3]
 1808              		.loc 1 1425 28
 1809 02e8 0C33     		adds	r3, r3, #12
 1810              		.loc 1 1425 51
 1811 02ea 1278     		ldrb	r2, [r2]	@ zero_extendqisi2
 1812              		.loc 1 1425 48
 1813 02ec 1A70     		strb	r2, [r3]
1426:Drivers/STM32L4xx_HAL_Driver/Src/stm32l4xx_hal_spi.c ****           hspi->pTxBuffPtr++;
 1814              		.loc 1 1426 15
 1815 02ee FB68     		ldr	r3, [r7, #12]
 1816 02f0 9B6B     		ldr	r3, [r3, #56]
 1817              		.loc 1 1426 27
 1818 02f2 5A1C     		adds	r2, r3, #1
 1819 02f4 FB68     		ldr	r3, [r7, #12]
 1820 02f6 9A63     		str	r2, [r3, #56]
1427:Drivers/STM32L4xx_HAL_Driver/Src/stm32l4xx_hal_spi.c ****           hspi->TxXferCount--;
 1821              		.loc 1 1427 15
 1822 02f8 FB68     		ldr	r3, [r7, #12]
 1823 02fa DB8F     		ldrh	r3, [r3, #62]	@ movhi
ARM GAS  C:\Users\Morroway\AppData\Local\Temp\ccCQJjHM.s 			page 58


 1824 02fc 9BB2     		uxth	r3, r3
 1825              		.loc 1 1427 28
 1826 02fe 013B     		subs	r3, r3, #1
 1827 0300 9AB2     		uxth	r2, r3
 1828 0302 FB68     		ldr	r3, [r7, #12]
 1829 0304 DA87     		strh	r2, [r3, #62]	@ movhi
 1830              	.L98:
1428:Drivers/STM32L4xx_HAL_Driver/Src/stm32l4xx_hal_spi.c ****         }
1429:Drivers/STM32L4xx_HAL_Driver/Src/stm32l4xx_hal_spi.c ****         /* Next Data is a reception (Rx). Tx not allowed */
1430:Drivers/STM32L4xx_HAL_Driver/Src/stm32l4xx_hal_spi.c ****         txallowed = 0U;
 1831              		.loc 1 1430 19
 1832 0306 0023     		movs	r3, #0
 1833 0308 7B62     		str	r3, [r7, #36]
 1834              	.L96:
1431:Drivers/STM32L4xx_HAL_Driver/Src/stm32l4xx_hal_spi.c **** 
1432:Drivers/STM32L4xx_HAL_Driver/Src/stm32l4xx_hal_spi.c **** #if (USE_SPI_CRC != 0U)
1433:Drivers/STM32L4xx_HAL_Driver/Src/stm32l4xx_hal_spi.c ****         /* Enable CRC Transmission */
1434:Drivers/STM32L4xx_HAL_Driver/Src/stm32l4xx_hal_spi.c ****         if ((hspi->TxXferCount == 0U) && (hspi->Init.CRCCalculation == SPI_CRCCALCULATION_ENABLE))
1435:Drivers/STM32L4xx_HAL_Driver/Src/stm32l4xx_hal_spi.c ****         {
1436:Drivers/STM32L4xx_HAL_Driver/Src/stm32l4xx_hal_spi.c ****           /* Set NSS Soft to received correctly the CRC on slave mode with NSS pulse activated */
1437:Drivers/STM32L4xx_HAL_Driver/Src/stm32l4xx_hal_spi.c ****           if ((READ_BIT(spi_cr1, SPI_CR1_MSTR) == 0U) && (READ_BIT(spi_cr2, SPI_CR2_NSSP) == SPI_CR
1438:Drivers/STM32L4xx_HAL_Driver/Src/stm32l4xx_hal_spi.c ****           {
1439:Drivers/STM32L4xx_HAL_Driver/Src/stm32l4xx_hal_spi.c ****             SET_BIT(hspi->Instance->CR1, SPI_CR1_SSM);
1440:Drivers/STM32L4xx_HAL_Driver/Src/stm32l4xx_hal_spi.c ****           }
1441:Drivers/STM32L4xx_HAL_Driver/Src/stm32l4xx_hal_spi.c ****           SET_BIT(hspi->Instance->CR1, SPI_CR1_CRCNEXT);
1442:Drivers/STM32L4xx_HAL_Driver/Src/stm32l4xx_hal_spi.c ****         }
1443:Drivers/STM32L4xx_HAL_Driver/Src/stm32l4xx_hal_spi.c **** #endif /* USE_SPI_CRC */
1444:Drivers/STM32L4xx_HAL_Driver/Src/stm32l4xx_hal_spi.c ****       }
1445:Drivers/STM32L4xx_HAL_Driver/Src/stm32l4xx_hal_spi.c **** 
1446:Drivers/STM32L4xx_HAL_Driver/Src/stm32l4xx_hal_spi.c ****       /* Wait until RXNE flag is reset */
1447:Drivers/STM32L4xx_HAL_Driver/Src/stm32l4xx_hal_spi.c ****       if ((__HAL_SPI_GET_FLAG(hspi, SPI_FLAG_RXNE)) && (hspi->RxXferCount > 0U))
 1835              		.loc 1 1447 12
 1836 030a FB68     		ldr	r3, [r7, #12]
 1837 030c 1B68     		ldr	r3, [r3]
 1838 030e 9B68     		ldr	r3, [r3, #8]
 1839 0310 03F00103 		and	r3, r3, #1
 1840              		.loc 1 1447 10
 1841 0314 012B     		cmp	r3, #1
 1842 0316 48D1     		bne	.L99
 1843              		.loc 1 1447 61 discriminator 1
 1844 0318 FB68     		ldr	r3, [r7, #12]
 1845 031a B3F84630 		ldrh	r3, [r3, #70]	@ movhi
 1846 031e 9BB2     		uxth	r3, r3
 1847              		.loc 1 1447 53 discriminator 1
 1848 0320 002B     		cmp	r3, #0
 1849 0322 42D0     		beq	.L99
1448:Drivers/STM32L4xx_HAL_Driver/Src/stm32l4xx_hal_spi.c ****       {
1449:Drivers/STM32L4xx_HAL_Driver/Src/stm32l4xx_hal_spi.c ****         if (hspi->RxXferCount > 1U)
 1850              		.loc 1 1449 17
 1851 0324 FB68     		ldr	r3, [r7, #12]
 1852 0326 B3F84630 		ldrh	r3, [r3, #70]	@ movhi
 1853 032a 9BB2     		uxth	r3, r3
 1854              		.loc 1 1449 12
 1855 032c 012B     		cmp	r3, #1
 1856 032e 23D9     		bls	.L100
1450:Drivers/STM32L4xx_HAL_Driver/Src/stm32l4xx_hal_spi.c ****         {
1451:Drivers/STM32L4xx_HAL_Driver/Src/stm32l4xx_hal_spi.c ****           *((uint16_t *)hspi->pRxBuffPtr) = (uint16_t)hspi->Instance->DR;
ARM GAS  C:\Users\Morroway\AppData\Local\Temp\ccCQJjHM.s 			page 59


 1857              		.loc 1 1451 59
 1858 0330 FB68     		ldr	r3, [r7, #12]
 1859 0332 1B68     		ldr	r3, [r3]
 1860              		.loc 1 1451 69
 1861 0334 DA68     		ldr	r2, [r3, #12]
 1862              		.loc 1 1451 29
 1863 0336 FB68     		ldr	r3, [r7, #12]
 1864 0338 1B6C     		ldr	r3, [r3, #64]
 1865              		.loc 1 1451 45
 1866 033a 92B2     		uxth	r2, r2
 1867              		.loc 1 1451 43
 1868 033c 1A80     		strh	r2, [r3]	@ movhi
1452:Drivers/STM32L4xx_HAL_Driver/Src/stm32l4xx_hal_spi.c ****           hspi->pRxBuffPtr += sizeof(uint16_t);
 1869              		.loc 1 1452 28
 1870 033e FB68     		ldr	r3, [r7, #12]
 1871 0340 1B6C     		ldr	r3, [r3, #64]
 1872 0342 9A1C     		adds	r2, r3, #2
 1873 0344 FB68     		ldr	r3, [r7, #12]
 1874 0346 1A64     		str	r2, [r3, #64]
1453:Drivers/STM32L4xx_HAL_Driver/Src/stm32l4xx_hal_spi.c ****           hspi->RxXferCount -= 2U;
 1875              		.loc 1 1453 29
 1876 0348 FB68     		ldr	r3, [r7, #12]
 1877 034a B3F84630 		ldrh	r3, [r3, #70]	@ movhi
 1878 034e 9BB2     		uxth	r3, r3
 1879 0350 023B     		subs	r3, r3, #2
 1880 0352 9AB2     		uxth	r2, r3
 1881 0354 FB68     		ldr	r3, [r7, #12]
 1882 0356 A3F84620 		strh	r2, [r3, #70]	@ movhi
1454:Drivers/STM32L4xx_HAL_Driver/Src/stm32l4xx_hal_spi.c ****           if (hspi->RxXferCount <= 1U)
 1883              		.loc 1 1454 19
 1884 035a FB68     		ldr	r3, [r7, #12]
 1885 035c B3F84630 		ldrh	r3, [r3, #70]	@ movhi
 1886 0360 9BB2     		uxth	r3, r3
 1887              		.loc 1 1454 14
 1888 0362 012B     		cmp	r3, #1
 1889 0364 1FD8     		bhi	.L101
1455:Drivers/STM32L4xx_HAL_Driver/Src/stm32l4xx_hal_spi.c ****           {
1456:Drivers/STM32L4xx_HAL_Driver/Src/stm32l4xx_hal_spi.c ****             /* Set RX Fifo threshold before to switch on 8 bit data size */
1457:Drivers/STM32L4xx_HAL_Driver/Src/stm32l4xx_hal_spi.c ****             SET_BIT(hspi->Instance->CR2, SPI_RXFIFO_THRESHOLD);
 1890              		.loc 1 1457 13
 1891 0366 FB68     		ldr	r3, [r7, #12]
 1892 0368 1B68     		ldr	r3, [r3]
 1893 036a 5A68     		ldr	r2, [r3, #4]
 1894 036c FB68     		ldr	r3, [r7, #12]
 1895 036e 1B68     		ldr	r3, [r3]
 1896 0370 42F48052 		orr	r2, r2, #4096
 1897 0374 5A60     		str	r2, [r3, #4]
 1898 0376 16E0     		b	.L101
 1899              	.L100:
1458:Drivers/STM32L4xx_HAL_Driver/Src/stm32l4xx_hal_spi.c ****           }
1459:Drivers/STM32L4xx_HAL_Driver/Src/stm32l4xx_hal_spi.c ****         }
1460:Drivers/STM32L4xx_HAL_Driver/Src/stm32l4xx_hal_spi.c ****         else
1461:Drivers/STM32L4xx_HAL_Driver/Src/stm32l4xx_hal_spi.c ****         {
1462:Drivers/STM32L4xx_HAL_Driver/Src/stm32l4xx_hal_spi.c ****           (*(uint8_t *)hspi->pRxBuffPtr) = *(__IO uint8_t *)&hspi->Instance->DR;
 1900              		.loc 1 1462 66
 1901 0378 FB68     		ldr	r3, [r7, #12]
 1902 037a 1B68     		ldr	r3, [r3]
ARM GAS  C:\Users\Morroway\AppData\Local\Temp\ccCQJjHM.s 			page 60


 1903              		.loc 1 1462 61
 1904 037c 03F10C02 		add	r2, r3, #12
 1905              		.loc 1 1462 28
 1906 0380 FB68     		ldr	r3, [r7, #12]
 1907 0382 1B6C     		ldr	r3, [r3, #64]
 1908              		.loc 1 1462 44
 1909 0384 1278     		ldrb	r2, [r2]
 1910 0386 D2B2     		uxtb	r2, r2
 1911              		.loc 1 1462 42
 1912 0388 1A70     		strb	r2, [r3]
1463:Drivers/STM32L4xx_HAL_Driver/Src/stm32l4xx_hal_spi.c ****           hspi->pRxBuffPtr++;
 1913              		.loc 1 1463 15
 1914 038a FB68     		ldr	r3, [r7, #12]
 1915 038c 1B6C     		ldr	r3, [r3, #64]
 1916              		.loc 1 1463 27
 1917 038e 5A1C     		adds	r2, r3, #1
 1918 0390 FB68     		ldr	r3, [r7, #12]
 1919 0392 1A64     		str	r2, [r3, #64]
1464:Drivers/STM32L4xx_HAL_Driver/Src/stm32l4xx_hal_spi.c ****           hspi->RxXferCount--;
 1920              		.loc 1 1464 15
 1921 0394 FB68     		ldr	r3, [r7, #12]
 1922 0396 B3F84630 		ldrh	r3, [r3, #70]	@ movhi
 1923 039a 9BB2     		uxth	r3, r3
 1924              		.loc 1 1464 28
 1925 039c 013B     		subs	r3, r3, #1
 1926 039e 9AB2     		uxth	r2, r3
 1927 03a0 FB68     		ldr	r3, [r7, #12]
 1928 03a2 A3F84620 		strh	r2, [r3, #70]	@ movhi
 1929              	.L101:
1465:Drivers/STM32L4xx_HAL_Driver/Src/stm32l4xx_hal_spi.c ****         }
1466:Drivers/STM32L4xx_HAL_Driver/Src/stm32l4xx_hal_spi.c ****         /* Next Data is a Transmission (Tx). Tx is allowed */
1467:Drivers/STM32L4xx_HAL_Driver/Src/stm32l4xx_hal_spi.c ****         txallowed = 1U;
 1930              		.loc 1 1467 19
 1931 03a6 0123     		movs	r3, #1
 1932 03a8 7B62     		str	r3, [r7, #36]
 1933              	.L99:
1468:Drivers/STM32L4xx_HAL_Driver/Src/stm32l4xx_hal_spi.c ****       }
1469:Drivers/STM32L4xx_HAL_Driver/Src/stm32l4xx_hal_spi.c ****       if ((((HAL_GetTick() - tickstart) >=  Timeout) && ((Timeout != HAL_MAX_DELAY))) || (Timeout =
 1934              		.loc 1 1469 14
 1935 03aa FFF7FEFF 		bl	HAL_GetTick
 1936 03ae 0246     		mov	r2, r0
 1937              		.loc 1 1469 28
 1938 03b0 FB69     		ldr	r3, [r7, #28]
 1939 03b2 D31A     		subs	r3, r2, r3
 1940              		.loc 1 1469 10
 1941 03b4 3A6B     		ldr	r2, [r7, #48]
 1942 03b6 9A42     		cmp	r2, r3
 1943 03b8 03D8     		bhi	.L102
 1944              		.loc 1 1469 54 discriminator 1
 1945 03ba 3B6B     		ldr	r3, [r7, #48]
 1946 03bc B3F1FF3F 		cmp	r3, #-1
 1947 03c0 02D1     		bne	.L103
 1948              	.L102:
 1949              		.loc 1 1469 87 discriminator 3
 1950 03c2 3B6B     		ldr	r3, [r7, #48]
 1951 03c4 002B     		cmp	r3, #0
 1952 03c6 03D1     		bne	.L95
ARM GAS  C:\Users\Morroway\AppData\Local\Temp\ccCQJjHM.s 			page 61


 1953              	.L103:
1470:Drivers/STM32L4xx_HAL_Driver/Src/stm32l4xx_hal_spi.c ****       {
1471:Drivers/STM32L4xx_HAL_Driver/Src/stm32l4xx_hal_spi.c ****         errorcode = HAL_TIMEOUT;
 1954              		.loc 1 1471 19
 1955 03c8 0323     		movs	r3, #3
 1956 03ca 87F82330 		strb	r3, [r7, #35]
1472:Drivers/STM32L4xx_HAL_Driver/Src/stm32l4xx_hal_spi.c ****         goto error;
 1957              		.loc 1 1472 9
 1958 03ce 1CE0     		b	.L76
 1959              	.L95:
1412:Drivers/STM32L4xx_HAL_Driver/Src/stm32l4xx_hal_spi.c ****     {
 1960              		.loc 1 1412 17
 1961 03d0 FB68     		ldr	r3, [r7, #12]
 1962 03d2 DB8F     		ldrh	r3, [r3, #62]	@ movhi
 1963 03d4 9BB2     		uxth	r3, r3
1412:Drivers/STM32L4xx_HAL_Driver/Src/stm32l4xx_hal_spi.c ****     {
 1964              		.loc 1 1412 37
 1965 03d6 002B     		cmp	r3, #0
 1966 03d8 7FF45BAF 		bne	.L104
1412:Drivers/STM32L4xx_HAL_Driver/Src/stm32l4xx_hal_spi.c ****     {
 1967              		.loc 1 1412 45 discriminator 1
 1968 03dc FB68     		ldr	r3, [r7, #12]
 1969 03de B3F84630 		ldrh	r3, [r3, #70]	@ movhi
 1970 03e2 9BB2     		uxth	r3, r3
1412:Drivers/STM32L4xx_HAL_Driver/Src/stm32l4xx_hal_spi.c ****     {
 1971              		.loc 1 1412 37 discriminator 1
 1972 03e4 002B     		cmp	r3, #0
 1973 03e6 7FF454AF 		bne	.L104
 1974              	.L91:
1473:Drivers/STM32L4xx_HAL_Driver/Src/stm32l4xx_hal_spi.c ****       }
1474:Drivers/STM32L4xx_HAL_Driver/Src/stm32l4xx_hal_spi.c ****     }
1475:Drivers/STM32L4xx_HAL_Driver/Src/stm32l4xx_hal_spi.c ****   }
1476:Drivers/STM32L4xx_HAL_Driver/Src/stm32l4xx_hal_spi.c **** 
1477:Drivers/STM32L4xx_HAL_Driver/Src/stm32l4xx_hal_spi.c **** #if (USE_SPI_CRC != 0U)
1478:Drivers/STM32L4xx_HAL_Driver/Src/stm32l4xx_hal_spi.c ****   /* Read CRC from DR to close CRC calculation process */
1479:Drivers/STM32L4xx_HAL_Driver/Src/stm32l4xx_hal_spi.c ****   if (hspi->Init.CRCCalculation == SPI_CRCCALCULATION_ENABLE)
1480:Drivers/STM32L4xx_HAL_Driver/Src/stm32l4xx_hal_spi.c ****   {
1481:Drivers/STM32L4xx_HAL_Driver/Src/stm32l4xx_hal_spi.c ****     /* Wait until TXE flag */
1482:Drivers/STM32L4xx_HAL_Driver/Src/stm32l4xx_hal_spi.c ****     if (SPI_WaitFlagStateUntilTimeout(hspi, SPI_FLAG_RXNE, SET, Timeout, tickstart) != HAL_OK)
1483:Drivers/STM32L4xx_HAL_Driver/Src/stm32l4xx_hal_spi.c ****     {
1484:Drivers/STM32L4xx_HAL_Driver/Src/stm32l4xx_hal_spi.c ****       /* Error on the CRC reception */
1485:Drivers/STM32L4xx_HAL_Driver/Src/stm32l4xx_hal_spi.c ****       SET_BIT(hspi->ErrorCode, HAL_SPI_ERROR_CRC);
1486:Drivers/STM32L4xx_HAL_Driver/Src/stm32l4xx_hal_spi.c ****       errorcode = HAL_TIMEOUT;
1487:Drivers/STM32L4xx_HAL_Driver/Src/stm32l4xx_hal_spi.c ****       goto error;
1488:Drivers/STM32L4xx_HAL_Driver/Src/stm32l4xx_hal_spi.c ****     }
1489:Drivers/STM32L4xx_HAL_Driver/Src/stm32l4xx_hal_spi.c ****     /* Read CRC */
1490:Drivers/STM32L4xx_HAL_Driver/Src/stm32l4xx_hal_spi.c ****     if (hspi->Init.DataSize == SPI_DATASIZE_16BIT)
1491:Drivers/STM32L4xx_HAL_Driver/Src/stm32l4xx_hal_spi.c ****     {
1492:Drivers/STM32L4xx_HAL_Driver/Src/stm32l4xx_hal_spi.c ****       /* Read 16bit CRC */
1493:Drivers/STM32L4xx_HAL_Driver/Src/stm32l4xx_hal_spi.c ****       tmpreg = READ_REG(hspi->Instance->DR);
1494:Drivers/STM32L4xx_HAL_Driver/Src/stm32l4xx_hal_spi.c ****       /* To avoid GCC warning */
1495:Drivers/STM32L4xx_HAL_Driver/Src/stm32l4xx_hal_spi.c ****       UNUSED(tmpreg);
1496:Drivers/STM32L4xx_HAL_Driver/Src/stm32l4xx_hal_spi.c ****     }
1497:Drivers/STM32L4xx_HAL_Driver/Src/stm32l4xx_hal_spi.c ****     else
1498:Drivers/STM32L4xx_HAL_Driver/Src/stm32l4xx_hal_spi.c ****     {
1499:Drivers/STM32L4xx_HAL_Driver/Src/stm32l4xx_hal_spi.c ****       /* Initialize the 8bit temporary pointer */
1500:Drivers/STM32L4xx_HAL_Driver/Src/stm32l4xx_hal_spi.c ****       ptmpreg8 = (__IO uint8_t *)&hspi->Instance->DR;
ARM GAS  C:\Users\Morroway\AppData\Local\Temp\ccCQJjHM.s 			page 62


1501:Drivers/STM32L4xx_HAL_Driver/Src/stm32l4xx_hal_spi.c ****       /* Read 8bit CRC */
1502:Drivers/STM32L4xx_HAL_Driver/Src/stm32l4xx_hal_spi.c ****       tmpreg8 = *ptmpreg8;
1503:Drivers/STM32L4xx_HAL_Driver/Src/stm32l4xx_hal_spi.c ****       /* To avoid GCC warning */
1504:Drivers/STM32L4xx_HAL_Driver/Src/stm32l4xx_hal_spi.c ****       UNUSED(tmpreg8);
1505:Drivers/STM32L4xx_HAL_Driver/Src/stm32l4xx_hal_spi.c **** 
1506:Drivers/STM32L4xx_HAL_Driver/Src/stm32l4xx_hal_spi.c ****       if (hspi->Init.CRCLength == SPI_CRC_LENGTH_16BIT)
1507:Drivers/STM32L4xx_HAL_Driver/Src/stm32l4xx_hal_spi.c ****       {
1508:Drivers/STM32L4xx_HAL_Driver/Src/stm32l4xx_hal_spi.c ****         if (SPI_WaitFlagStateUntilTimeout(hspi, SPI_FLAG_RXNE, SET, Timeout, tickstart) != HAL_OK)
1509:Drivers/STM32L4xx_HAL_Driver/Src/stm32l4xx_hal_spi.c ****         {
1510:Drivers/STM32L4xx_HAL_Driver/Src/stm32l4xx_hal_spi.c ****           /* Error on the CRC reception */
1511:Drivers/STM32L4xx_HAL_Driver/Src/stm32l4xx_hal_spi.c ****           SET_BIT(hspi->ErrorCode, HAL_SPI_ERROR_CRC);
1512:Drivers/STM32L4xx_HAL_Driver/Src/stm32l4xx_hal_spi.c ****           errorcode = HAL_TIMEOUT;
1513:Drivers/STM32L4xx_HAL_Driver/Src/stm32l4xx_hal_spi.c ****           goto error;
1514:Drivers/STM32L4xx_HAL_Driver/Src/stm32l4xx_hal_spi.c ****         }
1515:Drivers/STM32L4xx_HAL_Driver/Src/stm32l4xx_hal_spi.c ****         /* Read 8bit CRC again in case of 16bit CRC in 8bit Data mode */
1516:Drivers/STM32L4xx_HAL_Driver/Src/stm32l4xx_hal_spi.c ****         tmpreg8 = *ptmpreg8;
1517:Drivers/STM32L4xx_HAL_Driver/Src/stm32l4xx_hal_spi.c ****         /* To avoid GCC warning */
1518:Drivers/STM32L4xx_HAL_Driver/Src/stm32l4xx_hal_spi.c ****         UNUSED(tmpreg8);
1519:Drivers/STM32L4xx_HAL_Driver/Src/stm32l4xx_hal_spi.c ****       }
1520:Drivers/STM32L4xx_HAL_Driver/Src/stm32l4xx_hal_spi.c ****     }
1521:Drivers/STM32L4xx_HAL_Driver/Src/stm32l4xx_hal_spi.c ****   }
1522:Drivers/STM32L4xx_HAL_Driver/Src/stm32l4xx_hal_spi.c **** 
1523:Drivers/STM32L4xx_HAL_Driver/Src/stm32l4xx_hal_spi.c ****   /* Check if CRC error occurred */
1524:Drivers/STM32L4xx_HAL_Driver/Src/stm32l4xx_hal_spi.c ****   if (__HAL_SPI_GET_FLAG(hspi, SPI_FLAG_CRCERR))
1525:Drivers/STM32L4xx_HAL_Driver/Src/stm32l4xx_hal_spi.c ****   {
1526:Drivers/STM32L4xx_HAL_Driver/Src/stm32l4xx_hal_spi.c ****     SET_BIT(hspi->ErrorCode, HAL_SPI_ERROR_CRC);
1527:Drivers/STM32L4xx_HAL_Driver/Src/stm32l4xx_hal_spi.c ****     /* Clear CRC Flag */
1528:Drivers/STM32L4xx_HAL_Driver/Src/stm32l4xx_hal_spi.c ****     __HAL_SPI_CLEAR_CRCERRFLAG(hspi);
1529:Drivers/STM32L4xx_HAL_Driver/Src/stm32l4xx_hal_spi.c **** 
1530:Drivers/STM32L4xx_HAL_Driver/Src/stm32l4xx_hal_spi.c ****     errorcode = HAL_ERROR;
1531:Drivers/STM32L4xx_HAL_Driver/Src/stm32l4xx_hal_spi.c ****   }
1532:Drivers/STM32L4xx_HAL_Driver/Src/stm32l4xx_hal_spi.c **** #endif /* USE_SPI_CRC */
1533:Drivers/STM32L4xx_HAL_Driver/Src/stm32l4xx_hal_spi.c **** 
1534:Drivers/STM32L4xx_HAL_Driver/Src/stm32l4xx_hal_spi.c ****   /* Check the end of the transaction */
1535:Drivers/STM32L4xx_HAL_Driver/Src/stm32l4xx_hal_spi.c ****   if (SPI_EndRxTxTransaction(hspi, Timeout, tickstart) != HAL_OK)
 1975              		.loc 1 1535 7
 1976 03ea FA69     		ldr	r2, [r7, #28]
 1977 03ec 396B     		ldr	r1, [r7, #48]
 1978 03ee F868     		ldr	r0, [r7, #12]
 1979 03f0 FFF7FEFF 		bl	SPI_EndRxTxTransaction
 1980 03f4 0346     		mov	r3, r0
 1981              		.loc 1 1535 6
 1982 03f6 002B     		cmp	r3, #0
 1983 03f8 06D0     		beq	.L105
1536:Drivers/STM32L4xx_HAL_Driver/Src/stm32l4xx_hal_spi.c ****   {
1537:Drivers/STM32L4xx_HAL_Driver/Src/stm32l4xx_hal_spi.c ****     errorcode = HAL_ERROR;
 1984              		.loc 1 1537 15
 1985 03fa 0123     		movs	r3, #1
 1986 03fc 87F82330 		strb	r3, [r7, #35]
1538:Drivers/STM32L4xx_HAL_Driver/Src/stm32l4xx_hal_spi.c ****     hspi->ErrorCode = HAL_SPI_ERROR_FLAG;
 1987              		.loc 1 1538 21
 1988 0400 FB68     		ldr	r3, [r7, #12]
 1989 0402 2022     		movs	r2, #32
 1990 0404 1A66     		str	r2, [r3, #96]
 1991 0406 00E0     		b	.L76
 1992              	.L105:
1539:Drivers/STM32L4xx_HAL_Driver/Src/stm32l4xx_hal_spi.c ****   }
ARM GAS  C:\Users\Morroway\AppData\Local\Temp\ccCQJjHM.s 			page 63


1540:Drivers/STM32L4xx_HAL_Driver/Src/stm32l4xx_hal_spi.c **** 
1541:Drivers/STM32L4xx_HAL_Driver/Src/stm32l4xx_hal_spi.c **** error :
 1993              		.loc 1 1541 1
 1994 0408 00BF     		nop
 1995              	.L76:
1542:Drivers/STM32L4xx_HAL_Driver/Src/stm32l4xx_hal_spi.c ****   hspi->State = HAL_SPI_STATE_READY;
 1996              		.loc 1 1542 15
 1997 040a FB68     		ldr	r3, [r7, #12]
 1998 040c 0122     		movs	r2, #1
 1999 040e 83F85D20 		strb	r2, [r3, #93]
1543:Drivers/STM32L4xx_HAL_Driver/Src/stm32l4xx_hal_spi.c ****   __HAL_UNLOCK(hspi);
 2000              		.loc 1 1543 3
 2001 0412 FB68     		ldr	r3, [r7, #12]
 2002 0414 0022     		movs	r2, #0
 2003 0416 83F85C20 		strb	r2, [r3, #92]
1544:Drivers/STM32L4xx_HAL_Driver/Src/stm32l4xx_hal_spi.c ****   return errorcode;
 2004              		.loc 1 1544 10
 2005 041a 97F82330 		ldrb	r3, [r7, #35]	@ zero_extendqisi2
 2006              	.L73:
1545:Drivers/STM32L4xx_HAL_Driver/Src/stm32l4xx_hal_spi.c **** }
 2007              		.loc 1 1545 1
 2008 041e 1846     		mov	r0, r3
 2009 0420 2837     		adds	r7, r7, #40
 2010              		.cfi_def_cfa_offset 8
 2011 0422 BD46     		mov	sp, r7
 2012              		.cfi_def_cfa_register 13
 2013              		@ sp needed
 2014 0424 80BD     		pop	{r7, pc}
 2015              		.cfi_endproc
 2016              	.LFE327:
 2018              		.section	.text.HAL_SPI_Transmit_IT,"ax",%progbits
 2019              		.align	1
 2020              		.global	HAL_SPI_Transmit_IT
 2021              		.syntax unified
 2022              		.thumb
 2023              		.thumb_func
 2025              	HAL_SPI_Transmit_IT:
 2026              	.LFB328:
1546:Drivers/STM32L4xx_HAL_Driver/Src/stm32l4xx_hal_spi.c **** 
1547:Drivers/STM32L4xx_HAL_Driver/Src/stm32l4xx_hal_spi.c **** /**
1548:Drivers/STM32L4xx_HAL_Driver/Src/stm32l4xx_hal_spi.c ****   * @brief  Transmit an amount of data in non-blocking mode with Interrupt.
1549:Drivers/STM32L4xx_HAL_Driver/Src/stm32l4xx_hal_spi.c ****   * @param  hspi pointer to a SPI_HandleTypeDef structure that contains
1550:Drivers/STM32L4xx_HAL_Driver/Src/stm32l4xx_hal_spi.c ****   *               the configuration information for SPI module.
1551:Drivers/STM32L4xx_HAL_Driver/Src/stm32l4xx_hal_spi.c ****   * @param  pData pointer to data buffer
1552:Drivers/STM32L4xx_HAL_Driver/Src/stm32l4xx_hal_spi.c ****   * @param  Size amount of data to be sent
1553:Drivers/STM32L4xx_HAL_Driver/Src/stm32l4xx_hal_spi.c ****   * @retval HAL status
1554:Drivers/STM32L4xx_HAL_Driver/Src/stm32l4xx_hal_spi.c ****   */
1555:Drivers/STM32L4xx_HAL_Driver/Src/stm32l4xx_hal_spi.c **** HAL_StatusTypeDef HAL_SPI_Transmit_IT(SPI_HandleTypeDef *hspi, uint8_t *pData, uint16_t Size)
1556:Drivers/STM32L4xx_HAL_Driver/Src/stm32l4xx_hal_spi.c **** {
 2027              		.loc 1 1556 1
 2028              		.cfi_startproc
 2029              		@ args = 0, pretend = 0, frame = 24
 2030              		@ frame_needed = 1, uses_anonymous_args = 0
 2031              		@ link register save eliminated.
 2032 0000 80B4     		push	{r7}
 2033              		.cfi_def_cfa_offset 4
 2034              		.cfi_offset 7, -4
ARM GAS  C:\Users\Morroway\AppData\Local\Temp\ccCQJjHM.s 			page 64


 2035 0002 87B0     		sub	sp, sp, #28
 2036              		.cfi_def_cfa_offset 32
 2037 0004 00AF     		add	r7, sp, #0
 2038              		.cfi_def_cfa_register 7
 2039 0006 F860     		str	r0, [r7, #12]
 2040 0008 B960     		str	r1, [r7, #8]
 2041 000a 1346     		mov	r3, r2
 2042 000c FB80     		strh	r3, [r7, #6]	@ movhi
1557:Drivers/STM32L4xx_HAL_Driver/Src/stm32l4xx_hal_spi.c ****   HAL_StatusTypeDef errorcode = HAL_OK;
 2043              		.loc 1 1557 21
 2044 000e 0023     		movs	r3, #0
 2045 0010 FB75     		strb	r3, [r7, #23]
1558:Drivers/STM32L4xx_HAL_Driver/Src/stm32l4xx_hal_spi.c **** 
1559:Drivers/STM32L4xx_HAL_Driver/Src/stm32l4xx_hal_spi.c ****   /* Check Direction parameter */
1560:Drivers/STM32L4xx_HAL_Driver/Src/stm32l4xx_hal_spi.c ****   assert_param(IS_SPI_DIRECTION_2LINES_OR_1LINE(hspi->Init.Direction));
1561:Drivers/STM32L4xx_HAL_Driver/Src/stm32l4xx_hal_spi.c **** 
1562:Drivers/STM32L4xx_HAL_Driver/Src/stm32l4xx_hal_spi.c ****   /* Process Locked */
1563:Drivers/STM32L4xx_HAL_Driver/Src/stm32l4xx_hal_spi.c ****   __HAL_LOCK(hspi);
 2046              		.loc 1 1563 3
 2047 0012 FB68     		ldr	r3, [r7, #12]
 2048 0014 93F85C30 		ldrb	r3, [r3, #92]	@ zero_extendqisi2
 2049 0018 012B     		cmp	r3, #1
 2050 001a 01D1     		bne	.L107
 2051              		.loc 1 1563 3 is_stmt 0 discriminator 1
 2052 001c 0223     		movs	r3, #2
 2053 001e 72E0     		b	.L108
 2054              	.L107:
 2055              		.loc 1 1563 3 discriminator 2
 2056 0020 FB68     		ldr	r3, [r7, #12]
 2057 0022 0122     		movs	r2, #1
 2058 0024 83F85C20 		strb	r2, [r3, #92]
1564:Drivers/STM32L4xx_HAL_Driver/Src/stm32l4xx_hal_spi.c **** 
1565:Drivers/STM32L4xx_HAL_Driver/Src/stm32l4xx_hal_spi.c ****   if ((pData == NULL) || (Size == 0U))
 2059              		.loc 1 1565 6 is_stmt 1 discriminator 2
 2060 0028 BB68     		ldr	r3, [r7, #8]
 2061 002a 002B     		cmp	r3, #0
 2062 002c 02D0     		beq	.L109
 2063              		.loc 1 1565 23 discriminator 1
 2064 002e FB88     		ldrh	r3, [r7, #6]
 2065 0030 002B     		cmp	r3, #0
 2066 0032 02D1     		bne	.L110
 2067              	.L109:
1566:Drivers/STM32L4xx_HAL_Driver/Src/stm32l4xx_hal_spi.c ****   {
1567:Drivers/STM32L4xx_HAL_Driver/Src/stm32l4xx_hal_spi.c ****     errorcode = HAL_ERROR;
 2068              		.loc 1 1567 15
 2069 0034 0123     		movs	r3, #1
 2070 0036 FB75     		strb	r3, [r7, #23]
1568:Drivers/STM32L4xx_HAL_Driver/Src/stm32l4xx_hal_spi.c ****     goto error;
 2071              		.loc 1 1568 5
 2072 0038 60E0     		b	.L111
 2073              	.L110:
1569:Drivers/STM32L4xx_HAL_Driver/Src/stm32l4xx_hal_spi.c ****   }
1570:Drivers/STM32L4xx_HAL_Driver/Src/stm32l4xx_hal_spi.c **** 
1571:Drivers/STM32L4xx_HAL_Driver/Src/stm32l4xx_hal_spi.c ****   if (hspi->State != HAL_SPI_STATE_READY)
 2074              		.loc 1 1571 11
 2075 003a FB68     		ldr	r3, [r7, #12]
 2076 003c 93F85D30 		ldrb	r3, [r3, #93]
ARM GAS  C:\Users\Morroway\AppData\Local\Temp\ccCQJjHM.s 			page 65


 2077 0040 DBB2     		uxtb	r3, r3
 2078              		.loc 1 1571 6
 2079 0042 012B     		cmp	r3, #1
 2080 0044 02D0     		beq	.L112
1572:Drivers/STM32L4xx_HAL_Driver/Src/stm32l4xx_hal_spi.c ****   {
1573:Drivers/STM32L4xx_HAL_Driver/Src/stm32l4xx_hal_spi.c ****     errorcode = HAL_BUSY;
 2081              		.loc 1 1573 15
 2082 0046 0223     		movs	r3, #2
 2083 0048 FB75     		strb	r3, [r7, #23]
1574:Drivers/STM32L4xx_HAL_Driver/Src/stm32l4xx_hal_spi.c ****     goto error;
 2084              		.loc 1 1574 5
 2085 004a 57E0     		b	.L111
 2086              	.L112:
1575:Drivers/STM32L4xx_HAL_Driver/Src/stm32l4xx_hal_spi.c ****   }
1576:Drivers/STM32L4xx_HAL_Driver/Src/stm32l4xx_hal_spi.c **** 
1577:Drivers/STM32L4xx_HAL_Driver/Src/stm32l4xx_hal_spi.c ****   /* Set the transaction information */
1578:Drivers/STM32L4xx_HAL_Driver/Src/stm32l4xx_hal_spi.c ****   hspi->State       = HAL_SPI_STATE_BUSY_TX;
 2087              		.loc 1 1578 21
 2088 004c FB68     		ldr	r3, [r7, #12]
 2089 004e 0322     		movs	r2, #3
 2090 0050 83F85D20 		strb	r2, [r3, #93]
1579:Drivers/STM32L4xx_HAL_Driver/Src/stm32l4xx_hal_spi.c ****   hspi->ErrorCode   = HAL_SPI_ERROR_NONE;
 2091              		.loc 1 1579 21
 2092 0054 FB68     		ldr	r3, [r7, #12]
 2093 0056 0022     		movs	r2, #0
 2094 0058 1A66     		str	r2, [r3, #96]
1580:Drivers/STM32L4xx_HAL_Driver/Src/stm32l4xx_hal_spi.c ****   hspi->pTxBuffPtr  = (uint8_t *)pData;
 2095              		.loc 1 1580 21
 2096 005a FB68     		ldr	r3, [r7, #12]
 2097 005c BA68     		ldr	r2, [r7, #8]
 2098 005e 9A63     		str	r2, [r3, #56]
1581:Drivers/STM32L4xx_HAL_Driver/Src/stm32l4xx_hal_spi.c ****   hspi->TxXferSize  = Size;
 2099              		.loc 1 1581 21
 2100 0060 FB68     		ldr	r3, [r7, #12]
 2101 0062 FA88     		ldrh	r2, [r7, #6]	@ movhi
 2102 0064 9A87     		strh	r2, [r3, #60]	@ movhi
1582:Drivers/STM32L4xx_HAL_Driver/Src/stm32l4xx_hal_spi.c ****   hspi->TxXferCount = Size;
 2103              		.loc 1 1582 21
 2104 0066 FB68     		ldr	r3, [r7, #12]
 2105 0068 FA88     		ldrh	r2, [r7, #6]	@ movhi
 2106 006a DA87     		strh	r2, [r3, #62]	@ movhi
1583:Drivers/STM32L4xx_HAL_Driver/Src/stm32l4xx_hal_spi.c **** 
1584:Drivers/STM32L4xx_HAL_Driver/Src/stm32l4xx_hal_spi.c ****   /* Init field not used in handle to zero */
1585:Drivers/STM32L4xx_HAL_Driver/Src/stm32l4xx_hal_spi.c ****   hspi->pRxBuffPtr  = (uint8_t *)NULL;
 2107              		.loc 1 1585 21
 2108 006c FB68     		ldr	r3, [r7, #12]
 2109 006e 0022     		movs	r2, #0
 2110 0070 1A64     		str	r2, [r3, #64]
1586:Drivers/STM32L4xx_HAL_Driver/Src/stm32l4xx_hal_spi.c ****   hspi->RxXferSize  = 0U;
 2111              		.loc 1 1586 21
 2112 0072 FB68     		ldr	r3, [r7, #12]
 2113 0074 0022     		movs	r2, #0
 2114 0076 A3F84420 		strh	r2, [r3, #68]	@ movhi
1587:Drivers/STM32L4xx_HAL_Driver/Src/stm32l4xx_hal_spi.c ****   hspi->RxXferCount = 0U;
 2115              		.loc 1 1587 21
 2116 007a FB68     		ldr	r3, [r7, #12]
 2117 007c 0022     		movs	r2, #0
ARM GAS  C:\Users\Morroway\AppData\Local\Temp\ccCQJjHM.s 			page 66


 2118 007e A3F84620 		strh	r2, [r3, #70]	@ movhi
1588:Drivers/STM32L4xx_HAL_Driver/Src/stm32l4xx_hal_spi.c ****   hspi->RxISR       = NULL;
 2119              		.loc 1 1588 21
 2120 0082 FB68     		ldr	r3, [r7, #12]
 2121 0084 0022     		movs	r2, #0
 2122 0086 DA64     		str	r2, [r3, #76]
1589:Drivers/STM32L4xx_HAL_Driver/Src/stm32l4xx_hal_spi.c **** 
1590:Drivers/STM32L4xx_HAL_Driver/Src/stm32l4xx_hal_spi.c ****   /* Set the function for IT treatment */
1591:Drivers/STM32L4xx_HAL_Driver/Src/stm32l4xx_hal_spi.c ****   if (hspi->Init.DataSize > SPI_DATASIZE_8BIT)
 2123              		.loc 1 1591 17
 2124 0088 FB68     		ldr	r3, [r7, #12]
 2125 008a DB68     		ldr	r3, [r3, #12]
 2126              		.loc 1 1591 6
 2127 008c B3F5E06F 		cmp	r3, #1792
 2128 0090 03D9     		bls	.L113
1592:Drivers/STM32L4xx_HAL_Driver/Src/stm32l4xx_hal_spi.c ****   {
1593:Drivers/STM32L4xx_HAL_Driver/Src/stm32l4xx_hal_spi.c ****     hspi->TxISR = SPI_TxISR_16BIT;
 2129              		.loc 1 1593 17
 2130 0092 FB68     		ldr	r3, [r7, #12]
 2131 0094 1F4A     		ldr	r2, .L117
 2132 0096 1A65     		str	r2, [r3, #80]
 2133 0098 02E0     		b	.L114
 2134              	.L113:
1594:Drivers/STM32L4xx_HAL_Driver/Src/stm32l4xx_hal_spi.c ****   }
1595:Drivers/STM32L4xx_HAL_Driver/Src/stm32l4xx_hal_spi.c ****   else
1596:Drivers/STM32L4xx_HAL_Driver/Src/stm32l4xx_hal_spi.c ****   {
1597:Drivers/STM32L4xx_HAL_Driver/Src/stm32l4xx_hal_spi.c ****     hspi->TxISR = SPI_TxISR_8BIT;
 2135              		.loc 1 1597 17
 2136 009a FB68     		ldr	r3, [r7, #12]
 2137 009c 1E4A     		ldr	r2, .L117+4
 2138 009e 1A65     		str	r2, [r3, #80]
 2139              	.L114:
1598:Drivers/STM32L4xx_HAL_Driver/Src/stm32l4xx_hal_spi.c ****   }
1599:Drivers/STM32L4xx_HAL_Driver/Src/stm32l4xx_hal_spi.c **** 
1600:Drivers/STM32L4xx_HAL_Driver/Src/stm32l4xx_hal_spi.c ****   /* Configure communication direction : 1Line */
1601:Drivers/STM32L4xx_HAL_Driver/Src/stm32l4xx_hal_spi.c ****   if (hspi->Init.Direction == SPI_DIRECTION_1LINE)
 2140              		.loc 1 1601 17
 2141 00a0 FB68     		ldr	r3, [r7, #12]
 2142 00a2 9B68     		ldr	r3, [r3, #8]
 2143              		.loc 1 1601 6
 2144 00a4 B3F5004F 		cmp	r3, #32768
 2145 00a8 0FD1     		bne	.L115
1602:Drivers/STM32L4xx_HAL_Driver/Src/stm32l4xx_hal_spi.c ****   {
1603:Drivers/STM32L4xx_HAL_Driver/Src/stm32l4xx_hal_spi.c ****     /* Disable SPI Peripheral before set 1Line direction (BIDIOE bit) */
1604:Drivers/STM32L4xx_HAL_Driver/Src/stm32l4xx_hal_spi.c ****     __HAL_SPI_DISABLE(hspi);
 2146              		.loc 1 1604 5
 2147 00aa FB68     		ldr	r3, [r7, #12]
 2148 00ac 1B68     		ldr	r3, [r3]
 2149 00ae 1A68     		ldr	r2, [r3]
 2150 00b0 FB68     		ldr	r3, [r7, #12]
 2151 00b2 1B68     		ldr	r3, [r3]
 2152 00b4 22F04002 		bic	r2, r2, #64
 2153 00b8 1A60     		str	r2, [r3]
1605:Drivers/STM32L4xx_HAL_Driver/Src/stm32l4xx_hal_spi.c ****     SPI_1LINE_TX(hspi);
 2154              		.loc 1 1605 5
 2155 00ba FB68     		ldr	r3, [r7, #12]
 2156 00bc 1B68     		ldr	r3, [r3]
ARM GAS  C:\Users\Morroway\AppData\Local\Temp\ccCQJjHM.s 			page 67


 2157 00be 1A68     		ldr	r2, [r3]
 2158 00c0 FB68     		ldr	r3, [r7, #12]
 2159 00c2 1B68     		ldr	r3, [r3]
 2160 00c4 42F48042 		orr	r2, r2, #16384
 2161 00c8 1A60     		str	r2, [r3]
 2162              	.L115:
1606:Drivers/STM32L4xx_HAL_Driver/Src/stm32l4xx_hal_spi.c ****   }
1607:Drivers/STM32L4xx_HAL_Driver/Src/stm32l4xx_hal_spi.c **** 
1608:Drivers/STM32L4xx_HAL_Driver/Src/stm32l4xx_hal_spi.c **** #if (USE_SPI_CRC != 0U)
1609:Drivers/STM32L4xx_HAL_Driver/Src/stm32l4xx_hal_spi.c ****   /* Reset CRC Calculation */
1610:Drivers/STM32L4xx_HAL_Driver/Src/stm32l4xx_hal_spi.c ****   if (hspi->Init.CRCCalculation == SPI_CRCCALCULATION_ENABLE)
1611:Drivers/STM32L4xx_HAL_Driver/Src/stm32l4xx_hal_spi.c ****   {
1612:Drivers/STM32L4xx_HAL_Driver/Src/stm32l4xx_hal_spi.c ****     SPI_RESET_CRC(hspi);
1613:Drivers/STM32L4xx_HAL_Driver/Src/stm32l4xx_hal_spi.c ****   }
1614:Drivers/STM32L4xx_HAL_Driver/Src/stm32l4xx_hal_spi.c **** #endif /* USE_SPI_CRC */
1615:Drivers/STM32L4xx_HAL_Driver/Src/stm32l4xx_hal_spi.c **** 
1616:Drivers/STM32L4xx_HAL_Driver/Src/stm32l4xx_hal_spi.c ****   /* Enable TXE and ERR interrupt */
1617:Drivers/STM32L4xx_HAL_Driver/Src/stm32l4xx_hal_spi.c ****   __HAL_SPI_ENABLE_IT(hspi, (SPI_IT_TXE | SPI_IT_ERR));
 2163              		.loc 1 1617 3
 2164 00ca FB68     		ldr	r3, [r7, #12]
 2165 00cc 1B68     		ldr	r3, [r3]
 2166 00ce 5A68     		ldr	r2, [r3, #4]
 2167 00d0 FB68     		ldr	r3, [r7, #12]
 2168 00d2 1B68     		ldr	r3, [r3]
 2169 00d4 42F0A002 		orr	r2, r2, #160
 2170 00d8 5A60     		str	r2, [r3, #4]
1618:Drivers/STM32L4xx_HAL_Driver/Src/stm32l4xx_hal_spi.c **** 
1619:Drivers/STM32L4xx_HAL_Driver/Src/stm32l4xx_hal_spi.c **** 
1620:Drivers/STM32L4xx_HAL_Driver/Src/stm32l4xx_hal_spi.c ****   /* Check if the SPI is already enabled */
1621:Drivers/STM32L4xx_HAL_Driver/Src/stm32l4xx_hal_spi.c ****   if ((hspi->Instance->CR1 & SPI_CR1_SPE) != SPI_CR1_SPE)
 2171              		.loc 1 1621 12
 2172 00da FB68     		ldr	r3, [r7, #12]
 2173 00dc 1B68     		ldr	r3, [r3]
 2174              		.loc 1 1621 22
 2175 00de 1B68     		ldr	r3, [r3]
 2176              		.loc 1 1621 28
 2177 00e0 03F04003 		and	r3, r3, #64
 2178              		.loc 1 1621 6
 2179 00e4 402B     		cmp	r3, #64
 2180 00e6 08D0     		beq	.L116
1622:Drivers/STM32L4xx_HAL_Driver/Src/stm32l4xx_hal_spi.c ****   {
1623:Drivers/STM32L4xx_HAL_Driver/Src/stm32l4xx_hal_spi.c ****     /* Enable SPI peripheral */
1624:Drivers/STM32L4xx_HAL_Driver/Src/stm32l4xx_hal_spi.c ****     __HAL_SPI_ENABLE(hspi);
 2181              		.loc 1 1624 5
 2182 00e8 FB68     		ldr	r3, [r7, #12]
 2183 00ea 1B68     		ldr	r3, [r3]
 2184 00ec 1A68     		ldr	r2, [r3]
 2185 00ee FB68     		ldr	r3, [r7, #12]
 2186 00f0 1B68     		ldr	r3, [r3]
 2187 00f2 42F04002 		orr	r2, r2, #64
 2188 00f6 1A60     		str	r2, [r3]
 2189 00f8 00E0     		b	.L111
 2190              	.L116:
1625:Drivers/STM32L4xx_HAL_Driver/Src/stm32l4xx_hal_spi.c ****   }
1626:Drivers/STM32L4xx_HAL_Driver/Src/stm32l4xx_hal_spi.c **** 
1627:Drivers/STM32L4xx_HAL_Driver/Src/stm32l4xx_hal_spi.c **** error :
 2191              		.loc 1 1627 1
ARM GAS  C:\Users\Morroway\AppData\Local\Temp\ccCQJjHM.s 			page 68


 2192 00fa 00BF     		nop
 2193              	.L111:
1628:Drivers/STM32L4xx_HAL_Driver/Src/stm32l4xx_hal_spi.c ****   __HAL_UNLOCK(hspi);
 2194              		.loc 1 1628 3
 2195 00fc FB68     		ldr	r3, [r7, #12]
 2196 00fe 0022     		movs	r2, #0
 2197 0100 83F85C20 		strb	r2, [r3, #92]
1629:Drivers/STM32L4xx_HAL_Driver/Src/stm32l4xx_hal_spi.c ****   return errorcode;
 2198              		.loc 1 1629 10
 2199 0104 FB7D     		ldrb	r3, [r7, #23]	@ zero_extendqisi2
 2200              	.L108:
1630:Drivers/STM32L4xx_HAL_Driver/Src/stm32l4xx_hal_spi.c **** }
 2201              		.loc 1 1630 1
 2202 0106 1846     		mov	r0, r3
 2203 0108 1C37     		adds	r7, r7, #28
 2204              		.cfi_def_cfa_offset 4
 2205 010a BD46     		mov	sp, r7
 2206              		.cfi_def_cfa_register 13
 2207              		@ sp needed
 2208 010c 5DF8047B 		ldr	r7, [sp], #4
 2209              		.cfi_restore 7
 2210              		.cfi_def_cfa_offset 0
 2211 0110 7047     		bx	lr
 2212              	.L118:
 2213 0112 00BF     		.align	2
 2214              	.L117:
 2215 0114 00000000 		.word	SPI_TxISR_16BIT
 2216 0118 00000000 		.word	SPI_TxISR_8BIT
 2217              		.cfi_endproc
 2218              	.LFE328:
 2220              		.section	.text.HAL_SPI_Receive_IT,"ax",%progbits
 2221              		.align	1
 2222              		.global	HAL_SPI_Receive_IT
 2223              		.syntax unified
 2224              		.thumb
 2225              		.thumb_func
 2227              	HAL_SPI_Receive_IT:
 2228              	.LFB329:
1631:Drivers/STM32L4xx_HAL_Driver/Src/stm32l4xx_hal_spi.c **** 
1632:Drivers/STM32L4xx_HAL_Driver/Src/stm32l4xx_hal_spi.c **** /**
1633:Drivers/STM32L4xx_HAL_Driver/Src/stm32l4xx_hal_spi.c ****   * @brief  Receive an amount of data in non-blocking mode with Interrupt.
1634:Drivers/STM32L4xx_HAL_Driver/Src/stm32l4xx_hal_spi.c ****   * @param  hspi pointer to a SPI_HandleTypeDef structure that contains
1635:Drivers/STM32L4xx_HAL_Driver/Src/stm32l4xx_hal_spi.c ****   *               the configuration information for SPI module.
1636:Drivers/STM32L4xx_HAL_Driver/Src/stm32l4xx_hal_spi.c ****   * @param  pData pointer to data buffer
1637:Drivers/STM32L4xx_HAL_Driver/Src/stm32l4xx_hal_spi.c ****   * @param  Size amount of data to be sent
1638:Drivers/STM32L4xx_HAL_Driver/Src/stm32l4xx_hal_spi.c ****   * @retval HAL status
1639:Drivers/STM32L4xx_HAL_Driver/Src/stm32l4xx_hal_spi.c ****   */
1640:Drivers/STM32L4xx_HAL_Driver/Src/stm32l4xx_hal_spi.c **** HAL_StatusTypeDef HAL_SPI_Receive_IT(SPI_HandleTypeDef *hspi, uint8_t *pData, uint16_t Size)
1641:Drivers/STM32L4xx_HAL_Driver/Src/stm32l4xx_hal_spi.c **** {
 2229              		.loc 1 1641 1
 2230              		.cfi_startproc
 2231              		@ args = 0, pretend = 0, frame = 24
 2232              		@ frame_needed = 1, uses_anonymous_args = 0
 2233 0000 80B5     		push	{r7, lr}
 2234              		.cfi_def_cfa_offset 8
 2235              		.cfi_offset 7, -8
 2236              		.cfi_offset 14, -4
ARM GAS  C:\Users\Morroway\AppData\Local\Temp\ccCQJjHM.s 			page 69


 2237 0002 86B0     		sub	sp, sp, #24
 2238              		.cfi_def_cfa_offset 32
 2239 0004 00AF     		add	r7, sp, #0
 2240              		.cfi_def_cfa_register 7
 2241 0006 F860     		str	r0, [r7, #12]
 2242 0008 B960     		str	r1, [r7, #8]
 2243 000a 1346     		mov	r3, r2
 2244 000c FB80     		strh	r3, [r7, #6]	@ movhi
1642:Drivers/STM32L4xx_HAL_Driver/Src/stm32l4xx_hal_spi.c ****   HAL_StatusTypeDef errorcode = HAL_OK;
 2245              		.loc 1 1642 21
 2246 000e 0023     		movs	r3, #0
 2247 0010 FB75     		strb	r3, [r7, #23]
1643:Drivers/STM32L4xx_HAL_Driver/Src/stm32l4xx_hal_spi.c **** 
1644:Drivers/STM32L4xx_HAL_Driver/Src/stm32l4xx_hal_spi.c ****   if ((hspi->Init.Direction == SPI_DIRECTION_2LINES) && (hspi->Init.Mode == SPI_MODE_MASTER))
 2248              		.loc 1 1644 18
 2249 0012 FB68     		ldr	r3, [r7, #12]
 2250 0014 9B68     		ldr	r3, [r3, #8]
 2251              		.loc 1 1644 6
 2252 0016 002B     		cmp	r3, #0
 2253 0018 10D1     		bne	.L120
 2254              		.loc 1 1644 68 discriminator 1
 2255 001a FB68     		ldr	r3, [r7, #12]
 2256 001c 5B68     		ldr	r3, [r3, #4]
 2257              		.loc 1 1644 54 discriminator 1
 2258 001e B3F5827F 		cmp	r3, #260
 2259 0022 0BD1     		bne	.L120
1645:Drivers/STM32L4xx_HAL_Driver/Src/stm32l4xx_hal_spi.c ****   {
1646:Drivers/STM32L4xx_HAL_Driver/Src/stm32l4xx_hal_spi.c ****     hspi->State = HAL_SPI_STATE_BUSY_RX;
 2260              		.loc 1 1646 17
 2261 0024 FB68     		ldr	r3, [r7, #12]
 2262 0026 0422     		movs	r2, #4
 2263 0028 83F85D20 		strb	r2, [r3, #93]
1647:Drivers/STM32L4xx_HAL_Driver/Src/stm32l4xx_hal_spi.c ****     /* Call transmit-receive function to send Dummy data on Tx line and generate clock on CLK line 
1648:Drivers/STM32L4xx_HAL_Driver/Src/stm32l4xx_hal_spi.c ****     return HAL_SPI_TransmitReceive_IT(hspi, pData, pData, Size);
 2264              		.loc 1 1648 12
 2265 002c FB88     		ldrh	r3, [r7, #6]
 2266 002e BA68     		ldr	r2, [r7, #8]
 2267 0030 B968     		ldr	r1, [r7, #8]
 2268 0032 F868     		ldr	r0, [r7, #12]
 2269 0034 FFF7FEFF 		bl	HAL_SPI_TransmitReceive_IT
 2270 0038 0346     		mov	r3, r0
 2271 003a 89E0     		b	.L121
 2272              	.L120:
1649:Drivers/STM32L4xx_HAL_Driver/Src/stm32l4xx_hal_spi.c ****   }
1650:Drivers/STM32L4xx_HAL_Driver/Src/stm32l4xx_hal_spi.c **** 
1651:Drivers/STM32L4xx_HAL_Driver/Src/stm32l4xx_hal_spi.c ****   /* Process Locked */
1652:Drivers/STM32L4xx_HAL_Driver/Src/stm32l4xx_hal_spi.c ****   __HAL_LOCK(hspi);
 2273              		.loc 1 1652 3
 2274 003c FB68     		ldr	r3, [r7, #12]
 2275 003e 93F85C30 		ldrb	r3, [r3, #92]	@ zero_extendqisi2
 2276 0042 012B     		cmp	r3, #1
 2277 0044 01D1     		bne	.L122
 2278              		.loc 1 1652 3 is_stmt 0 discriminator 1
 2279 0046 0223     		movs	r3, #2
 2280 0048 82E0     		b	.L121
 2281              	.L122:
 2282              		.loc 1 1652 3 discriminator 2
ARM GAS  C:\Users\Morroway\AppData\Local\Temp\ccCQJjHM.s 			page 70


 2283 004a FB68     		ldr	r3, [r7, #12]
 2284 004c 0122     		movs	r2, #1
 2285 004e 83F85C20 		strb	r2, [r3, #92]
1653:Drivers/STM32L4xx_HAL_Driver/Src/stm32l4xx_hal_spi.c **** 
1654:Drivers/STM32L4xx_HAL_Driver/Src/stm32l4xx_hal_spi.c ****   if (hspi->State != HAL_SPI_STATE_READY)
 2286              		.loc 1 1654 11 is_stmt 1 discriminator 2
 2287 0052 FB68     		ldr	r3, [r7, #12]
 2288 0054 93F85D30 		ldrb	r3, [r3, #93]
 2289 0058 DBB2     		uxtb	r3, r3
 2290              		.loc 1 1654 6 discriminator 2
 2291 005a 012B     		cmp	r3, #1
 2292 005c 02D0     		beq	.L123
1655:Drivers/STM32L4xx_HAL_Driver/Src/stm32l4xx_hal_spi.c ****   {
1656:Drivers/STM32L4xx_HAL_Driver/Src/stm32l4xx_hal_spi.c ****     errorcode = HAL_BUSY;
 2293              		.loc 1 1656 15
 2294 005e 0223     		movs	r3, #2
 2295 0060 FB75     		strb	r3, [r7, #23]
1657:Drivers/STM32L4xx_HAL_Driver/Src/stm32l4xx_hal_spi.c ****     goto error;
 2296              		.loc 1 1657 5
 2297 0062 70E0     		b	.L124
 2298              	.L123:
1658:Drivers/STM32L4xx_HAL_Driver/Src/stm32l4xx_hal_spi.c ****   }
1659:Drivers/STM32L4xx_HAL_Driver/Src/stm32l4xx_hal_spi.c **** 
1660:Drivers/STM32L4xx_HAL_Driver/Src/stm32l4xx_hal_spi.c ****   if ((pData == NULL) || (Size == 0U))
 2299              		.loc 1 1660 6
 2300 0064 BB68     		ldr	r3, [r7, #8]
 2301 0066 002B     		cmp	r3, #0
 2302 0068 02D0     		beq	.L125
 2303              		.loc 1 1660 23 discriminator 1
 2304 006a FB88     		ldrh	r3, [r7, #6]
 2305 006c 002B     		cmp	r3, #0
 2306 006e 02D1     		bne	.L126
 2307              	.L125:
1661:Drivers/STM32L4xx_HAL_Driver/Src/stm32l4xx_hal_spi.c ****   {
1662:Drivers/STM32L4xx_HAL_Driver/Src/stm32l4xx_hal_spi.c ****     errorcode = HAL_ERROR;
 2308              		.loc 1 1662 15
 2309 0070 0123     		movs	r3, #1
 2310 0072 FB75     		strb	r3, [r7, #23]
1663:Drivers/STM32L4xx_HAL_Driver/Src/stm32l4xx_hal_spi.c ****     goto error;
 2311              		.loc 1 1663 5
 2312 0074 67E0     		b	.L124
 2313              	.L126:
1664:Drivers/STM32L4xx_HAL_Driver/Src/stm32l4xx_hal_spi.c ****   }
1665:Drivers/STM32L4xx_HAL_Driver/Src/stm32l4xx_hal_spi.c **** 
1666:Drivers/STM32L4xx_HAL_Driver/Src/stm32l4xx_hal_spi.c ****   /* Set the transaction information */
1667:Drivers/STM32L4xx_HAL_Driver/Src/stm32l4xx_hal_spi.c ****   hspi->State       = HAL_SPI_STATE_BUSY_RX;
 2314              		.loc 1 1667 21
 2315 0076 FB68     		ldr	r3, [r7, #12]
 2316 0078 0422     		movs	r2, #4
 2317 007a 83F85D20 		strb	r2, [r3, #93]
1668:Drivers/STM32L4xx_HAL_Driver/Src/stm32l4xx_hal_spi.c ****   hspi->ErrorCode   = HAL_SPI_ERROR_NONE;
 2318              		.loc 1 1668 21
 2319 007e FB68     		ldr	r3, [r7, #12]
 2320 0080 0022     		movs	r2, #0
 2321 0082 1A66     		str	r2, [r3, #96]
1669:Drivers/STM32L4xx_HAL_Driver/Src/stm32l4xx_hal_spi.c ****   hspi->pRxBuffPtr  = (uint8_t *)pData;
 2322              		.loc 1 1669 21
ARM GAS  C:\Users\Morroway\AppData\Local\Temp\ccCQJjHM.s 			page 71


 2323 0084 FB68     		ldr	r3, [r7, #12]
 2324 0086 BA68     		ldr	r2, [r7, #8]
 2325 0088 1A64     		str	r2, [r3, #64]
1670:Drivers/STM32L4xx_HAL_Driver/Src/stm32l4xx_hal_spi.c ****   hspi->RxXferSize  = Size;
 2326              		.loc 1 1670 21
 2327 008a FB68     		ldr	r3, [r7, #12]
 2328 008c FA88     		ldrh	r2, [r7, #6]	@ movhi
 2329 008e A3F84420 		strh	r2, [r3, #68]	@ movhi
1671:Drivers/STM32L4xx_HAL_Driver/Src/stm32l4xx_hal_spi.c ****   hspi->RxXferCount = Size;
 2330              		.loc 1 1671 21
 2331 0092 FB68     		ldr	r3, [r7, #12]
 2332 0094 FA88     		ldrh	r2, [r7, #6]	@ movhi
 2333 0096 A3F84620 		strh	r2, [r3, #70]	@ movhi
1672:Drivers/STM32L4xx_HAL_Driver/Src/stm32l4xx_hal_spi.c **** 
1673:Drivers/STM32L4xx_HAL_Driver/Src/stm32l4xx_hal_spi.c ****   /* Init field not used in handle to zero */
1674:Drivers/STM32L4xx_HAL_Driver/Src/stm32l4xx_hal_spi.c ****   hspi->pTxBuffPtr  = (uint8_t *)NULL;
 2334              		.loc 1 1674 21
 2335 009a FB68     		ldr	r3, [r7, #12]
 2336 009c 0022     		movs	r2, #0
 2337 009e 9A63     		str	r2, [r3, #56]
1675:Drivers/STM32L4xx_HAL_Driver/Src/stm32l4xx_hal_spi.c ****   hspi->TxXferSize  = 0U;
 2338              		.loc 1 1675 21
 2339 00a0 FB68     		ldr	r3, [r7, #12]
 2340 00a2 0022     		movs	r2, #0
 2341 00a4 9A87     		strh	r2, [r3, #60]	@ movhi
1676:Drivers/STM32L4xx_HAL_Driver/Src/stm32l4xx_hal_spi.c ****   hspi->TxXferCount = 0U;
 2342              		.loc 1 1676 21
 2343 00a6 FB68     		ldr	r3, [r7, #12]
 2344 00a8 0022     		movs	r2, #0
 2345 00aa DA87     		strh	r2, [r3, #62]	@ movhi
1677:Drivers/STM32L4xx_HAL_Driver/Src/stm32l4xx_hal_spi.c ****   hspi->TxISR       = NULL;
 2346              		.loc 1 1677 21
 2347 00ac FB68     		ldr	r3, [r7, #12]
 2348 00ae 0022     		movs	r2, #0
 2349 00b0 1A65     		str	r2, [r3, #80]
1678:Drivers/STM32L4xx_HAL_Driver/Src/stm32l4xx_hal_spi.c **** 
1679:Drivers/STM32L4xx_HAL_Driver/Src/stm32l4xx_hal_spi.c ****   /* Check the data size to adapt Rx threshold and the set the function for IT treatment */
1680:Drivers/STM32L4xx_HAL_Driver/Src/stm32l4xx_hal_spi.c ****   if (hspi->Init.DataSize > SPI_DATASIZE_8BIT)
 2350              		.loc 1 1680 17
 2351 00b2 FB68     		ldr	r3, [r7, #12]
 2352 00b4 DB68     		ldr	r3, [r3, #12]
 2353              		.loc 1 1680 6
 2354 00b6 B3F5E06F 		cmp	r3, #1792
 2355 00ba 0BD9     		bls	.L127
1681:Drivers/STM32L4xx_HAL_Driver/Src/stm32l4xx_hal_spi.c ****   {
1682:Drivers/STM32L4xx_HAL_Driver/Src/stm32l4xx_hal_spi.c ****     /* Set RX Fifo threshold according the reception data length: 16 bit */
1683:Drivers/STM32L4xx_HAL_Driver/Src/stm32l4xx_hal_spi.c ****     CLEAR_BIT(hspi->Instance->CR2, SPI_RXFIFO_THRESHOLD);
 2356              		.loc 1 1683 5
 2357 00bc FB68     		ldr	r3, [r7, #12]
 2358 00be 1B68     		ldr	r3, [r3]
 2359 00c0 5A68     		ldr	r2, [r3, #4]
 2360 00c2 FB68     		ldr	r3, [r7, #12]
 2361 00c4 1B68     		ldr	r3, [r3]
 2362 00c6 22F48052 		bic	r2, r2, #4096
 2363 00ca 5A60     		str	r2, [r3, #4]
1684:Drivers/STM32L4xx_HAL_Driver/Src/stm32l4xx_hal_spi.c ****     hspi->RxISR = SPI_RxISR_16BIT;
 2364              		.loc 1 1684 17
ARM GAS  C:\Users\Morroway\AppData\Local\Temp\ccCQJjHM.s 			page 72


 2365 00cc FB68     		ldr	r3, [r7, #12]
 2366 00ce 224A     		ldr	r2, .L131
 2367 00d0 DA64     		str	r2, [r3, #76]
 2368 00d2 0AE0     		b	.L128
 2369              	.L127:
1685:Drivers/STM32L4xx_HAL_Driver/Src/stm32l4xx_hal_spi.c ****   }
1686:Drivers/STM32L4xx_HAL_Driver/Src/stm32l4xx_hal_spi.c ****   else
1687:Drivers/STM32L4xx_HAL_Driver/Src/stm32l4xx_hal_spi.c ****   {
1688:Drivers/STM32L4xx_HAL_Driver/Src/stm32l4xx_hal_spi.c ****     /* Set RX Fifo threshold according the reception data length: 8 bit */
1689:Drivers/STM32L4xx_HAL_Driver/Src/stm32l4xx_hal_spi.c ****     SET_BIT(hspi->Instance->CR2, SPI_RXFIFO_THRESHOLD);
 2370              		.loc 1 1689 5
 2371 00d4 FB68     		ldr	r3, [r7, #12]
 2372 00d6 1B68     		ldr	r3, [r3]
 2373 00d8 5A68     		ldr	r2, [r3, #4]
 2374 00da FB68     		ldr	r3, [r7, #12]
 2375 00dc 1B68     		ldr	r3, [r3]
 2376 00de 42F48052 		orr	r2, r2, #4096
 2377 00e2 5A60     		str	r2, [r3, #4]
1690:Drivers/STM32L4xx_HAL_Driver/Src/stm32l4xx_hal_spi.c ****     hspi->RxISR = SPI_RxISR_8BIT;
 2378              		.loc 1 1690 17
 2379 00e4 FB68     		ldr	r3, [r7, #12]
 2380 00e6 1D4A     		ldr	r2, .L131+4
 2381 00e8 DA64     		str	r2, [r3, #76]
 2382              	.L128:
1691:Drivers/STM32L4xx_HAL_Driver/Src/stm32l4xx_hal_spi.c ****   }
1692:Drivers/STM32L4xx_HAL_Driver/Src/stm32l4xx_hal_spi.c **** 
1693:Drivers/STM32L4xx_HAL_Driver/Src/stm32l4xx_hal_spi.c ****   /* Configure communication direction : 1Line */
1694:Drivers/STM32L4xx_HAL_Driver/Src/stm32l4xx_hal_spi.c ****   if (hspi->Init.Direction == SPI_DIRECTION_1LINE)
 2383              		.loc 1 1694 17
 2384 00ea FB68     		ldr	r3, [r7, #12]
 2385 00ec 9B68     		ldr	r3, [r3, #8]
 2386              		.loc 1 1694 6
 2387 00ee B3F5004F 		cmp	r3, #32768
 2388 00f2 0FD1     		bne	.L129
1695:Drivers/STM32L4xx_HAL_Driver/Src/stm32l4xx_hal_spi.c ****   {
1696:Drivers/STM32L4xx_HAL_Driver/Src/stm32l4xx_hal_spi.c ****     /* Disable SPI Peripheral before set 1Line direction (BIDIOE bit) */
1697:Drivers/STM32L4xx_HAL_Driver/Src/stm32l4xx_hal_spi.c ****     __HAL_SPI_DISABLE(hspi);
 2389              		.loc 1 1697 5
 2390 00f4 FB68     		ldr	r3, [r7, #12]
 2391 00f6 1B68     		ldr	r3, [r3]
 2392 00f8 1A68     		ldr	r2, [r3]
 2393 00fa FB68     		ldr	r3, [r7, #12]
 2394 00fc 1B68     		ldr	r3, [r3]
 2395 00fe 22F04002 		bic	r2, r2, #64
 2396 0102 1A60     		str	r2, [r3]
1698:Drivers/STM32L4xx_HAL_Driver/Src/stm32l4xx_hal_spi.c ****     SPI_1LINE_RX(hspi);
 2397              		.loc 1 1698 5
 2398 0104 FB68     		ldr	r3, [r7, #12]
 2399 0106 1B68     		ldr	r3, [r3]
 2400 0108 1A68     		ldr	r2, [r3]
 2401 010a FB68     		ldr	r3, [r7, #12]
 2402 010c 1B68     		ldr	r3, [r3]
 2403 010e 22F48042 		bic	r2, r2, #16384
 2404 0112 1A60     		str	r2, [r3]
 2405              	.L129:
1699:Drivers/STM32L4xx_HAL_Driver/Src/stm32l4xx_hal_spi.c ****   }
1700:Drivers/STM32L4xx_HAL_Driver/Src/stm32l4xx_hal_spi.c **** 
ARM GAS  C:\Users\Morroway\AppData\Local\Temp\ccCQJjHM.s 			page 73


1701:Drivers/STM32L4xx_HAL_Driver/Src/stm32l4xx_hal_spi.c **** #if (USE_SPI_CRC != 0U)
1702:Drivers/STM32L4xx_HAL_Driver/Src/stm32l4xx_hal_spi.c ****   /* Reset CRC Calculation */
1703:Drivers/STM32L4xx_HAL_Driver/Src/stm32l4xx_hal_spi.c ****   if (hspi->Init.CRCCalculation == SPI_CRCCALCULATION_ENABLE)
1704:Drivers/STM32L4xx_HAL_Driver/Src/stm32l4xx_hal_spi.c ****   {
1705:Drivers/STM32L4xx_HAL_Driver/Src/stm32l4xx_hal_spi.c ****     hspi->CRCSize = 1U;
1706:Drivers/STM32L4xx_HAL_Driver/Src/stm32l4xx_hal_spi.c ****     if ((hspi->Init.DataSize <= SPI_DATASIZE_8BIT) && (hspi->Init.CRCLength == SPI_CRC_LENGTH_16BIT
1707:Drivers/STM32L4xx_HAL_Driver/Src/stm32l4xx_hal_spi.c ****     {
1708:Drivers/STM32L4xx_HAL_Driver/Src/stm32l4xx_hal_spi.c ****       hspi->CRCSize = 2U;
1709:Drivers/STM32L4xx_HAL_Driver/Src/stm32l4xx_hal_spi.c ****     }
1710:Drivers/STM32L4xx_HAL_Driver/Src/stm32l4xx_hal_spi.c ****     SPI_RESET_CRC(hspi);
1711:Drivers/STM32L4xx_HAL_Driver/Src/stm32l4xx_hal_spi.c ****   }
1712:Drivers/STM32L4xx_HAL_Driver/Src/stm32l4xx_hal_spi.c ****   else
1713:Drivers/STM32L4xx_HAL_Driver/Src/stm32l4xx_hal_spi.c ****   {
1714:Drivers/STM32L4xx_HAL_Driver/Src/stm32l4xx_hal_spi.c ****     hspi->CRCSize = 0U;
1715:Drivers/STM32L4xx_HAL_Driver/Src/stm32l4xx_hal_spi.c ****   }
1716:Drivers/STM32L4xx_HAL_Driver/Src/stm32l4xx_hal_spi.c **** #endif /* USE_SPI_CRC */
1717:Drivers/STM32L4xx_HAL_Driver/Src/stm32l4xx_hal_spi.c **** 
1718:Drivers/STM32L4xx_HAL_Driver/Src/stm32l4xx_hal_spi.c ****   /* Enable TXE and ERR interrupt */
1719:Drivers/STM32L4xx_HAL_Driver/Src/stm32l4xx_hal_spi.c ****   __HAL_SPI_ENABLE_IT(hspi, (SPI_IT_RXNE | SPI_IT_ERR));
 2406              		.loc 1 1719 3
 2407 0114 FB68     		ldr	r3, [r7, #12]
 2408 0116 1B68     		ldr	r3, [r3]
 2409 0118 5A68     		ldr	r2, [r3, #4]
 2410 011a FB68     		ldr	r3, [r7, #12]
 2411 011c 1B68     		ldr	r3, [r3]
 2412 011e 42F06002 		orr	r2, r2, #96
 2413 0122 5A60     		str	r2, [r3, #4]
1720:Drivers/STM32L4xx_HAL_Driver/Src/stm32l4xx_hal_spi.c **** 
1721:Drivers/STM32L4xx_HAL_Driver/Src/stm32l4xx_hal_spi.c ****   /* Note : The SPI must be enabled after unlocking current process
1722:Drivers/STM32L4xx_HAL_Driver/Src/stm32l4xx_hal_spi.c ****             to avoid the risk of SPI interrupt handle execution before current
1723:Drivers/STM32L4xx_HAL_Driver/Src/stm32l4xx_hal_spi.c ****             process unlock */
1724:Drivers/STM32L4xx_HAL_Driver/Src/stm32l4xx_hal_spi.c **** 
1725:Drivers/STM32L4xx_HAL_Driver/Src/stm32l4xx_hal_spi.c ****   /* Check if the SPI is already enabled */
1726:Drivers/STM32L4xx_HAL_Driver/Src/stm32l4xx_hal_spi.c ****   if ((hspi->Instance->CR1 & SPI_CR1_SPE) != SPI_CR1_SPE)
 2414              		.loc 1 1726 12
 2415 0124 FB68     		ldr	r3, [r7, #12]
 2416 0126 1B68     		ldr	r3, [r3]
 2417              		.loc 1 1726 22
 2418 0128 1B68     		ldr	r3, [r3]
 2419              		.loc 1 1726 28
 2420 012a 03F04003 		and	r3, r3, #64
 2421              		.loc 1 1726 6
 2422 012e 402B     		cmp	r3, #64
 2423 0130 08D0     		beq	.L130
1727:Drivers/STM32L4xx_HAL_Driver/Src/stm32l4xx_hal_spi.c ****   {
1728:Drivers/STM32L4xx_HAL_Driver/Src/stm32l4xx_hal_spi.c ****     /* Enable SPI peripheral */
1729:Drivers/STM32L4xx_HAL_Driver/Src/stm32l4xx_hal_spi.c ****     __HAL_SPI_ENABLE(hspi);
 2424              		.loc 1 1729 5
 2425 0132 FB68     		ldr	r3, [r7, #12]
 2426 0134 1B68     		ldr	r3, [r3]
 2427 0136 1A68     		ldr	r2, [r3]
 2428 0138 FB68     		ldr	r3, [r7, #12]
 2429 013a 1B68     		ldr	r3, [r3]
 2430 013c 42F04002 		orr	r2, r2, #64
 2431 0140 1A60     		str	r2, [r3]
 2432 0142 00E0     		b	.L124
 2433              	.L130:
ARM GAS  C:\Users\Morroway\AppData\Local\Temp\ccCQJjHM.s 			page 74


1730:Drivers/STM32L4xx_HAL_Driver/Src/stm32l4xx_hal_spi.c ****   }
1731:Drivers/STM32L4xx_HAL_Driver/Src/stm32l4xx_hal_spi.c **** 
1732:Drivers/STM32L4xx_HAL_Driver/Src/stm32l4xx_hal_spi.c **** error :
 2434              		.loc 1 1732 1
 2435 0144 00BF     		nop
 2436              	.L124:
1733:Drivers/STM32L4xx_HAL_Driver/Src/stm32l4xx_hal_spi.c ****   /* Process Unlocked */
1734:Drivers/STM32L4xx_HAL_Driver/Src/stm32l4xx_hal_spi.c ****   __HAL_UNLOCK(hspi);
 2437              		.loc 1 1734 3
 2438 0146 FB68     		ldr	r3, [r7, #12]
 2439 0148 0022     		movs	r2, #0
 2440 014a 83F85C20 		strb	r2, [r3, #92]
1735:Drivers/STM32L4xx_HAL_Driver/Src/stm32l4xx_hal_spi.c ****   return errorcode;
 2441              		.loc 1 1735 10
 2442 014e FB7D     		ldrb	r3, [r7, #23]	@ zero_extendqisi2
 2443              	.L121:
1736:Drivers/STM32L4xx_HAL_Driver/Src/stm32l4xx_hal_spi.c **** }
 2444              		.loc 1 1736 1
 2445 0150 1846     		mov	r0, r3
 2446 0152 1837     		adds	r7, r7, #24
 2447              		.cfi_def_cfa_offset 8
 2448 0154 BD46     		mov	sp, r7
 2449              		.cfi_def_cfa_register 13
 2450              		@ sp needed
 2451 0156 80BD     		pop	{r7, pc}
 2452              	.L132:
 2453              		.align	2
 2454              	.L131:
 2455 0158 00000000 		.word	SPI_RxISR_16BIT
 2456 015c 00000000 		.word	SPI_RxISR_8BIT
 2457              		.cfi_endproc
 2458              	.LFE329:
 2460              		.section	.text.HAL_SPI_TransmitReceive_IT,"ax",%progbits
 2461              		.align	1
 2462              		.global	HAL_SPI_TransmitReceive_IT
 2463              		.syntax unified
 2464              		.thumb
 2465              		.thumb_func
 2467              	HAL_SPI_TransmitReceive_IT:
 2468              	.LFB330:
1737:Drivers/STM32L4xx_HAL_Driver/Src/stm32l4xx_hal_spi.c **** 
1738:Drivers/STM32L4xx_HAL_Driver/Src/stm32l4xx_hal_spi.c **** /**
1739:Drivers/STM32L4xx_HAL_Driver/Src/stm32l4xx_hal_spi.c ****   * @brief  Transmit and Receive an amount of data in non-blocking mode with Interrupt.
1740:Drivers/STM32L4xx_HAL_Driver/Src/stm32l4xx_hal_spi.c ****   * @param  hspi pointer to a SPI_HandleTypeDef structure that contains
1741:Drivers/STM32L4xx_HAL_Driver/Src/stm32l4xx_hal_spi.c ****   *               the configuration information for SPI module.
1742:Drivers/STM32L4xx_HAL_Driver/Src/stm32l4xx_hal_spi.c ****   * @param  pTxData pointer to transmission data buffer
1743:Drivers/STM32L4xx_HAL_Driver/Src/stm32l4xx_hal_spi.c ****   * @param  pRxData pointer to reception data buffer
1744:Drivers/STM32L4xx_HAL_Driver/Src/stm32l4xx_hal_spi.c ****   * @param  Size amount of data to be sent and received
1745:Drivers/STM32L4xx_HAL_Driver/Src/stm32l4xx_hal_spi.c ****   * @retval HAL status
1746:Drivers/STM32L4xx_HAL_Driver/Src/stm32l4xx_hal_spi.c ****   */
1747:Drivers/STM32L4xx_HAL_Driver/Src/stm32l4xx_hal_spi.c **** HAL_StatusTypeDef HAL_SPI_TransmitReceive_IT(SPI_HandleTypeDef *hspi, uint8_t *pTxData, uint8_t *pR
1748:Drivers/STM32L4xx_HAL_Driver/Src/stm32l4xx_hal_spi.c **** {
 2469              		.loc 1 1748 1
 2470              		.cfi_startproc
 2471              		@ args = 0, pretend = 0, frame = 24
 2472              		@ frame_needed = 1, uses_anonymous_args = 0
 2473              		@ link register save eliminated.
ARM GAS  C:\Users\Morroway\AppData\Local\Temp\ccCQJjHM.s 			page 75


 2474 0000 80B4     		push	{r7}
 2475              		.cfi_def_cfa_offset 4
 2476              		.cfi_offset 7, -4
 2477 0002 87B0     		sub	sp, sp, #28
 2478              		.cfi_def_cfa_offset 32
 2479 0004 00AF     		add	r7, sp, #0
 2480              		.cfi_def_cfa_register 7
 2481 0006 F860     		str	r0, [r7, #12]
 2482 0008 B960     		str	r1, [r7, #8]
 2483 000a 7A60     		str	r2, [r7, #4]
 2484 000c 7B80     		strh	r3, [r7, #2]	@ movhi
1749:Drivers/STM32L4xx_HAL_Driver/Src/stm32l4xx_hal_spi.c ****   uint32_t             tmp_mode;
1750:Drivers/STM32L4xx_HAL_Driver/Src/stm32l4xx_hal_spi.c ****   HAL_SPI_StateTypeDef tmp_state;
1751:Drivers/STM32L4xx_HAL_Driver/Src/stm32l4xx_hal_spi.c ****   HAL_StatusTypeDef    errorcode = HAL_OK;
 2485              		.loc 1 1751 24
 2486 000e 0023     		movs	r3, #0
 2487 0010 FB75     		strb	r3, [r7, #23]
1752:Drivers/STM32L4xx_HAL_Driver/Src/stm32l4xx_hal_spi.c **** 
1753:Drivers/STM32L4xx_HAL_Driver/Src/stm32l4xx_hal_spi.c ****   /* Check Direction parameter */
1754:Drivers/STM32L4xx_HAL_Driver/Src/stm32l4xx_hal_spi.c ****   assert_param(IS_SPI_DIRECTION_2LINES(hspi->Init.Direction));
1755:Drivers/STM32L4xx_HAL_Driver/Src/stm32l4xx_hal_spi.c **** 
1756:Drivers/STM32L4xx_HAL_Driver/Src/stm32l4xx_hal_spi.c ****   /* Process locked */
1757:Drivers/STM32L4xx_HAL_Driver/Src/stm32l4xx_hal_spi.c ****   __HAL_LOCK(hspi);
 2488              		.loc 1 1757 3
 2489 0012 FB68     		ldr	r3, [r7, #12]
 2490 0014 93F85C30 		ldrb	r3, [r3, #92]	@ zero_extendqisi2
 2491 0018 012B     		cmp	r3, #1
 2492 001a 01D1     		bne	.L134
 2493              		.loc 1 1757 3 is_stmt 0 discriminator 1
 2494 001c 0223     		movs	r3, #2
 2495 001e 91E0     		b	.L135
 2496              	.L134:
 2497              		.loc 1 1757 3 discriminator 2
 2498 0020 FB68     		ldr	r3, [r7, #12]
 2499 0022 0122     		movs	r2, #1
 2500 0024 83F85C20 		strb	r2, [r3, #92]
1758:Drivers/STM32L4xx_HAL_Driver/Src/stm32l4xx_hal_spi.c **** 
1759:Drivers/STM32L4xx_HAL_Driver/Src/stm32l4xx_hal_spi.c ****   /* Init temporary variables */
1760:Drivers/STM32L4xx_HAL_Driver/Src/stm32l4xx_hal_spi.c ****   tmp_state           = hspi->State;
 2501              		.loc 1 1760 23 is_stmt 1 discriminator 2
 2502 0028 FB68     		ldr	r3, [r7, #12]
 2503 002a 93F85D30 		ldrb	r3, [r3, #93]
 2504 002e BB75     		strb	r3, [r7, #22]
1761:Drivers/STM32L4xx_HAL_Driver/Src/stm32l4xx_hal_spi.c ****   tmp_mode            = hspi->Init.Mode;
 2505              		.loc 1 1761 23 discriminator 2
 2506 0030 FB68     		ldr	r3, [r7, #12]
 2507 0032 5B68     		ldr	r3, [r3, #4]
 2508 0034 3B61     		str	r3, [r7, #16]
1762:Drivers/STM32L4xx_HAL_Driver/Src/stm32l4xx_hal_spi.c **** 
1763:Drivers/STM32L4xx_HAL_Driver/Src/stm32l4xx_hal_spi.c ****   if (!((tmp_state == HAL_SPI_STATE_READY) || \
 2509              		.loc 1 1763 6 discriminator 2
 2510 0036 BB7D     		ldrb	r3, [r7, #22]	@ zero_extendqisi2
 2511 0038 012B     		cmp	r3, #1
 2512 003a 0DD0     		beq	.L136
 2513              		.loc 1 1763 7 discriminator 1
 2514 003c 3B69     		ldr	r3, [r7, #16]
 2515 003e B3F5827F 		cmp	r3, #260
ARM GAS  C:\Users\Morroway\AppData\Local\Temp\ccCQJjHM.s 			page 76


 2516 0042 06D1     		bne	.L137
1764:Drivers/STM32L4xx_HAL_Driver/Src/stm32l4xx_hal_spi.c ****         ((tmp_mode == SPI_MODE_MASTER) && (hspi->Init.Direction == SPI_DIRECTION_2LINES) && (tmp_st
 2517              		.loc 1 1764 54
 2518 0044 FB68     		ldr	r3, [r7, #12]
 2519 0046 9B68     		ldr	r3, [r3, #8]
 2520              		.loc 1 1764 40
 2521 0048 002B     		cmp	r3, #0
 2522 004a 02D1     		bne	.L137
 2523              		.loc 1 1764 90 discriminator 1
 2524 004c BB7D     		ldrb	r3, [r7, #22]	@ zero_extendqisi2
 2525 004e 042B     		cmp	r3, #4
 2526 0050 02D0     		beq	.L136
 2527              	.L137:
1765:Drivers/STM32L4xx_HAL_Driver/Src/stm32l4xx_hal_spi.c ****   {
1766:Drivers/STM32L4xx_HAL_Driver/Src/stm32l4xx_hal_spi.c ****     errorcode = HAL_BUSY;
 2528              		.loc 1 1766 15
 2529 0052 0223     		movs	r3, #2
 2530 0054 FB75     		strb	r3, [r7, #23]
1767:Drivers/STM32L4xx_HAL_Driver/Src/stm32l4xx_hal_spi.c ****     goto error;
 2531              		.loc 1 1767 5
 2532 0056 70E0     		b	.L138
 2533              	.L136:
1768:Drivers/STM32L4xx_HAL_Driver/Src/stm32l4xx_hal_spi.c ****   }
1769:Drivers/STM32L4xx_HAL_Driver/Src/stm32l4xx_hal_spi.c **** 
1770:Drivers/STM32L4xx_HAL_Driver/Src/stm32l4xx_hal_spi.c ****   if ((pTxData == NULL) || (pRxData == NULL) || (Size == 0U))
 2534              		.loc 1 1770 6
 2535 0058 BB68     		ldr	r3, [r7, #8]
 2536 005a 002B     		cmp	r3, #0
 2537 005c 05D0     		beq	.L139
 2538              		.loc 1 1770 25 discriminator 1
 2539 005e 7B68     		ldr	r3, [r7, #4]
 2540 0060 002B     		cmp	r3, #0
 2541 0062 02D0     		beq	.L139
 2542              		.loc 1 1770 46 discriminator 2
 2543 0064 7B88     		ldrh	r3, [r7, #2]
 2544 0066 002B     		cmp	r3, #0
 2545 0068 02D1     		bne	.L140
 2546              	.L139:
1771:Drivers/STM32L4xx_HAL_Driver/Src/stm32l4xx_hal_spi.c ****   {
1772:Drivers/STM32L4xx_HAL_Driver/Src/stm32l4xx_hal_spi.c ****     errorcode = HAL_ERROR;
 2547              		.loc 1 1772 15
 2548 006a 0123     		movs	r3, #1
 2549 006c FB75     		strb	r3, [r7, #23]
1773:Drivers/STM32L4xx_HAL_Driver/Src/stm32l4xx_hal_spi.c ****     goto error;
 2550              		.loc 1 1773 5
 2551 006e 64E0     		b	.L138
 2552              	.L140:
1774:Drivers/STM32L4xx_HAL_Driver/Src/stm32l4xx_hal_spi.c ****   }
1775:Drivers/STM32L4xx_HAL_Driver/Src/stm32l4xx_hal_spi.c **** 
1776:Drivers/STM32L4xx_HAL_Driver/Src/stm32l4xx_hal_spi.c ****   /* Don't overwrite in case of HAL_SPI_STATE_BUSY_RX */
1777:Drivers/STM32L4xx_HAL_Driver/Src/stm32l4xx_hal_spi.c ****   if (hspi->State != HAL_SPI_STATE_BUSY_RX)
 2553              		.loc 1 1777 11
 2554 0070 FB68     		ldr	r3, [r7, #12]
 2555 0072 93F85D30 		ldrb	r3, [r3, #93]
 2556 0076 DBB2     		uxtb	r3, r3
 2557              		.loc 1 1777 6
 2558 0078 042B     		cmp	r3, #4
ARM GAS  C:\Users\Morroway\AppData\Local\Temp\ccCQJjHM.s 			page 77


 2559 007a 03D0     		beq	.L141
1778:Drivers/STM32L4xx_HAL_Driver/Src/stm32l4xx_hal_spi.c ****   {
1779:Drivers/STM32L4xx_HAL_Driver/Src/stm32l4xx_hal_spi.c ****     hspi->State = HAL_SPI_STATE_BUSY_TX_RX;
 2560              		.loc 1 1779 17
 2561 007c FB68     		ldr	r3, [r7, #12]
 2562 007e 0522     		movs	r2, #5
 2563 0080 83F85D20 		strb	r2, [r3, #93]
 2564              	.L141:
1780:Drivers/STM32L4xx_HAL_Driver/Src/stm32l4xx_hal_spi.c ****   }
1781:Drivers/STM32L4xx_HAL_Driver/Src/stm32l4xx_hal_spi.c **** 
1782:Drivers/STM32L4xx_HAL_Driver/Src/stm32l4xx_hal_spi.c ****   /* Set the transaction information */
1783:Drivers/STM32L4xx_HAL_Driver/Src/stm32l4xx_hal_spi.c ****   hspi->ErrorCode   = HAL_SPI_ERROR_NONE;
 2565              		.loc 1 1783 21
 2566 0084 FB68     		ldr	r3, [r7, #12]
 2567 0086 0022     		movs	r2, #0
 2568 0088 1A66     		str	r2, [r3, #96]
1784:Drivers/STM32L4xx_HAL_Driver/Src/stm32l4xx_hal_spi.c ****   hspi->pTxBuffPtr  = (uint8_t *)pTxData;
 2569              		.loc 1 1784 21
 2570 008a FB68     		ldr	r3, [r7, #12]
 2571 008c BA68     		ldr	r2, [r7, #8]
 2572 008e 9A63     		str	r2, [r3, #56]
1785:Drivers/STM32L4xx_HAL_Driver/Src/stm32l4xx_hal_spi.c ****   hspi->TxXferSize  = Size;
 2573              		.loc 1 1785 21
 2574 0090 FB68     		ldr	r3, [r7, #12]
 2575 0092 7A88     		ldrh	r2, [r7, #2]	@ movhi
 2576 0094 9A87     		strh	r2, [r3, #60]	@ movhi
1786:Drivers/STM32L4xx_HAL_Driver/Src/stm32l4xx_hal_spi.c ****   hspi->TxXferCount = Size;
 2577              		.loc 1 1786 21
 2578 0096 FB68     		ldr	r3, [r7, #12]
 2579 0098 7A88     		ldrh	r2, [r7, #2]	@ movhi
 2580 009a DA87     		strh	r2, [r3, #62]	@ movhi
1787:Drivers/STM32L4xx_HAL_Driver/Src/stm32l4xx_hal_spi.c ****   hspi->pRxBuffPtr  = (uint8_t *)pRxData;
 2581              		.loc 1 1787 21
 2582 009c FB68     		ldr	r3, [r7, #12]
 2583 009e 7A68     		ldr	r2, [r7, #4]
 2584 00a0 1A64     		str	r2, [r3, #64]
1788:Drivers/STM32L4xx_HAL_Driver/Src/stm32l4xx_hal_spi.c ****   hspi->RxXferSize  = Size;
 2585              		.loc 1 1788 21
 2586 00a2 FB68     		ldr	r3, [r7, #12]
 2587 00a4 7A88     		ldrh	r2, [r7, #2]	@ movhi
 2588 00a6 A3F84420 		strh	r2, [r3, #68]	@ movhi
1789:Drivers/STM32L4xx_HAL_Driver/Src/stm32l4xx_hal_spi.c ****   hspi->RxXferCount = Size;
 2589              		.loc 1 1789 21
 2590 00aa FB68     		ldr	r3, [r7, #12]
 2591 00ac 7A88     		ldrh	r2, [r7, #2]	@ movhi
 2592 00ae A3F84620 		strh	r2, [r3, #70]	@ movhi
1790:Drivers/STM32L4xx_HAL_Driver/Src/stm32l4xx_hal_spi.c **** 
1791:Drivers/STM32L4xx_HAL_Driver/Src/stm32l4xx_hal_spi.c ****   /* Set the function for IT treatment */
1792:Drivers/STM32L4xx_HAL_Driver/Src/stm32l4xx_hal_spi.c ****   if (hspi->Init.DataSize > SPI_DATASIZE_8BIT)
 2593              		.loc 1 1792 17
 2594 00b2 FB68     		ldr	r3, [r7, #12]
 2595 00b4 DB68     		ldr	r3, [r3, #12]
 2596              		.loc 1 1792 6
 2597 00b6 B3F5E06F 		cmp	r3, #1792
 2598 00ba 06D9     		bls	.L142
1793:Drivers/STM32L4xx_HAL_Driver/Src/stm32l4xx_hal_spi.c ****   {
1794:Drivers/STM32L4xx_HAL_Driver/Src/stm32l4xx_hal_spi.c ****     hspi->RxISR     = SPI_2linesRxISR_16BIT;
ARM GAS  C:\Users\Morroway\AppData\Local\Temp\ccCQJjHM.s 			page 78


 2599              		.loc 1 1794 21
 2600 00bc FB68     		ldr	r3, [r7, #12]
 2601 00be 244A     		ldr	r2, .L148
 2602 00c0 DA64     		str	r2, [r3, #76]
1795:Drivers/STM32L4xx_HAL_Driver/Src/stm32l4xx_hal_spi.c ****     hspi->TxISR     = SPI_2linesTxISR_16BIT;
 2603              		.loc 1 1795 21
 2604 00c2 FB68     		ldr	r3, [r7, #12]
 2605 00c4 234A     		ldr	r2, .L148+4
 2606 00c6 1A65     		str	r2, [r3, #80]
 2607 00c8 05E0     		b	.L143
 2608              	.L142:
1796:Drivers/STM32L4xx_HAL_Driver/Src/stm32l4xx_hal_spi.c ****   }
1797:Drivers/STM32L4xx_HAL_Driver/Src/stm32l4xx_hal_spi.c ****   else
1798:Drivers/STM32L4xx_HAL_Driver/Src/stm32l4xx_hal_spi.c ****   {
1799:Drivers/STM32L4xx_HAL_Driver/Src/stm32l4xx_hal_spi.c ****     hspi->RxISR     = SPI_2linesRxISR_8BIT;
 2609              		.loc 1 1799 21
 2610 00ca FB68     		ldr	r3, [r7, #12]
 2611 00cc 224A     		ldr	r2, .L148+8
 2612 00ce DA64     		str	r2, [r3, #76]
1800:Drivers/STM32L4xx_HAL_Driver/Src/stm32l4xx_hal_spi.c ****     hspi->TxISR     = SPI_2linesTxISR_8BIT;
 2613              		.loc 1 1800 21
 2614 00d0 FB68     		ldr	r3, [r7, #12]
 2615 00d2 224A     		ldr	r2, .L148+12
 2616 00d4 1A65     		str	r2, [r3, #80]
 2617              	.L143:
1801:Drivers/STM32L4xx_HAL_Driver/Src/stm32l4xx_hal_spi.c ****   }
1802:Drivers/STM32L4xx_HAL_Driver/Src/stm32l4xx_hal_spi.c **** 
1803:Drivers/STM32L4xx_HAL_Driver/Src/stm32l4xx_hal_spi.c **** #if (USE_SPI_CRC != 0U)
1804:Drivers/STM32L4xx_HAL_Driver/Src/stm32l4xx_hal_spi.c ****   /* Reset CRC Calculation */
1805:Drivers/STM32L4xx_HAL_Driver/Src/stm32l4xx_hal_spi.c ****   if (hspi->Init.CRCCalculation == SPI_CRCCALCULATION_ENABLE)
1806:Drivers/STM32L4xx_HAL_Driver/Src/stm32l4xx_hal_spi.c ****   {
1807:Drivers/STM32L4xx_HAL_Driver/Src/stm32l4xx_hal_spi.c ****     hspi->CRCSize = 1U;
1808:Drivers/STM32L4xx_HAL_Driver/Src/stm32l4xx_hal_spi.c ****     if ((hspi->Init.DataSize <= SPI_DATASIZE_8BIT) && (hspi->Init.CRCLength == SPI_CRC_LENGTH_16BIT
1809:Drivers/STM32L4xx_HAL_Driver/Src/stm32l4xx_hal_spi.c ****     {
1810:Drivers/STM32L4xx_HAL_Driver/Src/stm32l4xx_hal_spi.c ****       hspi->CRCSize = 2U;
1811:Drivers/STM32L4xx_HAL_Driver/Src/stm32l4xx_hal_spi.c ****     }
1812:Drivers/STM32L4xx_HAL_Driver/Src/stm32l4xx_hal_spi.c ****     SPI_RESET_CRC(hspi);
1813:Drivers/STM32L4xx_HAL_Driver/Src/stm32l4xx_hal_spi.c ****   }
1814:Drivers/STM32L4xx_HAL_Driver/Src/stm32l4xx_hal_spi.c ****   else
1815:Drivers/STM32L4xx_HAL_Driver/Src/stm32l4xx_hal_spi.c ****   {
1816:Drivers/STM32L4xx_HAL_Driver/Src/stm32l4xx_hal_spi.c ****     hspi->CRCSize = 0U;
1817:Drivers/STM32L4xx_HAL_Driver/Src/stm32l4xx_hal_spi.c ****   }
1818:Drivers/STM32L4xx_HAL_Driver/Src/stm32l4xx_hal_spi.c **** #endif /* USE_SPI_CRC */
1819:Drivers/STM32L4xx_HAL_Driver/Src/stm32l4xx_hal_spi.c **** 
1820:Drivers/STM32L4xx_HAL_Driver/Src/stm32l4xx_hal_spi.c ****   /* Check if packing mode is enabled and if there is more than 2 data to receive */
1821:Drivers/STM32L4xx_HAL_Driver/Src/stm32l4xx_hal_spi.c ****   if ((hspi->Init.DataSize > SPI_DATASIZE_8BIT) || (Size >= 2U))
 2618              		.loc 1 1821 18
 2619 00d6 FB68     		ldr	r3, [r7, #12]
 2620 00d8 DB68     		ldr	r3, [r3, #12]
 2621              		.loc 1 1821 6
 2622 00da B3F5E06F 		cmp	r3, #1792
 2623 00de 02D8     		bhi	.L144
 2624              		.loc 1 1821 49 discriminator 1
 2625 00e0 7B88     		ldrh	r3, [r7, #2]
 2626 00e2 012B     		cmp	r3, #1
 2627 00e4 08D9     		bls	.L145
 2628              	.L144:
ARM GAS  C:\Users\Morroway\AppData\Local\Temp\ccCQJjHM.s 			page 79


1822:Drivers/STM32L4xx_HAL_Driver/Src/stm32l4xx_hal_spi.c ****   {
1823:Drivers/STM32L4xx_HAL_Driver/Src/stm32l4xx_hal_spi.c ****     /* Set RX Fifo threshold according the reception data length: 16 bit */
1824:Drivers/STM32L4xx_HAL_Driver/Src/stm32l4xx_hal_spi.c ****     CLEAR_BIT(hspi->Instance->CR2, SPI_RXFIFO_THRESHOLD);
 2629              		.loc 1 1824 5
 2630 00e6 FB68     		ldr	r3, [r7, #12]
 2631 00e8 1B68     		ldr	r3, [r3]
 2632 00ea 5A68     		ldr	r2, [r3, #4]
 2633 00ec FB68     		ldr	r3, [r7, #12]
 2634 00ee 1B68     		ldr	r3, [r3]
 2635 00f0 22F48052 		bic	r2, r2, #4096
 2636 00f4 5A60     		str	r2, [r3, #4]
 2637 00f6 07E0     		b	.L146
 2638              	.L145:
1825:Drivers/STM32L4xx_HAL_Driver/Src/stm32l4xx_hal_spi.c ****   }
1826:Drivers/STM32L4xx_HAL_Driver/Src/stm32l4xx_hal_spi.c ****   else
1827:Drivers/STM32L4xx_HAL_Driver/Src/stm32l4xx_hal_spi.c ****   {
1828:Drivers/STM32L4xx_HAL_Driver/Src/stm32l4xx_hal_spi.c ****     /* Set RX Fifo threshold according the reception data length: 8 bit */
1829:Drivers/STM32L4xx_HAL_Driver/Src/stm32l4xx_hal_spi.c ****     SET_BIT(hspi->Instance->CR2, SPI_RXFIFO_THRESHOLD);
 2639              		.loc 1 1829 5
 2640 00f8 FB68     		ldr	r3, [r7, #12]
 2641 00fa 1B68     		ldr	r3, [r3]
 2642 00fc 5A68     		ldr	r2, [r3, #4]
 2643 00fe FB68     		ldr	r3, [r7, #12]
 2644 0100 1B68     		ldr	r3, [r3]
 2645 0102 42F48052 		orr	r2, r2, #4096
 2646 0106 5A60     		str	r2, [r3, #4]
 2647              	.L146:
1830:Drivers/STM32L4xx_HAL_Driver/Src/stm32l4xx_hal_spi.c ****   }
1831:Drivers/STM32L4xx_HAL_Driver/Src/stm32l4xx_hal_spi.c **** 
1832:Drivers/STM32L4xx_HAL_Driver/Src/stm32l4xx_hal_spi.c ****   /* Enable TXE, RXNE and ERR interrupt */
1833:Drivers/STM32L4xx_HAL_Driver/Src/stm32l4xx_hal_spi.c ****   __HAL_SPI_ENABLE_IT(hspi, (SPI_IT_TXE | SPI_IT_RXNE | SPI_IT_ERR));
 2648              		.loc 1 1833 3
 2649 0108 FB68     		ldr	r3, [r7, #12]
 2650 010a 1B68     		ldr	r3, [r3]
 2651 010c 5A68     		ldr	r2, [r3, #4]
 2652 010e FB68     		ldr	r3, [r7, #12]
 2653 0110 1B68     		ldr	r3, [r3]
 2654 0112 42F0E002 		orr	r2, r2, #224
 2655 0116 5A60     		str	r2, [r3, #4]
1834:Drivers/STM32L4xx_HAL_Driver/Src/stm32l4xx_hal_spi.c **** 
1835:Drivers/STM32L4xx_HAL_Driver/Src/stm32l4xx_hal_spi.c ****   /* Check if the SPI is already enabled */
1836:Drivers/STM32L4xx_HAL_Driver/Src/stm32l4xx_hal_spi.c ****   if ((hspi->Instance->CR1 & SPI_CR1_SPE) != SPI_CR1_SPE)
 2656              		.loc 1 1836 12
 2657 0118 FB68     		ldr	r3, [r7, #12]
 2658 011a 1B68     		ldr	r3, [r3]
 2659              		.loc 1 1836 22
 2660 011c 1B68     		ldr	r3, [r3]
 2661              		.loc 1 1836 28
 2662 011e 03F04003 		and	r3, r3, #64
 2663              		.loc 1 1836 6
 2664 0122 402B     		cmp	r3, #64
 2665 0124 08D0     		beq	.L147
1837:Drivers/STM32L4xx_HAL_Driver/Src/stm32l4xx_hal_spi.c ****   {
1838:Drivers/STM32L4xx_HAL_Driver/Src/stm32l4xx_hal_spi.c ****     /* Enable SPI peripheral */
1839:Drivers/STM32L4xx_HAL_Driver/Src/stm32l4xx_hal_spi.c ****     __HAL_SPI_ENABLE(hspi);
 2666              		.loc 1 1839 5
 2667 0126 FB68     		ldr	r3, [r7, #12]
ARM GAS  C:\Users\Morroway\AppData\Local\Temp\ccCQJjHM.s 			page 80


 2668 0128 1B68     		ldr	r3, [r3]
 2669 012a 1A68     		ldr	r2, [r3]
 2670 012c FB68     		ldr	r3, [r7, #12]
 2671 012e 1B68     		ldr	r3, [r3]
 2672 0130 42F04002 		orr	r2, r2, #64
 2673 0134 1A60     		str	r2, [r3]
 2674 0136 00E0     		b	.L138
 2675              	.L147:
1840:Drivers/STM32L4xx_HAL_Driver/Src/stm32l4xx_hal_spi.c ****   }
1841:Drivers/STM32L4xx_HAL_Driver/Src/stm32l4xx_hal_spi.c **** 
1842:Drivers/STM32L4xx_HAL_Driver/Src/stm32l4xx_hal_spi.c **** error :
 2676              		.loc 1 1842 1
 2677 0138 00BF     		nop
 2678              	.L138:
1843:Drivers/STM32L4xx_HAL_Driver/Src/stm32l4xx_hal_spi.c ****   /* Process Unlocked */
1844:Drivers/STM32L4xx_HAL_Driver/Src/stm32l4xx_hal_spi.c ****   __HAL_UNLOCK(hspi);
 2679              		.loc 1 1844 3
 2680 013a FB68     		ldr	r3, [r7, #12]
 2681 013c 0022     		movs	r2, #0
 2682 013e 83F85C20 		strb	r2, [r3, #92]
1845:Drivers/STM32L4xx_HAL_Driver/Src/stm32l4xx_hal_spi.c ****   return errorcode;
 2683              		.loc 1 1845 10
 2684 0142 FB7D     		ldrb	r3, [r7, #23]	@ zero_extendqisi2
 2685              	.L135:
1846:Drivers/STM32L4xx_HAL_Driver/Src/stm32l4xx_hal_spi.c **** }
 2686              		.loc 1 1846 1
 2687 0144 1846     		mov	r0, r3
 2688 0146 1C37     		adds	r7, r7, #28
 2689              		.cfi_def_cfa_offset 4
 2690 0148 BD46     		mov	sp, r7
 2691              		.cfi_def_cfa_register 13
 2692              		@ sp needed
 2693 014a 5DF8047B 		ldr	r7, [sp], #4
 2694              		.cfi_restore 7
 2695              		.cfi_def_cfa_offset 0
 2696 014e 7047     		bx	lr
 2697              	.L149:
 2698              		.align	2
 2699              	.L148:
 2700 0150 00000000 		.word	SPI_2linesRxISR_16BIT
 2701 0154 00000000 		.word	SPI_2linesTxISR_16BIT
 2702 0158 00000000 		.word	SPI_2linesRxISR_8BIT
 2703 015c 00000000 		.word	SPI_2linesTxISR_8BIT
 2704              		.cfi_endproc
 2705              	.LFE330:
 2707              		.section	.text.HAL_SPI_Transmit_DMA,"ax",%progbits
 2708              		.align	1
 2709              		.global	HAL_SPI_Transmit_DMA
 2710              		.syntax unified
 2711              		.thumb
 2712              		.thumb_func
 2714              	HAL_SPI_Transmit_DMA:
 2715              	.LFB331:
1847:Drivers/STM32L4xx_HAL_Driver/Src/stm32l4xx_hal_spi.c **** 
1848:Drivers/STM32L4xx_HAL_Driver/Src/stm32l4xx_hal_spi.c **** /**
1849:Drivers/STM32L4xx_HAL_Driver/Src/stm32l4xx_hal_spi.c ****   * @brief  Transmit an amount of data in non-blocking mode with DMA.
1850:Drivers/STM32L4xx_HAL_Driver/Src/stm32l4xx_hal_spi.c ****   * @param  hspi pointer to a SPI_HandleTypeDef structure that contains
ARM GAS  C:\Users\Morroway\AppData\Local\Temp\ccCQJjHM.s 			page 81


1851:Drivers/STM32L4xx_HAL_Driver/Src/stm32l4xx_hal_spi.c ****   *               the configuration information for SPI module.
1852:Drivers/STM32L4xx_HAL_Driver/Src/stm32l4xx_hal_spi.c ****   * @param  pData pointer to data buffer
1853:Drivers/STM32L4xx_HAL_Driver/Src/stm32l4xx_hal_spi.c ****   * @param  Size amount of data to be sent
1854:Drivers/STM32L4xx_HAL_Driver/Src/stm32l4xx_hal_spi.c ****   * @retval HAL status
1855:Drivers/STM32L4xx_HAL_Driver/Src/stm32l4xx_hal_spi.c ****   */
1856:Drivers/STM32L4xx_HAL_Driver/Src/stm32l4xx_hal_spi.c **** HAL_StatusTypeDef HAL_SPI_Transmit_DMA(SPI_HandleTypeDef *hspi, uint8_t *pData, uint16_t Size)
1857:Drivers/STM32L4xx_HAL_Driver/Src/stm32l4xx_hal_spi.c **** {
 2716              		.loc 1 1857 1
 2717              		.cfi_startproc
 2718              		@ args = 0, pretend = 0, frame = 24
 2719              		@ frame_needed = 1, uses_anonymous_args = 0
 2720 0000 80B5     		push	{r7, lr}
 2721              		.cfi_def_cfa_offset 8
 2722              		.cfi_offset 7, -8
 2723              		.cfi_offset 14, -4
 2724 0002 86B0     		sub	sp, sp, #24
 2725              		.cfi_def_cfa_offset 32
 2726 0004 00AF     		add	r7, sp, #0
 2727              		.cfi_def_cfa_register 7
 2728 0006 F860     		str	r0, [r7, #12]
 2729 0008 B960     		str	r1, [r7, #8]
 2730 000a 1346     		mov	r3, r2
 2731 000c FB80     		strh	r3, [r7, #6]	@ movhi
1858:Drivers/STM32L4xx_HAL_Driver/Src/stm32l4xx_hal_spi.c ****   HAL_StatusTypeDef errorcode = HAL_OK;
 2732              		.loc 1 1858 21
 2733 000e 0023     		movs	r3, #0
 2734 0010 FB75     		strb	r3, [r7, #23]
1859:Drivers/STM32L4xx_HAL_Driver/Src/stm32l4xx_hal_spi.c **** 
1860:Drivers/STM32L4xx_HAL_Driver/Src/stm32l4xx_hal_spi.c ****   /* Check tx dma handle */
1861:Drivers/STM32L4xx_HAL_Driver/Src/stm32l4xx_hal_spi.c ****   assert_param(IS_SPI_DMA_HANDLE(hspi->hdmatx));
1862:Drivers/STM32L4xx_HAL_Driver/Src/stm32l4xx_hal_spi.c **** 
1863:Drivers/STM32L4xx_HAL_Driver/Src/stm32l4xx_hal_spi.c ****   /* Check Direction parameter */
1864:Drivers/STM32L4xx_HAL_Driver/Src/stm32l4xx_hal_spi.c ****   assert_param(IS_SPI_DIRECTION_2LINES_OR_1LINE(hspi->Init.Direction));
1865:Drivers/STM32L4xx_HAL_Driver/Src/stm32l4xx_hal_spi.c **** 
1866:Drivers/STM32L4xx_HAL_Driver/Src/stm32l4xx_hal_spi.c ****   /* Process Locked */
1867:Drivers/STM32L4xx_HAL_Driver/Src/stm32l4xx_hal_spi.c ****   __HAL_LOCK(hspi);
 2735              		.loc 1 1867 3
 2736 0012 FB68     		ldr	r3, [r7, #12]
 2737 0014 93F85C30 		ldrb	r3, [r3, #92]	@ zero_extendqisi2
 2738 0018 012B     		cmp	r3, #1
 2739 001a 01D1     		bne	.L151
 2740              		.loc 1 1867 3 is_stmt 0 discriminator 1
 2741 001c 0223     		movs	r3, #2
 2742 001e D8E0     		b	.L152
 2743              	.L151:
 2744              		.loc 1 1867 3 discriminator 2
 2745 0020 FB68     		ldr	r3, [r7, #12]
 2746 0022 0122     		movs	r2, #1
 2747 0024 83F85C20 		strb	r2, [r3, #92]
1868:Drivers/STM32L4xx_HAL_Driver/Src/stm32l4xx_hal_spi.c **** 
1869:Drivers/STM32L4xx_HAL_Driver/Src/stm32l4xx_hal_spi.c ****   if (hspi->State != HAL_SPI_STATE_READY)
 2748              		.loc 1 1869 11 is_stmt 1 discriminator 2
 2749 0028 FB68     		ldr	r3, [r7, #12]
 2750 002a 93F85D30 		ldrb	r3, [r3, #93]
 2751 002e DBB2     		uxtb	r3, r3
 2752              		.loc 1 1869 6 discriminator 2
 2753 0030 012B     		cmp	r3, #1
ARM GAS  C:\Users\Morroway\AppData\Local\Temp\ccCQJjHM.s 			page 82


 2754 0032 02D0     		beq	.L153
1870:Drivers/STM32L4xx_HAL_Driver/Src/stm32l4xx_hal_spi.c ****   {
1871:Drivers/STM32L4xx_HAL_Driver/Src/stm32l4xx_hal_spi.c ****     errorcode = HAL_BUSY;
 2755              		.loc 1 1871 15
 2756 0034 0223     		movs	r3, #2
 2757 0036 FB75     		strb	r3, [r7, #23]
1872:Drivers/STM32L4xx_HAL_Driver/Src/stm32l4xx_hal_spi.c ****     goto error;
 2758              		.loc 1 1872 5
 2759 0038 C6E0     		b	.L154
 2760              	.L153:
1873:Drivers/STM32L4xx_HAL_Driver/Src/stm32l4xx_hal_spi.c ****   }
1874:Drivers/STM32L4xx_HAL_Driver/Src/stm32l4xx_hal_spi.c **** 
1875:Drivers/STM32L4xx_HAL_Driver/Src/stm32l4xx_hal_spi.c ****   if ((pData == NULL) || (Size == 0U))
 2761              		.loc 1 1875 6
 2762 003a BB68     		ldr	r3, [r7, #8]
 2763 003c 002B     		cmp	r3, #0
 2764 003e 02D0     		beq	.L155
 2765              		.loc 1 1875 23 discriminator 1
 2766 0040 FB88     		ldrh	r3, [r7, #6]
 2767 0042 002B     		cmp	r3, #0
 2768 0044 02D1     		bne	.L156
 2769              	.L155:
1876:Drivers/STM32L4xx_HAL_Driver/Src/stm32l4xx_hal_spi.c ****   {
1877:Drivers/STM32L4xx_HAL_Driver/Src/stm32l4xx_hal_spi.c ****     errorcode = HAL_ERROR;
 2770              		.loc 1 1877 15
 2771 0046 0123     		movs	r3, #1
 2772 0048 FB75     		strb	r3, [r7, #23]
1878:Drivers/STM32L4xx_HAL_Driver/Src/stm32l4xx_hal_spi.c ****     goto error;
 2773              		.loc 1 1878 5
 2774 004a BDE0     		b	.L154
 2775              	.L156:
1879:Drivers/STM32L4xx_HAL_Driver/Src/stm32l4xx_hal_spi.c ****   }
1880:Drivers/STM32L4xx_HAL_Driver/Src/stm32l4xx_hal_spi.c **** 
1881:Drivers/STM32L4xx_HAL_Driver/Src/stm32l4xx_hal_spi.c ****   /* Set the transaction information */
1882:Drivers/STM32L4xx_HAL_Driver/Src/stm32l4xx_hal_spi.c ****   hspi->State       = HAL_SPI_STATE_BUSY_TX;
 2776              		.loc 1 1882 21
 2777 004c FB68     		ldr	r3, [r7, #12]
 2778 004e 0322     		movs	r2, #3
 2779 0050 83F85D20 		strb	r2, [r3, #93]
1883:Drivers/STM32L4xx_HAL_Driver/Src/stm32l4xx_hal_spi.c ****   hspi->ErrorCode   = HAL_SPI_ERROR_NONE;
 2780              		.loc 1 1883 21
 2781 0054 FB68     		ldr	r3, [r7, #12]
 2782 0056 0022     		movs	r2, #0
 2783 0058 1A66     		str	r2, [r3, #96]
1884:Drivers/STM32L4xx_HAL_Driver/Src/stm32l4xx_hal_spi.c ****   hspi->pTxBuffPtr  = (uint8_t *)pData;
 2784              		.loc 1 1884 21
 2785 005a FB68     		ldr	r3, [r7, #12]
 2786 005c BA68     		ldr	r2, [r7, #8]
 2787 005e 9A63     		str	r2, [r3, #56]
1885:Drivers/STM32L4xx_HAL_Driver/Src/stm32l4xx_hal_spi.c ****   hspi->TxXferSize  = Size;
 2788              		.loc 1 1885 21
 2789 0060 FB68     		ldr	r3, [r7, #12]
 2790 0062 FA88     		ldrh	r2, [r7, #6]	@ movhi
 2791 0064 9A87     		strh	r2, [r3, #60]	@ movhi
1886:Drivers/STM32L4xx_HAL_Driver/Src/stm32l4xx_hal_spi.c ****   hspi->TxXferCount = Size;
 2792              		.loc 1 1886 21
 2793 0066 FB68     		ldr	r3, [r7, #12]
ARM GAS  C:\Users\Morroway\AppData\Local\Temp\ccCQJjHM.s 			page 83


 2794 0068 FA88     		ldrh	r2, [r7, #6]	@ movhi
 2795 006a DA87     		strh	r2, [r3, #62]	@ movhi
1887:Drivers/STM32L4xx_HAL_Driver/Src/stm32l4xx_hal_spi.c **** 
1888:Drivers/STM32L4xx_HAL_Driver/Src/stm32l4xx_hal_spi.c ****   /* Init field not used in handle to zero */
1889:Drivers/STM32L4xx_HAL_Driver/Src/stm32l4xx_hal_spi.c ****   hspi->pRxBuffPtr  = (uint8_t *)NULL;
 2796              		.loc 1 1889 21
 2797 006c FB68     		ldr	r3, [r7, #12]
 2798 006e 0022     		movs	r2, #0
 2799 0070 1A64     		str	r2, [r3, #64]
1890:Drivers/STM32L4xx_HAL_Driver/Src/stm32l4xx_hal_spi.c ****   hspi->TxISR       = NULL;
 2800              		.loc 1 1890 21
 2801 0072 FB68     		ldr	r3, [r7, #12]
 2802 0074 0022     		movs	r2, #0
 2803 0076 1A65     		str	r2, [r3, #80]
1891:Drivers/STM32L4xx_HAL_Driver/Src/stm32l4xx_hal_spi.c ****   hspi->RxISR       = NULL;
 2804              		.loc 1 1891 21
 2805 0078 FB68     		ldr	r3, [r7, #12]
 2806 007a 0022     		movs	r2, #0
 2807 007c DA64     		str	r2, [r3, #76]
1892:Drivers/STM32L4xx_HAL_Driver/Src/stm32l4xx_hal_spi.c ****   hspi->RxXferSize  = 0U;
 2808              		.loc 1 1892 21
 2809 007e FB68     		ldr	r3, [r7, #12]
 2810 0080 0022     		movs	r2, #0
 2811 0082 A3F84420 		strh	r2, [r3, #68]	@ movhi
1893:Drivers/STM32L4xx_HAL_Driver/Src/stm32l4xx_hal_spi.c ****   hspi->RxXferCount = 0U;
 2812              		.loc 1 1893 21
 2813 0086 FB68     		ldr	r3, [r7, #12]
 2814 0088 0022     		movs	r2, #0
 2815 008a A3F84620 		strh	r2, [r3, #70]	@ movhi
1894:Drivers/STM32L4xx_HAL_Driver/Src/stm32l4xx_hal_spi.c **** 
1895:Drivers/STM32L4xx_HAL_Driver/Src/stm32l4xx_hal_spi.c ****   /* Configure communication direction : 1Line */
1896:Drivers/STM32L4xx_HAL_Driver/Src/stm32l4xx_hal_spi.c ****   if (hspi->Init.Direction == SPI_DIRECTION_1LINE)
 2816              		.loc 1 1896 17
 2817 008e FB68     		ldr	r3, [r7, #12]
 2818 0090 9B68     		ldr	r3, [r3, #8]
 2819              		.loc 1 1896 6
 2820 0092 B3F5004F 		cmp	r3, #32768
 2821 0096 0FD1     		bne	.L157
1897:Drivers/STM32L4xx_HAL_Driver/Src/stm32l4xx_hal_spi.c ****   {
1898:Drivers/STM32L4xx_HAL_Driver/Src/stm32l4xx_hal_spi.c ****     /* Disable SPI Peripheral before set 1Line direction (BIDIOE bit) */
1899:Drivers/STM32L4xx_HAL_Driver/Src/stm32l4xx_hal_spi.c ****     __HAL_SPI_DISABLE(hspi);
 2822              		.loc 1 1899 5
 2823 0098 FB68     		ldr	r3, [r7, #12]
 2824 009a 1B68     		ldr	r3, [r3]
 2825 009c 1A68     		ldr	r2, [r3]
 2826 009e FB68     		ldr	r3, [r7, #12]
 2827 00a0 1B68     		ldr	r3, [r3]
 2828 00a2 22F04002 		bic	r2, r2, #64
 2829 00a6 1A60     		str	r2, [r3]
1900:Drivers/STM32L4xx_HAL_Driver/Src/stm32l4xx_hal_spi.c ****     SPI_1LINE_TX(hspi);
 2830              		.loc 1 1900 5
 2831 00a8 FB68     		ldr	r3, [r7, #12]
 2832 00aa 1B68     		ldr	r3, [r3]
 2833 00ac 1A68     		ldr	r2, [r3]
 2834 00ae FB68     		ldr	r3, [r7, #12]
 2835 00b0 1B68     		ldr	r3, [r3]
 2836 00b2 42F48042 		orr	r2, r2, #16384
ARM GAS  C:\Users\Morroway\AppData\Local\Temp\ccCQJjHM.s 			page 84


 2837 00b6 1A60     		str	r2, [r3]
 2838              	.L157:
1901:Drivers/STM32L4xx_HAL_Driver/Src/stm32l4xx_hal_spi.c ****   }
1902:Drivers/STM32L4xx_HAL_Driver/Src/stm32l4xx_hal_spi.c **** 
1903:Drivers/STM32L4xx_HAL_Driver/Src/stm32l4xx_hal_spi.c **** #if (USE_SPI_CRC != 0U)
1904:Drivers/STM32L4xx_HAL_Driver/Src/stm32l4xx_hal_spi.c ****   /* Reset CRC Calculation */
1905:Drivers/STM32L4xx_HAL_Driver/Src/stm32l4xx_hal_spi.c ****   if (hspi->Init.CRCCalculation == SPI_CRCCALCULATION_ENABLE)
1906:Drivers/STM32L4xx_HAL_Driver/Src/stm32l4xx_hal_spi.c ****   {
1907:Drivers/STM32L4xx_HAL_Driver/Src/stm32l4xx_hal_spi.c ****     SPI_RESET_CRC(hspi);
1908:Drivers/STM32L4xx_HAL_Driver/Src/stm32l4xx_hal_spi.c ****   }
1909:Drivers/STM32L4xx_HAL_Driver/Src/stm32l4xx_hal_spi.c **** #endif /* USE_SPI_CRC */
1910:Drivers/STM32L4xx_HAL_Driver/Src/stm32l4xx_hal_spi.c **** 
1911:Drivers/STM32L4xx_HAL_Driver/Src/stm32l4xx_hal_spi.c ****   /* Set the SPI TxDMA Half transfer complete callback */
1912:Drivers/STM32L4xx_HAL_Driver/Src/stm32l4xx_hal_spi.c ****   hspi->hdmatx->XferHalfCpltCallback = SPI_DMAHalfTransmitCplt;
 2839              		.loc 1 1912 7
 2840 00b8 FB68     		ldr	r3, [r7, #12]
 2841 00ba 5B6D     		ldr	r3, [r3, #84]
 2842              		.loc 1 1912 38
 2843 00bc 474A     		ldr	r2, .L162
 2844 00be 1A63     		str	r2, [r3, #48]
1913:Drivers/STM32L4xx_HAL_Driver/Src/stm32l4xx_hal_spi.c **** 
1914:Drivers/STM32L4xx_HAL_Driver/Src/stm32l4xx_hal_spi.c ****   /* Set the SPI TxDMA transfer complete callback */
1915:Drivers/STM32L4xx_HAL_Driver/Src/stm32l4xx_hal_spi.c ****   hspi->hdmatx->XferCpltCallback = SPI_DMATransmitCplt;
 2845              		.loc 1 1915 7
 2846 00c0 FB68     		ldr	r3, [r7, #12]
 2847 00c2 5B6D     		ldr	r3, [r3, #84]
 2848              		.loc 1 1915 34
 2849 00c4 464A     		ldr	r2, .L162+4
 2850 00c6 DA62     		str	r2, [r3, #44]
1916:Drivers/STM32L4xx_HAL_Driver/Src/stm32l4xx_hal_spi.c **** 
1917:Drivers/STM32L4xx_HAL_Driver/Src/stm32l4xx_hal_spi.c ****   /* Set the DMA error callback */
1918:Drivers/STM32L4xx_HAL_Driver/Src/stm32l4xx_hal_spi.c ****   hspi->hdmatx->XferErrorCallback = SPI_DMAError;
 2851              		.loc 1 1918 7
 2852 00c8 FB68     		ldr	r3, [r7, #12]
 2853 00ca 5B6D     		ldr	r3, [r3, #84]
 2854              		.loc 1 1918 35
 2855 00cc 454A     		ldr	r2, .L162+8
 2856 00ce 5A63     		str	r2, [r3, #52]
1919:Drivers/STM32L4xx_HAL_Driver/Src/stm32l4xx_hal_spi.c **** 
1920:Drivers/STM32L4xx_HAL_Driver/Src/stm32l4xx_hal_spi.c ****   /* Set the DMA AbortCpltCallback */
1921:Drivers/STM32L4xx_HAL_Driver/Src/stm32l4xx_hal_spi.c ****   hspi->hdmatx->XferAbortCallback = NULL;
 2857              		.loc 1 1921 7
 2858 00d0 FB68     		ldr	r3, [r7, #12]
 2859 00d2 5B6D     		ldr	r3, [r3, #84]
 2860              		.loc 1 1921 35
 2861 00d4 0022     		movs	r2, #0
 2862 00d6 9A63     		str	r2, [r3, #56]
1922:Drivers/STM32L4xx_HAL_Driver/Src/stm32l4xx_hal_spi.c **** 
1923:Drivers/STM32L4xx_HAL_Driver/Src/stm32l4xx_hal_spi.c ****   CLEAR_BIT(hspi->Instance->CR2, SPI_CR2_LDMATX);
 2863              		.loc 1 1923 3
 2864 00d8 FB68     		ldr	r3, [r7, #12]
 2865 00da 1B68     		ldr	r3, [r3]
 2866 00dc 5A68     		ldr	r2, [r3, #4]
 2867 00de FB68     		ldr	r3, [r7, #12]
 2868 00e0 1B68     		ldr	r3, [r3]
 2869 00e2 22F48042 		bic	r2, r2, #16384
 2870 00e6 5A60     		str	r2, [r3, #4]
ARM GAS  C:\Users\Morroway\AppData\Local\Temp\ccCQJjHM.s 			page 85


1924:Drivers/STM32L4xx_HAL_Driver/Src/stm32l4xx_hal_spi.c ****   /* Packing mode is enabled only if the DMA setting is HALWORD */
1925:Drivers/STM32L4xx_HAL_Driver/Src/stm32l4xx_hal_spi.c ****   if ((hspi->Init.DataSize <= SPI_DATASIZE_8BIT) && (hspi->hdmatx->Init.MemDataAlignment == DMA_MDA
 2871              		.loc 1 1925 18
 2872 00e8 FB68     		ldr	r3, [r7, #12]
 2873 00ea DB68     		ldr	r3, [r3, #12]
 2874              		.loc 1 1925 6
 2875 00ec B3F5E06F 		cmp	r3, #1792
 2876 00f0 2DD8     		bhi	.L158
 2877              		.loc 1 1925 58 discriminator 1
 2878 00f2 FB68     		ldr	r3, [r7, #12]
 2879 00f4 5B6D     		ldr	r3, [r3, #84]
 2880              		.loc 1 1925 72 discriminator 1
 2881 00f6 9B69     		ldr	r3, [r3, #24]
 2882              		.loc 1 1925 50 discriminator 1
 2883 00f8 B3F5806F 		cmp	r3, #1024
 2884 00fc 27D1     		bne	.L158
1926:Drivers/STM32L4xx_HAL_Driver/Src/stm32l4xx_hal_spi.c ****   {
1927:Drivers/STM32L4xx_HAL_Driver/Src/stm32l4xx_hal_spi.c ****     /* Check the even/odd of the data size + crc if enabled */
1928:Drivers/STM32L4xx_HAL_Driver/Src/stm32l4xx_hal_spi.c ****     if ((hspi->TxXferCount & 0x1U) == 0U)
 2885              		.loc 1 1928 14
 2886 00fe FB68     		ldr	r3, [r7, #12]
 2887 0100 DB8F     		ldrh	r3, [r3, #62]	@ movhi
 2888 0102 9BB2     		uxth	r3, r3
 2889              		.loc 1 1928 28
 2890 0104 03F00103 		and	r3, r3, #1
 2891              		.loc 1 1928 8
 2892 0108 002B     		cmp	r3, #0
 2893 010a 0FD1     		bne	.L159
1929:Drivers/STM32L4xx_HAL_Driver/Src/stm32l4xx_hal_spi.c ****     {
1930:Drivers/STM32L4xx_HAL_Driver/Src/stm32l4xx_hal_spi.c ****       CLEAR_BIT(hspi->Instance->CR2, SPI_CR2_LDMATX);
 2894              		.loc 1 1930 7
 2895 010c FB68     		ldr	r3, [r7, #12]
 2896 010e 1B68     		ldr	r3, [r3]
 2897 0110 5A68     		ldr	r2, [r3, #4]
 2898 0112 FB68     		ldr	r3, [r7, #12]
 2899 0114 1B68     		ldr	r3, [r3]
 2900 0116 22F48042 		bic	r2, r2, #16384
 2901 011a 5A60     		str	r2, [r3, #4]
1931:Drivers/STM32L4xx_HAL_Driver/Src/stm32l4xx_hal_spi.c ****       hspi->TxXferCount = (hspi->TxXferCount >> 1U);
 2902              		.loc 1 1931 32
 2903 011c FB68     		ldr	r3, [r7, #12]
 2904 011e DB8F     		ldrh	r3, [r3, #62]	@ movhi
 2905 0120 9BB2     		uxth	r3, r3
 2906              		.loc 1 1931 25
 2907 0122 5B08     		lsrs	r3, r3, #1
 2908 0124 9AB2     		uxth	r2, r3
 2909 0126 FB68     		ldr	r3, [r7, #12]
 2910 0128 DA87     		strh	r2, [r3, #62]	@ movhi
 2911 012a 10E0     		b	.L158
 2912              	.L159:
1932:Drivers/STM32L4xx_HAL_Driver/Src/stm32l4xx_hal_spi.c ****     }
1933:Drivers/STM32L4xx_HAL_Driver/Src/stm32l4xx_hal_spi.c ****     else
1934:Drivers/STM32L4xx_HAL_Driver/Src/stm32l4xx_hal_spi.c ****     {
1935:Drivers/STM32L4xx_HAL_Driver/Src/stm32l4xx_hal_spi.c ****       SET_BIT(hspi->Instance->CR2, SPI_CR2_LDMATX);
 2913              		.loc 1 1935 7
 2914 012c FB68     		ldr	r3, [r7, #12]
 2915 012e 1B68     		ldr	r3, [r3]
ARM GAS  C:\Users\Morroway\AppData\Local\Temp\ccCQJjHM.s 			page 86


 2916 0130 5A68     		ldr	r2, [r3, #4]
 2917 0132 FB68     		ldr	r3, [r7, #12]
 2918 0134 1B68     		ldr	r3, [r3]
 2919 0136 42F48042 		orr	r2, r2, #16384
 2920 013a 5A60     		str	r2, [r3, #4]
1936:Drivers/STM32L4xx_HAL_Driver/Src/stm32l4xx_hal_spi.c ****       hspi->TxXferCount = (hspi->TxXferCount >> 1U) + 1U;
 2921              		.loc 1 1936 32
 2922 013c FB68     		ldr	r3, [r7, #12]
 2923 013e DB8F     		ldrh	r3, [r3, #62]	@ movhi
 2924 0140 9BB2     		uxth	r3, r3
 2925              		.loc 1 1936 53
 2926 0142 5B08     		lsrs	r3, r3, #1
 2927 0144 9BB2     		uxth	r3, r3
 2928 0146 0133     		adds	r3, r3, #1
 2929 0148 9AB2     		uxth	r2, r3
 2930              		.loc 1 1936 25
 2931 014a FB68     		ldr	r3, [r7, #12]
 2932 014c DA87     		strh	r2, [r3, #62]	@ movhi
 2933              	.L158:
1937:Drivers/STM32L4xx_HAL_Driver/Src/stm32l4xx_hal_spi.c ****     }
1938:Drivers/STM32L4xx_HAL_Driver/Src/stm32l4xx_hal_spi.c ****   }
1939:Drivers/STM32L4xx_HAL_Driver/Src/stm32l4xx_hal_spi.c **** 
1940:Drivers/STM32L4xx_HAL_Driver/Src/stm32l4xx_hal_spi.c ****   /* Enable the Tx DMA Stream/Channel */
1941:Drivers/STM32L4xx_HAL_Driver/Src/stm32l4xx_hal_spi.c ****   if (HAL_OK != HAL_DMA_Start_IT(hspi->hdmatx, (uint32_t)hspi->pTxBuffPtr, (uint32_t)&hspi->Instanc
 2934              		.loc 1 1941 17
 2935 014e FB68     		ldr	r3, [r7, #12]
 2936 0150 586D     		ldr	r0, [r3, #84]
 2937              		.loc 1 1941 62
 2938 0152 FB68     		ldr	r3, [r7, #12]
 2939 0154 9B6B     		ldr	r3, [r3, #56]
 2940              		.loc 1 1941 17
 2941 0156 1946     		mov	r1, r3
 2942              		.loc 1 1941 91
 2943 0158 FB68     		ldr	r3, [r7, #12]
 2944 015a 1B68     		ldr	r3, [r3]
 2945              		.loc 1 1941 86
 2946 015c 0C33     		adds	r3, r3, #12
 2947              		.loc 1 1941 17
 2948 015e 1A46     		mov	r2, r3
1942:Drivers/STM32L4xx_HAL_Driver/Src/stm32l4xx_hal_spi.c ****                                  hspi->TxXferCount))
 2949              		.loc 1 1942 38
 2950 0160 FB68     		ldr	r3, [r7, #12]
 2951 0162 DB8F     		ldrh	r3, [r3, #62]	@ movhi
 2952 0164 9BB2     		uxth	r3, r3
1941:Drivers/STM32L4xx_HAL_Driver/Src/stm32l4xx_hal_spi.c ****                                  hspi->TxXferCount))
 2953              		.loc 1 1941 17
 2954 0166 FFF7FEFF 		bl	HAL_DMA_Start_IT
 2955 016a 0346     		mov	r3, r0
1941:Drivers/STM32L4xx_HAL_Driver/Src/stm32l4xx_hal_spi.c ****                                  hspi->TxXferCount))
 2956              		.loc 1 1941 6
 2957 016c 002B     		cmp	r3, #0
 2958 016e 0CD0     		beq	.L160
1943:Drivers/STM32L4xx_HAL_Driver/Src/stm32l4xx_hal_spi.c ****   {
1944:Drivers/STM32L4xx_HAL_Driver/Src/stm32l4xx_hal_spi.c ****     /* Update SPI error code */
1945:Drivers/STM32L4xx_HAL_Driver/Src/stm32l4xx_hal_spi.c ****     SET_BIT(hspi->ErrorCode, HAL_SPI_ERROR_DMA);
 2959              		.loc 1 1945 5
 2960 0170 FB68     		ldr	r3, [r7, #12]
ARM GAS  C:\Users\Morroway\AppData\Local\Temp\ccCQJjHM.s 			page 87


 2961 0172 1B6E     		ldr	r3, [r3, #96]
 2962 0174 43F01002 		orr	r2, r3, #16
 2963 0178 FB68     		ldr	r3, [r7, #12]
 2964 017a 1A66     		str	r2, [r3, #96]
1946:Drivers/STM32L4xx_HAL_Driver/Src/stm32l4xx_hal_spi.c ****     errorcode = HAL_ERROR;
 2965              		.loc 1 1946 15
 2966 017c 0123     		movs	r3, #1
 2967 017e FB75     		strb	r3, [r7, #23]
1947:Drivers/STM32L4xx_HAL_Driver/Src/stm32l4xx_hal_spi.c **** 
1948:Drivers/STM32L4xx_HAL_Driver/Src/stm32l4xx_hal_spi.c ****     hspi->State = HAL_SPI_STATE_READY;
 2968              		.loc 1 1948 17
 2969 0180 FB68     		ldr	r3, [r7, #12]
 2970 0182 0122     		movs	r2, #1
 2971 0184 83F85D20 		strb	r2, [r3, #93]
1949:Drivers/STM32L4xx_HAL_Driver/Src/stm32l4xx_hal_spi.c ****     goto error;
 2972              		.loc 1 1949 5
 2973 0188 1EE0     		b	.L154
 2974              	.L160:
1950:Drivers/STM32L4xx_HAL_Driver/Src/stm32l4xx_hal_spi.c ****   }
1951:Drivers/STM32L4xx_HAL_Driver/Src/stm32l4xx_hal_spi.c **** 
1952:Drivers/STM32L4xx_HAL_Driver/Src/stm32l4xx_hal_spi.c ****   /* Check if the SPI is already enabled */
1953:Drivers/STM32L4xx_HAL_Driver/Src/stm32l4xx_hal_spi.c ****   if ((hspi->Instance->CR1 & SPI_CR1_SPE) != SPI_CR1_SPE)
 2975              		.loc 1 1953 12
 2976 018a FB68     		ldr	r3, [r7, #12]
 2977 018c 1B68     		ldr	r3, [r3]
 2978              		.loc 1 1953 22
 2979 018e 1B68     		ldr	r3, [r3]
 2980              		.loc 1 1953 28
 2981 0190 03F04003 		and	r3, r3, #64
 2982              		.loc 1 1953 6
 2983 0194 402B     		cmp	r3, #64
 2984 0196 07D0     		beq	.L161
1954:Drivers/STM32L4xx_HAL_Driver/Src/stm32l4xx_hal_spi.c ****   {
1955:Drivers/STM32L4xx_HAL_Driver/Src/stm32l4xx_hal_spi.c ****     /* Enable SPI peripheral */
1956:Drivers/STM32L4xx_HAL_Driver/Src/stm32l4xx_hal_spi.c ****     __HAL_SPI_ENABLE(hspi);
 2985              		.loc 1 1956 5
 2986 0198 FB68     		ldr	r3, [r7, #12]
 2987 019a 1B68     		ldr	r3, [r3]
 2988 019c 1A68     		ldr	r2, [r3]
 2989 019e FB68     		ldr	r3, [r7, #12]
 2990 01a0 1B68     		ldr	r3, [r3]
 2991 01a2 42F04002 		orr	r2, r2, #64
 2992 01a6 1A60     		str	r2, [r3]
 2993              	.L161:
1957:Drivers/STM32L4xx_HAL_Driver/Src/stm32l4xx_hal_spi.c ****   }
1958:Drivers/STM32L4xx_HAL_Driver/Src/stm32l4xx_hal_spi.c **** 
1959:Drivers/STM32L4xx_HAL_Driver/Src/stm32l4xx_hal_spi.c ****   /* Enable the SPI Error Interrupt Bit */
1960:Drivers/STM32L4xx_HAL_Driver/Src/stm32l4xx_hal_spi.c ****   __HAL_SPI_ENABLE_IT(hspi, (SPI_IT_ERR));
 2994              		.loc 1 1960 3
 2995 01a8 FB68     		ldr	r3, [r7, #12]
 2996 01aa 1B68     		ldr	r3, [r3]
 2997 01ac 5A68     		ldr	r2, [r3, #4]
 2998 01ae FB68     		ldr	r3, [r7, #12]
 2999 01b0 1B68     		ldr	r3, [r3]
 3000 01b2 42F02002 		orr	r2, r2, #32
 3001 01b6 5A60     		str	r2, [r3, #4]
1961:Drivers/STM32L4xx_HAL_Driver/Src/stm32l4xx_hal_spi.c **** 
ARM GAS  C:\Users\Morroway\AppData\Local\Temp\ccCQJjHM.s 			page 88


1962:Drivers/STM32L4xx_HAL_Driver/Src/stm32l4xx_hal_spi.c ****   /* Enable Tx DMA Request */
1963:Drivers/STM32L4xx_HAL_Driver/Src/stm32l4xx_hal_spi.c ****   SET_BIT(hspi->Instance->CR2, SPI_CR2_TXDMAEN);
 3002              		.loc 1 1963 3
 3003 01b8 FB68     		ldr	r3, [r7, #12]
 3004 01ba 1B68     		ldr	r3, [r3]
 3005 01bc 5A68     		ldr	r2, [r3, #4]
 3006 01be FB68     		ldr	r3, [r7, #12]
 3007 01c0 1B68     		ldr	r3, [r3]
 3008 01c2 42F00202 		orr	r2, r2, #2
 3009 01c6 5A60     		str	r2, [r3, #4]
 3010              	.L154:
1964:Drivers/STM32L4xx_HAL_Driver/Src/stm32l4xx_hal_spi.c **** 
1965:Drivers/STM32L4xx_HAL_Driver/Src/stm32l4xx_hal_spi.c **** error :
1966:Drivers/STM32L4xx_HAL_Driver/Src/stm32l4xx_hal_spi.c ****   /* Process Unlocked */
1967:Drivers/STM32L4xx_HAL_Driver/Src/stm32l4xx_hal_spi.c ****   __HAL_UNLOCK(hspi);
 3011              		.loc 1 1967 3
 3012 01c8 FB68     		ldr	r3, [r7, #12]
 3013 01ca 0022     		movs	r2, #0
 3014 01cc 83F85C20 		strb	r2, [r3, #92]
1968:Drivers/STM32L4xx_HAL_Driver/Src/stm32l4xx_hal_spi.c ****   return errorcode;
 3015              		.loc 1 1968 10
 3016 01d0 FB7D     		ldrb	r3, [r7, #23]	@ zero_extendqisi2
 3017              	.L152:
1969:Drivers/STM32L4xx_HAL_Driver/Src/stm32l4xx_hal_spi.c **** }
 3018              		.loc 1 1969 1
 3019 01d2 1846     		mov	r0, r3
 3020 01d4 1837     		adds	r7, r7, #24
 3021              		.cfi_def_cfa_offset 8
 3022 01d6 BD46     		mov	sp, r7
 3023              		.cfi_def_cfa_register 13
 3024              		@ sp needed
 3025 01d8 80BD     		pop	{r7, pc}
 3026              	.L163:
 3027 01da 00BF     		.align	2
 3028              	.L162:
 3029 01dc 00000000 		.word	SPI_DMAHalfTransmitCplt
 3030 01e0 00000000 		.word	SPI_DMATransmitCplt
 3031 01e4 00000000 		.word	SPI_DMAError
 3032              		.cfi_endproc
 3033              	.LFE331:
 3035              		.section	.text.HAL_SPI_Receive_DMA,"ax",%progbits
 3036              		.align	1
 3037              		.global	HAL_SPI_Receive_DMA
 3038              		.syntax unified
 3039              		.thumb
 3040              		.thumb_func
 3042              	HAL_SPI_Receive_DMA:
 3043              	.LFB332:
1970:Drivers/STM32L4xx_HAL_Driver/Src/stm32l4xx_hal_spi.c **** 
1971:Drivers/STM32L4xx_HAL_Driver/Src/stm32l4xx_hal_spi.c **** /**
1972:Drivers/STM32L4xx_HAL_Driver/Src/stm32l4xx_hal_spi.c ****   * @brief  Receive an amount of data in non-blocking mode with DMA.
1973:Drivers/STM32L4xx_HAL_Driver/Src/stm32l4xx_hal_spi.c ****   * @note   In case of MASTER mode and SPI_DIRECTION_2LINES direction, hdmatx shall be defined.
1974:Drivers/STM32L4xx_HAL_Driver/Src/stm32l4xx_hal_spi.c ****   * @param  hspi pointer to a SPI_HandleTypeDef structure that contains
1975:Drivers/STM32L4xx_HAL_Driver/Src/stm32l4xx_hal_spi.c ****   *               the configuration information for SPI module.
1976:Drivers/STM32L4xx_HAL_Driver/Src/stm32l4xx_hal_spi.c ****   * @param  pData pointer to data buffer
1977:Drivers/STM32L4xx_HAL_Driver/Src/stm32l4xx_hal_spi.c ****   * @note   When the CRC feature is enabled the pData Length must be Size + 1.
1978:Drivers/STM32L4xx_HAL_Driver/Src/stm32l4xx_hal_spi.c ****   * @param  Size amount of data to be sent
ARM GAS  C:\Users\Morroway\AppData\Local\Temp\ccCQJjHM.s 			page 89


1979:Drivers/STM32L4xx_HAL_Driver/Src/stm32l4xx_hal_spi.c ****   * @retval HAL status
1980:Drivers/STM32L4xx_HAL_Driver/Src/stm32l4xx_hal_spi.c ****   */
1981:Drivers/STM32L4xx_HAL_Driver/Src/stm32l4xx_hal_spi.c **** HAL_StatusTypeDef HAL_SPI_Receive_DMA(SPI_HandleTypeDef *hspi, uint8_t *pData, uint16_t Size)
1982:Drivers/STM32L4xx_HAL_Driver/Src/stm32l4xx_hal_spi.c **** {
 3044              		.loc 1 1982 1
 3045              		.cfi_startproc
 3046              		@ args = 0, pretend = 0, frame = 24
 3047              		@ frame_needed = 1, uses_anonymous_args = 0
 3048 0000 80B5     		push	{r7, lr}
 3049              		.cfi_def_cfa_offset 8
 3050              		.cfi_offset 7, -8
 3051              		.cfi_offset 14, -4
 3052 0002 86B0     		sub	sp, sp, #24
 3053              		.cfi_def_cfa_offset 32
 3054 0004 00AF     		add	r7, sp, #0
 3055              		.cfi_def_cfa_register 7
 3056 0006 F860     		str	r0, [r7, #12]
 3057 0008 B960     		str	r1, [r7, #8]
 3058 000a 1346     		mov	r3, r2
 3059 000c FB80     		strh	r3, [r7, #6]	@ movhi
1983:Drivers/STM32L4xx_HAL_Driver/Src/stm32l4xx_hal_spi.c ****   HAL_StatusTypeDef errorcode = HAL_OK;
 3060              		.loc 1 1983 21
 3061 000e 0023     		movs	r3, #0
 3062 0010 FB75     		strb	r3, [r7, #23]
1984:Drivers/STM32L4xx_HAL_Driver/Src/stm32l4xx_hal_spi.c **** 
1985:Drivers/STM32L4xx_HAL_Driver/Src/stm32l4xx_hal_spi.c ****   /* Check rx dma handle */
1986:Drivers/STM32L4xx_HAL_Driver/Src/stm32l4xx_hal_spi.c ****   assert_param(IS_SPI_DMA_HANDLE(hspi->hdmarx));
1987:Drivers/STM32L4xx_HAL_Driver/Src/stm32l4xx_hal_spi.c **** 
1988:Drivers/STM32L4xx_HAL_Driver/Src/stm32l4xx_hal_spi.c ****   if ((hspi->Init.Direction == SPI_DIRECTION_2LINES) && (hspi->Init.Mode == SPI_MODE_MASTER))
 3063              		.loc 1 1988 18
 3064 0012 FB68     		ldr	r3, [r7, #12]
 3065 0014 9B68     		ldr	r3, [r3, #8]
 3066              		.loc 1 1988 6
 3067 0016 002B     		cmp	r3, #0
 3068 0018 10D1     		bne	.L165
 3069              		.loc 1 1988 68 discriminator 1
 3070 001a FB68     		ldr	r3, [r7, #12]
 3071 001c 5B68     		ldr	r3, [r3, #4]
 3072              		.loc 1 1988 54 discriminator 1
 3073 001e B3F5827F 		cmp	r3, #260
 3074 0022 0BD1     		bne	.L165
1989:Drivers/STM32L4xx_HAL_Driver/Src/stm32l4xx_hal_spi.c ****   {
1990:Drivers/STM32L4xx_HAL_Driver/Src/stm32l4xx_hal_spi.c ****     hspi->State = HAL_SPI_STATE_BUSY_RX;
 3075              		.loc 1 1990 17
 3076 0024 FB68     		ldr	r3, [r7, #12]
 3077 0026 0422     		movs	r2, #4
 3078 0028 83F85D20 		strb	r2, [r3, #93]
1991:Drivers/STM32L4xx_HAL_Driver/Src/stm32l4xx_hal_spi.c **** 
1992:Drivers/STM32L4xx_HAL_Driver/Src/stm32l4xx_hal_spi.c ****     /* Check tx dma handle */
1993:Drivers/STM32L4xx_HAL_Driver/Src/stm32l4xx_hal_spi.c ****     assert_param(IS_SPI_DMA_HANDLE(hspi->hdmatx));
1994:Drivers/STM32L4xx_HAL_Driver/Src/stm32l4xx_hal_spi.c **** 
1995:Drivers/STM32L4xx_HAL_Driver/Src/stm32l4xx_hal_spi.c ****     /* Call transmit-receive function to send Dummy data on Tx line and generate clock on CLK line 
1996:Drivers/STM32L4xx_HAL_Driver/Src/stm32l4xx_hal_spi.c ****     return HAL_SPI_TransmitReceive_DMA(hspi, pData, pData, Size);
 3079              		.loc 1 1996 12
 3080 002c FB88     		ldrh	r3, [r7, #6]
 3081 002e BA68     		ldr	r2, [r7, #8]
 3082 0030 B968     		ldr	r1, [r7, #8]
ARM GAS  C:\Users\Morroway\AppData\Local\Temp\ccCQJjHM.s 			page 90


 3083 0032 F868     		ldr	r0, [r7, #12]
 3084 0034 FFF7FEFF 		bl	HAL_SPI_TransmitReceive_DMA
 3085 0038 0346     		mov	r3, r0
 3086 003a FBE0     		b	.L166
 3087              	.L165:
1997:Drivers/STM32L4xx_HAL_Driver/Src/stm32l4xx_hal_spi.c ****   }
1998:Drivers/STM32L4xx_HAL_Driver/Src/stm32l4xx_hal_spi.c **** 
1999:Drivers/STM32L4xx_HAL_Driver/Src/stm32l4xx_hal_spi.c ****   /* Process Locked */
2000:Drivers/STM32L4xx_HAL_Driver/Src/stm32l4xx_hal_spi.c ****   __HAL_LOCK(hspi);
 3088              		.loc 1 2000 3
 3089 003c FB68     		ldr	r3, [r7, #12]
 3090 003e 93F85C30 		ldrb	r3, [r3, #92]	@ zero_extendqisi2
 3091 0042 012B     		cmp	r3, #1
 3092 0044 01D1     		bne	.L167
 3093              		.loc 1 2000 3 is_stmt 0 discriminator 1
 3094 0046 0223     		movs	r3, #2
 3095 0048 F4E0     		b	.L166
 3096              	.L167:
 3097              		.loc 1 2000 3 discriminator 2
 3098 004a FB68     		ldr	r3, [r7, #12]
 3099 004c 0122     		movs	r2, #1
 3100 004e 83F85C20 		strb	r2, [r3, #92]
2001:Drivers/STM32L4xx_HAL_Driver/Src/stm32l4xx_hal_spi.c **** 
2002:Drivers/STM32L4xx_HAL_Driver/Src/stm32l4xx_hal_spi.c ****   if (hspi->State != HAL_SPI_STATE_READY)
 3101              		.loc 1 2002 11 is_stmt 1 discriminator 2
 3102 0052 FB68     		ldr	r3, [r7, #12]
 3103 0054 93F85D30 		ldrb	r3, [r3, #93]
 3104 0058 DBB2     		uxtb	r3, r3
 3105              		.loc 1 2002 6 discriminator 2
 3106 005a 012B     		cmp	r3, #1
 3107 005c 02D0     		beq	.L168
2003:Drivers/STM32L4xx_HAL_Driver/Src/stm32l4xx_hal_spi.c ****   {
2004:Drivers/STM32L4xx_HAL_Driver/Src/stm32l4xx_hal_spi.c ****     errorcode = HAL_BUSY;
 3108              		.loc 1 2004 15
 3109 005e 0223     		movs	r3, #2
 3110 0060 FB75     		strb	r3, [r7, #23]
2005:Drivers/STM32L4xx_HAL_Driver/Src/stm32l4xx_hal_spi.c ****     goto error;
 3111              		.loc 1 2005 5
 3112 0062 E2E0     		b	.L169
 3113              	.L168:
2006:Drivers/STM32L4xx_HAL_Driver/Src/stm32l4xx_hal_spi.c ****   }
2007:Drivers/STM32L4xx_HAL_Driver/Src/stm32l4xx_hal_spi.c **** 
2008:Drivers/STM32L4xx_HAL_Driver/Src/stm32l4xx_hal_spi.c ****   if ((pData == NULL) || (Size == 0U))
 3114              		.loc 1 2008 6
 3115 0064 BB68     		ldr	r3, [r7, #8]
 3116 0066 002B     		cmp	r3, #0
 3117 0068 02D0     		beq	.L170
 3118              		.loc 1 2008 23 discriminator 1
 3119 006a FB88     		ldrh	r3, [r7, #6]
 3120 006c 002B     		cmp	r3, #0
 3121 006e 02D1     		bne	.L171
 3122              	.L170:
2009:Drivers/STM32L4xx_HAL_Driver/Src/stm32l4xx_hal_spi.c ****   {
2010:Drivers/STM32L4xx_HAL_Driver/Src/stm32l4xx_hal_spi.c ****     errorcode = HAL_ERROR;
 3123              		.loc 1 2010 15
 3124 0070 0123     		movs	r3, #1
 3125 0072 FB75     		strb	r3, [r7, #23]
ARM GAS  C:\Users\Morroway\AppData\Local\Temp\ccCQJjHM.s 			page 91


2011:Drivers/STM32L4xx_HAL_Driver/Src/stm32l4xx_hal_spi.c ****     goto error;
 3126              		.loc 1 2011 5
 3127 0074 D9E0     		b	.L169
 3128              	.L171:
2012:Drivers/STM32L4xx_HAL_Driver/Src/stm32l4xx_hal_spi.c ****   }
2013:Drivers/STM32L4xx_HAL_Driver/Src/stm32l4xx_hal_spi.c **** 
2014:Drivers/STM32L4xx_HAL_Driver/Src/stm32l4xx_hal_spi.c ****   /* Set the transaction information */
2015:Drivers/STM32L4xx_HAL_Driver/Src/stm32l4xx_hal_spi.c ****   hspi->State       = HAL_SPI_STATE_BUSY_RX;
 3129              		.loc 1 2015 21
 3130 0076 FB68     		ldr	r3, [r7, #12]
 3131 0078 0422     		movs	r2, #4
 3132 007a 83F85D20 		strb	r2, [r3, #93]
2016:Drivers/STM32L4xx_HAL_Driver/Src/stm32l4xx_hal_spi.c ****   hspi->ErrorCode   = HAL_SPI_ERROR_NONE;
 3133              		.loc 1 2016 21
 3134 007e FB68     		ldr	r3, [r7, #12]
 3135 0080 0022     		movs	r2, #0
 3136 0082 1A66     		str	r2, [r3, #96]
2017:Drivers/STM32L4xx_HAL_Driver/Src/stm32l4xx_hal_spi.c ****   hspi->pRxBuffPtr  = (uint8_t *)pData;
 3137              		.loc 1 2017 21
 3138 0084 FB68     		ldr	r3, [r7, #12]
 3139 0086 BA68     		ldr	r2, [r7, #8]
 3140 0088 1A64     		str	r2, [r3, #64]
2018:Drivers/STM32L4xx_HAL_Driver/Src/stm32l4xx_hal_spi.c ****   hspi->RxXferSize  = Size;
 3141              		.loc 1 2018 21
 3142 008a FB68     		ldr	r3, [r7, #12]
 3143 008c FA88     		ldrh	r2, [r7, #6]	@ movhi
 3144 008e A3F84420 		strh	r2, [r3, #68]	@ movhi
2019:Drivers/STM32L4xx_HAL_Driver/Src/stm32l4xx_hal_spi.c ****   hspi->RxXferCount = Size;
 3145              		.loc 1 2019 21
 3146 0092 FB68     		ldr	r3, [r7, #12]
 3147 0094 FA88     		ldrh	r2, [r7, #6]	@ movhi
 3148 0096 A3F84620 		strh	r2, [r3, #70]	@ movhi
2020:Drivers/STM32L4xx_HAL_Driver/Src/stm32l4xx_hal_spi.c **** 
2021:Drivers/STM32L4xx_HAL_Driver/Src/stm32l4xx_hal_spi.c ****   /*Init field not used in handle to zero */
2022:Drivers/STM32L4xx_HAL_Driver/Src/stm32l4xx_hal_spi.c ****   hspi->RxISR       = NULL;
 3149              		.loc 1 2022 21
 3150 009a FB68     		ldr	r3, [r7, #12]
 3151 009c 0022     		movs	r2, #0
 3152 009e DA64     		str	r2, [r3, #76]
2023:Drivers/STM32L4xx_HAL_Driver/Src/stm32l4xx_hal_spi.c ****   hspi->TxISR       = NULL;
 3153              		.loc 1 2023 21
 3154 00a0 FB68     		ldr	r3, [r7, #12]
 3155 00a2 0022     		movs	r2, #0
 3156 00a4 1A65     		str	r2, [r3, #80]
2024:Drivers/STM32L4xx_HAL_Driver/Src/stm32l4xx_hal_spi.c ****   hspi->TxXferSize  = 0U;
 3157              		.loc 1 2024 21
 3158 00a6 FB68     		ldr	r3, [r7, #12]
 3159 00a8 0022     		movs	r2, #0
 3160 00aa 9A87     		strh	r2, [r3, #60]	@ movhi
2025:Drivers/STM32L4xx_HAL_Driver/Src/stm32l4xx_hal_spi.c ****   hspi->TxXferCount = 0U;
 3161              		.loc 1 2025 21
 3162 00ac FB68     		ldr	r3, [r7, #12]
 3163 00ae 0022     		movs	r2, #0
 3164 00b0 DA87     		strh	r2, [r3, #62]	@ movhi
2026:Drivers/STM32L4xx_HAL_Driver/Src/stm32l4xx_hal_spi.c **** 
2027:Drivers/STM32L4xx_HAL_Driver/Src/stm32l4xx_hal_spi.c ****   /* Configure communication direction : 1Line */
2028:Drivers/STM32L4xx_HAL_Driver/Src/stm32l4xx_hal_spi.c ****   if (hspi->Init.Direction == SPI_DIRECTION_1LINE)
ARM GAS  C:\Users\Morroway\AppData\Local\Temp\ccCQJjHM.s 			page 92


 3165              		.loc 1 2028 17
 3166 00b2 FB68     		ldr	r3, [r7, #12]
 3167 00b4 9B68     		ldr	r3, [r3, #8]
 3168              		.loc 1 2028 6
 3169 00b6 B3F5004F 		cmp	r3, #32768
 3170 00ba 0FD1     		bne	.L172
2029:Drivers/STM32L4xx_HAL_Driver/Src/stm32l4xx_hal_spi.c ****   {
2030:Drivers/STM32L4xx_HAL_Driver/Src/stm32l4xx_hal_spi.c ****     /* Disable SPI Peripheral before set 1Line direction (BIDIOE bit) */
2031:Drivers/STM32L4xx_HAL_Driver/Src/stm32l4xx_hal_spi.c ****     __HAL_SPI_DISABLE(hspi);
 3171              		.loc 1 2031 5
 3172 00bc FB68     		ldr	r3, [r7, #12]
 3173 00be 1B68     		ldr	r3, [r3]
 3174 00c0 1A68     		ldr	r2, [r3]
 3175 00c2 FB68     		ldr	r3, [r7, #12]
 3176 00c4 1B68     		ldr	r3, [r3]
 3177 00c6 22F04002 		bic	r2, r2, #64
 3178 00ca 1A60     		str	r2, [r3]
2032:Drivers/STM32L4xx_HAL_Driver/Src/stm32l4xx_hal_spi.c ****     SPI_1LINE_RX(hspi);
 3179              		.loc 1 2032 5
 3180 00cc FB68     		ldr	r3, [r7, #12]
 3181 00ce 1B68     		ldr	r3, [r3]
 3182 00d0 1A68     		ldr	r2, [r3]
 3183 00d2 FB68     		ldr	r3, [r7, #12]
 3184 00d4 1B68     		ldr	r3, [r3]
 3185 00d6 22F48042 		bic	r2, r2, #16384
 3186 00da 1A60     		str	r2, [r3]
 3187              	.L172:
2033:Drivers/STM32L4xx_HAL_Driver/Src/stm32l4xx_hal_spi.c ****   }
2034:Drivers/STM32L4xx_HAL_Driver/Src/stm32l4xx_hal_spi.c **** 
2035:Drivers/STM32L4xx_HAL_Driver/Src/stm32l4xx_hal_spi.c **** #if (USE_SPI_CRC != 0U)
2036:Drivers/STM32L4xx_HAL_Driver/Src/stm32l4xx_hal_spi.c ****   /* Reset CRC Calculation */
2037:Drivers/STM32L4xx_HAL_Driver/Src/stm32l4xx_hal_spi.c ****   if (hspi->Init.CRCCalculation == SPI_CRCCALCULATION_ENABLE)
2038:Drivers/STM32L4xx_HAL_Driver/Src/stm32l4xx_hal_spi.c ****   {
2039:Drivers/STM32L4xx_HAL_Driver/Src/stm32l4xx_hal_spi.c ****     SPI_RESET_CRC(hspi);
2040:Drivers/STM32L4xx_HAL_Driver/Src/stm32l4xx_hal_spi.c ****   }
2041:Drivers/STM32L4xx_HAL_Driver/Src/stm32l4xx_hal_spi.c **** #endif /* USE_SPI_CRC */
2042:Drivers/STM32L4xx_HAL_Driver/Src/stm32l4xx_hal_spi.c **** 
2043:Drivers/STM32L4xx_HAL_Driver/Src/stm32l4xx_hal_spi.c **** 
2044:Drivers/STM32L4xx_HAL_Driver/Src/stm32l4xx_hal_spi.c ****   CLEAR_BIT(hspi->Instance->CR2, SPI_CR2_LDMARX);
 3188              		.loc 1 2044 3
 3189 00dc FB68     		ldr	r3, [r7, #12]
 3190 00de 1B68     		ldr	r3, [r3]
 3191 00e0 5A68     		ldr	r2, [r3, #4]
 3192 00e2 FB68     		ldr	r3, [r7, #12]
 3193 00e4 1B68     		ldr	r3, [r3]
 3194 00e6 22F40052 		bic	r2, r2, #8192
 3195 00ea 5A60     		str	r2, [r3, #4]
2045:Drivers/STM32L4xx_HAL_Driver/Src/stm32l4xx_hal_spi.c ****   if (hspi->Init.DataSize > SPI_DATASIZE_8BIT)
 3196              		.loc 1 2045 17
 3197 00ec FB68     		ldr	r3, [r7, #12]
 3198 00ee DB68     		ldr	r3, [r3, #12]
 3199              		.loc 1 2045 6
 3200 00f0 B3F5E06F 		cmp	r3, #1792
 3201 00f4 08D9     		bls	.L173
2046:Drivers/STM32L4xx_HAL_Driver/Src/stm32l4xx_hal_spi.c ****   {
2047:Drivers/STM32L4xx_HAL_Driver/Src/stm32l4xx_hal_spi.c ****     /* Set RX Fifo threshold according the reception data length: 16bit */
2048:Drivers/STM32L4xx_HAL_Driver/Src/stm32l4xx_hal_spi.c ****     CLEAR_BIT(hspi->Instance->CR2, SPI_RXFIFO_THRESHOLD);
ARM GAS  C:\Users\Morroway\AppData\Local\Temp\ccCQJjHM.s 			page 93


 3202              		.loc 1 2048 5
 3203 00f6 FB68     		ldr	r3, [r7, #12]
 3204 00f8 1B68     		ldr	r3, [r3]
 3205 00fa 5A68     		ldr	r2, [r3, #4]
 3206 00fc FB68     		ldr	r3, [r7, #12]
 3207 00fe 1B68     		ldr	r3, [r3]
 3208 0100 22F48052 		bic	r2, r2, #4096
 3209 0104 5A60     		str	r2, [r3, #4]
 3210 0106 42E0     		b	.L174
 3211              	.L173:
2049:Drivers/STM32L4xx_HAL_Driver/Src/stm32l4xx_hal_spi.c ****   }
2050:Drivers/STM32L4xx_HAL_Driver/Src/stm32l4xx_hal_spi.c ****   else
2051:Drivers/STM32L4xx_HAL_Driver/Src/stm32l4xx_hal_spi.c ****   {
2052:Drivers/STM32L4xx_HAL_Driver/Src/stm32l4xx_hal_spi.c ****     /* Set RX Fifo threshold according the reception data length: 8bit */
2053:Drivers/STM32L4xx_HAL_Driver/Src/stm32l4xx_hal_spi.c ****     SET_BIT(hspi->Instance->CR2, SPI_RXFIFO_THRESHOLD);
 3212              		.loc 1 2053 5
 3213 0108 FB68     		ldr	r3, [r7, #12]
 3214 010a 1B68     		ldr	r3, [r3]
 3215 010c 5A68     		ldr	r2, [r3, #4]
 3216 010e FB68     		ldr	r3, [r7, #12]
 3217 0110 1B68     		ldr	r3, [r3]
 3218 0112 42F48052 		orr	r2, r2, #4096
 3219 0116 5A60     		str	r2, [r3, #4]
2054:Drivers/STM32L4xx_HAL_Driver/Src/stm32l4xx_hal_spi.c **** 
2055:Drivers/STM32L4xx_HAL_Driver/Src/stm32l4xx_hal_spi.c ****     if (hspi->hdmarx->Init.MemDataAlignment == DMA_MDATAALIGN_HALFWORD)
 3220              		.loc 1 2055 13
 3221 0118 FB68     		ldr	r3, [r7, #12]
 3222 011a 9B6D     		ldr	r3, [r3, #88]
 3223              		.loc 1 2055 27
 3224 011c 9B69     		ldr	r3, [r3, #24]
 3225              		.loc 1 2055 8
 3226 011e B3F5806F 		cmp	r3, #1024
 3227 0122 34D1     		bne	.L174
2056:Drivers/STM32L4xx_HAL_Driver/Src/stm32l4xx_hal_spi.c ****     {
2057:Drivers/STM32L4xx_HAL_Driver/Src/stm32l4xx_hal_spi.c ****       /* Set RX Fifo threshold according the reception data length: 16bit */
2058:Drivers/STM32L4xx_HAL_Driver/Src/stm32l4xx_hal_spi.c ****       CLEAR_BIT(hspi->Instance->CR2, SPI_RXFIFO_THRESHOLD);
 3228              		.loc 1 2058 7
 3229 0124 FB68     		ldr	r3, [r7, #12]
 3230 0126 1B68     		ldr	r3, [r3]
 3231 0128 5A68     		ldr	r2, [r3, #4]
 3232 012a FB68     		ldr	r3, [r7, #12]
 3233 012c 1B68     		ldr	r3, [r3]
 3234 012e 22F48052 		bic	r2, r2, #4096
 3235 0132 5A60     		str	r2, [r3, #4]
2059:Drivers/STM32L4xx_HAL_Driver/Src/stm32l4xx_hal_spi.c **** 
2060:Drivers/STM32L4xx_HAL_Driver/Src/stm32l4xx_hal_spi.c ****       if ((hspi->RxXferCount & 0x1U) == 0x0U)
 3236              		.loc 1 2060 16
 3237 0134 FB68     		ldr	r3, [r7, #12]
 3238 0136 B3F84630 		ldrh	r3, [r3, #70]	@ movhi
 3239 013a 9BB2     		uxth	r3, r3
 3240              		.loc 1 2060 30
 3241 013c 03F00103 		and	r3, r3, #1
 3242              		.loc 1 2060 10
 3243 0140 002B     		cmp	r3, #0
 3244 0142 11D1     		bne	.L175
2061:Drivers/STM32L4xx_HAL_Driver/Src/stm32l4xx_hal_spi.c ****       {
2062:Drivers/STM32L4xx_HAL_Driver/Src/stm32l4xx_hal_spi.c ****         CLEAR_BIT(hspi->Instance->CR2, SPI_CR2_LDMARX);
ARM GAS  C:\Users\Morroway\AppData\Local\Temp\ccCQJjHM.s 			page 94


 3245              		.loc 1 2062 9
 3246 0144 FB68     		ldr	r3, [r7, #12]
 3247 0146 1B68     		ldr	r3, [r3]
 3248 0148 5A68     		ldr	r2, [r3, #4]
 3249 014a FB68     		ldr	r3, [r7, #12]
 3250 014c 1B68     		ldr	r3, [r3]
 3251 014e 22F40052 		bic	r2, r2, #8192
 3252 0152 5A60     		str	r2, [r3, #4]
2063:Drivers/STM32L4xx_HAL_Driver/Src/stm32l4xx_hal_spi.c ****         hspi->RxXferCount = hspi->RxXferCount >> 1U;
 3253              		.loc 1 2063 33
 3254 0154 FB68     		ldr	r3, [r7, #12]
 3255 0156 B3F84630 		ldrh	r3, [r3, #70]	@ movhi
 3256 015a 9BB2     		uxth	r3, r3
 3257              		.loc 1 2063 27
 3258 015c 5B08     		lsrs	r3, r3, #1
 3259 015e 9AB2     		uxth	r2, r3
 3260 0160 FB68     		ldr	r3, [r7, #12]
 3261 0162 A3F84620 		strh	r2, [r3, #70]	@ movhi
 3262 0166 12E0     		b	.L174
 3263              	.L175:
2064:Drivers/STM32L4xx_HAL_Driver/Src/stm32l4xx_hal_spi.c ****       }
2065:Drivers/STM32L4xx_HAL_Driver/Src/stm32l4xx_hal_spi.c ****       else
2066:Drivers/STM32L4xx_HAL_Driver/Src/stm32l4xx_hal_spi.c ****       {
2067:Drivers/STM32L4xx_HAL_Driver/Src/stm32l4xx_hal_spi.c ****         SET_BIT(hspi->Instance->CR2, SPI_CR2_LDMARX);
 3264              		.loc 1 2067 9
 3265 0168 FB68     		ldr	r3, [r7, #12]
 3266 016a 1B68     		ldr	r3, [r3]
 3267 016c 5A68     		ldr	r2, [r3, #4]
 3268 016e FB68     		ldr	r3, [r7, #12]
 3269 0170 1B68     		ldr	r3, [r3]
 3270 0172 42F40052 		orr	r2, r2, #8192
 3271 0176 5A60     		str	r2, [r3, #4]
2068:Drivers/STM32L4xx_HAL_Driver/Src/stm32l4xx_hal_spi.c ****         hspi->RxXferCount = (hspi->RxXferCount >> 1U) + 1U;
 3272              		.loc 1 2068 34
 3273 0178 FB68     		ldr	r3, [r7, #12]
 3274 017a B3F84630 		ldrh	r3, [r3, #70]	@ movhi
 3275 017e 9BB2     		uxth	r3, r3
 3276              		.loc 1 2068 55
 3277 0180 5B08     		lsrs	r3, r3, #1
 3278 0182 9BB2     		uxth	r3, r3
 3279 0184 0133     		adds	r3, r3, #1
 3280 0186 9AB2     		uxth	r2, r3
 3281              		.loc 1 2068 27
 3282 0188 FB68     		ldr	r3, [r7, #12]
 3283 018a A3F84620 		strh	r2, [r3, #70]	@ movhi
 3284              	.L174:
2069:Drivers/STM32L4xx_HAL_Driver/Src/stm32l4xx_hal_spi.c ****       }
2070:Drivers/STM32L4xx_HAL_Driver/Src/stm32l4xx_hal_spi.c ****     }
2071:Drivers/STM32L4xx_HAL_Driver/Src/stm32l4xx_hal_spi.c ****   }
2072:Drivers/STM32L4xx_HAL_Driver/Src/stm32l4xx_hal_spi.c **** 
2073:Drivers/STM32L4xx_HAL_Driver/Src/stm32l4xx_hal_spi.c ****   /* Set the SPI RxDMA Half transfer complete callback */
2074:Drivers/STM32L4xx_HAL_Driver/Src/stm32l4xx_hal_spi.c ****   hspi->hdmarx->XferHalfCpltCallback = SPI_DMAHalfReceiveCplt;
 3285              		.loc 1 2074 7
 3286 018e FB68     		ldr	r3, [r7, #12]
 3287 0190 9B6D     		ldr	r3, [r3, #88]
 3288              		.loc 1 2074 38
 3289 0192 2A4A     		ldr	r2, .L178
ARM GAS  C:\Users\Morroway\AppData\Local\Temp\ccCQJjHM.s 			page 95


 3290 0194 1A63     		str	r2, [r3, #48]
2075:Drivers/STM32L4xx_HAL_Driver/Src/stm32l4xx_hal_spi.c **** 
2076:Drivers/STM32L4xx_HAL_Driver/Src/stm32l4xx_hal_spi.c ****   /* Set the SPI Rx DMA transfer complete callback */
2077:Drivers/STM32L4xx_HAL_Driver/Src/stm32l4xx_hal_spi.c ****   hspi->hdmarx->XferCpltCallback = SPI_DMAReceiveCplt;
 3291              		.loc 1 2077 7
 3292 0196 FB68     		ldr	r3, [r7, #12]
 3293 0198 9B6D     		ldr	r3, [r3, #88]
 3294              		.loc 1 2077 34
 3295 019a 294A     		ldr	r2, .L178+4
 3296 019c DA62     		str	r2, [r3, #44]
2078:Drivers/STM32L4xx_HAL_Driver/Src/stm32l4xx_hal_spi.c **** 
2079:Drivers/STM32L4xx_HAL_Driver/Src/stm32l4xx_hal_spi.c ****   /* Set the DMA error callback */
2080:Drivers/STM32L4xx_HAL_Driver/Src/stm32l4xx_hal_spi.c ****   hspi->hdmarx->XferErrorCallback = SPI_DMAError;
 3297              		.loc 1 2080 7
 3298 019e FB68     		ldr	r3, [r7, #12]
 3299 01a0 9B6D     		ldr	r3, [r3, #88]
 3300              		.loc 1 2080 35
 3301 01a2 284A     		ldr	r2, .L178+8
 3302 01a4 5A63     		str	r2, [r3, #52]
2081:Drivers/STM32L4xx_HAL_Driver/Src/stm32l4xx_hal_spi.c **** 
2082:Drivers/STM32L4xx_HAL_Driver/Src/stm32l4xx_hal_spi.c ****   /* Set the DMA AbortCpltCallback */
2083:Drivers/STM32L4xx_HAL_Driver/Src/stm32l4xx_hal_spi.c ****   hspi->hdmarx->XferAbortCallback = NULL;
 3303              		.loc 1 2083 7
 3304 01a6 FB68     		ldr	r3, [r7, #12]
 3305 01a8 9B6D     		ldr	r3, [r3, #88]
 3306              		.loc 1 2083 35
 3307 01aa 0022     		movs	r2, #0
 3308 01ac 9A63     		str	r2, [r3, #56]
2084:Drivers/STM32L4xx_HAL_Driver/Src/stm32l4xx_hal_spi.c **** 
2085:Drivers/STM32L4xx_HAL_Driver/Src/stm32l4xx_hal_spi.c ****   /* Enable the Rx DMA Stream/Channel  */
2086:Drivers/STM32L4xx_HAL_Driver/Src/stm32l4xx_hal_spi.c ****   if (HAL_OK != HAL_DMA_Start_IT(hspi->hdmarx, (uint32_t)&hspi->Instance->DR, (uint32_t)hspi->pRxBu
 3309              		.loc 1 2086 17
 3310 01ae FB68     		ldr	r3, [r7, #12]
 3311 01b0 986D     		ldr	r0, [r3, #88]
 3312              		.loc 1 2086 63
 3313 01b2 FB68     		ldr	r3, [r7, #12]
 3314 01b4 1B68     		ldr	r3, [r3]
 3315              		.loc 1 2086 58
 3316 01b6 0C33     		adds	r3, r3, #12
 3317              		.loc 1 2086 17
 3318 01b8 1946     		mov	r1, r3
 3319              		.loc 1 2086 93
 3320 01ba FB68     		ldr	r3, [r7, #12]
 3321 01bc 1B6C     		ldr	r3, [r3, #64]
 3322              		.loc 1 2086 17
 3323 01be 1A46     		mov	r2, r3
2087:Drivers/STM32L4xx_HAL_Driver/Src/stm32l4xx_hal_spi.c ****                                  hspi->RxXferCount))
 3324              		.loc 1 2087 38
 3325 01c0 FB68     		ldr	r3, [r7, #12]
 3326 01c2 B3F84630 		ldrh	r3, [r3, #70]	@ movhi
 3327 01c6 9BB2     		uxth	r3, r3
2086:Drivers/STM32L4xx_HAL_Driver/Src/stm32l4xx_hal_spi.c ****                                  hspi->RxXferCount))
 3328              		.loc 1 2086 17
 3329 01c8 FFF7FEFF 		bl	HAL_DMA_Start_IT
 3330 01cc 0346     		mov	r3, r0
2086:Drivers/STM32L4xx_HAL_Driver/Src/stm32l4xx_hal_spi.c ****                                  hspi->RxXferCount))
 3331              		.loc 1 2086 6
ARM GAS  C:\Users\Morroway\AppData\Local\Temp\ccCQJjHM.s 			page 96


 3332 01ce 002B     		cmp	r3, #0
 3333 01d0 0CD0     		beq	.L176
2088:Drivers/STM32L4xx_HAL_Driver/Src/stm32l4xx_hal_spi.c ****   {
2089:Drivers/STM32L4xx_HAL_Driver/Src/stm32l4xx_hal_spi.c ****     /* Update SPI error code */
2090:Drivers/STM32L4xx_HAL_Driver/Src/stm32l4xx_hal_spi.c ****     SET_BIT(hspi->ErrorCode, HAL_SPI_ERROR_DMA);
 3334              		.loc 1 2090 5
 3335 01d2 FB68     		ldr	r3, [r7, #12]
 3336 01d4 1B6E     		ldr	r3, [r3, #96]
 3337 01d6 43F01002 		orr	r2, r3, #16
 3338 01da FB68     		ldr	r3, [r7, #12]
 3339 01dc 1A66     		str	r2, [r3, #96]
2091:Drivers/STM32L4xx_HAL_Driver/Src/stm32l4xx_hal_spi.c ****     errorcode = HAL_ERROR;
 3340              		.loc 1 2091 15
 3341 01de 0123     		movs	r3, #1
 3342 01e0 FB75     		strb	r3, [r7, #23]
2092:Drivers/STM32L4xx_HAL_Driver/Src/stm32l4xx_hal_spi.c **** 
2093:Drivers/STM32L4xx_HAL_Driver/Src/stm32l4xx_hal_spi.c ****     hspi->State = HAL_SPI_STATE_READY;
 3343              		.loc 1 2093 17
 3344 01e2 FB68     		ldr	r3, [r7, #12]
 3345 01e4 0122     		movs	r2, #1
 3346 01e6 83F85D20 		strb	r2, [r3, #93]
2094:Drivers/STM32L4xx_HAL_Driver/Src/stm32l4xx_hal_spi.c ****     goto error;
 3347              		.loc 1 2094 5
 3348 01ea 1EE0     		b	.L169
 3349              	.L176:
2095:Drivers/STM32L4xx_HAL_Driver/Src/stm32l4xx_hal_spi.c ****   }
2096:Drivers/STM32L4xx_HAL_Driver/Src/stm32l4xx_hal_spi.c **** 
2097:Drivers/STM32L4xx_HAL_Driver/Src/stm32l4xx_hal_spi.c ****   /* Check if the SPI is already enabled */
2098:Drivers/STM32L4xx_HAL_Driver/Src/stm32l4xx_hal_spi.c ****   if ((hspi->Instance->CR1 & SPI_CR1_SPE) != SPI_CR1_SPE)
 3350              		.loc 1 2098 12
 3351 01ec FB68     		ldr	r3, [r7, #12]
 3352 01ee 1B68     		ldr	r3, [r3]
 3353              		.loc 1 2098 22
 3354 01f0 1B68     		ldr	r3, [r3]
 3355              		.loc 1 2098 28
 3356 01f2 03F04003 		and	r3, r3, #64
 3357              		.loc 1 2098 6
 3358 01f6 402B     		cmp	r3, #64
 3359 01f8 07D0     		beq	.L177
2099:Drivers/STM32L4xx_HAL_Driver/Src/stm32l4xx_hal_spi.c ****   {
2100:Drivers/STM32L4xx_HAL_Driver/Src/stm32l4xx_hal_spi.c ****     /* Enable SPI peripheral */
2101:Drivers/STM32L4xx_HAL_Driver/Src/stm32l4xx_hal_spi.c ****     __HAL_SPI_ENABLE(hspi);
 3360              		.loc 1 2101 5
 3361 01fa FB68     		ldr	r3, [r7, #12]
 3362 01fc 1B68     		ldr	r3, [r3]
 3363 01fe 1A68     		ldr	r2, [r3]
 3364 0200 FB68     		ldr	r3, [r7, #12]
 3365 0202 1B68     		ldr	r3, [r3]
 3366 0204 42F04002 		orr	r2, r2, #64
 3367 0208 1A60     		str	r2, [r3]
 3368              	.L177:
2102:Drivers/STM32L4xx_HAL_Driver/Src/stm32l4xx_hal_spi.c ****   }
2103:Drivers/STM32L4xx_HAL_Driver/Src/stm32l4xx_hal_spi.c **** 
2104:Drivers/STM32L4xx_HAL_Driver/Src/stm32l4xx_hal_spi.c ****   /* Enable the SPI Error Interrupt Bit */
2105:Drivers/STM32L4xx_HAL_Driver/Src/stm32l4xx_hal_spi.c ****   __HAL_SPI_ENABLE_IT(hspi, (SPI_IT_ERR));
 3369              		.loc 1 2105 3
 3370 020a FB68     		ldr	r3, [r7, #12]
ARM GAS  C:\Users\Morroway\AppData\Local\Temp\ccCQJjHM.s 			page 97


 3371 020c 1B68     		ldr	r3, [r3]
 3372 020e 5A68     		ldr	r2, [r3, #4]
 3373 0210 FB68     		ldr	r3, [r7, #12]
 3374 0212 1B68     		ldr	r3, [r3]
 3375 0214 42F02002 		orr	r2, r2, #32
 3376 0218 5A60     		str	r2, [r3, #4]
2106:Drivers/STM32L4xx_HAL_Driver/Src/stm32l4xx_hal_spi.c **** 
2107:Drivers/STM32L4xx_HAL_Driver/Src/stm32l4xx_hal_spi.c ****   /* Enable Rx DMA Request */
2108:Drivers/STM32L4xx_HAL_Driver/Src/stm32l4xx_hal_spi.c ****   SET_BIT(hspi->Instance->CR2, SPI_CR2_RXDMAEN);
 3377              		.loc 1 2108 3
 3378 021a FB68     		ldr	r3, [r7, #12]
 3379 021c 1B68     		ldr	r3, [r3]
 3380 021e 5A68     		ldr	r2, [r3, #4]
 3381 0220 FB68     		ldr	r3, [r7, #12]
 3382 0222 1B68     		ldr	r3, [r3]
 3383 0224 42F00102 		orr	r2, r2, #1
 3384 0228 5A60     		str	r2, [r3, #4]
 3385              	.L169:
2109:Drivers/STM32L4xx_HAL_Driver/Src/stm32l4xx_hal_spi.c **** 
2110:Drivers/STM32L4xx_HAL_Driver/Src/stm32l4xx_hal_spi.c **** error:
2111:Drivers/STM32L4xx_HAL_Driver/Src/stm32l4xx_hal_spi.c ****   /* Process Unlocked */
2112:Drivers/STM32L4xx_HAL_Driver/Src/stm32l4xx_hal_spi.c ****   __HAL_UNLOCK(hspi);
 3386              		.loc 1 2112 3
 3387 022a FB68     		ldr	r3, [r7, #12]
 3388 022c 0022     		movs	r2, #0
 3389 022e 83F85C20 		strb	r2, [r3, #92]
2113:Drivers/STM32L4xx_HAL_Driver/Src/stm32l4xx_hal_spi.c ****   return errorcode;
 3390              		.loc 1 2113 10
 3391 0232 FB7D     		ldrb	r3, [r7, #23]	@ zero_extendqisi2
 3392              	.L166:
2114:Drivers/STM32L4xx_HAL_Driver/Src/stm32l4xx_hal_spi.c **** }
 3393              		.loc 1 2114 1
 3394 0234 1846     		mov	r0, r3
 3395 0236 1837     		adds	r7, r7, #24
 3396              		.cfi_def_cfa_offset 8
 3397 0238 BD46     		mov	sp, r7
 3398              		.cfi_def_cfa_register 13
 3399              		@ sp needed
 3400 023a 80BD     		pop	{r7, pc}
 3401              	.L179:
 3402              		.align	2
 3403              	.L178:
 3404 023c 00000000 		.word	SPI_DMAHalfReceiveCplt
 3405 0240 00000000 		.word	SPI_DMAReceiveCplt
 3406 0244 00000000 		.word	SPI_DMAError
 3407              		.cfi_endproc
 3408              	.LFE332:
 3410              		.section	.text.HAL_SPI_TransmitReceive_DMA,"ax",%progbits
 3411              		.align	1
 3412              		.global	HAL_SPI_TransmitReceive_DMA
 3413              		.syntax unified
 3414              		.thumb
 3415              		.thumb_func
 3417              	HAL_SPI_TransmitReceive_DMA:
 3418              	.LFB333:
2115:Drivers/STM32L4xx_HAL_Driver/Src/stm32l4xx_hal_spi.c **** 
2116:Drivers/STM32L4xx_HAL_Driver/Src/stm32l4xx_hal_spi.c **** /**
ARM GAS  C:\Users\Morroway\AppData\Local\Temp\ccCQJjHM.s 			page 98


2117:Drivers/STM32L4xx_HAL_Driver/Src/stm32l4xx_hal_spi.c ****   * @brief  Transmit and Receive an amount of data in non-blocking mode with DMA.
2118:Drivers/STM32L4xx_HAL_Driver/Src/stm32l4xx_hal_spi.c ****   * @param  hspi pointer to a SPI_HandleTypeDef structure that contains
2119:Drivers/STM32L4xx_HAL_Driver/Src/stm32l4xx_hal_spi.c ****   *               the configuration information for SPI module.
2120:Drivers/STM32L4xx_HAL_Driver/Src/stm32l4xx_hal_spi.c ****   * @param  pTxData pointer to transmission data buffer
2121:Drivers/STM32L4xx_HAL_Driver/Src/stm32l4xx_hal_spi.c ****   * @param  pRxData pointer to reception data buffer
2122:Drivers/STM32L4xx_HAL_Driver/Src/stm32l4xx_hal_spi.c ****   * @note   When the CRC feature is enabled the pRxData Length must be Size + 1
2123:Drivers/STM32L4xx_HAL_Driver/Src/stm32l4xx_hal_spi.c ****   * @param  Size amount of data to be sent
2124:Drivers/STM32L4xx_HAL_Driver/Src/stm32l4xx_hal_spi.c ****   * @retval HAL status
2125:Drivers/STM32L4xx_HAL_Driver/Src/stm32l4xx_hal_spi.c ****   */
2126:Drivers/STM32L4xx_HAL_Driver/Src/stm32l4xx_hal_spi.c **** HAL_StatusTypeDef HAL_SPI_TransmitReceive_DMA(SPI_HandleTypeDef *hspi, uint8_t *pTxData, uint8_t *p
2127:Drivers/STM32L4xx_HAL_Driver/Src/stm32l4xx_hal_spi.c ****                                               uint16_t Size)
2128:Drivers/STM32L4xx_HAL_Driver/Src/stm32l4xx_hal_spi.c **** {
 3419              		.loc 1 2128 1
 3420              		.cfi_startproc
 3421              		@ args = 0, pretend = 0, frame = 24
 3422              		@ frame_needed = 1, uses_anonymous_args = 0
 3423 0000 80B5     		push	{r7, lr}
 3424              		.cfi_def_cfa_offset 8
 3425              		.cfi_offset 7, -8
 3426              		.cfi_offset 14, -4
 3427 0002 86B0     		sub	sp, sp, #24
 3428              		.cfi_def_cfa_offset 32
 3429 0004 00AF     		add	r7, sp, #0
 3430              		.cfi_def_cfa_register 7
 3431 0006 F860     		str	r0, [r7, #12]
 3432 0008 B960     		str	r1, [r7, #8]
 3433 000a 7A60     		str	r2, [r7, #4]
 3434 000c 7B80     		strh	r3, [r7, #2]	@ movhi
2129:Drivers/STM32L4xx_HAL_Driver/Src/stm32l4xx_hal_spi.c ****   uint32_t             tmp_mode;
2130:Drivers/STM32L4xx_HAL_Driver/Src/stm32l4xx_hal_spi.c ****   HAL_SPI_StateTypeDef tmp_state;
2131:Drivers/STM32L4xx_HAL_Driver/Src/stm32l4xx_hal_spi.c ****   HAL_StatusTypeDef errorcode = HAL_OK;
 3435              		.loc 1 2131 21
 3436 000e 0023     		movs	r3, #0
 3437 0010 FB75     		strb	r3, [r7, #23]
2132:Drivers/STM32L4xx_HAL_Driver/Src/stm32l4xx_hal_spi.c **** 
2133:Drivers/STM32L4xx_HAL_Driver/Src/stm32l4xx_hal_spi.c ****   /* Check rx & tx dma handles */
2134:Drivers/STM32L4xx_HAL_Driver/Src/stm32l4xx_hal_spi.c ****   assert_param(IS_SPI_DMA_HANDLE(hspi->hdmarx));
2135:Drivers/STM32L4xx_HAL_Driver/Src/stm32l4xx_hal_spi.c ****   assert_param(IS_SPI_DMA_HANDLE(hspi->hdmatx));
2136:Drivers/STM32L4xx_HAL_Driver/Src/stm32l4xx_hal_spi.c **** 
2137:Drivers/STM32L4xx_HAL_Driver/Src/stm32l4xx_hal_spi.c ****   /* Check Direction parameter */
2138:Drivers/STM32L4xx_HAL_Driver/Src/stm32l4xx_hal_spi.c ****   assert_param(IS_SPI_DIRECTION_2LINES(hspi->Init.Direction));
2139:Drivers/STM32L4xx_HAL_Driver/Src/stm32l4xx_hal_spi.c **** 
2140:Drivers/STM32L4xx_HAL_Driver/Src/stm32l4xx_hal_spi.c ****   /* Process locked */
2141:Drivers/STM32L4xx_HAL_Driver/Src/stm32l4xx_hal_spi.c ****   __HAL_LOCK(hspi);
 3438              		.loc 1 2141 3
 3439 0012 FB68     		ldr	r3, [r7, #12]
 3440 0014 93F85C30 		ldrb	r3, [r3, #92]	@ zero_extendqisi2
 3441 0018 012B     		cmp	r3, #1
 3442 001a 01D1     		bne	.L181
 3443              		.loc 1 2141 3 is_stmt 0 discriminator 1
 3444 001c 0223     		movs	r3, #2
 3445 001e 6CE1     		b	.L182
 3446              	.L181:
 3447              		.loc 1 2141 3 discriminator 2
 3448 0020 FB68     		ldr	r3, [r7, #12]
 3449 0022 0122     		movs	r2, #1
 3450 0024 83F85C20 		strb	r2, [r3, #92]
ARM GAS  C:\Users\Morroway\AppData\Local\Temp\ccCQJjHM.s 			page 99


2142:Drivers/STM32L4xx_HAL_Driver/Src/stm32l4xx_hal_spi.c **** 
2143:Drivers/STM32L4xx_HAL_Driver/Src/stm32l4xx_hal_spi.c ****   /* Init temporary variables */
2144:Drivers/STM32L4xx_HAL_Driver/Src/stm32l4xx_hal_spi.c ****   tmp_state           = hspi->State;
 3451              		.loc 1 2144 23 is_stmt 1 discriminator 2
 3452 0028 FB68     		ldr	r3, [r7, #12]
 3453 002a 93F85D30 		ldrb	r3, [r3, #93]
 3454 002e BB75     		strb	r3, [r7, #22]
2145:Drivers/STM32L4xx_HAL_Driver/Src/stm32l4xx_hal_spi.c ****   tmp_mode            = hspi->Init.Mode;
 3455              		.loc 1 2145 23 discriminator 2
 3456 0030 FB68     		ldr	r3, [r7, #12]
 3457 0032 5B68     		ldr	r3, [r3, #4]
 3458 0034 3B61     		str	r3, [r7, #16]
2146:Drivers/STM32L4xx_HAL_Driver/Src/stm32l4xx_hal_spi.c **** 
2147:Drivers/STM32L4xx_HAL_Driver/Src/stm32l4xx_hal_spi.c ****   if (!((tmp_state == HAL_SPI_STATE_READY) ||
 3459              		.loc 1 2147 6 discriminator 2
 3460 0036 BB7D     		ldrb	r3, [r7, #22]	@ zero_extendqisi2
 3461 0038 012B     		cmp	r3, #1
 3462 003a 0DD0     		beq	.L183
 3463              		.loc 1 2147 7 discriminator 1
 3464 003c 3B69     		ldr	r3, [r7, #16]
 3465 003e B3F5827F 		cmp	r3, #260
 3466 0042 06D1     		bne	.L184
2148:Drivers/STM32L4xx_HAL_Driver/Src/stm32l4xx_hal_spi.c ****         ((tmp_mode == SPI_MODE_MASTER) && (hspi->Init.Direction == SPI_DIRECTION_2LINES) && (tmp_st
 3467              		.loc 1 2148 54
 3468 0044 FB68     		ldr	r3, [r7, #12]
 3469 0046 9B68     		ldr	r3, [r3, #8]
 3470              		.loc 1 2148 40
 3471 0048 002B     		cmp	r3, #0
 3472 004a 02D1     		bne	.L184
 3473              		.loc 1 2148 90 discriminator 1
 3474 004c BB7D     		ldrb	r3, [r7, #22]	@ zero_extendqisi2
 3475 004e 042B     		cmp	r3, #4
 3476 0050 02D0     		beq	.L183
 3477              	.L184:
2149:Drivers/STM32L4xx_HAL_Driver/Src/stm32l4xx_hal_spi.c ****   {
2150:Drivers/STM32L4xx_HAL_Driver/Src/stm32l4xx_hal_spi.c ****     errorcode = HAL_BUSY;
 3478              		.loc 1 2150 15
 3479 0052 0223     		movs	r3, #2
 3480 0054 FB75     		strb	r3, [r7, #23]
2151:Drivers/STM32L4xx_HAL_Driver/Src/stm32l4xx_hal_spi.c ****     goto error;
 3481              		.loc 1 2151 5
 3482 0056 4BE1     		b	.L185
 3483              	.L183:
2152:Drivers/STM32L4xx_HAL_Driver/Src/stm32l4xx_hal_spi.c ****   }
2153:Drivers/STM32L4xx_HAL_Driver/Src/stm32l4xx_hal_spi.c **** 
2154:Drivers/STM32L4xx_HAL_Driver/Src/stm32l4xx_hal_spi.c ****   if ((pTxData == NULL) || (pRxData == NULL) || (Size == 0U))
 3484              		.loc 1 2154 6
 3485 0058 BB68     		ldr	r3, [r7, #8]
 3486 005a 002B     		cmp	r3, #0
 3487 005c 05D0     		beq	.L186
 3488              		.loc 1 2154 25 discriminator 1
 3489 005e 7B68     		ldr	r3, [r7, #4]
 3490 0060 002B     		cmp	r3, #0
 3491 0062 02D0     		beq	.L186
 3492              		.loc 1 2154 46 discriminator 2
 3493 0064 7B88     		ldrh	r3, [r7, #2]
 3494 0066 002B     		cmp	r3, #0
ARM GAS  C:\Users\Morroway\AppData\Local\Temp\ccCQJjHM.s 			page 100


 3495 0068 02D1     		bne	.L187
 3496              	.L186:
2155:Drivers/STM32L4xx_HAL_Driver/Src/stm32l4xx_hal_spi.c ****   {
2156:Drivers/STM32L4xx_HAL_Driver/Src/stm32l4xx_hal_spi.c ****     errorcode = HAL_ERROR;
 3497              		.loc 1 2156 15
 3498 006a 0123     		movs	r3, #1
 3499 006c FB75     		strb	r3, [r7, #23]
2157:Drivers/STM32L4xx_HAL_Driver/Src/stm32l4xx_hal_spi.c ****     goto error;
 3500              		.loc 1 2157 5
 3501 006e 3FE1     		b	.L185
 3502              	.L187:
2158:Drivers/STM32L4xx_HAL_Driver/Src/stm32l4xx_hal_spi.c ****   }
2159:Drivers/STM32L4xx_HAL_Driver/Src/stm32l4xx_hal_spi.c **** 
2160:Drivers/STM32L4xx_HAL_Driver/Src/stm32l4xx_hal_spi.c ****   /* Don't overwrite in case of HAL_SPI_STATE_BUSY_RX */
2161:Drivers/STM32L4xx_HAL_Driver/Src/stm32l4xx_hal_spi.c ****   if (hspi->State != HAL_SPI_STATE_BUSY_RX)
 3503              		.loc 1 2161 11
 3504 0070 FB68     		ldr	r3, [r7, #12]
 3505 0072 93F85D30 		ldrb	r3, [r3, #93]
 3506 0076 DBB2     		uxtb	r3, r3
 3507              		.loc 1 2161 6
 3508 0078 042B     		cmp	r3, #4
 3509 007a 03D0     		beq	.L188
2162:Drivers/STM32L4xx_HAL_Driver/Src/stm32l4xx_hal_spi.c ****   {
2163:Drivers/STM32L4xx_HAL_Driver/Src/stm32l4xx_hal_spi.c ****     hspi->State = HAL_SPI_STATE_BUSY_TX_RX;
 3510              		.loc 1 2163 17
 3511 007c FB68     		ldr	r3, [r7, #12]
 3512 007e 0522     		movs	r2, #5
 3513 0080 83F85D20 		strb	r2, [r3, #93]
 3514              	.L188:
2164:Drivers/STM32L4xx_HAL_Driver/Src/stm32l4xx_hal_spi.c ****   }
2165:Drivers/STM32L4xx_HAL_Driver/Src/stm32l4xx_hal_spi.c **** 
2166:Drivers/STM32L4xx_HAL_Driver/Src/stm32l4xx_hal_spi.c ****   /* Set the transaction information */
2167:Drivers/STM32L4xx_HAL_Driver/Src/stm32l4xx_hal_spi.c ****   hspi->ErrorCode   = HAL_SPI_ERROR_NONE;
 3515              		.loc 1 2167 21
 3516 0084 FB68     		ldr	r3, [r7, #12]
 3517 0086 0022     		movs	r2, #0
 3518 0088 1A66     		str	r2, [r3, #96]
2168:Drivers/STM32L4xx_HAL_Driver/Src/stm32l4xx_hal_spi.c ****   hspi->pTxBuffPtr  = (uint8_t *)pTxData;
 3519              		.loc 1 2168 21
 3520 008a FB68     		ldr	r3, [r7, #12]
 3521 008c BA68     		ldr	r2, [r7, #8]
 3522 008e 9A63     		str	r2, [r3, #56]
2169:Drivers/STM32L4xx_HAL_Driver/Src/stm32l4xx_hal_spi.c ****   hspi->TxXferSize  = Size;
 3523              		.loc 1 2169 21
 3524 0090 FB68     		ldr	r3, [r7, #12]
 3525 0092 7A88     		ldrh	r2, [r7, #2]	@ movhi
 3526 0094 9A87     		strh	r2, [r3, #60]	@ movhi
2170:Drivers/STM32L4xx_HAL_Driver/Src/stm32l4xx_hal_spi.c ****   hspi->TxXferCount = Size;
 3527              		.loc 1 2170 21
 3528 0096 FB68     		ldr	r3, [r7, #12]
 3529 0098 7A88     		ldrh	r2, [r7, #2]	@ movhi
 3530 009a DA87     		strh	r2, [r3, #62]	@ movhi
2171:Drivers/STM32L4xx_HAL_Driver/Src/stm32l4xx_hal_spi.c ****   hspi->pRxBuffPtr  = (uint8_t *)pRxData;
 3531              		.loc 1 2171 21
 3532 009c FB68     		ldr	r3, [r7, #12]
 3533 009e 7A68     		ldr	r2, [r7, #4]
 3534 00a0 1A64     		str	r2, [r3, #64]
ARM GAS  C:\Users\Morroway\AppData\Local\Temp\ccCQJjHM.s 			page 101


2172:Drivers/STM32L4xx_HAL_Driver/Src/stm32l4xx_hal_spi.c ****   hspi->RxXferSize  = Size;
 3535              		.loc 1 2172 21
 3536 00a2 FB68     		ldr	r3, [r7, #12]
 3537 00a4 7A88     		ldrh	r2, [r7, #2]	@ movhi
 3538 00a6 A3F84420 		strh	r2, [r3, #68]	@ movhi
2173:Drivers/STM32L4xx_HAL_Driver/Src/stm32l4xx_hal_spi.c ****   hspi->RxXferCount = Size;
 3539              		.loc 1 2173 21
 3540 00aa FB68     		ldr	r3, [r7, #12]
 3541 00ac 7A88     		ldrh	r2, [r7, #2]	@ movhi
 3542 00ae A3F84620 		strh	r2, [r3, #70]	@ movhi
2174:Drivers/STM32L4xx_HAL_Driver/Src/stm32l4xx_hal_spi.c **** 
2175:Drivers/STM32L4xx_HAL_Driver/Src/stm32l4xx_hal_spi.c ****   /* Init field not used in handle to zero */
2176:Drivers/STM32L4xx_HAL_Driver/Src/stm32l4xx_hal_spi.c ****   hspi->RxISR       = NULL;
 3543              		.loc 1 2176 21
 3544 00b2 FB68     		ldr	r3, [r7, #12]
 3545 00b4 0022     		movs	r2, #0
 3546 00b6 DA64     		str	r2, [r3, #76]
2177:Drivers/STM32L4xx_HAL_Driver/Src/stm32l4xx_hal_spi.c ****   hspi->TxISR       = NULL;
 3547              		.loc 1 2177 21
 3548 00b8 FB68     		ldr	r3, [r7, #12]
 3549 00ba 0022     		movs	r2, #0
 3550 00bc 1A65     		str	r2, [r3, #80]
2178:Drivers/STM32L4xx_HAL_Driver/Src/stm32l4xx_hal_spi.c **** 
2179:Drivers/STM32L4xx_HAL_Driver/Src/stm32l4xx_hal_spi.c **** #if (USE_SPI_CRC != 0U)
2180:Drivers/STM32L4xx_HAL_Driver/Src/stm32l4xx_hal_spi.c ****   /* Reset CRC Calculation */
2181:Drivers/STM32L4xx_HAL_Driver/Src/stm32l4xx_hal_spi.c ****   if (hspi->Init.CRCCalculation == SPI_CRCCALCULATION_ENABLE)
2182:Drivers/STM32L4xx_HAL_Driver/Src/stm32l4xx_hal_spi.c ****   {
2183:Drivers/STM32L4xx_HAL_Driver/Src/stm32l4xx_hal_spi.c ****     SPI_RESET_CRC(hspi);
2184:Drivers/STM32L4xx_HAL_Driver/Src/stm32l4xx_hal_spi.c ****   }
2185:Drivers/STM32L4xx_HAL_Driver/Src/stm32l4xx_hal_spi.c **** #endif /* USE_SPI_CRC */
2186:Drivers/STM32L4xx_HAL_Driver/Src/stm32l4xx_hal_spi.c **** 
2187:Drivers/STM32L4xx_HAL_Driver/Src/stm32l4xx_hal_spi.c ****   /* Reset the threshold bit */
2188:Drivers/STM32L4xx_HAL_Driver/Src/stm32l4xx_hal_spi.c ****   CLEAR_BIT(hspi->Instance->CR2, SPI_CR2_LDMATX | SPI_CR2_LDMARX);
 3551              		.loc 1 2188 3
 3552 00be FB68     		ldr	r3, [r7, #12]
 3553 00c0 1B68     		ldr	r3, [r3]
 3554 00c2 5A68     		ldr	r2, [r3, #4]
 3555 00c4 FB68     		ldr	r3, [r7, #12]
 3556 00c6 1B68     		ldr	r3, [r3]
 3557 00c8 22F4C042 		bic	r2, r2, #24576
 3558 00cc 5A60     		str	r2, [r3, #4]
2189:Drivers/STM32L4xx_HAL_Driver/Src/stm32l4xx_hal_spi.c **** 
2190:Drivers/STM32L4xx_HAL_Driver/Src/stm32l4xx_hal_spi.c ****   /* The packing mode management is enabled by the DMA settings according the spi data size */
2191:Drivers/STM32L4xx_HAL_Driver/Src/stm32l4xx_hal_spi.c ****   if (hspi->Init.DataSize > SPI_DATASIZE_8BIT)
 3559              		.loc 1 2191 17
 3560 00ce FB68     		ldr	r3, [r7, #12]
 3561 00d0 DB68     		ldr	r3, [r3, #12]
 3562              		.loc 1 2191 6
 3563 00d2 B3F5E06F 		cmp	r3, #1792
 3564 00d6 08D9     		bls	.L189
2192:Drivers/STM32L4xx_HAL_Driver/Src/stm32l4xx_hal_spi.c ****   {
2193:Drivers/STM32L4xx_HAL_Driver/Src/stm32l4xx_hal_spi.c ****     /* Set fiforxthreshold according the reception data length: 16bit */
2194:Drivers/STM32L4xx_HAL_Driver/Src/stm32l4xx_hal_spi.c ****     CLEAR_BIT(hspi->Instance->CR2, SPI_RXFIFO_THRESHOLD);
 3565              		.loc 1 2194 5
 3566 00d8 FB68     		ldr	r3, [r7, #12]
 3567 00da 1B68     		ldr	r3, [r3]
 3568 00dc 5A68     		ldr	r2, [r3, #4]
ARM GAS  C:\Users\Morroway\AppData\Local\Temp\ccCQJjHM.s 			page 102


 3569 00de FB68     		ldr	r3, [r7, #12]
 3570 00e0 1B68     		ldr	r3, [r3]
 3571 00e2 22F48052 		bic	r2, r2, #4096
 3572 00e6 5A60     		str	r2, [r3, #4]
 3573 00e8 6FE0     		b	.L190
 3574              	.L189:
2195:Drivers/STM32L4xx_HAL_Driver/Src/stm32l4xx_hal_spi.c ****   }
2196:Drivers/STM32L4xx_HAL_Driver/Src/stm32l4xx_hal_spi.c ****   else
2197:Drivers/STM32L4xx_HAL_Driver/Src/stm32l4xx_hal_spi.c ****   {
2198:Drivers/STM32L4xx_HAL_Driver/Src/stm32l4xx_hal_spi.c ****     /* Set RX Fifo threshold according the reception data length: 8bit */
2199:Drivers/STM32L4xx_HAL_Driver/Src/stm32l4xx_hal_spi.c ****     SET_BIT(hspi->Instance->CR2, SPI_RXFIFO_THRESHOLD);
 3575              		.loc 1 2199 5
 3576 00ea FB68     		ldr	r3, [r7, #12]
 3577 00ec 1B68     		ldr	r3, [r3]
 3578 00ee 5A68     		ldr	r2, [r3, #4]
 3579 00f0 FB68     		ldr	r3, [r7, #12]
 3580 00f2 1B68     		ldr	r3, [r3]
 3581 00f4 42F48052 		orr	r2, r2, #4096
 3582 00f8 5A60     		str	r2, [r3, #4]
2200:Drivers/STM32L4xx_HAL_Driver/Src/stm32l4xx_hal_spi.c **** 
2201:Drivers/STM32L4xx_HAL_Driver/Src/stm32l4xx_hal_spi.c ****     if (hspi->hdmatx->Init.MemDataAlignment == DMA_MDATAALIGN_HALFWORD)
 3583              		.loc 1 2201 13
 3584 00fa FB68     		ldr	r3, [r7, #12]
 3585 00fc 5B6D     		ldr	r3, [r3, #84]
 3586              		.loc 1 2201 27
 3587 00fe 9B69     		ldr	r3, [r3, #24]
 3588              		.loc 1 2201 8
 3589 0100 B3F5806F 		cmp	r3, #1024
 3590 0104 26D1     		bne	.L191
2202:Drivers/STM32L4xx_HAL_Driver/Src/stm32l4xx_hal_spi.c ****     {
2203:Drivers/STM32L4xx_HAL_Driver/Src/stm32l4xx_hal_spi.c ****       if ((hspi->TxXferSize & 0x1U) == 0x0U)
 3591              		.loc 1 2203 16
 3592 0106 FB68     		ldr	r3, [r7, #12]
 3593 0108 9B8F     		ldrh	r3, [r3, #60]
 3594              		.loc 1 2203 29
 3595 010a 03F00103 		and	r3, r3, #1
 3596              		.loc 1 2203 10
 3597 010e 002B     		cmp	r3, #0
 3598 0110 0FD1     		bne	.L192
2204:Drivers/STM32L4xx_HAL_Driver/Src/stm32l4xx_hal_spi.c ****       {
2205:Drivers/STM32L4xx_HAL_Driver/Src/stm32l4xx_hal_spi.c ****         CLEAR_BIT(hspi->Instance->CR2, SPI_CR2_LDMATX);
 3599              		.loc 1 2205 9
 3600 0112 FB68     		ldr	r3, [r7, #12]
 3601 0114 1B68     		ldr	r3, [r3]
 3602 0116 5A68     		ldr	r2, [r3, #4]
 3603 0118 FB68     		ldr	r3, [r7, #12]
 3604 011a 1B68     		ldr	r3, [r3]
 3605 011c 22F48042 		bic	r2, r2, #16384
 3606 0120 5A60     		str	r2, [r3, #4]
2206:Drivers/STM32L4xx_HAL_Driver/Src/stm32l4xx_hal_spi.c ****         hspi->TxXferCount = hspi->TxXferCount >> 1U;
 3607              		.loc 1 2206 33
 3608 0122 FB68     		ldr	r3, [r7, #12]
 3609 0124 DB8F     		ldrh	r3, [r3, #62]	@ movhi
 3610 0126 9BB2     		uxth	r3, r3
 3611              		.loc 1 2206 27
 3612 0128 5B08     		lsrs	r3, r3, #1
 3613 012a 9AB2     		uxth	r2, r3
ARM GAS  C:\Users\Morroway\AppData\Local\Temp\ccCQJjHM.s 			page 103


 3614 012c FB68     		ldr	r3, [r7, #12]
 3615 012e DA87     		strh	r2, [r3, #62]	@ movhi
 3616 0130 10E0     		b	.L191
 3617              	.L192:
2207:Drivers/STM32L4xx_HAL_Driver/Src/stm32l4xx_hal_spi.c ****       }
2208:Drivers/STM32L4xx_HAL_Driver/Src/stm32l4xx_hal_spi.c ****       else
2209:Drivers/STM32L4xx_HAL_Driver/Src/stm32l4xx_hal_spi.c ****       {
2210:Drivers/STM32L4xx_HAL_Driver/Src/stm32l4xx_hal_spi.c ****         SET_BIT(hspi->Instance->CR2, SPI_CR2_LDMATX);
 3618              		.loc 1 2210 9
 3619 0132 FB68     		ldr	r3, [r7, #12]
 3620 0134 1B68     		ldr	r3, [r3]
 3621 0136 5A68     		ldr	r2, [r3, #4]
 3622 0138 FB68     		ldr	r3, [r7, #12]
 3623 013a 1B68     		ldr	r3, [r3]
 3624 013c 42F48042 		orr	r2, r2, #16384
 3625 0140 5A60     		str	r2, [r3, #4]
2211:Drivers/STM32L4xx_HAL_Driver/Src/stm32l4xx_hal_spi.c ****         hspi->TxXferCount = (hspi->TxXferCount >> 1U) + 1U;
 3626              		.loc 1 2211 34
 3627 0142 FB68     		ldr	r3, [r7, #12]
 3628 0144 DB8F     		ldrh	r3, [r3, #62]	@ movhi
 3629 0146 9BB2     		uxth	r3, r3
 3630              		.loc 1 2211 55
 3631 0148 5B08     		lsrs	r3, r3, #1
 3632 014a 9BB2     		uxth	r3, r3
 3633 014c 0133     		adds	r3, r3, #1
 3634 014e 9AB2     		uxth	r2, r3
 3635              		.loc 1 2211 27
 3636 0150 FB68     		ldr	r3, [r7, #12]
 3637 0152 DA87     		strh	r2, [r3, #62]	@ movhi
 3638              	.L191:
2212:Drivers/STM32L4xx_HAL_Driver/Src/stm32l4xx_hal_spi.c ****       }
2213:Drivers/STM32L4xx_HAL_Driver/Src/stm32l4xx_hal_spi.c ****     }
2214:Drivers/STM32L4xx_HAL_Driver/Src/stm32l4xx_hal_spi.c **** 
2215:Drivers/STM32L4xx_HAL_Driver/Src/stm32l4xx_hal_spi.c ****     if (hspi->hdmarx->Init.MemDataAlignment == DMA_MDATAALIGN_HALFWORD)
 3639              		.loc 1 2215 13
 3640 0154 FB68     		ldr	r3, [r7, #12]
 3641 0156 9B6D     		ldr	r3, [r3, #88]
 3642              		.loc 1 2215 27
 3643 0158 9B69     		ldr	r3, [r3, #24]
 3644              		.loc 1 2215 8
 3645 015a B3F5806F 		cmp	r3, #1024
 3646 015e 34D1     		bne	.L190
2216:Drivers/STM32L4xx_HAL_Driver/Src/stm32l4xx_hal_spi.c ****     {
2217:Drivers/STM32L4xx_HAL_Driver/Src/stm32l4xx_hal_spi.c ****       /* Set RX Fifo threshold according the reception data length: 16bit */
2218:Drivers/STM32L4xx_HAL_Driver/Src/stm32l4xx_hal_spi.c ****       CLEAR_BIT(hspi->Instance->CR2, SPI_RXFIFO_THRESHOLD);
 3647              		.loc 1 2218 7
 3648 0160 FB68     		ldr	r3, [r7, #12]
 3649 0162 1B68     		ldr	r3, [r3]
 3650 0164 5A68     		ldr	r2, [r3, #4]
 3651 0166 FB68     		ldr	r3, [r7, #12]
 3652 0168 1B68     		ldr	r3, [r3]
 3653 016a 22F48052 		bic	r2, r2, #4096
 3654 016e 5A60     		str	r2, [r3, #4]
2219:Drivers/STM32L4xx_HAL_Driver/Src/stm32l4xx_hal_spi.c **** 
2220:Drivers/STM32L4xx_HAL_Driver/Src/stm32l4xx_hal_spi.c ****       if ((hspi->RxXferCount & 0x1U) == 0x0U)
 3655              		.loc 1 2220 16
 3656 0170 FB68     		ldr	r3, [r7, #12]
ARM GAS  C:\Users\Morroway\AppData\Local\Temp\ccCQJjHM.s 			page 104


 3657 0172 B3F84630 		ldrh	r3, [r3, #70]	@ movhi
 3658 0176 9BB2     		uxth	r3, r3
 3659              		.loc 1 2220 30
 3660 0178 03F00103 		and	r3, r3, #1
 3661              		.loc 1 2220 10
 3662 017c 002B     		cmp	r3, #0
 3663 017e 11D1     		bne	.L193
2221:Drivers/STM32L4xx_HAL_Driver/Src/stm32l4xx_hal_spi.c ****       {
2222:Drivers/STM32L4xx_HAL_Driver/Src/stm32l4xx_hal_spi.c ****         CLEAR_BIT(hspi->Instance->CR2, SPI_CR2_LDMARX);
 3664              		.loc 1 2222 9
 3665 0180 FB68     		ldr	r3, [r7, #12]
 3666 0182 1B68     		ldr	r3, [r3]
 3667 0184 5A68     		ldr	r2, [r3, #4]
 3668 0186 FB68     		ldr	r3, [r7, #12]
 3669 0188 1B68     		ldr	r3, [r3]
 3670 018a 22F40052 		bic	r2, r2, #8192
 3671 018e 5A60     		str	r2, [r3, #4]
2223:Drivers/STM32L4xx_HAL_Driver/Src/stm32l4xx_hal_spi.c ****         hspi->RxXferCount = hspi->RxXferCount >> 1U;
 3672              		.loc 1 2223 33
 3673 0190 FB68     		ldr	r3, [r7, #12]
 3674 0192 B3F84630 		ldrh	r3, [r3, #70]	@ movhi
 3675 0196 9BB2     		uxth	r3, r3
 3676              		.loc 1 2223 27
 3677 0198 5B08     		lsrs	r3, r3, #1
 3678 019a 9AB2     		uxth	r2, r3
 3679 019c FB68     		ldr	r3, [r7, #12]
 3680 019e A3F84620 		strh	r2, [r3, #70]	@ movhi
 3681 01a2 12E0     		b	.L190
 3682              	.L193:
2224:Drivers/STM32L4xx_HAL_Driver/Src/stm32l4xx_hal_spi.c ****       }
2225:Drivers/STM32L4xx_HAL_Driver/Src/stm32l4xx_hal_spi.c ****       else
2226:Drivers/STM32L4xx_HAL_Driver/Src/stm32l4xx_hal_spi.c ****       {
2227:Drivers/STM32L4xx_HAL_Driver/Src/stm32l4xx_hal_spi.c ****         SET_BIT(hspi->Instance->CR2, SPI_CR2_LDMARX);
 3683              		.loc 1 2227 9
 3684 01a4 FB68     		ldr	r3, [r7, #12]
 3685 01a6 1B68     		ldr	r3, [r3]
 3686 01a8 5A68     		ldr	r2, [r3, #4]
 3687 01aa FB68     		ldr	r3, [r7, #12]
 3688 01ac 1B68     		ldr	r3, [r3]
 3689 01ae 42F40052 		orr	r2, r2, #8192
 3690 01b2 5A60     		str	r2, [r3, #4]
2228:Drivers/STM32L4xx_HAL_Driver/Src/stm32l4xx_hal_spi.c ****         hspi->RxXferCount = (hspi->RxXferCount >> 1U) + 1U;
 3691              		.loc 1 2228 34
 3692 01b4 FB68     		ldr	r3, [r7, #12]
 3693 01b6 B3F84630 		ldrh	r3, [r3, #70]	@ movhi
 3694 01ba 9BB2     		uxth	r3, r3
 3695              		.loc 1 2228 55
 3696 01bc 5B08     		lsrs	r3, r3, #1
 3697 01be 9BB2     		uxth	r3, r3
 3698 01c0 0133     		adds	r3, r3, #1
 3699 01c2 9AB2     		uxth	r2, r3
 3700              		.loc 1 2228 27
 3701 01c4 FB68     		ldr	r3, [r7, #12]
 3702 01c6 A3F84620 		strh	r2, [r3, #70]	@ movhi
 3703              	.L190:
2229:Drivers/STM32L4xx_HAL_Driver/Src/stm32l4xx_hal_spi.c ****       }
2230:Drivers/STM32L4xx_HAL_Driver/Src/stm32l4xx_hal_spi.c ****     }
ARM GAS  C:\Users\Morroway\AppData\Local\Temp\ccCQJjHM.s 			page 105


2231:Drivers/STM32L4xx_HAL_Driver/Src/stm32l4xx_hal_spi.c ****   }
2232:Drivers/STM32L4xx_HAL_Driver/Src/stm32l4xx_hal_spi.c **** 
2233:Drivers/STM32L4xx_HAL_Driver/Src/stm32l4xx_hal_spi.c ****   /* Check if we are in Rx only or in Rx/Tx Mode and configure the DMA transfer complete callback *
2234:Drivers/STM32L4xx_HAL_Driver/Src/stm32l4xx_hal_spi.c ****   if (hspi->State == HAL_SPI_STATE_BUSY_RX)
 3704              		.loc 1 2234 11
 3705 01ca FB68     		ldr	r3, [r7, #12]
 3706 01cc 93F85D30 		ldrb	r3, [r3, #93]
 3707 01d0 DBB2     		uxtb	r3, r3
 3708              		.loc 1 2234 6
 3709 01d2 042B     		cmp	r3, #4
 3710 01d4 08D1     		bne	.L194
2235:Drivers/STM32L4xx_HAL_Driver/Src/stm32l4xx_hal_spi.c ****   {
2236:Drivers/STM32L4xx_HAL_Driver/Src/stm32l4xx_hal_spi.c ****     /* Set the SPI Rx DMA Half transfer complete callback */
2237:Drivers/STM32L4xx_HAL_Driver/Src/stm32l4xx_hal_spi.c ****     hspi->hdmarx->XferHalfCpltCallback = SPI_DMAHalfReceiveCplt;
 3711              		.loc 1 2237 9
 3712 01d6 FB68     		ldr	r3, [r7, #12]
 3713 01d8 9B6D     		ldr	r3, [r3, #88]
 3714              		.loc 1 2237 40
 3715 01da 4A4A     		ldr	r2, .L199
 3716 01dc 1A63     		str	r2, [r3, #48]
2238:Drivers/STM32L4xx_HAL_Driver/Src/stm32l4xx_hal_spi.c ****     hspi->hdmarx->XferCpltCallback     = SPI_DMAReceiveCplt;
 3717              		.loc 1 2238 9
 3718 01de FB68     		ldr	r3, [r7, #12]
 3719 01e0 9B6D     		ldr	r3, [r3, #88]
 3720              		.loc 1 2238 40
 3721 01e2 494A     		ldr	r2, .L199+4
 3722 01e4 DA62     		str	r2, [r3, #44]
 3723 01e6 07E0     		b	.L195
 3724              	.L194:
2239:Drivers/STM32L4xx_HAL_Driver/Src/stm32l4xx_hal_spi.c ****   }
2240:Drivers/STM32L4xx_HAL_Driver/Src/stm32l4xx_hal_spi.c ****   else
2241:Drivers/STM32L4xx_HAL_Driver/Src/stm32l4xx_hal_spi.c ****   {
2242:Drivers/STM32L4xx_HAL_Driver/Src/stm32l4xx_hal_spi.c ****     /* Set the SPI Tx/Rx DMA Half transfer complete callback */
2243:Drivers/STM32L4xx_HAL_Driver/Src/stm32l4xx_hal_spi.c ****     hspi->hdmarx->XferHalfCpltCallback = SPI_DMAHalfTransmitReceiveCplt;
 3725              		.loc 1 2243 9
 3726 01e8 FB68     		ldr	r3, [r7, #12]
 3727 01ea 9B6D     		ldr	r3, [r3, #88]
 3728              		.loc 1 2243 40
 3729 01ec 474A     		ldr	r2, .L199+8
 3730 01ee 1A63     		str	r2, [r3, #48]
2244:Drivers/STM32L4xx_HAL_Driver/Src/stm32l4xx_hal_spi.c ****     hspi->hdmarx->XferCpltCallback     = SPI_DMATransmitReceiveCplt;
 3731              		.loc 1 2244 9
 3732 01f0 FB68     		ldr	r3, [r7, #12]
 3733 01f2 9B6D     		ldr	r3, [r3, #88]
 3734              		.loc 1 2244 40
 3735 01f4 464A     		ldr	r2, .L199+12
 3736 01f6 DA62     		str	r2, [r3, #44]
 3737              	.L195:
2245:Drivers/STM32L4xx_HAL_Driver/Src/stm32l4xx_hal_spi.c ****   }
2246:Drivers/STM32L4xx_HAL_Driver/Src/stm32l4xx_hal_spi.c **** 
2247:Drivers/STM32L4xx_HAL_Driver/Src/stm32l4xx_hal_spi.c ****   /* Set the DMA error callback */
2248:Drivers/STM32L4xx_HAL_Driver/Src/stm32l4xx_hal_spi.c ****   hspi->hdmarx->XferErrorCallback = SPI_DMAError;
 3738              		.loc 1 2248 7
 3739 01f8 FB68     		ldr	r3, [r7, #12]
 3740 01fa 9B6D     		ldr	r3, [r3, #88]
 3741              		.loc 1 2248 35
 3742 01fc 454A     		ldr	r2, .L199+16
ARM GAS  C:\Users\Morroway\AppData\Local\Temp\ccCQJjHM.s 			page 106


 3743 01fe 5A63     		str	r2, [r3, #52]
2249:Drivers/STM32L4xx_HAL_Driver/Src/stm32l4xx_hal_spi.c **** 
2250:Drivers/STM32L4xx_HAL_Driver/Src/stm32l4xx_hal_spi.c ****   /* Set the DMA AbortCpltCallback */
2251:Drivers/STM32L4xx_HAL_Driver/Src/stm32l4xx_hal_spi.c ****   hspi->hdmarx->XferAbortCallback = NULL;
 3744              		.loc 1 2251 7
 3745 0200 FB68     		ldr	r3, [r7, #12]
 3746 0202 9B6D     		ldr	r3, [r3, #88]
 3747              		.loc 1 2251 35
 3748 0204 0022     		movs	r2, #0
 3749 0206 9A63     		str	r2, [r3, #56]
2252:Drivers/STM32L4xx_HAL_Driver/Src/stm32l4xx_hal_spi.c **** 
2253:Drivers/STM32L4xx_HAL_Driver/Src/stm32l4xx_hal_spi.c ****   /* Enable the Rx DMA Stream/Channel  */
2254:Drivers/STM32L4xx_HAL_Driver/Src/stm32l4xx_hal_spi.c ****   if (HAL_OK != HAL_DMA_Start_IT(hspi->hdmarx, (uint32_t)&hspi->Instance->DR, (uint32_t)hspi->pRxBu
 3750              		.loc 1 2254 17
 3751 0208 FB68     		ldr	r3, [r7, #12]
 3752 020a 986D     		ldr	r0, [r3, #88]
 3753              		.loc 1 2254 63
 3754 020c FB68     		ldr	r3, [r7, #12]
 3755 020e 1B68     		ldr	r3, [r3]
 3756              		.loc 1 2254 58
 3757 0210 0C33     		adds	r3, r3, #12
 3758              		.loc 1 2254 17
 3759 0212 1946     		mov	r1, r3
 3760              		.loc 1 2254 93
 3761 0214 FB68     		ldr	r3, [r7, #12]
 3762 0216 1B6C     		ldr	r3, [r3, #64]
 3763              		.loc 1 2254 17
 3764 0218 1A46     		mov	r2, r3
2255:Drivers/STM32L4xx_HAL_Driver/Src/stm32l4xx_hal_spi.c ****                                  hspi->RxXferCount))
 3765              		.loc 1 2255 38
 3766 021a FB68     		ldr	r3, [r7, #12]
 3767 021c B3F84630 		ldrh	r3, [r3, #70]	@ movhi
 3768 0220 9BB2     		uxth	r3, r3
2254:Drivers/STM32L4xx_HAL_Driver/Src/stm32l4xx_hal_spi.c ****                                  hspi->RxXferCount))
 3769              		.loc 1 2254 17
 3770 0222 FFF7FEFF 		bl	HAL_DMA_Start_IT
 3771 0226 0346     		mov	r3, r0
2254:Drivers/STM32L4xx_HAL_Driver/Src/stm32l4xx_hal_spi.c ****                                  hspi->RxXferCount))
 3772              		.loc 1 2254 6
 3773 0228 002B     		cmp	r3, #0
 3774 022a 0CD0     		beq	.L196
2256:Drivers/STM32L4xx_HAL_Driver/Src/stm32l4xx_hal_spi.c ****   {
2257:Drivers/STM32L4xx_HAL_Driver/Src/stm32l4xx_hal_spi.c ****     /* Update SPI error code */
2258:Drivers/STM32L4xx_HAL_Driver/Src/stm32l4xx_hal_spi.c ****     SET_BIT(hspi->ErrorCode, HAL_SPI_ERROR_DMA);
 3775              		.loc 1 2258 5
 3776 022c FB68     		ldr	r3, [r7, #12]
 3777 022e 1B6E     		ldr	r3, [r3, #96]
 3778 0230 43F01002 		orr	r2, r3, #16
 3779 0234 FB68     		ldr	r3, [r7, #12]
 3780 0236 1A66     		str	r2, [r3, #96]
2259:Drivers/STM32L4xx_HAL_Driver/Src/stm32l4xx_hal_spi.c ****     errorcode = HAL_ERROR;
 3781              		.loc 1 2259 15
 3782 0238 0123     		movs	r3, #1
 3783 023a FB75     		strb	r3, [r7, #23]
2260:Drivers/STM32L4xx_HAL_Driver/Src/stm32l4xx_hal_spi.c **** 
2261:Drivers/STM32L4xx_HAL_Driver/Src/stm32l4xx_hal_spi.c ****     hspi->State = HAL_SPI_STATE_READY;
 3784              		.loc 1 2261 17
ARM GAS  C:\Users\Morroway\AppData\Local\Temp\ccCQJjHM.s 			page 107


 3785 023c FB68     		ldr	r3, [r7, #12]
 3786 023e 0122     		movs	r2, #1
 3787 0240 83F85D20 		strb	r2, [r3, #93]
2262:Drivers/STM32L4xx_HAL_Driver/Src/stm32l4xx_hal_spi.c ****     goto error;
 3788              		.loc 1 2262 5
 3789 0244 54E0     		b	.L185
 3790              	.L196:
2263:Drivers/STM32L4xx_HAL_Driver/Src/stm32l4xx_hal_spi.c ****   }
2264:Drivers/STM32L4xx_HAL_Driver/Src/stm32l4xx_hal_spi.c **** 
2265:Drivers/STM32L4xx_HAL_Driver/Src/stm32l4xx_hal_spi.c ****   /* Enable Rx DMA Request */
2266:Drivers/STM32L4xx_HAL_Driver/Src/stm32l4xx_hal_spi.c ****   SET_BIT(hspi->Instance->CR2, SPI_CR2_RXDMAEN);
 3791              		.loc 1 2266 3
 3792 0246 FB68     		ldr	r3, [r7, #12]
 3793 0248 1B68     		ldr	r3, [r3]
 3794 024a 5A68     		ldr	r2, [r3, #4]
 3795 024c FB68     		ldr	r3, [r7, #12]
 3796 024e 1B68     		ldr	r3, [r3]
 3797 0250 42F00102 		orr	r2, r2, #1
 3798 0254 5A60     		str	r2, [r3, #4]
2267:Drivers/STM32L4xx_HAL_Driver/Src/stm32l4xx_hal_spi.c **** 
2268:Drivers/STM32L4xx_HAL_Driver/Src/stm32l4xx_hal_spi.c ****   /* Set the SPI Tx DMA transfer complete callback as NULL because the communication closing
2269:Drivers/STM32L4xx_HAL_Driver/Src/stm32l4xx_hal_spi.c ****   is performed in DMA reception complete callback  */
2270:Drivers/STM32L4xx_HAL_Driver/Src/stm32l4xx_hal_spi.c ****   hspi->hdmatx->XferHalfCpltCallback = NULL;
 3799              		.loc 1 2270 7
 3800 0256 FB68     		ldr	r3, [r7, #12]
 3801 0258 5B6D     		ldr	r3, [r3, #84]
 3802              		.loc 1 2270 38
 3803 025a 0022     		movs	r2, #0
 3804 025c 1A63     		str	r2, [r3, #48]
2271:Drivers/STM32L4xx_HAL_Driver/Src/stm32l4xx_hal_spi.c ****   hspi->hdmatx->XferCpltCallback     = NULL;
 3805              		.loc 1 2271 7
 3806 025e FB68     		ldr	r3, [r7, #12]
 3807 0260 5B6D     		ldr	r3, [r3, #84]
 3808              		.loc 1 2271 38
 3809 0262 0022     		movs	r2, #0
 3810 0264 DA62     		str	r2, [r3, #44]
2272:Drivers/STM32L4xx_HAL_Driver/Src/stm32l4xx_hal_spi.c ****   hspi->hdmatx->XferErrorCallback    = NULL;
 3811              		.loc 1 2272 7
 3812 0266 FB68     		ldr	r3, [r7, #12]
 3813 0268 5B6D     		ldr	r3, [r3, #84]
 3814              		.loc 1 2272 38
 3815 026a 0022     		movs	r2, #0
 3816 026c 5A63     		str	r2, [r3, #52]
2273:Drivers/STM32L4xx_HAL_Driver/Src/stm32l4xx_hal_spi.c ****   hspi->hdmatx->XferAbortCallback    = NULL;
 3817              		.loc 1 2273 7
 3818 026e FB68     		ldr	r3, [r7, #12]
 3819 0270 5B6D     		ldr	r3, [r3, #84]
 3820              		.loc 1 2273 38
 3821 0272 0022     		movs	r2, #0
 3822 0274 9A63     		str	r2, [r3, #56]
2274:Drivers/STM32L4xx_HAL_Driver/Src/stm32l4xx_hal_spi.c **** 
2275:Drivers/STM32L4xx_HAL_Driver/Src/stm32l4xx_hal_spi.c ****   /* Enable the Tx DMA Stream/Channel  */
2276:Drivers/STM32L4xx_HAL_Driver/Src/stm32l4xx_hal_spi.c ****   if (HAL_OK != HAL_DMA_Start_IT(hspi->hdmatx, (uint32_t)hspi->pTxBuffPtr, (uint32_t)&hspi->Instanc
 3823              		.loc 1 2276 17
 3824 0276 FB68     		ldr	r3, [r7, #12]
 3825 0278 586D     		ldr	r0, [r3, #84]
 3826              		.loc 1 2276 62
ARM GAS  C:\Users\Morroway\AppData\Local\Temp\ccCQJjHM.s 			page 108


 3827 027a FB68     		ldr	r3, [r7, #12]
 3828 027c 9B6B     		ldr	r3, [r3, #56]
 3829              		.loc 1 2276 17
 3830 027e 1946     		mov	r1, r3
 3831              		.loc 1 2276 91
 3832 0280 FB68     		ldr	r3, [r7, #12]
 3833 0282 1B68     		ldr	r3, [r3]
 3834              		.loc 1 2276 86
 3835 0284 0C33     		adds	r3, r3, #12
 3836              		.loc 1 2276 17
 3837 0286 1A46     		mov	r2, r3
2277:Drivers/STM32L4xx_HAL_Driver/Src/stm32l4xx_hal_spi.c ****                                  hspi->TxXferCount))
 3838              		.loc 1 2277 38
 3839 0288 FB68     		ldr	r3, [r7, #12]
 3840 028a DB8F     		ldrh	r3, [r3, #62]	@ movhi
 3841 028c 9BB2     		uxth	r3, r3
2276:Drivers/STM32L4xx_HAL_Driver/Src/stm32l4xx_hal_spi.c ****                                  hspi->TxXferCount))
 3842              		.loc 1 2276 17
 3843 028e FFF7FEFF 		bl	HAL_DMA_Start_IT
 3844 0292 0346     		mov	r3, r0
2276:Drivers/STM32L4xx_HAL_Driver/Src/stm32l4xx_hal_spi.c ****                                  hspi->TxXferCount))
 3845              		.loc 1 2276 6
 3846 0294 002B     		cmp	r3, #0
 3847 0296 0CD0     		beq	.L197
2278:Drivers/STM32L4xx_HAL_Driver/Src/stm32l4xx_hal_spi.c ****   {
2279:Drivers/STM32L4xx_HAL_Driver/Src/stm32l4xx_hal_spi.c ****     /* Update SPI error code */
2280:Drivers/STM32L4xx_HAL_Driver/Src/stm32l4xx_hal_spi.c ****     SET_BIT(hspi->ErrorCode, HAL_SPI_ERROR_DMA);
 3848              		.loc 1 2280 5
 3849 0298 FB68     		ldr	r3, [r7, #12]
 3850 029a 1B6E     		ldr	r3, [r3, #96]
 3851 029c 43F01002 		orr	r2, r3, #16
 3852 02a0 FB68     		ldr	r3, [r7, #12]
 3853 02a2 1A66     		str	r2, [r3, #96]
2281:Drivers/STM32L4xx_HAL_Driver/Src/stm32l4xx_hal_spi.c ****     errorcode = HAL_ERROR;
 3854              		.loc 1 2281 15
 3855 02a4 0123     		movs	r3, #1
 3856 02a6 FB75     		strb	r3, [r7, #23]
2282:Drivers/STM32L4xx_HAL_Driver/Src/stm32l4xx_hal_spi.c **** 
2283:Drivers/STM32L4xx_HAL_Driver/Src/stm32l4xx_hal_spi.c ****     hspi->State = HAL_SPI_STATE_READY;
 3857              		.loc 1 2283 17
 3858 02a8 FB68     		ldr	r3, [r7, #12]
 3859 02aa 0122     		movs	r2, #1
 3860 02ac 83F85D20 		strb	r2, [r3, #93]
2284:Drivers/STM32L4xx_HAL_Driver/Src/stm32l4xx_hal_spi.c ****     goto error;
 3861              		.loc 1 2284 5
 3862 02b0 1EE0     		b	.L185
 3863              	.L197:
2285:Drivers/STM32L4xx_HAL_Driver/Src/stm32l4xx_hal_spi.c ****   }
2286:Drivers/STM32L4xx_HAL_Driver/Src/stm32l4xx_hal_spi.c **** 
2287:Drivers/STM32L4xx_HAL_Driver/Src/stm32l4xx_hal_spi.c ****   /* Check if the SPI is already enabled */
2288:Drivers/STM32L4xx_HAL_Driver/Src/stm32l4xx_hal_spi.c ****   if ((hspi->Instance->CR1 & SPI_CR1_SPE) != SPI_CR1_SPE)
 3864              		.loc 1 2288 12
 3865 02b2 FB68     		ldr	r3, [r7, #12]
 3866 02b4 1B68     		ldr	r3, [r3]
 3867              		.loc 1 2288 22
 3868 02b6 1B68     		ldr	r3, [r3]
 3869              		.loc 1 2288 28
ARM GAS  C:\Users\Morroway\AppData\Local\Temp\ccCQJjHM.s 			page 109


 3870 02b8 03F04003 		and	r3, r3, #64
 3871              		.loc 1 2288 6
 3872 02bc 402B     		cmp	r3, #64
 3873 02be 07D0     		beq	.L198
2289:Drivers/STM32L4xx_HAL_Driver/Src/stm32l4xx_hal_spi.c ****   {
2290:Drivers/STM32L4xx_HAL_Driver/Src/stm32l4xx_hal_spi.c ****     /* Enable SPI peripheral */
2291:Drivers/STM32L4xx_HAL_Driver/Src/stm32l4xx_hal_spi.c ****     __HAL_SPI_ENABLE(hspi);
 3874              		.loc 1 2291 5
 3875 02c0 FB68     		ldr	r3, [r7, #12]
 3876 02c2 1B68     		ldr	r3, [r3]
 3877 02c4 1A68     		ldr	r2, [r3]
 3878 02c6 FB68     		ldr	r3, [r7, #12]
 3879 02c8 1B68     		ldr	r3, [r3]
 3880 02ca 42F04002 		orr	r2, r2, #64
 3881 02ce 1A60     		str	r2, [r3]
 3882              	.L198:
2292:Drivers/STM32L4xx_HAL_Driver/Src/stm32l4xx_hal_spi.c ****   }
2293:Drivers/STM32L4xx_HAL_Driver/Src/stm32l4xx_hal_spi.c ****   /* Enable the SPI Error Interrupt Bit */
2294:Drivers/STM32L4xx_HAL_Driver/Src/stm32l4xx_hal_spi.c ****   __HAL_SPI_ENABLE_IT(hspi, (SPI_IT_ERR));
 3883              		.loc 1 2294 3
 3884 02d0 FB68     		ldr	r3, [r7, #12]
 3885 02d2 1B68     		ldr	r3, [r3]
 3886 02d4 5A68     		ldr	r2, [r3, #4]
 3887 02d6 FB68     		ldr	r3, [r7, #12]
 3888 02d8 1B68     		ldr	r3, [r3]
 3889 02da 42F02002 		orr	r2, r2, #32
 3890 02de 5A60     		str	r2, [r3, #4]
2295:Drivers/STM32L4xx_HAL_Driver/Src/stm32l4xx_hal_spi.c **** 
2296:Drivers/STM32L4xx_HAL_Driver/Src/stm32l4xx_hal_spi.c ****   /* Enable Tx DMA Request */
2297:Drivers/STM32L4xx_HAL_Driver/Src/stm32l4xx_hal_spi.c ****   SET_BIT(hspi->Instance->CR2, SPI_CR2_TXDMAEN);
 3891              		.loc 1 2297 3
 3892 02e0 FB68     		ldr	r3, [r7, #12]
 3893 02e2 1B68     		ldr	r3, [r3]
 3894 02e4 5A68     		ldr	r2, [r3, #4]
 3895 02e6 FB68     		ldr	r3, [r7, #12]
 3896 02e8 1B68     		ldr	r3, [r3]
 3897 02ea 42F00202 		orr	r2, r2, #2
 3898 02ee 5A60     		str	r2, [r3, #4]
 3899              	.L185:
2298:Drivers/STM32L4xx_HAL_Driver/Src/stm32l4xx_hal_spi.c **** 
2299:Drivers/STM32L4xx_HAL_Driver/Src/stm32l4xx_hal_spi.c **** error :
2300:Drivers/STM32L4xx_HAL_Driver/Src/stm32l4xx_hal_spi.c ****   /* Process Unlocked */
2301:Drivers/STM32L4xx_HAL_Driver/Src/stm32l4xx_hal_spi.c ****   __HAL_UNLOCK(hspi);
 3900              		.loc 1 2301 3
 3901 02f0 FB68     		ldr	r3, [r7, #12]
 3902 02f2 0022     		movs	r2, #0
 3903 02f4 83F85C20 		strb	r2, [r3, #92]
2302:Drivers/STM32L4xx_HAL_Driver/Src/stm32l4xx_hal_spi.c ****   return errorcode;
 3904              		.loc 1 2302 10
 3905 02f8 FB7D     		ldrb	r3, [r7, #23]	@ zero_extendqisi2
 3906              	.L182:
2303:Drivers/STM32L4xx_HAL_Driver/Src/stm32l4xx_hal_spi.c **** }
 3907              		.loc 1 2303 1
 3908 02fa 1846     		mov	r0, r3
 3909 02fc 1837     		adds	r7, r7, #24
 3910              		.cfi_def_cfa_offset 8
 3911 02fe BD46     		mov	sp, r7
ARM GAS  C:\Users\Morroway\AppData\Local\Temp\ccCQJjHM.s 			page 110


 3912              		.cfi_def_cfa_register 13
 3913              		@ sp needed
 3914 0300 80BD     		pop	{r7, pc}
 3915              	.L200:
 3916 0302 00BF     		.align	2
 3917              	.L199:
 3918 0304 00000000 		.word	SPI_DMAHalfReceiveCplt
 3919 0308 00000000 		.word	SPI_DMAReceiveCplt
 3920 030c 00000000 		.word	SPI_DMAHalfTransmitReceiveCplt
 3921 0310 00000000 		.word	SPI_DMATransmitReceiveCplt
 3922 0314 00000000 		.word	SPI_DMAError
 3923              		.cfi_endproc
 3924              	.LFE333:
 3926              		.section	.text.HAL_SPI_Abort,"ax",%progbits
 3927              		.align	1
 3928              		.global	HAL_SPI_Abort
 3929              		.syntax unified
 3930              		.thumb
 3931              		.thumb_func
 3933              	HAL_SPI_Abort:
 3934              	.LFB334:
2304:Drivers/STM32L4xx_HAL_Driver/Src/stm32l4xx_hal_spi.c **** 
2305:Drivers/STM32L4xx_HAL_Driver/Src/stm32l4xx_hal_spi.c **** /**
2306:Drivers/STM32L4xx_HAL_Driver/Src/stm32l4xx_hal_spi.c ****   * @brief  Abort ongoing transfer (blocking mode).
2307:Drivers/STM32L4xx_HAL_Driver/Src/stm32l4xx_hal_spi.c ****   * @param  hspi SPI handle.
2308:Drivers/STM32L4xx_HAL_Driver/Src/stm32l4xx_hal_spi.c ****   * @note   This procedure could be used for aborting any ongoing transfer (Tx and Rx),
2309:Drivers/STM32L4xx_HAL_Driver/Src/stm32l4xx_hal_spi.c ****   *         started in Interrupt or DMA mode.
2310:Drivers/STM32L4xx_HAL_Driver/Src/stm32l4xx_hal_spi.c ****   *         This procedure performs following operations :
2311:Drivers/STM32L4xx_HAL_Driver/Src/stm32l4xx_hal_spi.c ****   *           - Disable SPI Interrupts (depending of transfer direction)
2312:Drivers/STM32L4xx_HAL_Driver/Src/stm32l4xx_hal_spi.c ****   *           - Disable the DMA transfer in the peripheral register (if enabled)
2313:Drivers/STM32L4xx_HAL_Driver/Src/stm32l4xx_hal_spi.c ****   *           - Abort DMA transfer by calling HAL_DMA_Abort (in case of transfer in DMA mode)
2314:Drivers/STM32L4xx_HAL_Driver/Src/stm32l4xx_hal_spi.c ****   *           - Set handle State to READY
2315:Drivers/STM32L4xx_HAL_Driver/Src/stm32l4xx_hal_spi.c ****   * @note   This procedure is executed in blocking mode : when exiting function, Abort is considere
2316:Drivers/STM32L4xx_HAL_Driver/Src/stm32l4xx_hal_spi.c ****   * @retval HAL status
2317:Drivers/STM32L4xx_HAL_Driver/Src/stm32l4xx_hal_spi.c ****   */
2318:Drivers/STM32L4xx_HAL_Driver/Src/stm32l4xx_hal_spi.c **** HAL_StatusTypeDef HAL_SPI_Abort(SPI_HandleTypeDef *hspi)
2319:Drivers/STM32L4xx_HAL_Driver/Src/stm32l4xx_hal_spi.c **** {
 3935              		.loc 1 2319 1
 3936              		.cfi_startproc
 3937              		@ args = 0, pretend = 0, frame = 32
 3938              		@ frame_needed = 1, uses_anonymous_args = 0
 3939 0000 80B5     		push	{r7, lr}
 3940              		.cfi_def_cfa_offset 8
 3941              		.cfi_offset 7, -8
 3942              		.cfi_offset 14, -4
 3943 0002 8AB0     		sub	sp, sp, #40
 3944              		.cfi_def_cfa_offset 48
 3945 0004 02AF     		add	r7, sp, #8
 3946              		.cfi_def_cfa 7, 40
 3947 0006 7860     		str	r0, [r7, #4]
2320:Drivers/STM32L4xx_HAL_Driver/Src/stm32l4xx_hal_spi.c ****   HAL_StatusTypeDef errorcode;
2321:Drivers/STM32L4xx_HAL_Driver/Src/stm32l4xx_hal_spi.c ****   __IO uint32_t count;
2322:Drivers/STM32L4xx_HAL_Driver/Src/stm32l4xx_hal_spi.c ****   __IO uint32_t resetcount;
2323:Drivers/STM32L4xx_HAL_Driver/Src/stm32l4xx_hal_spi.c **** 
2324:Drivers/STM32L4xx_HAL_Driver/Src/stm32l4xx_hal_spi.c ****   /* Initialized local variable  */
2325:Drivers/STM32L4xx_HAL_Driver/Src/stm32l4xx_hal_spi.c ****   errorcode = HAL_OK;
 3948              		.loc 1 2325 13
ARM GAS  C:\Users\Morroway\AppData\Local\Temp\ccCQJjHM.s 			page 111


 3949 0008 0023     		movs	r3, #0
 3950 000a FB77     		strb	r3, [r7, #31]
2326:Drivers/STM32L4xx_HAL_Driver/Src/stm32l4xx_hal_spi.c ****   resetcount = SPI_DEFAULT_TIMEOUT * (SystemCoreClock / 24U / 1000U);
 3951              		.loc 1 2326 61
 3952 000c 884B     		ldr	r3, .L220
 3953 000e 1B68     		ldr	r3, [r3]
 3954 0010 884A     		ldr	r2, .L220+4
 3955 0012 A2FB0323 		umull	r2, r3, r2, r3
 3956 0016 5B0A     		lsrs	r3, r3, #9
 3957              		.loc 1 2326 36
 3958 0018 6422     		movs	r2, #100
 3959 001a 02FB03F3 		mul	r3, r2, r3
 3960              		.loc 1 2326 14
 3961 001e 7B61     		str	r3, [r7, #20]
2327:Drivers/STM32L4xx_HAL_Driver/Src/stm32l4xx_hal_spi.c ****   count = resetcount;
 3962              		.loc 1 2327 9
 3963 0020 7B69     		ldr	r3, [r7, #20]
 3964 0022 BB61     		str	r3, [r7, #24]
2328:Drivers/STM32L4xx_HAL_Driver/Src/stm32l4xx_hal_spi.c **** 
2329:Drivers/STM32L4xx_HAL_Driver/Src/stm32l4xx_hal_spi.c ****   /* Clear ERRIE interrupt to avoid error interrupts generation during Abort procedure */
2330:Drivers/STM32L4xx_HAL_Driver/Src/stm32l4xx_hal_spi.c ****   CLEAR_BIT(hspi->Instance->CR2, SPI_CR2_ERRIE);
 3965              		.loc 1 2330 3
 3966 0024 7B68     		ldr	r3, [r7, #4]
 3967 0026 1B68     		ldr	r3, [r3]
 3968 0028 5A68     		ldr	r2, [r3, #4]
 3969 002a 7B68     		ldr	r3, [r7, #4]
 3970 002c 1B68     		ldr	r3, [r3]
 3971 002e 22F02002 		bic	r2, r2, #32
 3972 0032 5A60     		str	r2, [r3, #4]
2331:Drivers/STM32L4xx_HAL_Driver/Src/stm32l4xx_hal_spi.c **** 
2332:Drivers/STM32L4xx_HAL_Driver/Src/stm32l4xx_hal_spi.c ****   /* Disable TXEIE, RXNEIE and ERRIE(mode fault event, overrun error, TI frame error) interrupts */
2333:Drivers/STM32L4xx_HAL_Driver/Src/stm32l4xx_hal_spi.c ****   if (HAL_IS_BIT_SET(hspi->Instance->CR2, SPI_CR2_TXEIE))
 3973              		.loc 1 2333 7
 3974 0034 7B68     		ldr	r3, [r7, #4]
 3975 0036 1B68     		ldr	r3, [r3]
 3976 0038 5B68     		ldr	r3, [r3, #4]
 3977 003a 03F08003 		and	r3, r3, #128
 3978              		.loc 1 2333 6
 3979 003e 802B     		cmp	r3, #128
 3980 0040 17D1     		bne	.L202
2334:Drivers/STM32L4xx_HAL_Driver/Src/stm32l4xx_hal_spi.c ****   {
2335:Drivers/STM32L4xx_HAL_Driver/Src/stm32l4xx_hal_spi.c ****     hspi->TxISR = SPI_AbortTx_ISR;
 3981              		.loc 1 2335 17
 3982 0042 7B68     		ldr	r3, [r7, #4]
 3983 0044 7C4A     		ldr	r2, .L220+8
 3984 0046 1A65     		str	r2, [r3, #80]
 3985              	.L205:
2336:Drivers/STM32L4xx_HAL_Driver/Src/stm32l4xx_hal_spi.c ****     /* Wait HAL_SPI_STATE_ABORT state */
2337:Drivers/STM32L4xx_HAL_Driver/Src/stm32l4xx_hal_spi.c ****     do
2338:Drivers/STM32L4xx_HAL_Driver/Src/stm32l4xx_hal_spi.c ****     {
2339:Drivers/STM32L4xx_HAL_Driver/Src/stm32l4xx_hal_spi.c ****       if (count == 0U)
 3986              		.loc 1 2339 17
 3987 0048 BB69     		ldr	r3, [r7, #24]
 3988              		.loc 1 2339 10
 3989 004a 002B     		cmp	r3, #0
 3990 004c 06D1     		bne	.L203
2340:Drivers/STM32L4xx_HAL_Driver/Src/stm32l4xx_hal_spi.c ****       {
ARM GAS  C:\Users\Morroway\AppData\Local\Temp\ccCQJjHM.s 			page 112


2341:Drivers/STM32L4xx_HAL_Driver/Src/stm32l4xx_hal_spi.c ****         SET_BIT(hspi->ErrorCode, HAL_SPI_ERROR_ABORT);
 3991              		.loc 1 2341 9
 3992 004e 7B68     		ldr	r3, [r7, #4]
 3993 0050 1B6E     		ldr	r3, [r3, #96]
 3994 0052 43F04002 		orr	r2, r3, #64
 3995 0056 7B68     		ldr	r3, [r7, #4]
 3996 0058 1A66     		str	r2, [r3, #96]
2342:Drivers/STM32L4xx_HAL_Driver/Src/stm32l4xx_hal_spi.c ****         break;
 3997              		.loc 1 2342 9
 3998 005a 08E0     		b	.L204
 3999              	.L203:
2343:Drivers/STM32L4xx_HAL_Driver/Src/stm32l4xx_hal_spi.c ****       }
2344:Drivers/STM32L4xx_HAL_Driver/Src/stm32l4xx_hal_spi.c ****       count--;
 4000              		.loc 1 2344 12
 4001 005c BB69     		ldr	r3, [r7, #24]
 4002 005e 013B     		subs	r3, r3, #1
 4003 0060 BB61     		str	r3, [r7, #24]
2345:Drivers/STM32L4xx_HAL_Driver/Src/stm32l4xx_hal_spi.c ****     } while (hspi->State != HAL_SPI_STATE_ABORT);
 4004              		.loc 1 2345 18
 4005 0062 7B68     		ldr	r3, [r7, #4]
 4006 0064 93F85D30 		ldrb	r3, [r3, #93]
 4007 0068 DBB2     		uxtb	r3, r3
 4008              		.loc 1 2345 26
 4009 006a 072B     		cmp	r3, #7
 4010 006c ECD1     		bne	.L205
 4011              	.L204:
2346:Drivers/STM32L4xx_HAL_Driver/Src/stm32l4xx_hal_spi.c ****     /* Reset Timeout Counter */
2347:Drivers/STM32L4xx_HAL_Driver/Src/stm32l4xx_hal_spi.c ****     count = resetcount;
 4012              		.loc 1 2347 11
 4013 006e 7B69     		ldr	r3, [r7, #20]
 4014 0070 BB61     		str	r3, [r7, #24]
 4015              	.L202:
2348:Drivers/STM32L4xx_HAL_Driver/Src/stm32l4xx_hal_spi.c ****   }
2349:Drivers/STM32L4xx_HAL_Driver/Src/stm32l4xx_hal_spi.c **** 
2350:Drivers/STM32L4xx_HAL_Driver/Src/stm32l4xx_hal_spi.c ****   if (HAL_IS_BIT_SET(hspi->Instance->CR2, SPI_CR2_RXNEIE))
 4016              		.loc 1 2350 7
 4017 0072 7B68     		ldr	r3, [r7, #4]
 4018 0074 1B68     		ldr	r3, [r3]
 4019 0076 5B68     		ldr	r3, [r3, #4]
 4020 0078 03F04003 		and	r3, r3, #64
 4021              		.loc 1 2350 6
 4022 007c 402B     		cmp	r3, #64
 4023 007e 17D1     		bne	.L206
2351:Drivers/STM32L4xx_HAL_Driver/Src/stm32l4xx_hal_spi.c ****   {
2352:Drivers/STM32L4xx_HAL_Driver/Src/stm32l4xx_hal_spi.c ****     hspi->RxISR = SPI_AbortRx_ISR;
 4024              		.loc 1 2352 17
 4025 0080 7B68     		ldr	r3, [r7, #4]
 4026 0082 6E4A     		ldr	r2, .L220+12
 4027 0084 DA64     		str	r2, [r3, #76]
 4028              	.L209:
2353:Drivers/STM32L4xx_HAL_Driver/Src/stm32l4xx_hal_spi.c ****     /* Wait HAL_SPI_STATE_ABORT state */
2354:Drivers/STM32L4xx_HAL_Driver/Src/stm32l4xx_hal_spi.c ****     do
2355:Drivers/STM32L4xx_HAL_Driver/Src/stm32l4xx_hal_spi.c ****     {
2356:Drivers/STM32L4xx_HAL_Driver/Src/stm32l4xx_hal_spi.c ****       if (count == 0U)
 4029              		.loc 1 2356 17
 4030 0086 BB69     		ldr	r3, [r7, #24]
 4031              		.loc 1 2356 10
ARM GAS  C:\Users\Morroway\AppData\Local\Temp\ccCQJjHM.s 			page 113


 4032 0088 002B     		cmp	r3, #0
 4033 008a 06D1     		bne	.L207
2357:Drivers/STM32L4xx_HAL_Driver/Src/stm32l4xx_hal_spi.c ****       {
2358:Drivers/STM32L4xx_HAL_Driver/Src/stm32l4xx_hal_spi.c ****         SET_BIT(hspi->ErrorCode, HAL_SPI_ERROR_ABORT);
 4034              		.loc 1 2358 9
 4035 008c 7B68     		ldr	r3, [r7, #4]
 4036 008e 1B6E     		ldr	r3, [r3, #96]
 4037 0090 43F04002 		orr	r2, r3, #64
 4038 0094 7B68     		ldr	r3, [r7, #4]
 4039 0096 1A66     		str	r2, [r3, #96]
2359:Drivers/STM32L4xx_HAL_Driver/Src/stm32l4xx_hal_spi.c ****         break;
 4040              		.loc 1 2359 9
 4041 0098 08E0     		b	.L208
 4042              	.L207:
2360:Drivers/STM32L4xx_HAL_Driver/Src/stm32l4xx_hal_spi.c ****       }
2361:Drivers/STM32L4xx_HAL_Driver/Src/stm32l4xx_hal_spi.c ****       count--;
 4043              		.loc 1 2361 12
 4044 009a BB69     		ldr	r3, [r7, #24]
 4045 009c 013B     		subs	r3, r3, #1
 4046 009e BB61     		str	r3, [r7, #24]
2362:Drivers/STM32L4xx_HAL_Driver/Src/stm32l4xx_hal_spi.c ****     } while (hspi->State != HAL_SPI_STATE_ABORT);
 4047              		.loc 1 2362 18
 4048 00a0 7B68     		ldr	r3, [r7, #4]
 4049 00a2 93F85D30 		ldrb	r3, [r3, #93]
 4050 00a6 DBB2     		uxtb	r3, r3
 4051              		.loc 1 2362 26
 4052 00a8 072B     		cmp	r3, #7
 4053 00aa ECD1     		bne	.L209
 4054              	.L208:
2363:Drivers/STM32L4xx_HAL_Driver/Src/stm32l4xx_hal_spi.c ****     /* Reset Timeout Counter */
2364:Drivers/STM32L4xx_HAL_Driver/Src/stm32l4xx_hal_spi.c ****     count = resetcount;
 4055              		.loc 1 2364 11
 4056 00ac 7B69     		ldr	r3, [r7, #20]
 4057 00ae BB61     		str	r3, [r7, #24]
 4058              	.L206:
2365:Drivers/STM32L4xx_HAL_Driver/Src/stm32l4xx_hal_spi.c ****   }
2366:Drivers/STM32L4xx_HAL_Driver/Src/stm32l4xx_hal_spi.c **** 
2367:Drivers/STM32L4xx_HAL_Driver/Src/stm32l4xx_hal_spi.c ****   /* Disable the SPI DMA Tx request if enabled */
2368:Drivers/STM32L4xx_HAL_Driver/Src/stm32l4xx_hal_spi.c ****   if (HAL_IS_BIT_SET(hspi->Instance->CR2, SPI_CR2_TXDMAEN))
 4059              		.loc 1 2368 7
 4060 00b0 7B68     		ldr	r3, [r7, #4]
 4061 00b2 1B68     		ldr	r3, [r3]
 4062 00b4 5B68     		ldr	r3, [r3, #4]
 4063 00b6 03F00203 		and	r3, r3, #2
 4064              		.loc 1 2368 6
 4065 00ba 022B     		cmp	r3, #2
 4066 00bc 41D1     		bne	.L210
2369:Drivers/STM32L4xx_HAL_Driver/Src/stm32l4xx_hal_spi.c ****   {
2370:Drivers/STM32L4xx_HAL_Driver/Src/stm32l4xx_hal_spi.c ****     /* Abort the SPI DMA Tx Stream/Channel : use blocking DMA Abort API (no callback) */
2371:Drivers/STM32L4xx_HAL_Driver/Src/stm32l4xx_hal_spi.c ****     if (hspi->hdmatx != NULL)
 4067              		.loc 1 2371 13
 4068 00be 7B68     		ldr	r3, [r7, #4]
 4069 00c0 5B6D     		ldr	r3, [r3, #84]
 4070              		.loc 1 2371 8
 4071 00c2 002B     		cmp	r3, #0
 4072 00c4 3DD0     		beq	.L210
2372:Drivers/STM32L4xx_HAL_Driver/Src/stm32l4xx_hal_spi.c ****     {
ARM GAS  C:\Users\Morroway\AppData\Local\Temp\ccCQJjHM.s 			page 114


2373:Drivers/STM32L4xx_HAL_Driver/Src/stm32l4xx_hal_spi.c ****       /* Set the SPI DMA Abort callback :
2374:Drivers/STM32L4xx_HAL_Driver/Src/stm32l4xx_hal_spi.c ****       will lead to call HAL_SPI_AbortCpltCallback() at end of DMA abort procedure */
2375:Drivers/STM32L4xx_HAL_Driver/Src/stm32l4xx_hal_spi.c ****       hspi->hdmatx->XferAbortCallback = NULL;
 4073              		.loc 1 2375 11
 4074 00c6 7B68     		ldr	r3, [r7, #4]
 4075 00c8 5B6D     		ldr	r3, [r3, #84]
 4076              		.loc 1 2375 39
 4077 00ca 0022     		movs	r2, #0
 4078 00cc 9A63     		str	r2, [r3, #56]
2376:Drivers/STM32L4xx_HAL_Driver/Src/stm32l4xx_hal_spi.c **** 
2377:Drivers/STM32L4xx_HAL_Driver/Src/stm32l4xx_hal_spi.c ****       /* Abort DMA Tx Handle linked to SPI Peripheral */
2378:Drivers/STM32L4xx_HAL_Driver/Src/stm32l4xx_hal_spi.c ****       if (HAL_DMA_Abort(hspi->hdmatx) != HAL_OK)
 4079              		.loc 1 2378 11
 4080 00ce 7B68     		ldr	r3, [r7, #4]
 4081 00d0 5B6D     		ldr	r3, [r3, #84]
 4082 00d2 1846     		mov	r0, r3
 4083 00d4 FFF7FEFF 		bl	HAL_DMA_Abort
 4084 00d8 0346     		mov	r3, r0
 4085              		.loc 1 2378 10
 4086 00da 002B     		cmp	r3, #0
 4087 00dc 02D0     		beq	.L211
2379:Drivers/STM32L4xx_HAL_Driver/Src/stm32l4xx_hal_spi.c ****       {
2380:Drivers/STM32L4xx_HAL_Driver/Src/stm32l4xx_hal_spi.c ****         hspi->ErrorCode = HAL_SPI_ERROR_ABORT;
 4088              		.loc 1 2380 25
 4089 00de 7B68     		ldr	r3, [r7, #4]
 4090 00e0 4022     		movs	r2, #64
 4091 00e2 1A66     		str	r2, [r3, #96]
 4092              	.L211:
2381:Drivers/STM32L4xx_HAL_Driver/Src/stm32l4xx_hal_spi.c ****       }
2382:Drivers/STM32L4xx_HAL_Driver/Src/stm32l4xx_hal_spi.c **** 
2383:Drivers/STM32L4xx_HAL_Driver/Src/stm32l4xx_hal_spi.c ****       /* Disable Tx DMA Request */
2384:Drivers/STM32L4xx_HAL_Driver/Src/stm32l4xx_hal_spi.c ****       CLEAR_BIT(hspi->Instance->CR2, (SPI_CR2_TXDMAEN));
 4093              		.loc 1 2384 7
 4094 00e4 7B68     		ldr	r3, [r7, #4]
 4095 00e6 1B68     		ldr	r3, [r3]
 4096 00e8 5A68     		ldr	r2, [r3, #4]
 4097 00ea 7B68     		ldr	r3, [r7, #4]
 4098 00ec 1B68     		ldr	r3, [r3]
 4099 00ee 22F00202 		bic	r2, r2, #2
 4100 00f2 5A60     		str	r2, [r3, #4]
2385:Drivers/STM32L4xx_HAL_Driver/Src/stm32l4xx_hal_spi.c **** 
2386:Drivers/STM32L4xx_HAL_Driver/Src/stm32l4xx_hal_spi.c ****       if (SPI_EndRxTxTransaction(hspi, SPI_DEFAULT_TIMEOUT, HAL_GetTick()) != HAL_OK)
 4101              		.loc 1 2386 11
 4102 00f4 FFF7FEFF 		bl	HAL_GetTick
 4103 00f8 0346     		mov	r3, r0
 4104 00fa 1A46     		mov	r2, r3
 4105 00fc 6421     		movs	r1, #100
 4106 00fe 7868     		ldr	r0, [r7, #4]
 4107 0100 FFF7FEFF 		bl	SPI_EndRxTxTransaction
 4108 0104 0346     		mov	r3, r0
 4109              		.loc 1 2386 10
 4110 0106 002B     		cmp	r3, #0
 4111 0108 02D0     		beq	.L212
2387:Drivers/STM32L4xx_HAL_Driver/Src/stm32l4xx_hal_spi.c ****       {
2388:Drivers/STM32L4xx_HAL_Driver/Src/stm32l4xx_hal_spi.c ****         hspi->ErrorCode = HAL_SPI_ERROR_ABORT;
 4112              		.loc 1 2388 25
 4113 010a 7B68     		ldr	r3, [r7, #4]
ARM GAS  C:\Users\Morroway\AppData\Local\Temp\ccCQJjHM.s 			page 115


 4114 010c 4022     		movs	r2, #64
 4115 010e 1A66     		str	r2, [r3, #96]
 4116              	.L212:
2389:Drivers/STM32L4xx_HAL_Driver/Src/stm32l4xx_hal_spi.c ****       }
2390:Drivers/STM32L4xx_HAL_Driver/Src/stm32l4xx_hal_spi.c **** 
2391:Drivers/STM32L4xx_HAL_Driver/Src/stm32l4xx_hal_spi.c ****       /* Disable SPI Peripheral */
2392:Drivers/STM32L4xx_HAL_Driver/Src/stm32l4xx_hal_spi.c ****       __HAL_SPI_DISABLE(hspi);
 4117              		.loc 1 2392 7
 4118 0110 7B68     		ldr	r3, [r7, #4]
 4119 0112 1B68     		ldr	r3, [r3]
 4120 0114 1A68     		ldr	r2, [r3]
 4121 0116 7B68     		ldr	r3, [r7, #4]
 4122 0118 1B68     		ldr	r3, [r3]
 4123 011a 22F04002 		bic	r2, r2, #64
 4124 011e 1A60     		str	r2, [r3]
2393:Drivers/STM32L4xx_HAL_Driver/Src/stm32l4xx_hal_spi.c **** 
2394:Drivers/STM32L4xx_HAL_Driver/Src/stm32l4xx_hal_spi.c ****       /* Empty the FRLVL fifo */
2395:Drivers/STM32L4xx_HAL_Driver/Src/stm32l4xx_hal_spi.c ****       if (SPI_WaitFifoStateUntilTimeout(hspi, SPI_FLAG_FRLVL, SPI_FRLVL_EMPTY, SPI_DEFAULT_TIMEOUT,
 4125              		.loc 1 2395 11
 4126 0120 FFF7FEFF 		bl	HAL_GetTick
 4127 0124 0346     		mov	r3, r0
 4128 0126 0093     		str	r3, [sp]
 4129 0128 6423     		movs	r3, #100
 4130 012a 0022     		movs	r2, #0
 4131 012c 4FF4C061 		mov	r1, #1536
 4132 0130 7868     		ldr	r0, [r7, #4]
 4133 0132 FFF7FEFF 		bl	SPI_WaitFifoStateUntilTimeout
 4134 0136 0346     		mov	r3, r0
 4135              		.loc 1 2395 10
 4136 0138 002B     		cmp	r3, #0
 4137 013a 02D0     		beq	.L210
2396:Drivers/STM32L4xx_HAL_Driver/Src/stm32l4xx_hal_spi.c ****       {
2397:Drivers/STM32L4xx_HAL_Driver/Src/stm32l4xx_hal_spi.c ****         hspi->ErrorCode = HAL_SPI_ERROR_ABORT;
 4138              		.loc 1 2397 25
 4139 013c 7B68     		ldr	r3, [r7, #4]
 4140 013e 4022     		movs	r2, #64
 4141 0140 1A66     		str	r2, [r3, #96]
 4142              	.L210:
2398:Drivers/STM32L4xx_HAL_Driver/Src/stm32l4xx_hal_spi.c ****       }
2399:Drivers/STM32L4xx_HAL_Driver/Src/stm32l4xx_hal_spi.c ****     }
2400:Drivers/STM32L4xx_HAL_Driver/Src/stm32l4xx_hal_spi.c ****   }
2401:Drivers/STM32L4xx_HAL_Driver/Src/stm32l4xx_hal_spi.c **** 
2402:Drivers/STM32L4xx_HAL_Driver/Src/stm32l4xx_hal_spi.c ****   /* Disable the SPI DMA Rx request if enabled */
2403:Drivers/STM32L4xx_HAL_Driver/Src/stm32l4xx_hal_spi.c ****   if (HAL_IS_BIT_SET(hspi->Instance->CR2, SPI_CR2_RXDMAEN))
 4143              		.loc 1 2403 7
 4144 0142 7B68     		ldr	r3, [r7, #4]
 4145 0144 1B68     		ldr	r3, [r3]
 4146 0146 5B68     		ldr	r3, [r3, #4]
 4147 0148 03F00103 		and	r3, r3, #1
 4148              		.loc 1 2403 6
 4149 014c 012B     		cmp	r3, #1
 4150 014e 43D1     		bne	.L213
2404:Drivers/STM32L4xx_HAL_Driver/Src/stm32l4xx_hal_spi.c ****   {
2405:Drivers/STM32L4xx_HAL_Driver/Src/stm32l4xx_hal_spi.c ****     /* Abort the SPI DMA Rx Stream/Channel : use blocking DMA Abort API (no callback) */
2406:Drivers/STM32L4xx_HAL_Driver/Src/stm32l4xx_hal_spi.c ****     if (hspi->hdmarx != NULL)
 4151              		.loc 1 2406 13
 4152 0150 7B68     		ldr	r3, [r7, #4]
ARM GAS  C:\Users\Morroway\AppData\Local\Temp\ccCQJjHM.s 			page 116


 4153 0152 9B6D     		ldr	r3, [r3, #88]
 4154              		.loc 1 2406 8
 4155 0154 002B     		cmp	r3, #0
 4156 0156 3FD0     		beq	.L213
2407:Drivers/STM32L4xx_HAL_Driver/Src/stm32l4xx_hal_spi.c ****     {
2408:Drivers/STM32L4xx_HAL_Driver/Src/stm32l4xx_hal_spi.c ****       /* Set the SPI DMA Abort callback :
2409:Drivers/STM32L4xx_HAL_Driver/Src/stm32l4xx_hal_spi.c ****       will lead to call HAL_SPI_AbortCpltCallback() at end of DMA abort procedure */
2410:Drivers/STM32L4xx_HAL_Driver/Src/stm32l4xx_hal_spi.c ****       hspi->hdmarx->XferAbortCallback = NULL;
 4157              		.loc 1 2410 11
 4158 0158 7B68     		ldr	r3, [r7, #4]
 4159 015a 9B6D     		ldr	r3, [r3, #88]
 4160              		.loc 1 2410 39
 4161 015c 0022     		movs	r2, #0
 4162 015e 9A63     		str	r2, [r3, #56]
2411:Drivers/STM32L4xx_HAL_Driver/Src/stm32l4xx_hal_spi.c **** 
2412:Drivers/STM32L4xx_HAL_Driver/Src/stm32l4xx_hal_spi.c ****       /* Abort DMA Rx Handle linked to SPI Peripheral */
2413:Drivers/STM32L4xx_HAL_Driver/Src/stm32l4xx_hal_spi.c ****       if (HAL_DMA_Abort(hspi->hdmarx) != HAL_OK)
 4163              		.loc 1 2413 11
 4164 0160 7B68     		ldr	r3, [r7, #4]
 4165 0162 9B6D     		ldr	r3, [r3, #88]
 4166 0164 1846     		mov	r0, r3
 4167 0166 FFF7FEFF 		bl	HAL_DMA_Abort
 4168 016a 0346     		mov	r3, r0
 4169              		.loc 1 2413 10
 4170 016c 002B     		cmp	r3, #0
 4171 016e 02D0     		beq	.L214
2414:Drivers/STM32L4xx_HAL_Driver/Src/stm32l4xx_hal_spi.c ****       {
2415:Drivers/STM32L4xx_HAL_Driver/Src/stm32l4xx_hal_spi.c ****         hspi->ErrorCode = HAL_SPI_ERROR_ABORT;
 4172              		.loc 1 2415 25
 4173 0170 7B68     		ldr	r3, [r7, #4]
 4174 0172 4022     		movs	r2, #64
 4175 0174 1A66     		str	r2, [r3, #96]
 4176              	.L214:
2416:Drivers/STM32L4xx_HAL_Driver/Src/stm32l4xx_hal_spi.c ****       }
2417:Drivers/STM32L4xx_HAL_Driver/Src/stm32l4xx_hal_spi.c **** 
2418:Drivers/STM32L4xx_HAL_Driver/Src/stm32l4xx_hal_spi.c ****       /* Disable peripheral */
2419:Drivers/STM32L4xx_HAL_Driver/Src/stm32l4xx_hal_spi.c ****       __HAL_SPI_DISABLE(hspi);
 4177              		.loc 1 2419 7
 4178 0176 7B68     		ldr	r3, [r7, #4]
 4179 0178 1B68     		ldr	r3, [r3]
 4180 017a 1A68     		ldr	r2, [r3]
 4181 017c 7B68     		ldr	r3, [r7, #4]
 4182 017e 1B68     		ldr	r3, [r3]
 4183 0180 22F04002 		bic	r2, r2, #64
 4184 0184 1A60     		str	r2, [r3]
2420:Drivers/STM32L4xx_HAL_Driver/Src/stm32l4xx_hal_spi.c **** 
2421:Drivers/STM32L4xx_HAL_Driver/Src/stm32l4xx_hal_spi.c ****       /* Control the BSY flag */
2422:Drivers/STM32L4xx_HAL_Driver/Src/stm32l4xx_hal_spi.c ****       if (SPI_WaitFlagStateUntilTimeout(hspi, SPI_FLAG_BSY, RESET, SPI_DEFAULT_TIMEOUT, HAL_GetTick
 4185              		.loc 1 2422 11
 4186 0186 FFF7FEFF 		bl	HAL_GetTick
 4187 018a 0346     		mov	r3, r0
 4188 018c 0093     		str	r3, [sp]
 4189 018e 6423     		movs	r3, #100
 4190 0190 0022     		movs	r2, #0
 4191 0192 8021     		movs	r1, #128
 4192 0194 7868     		ldr	r0, [r7, #4]
 4193 0196 FFF7FEFF 		bl	SPI_WaitFlagStateUntilTimeout
ARM GAS  C:\Users\Morroway\AppData\Local\Temp\ccCQJjHM.s 			page 117


 4194 019a 0346     		mov	r3, r0
 4195              		.loc 1 2422 10
 4196 019c 002B     		cmp	r3, #0
 4197 019e 02D0     		beq	.L215
2423:Drivers/STM32L4xx_HAL_Driver/Src/stm32l4xx_hal_spi.c ****       {
2424:Drivers/STM32L4xx_HAL_Driver/Src/stm32l4xx_hal_spi.c ****         hspi->ErrorCode = HAL_SPI_ERROR_ABORT;
 4198              		.loc 1 2424 25
 4199 01a0 7B68     		ldr	r3, [r7, #4]
 4200 01a2 4022     		movs	r2, #64
 4201 01a4 1A66     		str	r2, [r3, #96]
 4202              	.L215:
2425:Drivers/STM32L4xx_HAL_Driver/Src/stm32l4xx_hal_spi.c ****       }
2426:Drivers/STM32L4xx_HAL_Driver/Src/stm32l4xx_hal_spi.c **** 
2427:Drivers/STM32L4xx_HAL_Driver/Src/stm32l4xx_hal_spi.c ****       /* Empty the FRLVL fifo */
2428:Drivers/STM32L4xx_HAL_Driver/Src/stm32l4xx_hal_spi.c ****       if (SPI_WaitFifoStateUntilTimeout(hspi, SPI_FLAG_FRLVL, SPI_FRLVL_EMPTY, SPI_DEFAULT_TIMEOUT,
 4203              		.loc 1 2428 11
 4204 01a6 FFF7FEFF 		bl	HAL_GetTick
 4205 01aa 0346     		mov	r3, r0
 4206 01ac 0093     		str	r3, [sp]
 4207 01ae 6423     		movs	r3, #100
 4208 01b0 0022     		movs	r2, #0
 4209 01b2 4FF4C061 		mov	r1, #1536
 4210 01b6 7868     		ldr	r0, [r7, #4]
 4211 01b8 FFF7FEFF 		bl	SPI_WaitFifoStateUntilTimeout
 4212 01bc 0346     		mov	r3, r0
 4213              		.loc 1 2428 10
 4214 01be 002B     		cmp	r3, #0
 4215 01c0 02D0     		beq	.L216
2429:Drivers/STM32L4xx_HAL_Driver/Src/stm32l4xx_hal_spi.c ****       {
2430:Drivers/STM32L4xx_HAL_Driver/Src/stm32l4xx_hal_spi.c ****         hspi->ErrorCode = HAL_SPI_ERROR_ABORT;
 4216              		.loc 1 2430 25
 4217 01c2 7B68     		ldr	r3, [r7, #4]
 4218 01c4 4022     		movs	r2, #64
 4219 01c6 1A66     		str	r2, [r3, #96]
 4220              	.L216:
2431:Drivers/STM32L4xx_HAL_Driver/Src/stm32l4xx_hal_spi.c ****       }
2432:Drivers/STM32L4xx_HAL_Driver/Src/stm32l4xx_hal_spi.c **** 
2433:Drivers/STM32L4xx_HAL_Driver/Src/stm32l4xx_hal_spi.c ****       /* Disable Rx DMA Request */
2434:Drivers/STM32L4xx_HAL_Driver/Src/stm32l4xx_hal_spi.c ****       CLEAR_BIT(hspi->Instance->CR2, (SPI_CR2_RXDMAEN));
 4221              		.loc 1 2434 7
 4222 01c8 7B68     		ldr	r3, [r7, #4]
 4223 01ca 1B68     		ldr	r3, [r3]
 4224 01cc 5A68     		ldr	r2, [r3, #4]
 4225 01ce 7B68     		ldr	r3, [r7, #4]
 4226 01d0 1B68     		ldr	r3, [r3]
 4227 01d2 22F00102 		bic	r2, r2, #1
 4228 01d6 5A60     		str	r2, [r3, #4]
 4229              	.L213:
2435:Drivers/STM32L4xx_HAL_Driver/Src/stm32l4xx_hal_spi.c ****     }
2436:Drivers/STM32L4xx_HAL_Driver/Src/stm32l4xx_hal_spi.c ****   }
2437:Drivers/STM32L4xx_HAL_Driver/Src/stm32l4xx_hal_spi.c ****   /* Reset Tx and Rx transfer counters */
2438:Drivers/STM32L4xx_HAL_Driver/Src/stm32l4xx_hal_spi.c ****   hspi->RxXferCount = 0U;
 4230              		.loc 1 2438 21
 4231 01d8 7B68     		ldr	r3, [r7, #4]
 4232 01da 0022     		movs	r2, #0
 4233 01dc A3F84620 		strh	r2, [r3, #70]	@ movhi
2439:Drivers/STM32L4xx_HAL_Driver/Src/stm32l4xx_hal_spi.c ****   hspi->TxXferCount = 0U;
ARM GAS  C:\Users\Morroway\AppData\Local\Temp\ccCQJjHM.s 			page 118


 4234              		.loc 1 2439 21
 4235 01e0 7B68     		ldr	r3, [r7, #4]
 4236 01e2 0022     		movs	r2, #0
 4237 01e4 DA87     		strh	r2, [r3, #62]	@ movhi
2440:Drivers/STM32L4xx_HAL_Driver/Src/stm32l4xx_hal_spi.c **** 
2441:Drivers/STM32L4xx_HAL_Driver/Src/stm32l4xx_hal_spi.c ****   /* Check error during Abort procedure */
2442:Drivers/STM32L4xx_HAL_Driver/Src/stm32l4xx_hal_spi.c ****   if (hspi->ErrorCode == HAL_SPI_ERROR_ABORT)
 4238              		.loc 1 2442 11
 4239 01e6 7B68     		ldr	r3, [r7, #4]
 4240 01e8 1B6E     		ldr	r3, [r3, #96]
 4241              		.loc 1 2442 6
 4242 01ea 402B     		cmp	r3, #64
 4243 01ec 02D1     		bne	.L217
2443:Drivers/STM32L4xx_HAL_Driver/Src/stm32l4xx_hal_spi.c ****   {
2444:Drivers/STM32L4xx_HAL_Driver/Src/stm32l4xx_hal_spi.c ****     /* return HAL_Error in case of error during Abort procedure */
2445:Drivers/STM32L4xx_HAL_Driver/Src/stm32l4xx_hal_spi.c ****     errorcode = HAL_ERROR;
 4244              		.loc 1 2445 15
 4245 01ee 0123     		movs	r3, #1
 4246 01f0 FB77     		strb	r3, [r7, #31]
 4247 01f2 02E0     		b	.L218
 4248              	.L217:
2446:Drivers/STM32L4xx_HAL_Driver/Src/stm32l4xx_hal_spi.c ****   }
2447:Drivers/STM32L4xx_HAL_Driver/Src/stm32l4xx_hal_spi.c ****   else
2448:Drivers/STM32L4xx_HAL_Driver/Src/stm32l4xx_hal_spi.c ****   {
2449:Drivers/STM32L4xx_HAL_Driver/Src/stm32l4xx_hal_spi.c ****     /* Reset errorCode */
2450:Drivers/STM32L4xx_HAL_Driver/Src/stm32l4xx_hal_spi.c ****     hspi->ErrorCode = HAL_SPI_ERROR_NONE;
 4249              		.loc 1 2450 21
 4250 01f4 7B68     		ldr	r3, [r7, #4]
 4251 01f6 0022     		movs	r2, #0
 4252 01f8 1A66     		str	r2, [r3, #96]
 4253              	.L218:
 4254              	.LBB3:
2451:Drivers/STM32L4xx_HAL_Driver/Src/stm32l4xx_hal_spi.c ****   }
2452:Drivers/STM32L4xx_HAL_Driver/Src/stm32l4xx_hal_spi.c **** 
2453:Drivers/STM32L4xx_HAL_Driver/Src/stm32l4xx_hal_spi.c ****   /* Clear the Error flags in the SR register */
2454:Drivers/STM32L4xx_HAL_Driver/Src/stm32l4xx_hal_spi.c ****   __HAL_SPI_CLEAR_OVRFLAG(hspi);
 4255              		.loc 1 2454 3
 4256 01fa 0023     		movs	r3, #0
 4257 01fc 3B61     		str	r3, [r7, #16]
 4258 01fe 7B68     		ldr	r3, [r7, #4]
 4259 0200 1B68     		ldr	r3, [r3]
 4260 0202 DB68     		ldr	r3, [r3, #12]
 4261 0204 3B61     		str	r3, [r7, #16]
 4262 0206 7B68     		ldr	r3, [r7, #4]
 4263 0208 1B68     		ldr	r3, [r3]
 4264 020a 9B68     		ldr	r3, [r3, #8]
 4265 020c 3B61     		str	r3, [r7, #16]
 4266 020e 3B69     		ldr	r3, [r7, #16]
 4267              	.LBE3:
 4268              	.LBB4:
2455:Drivers/STM32L4xx_HAL_Driver/Src/stm32l4xx_hal_spi.c ****   __HAL_SPI_CLEAR_FREFLAG(hspi);
 4269              		.loc 1 2455 3
 4270 0210 0023     		movs	r3, #0
 4271 0212 FB60     		str	r3, [r7, #12]
 4272 0214 7B68     		ldr	r3, [r7, #4]
 4273 0216 1B68     		ldr	r3, [r3]
 4274 0218 9B68     		ldr	r3, [r3, #8]
ARM GAS  C:\Users\Morroway\AppData\Local\Temp\ccCQJjHM.s 			page 119


 4275 021a FB60     		str	r3, [r7, #12]
 4276 021c FB68     		ldr	r3, [r7, #12]
 4277              	.LBE4:
2456:Drivers/STM32L4xx_HAL_Driver/Src/stm32l4xx_hal_spi.c **** 
2457:Drivers/STM32L4xx_HAL_Driver/Src/stm32l4xx_hal_spi.c ****   /* Restore hspi->state to ready */
2458:Drivers/STM32L4xx_HAL_Driver/Src/stm32l4xx_hal_spi.c ****   hspi->State = HAL_SPI_STATE_READY;
 4278              		.loc 1 2458 15
 4279 021e 7B68     		ldr	r3, [r7, #4]
 4280 0220 0122     		movs	r2, #1
 4281 0222 83F85D20 		strb	r2, [r3, #93]
2459:Drivers/STM32L4xx_HAL_Driver/Src/stm32l4xx_hal_spi.c **** 
2460:Drivers/STM32L4xx_HAL_Driver/Src/stm32l4xx_hal_spi.c ****   return errorcode;
 4282              		.loc 1 2460 10
 4283 0226 FB7F     		ldrb	r3, [r7, #31]	@ zero_extendqisi2
2461:Drivers/STM32L4xx_HAL_Driver/Src/stm32l4xx_hal_spi.c **** }
 4284              		.loc 1 2461 1
 4285 0228 1846     		mov	r0, r3
 4286 022a 2037     		adds	r7, r7, #32
 4287              		.cfi_def_cfa_offset 8
 4288 022c BD46     		mov	sp, r7
 4289              		.cfi_def_cfa_register 13
 4290              		@ sp needed
 4291 022e 80BD     		pop	{r7, pc}
 4292              	.L221:
 4293              		.align	2
 4294              	.L220:
 4295 0230 00000000 		.word	SystemCoreClock
 4296 0234 F1197605 		.word	91625969
 4297 0238 00000000 		.word	SPI_AbortTx_ISR
 4298 023c 00000000 		.word	SPI_AbortRx_ISR
 4299              		.cfi_endproc
 4300              	.LFE334:
 4302              		.section	.text.HAL_SPI_Abort_IT,"ax",%progbits
 4303              		.align	1
 4304              		.global	HAL_SPI_Abort_IT
 4305              		.syntax unified
 4306              		.thumb
 4307              		.thumb_func
 4309              	HAL_SPI_Abort_IT:
 4310              	.LFB335:
2462:Drivers/STM32L4xx_HAL_Driver/Src/stm32l4xx_hal_spi.c **** 
2463:Drivers/STM32L4xx_HAL_Driver/Src/stm32l4xx_hal_spi.c **** /**
2464:Drivers/STM32L4xx_HAL_Driver/Src/stm32l4xx_hal_spi.c ****   * @brief  Abort ongoing transfer (Interrupt mode).
2465:Drivers/STM32L4xx_HAL_Driver/Src/stm32l4xx_hal_spi.c ****   * @param  hspi SPI handle.
2466:Drivers/STM32L4xx_HAL_Driver/Src/stm32l4xx_hal_spi.c ****   * @note   This procedure could be used for aborting any ongoing transfer (Tx and Rx),
2467:Drivers/STM32L4xx_HAL_Driver/Src/stm32l4xx_hal_spi.c ****   *         started in Interrupt or DMA mode.
2468:Drivers/STM32L4xx_HAL_Driver/Src/stm32l4xx_hal_spi.c ****   *         This procedure performs following operations :
2469:Drivers/STM32L4xx_HAL_Driver/Src/stm32l4xx_hal_spi.c ****   *           - Disable SPI Interrupts (depending of transfer direction)
2470:Drivers/STM32L4xx_HAL_Driver/Src/stm32l4xx_hal_spi.c ****   *           - Disable the DMA transfer in the peripheral register (if enabled)
2471:Drivers/STM32L4xx_HAL_Driver/Src/stm32l4xx_hal_spi.c ****   *           - Abort DMA transfer by calling HAL_DMA_Abort_IT (in case of transfer in DMA mode)
2472:Drivers/STM32L4xx_HAL_Driver/Src/stm32l4xx_hal_spi.c ****   *           - Set handle State to READY
2473:Drivers/STM32L4xx_HAL_Driver/Src/stm32l4xx_hal_spi.c ****   *           - At abort completion, call user abort complete callback
2474:Drivers/STM32L4xx_HAL_Driver/Src/stm32l4xx_hal_spi.c ****   * @note   This procedure is executed in Interrupt mode, meaning that abort procedure could be
2475:Drivers/STM32L4xx_HAL_Driver/Src/stm32l4xx_hal_spi.c ****   *         considered as completed only when user abort complete callback is executed (not when ex
2476:Drivers/STM32L4xx_HAL_Driver/Src/stm32l4xx_hal_spi.c ****   * @retval HAL status
2477:Drivers/STM32L4xx_HAL_Driver/Src/stm32l4xx_hal_spi.c ****   */
2478:Drivers/STM32L4xx_HAL_Driver/Src/stm32l4xx_hal_spi.c **** HAL_StatusTypeDef HAL_SPI_Abort_IT(SPI_HandleTypeDef *hspi)
ARM GAS  C:\Users\Morroway\AppData\Local\Temp\ccCQJjHM.s 			page 120


2479:Drivers/STM32L4xx_HAL_Driver/Src/stm32l4xx_hal_spi.c **** {
 4311              		.loc 1 2479 1
 4312              		.cfi_startproc
 4313              		@ args = 0, pretend = 0, frame = 32
 4314              		@ frame_needed = 1, uses_anonymous_args = 0
 4315 0000 80B5     		push	{r7, lr}
 4316              		.cfi_def_cfa_offset 8
 4317              		.cfi_offset 7, -8
 4318              		.cfi_offset 14, -4
 4319 0002 88B0     		sub	sp, sp, #32
 4320              		.cfi_def_cfa_offset 40
 4321 0004 00AF     		add	r7, sp, #0
 4322              		.cfi_def_cfa_register 7
 4323 0006 7860     		str	r0, [r7, #4]
2480:Drivers/STM32L4xx_HAL_Driver/Src/stm32l4xx_hal_spi.c ****   HAL_StatusTypeDef errorcode;
2481:Drivers/STM32L4xx_HAL_Driver/Src/stm32l4xx_hal_spi.c ****   uint32_t abortcplt ;
2482:Drivers/STM32L4xx_HAL_Driver/Src/stm32l4xx_hal_spi.c ****   __IO uint32_t count;
2483:Drivers/STM32L4xx_HAL_Driver/Src/stm32l4xx_hal_spi.c ****   __IO uint32_t resetcount;
2484:Drivers/STM32L4xx_HAL_Driver/Src/stm32l4xx_hal_spi.c **** 
2485:Drivers/STM32L4xx_HAL_Driver/Src/stm32l4xx_hal_spi.c ****   /* Initialized local variable  */
2486:Drivers/STM32L4xx_HAL_Driver/Src/stm32l4xx_hal_spi.c ****   errorcode = HAL_OK;
 4324              		.loc 1 2486 13
 4325 0008 0023     		movs	r3, #0
 4326 000a FB77     		strb	r3, [r7, #31]
2487:Drivers/STM32L4xx_HAL_Driver/Src/stm32l4xx_hal_spi.c ****   abortcplt = 1U;
 4327              		.loc 1 2487 13
 4328 000c 0123     		movs	r3, #1
 4329 000e BB61     		str	r3, [r7, #24]
2488:Drivers/STM32L4xx_HAL_Driver/Src/stm32l4xx_hal_spi.c ****   resetcount = SPI_DEFAULT_TIMEOUT * (SystemCoreClock / 24U / 1000U);
 4330              		.loc 1 2488 61
 4331 0010 724B     		ldr	r3, .L243
 4332 0012 1B68     		ldr	r3, [r3]
 4333 0014 724A     		ldr	r2, .L243+4
 4334 0016 A2FB0323 		umull	r2, r3, r2, r3
 4335 001a 5B0A     		lsrs	r3, r3, #9
 4336              		.loc 1 2488 36
 4337 001c 6422     		movs	r2, #100
 4338 001e 02FB03F3 		mul	r3, r2, r3
 4339              		.loc 1 2488 14
 4340 0022 3B61     		str	r3, [r7, #16]
2489:Drivers/STM32L4xx_HAL_Driver/Src/stm32l4xx_hal_spi.c ****   count = resetcount;
 4341              		.loc 1 2489 9
 4342 0024 3B69     		ldr	r3, [r7, #16]
 4343 0026 7B61     		str	r3, [r7, #20]
2490:Drivers/STM32L4xx_HAL_Driver/Src/stm32l4xx_hal_spi.c **** 
2491:Drivers/STM32L4xx_HAL_Driver/Src/stm32l4xx_hal_spi.c ****   /* Clear ERRIE interrupt to avoid error interrupts generation during Abort procedure */
2492:Drivers/STM32L4xx_HAL_Driver/Src/stm32l4xx_hal_spi.c ****   CLEAR_BIT(hspi->Instance->CR2, SPI_CR2_ERRIE);
 4344              		.loc 1 2492 3
 4345 0028 7B68     		ldr	r3, [r7, #4]
 4346 002a 1B68     		ldr	r3, [r3]
 4347 002c 5A68     		ldr	r2, [r3, #4]
 4348 002e 7B68     		ldr	r3, [r7, #4]
 4349 0030 1B68     		ldr	r3, [r3]
 4350 0032 22F02002 		bic	r2, r2, #32
 4351 0036 5A60     		str	r2, [r3, #4]
2493:Drivers/STM32L4xx_HAL_Driver/Src/stm32l4xx_hal_spi.c **** 
2494:Drivers/STM32L4xx_HAL_Driver/Src/stm32l4xx_hal_spi.c ****   /* Change Rx and Tx Irq Handler to Disable TXEIE, RXNEIE and ERRIE interrupts */
ARM GAS  C:\Users\Morroway\AppData\Local\Temp\ccCQJjHM.s 			page 121


2495:Drivers/STM32L4xx_HAL_Driver/Src/stm32l4xx_hal_spi.c ****   if (HAL_IS_BIT_SET(hspi->Instance->CR2, SPI_CR2_TXEIE))
 4352              		.loc 1 2495 7
 4353 0038 7B68     		ldr	r3, [r7, #4]
 4354 003a 1B68     		ldr	r3, [r3]
 4355 003c 5B68     		ldr	r3, [r3, #4]
 4356 003e 03F08003 		and	r3, r3, #128
 4357              		.loc 1 2495 6
 4358 0042 802B     		cmp	r3, #128
 4359 0044 17D1     		bne	.L223
2496:Drivers/STM32L4xx_HAL_Driver/Src/stm32l4xx_hal_spi.c ****   {
2497:Drivers/STM32L4xx_HAL_Driver/Src/stm32l4xx_hal_spi.c ****     hspi->TxISR = SPI_AbortTx_ISR;
 4360              		.loc 1 2497 17
 4361 0046 7B68     		ldr	r3, [r7, #4]
 4362 0048 664A     		ldr	r2, .L243+8
 4363 004a 1A65     		str	r2, [r3, #80]
 4364              	.L226:
2498:Drivers/STM32L4xx_HAL_Driver/Src/stm32l4xx_hal_spi.c ****     /* Wait HAL_SPI_STATE_ABORT state */
2499:Drivers/STM32L4xx_HAL_Driver/Src/stm32l4xx_hal_spi.c ****     do
2500:Drivers/STM32L4xx_HAL_Driver/Src/stm32l4xx_hal_spi.c ****     {
2501:Drivers/STM32L4xx_HAL_Driver/Src/stm32l4xx_hal_spi.c ****       if (count == 0U)
 4365              		.loc 1 2501 17
 4366 004c 7B69     		ldr	r3, [r7, #20]
 4367              		.loc 1 2501 10
 4368 004e 002B     		cmp	r3, #0
 4369 0050 06D1     		bne	.L224
2502:Drivers/STM32L4xx_HAL_Driver/Src/stm32l4xx_hal_spi.c ****       {
2503:Drivers/STM32L4xx_HAL_Driver/Src/stm32l4xx_hal_spi.c ****         SET_BIT(hspi->ErrorCode, HAL_SPI_ERROR_ABORT);
 4370              		.loc 1 2503 9
 4371 0052 7B68     		ldr	r3, [r7, #4]
 4372 0054 1B6E     		ldr	r3, [r3, #96]
 4373 0056 43F04002 		orr	r2, r3, #64
 4374 005a 7B68     		ldr	r3, [r7, #4]
 4375 005c 1A66     		str	r2, [r3, #96]
2504:Drivers/STM32L4xx_HAL_Driver/Src/stm32l4xx_hal_spi.c ****         break;
 4376              		.loc 1 2504 9
 4377 005e 08E0     		b	.L225
 4378              	.L224:
2505:Drivers/STM32L4xx_HAL_Driver/Src/stm32l4xx_hal_spi.c ****       }
2506:Drivers/STM32L4xx_HAL_Driver/Src/stm32l4xx_hal_spi.c ****       count--;
 4379              		.loc 1 2506 12
 4380 0060 7B69     		ldr	r3, [r7, #20]
 4381 0062 013B     		subs	r3, r3, #1
 4382 0064 7B61     		str	r3, [r7, #20]
2507:Drivers/STM32L4xx_HAL_Driver/Src/stm32l4xx_hal_spi.c ****     } while (hspi->State != HAL_SPI_STATE_ABORT);
 4383              		.loc 1 2507 18
 4384 0066 7B68     		ldr	r3, [r7, #4]
 4385 0068 93F85D30 		ldrb	r3, [r3, #93]
 4386 006c DBB2     		uxtb	r3, r3
 4387              		.loc 1 2507 26
 4388 006e 072B     		cmp	r3, #7
 4389 0070 ECD1     		bne	.L226
 4390              	.L225:
2508:Drivers/STM32L4xx_HAL_Driver/Src/stm32l4xx_hal_spi.c ****     /* Reset Timeout Counter */
2509:Drivers/STM32L4xx_HAL_Driver/Src/stm32l4xx_hal_spi.c ****     count = resetcount;
 4391              		.loc 1 2509 11
 4392 0072 3B69     		ldr	r3, [r7, #16]
 4393 0074 7B61     		str	r3, [r7, #20]
ARM GAS  C:\Users\Morroway\AppData\Local\Temp\ccCQJjHM.s 			page 122


 4394              	.L223:
2510:Drivers/STM32L4xx_HAL_Driver/Src/stm32l4xx_hal_spi.c ****   }
2511:Drivers/STM32L4xx_HAL_Driver/Src/stm32l4xx_hal_spi.c **** 
2512:Drivers/STM32L4xx_HAL_Driver/Src/stm32l4xx_hal_spi.c ****   if (HAL_IS_BIT_SET(hspi->Instance->CR2, SPI_CR2_RXNEIE))
 4395              		.loc 1 2512 7
 4396 0076 7B68     		ldr	r3, [r7, #4]
 4397 0078 1B68     		ldr	r3, [r3]
 4398 007a 5B68     		ldr	r3, [r3, #4]
 4399 007c 03F04003 		and	r3, r3, #64
 4400              		.loc 1 2512 6
 4401 0080 402B     		cmp	r3, #64
 4402 0082 17D1     		bne	.L227
2513:Drivers/STM32L4xx_HAL_Driver/Src/stm32l4xx_hal_spi.c ****   {
2514:Drivers/STM32L4xx_HAL_Driver/Src/stm32l4xx_hal_spi.c ****     hspi->RxISR = SPI_AbortRx_ISR;
 4403              		.loc 1 2514 17
 4404 0084 7B68     		ldr	r3, [r7, #4]
 4405 0086 584A     		ldr	r2, .L243+12
 4406 0088 DA64     		str	r2, [r3, #76]
 4407              	.L230:
2515:Drivers/STM32L4xx_HAL_Driver/Src/stm32l4xx_hal_spi.c ****     /* Wait HAL_SPI_STATE_ABORT state */
2516:Drivers/STM32L4xx_HAL_Driver/Src/stm32l4xx_hal_spi.c ****     do
2517:Drivers/STM32L4xx_HAL_Driver/Src/stm32l4xx_hal_spi.c ****     {
2518:Drivers/STM32L4xx_HAL_Driver/Src/stm32l4xx_hal_spi.c ****       if (count == 0U)
 4408              		.loc 1 2518 17
 4409 008a 7B69     		ldr	r3, [r7, #20]
 4410              		.loc 1 2518 10
 4411 008c 002B     		cmp	r3, #0
 4412 008e 06D1     		bne	.L228
2519:Drivers/STM32L4xx_HAL_Driver/Src/stm32l4xx_hal_spi.c ****       {
2520:Drivers/STM32L4xx_HAL_Driver/Src/stm32l4xx_hal_spi.c ****         SET_BIT(hspi->ErrorCode, HAL_SPI_ERROR_ABORT);
 4413              		.loc 1 2520 9
 4414 0090 7B68     		ldr	r3, [r7, #4]
 4415 0092 1B6E     		ldr	r3, [r3, #96]
 4416 0094 43F04002 		orr	r2, r3, #64
 4417 0098 7B68     		ldr	r3, [r7, #4]
 4418 009a 1A66     		str	r2, [r3, #96]
2521:Drivers/STM32L4xx_HAL_Driver/Src/stm32l4xx_hal_spi.c ****         break;
 4419              		.loc 1 2521 9
 4420 009c 08E0     		b	.L229
 4421              	.L228:
2522:Drivers/STM32L4xx_HAL_Driver/Src/stm32l4xx_hal_spi.c ****       }
2523:Drivers/STM32L4xx_HAL_Driver/Src/stm32l4xx_hal_spi.c ****       count--;
 4422              		.loc 1 2523 12
 4423 009e 7B69     		ldr	r3, [r7, #20]
 4424 00a0 013B     		subs	r3, r3, #1
 4425 00a2 7B61     		str	r3, [r7, #20]
2524:Drivers/STM32L4xx_HAL_Driver/Src/stm32l4xx_hal_spi.c ****     } while (hspi->State != HAL_SPI_STATE_ABORT);
 4426              		.loc 1 2524 18
 4427 00a4 7B68     		ldr	r3, [r7, #4]
 4428 00a6 93F85D30 		ldrb	r3, [r3, #93]
 4429 00aa DBB2     		uxtb	r3, r3
 4430              		.loc 1 2524 26
 4431 00ac 072B     		cmp	r3, #7
 4432 00ae ECD1     		bne	.L230
 4433              	.L229:
2525:Drivers/STM32L4xx_HAL_Driver/Src/stm32l4xx_hal_spi.c ****     /* Reset Timeout Counter */
2526:Drivers/STM32L4xx_HAL_Driver/Src/stm32l4xx_hal_spi.c ****     count = resetcount;
ARM GAS  C:\Users\Morroway\AppData\Local\Temp\ccCQJjHM.s 			page 123


 4434              		.loc 1 2526 11
 4435 00b0 3B69     		ldr	r3, [r7, #16]
 4436 00b2 7B61     		str	r3, [r7, #20]
 4437              	.L227:
2527:Drivers/STM32L4xx_HAL_Driver/Src/stm32l4xx_hal_spi.c ****   }
2528:Drivers/STM32L4xx_HAL_Driver/Src/stm32l4xx_hal_spi.c **** 
2529:Drivers/STM32L4xx_HAL_Driver/Src/stm32l4xx_hal_spi.c ****   /* If DMA Tx and/or DMA Rx Handles are associated to SPI Handle, DMA Abort complete callbacks sho
2530:Drivers/STM32L4xx_HAL_Driver/Src/stm32l4xx_hal_spi.c ****      before any call to DMA Abort functions */
2531:Drivers/STM32L4xx_HAL_Driver/Src/stm32l4xx_hal_spi.c ****   /* DMA Tx Handle is valid */
2532:Drivers/STM32L4xx_HAL_Driver/Src/stm32l4xx_hal_spi.c ****   if (hspi->hdmatx != NULL)
 4438              		.loc 1 2532 11
 4439 00b4 7B68     		ldr	r3, [r7, #4]
 4440 00b6 5B6D     		ldr	r3, [r3, #84]
 4441              		.loc 1 2532 6
 4442 00b8 002B     		cmp	r3, #0
 4443 00ba 0FD0     		beq	.L231
2533:Drivers/STM32L4xx_HAL_Driver/Src/stm32l4xx_hal_spi.c ****   {
2534:Drivers/STM32L4xx_HAL_Driver/Src/stm32l4xx_hal_spi.c ****     /* Set DMA Abort Complete callback if UART DMA Tx request if enabled.
2535:Drivers/STM32L4xx_HAL_Driver/Src/stm32l4xx_hal_spi.c ****        Otherwise, set it to NULL */
2536:Drivers/STM32L4xx_HAL_Driver/Src/stm32l4xx_hal_spi.c ****     if (HAL_IS_BIT_SET(hspi->Instance->CR2, SPI_CR2_TXDMAEN))
 4444              		.loc 1 2536 9
 4445 00bc 7B68     		ldr	r3, [r7, #4]
 4446 00be 1B68     		ldr	r3, [r3]
 4447 00c0 5B68     		ldr	r3, [r3, #4]
 4448 00c2 03F00203 		and	r3, r3, #2
 4449              		.loc 1 2536 8
 4450 00c6 022B     		cmp	r3, #2
 4451 00c8 04D1     		bne	.L232
2537:Drivers/STM32L4xx_HAL_Driver/Src/stm32l4xx_hal_spi.c ****     {
2538:Drivers/STM32L4xx_HAL_Driver/Src/stm32l4xx_hal_spi.c ****       hspi->hdmatx->XferAbortCallback = SPI_DMATxAbortCallback;
 4452              		.loc 1 2538 11
 4453 00ca 7B68     		ldr	r3, [r7, #4]
 4454 00cc 5B6D     		ldr	r3, [r3, #84]
 4455              		.loc 1 2538 39
 4456 00ce 474A     		ldr	r2, .L243+16
 4457 00d0 9A63     		str	r2, [r3, #56]
 4458 00d2 03E0     		b	.L231
 4459              	.L232:
2539:Drivers/STM32L4xx_HAL_Driver/Src/stm32l4xx_hal_spi.c ****     }
2540:Drivers/STM32L4xx_HAL_Driver/Src/stm32l4xx_hal_spi.c ****     else
2541:Drivers/STM32L4xx_HAL_Driver/Src/stm32l4xx_hal_spi.c ****     {
2542:Drivers/STM32L4xx_HAL_Driver/Src/stm32l4xx_hal_spi.c ****       hspi->hdmatx->XferAbortCallback = NULL;
 4460              		.loc 1 2542 11
 4461 00d4 7B68     		ldr	r3, [r7, #4]
 4462 00d6 5B6D     		ldr	r3, [r3, #84]
 4463              		.loc 1 2542 39
 4464 00d8 0022     		movs	r2, #0
 4465 00da 9A63     		str	r2, [r3, #56]
 4466              	.L231:
2543:Drivers/STM32L4xx_HAL_Driver/Src/stm32l4xx_hal_spi.c ****     }
2544:Drivers/STM32L4xx_HAL_Driver/Src/stm32l4xx_hal_spi.c ****   }
2545:Drivers/STM32L4xx_HAL_Driver/Src/stm32l4xx_hal_spi.c ****   /* DMA Rx Handle is valid */
2546:Drivers/STM32L4xx_HAL_Driver/Src/stm32l4xx_hal_spi.c ****   if (hspi->hdmarx != NULL)
 4467              		.loc 1 2546 11
 4468 00dc 7B68     		ldr	r3, [r7, #4]
 4469 00de 9B6D     		ldr	r3, [r3, #88]
 4470              		.loc 1 2546 6
ARM GAS  C:\Users\Morroway\AppData\Local\Temp\ccCQJjHM.s 			page 124


 4471 00e0 002B     		cmp	r3, #0
 4472 00e2 0FD0     		beq	.L233
2547:Drivers/STM32L4xx_HAL_Driver/Src/stm32l4xx_hal_spi.c ****   {
2548:Drivers/STM32L4xx_HAL_Driver/Src/stm32l4xx_hal_spi.c ****     /* Set DMA Abort Complete callback if UART DMA Rx request if enabled.
2549:Drivers/STM32L4xx_HAL_Driver/Src/stm32l4xx_hal_spi.c ****        Otherwise, set it to NULL */
2550:Drivers/STM32L4xx_HAL_Driver/Src/stm32l4xx_hal_spi.c ****     if (HAL_IS_BIT_SET(hspi->Instance->CR2, SPI_CR2_RXDMAEN))
 4473              		.loc 1 2550 9
 4474 00e4 7B68     		ldr	r3, [r7, #4]
 4475 00e6 1B68     		ldr	r3, [r3]
 4476 00e8 5B68     		ldr	r3, [r3, #4]
 4477 00ea 03F00103 		and	r3, r3, #1
 4478              		.loc 1 2550 8
 4479 00ee 012B     		cmp	r3, #1
 4480 00f0 04D1     		bne	.L234
2551:Drivers/STM32L4xx_HAL_Driver/Src/stm32l4xx_hal_spi.c ****     {
2552:Drivers/STM32L4xx_HAL_Driver/Src/stm32l4xx_hal_spi.c ****       hspi->hdmarx->XferAbortCallback = SPI_DMARxAbortCallback;
 4481              		.loc 1 2552 11
 4482 00f2 7B68     		ldr	r3, [r7, #4]
 4483 00f4 9B6D     		ldr	r3, [r3, #88]
 4484              		.loc 1 2552 39
 4485 00f6 3E4A     		ldr	r2, .L243+20
 4486 00f8 9A63     		str	r2, [r3, #56]
 4487 00fa 03E0     		b	.L233
 4488              	.L234:
2553:Drivers/STM32L4xx_HAL_Driver/Src/stm32l4xx_hal_spi.c ****     }
2554:Drivers/STM32L4xx_HAL_Driver/Src/stm32l4xx_hal_spi.c ****     else
2555:Drivers/STM32L4xx_HAL_Driver/Src/stm32l4xx_hal_spi.c ****     {
2556:Drivers/STM32L4xx_HAL_Driver/Src/stm32l4xx_hal_spi.c ****       hspi->hdmarx->XferAbortCallback = NULL;
 4489              		.loc 1 2556 11
 4490 00fc 7B68     		ldr	r3, [r7, #4]
 4491 00fe 9B6D     		ldr	r3, [r3, #88]
 4492              		.loc 1 2556 39
 4493 0100 0022     		movs	r2, #0
 4494 0102 9A63     		str	r2, [r3, #56]
 4495              	.L233:
2557:Drivers/STM32L4xx_HAL_Driver/Src/stm32l4xx_hal_spi.c ****     }
2558:Drivers/STM32L4xx_HAL_Driver/Src/stm32l4xx_hal_spi.c ****   }
2559:Drivers/STM32L4xx_HAL_Driver/Src/stm32l4xx_hal_spi.c **** 
2560:Drivers/STM32L4xx_HAL_Driver/Src/stm32l4xx_hal_spi.c ****   /* Disable the SPI DMA Tx request if enabled */
2561:Drivers/STM32L4xx_HAL_Driver/Src/stm32l4xx_hal_spi.c ****   if (HAL_IS_BIT_SET(hspi->Instance->CR2, SPI_CR2_TXDMAEN))
 4496              		.loc 1 2561 7
 4497 0104 7B68     		ldr	r3, [r7, #4]
 4498 0106 1B68     		ldr	r3, [r3]
 4499 0108 5B68     		ldr	r3, [r3, #4]
 4500 010a 03F00203 		and	r3, r3, #2
 4501              		.loc 1 2561 6
 4502 010e 022B     		cmp	r3, #2
 4503 0110 15D1     		bne	.L235
2562:Drivers/STM32L4xx_HAL_Driver/Src/stm32l4xx_hal_spi.c ****   {
2563:Drivers/STM32L4xx_HAL_Driver/Src/stm32l4xx_hal_spi.c ****     /* Abort the SPI DMA Tx Stream/Channel */
2564:Drivers/STM32L4xx_HAL_Driver/Src/stm32l4xx_hal_spi.c ****     if (hspi->hdmatx != NULL)
 4504              		.loc 1 2564 13
 4505 0112 7B68     		ldr	r3, [r7, #4]
 4506 0114 5B6D     		ldr	r3, [r3, #84]
 4507              		.loc 1 2564 8
 4508 0116 002B     		cmp	r3, #0
 4509 0118 11D0     		beq	.L235
ARM GAS  C:\Users\Morroway\AppData\Local\Temp\ccCQJjHM.s 			page 125


2565:Drivers/STM32L4xx_HAL_Driver/Src/stm32l4xx_hal_spi.c ****     {
2566:Drivers/STM32L4xx_HAL_Driver/Src/stm32l4xx_hal_spi.c ****       /* Abort DMA Tx Handle linked to SPI Peripheral */
2567:Drivers/STM32L4xx_HAL_Driver/Src/stm32l4xx_hal_spi.c ****       if (HAL_DMA_Abort_IT(hspi->hdmatx) != HAL_OK)
 4510              		.loc 1 2567 11
 4511 011a 7B68     		ldr	r3, [r7, #4]
 4512 011c 5B6D     		ldr	r3, [r3, #84]
 4513 011e 1846     		mov	r0, r3
 4514 0120 FFF7FEFF 		bl	HAL_DMA_Abort_IT
 4515 0124 0346     		mov	r3, r0
 4516              		.loc 1 2567 10
 4517 0126 002B     		cmp	r3, #0
 4518 0128 07D0     		beq	.L236
2568:Drivers/STM32L4xx_HAL_Driver/Src/stm32l4xx_hal_spi.c ****       {
2569:Drivers/STM32L4xx_HAL_Driver/Src/stm32l4xx_hal_spi.c ****         hspi->hdmatx->XferAbortCallback = NULL;
 4519              		.loc 1 2569 13
 4520 012a 7B68     		ldr	r3, [r7, #4]
 4521 012c 5B6D     		ldr	r3, [r3, #84]
 4522              		.loc 1 2569 41
 4523 012e 0022     		movs	r2, #0
 4524 0130 9A63     		str	r2, [r3, #56]
2570:Drivers/STM32L4xx_HAL_Driver/Src/stm32l4xx_hal_spi.c ****         hspi->ErrorCode = HAL_SPI_ERROR_ABORT;
 4525              		.loc 1 2570 25
 4526 0132 7B68     		ldr	r3, [r7, #4]
 4527 0134 4022     		movs	r2, #64
 4528 0136 1A66     		str	r2, [r3, #96]
 4529 0138 01E0     		b	.L235
 4530              	.L236:
2571:Drivers/STM32L4xx_HAL_Driver/Src/stm32l4xx_hal_spi.c ****       }
2572:Drivers/STM32L4xx_HAL_Driver/Src/stm32l4xx_hal_spi.c ****       else
2573:Drivers/STM32L4xx_HAL_Driver/Src/stm32l4xx_hal_spi.c ****       {
2574:Drivers/STM32L4xx_HAL_Driver/Src/stm32l4xx_hal_spi.c ****         abortcplt = 0U;
 4531              		.loc 1 2574 19
 4532 013a 0023     		movs	r3, #0
 4533 013c BB61     		str	r3, [r7, #24]
 4534              	.L235:
2575:Drivers/STM32L4xx_HAL_Driver/Src/stm32l4xx_hal_spi.c ****       }
2576:Drivers/STM32L4xx_HAL_Driver/Src/stm32l4xx_hal_spi.c ****     }
2577:Drivers/STM32L4xx_HAL_Driver/Src/stm32l4xx_hal_spi.c ****   }
2578:Drivers/STM32L4xx_HAL_Driver/Src/stm32l4xx_hal_spi.c ****   /* Disable the SPI DMA Rx request if enabled */
2579:Drivers/STM32L4xx_HAL_Driver/Src/stm32l4xx_hal_spi.c ****   if (HAL_IS_BIT_SET(hspi->Instance->CR2, SPI_CR2_RXDMAEN))
 4535              		.loc 1 2579 7
 4536 013e 7B68     		ldr	r3, [r7, #4]
 4537 0140 1B68     		ldr	r3, [r3]
 4538 0142 5B68     		ldr	r3, [r3, #4]
 4539 0144 03F00103 		and	r3, r3, #1
 4540              		.loc 1 2579 6
 4541 0148 012B     		cmp	r3, #1
 4542 014a 15D1     		bne	.L237
2580:Drivers/STM32L4xx_HAL_Driver/Src/stm32l4xx_hal_spi.c ****   {
2581:Drivers/STM32L4xx_HAL_Driver/Src/stm32l4xx_hal_spi.c ****     /* Abort the SPI DMA Rx Stream/Channel */
2582:Drivers/STM32L4xx_HAL_Driver/Src/stm32l4xx_hal_spi.c ****     if (hspi->hdmarx != NULL)
 4543              		.loc 1 2582 13
 4544 014c 7B68     		ldr	r3, [r7, #4]
 4545 014e 9B6D     		ldr	r3, [r3, #88]
 4546              		.loc 1 2582 8
 4547 0150 002B     		cmp	r3, #0
 4548 0152 11D0     		beq	.L237
ARM GAS  C:\Users\Morroway\AppData\Local\Temp\ccCQJjHM.s 			page 126


2583:Drivers/STM32L4xx_HAL_Driver/Src/stm32l4xx_hal_spi.c ****     {
2584:Drivers/STM32L4xx_HAL_Driver/Src/stm32l4xx_hal_spi.c ****       /* Abort DMA Rx Handle linked to SPI Peripheral */
2585:Drivers/STM32L4xx_HAL_Driver/Src/stm32l4xx_hal_spi.c ****       if (HAL_DMA_Abort_IT(hspi->hdmarx) !=  HAL_OK)
 4549              		.loc 1 2585 11
 4550 0154 7B68     		ldr	r3, [r7, #4]
 4551 0156 9B6D     		ldr	r3, [r3, #88]
 4552 0158 1846     		mov	r0, r3
 4553 015a FFF7FEFF 		bl	HAL_DMA_Abort_IT
 4554 015e 0346     		mov	r3, r0
 4555              		.loc 1 2585 10
 4556 0160 002B     		cmp	r3, #0
 4557 0162 07D0     		beq	.L238
2586:Drivers/STM32L4xx_HAL_Driver/Src/stm32l4xx_hal_spi.c ****       {
2587:Drivers/STM32L4xx_HAL_Driver/Src/stm32l4xx_hal_spi.c ****         hspi->hdmarx->XferAbortCallback = NULL;
 4558              		.loc 1 2587 13
 4559 0164 7B68     		ldr	r3, [r7, #4]
 4560 0166 9B6D     		ldr	r3, [r3, #88]
 4561              		.loc 1 2587 41
 4562 0168 0022     		movs	r2, #0
 4563 016a 9A63     		str	r2, [r3, #56]
2588:Drivers/STM32L4xx_HAL_Driver/Src/stm32l4xx_hal_spi.c ****         hspi->ErrorCode = HAL_SPI_ERROR_ABORT;
 4564              		.loc 1 2588 25
 4565 016c 7B68     		ldr	r3, [r7, #4]
 4566 016e 4022     		movs	r2, #64
 4567 0170 1A66     		str	r2, [r3, #96]
 4568 0172 01E0     		b	.L237
 4569              	.L238:
2589:Drivers/STM32L4xx_HAL_Driver/Src/stm32l4xx_hal_spi.c ****       }
2590:Drivers/STM32L4xx_HAL_Driver/Src/stm32l4xx_hal_spi.c ****       else
2591:Drivers/STM32L4xx_HAL_Driver/Src/stm32l4xx_hal_spi.c ****       {
2592:Drivers/STM32L4xx_HAL_Driver/Src/stm32l4xx_hal_spi.c ****         abortcplt = 0U;
 4570              		.loc 1 2592 19
 4571 0174 0023     		movs	r3, #0
 4572 0176 BB61     		str	r3, [r7, #24]
 4573              	.L237:
2593:Drivers/STM32L4xx_HAL_Driver/Src/stm32l4xx_hal_spi.c ****       }
2594:Drivers/STM32L4xx_HAL_Driver/Src/stm32l4xx_hal_spi.c ****     }
2595:Drivers/STM32L4xx_HAL_Driver/Src/stm32l4xx_hal_spi.c ****   }
2596:Drivers/STM32L4xx_HAL_Driver/Src/stm32l4xx_hal_spi.c **** 
2597:Drivers/STM32L4xx_HAL_Driver/Src/stm32l4xx_hal_spi.c ****   if (abortcplt == 1U)
 4574              		.loc 1 2597 6
 4575 0178 BB69     		ldr	r3, [r7, #24]
 4576 017a 012B     		cmp	r3, #1
 4577 017c 29D1     		bne	.L239
2598:Drivers/STM32L4xx_HAL_Driver/Src/stm32l4xx_hal_spi.c ****   {
2599:Drivers/STM32L4xx_HAL_Driver/Src/stm32l4xx_hal_spi.c ****     /* Reset Tx and Rx transfer counters */
2600:Drivers/STM32L4xx_HAL_Driver/Src/stm32l4xx_hal_spi.c ****     hspi->RxXferCount = 0U;
 4578              		.loc 1 2600 23
 4579 017e 7B68     		ldr	r3, [r7, #4]
 4580 0180 0022     		movs	r2, #0
 4581 0182 A3F84620 		strh	r2, [r3, #70]	@ movhi
2601:Drivers/STM32L4xx_HAL_Driver/Src/stm32l4xx_hal_spi.c ****     hspi->TxXferCount = 0U;
 4582              		.loc 1 2601 23
 4583 0186 7B68     		ldr	r3, [r7, #4]
 4584 0188 0022     		movs	r2, #0
 4585 018a DA87     		strh	r2, [r3, #62]	@ movhi
2602:Drivers/STM32L4xx_HAL_Driver/Src/stm32l4xx_hal_spi.c **** 
ARM GAS  C:\Users\Morroway\AppData\Local\Temp\ccCQJjHM.s 			page 127


2603:Drivers/STM32L4xx_HAL_Driver/Src/stm32l4xx_hal_spi.c ****     /* Check error during Abort procedure */
2604:Drivers/STM32L4xx_HAL_Driver/Src/stm32l4xx_hal_spi.c ****     if (hspi->ErrorCode == HAL_SPI_ERROR_ABORT)
 4586              		.loc 1 2604 13
 4587 018c 7B68     		ldr	r3, [r7, #4]
 4588 018e 1B6E     		ldr	r3, [r3, #96]
 4589              		.loc 1 2604 8
 4590 0190 402B     		cmp	r3, #64
 4591 0192 02D1     		bne	.L240
2605:Drivers/STM32L4xx_HAL_Driver/Src/stm32l4xx_hal_spi.c ****     {
2606:Drivers/STM32L4xx_HAL_Driver/Src/stm32l4xx_hal_spi.c ****       /* return HAL_Error in case of error during Abort procedure */
2607:Drivers/STM32L4xx_HAL_Driver/Src/stm32l4xx_hal_spi.c ****       errorcode = HAL_ERROR;
 4592              		.loc 1 2607 17
 4593 0194 0123     		movs	r3, #1
 4594 0196 FB77     		strb	r3, [r7, #31]
 4595 0198 02E0     		b	.L241
 4596              	.L240:
2608:Drivers/STM32L4xx_HAL_Driver/Src/stm32l4xx_hal_spi.c ****     }
2609:Drivers/STM32L4xx_HAL_Driver/Src/stm32l4xx_hal_spi.c ****     else
2610:Drivers/STM32L4xx_HAL_Driver/Src/stm32l4xx_hal_spi.c ****     {
2611:Drivers/STM32L4xx_HAL_Driver/Src/stm32l4xx_hal_spi.c ****       /* Reset errorCode */
2612:Drivers/STM32L4xx_HAL_Driver/Src/stm32l4xx_hal_spi.c ****       hspi->ErrorCode = HAL_SPI_ERROR_NONE;
 4597              		.loc 1 2612 23
 4598 019a 7B68     		ldr	r3, [r7, #4]
 4599 019c 0022     		movs	r2, #0
 4600 019e 1A66     		str	r2, [r3, #96]
 4601              	.L241:
 4602              	.LBB5:
2613:Drivers/STM32L4xx_HAL_Driver/Src/stm32l4xx_hal_spi.c ****     }
2614:Drivers/STM32L4xx_HAL_Driver/Src/stm32l4xx_hal_spi.c **** 
2615:Drivers/STM32L4xx_HAL_Driver/Src/stm32l4xx_hal_spi.c ****     /* Clear the Error flags in the SR register */
2616:Drivers/STM32L4xx_HAL_Driver/Src/stm32l4xx_hal_spi.c ****     __HAL_SPI_CLEAR_OVRFLAG(hspi);
 4603              		.loc 1 2616 5
 4604 01a0 0023     		movs	r3, #0
 4605 01a2 FB60     		str	r3, [r7, #12]
 4606 01a4 7B68     		ldr	r3, [r7, #4]
 4607 01a6 1B68     		ldr	r3, [r3]
 4608 01a8 DB68     		ldr	r3, [r3, #12]
 4609 01aa FB60     		str	r3, [r7, #12]
 4610 01ac 7B68     		ldr	r3, [r7, #4]
 4611 01ae 1B68     		ldr	r3, [r3]
 4612 01b0 9B68     		ldr	r3, [r3, #8]
 4613 01b2 FB60     		str	r3, [r7, #12]
 4614 01b4 FB68     		ldr	r3, [r7, #12]
 4615              	.LBE5:
 4616              	.LBB6:
2617:Drivers/STM32L4xx_HAL_Driver/Src/stm32l4xx_hal_spi.c ****     __HAL_SPI_CLEAR_FREFLAG(hspi);
 4617              		.loc 1 2617 5
 4618 01b6 0023     		movs	r3, #0
 4619 01b8 BB60     		str	r3, [r7, #8]
 4620 01ba 7B68     		ldr	r3, [r7, #4]
 4621 01bc 1B68     		ldr	r3, [r3]
 4622 01be 9B68     		ldr	r3, [r3, #8]
 4623 01c0 BB60     		str	r3, [r7, #8]
 4624 01c2 BB68     		ldr	r3, [r7, #8]
 4625              	.LBE6:
2618:Drivers/STM32L4xx_HAL_Driver/Src/stm32l4xx_hal_spi.c **** 
2619:Drivers/STM32L4xx_HAL_Driver/Src/stm32l4xx_hal_spi.c ****     /* Restore hspi->State to Ready */
ARM GAS  C:\Users\Morroway\AppData\Local\Temp\ccCQJjHM.s 			page 128


2620:Drivers/STM32L4xx_HAL_Driver/Src/stm32l4xx_hal_spi.c ****     hspi->State = HAL_SPI_STATE_READY;
 4626              		.loc 1 2620 17
 4627 01c4 7B68     		ldr	r3, [r7, #4]
 4628 01c6 0122     		movs	r2, #1
 4629 01c8 83F85D20 		strb	r2, [r3, #93]
2621:Drivers/STM32L4xx_HAL_Driver/Src/stm32l4xx_hal_spi.c **** 
2622:Drivers/STM32L4xx_HAL_Driver/Src/stm32l4xx_hal_spi.c ****     /* As no DMA to be aborted, call directly user Abort complete callback */
2623:Drivers/STM32L4xx_HAL_Driver/Src/stm32l4xx_hal_spi.c **** #if (USE_HAL_SPI_REGISTER_CALLBACKS == 1U)
2624:Drivers/STM32L4xx_HAL_Driver/Src/stm32l4xx_hal_spi.c ****     hspi->AbortCpltCallback(hspi);
2625:Drivers/STM32L4xx_HAL_Driver/Src/stm32l4xx_hal_spi.c **** #else
2626:Drivers/STM32L4xx_HAL_Driver/Src/stm32l4xx_hal_spi.c ****     HAL_SPI_AbortCpltCallback(hspi);
 4630              		.loc 1 2626 5
 4631 01cc 7868     		ldr	r0, [r7, #4]
 4632 01ce FFF7FEFF 		bl	HAL_SPI_AbortCpltCallback
 4633              	.L239:
2627:Drivers/STM32L4xx_HAL_Driver/Src/stm32l4xx_hal_spi.c **** #endif /* USE_HAL_SPI_REGISTER_CALLBACKS */
2628:Drivers/STM32L4xx_HAL_Driver/Src/stm32l4xx_hal_spi.c ****   }
2629:Drivers/STM32L4xx_HAL_Driver/Src/stm32l4xx_hal_spi.c **** 
2630:Drivers/STM32L4xx_HAL_Driver/Src/stm32l4xx_hal_spi.c ****   return errorcode;
 4634              		.loc 1 2630 10
 4635 01d2 FB7F     		ldrb	r3, [r7, #31]	@ zero_extendqisi2
2631:Drivers/STM32L4xx_HAL_Driver/Src/stm32l4xx_hal_spi.c **** }
 4636              		.loc 1 2631 1
 4637 01d4 1846     		mov	r0, r3
 4638 01d6 2037     		adds	r7, r7, #32
 4639              		.cfi_def_cfa_offset 8
 4640 01d8 BD46     		mov	sp, r7
 4641              		.cfi_def_cfa_register 13
 4642              		@ sp needed
 4643 01da 80BD     		pop	{r7, pc}
 4644              	.L244:
 4645              		.align	2
 4646              	.L243:
 4647 01dc 00000000 		.word	SystemCoreClock
 4648 01e0 F1197605 		.word	91625969
 4649 01e4 00000000 		.word	SPI_AbortTx_ISR
 4650 01e8 00000000 		.word	SPI_AbortRx_ISR
 4651 01ec 00000000 		.word	SPI_DMATxAbortCallback
 4652 01f0 00000000 		.word	SPI_DMARxAbortCallback
 4653              		.cfi_endproc
 4654              	.LFE335:
 4656              		.section	.text.HAL_SPI_DMAPause,"ax",%progbits
 4657              		.align	1
 4658              		.global	HAL_SPI_DMAPause
 4659              		.syntax unified
 4660              		.thumb
 4661              		.thumb_func
 4663              	HAL_SPI_DMAPause:
 4664              	.LFB336:
2632:Drivers/STM32L4xx_HAL_Driver/Src/stm32l4xx_hal_spi.c **** 
2633:Drivers/STM32L4xx_HAL_Driver/Src/stm32l4xx_hal_spi.c **** /**
2634:Drivers/STM32L4xx_HAL_Driver/Src/stm32l4xx_hal_spi.c ****   * @brief  Pause the DMA Transfer.
2635:Drivers/STM32L4xx_HAL_Driver/Src/stm32l4xx_hal_spi.c ****   * @param  hspi pointer to a SPI_HandleTypeDef structure that contains
2636:Drivers/STM32L4xx_HAL_Driver/Src/stm32l4xx_hal_spi.c ****   *               the configuration information for the specified SPI module.
2637:Drivers/STM32L4xx_HAL_Driver/Src/stm32l4xx_hal_spi.c ****   * @retval HAL status
2638:Drivers/STM32L4xx_HAL_Driver/Src/stm32l4xx_hal_spi.c ****   */
2639:Drivers/STM32L4xx_HAL_Driver/Src/stm32l4xx_hal_spi.c **** HAL_StatusTypeDef HAL_SPI_DMAPause(SPI_HandleTypeDef *hspi)
ARM GAS  C:\Users\Morroway\AppData\Local\Temp\ccCQJjHM.s 			page 129


2640:Drivers/STM32L4xx_HAL_Driver/Src/stm32l4xx_hal_spi.c **** {
 4665              		.loc 1 2640 1
 4666              		.cfi_startproc
 4667              		@ args = 0, pretend = 0, frame = 8
 4668              		@ frame_needed = 1, uses_anonymous_args = 0
 4669              		@ link register save eliminated.
 4670 0000 80B4     		push	{r7}
 4671              		.cfi_def_cfa_offset 4
 4672              		.cfi_offset 7, -4
 4673 0002 83B0     		sub	sp, sp, #12
 4674              		.cfi_def_cfa_offset 16
 4675 0004 00AF     		add	r7, sp, #0
 4676              		.cfi_def_cfa_register 7
 4677 0006 7860     		str	r0, [r7, #4]
2641:Drivers/STM32L4xx_HAL_Driver/Src/stm32l4xx_hal_spi.c ****   /* Process Locked */
2642:Drivers/STM32L4xx_HAL_Driver/Src/stm32l4xx_hal_spi.c ****   __HAL_LOCK(hspi);
 4678              		.loc 1 2642 3
 4679 0008 7B68     		ldr	r3, [r7, #4]
 4680 000a 93F85C30 		ldrb	r3, [r3, #92]	@ zero_extendqisi2
 4681 000e 012B     		cmp	r3, #1
 4682 0010 01D1     		bne	.L246
 4683              		.loc 1 2642 3 is_stmt 0 discriminator 1
 4684 0012 0223     		movs	r3, #2
 4685 0014 10E0     		b	.L247
 4686              	.L246:
 4687              		.loc 1 2642 3 discriminator 2
 4688 0016 7B68     		ldr	r3, [r7, #4]
 4689 0018 0122     		movs	r2, #1
 4690 001a 83F85C20 		strb	r2, [r3, #92]
2643:Drivers/STM32L4xx_HAL_Driver/Src/stm32l4xx_hal_spi.c **** 
2644:Drivers/STM32L4xx_HAL_Driver/Src/stm32l4xx_hal_spi.c ****   /* Disable the SPI DMA Tx & Rx requests */
2645:Drivers/STM32L4xx_HAL_Driver/Src/stm32l4xx_hal_spi.c ****   CLEAR_BIT(hspi->Instance->CR2, SPI_CR2_TXDMAEN | SPI_CR2_RXDMAEN);
 4691              		.loc 1 2645 3 is_stmt 1 discriminator 2
 4692 001e 7B68     		ldr	r3, [r7, #4]
 4693 0020 1B68     		ldr	r3, [r3]
 4694 0022 5A68     		ldr	r2, [r3, #4]
 4695 0024 7B68     		ldr	r3, [r7, #4]
 4696 0026 1B68     		ldr	r3, [r3]
 4697 0028 22F00302 		bic	r2, r2, #3
 4698 002c 5A60     		str	r2, [r3, #4]
2646:Drivers/STM32L4xx_HAL_Driver/Src/stm32l4xx_hal_spi.c **** 
2647:Drivers/STM32L4xx_HAL_Driver/Src/stm32l4xx_hal_spi.c ****   /* Process Unlocked */
2648:Drivers/STM32L4xx_HAL_Driver/Src/stm32l4xx_hal_spi.c ****   __HAL_UNLOCK(hspi);
 4699              		.loc 1 2648 3 discriminator 2
 4700 002e 7B68     		ldr	r3, [r7, #4]
 4701 0030 0022     		movs	r2, #0
 4702 0032 83F85C20 		strb	r2, [r3, #92]
2649:Drivers/STM32L4xx_HAL_Driver/Src/stm32l4xx_hal_spi.c **** 
2650:Drivers/STM32L4xx_HAL_Driver/Src/stm32l4xx_hal_spi.c ****   return HAL_OK;
 4703              		.loc 1 2650 10 discriminator 2
 4704 0036 0023     		movs	r3, #0
 4705              	.L247:
2651:Drivers/STM32L4xx_HAL_Driver/Src/stm32l4xx_hal_spi.c **** }
 4706              		.loc 1 2651 1
 4707 0038 1846     		mov	r0, r3
 4708 003a 0C37     		adds	r7, r7, #12
 4709              		.cfi_def_cfa_offset 4
ARM GAS  C:\Users\Morroway\AppData\Local\Temp\ccCQJjHM.s 			page 130


 4710 003c BD46     		mov	sp, r7
 4711              		.cfi_def_cfa_register 13
 4712              		@ sp needed
 4713 003e 5DF8047B 		ldr	r7, [sp], #4
 4714              		.cfi_restore 7
 4715              		.cfi_def_cfa_offset 0
 4716 0042 7047     		bx	lr
 4717              		.cfi_endproc
 4718              	.LFE336:
 4720              		.section	.text.HAL_SPI_DMAResume,"ax",%progbits
 4721              		.align	1
 4722              		.global	HAL_SPI_DMAResume
 4723              		.syntax unified
 4724              		.thumb
 4725              		.thumb_func
 4727              	HAL_SPI_DMAResume:
 4728              	.LFB337:
2652:Drivers/STM32L4xx_HAL_Driver/Src/stm32l4xx_hal_spi.c **** 
2653:Drivers/STM32L4xx_HAL_Driver/Src/stm32l4xx_hal_spi.c **** /**
2654:Drivers/STM32L4xx_HAL_Driver/Src/stm32l4xx_hal_spi.c ****   * @brief  Resume the DMA Transfer.
2655:Drivers/STM32L4xx_HAL_Driver/Src/stm32l4xx_hal_spi.c ****   * @param  hspi pointer to a SPI_HandleTypeDef structure that contains
2656:Drivers/STM32L4xx_HAL_Driver/Src/stm32l4xx_hal_spi.c ****   *               the configuration information for the specified SPI module.
2657:Drivers/STM32L4xx_HAL_Driver/Src/stm32l4xx_hal_spi.c ****   * @retval HAL status
2658:Drivers/STM32L4xx_HAL_Driver/Src/stm32l4xx_hal_spi.c ****   */
2659:Drivers/STM32L4xx_HAL_Driver/Src/stm32l4xx_hal_spi.c **** HAL_StatusTypeDef HAL_SPI_DMAResume(SPI_HandleTypeDef *hspi)
2660:Drivers/STM32L4xx_HAL_Driver/Src/stm32l4xx_hal_spi.c **** {
 4729              		.loc 1 2660 1
 4730              		.cfi_startproc
 4731              		@ args = 0, pretend = 0, frame = 8
 4732              		@ frame_needed = 1, uses_anonymous_args = 0
 4733              		@ link register save eliminated.
 4734 0000 80B4     		push	{r7}
 4735              		.cfi_def_cfa_offset 4
 4736              		.cfi_offset 7, -4
 4737 0002 83B0     		sub	sp, sp, #12
 4738              		.cfi_def_cfa_offset 16
 4739 0004 00AF     		add	r7, sp, #0
 4740              		.cfi_def_cfa_register 7
 4741 0006 7860     		str	r0, [r7, #4]
2661:Drivers/STM32L4xx_HAL_Driver/Src/stm32l4xx_hal_spi.c ****   /* Process Locked */
2662:Drivers/STM32L4xx_HAL_Driver/Src/stm32l4xx_hal_spi.c ****   __HAL_LOCK(hspi);
 4742              		.loc 1 2662 3
 4743 0008 7B68     		ldr	r3, [r7, #4]
 4744 000a 93F85C30 		ldrb	r3, [r3, #92]	@ zero_extendqisi2
 4745 000e 012B     		cmp	r3, #1
 4746 0010 01D1     		bne	.L249
 4747              		.loc 1 2662 3 is_stmt 0 discriminator 1
 4748 0012 0223     		movs	r3, #2
 4749 0014 10E0     		b	.L250
 4750              	.L249:
 4751              		.loc 1 2662 3 discriminator 2
 4752 0016 7B68     		ldr	r3, [r7, #4]
 4753 0018 0122     		movs	r2, #1
 4754 001a 83F85C20 		strb	r2, [r3, #92]
2663:Drivers/STM32L4xx_HAL_Driver/Src/stm32l4xx_hal_spi.c **** 
2664:Drivers/STM32L4xx_HAL_Driver/Src/stm32l4xx_hal_spi.c ****   /* Enable the SPI DMA Tx & Rx requests */
2665:Drivers/STM32L4xx_HAL_Driver/Src/stm32l4xx_hal_spi.c ****   SET_BIT(hspi->Instance->CR2, SPI_CR2_TXDMAEN | SPI_CR2_RXDMAEN);
ARM GAS  C:\Users\Morroway\AppData\Local\Temp\ccCQJjHM.s 			page 131


 4755              		.loc 1 2665 3 is_stmt 1 discriminator 2
 4756 001e 7B68     		ldr	r3, [r7, #4]
 4757 0020 1B68     		ldr	r3, [r3]
 4758 0022 5A68     		ldr	r2, [r3, #4]
 4759 0024 7B68     		ldr	r3, [r7, #4]
 4760 0026 1B68     		ldr	r3, [r3]
 4761 0028 42F00302 		orr	r2, r2, #3
 4762 002c 5A60     		str	r2, [r3, #4]
2666:Drivers/STM32L4xx_HAL_Driver/Src/stm32l4xx_hal_spi.c **** 
2667:Drivers/STM32L4xx_HAL_Driver/Src/stm32l4xx_hal_spi.c ****   /* Process Unlocked */
2668:Drivers/STM32L4xx_HAL_Driver/Src/stm32l4xx_hal_spi.c ****   __HAL_UNLOCK(hspi);
 4763              		.loc 1 2668 3 discriminator 2
 4764 002e 7B68     		ldr	r3, [r7, #4]
 4765 0030 0022     		movs	r2, #0
 4766 0032 83F85C20 		strb	r2, [r3, #92]
2669:Drivers/STM32L4xx_HAL_Driver/Src/stm32l4xx_hal_spi.c **** 
2670:Drivers/STM32L4xx_HAL_Driver/Src/stm32l4xx_hal_spi.c ****   return HAL_OK;
 4767              		.loc 1 2670 10 discriminator 2
 4768 0036 0023     		movs	r3, #0
 4769              	.L250:
2671:Drivers/STM32L4xx_HAL_Driver/Src/stm32l4xx_hal_spi.c **** }
 4770              		.loc 1 2671 1
 4771 0038 1846     		mov	r0, r3
 4772 003a 0C37     		adds	r7, r7, #12
 4773              		.cfi_def_cfa_offset 4
 4774 003c BD46     		mov	sp, r7
 4775              		.cfi_def_cfa_register 13
 4776              		@ sp needed
 4777 003e 5DF8047B 		ldr	r7, [sp], #4
 4778              		.cfi_restore 7
 4779              		.cfi_def_cfa_offset 0
 4780 0042 7047     		bx	lr
 4781              		.cfi_endproc
 4782              	.LFE337:
 4784              		.section	.text.HAL_SPI_DMAStop,"ax",%progbits
 4785              		.align	1
 4786              		.global	HAL_SPI_DMAStop
 4787              		.syntax unified
 4788              		.thumb
 4789              		.thumb_func
 4791              	HAL_SPI_DMAStop:
 4792              	.LFB338:
2672:Drivers/STM32L4xx_HAL_Driver/Src/stm32l4xx_hal_spi.c **** 
2673:Drivers/STM32L4xx_HAL_Driver/Src/stm32l4xx_hal_spi.c **** /**
2674:Drivers/STM32L4xx_HAL_Driver/Src/stm32l4xx_hal_spi.c ****   * @brief  Stop the DMA Transfer.
2675:Drivers/STM32L4xx_HAL_Driver/Src/stm32l4xx_hal_spi.c ****   * @param  hspi pointer to a SPI_HandleTypeDef structure that contains
2676:Drivers/STM32L4xx_HAL_Driver/Src/stm32l4xx_hal_spi.c ****   *               the configuration information for the specified SPI module.
2677:Drivers/STM32L4xx_HAL_Driver/Src/stm32l4xx_hal_spi.c ****   * @retval HAL status
2678:Drivers/STM32L4xx_HAL_Driver/Src/stm32l4xx_hal_spi.c ****   */
2679:Drivers/STM32L4xx_HAL_Driver/Src/stm32l4xx_hal_spi.c **** HAL_StatusTypeDef HAL_SPI_DMAStop(SPI_HandleTypeDef *hspi)
2680:Drivers/STM32L4xx_HAL_Driver/Src/stm32l4xx_hal_spi.c **** {
 4793              		.loc 1 2680 1
 4794              		.cfi_startproc
 4795              		@ args = 0, pretend = 0, frame = 16
 4796              		@ frame_needed = 1, uses_anonymous_args = 0
 4797 0000 80B5     		push	{r7, lr}
 4798              		.cfi_def_cfa_offset 8
ARM GAS  C:\Users\Morroway\AppData\Local\Temp\ccCQJjHM.s 			page 132


 4799              		.cfi_offset 7, -8
 4800              		.cfi_offset 14, -4
 4801 0002 84B0     		sub	sp, sp, #16
 4802              		.cfi_def_cfa_offset 24
 4803 0004 00AF     		add	r7, sp, #0
 4804              		.cfi_def_cfa_register 7
 4805 0006 7860     		str	r0, [r7, #4]
2681:Drivers/STM32L4xx_HAL_Driver/Src/stm32l4xx_hal_spi.c ****   HAL_StatusTypeDef errorcode = HAL_OK;
 4806              		.loc 1 2681 21
 4807 0008 0023     		movs	r3, #0
 4808 000a FB73     		strb	r3, [r7, #15]
2682:Drivers/STM32L4xx_HAL_Driver/Src/stm32l4xx_hal_spi.c ****   /* The Lock is not implemented on this API to allow the user application
2683:Drivers/STM32L4xx_HAL_Driver/Src/stm32l4xx_hal_spi.c ****      to call the HAL SPI API under callbacks HAL_SPI_TxCpltCallback() or HAL_SPI_RxCpltCallback() o
2684:Drivers/STM32L4xx_HAL_Driver/Src/stm32l4xx_hal_spi.c ****      when calling HAL_DMA_Abort() API the DMA TX/RX Transfer complete interrupt is generated
2685:Drivers/STM32L4xx_HAL_Driver/Src/stm32l4xx_hal_spi.c ****      and the correspond call back is executed HAL_SPI_TxCpltCallback() or HAL_SPI_RxCpltCallback() 
2686:Drivers/STM32L4xx_HAL_Driver/Src/stm32l4xx_hal_spi.c ****      */
2687:Drivers/STM32L4xx_HAL_Driver/Src/stm32l4xx_hal_spi.c **** 
2688:Drivers/STM32L4xx_HAL_Driver/Src/stm32l4xx_hal_spi.c ****   /* Abort the SPI DMA tx Stream/Channel  */
2689:Drivers/STM32L4xx_HAL_Driver/Src/stm32l4xx_hal_spi.c ****   if (hspi->hdmatx != NULL)
 4809              		.loc 1 2689 11
 4810 000c 7B68     		ldr	r3, [r7, #4]
 4811 000e 5B6D     		ldr	r3, [r3, #84]
 4812              		.loc 1 2689 6
 4813 0010 002B     		cmp	r3, #0
 4814 0012 0FD0     		beq	.L252
2690:Drivers/STM32L4xx_HAL_Driver/Src/stm32l4xx_hal_spi.c ****   {
2691:Drivers/STM32L4xx_HAL_Driver/Src/stm32l4xx_hal_spi.c ****     if (HAL_OK != HAL_DMA_Abort(hspi->hdmatx))
 4815              		.loc 1 2691 19
 4816 0014 7B68     		ldr	r3, [r7, #4]
 4817 0016 5B6D     		ldr	r3, [r3, #84]
 4818 0018 1846     		mov	r0, r3
 4819 001a FFF7FEFF 		bl	HAL_DMA_Abort
 4820 001e 0346     		mov	r3, r0
 4821              		.loc 1 2691 8
 4822 0020 002B     		cmp	r3, #0
 4823 0022 07D0     		beq	.L252
2692:Drivers/STM32L4xx_HAL_Driver/Src/stm32l4xx_hal_spi.c ****     {
2693:Drivers/STM32L4xx_HAL_Driver/Src/stm32l4xx_hal_spi.c ****       SET_BIT(hspi->ErrorCode, HAL_SPI_ERROR_DMA);
 4824              		.loc 1 2693 7
 4825 0024 7B68     		ldr	r3, [r7, #4]
 4826 0026 1B6E     		ldr	r3, [r3, #96]
 4827 0028 43F01002 		orr	r2, r3, #16
 4828 002c 7B68     		ldr	r3, [r7, #4]
 4829 002e 1A66     		str	r2, [r3, #96]
2694:Drivers/STM32L4xx_HAL_Driver/Src/stm32l4xx_hal_spi.c ****       errorcode = HAL_ERROR;
 4830              		.loc 1 2694 17
 4831 0030 0123     		movs	r3, #1
 4832 0032 FB73     		strb	r3, [r7, #15]
 4833              	.L252:
2695:Drivers/STM32L4xx_HAL_Driver/Src/stm32l4xx_hal_spi.c ****     }
2696:Drivers/STM32L4xx_HAL_Driver/Src/stm32l4xx_hal_spi.c ****   }
2697:Drivers/STM32L4xx_HAL_Driver/Src/stm32l4xx_hal_spi.c ****   /* Abort the SPI DMA rx Stream/Channel  */
2698:Drivers/STM32L4xx_HAL_Driver/Src/stm32l4xx_hal_spi.c ****   if (hspi->hdmarx != NULL)
 4834              		.loc 1 2698 11
 4835 0034 7B68     		ldr	r3, [r7, #4]
 4836 0036 9B6D     		ldr	r3, [r3, #88]
 4837              		.loc 1 2698 6
ARM GAS  C:\Users\Morroway\AppData\Local\Temp\ccCQJjHM.s 			page 133


 4838 0038 002B     		cmp	r3, #0
 4839 003a 0FD0     		beq	.L253
2699:Drivers/STM32L4xx_HAL_Driver/Src/stm32l4xx_hal_spi.c ****   {
2700:Drivers/STM32L4xx_HAL_Driver/Src/stm32l4xx_hal_spi.c ****     if (HAL_OK != HAL_DMA_Abort(hspi->hdmarx))
 4840              		.loc 1 2700 19
 4841 003c 7B68     		ldr	r3, [r7, #4]
 4842 003e 9B6D     		ldr	r3, [r3, #88]
 4843 0040 1846     		mov	r0, r3
 4844 0042 FFF7FEFF 		bl	HAL_DMA_Abort
 4845 0046 0346     		mov	r3, r0
 4846              		.loc 1 2700 8
 4847 0048 002B     		cmp	r3, #0
 4848 004a 07D0     		beq	.L253
2701:Drivers/STM32L4xx_HAL_Driver/Src/stm32l4xx_hal_spi.c ****     {
2702:Drivers/STM32L4xx_HAL_Driver/Src/stm32l4xx_hal_spi.c ****       SET_BIT(hspi->ErrorCode, HAL_SPI_ERROR_DMA);
 4849              		.loc 1 2702 7
 4850 004c 7B68     		ldr	r3, [r7, #4]
 4851 004e 1B6E     		ldr	r3, [r3, #96]
 4852 0050 43F01002 		orr	r2, r3, #16
 4853 0054 7B68     		ldr	r3, [r7, #4]
 4854 0056 1A66     		str	r2, [r3, #96]
2703:Drivers/STM32L4xx_HAL_Driver/Src/stm32l4xx_hal_spi.c ****       errorcode = HAL_ERROR;
 4855              		.loc 1 2703 17
 4856 0058 0123     		movs	r3, #1
 4857 005a FB73     		strb	r3, [r7, #15]
 4858              	.L253:
2704:Drivers/STM32L4xx_HAL_Driver/Src/stm32l4xx_hal_spi.c ****     }
2705:Drivers/STM32L4xx_HAL_Driver/Src/stm32l4xx_hal_spi.c ****   }
2706:Drivers/STM32L4xx_HAL_Driver/Src/stm32l4xx_hal_spi.c **** 
2707:Drivers/STM32L4xx_HAL_Driver/Src/stm32l4xx_hal_spi.c ****   /* Disable the SPI DMA Tx & Rx requests */
2708:Drivers/STM32L4xx_HAL_Driver/Src/stm32l4xx_hal_spi.c ****   CLEAR_BIT(hspi->Instance->CR2, SPI_CR2_TXDMAEN | SPI_CR2_RXDMAEN);
 4859              		.loc 1 2708 3
 4860 005c 7B68     		ldr	r3, [r7, #4]
 4861 005e 1B68     		ldr	r3, [r3]
 4862 0060 5A68     		ldr	r2, [r3, #4]
 4863 0062 7B68     		ldr	r3, [r7, #4]
 4864 0064 1B68     		ldr	r3, [r3]
 4865 0066 22F00302 		bic	r2, r2, #3
 4866 006a 5A60     		str	r2, [r3, #4]
2709:Drivers/STM32L4xx_HAL_Driver/Src/stm32l4xx_hal_spi.c ****   hspi->State = HAL_SPI_STATE_READY;
 4867              		.loc 1 2709 15
 4868 006c 7B68     		ldr	r3, [r7, #4]
 4869 006e 0122     		movs	r2, #1
 4870 0070 83F85D20 		strb	r2, [r3, #93]
2710:Drivers/STM32L4xx_HAL_Driver/Src/stm32l4xx_hal_spi.c ****   return errorcode;
 4871              		.loc 1 2710 10
 4872 0074 FB7B     		ldrb	r3, [r7, #15]	@ zero_extendqisi2
2711:Drivers/STM32L4xx_HAL_Driver/Src/stm32l4xx_hal_spi.c **** }
 4873              		.loc 1 2711 1
 4874 0076 1846     		mov	r0, r3
 4875 0078 1037     		adds	r7, r7, #16
 4876              		.cfi_def_cfa_offset 8
 4877 007a BD46     		mov	sp, r7
 4878              		.cfi_def_cfa_register 13
 4879              		@ sp needed
 4880 007c 80BD     		pop	{r7, pc}
 4881              		.cfi_endproc
ARM GAS  C:\Users\Morroway\AppData\Local\Temp\ccCQJjHM.s 			page 134


 4882              	.LFE338:
 4884              		.section	.text.HAL_SPI_IRQHandler,"ax",%progbits
 4885              		.align	1
 4886              		.global	HAL_SPI_IRQHandler
 4887              		.syntax unified
 4888              		.thumb
 4889              		.thumb_func
 4891              	HAL_SPI_IRQHandler:
 4892              	.LFB339:
2712:Drivers/STM32L4xx_HAL_Driver/Src/stm32l4xx_hal_spi.c **** 
2713:Drivers/STM32L4xx_HAL_Driver/Src/stm32l4xx_hal_spi.c **** /**
2714:Drivers/STM32L4xx_HAL_Driver/Src/stm32l4xx_hal_spi.c ****   * @brief  Handle SPI interrupt request.
2715:Drivers/STM32L4xx_HAL_Driver/Src/stm32l4xx_hal_spi.c ****   * @param  hspi pointer to a SPI_HandleTypeDef structure that contains
2716:Drivers/STM32L4xx_HAL_Driver/Src/stm32l4xx_hal_spi.c ****   *               the configuration information for the specified SPI module.
2717:Drivers/STM32L4xx_HAL_Driver/Src/stm32l4xx_hal_spi.c ****   * @retval None
2718:Drivers/STM32L4xx_HAL_Driver/Src/stm32l4xx_hal_spi.c ****   */
2719:Drivers/STM32L4xx_HAL_Driver/Src/stm32l4xx_hal_spi.c **** void HAL_SPI_IRQHandler(SPI_HandleTypeDef *hspi)
2720:Drivers/STM32L4xx_HAL_Driver/Src/stm32l4xx_hal_spi.c **** {
 4893              		.loc 1 2720 1
 4894              		.cfi_startproc
 4895              		@ args = 0, pretend = 0, frame = 32
 4896              		@ frame_needed = 1, uses_anonymous_args = 0
 4897 0000 80B5     		push	{r7, lr}
 4898              		.cfi_def_cfa_offset 8
 4899              		.cfi_offset 7, -8
 4900              		.cfi_offset 14, -4
 4901 0002 88B0     		sub	sp, sp, #32
 4902              		.cfi_def_cfa_offset 40
 4903 0004 00AF     		add	r7, sp, #0
 4904              		.cfi_def_cfa_register 7
 4905 0006 7860     		str	r0, [r7, #4]
2721:Drivers/STM32L4xx_HAL_Driver/Src/stm32l4xx_hal_spi.c ****   uint32_t itsource = hspi->Instance->CR2;
 4906              		.loc 1 2721 27
 4907 0008 7B68     		ldr	r3, [r7, #4]
 4908 000a 1B68     		ldr	r3, [r3]
 4909              		.loc 1 2721 12
 4910 000c 5B68     		ldr	r3, [r3, #4]
 4911 000e FB61     		str	r3, [r7, #28]
2722:Drivers/STM32L4xx_HAL_Driver/Src/stm32l4xx_hal_spi.c ****   uint32_t itflag   = hspi->Instance->SR;
 4912              		.loc 1 2722 27
 4913 0010 7B68     		ldr	r3, [r7, #4]
 4914 0012 1B68     		ldr	r3, [r3]
 4915              		.loc 1 2722 12
 4916 0014 9B68     		ldr	r3, [r3, #8]
 4917 0016 BB61     		str	r3, [r7, #24]
2723:Drivers/STM32L4xx_HAL_Driver/Src/stm32l4xx_hal_spi.c **** 
2724:Drivers/STM32L4xx_HAL_Driver/Src/stm32l4xx_hal_spi.c ****   /* SPI in mode Receiver ----------------------------------------------------*/
2725:Drivers/STM32L4xx_HAL_Driver/Src/stm32l4xx_hal_spi.c ****   if ((SPI_CHECK_FLAG(itflag, SPI_FLAG_OVR) == RESET) &&
 4918              		.loc 1 2725 45
 4919 0018 BB69     		ldr	r3, [r7, #24]
 4920 001a 03F04003 		and	r3, r3, #64
 4921              		.loc 1 2725 6
 4922 001e 002B     		cmp	r3, #0
 4923 0020 0ED1     		bne	.L256
2726:Drivers/STM32L4xx_HAL_Driver/Src/stm32l4xx_hal_spi.c ****       (SPI_CHECK_FLAG(itflag, SPI_FLAG_RXNE) != RESET) && (SPI_CHECK_IT_SOURCE(itsource, SPI_IT_RXN
 4924              		.loc 1 2726 8 discriminator 1
 4925 0022 BB69     		ldr	r3, [r7, #24]
ARM GAS  C:\Users\Morroway\AppData\Local\Temp\ccCQJjHM.s 			page 135


 4926 0024 03F00103 		and	r3, r3, #1
2725:Drivers/STM32L4xx_HAL_Driver/Src/stm32l4xx_hal_spi.c ****       (SPI_CHECK_FLAG(itflag, SPI_FLAG_RXNE) != RESET) && (SPI_CHECK_IT_SOURCE(itsource, SPI_IT_RXN
 4927              		.loc 1 2725 55 discriminator 1
 4928 0028 002B     		cmp	r3, #0
 4929 002a 09D0     		beq	.L256
 4930              		.loc 1 2726 103
 4931 002c FB69     		ldr	r3, [r7, #28]
 4932 002e 03F04003 		and	r3, r3, #64
 4933              		.loc 1 2726 56
 4934 0032 002B     		cmp	r3, #0
 4935 0034 04D0     		beq	.L256
2727:Drivers/STM32L4xx_HAL_Driver/Src/stm32l4xx_hal_spi.c ****   {
2728:Drivers/STM32L4xx_HAL_Driver/Src/stm32l4xx_hal_spi.c ****     hspi->RxISR(hspi);
 4936              		.loc 1 2728 9
 4937 0036 7B68     		ldr	r3, [r7, #4]
 4938 0038 DB6C     		ldr	r3, [r3, #76]
 4939              		.loc 1 2728 5
 4940 003a 7868     		ldr	r0, [r7, #4]
 4941 003c 9847     		blx	r3
 4942              	.LVL0:
2729:Drivers/STM32L4xx_HAL_Driver/Src/stm32l4xx_hal_spi.c ****     return;
 4943              		.loc 1 2729 5
 4944 003e CEE0     		b	.L255
 4945              	.L256:
2730:Drivers/STM32L4xx_HAL_Driver/Src/stm32l4xx_hal_spi.c ****   }
2731:Drivers/STM32L4xx_HAL_Driver/Src/stm32l4xx_hal_spi.c **** 
2732:Drivers/STM32L4xx_HAL_Driver/Src/stm32l4xx_hal_spi.c ****   /* SPI in mode Transmitter -------------------------------------------------*/
2733:Drivers/STM32L4xx_HAL_Driver/Src/stm32l4xx_hal_spi.c ****   if ((SPI_CHECK_FLAG(itflag, SPI_FLAG_TXE) != RESET) && (SPI_CHECK_IT_SOURCE(itsource, SPI_IT_TXE)
 4946              		.loc 1 2733 45
 4947 0040 BB69     		ldr	r3, [r7, #24]
 4948 0042 03F00203 		and	r3, r3, #2
 4949              		.loc 1 2733 6
 4950 0046 002B     		cmp	r3, #0
 4951 0048 09D0     		beq	.L258
 4952              		.loc 1 2733 101 discriminator 1
 4953 004a FB69     		ldr	r3, [r7, #28]
 4954 004c 03F08003 		and	r3, r3, #128
 4955              		.loc 1 2733 55 discriminator 1
 4956 0050 002B     		cmp	r3, #0
 4957 0052 04D0     		beq	.L258
2734:Drivers/STM32L4xx_HAL_Driver/Src/stm32l4xx_hal_spi.c ****   {
2735:Drivers/STM32L4xx_HAL_Driver/Src/stm32l4xx_hal_spi.c ****     hspi->TxISR(hspi);
 4958              		.loc 1 2735 9
 4959 0054 7B68     		ldr	r3, [r7, #4]
 4960 0056 1B6D     		ldr	r3, [r3, #80]
 4961              		.loc 1 2735 5
 4962 0058 7868     		ldr	r0, [r7, #4]
 4963 005a 9847     		blx	r3
 4964              	.LVL1:
2736:Drivers/STM32L4xx_HAL_Driver/Src/stm32l4xx_hal_spi.c ****     return;
 4965              		.loc 1 2736 5
 4966 005c BFE0     		b	.L255
 4967              	.L258:
2737:Drivers/STM32L4xx_HAL_Driver/Src/stm32l4xx_hal_spi.c ****   }
2738:Drivers/STM32L4xx_HAL_Driver/Src/stm32l4xx_hal_spi.c **** 
2739:Drivers/STM32L4xx_HAL_Driver/Src/stm32l4xx_hal_spi.c ****   /* SPI in Error Treatment --------------------------------------------------*/
2740:Drivers/STM32L4xx_HAL_Driver/Src/stm32l4xx_hal_spi.c ****   if (((SPI_CHECK_FLAG(itflag, SPI_FLAG_MODF) != RESET) || (SPI_CHECK_FLAG(itflag, SPI_FLAG_OVR) !=
ARM GAS  C:\Users\Morroway\AppData\Local\Temp\ccCQJjHM.s 			page 136


 4968              		.loc 1 2740 47
 4969 005e BB69     		ldr	r3, [r7, #24]
 4970 0060 03F02003 		and	r3, r3, #32
 4971              		.loc 1 2740 6
 4972 0064 002B     		cmp	r3, #0
 4973 0066 0AD1     		bne	.L259
 4974              		.loc 1 2740 98 discriminator 1
 4975 0068 BB69     		ldr	r3, [r7, #24]
 4976 006a 03F04003 		and	r3, r3, #64
 4977              		.loc 1 2740 57 discriminator 1
 4978 006e 002B     		cmp	r3, #0
 4979 0070 05D1     		bne	.L259
2741:Drivers/STM32L4xx_HAL_Driver/Src/stm32l4xx_hal_spi.c ****        || (SPI_CHECK_FLAG(itflag, SPI_FLAG_FRE) != RESET)) && (SPI_CHECK_IT_SOURCE(itsource, SPI_IT
 4980              		.loc 1 2741 49
 4981 0072 BB69     		ldr	r3, [r7, #24]
 4982 0074 03F48073 		and	r3, r3, #256
 4983              		.loc 1 2741 8
 4984 0078 002B     		cmp	r3, #0
 4985 007a 00F0B080 		beq	.L255
 4986              	.L259:
 4987              		.loc 1 2741 106 discriminator 1
 4988 007e FB69     		ldr	r3, [r7, #28]
 4989 0080 03F02003 		and	r3, r3, #32
 4990              		.loc 1 2741 60 discriminator 1
 4991 0084 002B     		cmp	r3, #0
 4992 0086 00F0AA80 		beq	.L255
2742:Drivers/STM32L4xx_HAL_Driver/Src/stm32l4xx_hal_spi.c ****   {
2743:Drivers/STM32L4xx_HAL_Driver/Src/stm32l4xx_hal_spi.c ****     /* SPI Overrun error interrupt occurred ----------------------------------*/
2744:Drivers/STM32L4xx_HAL_Driver/Src/stm32l4xx_hal_spi.c ****     if (SPI_CHECK_FLAG(itflag, SPI_FLAG_OVR) != RESET)
 4993              		.loc 1 2744 46
 4994 008a BB69     		ldr	r3, [r7, #24]
 4995 008c 03F04003 		and	r3, r3, #64
 4996              		.loc 1 2744 8
 4997 0090 002B     		cmp	r3, #0
 4998 0092 23D0     		beq	.L260
2745:Drivers/STM32L4xx_HAL_Driver/Src/stm32l4xx_hal_spi.c ****     {
2746:Drivers/STM32L4xx_HAL_Driver/Src/stm32l4xx_hal_spi.c ****       if (hspi->State != HAL_SPI_STATE_BUSY_TX)
 4999              		.loc 1 2746 15
 5000 0094 7B68     		ldr	r3, [r7, #4]
 5001 0096 93F85D30 		ldrb	r3, [r3, #93]
 5002 009a DBB2     		uxtb	r3, r3
 5003              		.loc 1 2746 10
 5004 009c 032B     		cmp	r3, #3
 5005 009e 11D0     		beq	.L261
2747:Drivers/STM32L4xx_HAL_Driver/Src/stm32l4xx_hal_spi.c ****       {
2748:Drivers/STM32L4xx_HAL_Driver/Src/stm32l4xx_hal_spi.c ****         SET_BIT(hspi->ErrorCode, HAL_SPI_ERROR_OVR);
 5006              		.loc 1 2748 9
 5007 00a0 7B68     		ldr	r3, [r7, #4]
 5008 00a2 1B6E     		ldr	r3, [r3, #96]
 5009 00a4 43F00402 		orr	r2, r3, #4
 5010 00a8 7B68     		ldr	r3, [r7, #4]
 5011 00aa 1A66     		str	r2, [r3, #96]
 5012              	.LBB7:
2749:Drivers/STM32L4xx_HAL_Driver/Src/stm32l4xx_hal_spi.c ****         __HAL_SPI_CLEAR_OVRFLAG(hspi);
 5013              		.loc 1 2749 9
 5014 00ac 0023     		movs	r3, #0
 5015 00ae 7B61     		str	r3, [r7, #20]
ARM GAS  C:\Users\Morroway\AppData\Local\Temp\ccCQJjHM.s 			page 137


 5016 00b0 7B68     		ldr	r3, [r7, #4]
 5017 00b2 1B68     		ldr	r3, [r3]
 5018 00b4 DB68     		ldr	r3, [r3, #12]
 5019 00b6 7B61     		str	r3, [r7, #20]
 5020 00b8 7B68     		ldr	r3, [r7, #4]
 5021 00ba 1B68     		ldr	r3, [r3]
 5022 00bc 9B68     		ldr	r3, [r3, #8]
 5023 00be 7B61     		str	r3, [r7, #20]
 5024 00c0 7B69     		ldr	r3, [r7, #20]
 5025              	.LBE7:
 5026 00c2 0BE0     		b	.L260
 5027              	.L261:
 5028              	.LBB8:
2750:Drivers/STM32L4xx_HAL_Driver/Src/stm32l4xx_hal_spi.c ****       }
2751:Drivers/STM32L4xx_HAL_Driver/Src/stm32l4xx_hal_spi.c ****       else
2752:Drivers/STM32L4xx_HAL_Driver/Src/stm32l4xx_hal_spi.c ****       {
2753:Drivers/STM32L4xx_HAL_Driver/Src/stm32l4xx_hal_spi.c ****         __HAL_SPI_CLEAR_OVRFLAG(hspi);
 5029              		.loc 1 2753 9
 5030 00c4 0023     		movs	r3, #0
 5031 00c6 3B61     		str	r3, [r7, #16]
 5032 00c8 7B68     		ldr	r3, [r7, #4]
 5033 00ca 1B68     		ldr	r3, [r3]
 5034 00cc DB68     		ldr	r3, [r3, #12]
 5035 00ce 3B61     		str	r3, [r7, #16]
 5036 00d0 7B68     		ldr	r3, [r7, #4]
 5037 00d2 1B68     		ldr	r3, [r3]
 5038 00d4 9B68     		ldr	r3, [r3, #8]
 5039 00d6 3B61     		str	r3, [r7, #16]
 5040 00d8 3B69     		ldr	r3, [r7, #16]
 5041              	.LBE8:
2754:Drivers/STM32L4xx_HAL_Driver/Src/stm32l4xx_hal_spi.c ****         return;
 5042              		.loc 1 2754 9
 5043 00da 80E0     		b	.L255
 5044              	.L260:
2755:Drivers/STM32L4xx_HAL_Driver/Src/stm32l4xx_hal_spi.c ****       }
2756:Drivers/STM32L4xx_HAL_Driver/Src/stm32l4xx_hal_spi.c ****     }
2757:Drivers/STM32L4xx_HAL_Driver/Src/stm32l4xx_hal_spi.c **** 
2758:Drivers/STM32L4xx_HAL_Driver/Src/stm32l4xx_hal_spi.c ****     /* SPI Mode Fault error interrupt occurred -------------------------------*/
2759:Drivers/STM32L4xx_HAL_Driver/Src/stm32l4xx_hal_spi.c ****     if (SPI_CHECK_FLAG(itflag, SPI_FLAG_MODF) != RESET)
 5045              		.loc 1 2759 47
 5046 00dc BB69     		ldr	r3, [r7, #24]
 5047 00de 03F02003 		and	r3, r3, #32
 5048              		.loc 1 2759 8
 5049 00e2 002B     		cmp	r3, #0
 5050 00e4 14D0     		beq	.L262
2760:Drivers/STM32L4xx_HAL_Driver/Src/stm32l4xx_hal_spi.c ****     {
2761:Drivers/STM32L4xx_HAL_Driver/Src/stm32l4xx_hal_spi.c ****       SET_BIT(hspi->ErrorCode, HAL_SPI_ERROR_MODF);
 5051              		.loc 1 2761 7
 5052 00e6 7B68     		ldr	r3, [r7, #4]
 5053 00e8 1B6E     		ldr	r3, [r3, #96]
 5054 00ea 43F00102 		orr	r2, r3, #1
 5055 00ee 7B68     		ldr	r3, [r7, #4]
 5056 00f0 1A66     		str	r2, [r3, #96]
 5057              	.LBB9:
2762:Drivers/STM32L4xx_HAL_Driver/Src/stm32l4xx_hal_spi.c ****       __HAL_SPI_CLEAR_MODFFLAG(hspi);
 5058              		.loc 1 2762 7
 5059 00f2 0023     		movs	r3, #0
ARM GAS  C:\Users\Morroway\AppData\Local\Temp\ccCQJjHM.s 			page 138


 5060 00f4 FB60     		str	r3, [r7, #12]
 5061 00f6 7B68     		ldr	r3, [r7, #4]
 5062 00f8 1B68     		ldr	r3, [r3]
 5063 00fa 9B68     		ldr	r3, [r3, #8]
 5064 00fc FB60     		str	r3, [r7, #12]
 5065 00fe 7B68     		ldr	r3, [r7, #4]
 5066 0100 1B68     		ldr	r3, [r3]
 5067 0102 1A68     		ldr	r2, [r3]
 5068 0104 7B68     		ldr	r3, [r7, #4]
 5069 0106 1B68     		ldr	r3, [r3]
 5070 0108 22F04002 		bic	r2, r2, #64
 5071 010c 1A60     		str	r2, [r3]
 5072 010e FB68     		ldr	r3, [r7, #12]
 5073              	.L262:
 5074              	.LBE9:
2763:Drivers/STM32L4xx_HAL_Driver/Src/stm32l4xx_hal_spi.c ****     }
2764:Drivers/STM32L4xx_HAL_Driver/Src/stm32l4xx_hal_spi.c **** 
2765:Drivers/STM32L4xx_HAL_Driver/Src/stm32l4xx_hal_spi.c ****     /* SPI Frame error interrupt occurred ------------------------------------*/
2766:Drivers/STM32L4xx_HAL_Driver/Src/stm32l4xx_hal_spi.c ****     if (SPI_CHECK_FLAG(itflag, SPI_FLAG_FRE) != RESET)
 5075              		.loc 1 2766 46
 5076 0110 BB69     		ldr	r3, [r7, #24]
 5077 0112 03F48073 		and	r3, r3, #256
 5078              		.loc 1 2766 8
 5079 0116 002B     		cmp	r3, #0
 5080 0118 0CD0     		beq	.L263
2767:Drivers/STM32L4xx_HAL_Driver/Src/stm32l4xx_hal_spi.c ****     {
2768:Drivers/STM32L4xx_HAL_Driver/Src/stm32l4xx_hal_spi.c ****       SET_BIT(hspi->ErrorCode, HAL_SPI_ERROR_FRE);
 5081              		.loc 1 2768 7
 5082 011a 7B68     		ldr	r3, [r7, #4]
 5083 011c 1B6E     		ldr	r3, [r3, #96]
 5084 011e 43F00802 		orr	r2, r3, #8
 5085 0122 7B68     		ldr	r3, [r7, #4]
 5086 0124 1A66     		str	r2, [r3, #96]
 5087              	.LBB10:
2769:Drivers/STM32L4xx_HAL_Driver/Src/stm32l4xx_hal_spi.c ****       __HAL_SPI_CLEAR_FREFLAG(hspi);
 5088              		.loc 1 2769 7
 5089 0126 0023     		movs	r3, #0
 5090 0128 BB60     		str	r3, [r7, #8]
 5091 012a 7B68     		ldr	r3, [r7, #4]
 5092 012c 1B68     		ldr	r3, [r3]
 5093 012e 9B68     		ldr	r3, [r3, #8]
 5094 0130 BB60     		str	r3, [r7, #8]
 5095 0132 BB68     		ldr	r3, [r7, #8]
 5096              	.L263:
 5097              	.LBE10:
2770:Drivers/STM32L4xx_HAL_Driver/Src/stm32l4xx_hal_spi.c ****     }
2771:Drivers/STM32L4xx_HAL_Driver/Src/stm32l4xx_hal_spi.c **** 
2772:Drivers/STM32L4xx_HAL_Driver/Src/stm32l4xx_hal_spi.c ****     if (hspi->ErrorCode != HAL_SPI_ERROR_NONE)
 5098              		.loc 1 2772 13
 5099 0134 7B68     		ldr	r3, [r7, #4]
 5100 0136 1B6E     		ldr	r3, [r3, #96]
 5101              		.loc 1 2772 8
 5102 0138 002B     		cmp	r3, #0
 5103 013a 4FD0     		beq	.L269
2773:Drivers/STM32L4xx_HAL_Driver/Src/stm32l4xx_hal_spi.c ****     {
2774:Drivers/STM32L4xx_HAL_Driver/Src/stm32l4xx_hal_spi.c ****       /* Disable all interrupts */
2775:Drivers/STM32L4xx_HAL_Driver/Src/stm32l4xx_hal_spi.c ****       __HAL_SPI_DISABLE_IT(hspi, SPI_IT_RXNE | SPI_IT_TXE | SPI_IT_ERR);
ARM GAS  C:\Users\Morroway\AppData\Local\Temp\ccCQJjHM.s 			page 139


 5104              		.loc 1 2775 7
 5105 013c 7B68     		ldr	r3, [r7, #4]
 5106 013e 1B68     		ldr	r3, [r3]
 5107 0140 5A68     		ldr	r2, [r3, #4]
 5108 0142 7B68     		ldr	r3, [r7, #4]
 5109 0144 1B68     		ldr	r3, [r3]
 5110 0146 22F0E002 		bic	r2, r2, #224
 5111 014a 5A60     		str	r2, [r3, #4]
2776:Drivers/STM32L4xx_HAL_Driver/Src/stm32l4xx_hal_spi.c **** 
2777:Drivers/STM32L4xx_HAL_Driver/Src/stm32l4xx_hal_spi.c ****       hspi->State = HAL_SPI_STATE_READY;
 5112              		.loc 1 2777 19
 5113 014c 7B68     		ldr	r3, [r7, #4]
 5114 014e 0122     		movs	r2, #1
 5115 0150 83F85D20 		strb	r2, [r3, #93]
2778:Drivers/STM32L4xx_HAL_Driver/Src/stm32l4xx_hal_spi.c ****       /* Disable the SPI DMA requests if enabled */
2779:Drivers/STM32L4xx_HAL_Driver/Src/stm32l4xx_hal_spi.c ****       if ((HAL_IS_BIT_SET(itsource, SPI_CR2_TXDMAEN)) || (HAL_IS_BIT_SET(itsource, SPI_CR2_RXDMAEN)
 5116              		.loc 1 2779 12
 5117 0154 FB69     		ldr	r3, [r7, #28]
 5118 0156 03F00203 		and	r3, r3, #2
 5119              		.loc 1 2779 10
 5120 015a 002B     		cmp	r3, #0
 5121 015c 04D1     		bne	.L265
 5122              		.loc 1 2779 59 discriminator 1
 5123 015e FB69     		ldr	r3, [r7, #28]
 5124 0160 03F00103 		and	r3, r3, #1
 5125              		.loc 1 2779 55 discriminator 1
 5126 0164 002B     		cmp	r3, #0
 5127 0166 34D0     		beq	.L266
 5128              	.L265:
2780:Drivers/STM32L4xx_HAL_Driver/Src/stm32l4xx_hal_spi.c ****       {
2781:Drivers/STM32L4xx_HAL_Driver/Src/stm32l4xx_hal_spi.c ****         CLEAR_BIT(hspi->Instance->CR2, (SPI_CR2_TXDMAEN | SPI_CR2_RXDMAEN));
 5129              		.loc 1 2781 9
 5130 0168 7B68     		ldr	r3, [r7, #4]
 5131 016a 1B68     		ldr	r3, [r3]
 5132 016c 5A68     		ldr	r2, [r3, #4]
 5133 016e 7B68     		ldr	r3, [r7, #4]
 5134 0170 1B68     		ldr	r3, [r3]
 5135 0172 22F00302 		bic	r2, r2, #3
 5136 0176 5A60     		str	r2, [r3, #4]
2782:Drivers/STM32L4xx_HAL_Driver/Src/stm32l4xx_hal_spi.c **** 
2783:Drivers/STM32L4xx_HAL_Driver/Src/stm32l4xx_hal_spi.c ****         /* Abort the SPI DMA Rx channel */
2784:Drivers/STM32L4xx_HAL_Driver/Src/stm32l4xx_hal_spi.c ****         if (hspi->hdmarx != NULL)
 5137              		.loc 1 2784 17
 5138 0178 7B68     		ldr	r3, [r7, #4]
 5139 017a 9B6D     		ldr	r3, [r3, #88]
 5140              		.loc 1 2784 12
 5141 017c 002B     		cmp	r3, #0
 5142 017e 11D0     		beq	.L267
2785:Drivers/STM32L4xx_HAL_Driver/Src/stm32l4xx_hal_spi.c ****         {
2786:Drivers/STM32L4xx_HAL_Driver/Src/stm32l4xx_hal_spi.c ****           /* Set the SPI DMA Abort callback :
2787:Drivers/STM32L4xx_HAL_Driver/Src/stm32l4xx_hal_spi.c ****           will lead to call HAL_SPI_ErrorCallback() at end of DMA abort procedure */
2788:Drivers/STM32L4xx_HAL_Driver/Src/stm32l4xx_hal_spi.c ****           hspi->hdmarx->XferAbortCallback = SPI_DMAAbortOnError;
 5143              		.loc 1 2788 15
 5144 0180 7B68     		ldr	r3, [r7, #4]
 5145 0182 9B6D     		ldr	r3, [r3, #88]
 5146              		.loc 1 2788 43
 5147 0184 174A     		ldr	r2, .L271
ARM GAS  C:\Users\Morroway\AppData\Local\Temp\ccCQJjHM.s 			page 140


 5148 0186 9A63     		str	r2, [r3, #56]
2789:Drivers/STM32L4xx_HAL_Driver/Src/stm32l4xx_hal_spi.c ****           if (HAL_OK != HAL_DMA_Abort_IT(hspi->hdmarx))
 5149              		.loc 1 2789 25
 5150 0188 7B68     		ldr	r3, [r7, #4]
 5151 018a 9B6D     		ldr	r3, [r3, #88]
 5152 018c 1846     		mov	r0, r3
 5153 018e FFF7FEFF 		bl	HAL_DMA_Abort_IT
 5154 0192 0346     		mov	r3, r0
 5155              		.loc 1 2789 14
 5156 0194 002B     		cmp	r3, #0
 5157 0196 05D0     		beq	.L267
2790:Drivers/STM32L4xx_HAL_Driver/Src/stm32l4xx_hal_spi.c ****           {
2791:Drivers/STM32L4xx_HAL_Driver/Src/stm32l4xx_hal_spi.c ****             SET_BIT(hspi->ErrorCode, HAL_SPI_ERROR_ABORT);
 5158              		.loc 1 2791 13
 5159 0198 7B68     		ldr	r3, [r7, #4]
 5160 019a 1B6E     		ldr	r3, [r3, #96]
 5161 019c 43F04002 		orr	r2, r3, #64
 5162 01a0 7B68     		ldr	r3, [r7, #4]
 5163 01a2 1A66     		str	r2, [r3, #96]
 5164              	.L267:
2792:Drivers/STM32L4xx_HAL_Driver/Src/stm32l4xx_hal_spi.c ****           }
2793:Drivers/STM32L4xx_HAL_Driver/Src/stm32l4xx_hal_spi.c ****         }
2794:Drivers/STM32L4xx_HAL_Driver/Src/stm32l4xx_hal_spi.c ****         /* Abort the SPI DMA Tx channel */
2795:Drivers/STM32L4xx_HAL_Driver/Src/stm32l4xx_hal_spi.c ****         if (hspi->hdmatx != NULL)
 5165              		.loc 1 2795 17
 5166 01a4 7B68     		ldr	r3, [r7, #4]
 5167 01a6 5B6D     		ldr	r3, [r3, #84]
 5168              		.loc 1 2795 12
 5169 01a8 002B     		cmp	r3, #0
 5170 01aa 16D0     		beq	.L270
2796:Drivers/STM32L4xx_HAL_Driver/Src/stm32l4xx_hal_spi.c ****         {
2797:Drivers/STM32L4xx_HAL_Driver/Src/stm32l4xx_hal_spi.c ****           /* Set the SPI DMA Abort callback :
2798:Drivers/STM32L4xx_HAL_Driver/Src/stm32l4xx_hal_spi.c ****           will lead to call HAL_SPI_ErrorCallback() at end of DMA abort procedure */
2799:Drivers/STM32L4xx_HAL_Driver/Src/stm32l4xx_hal_spi.c ****           hspi->hdmatx->XferAbortCallback = SPI_DMAAbortOnError;
 5171              		.loc 1 2799 15
 5172 01ac 7B68     		ldr	r3, [r7, #4]
 5173 01ae 5B6D     		ldr	r3, [r3, #84]
 5174              		.loc 1 2799 43
 5175 01b0 0C4A     		ldr	r2, .L271
 5176 01b2 9A63     		str	r2, [r3, #56]
2800:Drivers/STM32L4xx_HAL_Driver/Src/stm32l4xx_hal_spi.c ****           if (HAL_OK != HAL_DMA_Abort_IT(hspi->hdmatx))
 5177              		.loc 1 2800 25
 5178 01b4 7B68     		ldr	r3, [r7, #4]
 5179 01b6 5B6D     		ldr	r3, [r3, #84]
 5180 01b8 1846     		mov	r0, r3
 5181 01ba FFF7FEFF 		bl	HAL_DMA_Abort_IT
 5182 01be 0346     		mov	r3, r0
 5183              		.loc 1 2800 14
 5184 01c0 002B     		cmp	r3, #0
 5185 01c2 0AD0     		beq	.L270
2801:Drivers/STM32L4xx_HAL_Driver/Src/stm32l4xx_hal_spi.c ****           {
2802:Drivers/STM32L4xx_HAL_Driver/Src/stm32l4xx_hal_spi.c ****             SET_BIT(hspi->ErrorCode, HAL_SPI_ERROR_ABORT);
 5186              		.loc 1 2802 13
 5187 01c4 7B68     		ldr	r3, [r7, #4]
 5188 01c6 1B6E     		ldr	r3, [r3, #96]
 5189 01c8 43F04002 		orr	r2, r3, #64
 5190 01cc 7B68     		ldr	r3, [r7, #4]
ARM GAS  C:\Users\Morroway\AppData\Local\Temp\ccCQJjHM.s 			page 141


 5191 01ce 1A66     		str	r2, [r3, #96]
2795:Drivers/STM32L4xx_HAL_Driver/Src/stm32l4xx_hal_spi.c ****         {
 5192              		.loc 1 2795 12
 5193 01d0 03E0     		b	.L270
 5194              	.L266:
2803:Drivers/STM32L4xx_HAL_Driver/Src/stm32l4xx_hal_spi.c ****           }
2804:Drivers/STM32L4xx_HAL_Driver/Src/stm32l4xx_hal_spi.c ****         }
2805:Drivers/STM32L4xx_HAL_Driver/Src/stm32l4xx_hal_spi.c ****       }
2806:Drivers/STM32L4xx_HAL_Driver/Src/stm32l4xx_hal_spi.c ****       else
2807:Drivers/STM32L4xx_HAL_Driver/Src/stm32l4xx_hal_spi.c ****       {
2808:Drivers/STM32L4xx_HAL_Driver/Src/stm32l4xx_hal_spi.c ****         /* Call user error callback */
2809:Drivers/STM32L4xx_HAL_Driver/Src/stm32l4xx_hal_spi.c **** #if (USE_HAL_SPI_REGISTER_CALLBACKS == 1U)
2810:Drivers/STM32L4xx_HAL_Driver/Src/stm32l4xx_hal_spi.c ****         hspi->ErrorCallback(hspi);
2811:Drivers/STM32L4xx_HAL_Driver/Src/stm32l4xx_hal_spi.c **** #else
2812:Drivers/STM32L4xx_HAL_Driver/Src/stm32l4xx_hal_spi.c ****         HAL_SPI_ErrorCallback(hspi);
 5195              		.loc 1 2812 9
 5196 01d2 7868     		ldr	r0, [r7, #4]
 5197 01d4 FFF7FEFF 		bl	HAL_SPI_ErrorCallback
2813:Drivers/STM32L4xx_HAL_Driver/Src/stm32l4xx_hal_spi.c **** #endif /* USE_HAL_SPI_REGISTER_CALLBACKS */
2814:Drivers/STM32L4xx_HAL_Driver/Src/stm32l4xx_hal_spi.c ****       }
2815:Drivers/STM32L4xx_HAL_Driver/Src/stm32l4xx_hal_spi.c ****     }
2816:Drivers/STM32L4xx_HAL_Driver/Src/stm32l4xx_hal_spi.c ****     return;
 5198              		.loc 1 2816 5
 5199 01d8 00E0     		b	.L269
 5200              	.L270:
2795:Drivers/STM32L4xx_HAL_Driver/Src/stm32l4xx_hal_spi.c ****         {
 5201              		.loc 1 2795 12
 5202 01da 00BF     		nop
 5203              	.L269:
 5204              		.loc 1 2816 5
 5205 01dc 00BF     		nop
 5206              	.L255:
2817:Drivers/STM32L4xx_HAL_Driver/Src/stm32l4xx_hal_spi.c ****   }
2818:Drivers/STM32L4xx_HAL_Driver/Src/stm32l4xx_hal_spi.c **** }
 5207              		.loc 1 2818 1
 5208 01de 2037     		adds	r7, r7, #32
 5209              		.cfi_def_cfa_offset 8
 5210 01e0 BD46     		mov	sp, r7
 5211              		.cfi_def_cfa_register 13
 5212              		@ sp needed
 5213 01e2 80BD     		pop	{r7, pc}
 5214              	.L272:
 5215              		.align	2
 5216              	.L271:
 5217 01e4 00000000 		.word	SPI_DMAAbortOnError
 5218              		.cfi_endproc
 5219              	.LFE339:
 5221              		.section	.text.HAL_SPI_TxCpltCallback,"ax",%progbits
 5222              		.align	1
 5223              		.weak	HAL_SPI_TxCpltCallback
 5224              		.syntax unified
 5225              		.thumb
 5226              		.thumb_func
 5228              	HAL_SPI_TxCpltCallback:
 5229              	.LFB340:
2819:Drivers/STM32L4xx_HAL_Driver/Src/stm32l4xx_hal_spi.c **** 
2820:Drivers/STM32L4xx_HAL_Driver/Src/stm32l4xx_hal_spi.c **** /**
ARM GAS  C:\Users\Morroway\AppData\Local\Temp\ccCQJjHM.s 			page 142


2821:Drivers/STM32L4xx_HAL_Driver/Src/stm32l4xx_hal_spi.c ****   * @brief  Tx Transfer completed callback.
2822:Drivers/STM32L4xx_HAL_Driver/Src/stm32l4xx_hal_spi.c ****   * @param  hspi pointer to a SPI_HandleTypeDef structure that contains
2823:Drivers/STM32L4xx_HAL_Driver/Src/stm32l4xx_hal_spi.c ****   *               the configuration information for SPI module.
2824:Drivers/STM32L4xx_HAL_Driver/Src/stm32l4xx_hal_spi.c ****   * @retval None
2825:Drivers/STM32L4xx_HAL_Driver/Src/stm32l4xx_hal_spi.c ****   */
2826:Drivers/STM32L4xx_HAL_Driver/Src/stm32l4xx_hal_spi.c **** __weak void HAL_SPI_TxCpltCallback(SPI_HandleTypeDef *hspi)
2827:Drivers/STM32L4xx_HAL_Driver/Src/stm32l4xx_hal_spi.c **** {
 5230              		.loc 1 2827 1
 5231              		.cfi_startproc
 5232              		@ args = 0, pretend = 0, frame = 8
 5233              		@ frame_needed = 1, uses_anonymous_args = 0
 5234              		@ link register save eliminated.
 5235 0000 80B4     		push	{r7}
 5236              		.cfi_def_cfa_offset 4
 5237              		.cfi_offset 7, -4
 5238 0002 83B0     		sub	sp, sp, #12
 5239              		.cfi_def_cfa_offset 16
 5240 0004 00AF     		add	r7, sp, #0
 5241              		.cfi_def_cfa_register 7
 5242 0006 7860     		str	r0, [r7, #4]
2828:Drivers/STM32L4xx_HAL_Driver/Src/stm32l4xx_hal_spi.c ****   /* Prevent unused argument(s) compilation warning */
2829:Drivers/STM32L4xx_HAL_Driver/Src/stm32l4xx_hal_spi.c ****   UNUSED(hspi);
2830:Drivers/STM32L4xx_HAL_Driver/Src/stm32l4xx_hal_spi.c **** 
2831:Drivers/STM32L4xx_HAL_Driver/Src/stm32l4xx_hal_spi.c ****   /* NOTE : This function should not be modified, when the callback is needed,
2832:Drivers/STM32L4xx_HAL_Driver/Src/stm32l4xx_hal_spi.c ****             the HAL_SPI_TxCpltCallback should be implemented in the user file
2833:Drivers/STM32L4xx_HAL_Driver/Src/stm32l4xx_hal_spi.c ****    */
2834:Drivers/STM32L4xx_HAL_Driver/Src/stm32l4xx_hal_spi.c **** }
 5243              		.loc 1 2834 1
 5244 0008 00BF     		nop
 5245 000a 0C37     		adds	r7, r7, #12
 5246              		.cfi_def_cfa_offset 4
 5247 000c BD46     		mov	sp, r7
 5248              		.cfi_def_cfa_register 13
 5249              		@ sp needed
 5250 000e 5DF8047B 		ldr	r7, [sp], #4
 5251              		.cfi_restore 7
 5252              		.cfi_def_cfa_offset 0
 5253 0012 7047     		bx	lr
 5254              		.cfi_endproc
 5255              	.LFE340:
 5257              		.section	.text.HAL_SPI_RxCpltCallback,"ax",%progbits
 5258              		.align	1
 5259              		.weak	HAL_SPI_RxCpltCallback
 5260              		.syntax unified
 5261              		.thumb
 5262              		.thumb_func
 5264              	HAL_SPI_RxCpltCallback:
 5265              	.LFB341:
2835:Drivers/STM32L4xx_HAL_Driver/Src/stm32l4xx_hal_spi.c **** 
2836:Drivers/STM32L4xx_HAL_Driver/Src/stm32l4xx_hal_spi.c **** /**
2837:Drivers/STM32L4xx_HAL_Driver/Src/stm32l4xx_hal_spi.c ****   * @brief  Rx Transfer completed callback.
2838:Drivers/STM32L4xx_HAL_Driver/Src/stm32l4xx_hal_spi.c ****   * @param  hspi pointer to a SPI_HandleTypeDef structure that contains
2839:Drivers/STM32L4xx_HAL_Driver/Src/stm32l4xx_hal_spi.c ****   *               the configuration information for SPI module.
2840:Drivers/STM32L4xx_HAL_Driver/Src/stm32l4xx_hal_spi.c ****   * @retval None
2841:Drivers/STM32L4xx_HAL_Driver/Src/stm32l4xx_hal_spi.c ****   */
2842:Drivers/STM32L4xx_HAL_Driver/Src/stm32l4xx_hal_spi.c **** __weak void HAL_SPI_RxCpltCallback(SPI_HandleTypeDef *hspi)
2843:Drivers/STM32L4xx_HAL_Driver/Src/stm32l4xx_hal_spi.c **** {
ARM GAS  C:\Users\Morroway\AppData\Local\Temp\ccCQJjHM.s 			page 143


 5266              		.loc 1 2843 1
 5267              		.cfi_startproc
 5268              		@ args = 0, pretend = 0, frame = 8
 5269              		@ frame_needed = 1, uses_anonymous_args = 0
 5270              		@ link register save eliminated.
 5271 0000 80B4     		push	{r7}
 5272              		.cfi_def_cfa_offset 4
 5273              		.cfi_offset 7, -4
 5274 0002 83B0     		sub	sp, sp, #12
 5275              		.cfi_def_cfa_offset 16
 5276 0004 00AF     		add	r7, sp, #0
 5277              		.cfi_def_cfa_register 7
 5278 0006 7860     		str	r0, [r7, #4]
2844:Drivers/STM32L4xx_HAL_Driver/Src/stm32l4xx_hal_spi.c ****   /* Prevent unused argument(s) compilation warning */
2845:Drivers/STM32L4xx_HAL_Driver/Src/stm32l4xx_hal_spi.c ****   UNUSED(hspi);
2846:Drivers/STM32L4xx_HAL_Driver/Src/stm32l4xx_hal_spi.c **** 
2847:Drivers/STM32L4xx_HAL_Driver/Src/stm32l4xx_hal_spi.c ****   /* NOTE : This function should not be modified, when the callback is needed,
2848:Drivers/STM32L4xx_HAL_Driver/Src/stm32l4xx_hal_spi.c ****             the HAL_SPI_RxCpltCallback should be implemented in the user file
2849:Drivers/STM32L4xx_HAL_Driver/Src/stm32l4xx_hal_spi.c ****    */
2850:Drivers/STM32L4xx_HAL_Driver/Src/stm32l4xx_hal_spi.c **** }
 5279              		.loc 1 2850 1
 5280 0008 00BF     		nop
 5281 000a 0C37     		adds	r7, r7, #12
 5282              		.cfi_def_cfa_offset 4
 5283 000c BD46     		mov	sp, r7
 5284              		.cfi_def_cfa_register 13
 5285              		@ sp needed
 5286 000e 5DF8047B 		ldr	r7, [sp], #4
 5287              		.cfi_restore 7
 5288              		.cfi_def_cfa_offset 0
 5289 0012 7047     		bx	lr
 5290              		.cfi_endproc
 5291              	.LFE341:
 5293              		.section	.text.HAL_SPI_TxRxCpltCallback,"ax",%progbits
 5294              		.align	1
 5295              		.weak	HAL_SPI_TxRxCpltCallback
 5296              		.syntax unified
 5297              		.thumb
 5298              		.thumb_func
 5300              	HAL_SPI_TxRxCpltCallback:
 5301              	.LFB342:
2851:Drivers/STM32L4xx_HAL_Driver/Src/stm32l4xx_hal_spi.c **** 
2852:Drivers/STM32L4xx_HAL_Driver/Src/stm32l4xx_hal_spi.c **** /**
2853:Drivers/STM32L4xx_HAL_Driver/Src/stm32l4xx_hal_spi.c ****   * @brief  Tx and Rx Transfer completed callback.
2854:Drivers/STM32L4xx_HAL_Driver/Src/stm32l4xx_hal_spi.c ****   * @param  hspi pointer to a SPI_HandleTypeDef structure that contains
2855:Drivers/STM32L4xx_HAL_Driver/Src/stm32l4xx_hal_spi.c ****   *               the configuration information for SPI module.
2856:Drivers/STM32L4xx_HAL_Driver/Src/stm32l4xx_hal_spi.c ****   * @retval None
2857:Drivers/STM32L4xx_HAL_Driver/Src/stm32l4xx_hal_spi.c ****   */
2858:Drivers/STM32L4xx_HAL_Driver/Src/stm32l4xx_hal_spi.c **** __weak void HAL_SPI_TxRxCpltCallback(SPI_HandleTypeDef *hspi)
2859:Drivers/STM32L4xx_HAL_Driver/Src/stm32l4xx_hal_spi.c **** {
 5302              		.loc 1 2859 1
 5303              		.cfi_startproc
 5304              		@ args = 0, pretend = 0, frame = 8
 5305              		@ frame_needed = 1, uses_anonymous_args = 0
 5306              		@ link register save eliminated.
 5307 0000 80B4     		push	{r7}
 5308              		.cfi_def_cfa_offset 4
ARM GAS  C:\Users\Morroway\AppData\Local\Temp\ccCQJjHM.s 			page 144


 5309              		.cfi_offset 7, -4
 5310 0002 83B0     		sub	sp, sp, #12
 5311              		.cfi_def_cfa_offset 16
 5312 0004 00AF     		add	r7, sp, #0
 5313              		.cfi_def_cfa_register 7
 5314 0006 7860     		str	r0, [r7, #4]
2860:Drivers/STM32L4xx_HAL_Driver/Src/stm32l4xx_hal_spi.c ****   /* Prevent unused argument(s) compilation warning */
2861:Drivers/STM32L4xx_HAL_Driver/Src/stm32l4xx_hal_spi.c ****   UNUSED(hspi);
2862:Drivers/STM32L4xx_HAL_Driver/Src/stm32l4xx_hal_spi.c **** 
2863:Drivers/STM32L4xx_HAL_Driver/Src/stm32l4xx_hal_spi.c ****   /* NOTE : This function should not be modified, when the callback is needed,
2864:Drivers/STM32L4xx_HAL_Driver/Src/stm32l4xx_hal_spi.c ****             the HAL_SPI_TxRxCpltCallback should be implemented in the user file
2865:Drivers/STM32L4xx_HAL_Driver/Src/stm32l4xx_hal_spi.c ****    */
2866:Drivers/STM32L4xx_HAL_Driver/Src/stm32l4xx_hal_spi.c **** }
 5315              		.loc 1 2866 1
 5316 0008 00BF     		nop
 5317 000a 0C37     		adds	r7, r7, #12
 5318              		.cfi_def_cfa_offset 4
 5319 000c BD46     		mov	sp, r7
 5320              		.cfi_def_cfa_register 13
 5321              		@ sp needed
 5322 000e 5DF8047B 		ldr	r7, [sp], #4
 5323              		.cfi_restore 7
 5324              		.cfi_def_cfa_offset 0
 5325 0012 7047     		bx	lr
 5326              		.cfi_endproc
 5327              	.LFE342:
 5329              		.section	.text.HAL_SPI_TxHalfCpltCallback,"ax",%progbits
 5330              		.align	1
 5331              		.weak	HAL_SPI_TxHalfCpltCallback
 5332              		.syntax unified
 5333              		.thumb
 5334              		.thumb_func
 5336              	HAL_SPI_TxHalfCpltCallback:
 5337              	.LFB343:
2867:Drivers/STM32L4xx_HAL_Driver/Src/stm32l4xx_hal_spi.c **** 
2868:Drivers/STM32L4xx_HAL_Driver/Src/stm32l4xx_hal_spi.c **** /**
2869:Drivers/STM32L4xx_HAL_Driver/Src/stm32l4xx_hal_spi.c ****   * @brief  Tx Half Transfer completed callback.
2870:Drivers/STM32L4xx_HAL_Driver/Src/stm32l4xx_hal_spi.c ****   * @param  hspi pointer to a SPI_HandleTypeDef structure that contains
2871:Drivers/STM32L4xx_HAL_Driver/Src/stm32l4xx_hal_spi.c ****   *               the configuration information for SPI module.
2872:Drivers/STM32L4xx_HAL_Driver/Src/stm32l4xx_hal_spi.c ****   * @retval None
2873:Drivers/STM32L4xx_HAL_Driver/Src/stm32l4xx_hal_spi.c ****   */
2874:Drivers/STM32L4xx_HAL_Driver/Src/stm32l4xx_hal_spi.c **** __weak void HAL_SPI_TxHalfCpltCallback(SPI_HandleTypeDef *hspi)
2875:Drivers/STM32L4xx_HAL_Driver/Src/stm32l4xx_hal_spi.c **** {
 5338              		.loc 1 2875 1
 5339              		.cfi_startproc
 5340              		@ args = 0, pretend = 0, frame = 8
 5341              		@ frame_needed = 1, uses_anonymous_args = 0
 5342              		@ link register save eliminated.
 5343 0000 80B4     		push	{r7}
 5344              		.cfi_def_cfa_offset 4
 5345              		.cfi_offset 7, -4
 5346 0002 83B0     		sub	sp, sp, #12
 5347              		.cfi_def_cfa_offset 16
 5348 0004 00AF     		add	r7, sp, #0
 5349              		.cfi_def_cfa_register 7
 5350 0006 7860     		str	r0, [r7, #4]
2876:Drivers/STM32L4xx_HAL_Driver/Src/stm32l4xx_hal_spi.c ****   /* Prevent unused argument(s) compilation warning */
ARM GAS  C:\Users\Morroway\AppData\Local\Temp\ccCQJjHM.s 			page 145


2877:Drivers/STM32L4xx_HAL_Driver/Src/stm32l4xx_hal_spi.c ****   UNUSED(hspi);
2878:Drivers/STM32L4xx_HAL_Driver/Src/stm32l4xx_hal_spi.c **** 
2879:Drivers/STM32L4xx_HAL_Driver/Src/stm32l4xx_hal_spi.c ****   /* NOTE : This function should not be modified, when the callback is needed,
2880:Drivers/STM32L4xx_HAL_Driver/Src/stm32l4xx_hal_spi.c ****             the HAL_SPI_TxHalfCpltCallback should be implemented in the user file
2881:Drivers/STM32L4xx_HAL_Driver/Src/stm32l4xx_hal_spi.c ****    */
2882:Drivers/STM32L4xx_HAL_Driver/Src/stm32l4xx_hal_spi.c **** }
 5351              		.loc 1 2882 1
 5352 0008 00BF     		nop
 5353 000a 0C37     		adds	r7, r7, #12
 5354              		.cfi_def_cfa_offset 4
 5355 000c BD46     		mov	sp, r7
 5356              		.cfi_def_cfa_register 13
 5357              		@ sp needed
 5358 000e 5DF8047B 		ldr	r7, [sp], #4
 5359              		.cfi_restore 7
 5360              		.cfi_def_cfa_offset 0
 5361 0012 7047     		bx	lr
 5362              		.cfi_endproc
 5363              	.LFE343:
 5365              		.section	.text.HAL_SPI_RxHalfCpltCallback,"ax",%progbits
 5366              		.align	1
 5367              		.weak	HAL_SPI_RxHalfCpltCallback
 5368              		.syntax unified
 5369              		.thumb
 5370              		.thumb_func
 5372              	HAL_SPI_RxHalfCpltCallback:
 5373              	.LFB344:
2883:Drivers/STM32L4xx_HAL_Driver/Src/stm32l4xx_hal_spi.c **** 
2884:Drivers/STM32L4xx_HAL_Driver/Src/stm32l4xx_hal_spi.c **** /**
2885:Drivers/STM32L4xx_HAL_Driver/Src/stm32l4xx_hal_spi.c ****   * @brief  Rx Half Transfer completed callback.
2886:Drivers/STM32L4xx_HAL_Driver/Src/stm32l4xx_hal_spi.c ****   * @param  hspi pointer to a SPI_HandleTypeDef structure that contains
2887:Drivers/STM32L4xx_HAL_Driver/Src/stm32l4xx_hal_spi.c ****   *               the configuration information for SPI module.
2888:Drivers/STM32L4xx_HAL_Driver/Src/stm32l4xx_hal_spi.c ****   * @retval None
2889:Drivers/STM32L4xx_HAL_Driver/Src/stm32l4xx_hal_spi.c ****   */
2890:Drivers/STM32L4xx_HAL_Driver/Src/stm32l4xx_hal_spi.c **** __weak void HAL_SPI_RxHalfCpltCallback(SPI_HandleTypeDef *hspi)
2891:Drivers/STM32L4xx_HAL_Driver/Src/stm32l4xx_hal_spi.c **** {
 5374              		.loc 1 2891 1
 5375              		.cfi_startproc
 5376              		@ args = 0, pretend = 0, frame = 8
 5377              		@ frame_needed = 1, uses_anonymous_args = 0
 5378              		@ link register save eliminated.
 5379 0000 80B4     		push	{r7}
 5380              		.cfi_def_cfa_offset 4
 5381              		.cfi_offset 7, -4
 5382 0002 83B0     		sub	sp, sp, #12
 5383              		.cfi_def_cfa_offset 16
 5384 0004 00AF     		add	r7, sp, #0
 5385              		.cfi_def_cfa_register 7
 5386 0006 7860     		str	r0, [r7, #4]
2892:Drivers/STM32L4xx_HAL_Driver/Src/stm32l4xx_hal_spi.c ****   /* Prevent unused argument(s) compilation warning */
2893:Drivers/STM32L4xx_HAL_Driver/Src/stm32l4xx_hal_spi.c ****   UNUSED(hspi);
2894:Drivers/STM32L4xx_HAL_Driver/Src/stm32l4xx_hal_spi.c **** 
2895:Drivers/STM32L4xx_HAL_Driver/Src/stm32l4xx_hal_spi.c ****   /* NOTE : This function should not be modified, when the callback is needed,
2896:Drivers/STM32L4xx_HAL_Driver/Src/stm32l4xx_hal_spi.c ****             the HAL_SPI_RxHalfCpltCallback() should be implemented in the user file
2897:Drivers/STM32L4xx_HAL_Driver/Src/stm32l4xx_hal_spi.c ****    */
2898:Drivers/STM32L4xx_HAL_Driver/Src/stm32l4xx_hal_spi.c **** }
 5387              		.loc 1 2898 1
ARM GAS  C:\Users\Morroway\AppData\Local\Temp\ccCQJjHM.s 			page 146


 5388 0008 00BF     		nop
 5389 000a 0C37     		adds	r7, r7, #12
 5390              		.cfi_def_cfa_offset 4
 5391 000c BD46     		mov	sp, r7
 5392              		.cfi_def_cfa_register 13
 5393              		@ sp needed
 5394 000e 5DF8047B 		ldr	r7, [sp], #4
 5395              		.cfi_restore 7
 5396              		.cfi_def_cfa_offset 0
 5397 0012 7047     		bx	lr
 5398              		.cfi_endproc
 5399              	.LFE344:
 5401              		.section	.text.HAL_SPI_TxRxHalfCpltCallback,"ax",%progbits
 5402              		.align	1
 5403              		.weak	HAL_SPI_TxRxHalfCpltCallback
 5404              		.syntax unified
 5405              		.thumb
 5406              		.thumb_func
 5408              	HAL_SPI_TxRxHalfCpltCallback:
 5409              	.LFB345:
2899:Drivers/STM32L4xx_HAL_Driver/Src/stm32l4xx_hal_spi.c **** 
2900:Drivers/STM32L4xx_HAL_Driver/Src/stm32l4xx_hal_spi.c **** /**
2901:Drivers/STM32L4xx_HAL_Driver/Src/stm32l4xx_hal_spi.c ****   * @brief  Tx and Rx Half Transfer callback.
2902:Drivers/STM32L4xx_HAL_Driver/Src/stm32l4xx_hal_spi.c ****   * @param  hspi pointer to a SPI_HandleTypeDef structure that contains
2903:Drivers/STM32L4xx_HAL_Driver/Src/stm32l4xx_hal_spi.c ****   *               the configuration information for SPI module.
2904:Drivers/STM32L4xx_HAL_Driver/Src/stm32l4xx_hal_spi.c ****   * @retval None
2905:Drivers/STM32L4xx_HAL_Driver/Src/stm32l4xx_hal_spi.c ****   */
2906:Drivers/STM32L4xx_HAL_Driver/Src/stm32l4xx_hal_spi.c **** __weak void HAL_SPI_TxRxHalfCpltCallback(SPI_HandleTypeDef *hspi)
2907:Drivers/STM32L4xx_HAL_Driver/Src/stm32l4xx_hal_spi.c **** {
 5410              		.loc 1 2907 1
 5411              		.cfi_startproc
 5412              		@ args = 0, pretend = 0, frame = 8
 5413              		@ frame_needed = 1, uses_anonymous_args = 0
 5414              		@ link register save eliminated.
 5415 0000 80B4     		push	{r7}
 5416              		.cfi_def_cfa_offset 4
 5417              		.cfi_offset 7, -4
 5418 0002 83B0     		sub	sp, sp, #12
 5419              		.cfi_def_cfa_offset 16
 5420 0004 00AF     		add	r7, sp, #0
 5421              		.cfi_def_cfa_register 7
 5422 0006 7860     		str	r0, [r7, #4]
2908:Drivers/STM32L4xx_HAL_Driver/Src/stm32l4xx_hal_spi.c ****   /* Prevent unused argument(s) compilation warning */
2909:Drivers/STM32L4xx_HAL_Driver/Src/stm32l4xx_hal_spi.c ****   UNUSED(hspi);
2910:Drivers/STM32L4xx_HAL_Driver/Src/stm32l4xx_hal_spi.c **** 
2911:Drivers/STM32L4xx_HAL_Driver/Src/stm32l4xx_hal_spi.c ****   /* NOTE : This function should not be modified, when the callback is needed,
2912:Drivers/STM32L4xx_HAL_Driver/Src/stm32l4xx_hal_spi.c ****             the HAL_SPI_TxRxHalfCpltCallback() should be implemented in the user file
2913:Drivers/STM32L4xx_HAL_Driver/Src/stm32l4xx_hal_spi.c ****    */
2914:Drivers/STM32L4xx_HAL_Driver/Src/stm32l4xx_hal_spi.c **** }
 5423              		.loc 1 2914 1
 5424 0008 00BF     		nop
 5425 000a 0C37     		adds	r7, r7, #12
 5426              		.cfi_def_cfa_offset 4
 5427 000c BD46     		mov	sp, r7
 5428              		.cfi_def_cfa_register 13
 5429              		@ sp needed
 5430 000e 5DF8047B 		ldr	r7, [sp], #4
ARM GAS  C:\Users\Morroway\AppData\Local\Temp\ccCQJjHM.s 			page 147


 5431              		.cfi_restore 7
 5432              		.cfi_def_cfa_offset 0
 5433 0012 7047     		bx	lr
 5434              		.cfi_endproc
 5435              	.LFE345:
 5437              		.section	.text.HAL_SPI_ErrorCallback,"ax",%progbits
 5438              		.align	1
 5439              		.weak	HAL_SPI_ErrorCallback
 5440              		.syntax unified
 5441              		.thumb
 5442              		.thumb_func
 5444              	HAL_SPI_ErrorCallback:
 5445              	.LFB346:
2915:Drivers/STM32L4xx_HAL_Driver/Src/stm32l4xx_hal_spi.c **** 
2916:Drivers/STM32L4xx_HAL_Driver/Src/stm32l4xx_hal_spi.c **** /**
2917:Drivers/STM32L4xx_HAL_Driver/Src/stm32l4xx_hal_spi.c ****   * @brief  SPI error callback.
2918:Drivers/STM32L4xx_HAL_Driver/Src/stm32l4xx_hal_spi.c ****   * @param  hspi pointer to a SPI_HandleTypeDef structure that contains
2919:Drivers/STM32L4xx_HAL_Driver/Src/stm32l4xx_hal_spi.c ****   *               the configuration information for SPI module.
2920:Drivers/STM32L4xx_HAL_Driver/Src/stm32l4xx_hal_spi.c ****   * @retval None
2921:Drivers/STM32L4xx_HAL_Driver/Src/stm32l4xx_hal_spi.c ****   */
2922:Drivers/STM32L4xx_HAL_Driver/Src/stm32l4xx_hal_spi.c **** __weak void HAL_SPI_ErrorCallback(SPI_HandleTypeDef *hspi)
2923:Drivers/STM32L4xx_HAL_Driver/Src/stm32l4xx_hal_spi.c **** {
 5446              		.loc 1 2923 1
 5447              		.cfi_startproc
 5448              		@ args = 0, pretend = 0, frame = 8
 5449              		@ frame_needed = 1, uses_anonymous_args = 0
 5450              		@ link register save eliminated.
 5451 0000 80B4     		push	{r7}
 5452              		.cfi_def_cfa_offset 4
 5453              		.cfi_offset 7, -4
 5454 0002 83B0     		sub	sp, sp, #12
 5455              		.cfi_def_cfa_offset 16
 5456 0004 00AF     		add	r7, sp, #0
 5457              		.cfi_def_cfa_register 7
 5458 0006 7860     		str	r0, [r7, #4]
2924:Drivers/STM32L4xx_HAL_Driver/Src/stm32l4xx_hal_spi.c ****   /* Prevent unused argument(s) compilation warning */
2925:Drivers/STM32L4xx_HAL_Driver/Src/stm32l4xx_hal_spi.c ****   UNUSED(hspi);
2926:Drivers/STM32L4xx_HAL_Driver/Src/stm32l4xx_hal_spi.c **** 
2927:Drivers/STM32L4xx_HAL_Driver/Src/stm32l4xx_hal_spi.c ****   /* NOTE : This function should not be modified, when the callback is needed,
2928:Drivers/STM32L4xx_HAL_Driver/Src/stm32l4xx_hal_spi.c ****             the HAL_SPI_ErrorCallback should be implemented in the user file
2929:Drivers/STM32L4xx_HAL_Driver/Src/stm32l4xx_hal_spi.c ****    */
2930:Drivers/STM32L4xx_HAL_Driver/Src/stm32l4xx_hal_spi.c ****   /* NOTE : The ErrorCode parameter in the hspi handle is updated by the SPI processes
2931:Drivers/STM32L4xx_HAL_Driver/Src/stm32l4xx_hal_spi.c ****             and user can use HAL_SPI_GetError() API to check the latest error occurred
2932:Drivers/STM32L4xx_HAL_Driver/Src/stm32l4xx_hal_spi.c ****    */
2933:Drivers/STM32L4xx_HAL_Driver/Src/stm32l4xx_hal_spi.c **** }
 5459              		.loc 1 2933 1
 5460 0008 00BF     		nop
 5461 000a 0C37     		adds	r7, r7, #12
 5462              		.cfi_def_cfa_offset 4
 5463 000c BD46     		mov	sp, r7
 5464              		.cfi_def_cfa_register 13
 5465              		@ sp needed
 5466 000e 5DF8047B 		ldr	r7, [sp], #4
 5467              		.cfi_restore 7
 5468              		.cfi_def_cfa_offset 0
 5469 0012 7047     		bx	lr
 5470              		.cfi_endproc
ARM GAS  C:\Users\Morroway\AppData\Local\Temp\ccCQJjHM.s 			page 148


 5471              	.LFE346:
 5473              		.section	.text.HAL_SPI_AbortCpltCallback,"ax",%progbits
 5474              		.align	1
 5475              		.weak	HAL_SPI_AbortCpltCallback
 5476              		.syntax unified
 5477              		.thumb
 5478              		.thumb_func
 5480              	HAL_SPI_AbortCpltCallback:
 5481              	.LFB347:
2934:Drivers/STM32L4xx_HAL_Driver/Src/stm32l4xx_hal_spi.c **** 
2935:Drivers/STM32L4xx_HAL_Driver/Src/stm32l4xx_hal_spi.c **** /**
2936:Drivers/STM32L4xx_HAL_Driver/Src/stm32l4xx_hal_spi.c ****   * @brief  SPI Abort Complete callback.
2937:Drivers/STM32L4xx_HAL_Driver/Src/stm32l4xx_hal_spi.c ****   * @param  hspi SPI handle.
2938:Drivers/STM32L4xx_HAL_Driver/Src/stm32l4xx_hal_spi.c ****   * @retval None
2939:Drivers/STM32L4xx_HAL_Driver/Src/stm32l4xx_hal_spi.c ****   */
2940:Drivers/STM32L4xx_HAL_Driver/Src/stm32l4xx_hal_spi.c **** __weak void HAL_SPI_AbortCpltCallback(SPI_HandleTypeDef *hspi)
2941:Drivers/STM32L4xx_HAL_Driver/Src/stm32l4xx_hal_spi.c **** {
 5482              		.loc 1 2941 1
 5483              		.cfi_startproc
 5484              		@ args = 0, pretend = 0, frame = 8
 5485              		@ frame_needed = 1, uses_anonymous_args = 0
 5486              		@ link register save eliminated.
 5487 0000 80B4     		push	{r7}
 5488              		.cfi_def_cfa_offset 4
 5489              		.cfi_offset 7, -4
 5490 0002 83B0     		sub	sp, sp, #12
 5491              		.cfi_def_cfa_offset 16
 5492 0004 00AF     		add	r7, sp, #0
 5493              		.cfi_def_cfa_register 7
 5494 0006 7860     		str	r0, [r7, #4]
2942:Drivers/STM32L4xx_HAL_Driver/Src/stm32l4xx_hal_spi.c ****   /* Prevent unused argument(s) compilation warning */
2943:Drivers/STM32L4xx_HAL_Driver/Src/stm32l4xx_hal_spi.c ****   UNUSED(hspi);
2944:Drivers/STM32L4xx_HAL_Driver/Src/stm32l4xx_hal_spi.c **** 
2945:Drivers/STM32L4xx_HAL_Driver/Src/stm32l4xx_hal_spi.c ****   /* NOTE : This function should not be modified, when the callback is needed,
2946:Drivers/STM32L4xx_HAL_Driver/Src/stm32l4xx_hal_spi.c ****             the HAL_SPI_AbortCpltCallback can be implemented in the user file.
2947:Drivers/STM32L4xx_HAL_Driver/Src/stm32l4xx_hal_spi.c ****    */
2948:Drivers/STM32L4xx_HAL_Driver/Src/stm32l4xx_hal_spi.c **** }
 5495              		.loc 1 2948 1
 5496 0008 00BF     		nop
 5497 000a 0C37     		adds	r7, r7, #12
 5498              		.cfi_def_cfa_offset 4
 5499 000c BD46     		mov	sp, r7
 5500              		.cfi_def_cfa_register 13
 5501              		@ sp needed
 5502 000e 5DF8047B 		ldr	r7, [sp], #4
 5503              		.cfi_restore 7
 5504              		.cfi_def_cfa_offset 0
 5505 0012 7047     		bx	lr
 5506              		.cfi_endproc
 5507              	.LFE347:
 5509              		.section	.text.HAL_SPI_GetState,"ax",%progbits
 5510              		.align	1
 5511              		.global	HAL_SPI_GetState
 5512              		.syntax unified
 5513              		.thumb
 5514              		.thumb_func
 5516              	HAL_SPI_GetState:
ARM GAS  C:\Users\Morroway\AppData\Local\Temp\ccCQJjHM.s 			page 149


 5517              	.LFB348:
2949:Drivers/STM32L4xx_HAL_Driver/Src/stm32l4xx_hal_spi.c **** 
2950:Drivers/STM32L4xx_HAL_Driver/Src/stm32l4xx_hal_spi.c **** /**
2951:Drivers/STM32L4xx_HAL_Driver/Src/stm32l4xx_hal_spi.c ****   * @}
2952:Drivers/STM32L4xx_HAL_Driver/Src/stm32l4xx_hal_spi.c ****   */
2953:Drivers/STM32L4xx_HAL_Driver/Src/stm32l4xx_hal_spi.c **** 
2954:Drivers/STM32L4xx_HAL_Driver/Src/stm32l4xx_hal_spi.c **** /** @defgroup SPI_Exported_Functions_Group3 Peripheral State and Errors functions
2955:Drivers/STM32L4xx_HAL_Driver/Src/stm32l4xx_hal_spi.c ****   * @brief   SPI control functions
2956:Drivers/STM32L4xx_HAL_Driver/Src/stm32l4xx_hal_spi.c ****   *
2957:Drivers/STM32L4xx_HAL_Driver/Src/stm32l4xx_hal_spi.c **** @verbatim
2958:Drivers/STM32L4xx_HAL_Driver/Src/stm32l4xx_hal_spi.c ****  ===============================================================================
2959:Drivers/STM32L4xx_HAL_Driver/Src/stm32l4xx_hal_spi.c ****                       ##### Peripheral State and Errors functions #####
2960:Drivers/STM32L4xx_HAL_Driver/Src/stm32l4xx_hal_spi.c ****  ===============================================================================
2961:Drivers/STM32L4xx_HAL_Driver/Src/stm32l4xx_hal_spi.c ****     [..]
2962:Drivers/STM32L4xx_HAL_Driver/Src/stm32l4xx_hal_spi.c ****     This subsection provides a set of functions allowing to control the SPI.
2963:Drivers/STM32L4xx_HAL_Driver/Src/stm32l4xx_hal_spi.c ****      (+) HAL_SPI_GetState() API can be helpful to check in run-time the state of the SPI peripheral
2964:Drivers/STM32L4xx_HAL_Driver/Src/stm32l4xx_hal_spi.c ****      (+) HAL_SPI_GetError() check in run-time Errors occurring during communication
2965:Drivers/STM32L4xx_HAL_Driver/Src/stm32l4xx_hal_spi.c **** @endverbatim
2966:Drivers/STM32L4xx_HAL_Driver/Src/stm32l4xx_hal_spi.c ****   * @{
2967:Drivers/STM32L4xx_HAL_Driver/Src/stm32l4xx_hal_spi.c ****   */
2968:Drivers/STM32L4xx_HAL_Driver/Src/stm32l4xx_hal_spi.c **** 
2969:Drivers/STM32L4xx_HAL_Driver/Src/stm32l4xx_hal_spi.c **** /**
2970:Drivers/STM32L4xx_HAL_Driver/Src/stm32l4xx_hal_spi.c ****   * @brief  Return the SPI handle state.
2971:Drivers/STM32L4xx_HAL_Driver/Src/stm32l4xx_hal_spi.c ****   * @param  hspi pointer to a SPI_HandleTypeDef structure that contains
2972:Drivers/STM32L4xx_HAL_Driver/Src/stm32l4xx_hal_spi.c ****   *               the configuration information for SPI module.
2973:Drivers/STM32L4xx_HAL_Driver/Src/stm32l4xx_hal_spi.c ****   * @retval SPI state
2974:Drivers/STM32L4xx_HAL_Driver/Src/stm32l4xx_hal_spi.c ****   */
2975:Drivers/STM32L4xx_HAL_Driver/Src/stm32l4xx_hal_spi.c **** HAL_SPI_StateTypeDef HAL_SPI_GetState(SPI_HandleTypeDef *hspi)
2976:Drivers/STM32L4xx_HAL_Driver/Src/stm32l4xx_hal_spi.c **** {
 5518              		.loc 1 2976 1
 5519              		.cfi_startproc
 5520              		@ args = 0, pretend = 0, frame = 8
 5521              		@ frame_needed = 1, uses_anonymous_args = 0
 5522              		@ link register save eliminated.
 5523 0000 80B4     		push	{r7}
 5524              		.cfi_def_cfa_offset 4
 5525              		.cfi_offset 7, -4
 5526 0002 83B0     		sub	sp, sp, #12
 5527              		.cfi_def_cfa_offset 16
 5528 0004 00AF     		add	r7, sp, #0
 5529              		.cfi_def_cfa_register 7
 5530 0006 7860     		str	r0, [r7, #4]
2977:Drivers/STM32L4xx_HAL_Driver/Src/stm32l4xx_hal_spi.c ****   /* Return SPI handle state */
2978:Drivers/STM32L4xx_HAL_Driver/Src/stm32l4xx_hal_spi.c ****   return hspi->State;
 5531              		.loc 1 2978 14
 5532 0008 7B68     		ldr	r3, [r7, #4]
 5533 000a 93F85D30 		ldrb	r3, [r3, #93]
 5534 000e DBB2     		uxtb	r3, r3
2979:Drivers/STM32L4xx_HAL_Driver/Src/stm32l4xx_hal_spi.c **** }
 5535              		.loc 1 2979 1
 5536 0010 1846     		mov	r0, r3
 5537 0012 0C37     		adds	r7, r7, #12
 5538              		.cfi_def_cfa_offset 4
 5539 0014 BD46     		mov	sp, r7
 5540              		.cfi_def_cfa_register 13
 5541              		@ sp needed
 5542 0016 5DF8047B 		ldr	r7, [sp], #4
ARM GAS  C:\Users\Morroway\AppData\Local\Temp\ccCQJjHM.s 			page 150


 5543              		.cfi_restore 7
 5544              		.cfi_def_cfa_offset 0
 5545 001a 7047     		bx	lr
 5546              		.cfi_endproc
 5547              	.LFE348:
 5549              		.section	.text.HAL_SPI_GetError,"ax",%progbits
 5550              		.align	1
 5551              		.global	HAL_SPI_GetError
 5552              		.syntax unified
 5553              		.thumb
 5554              		.thumb_func
 5556              	HAL_SPI_GetError:
 5557              	.LFB349:
2980:Drivers/STM32L4xx_HAL_Driver/Src/stm32l4xx_hal_spi.c **** 
2981:Drivers/STM32L4xx_HAL_Driver/Src/stm32l4xx_hal_spi.c **** /**
2982:Drivers/STM32L4xx_HAL_Driver/Src/stm32l4xx_hal_spi.c ****   * @brief  Return the SPI error code.
2983:Drivers/STM32L4xx_HAL_Driver/Src/stm32l4xx_hal_spi.c ****   * @param  hspi pointer to a SPI_HandleTypeDef structure that contains
2984:Drivers/STM32L4xx_HAL_Driver/Src/stm32l4xx_hal_spi.c ****   *               the configuration information for SPI module.
2985:Drivers/STM32L4xx_HAL_Driver/Src/stm32l4xx_hal_spi.c ****   * @retval SPI error code in bitmap format
2986:Drivers/STM32L4xx_HAL_Driver/Src/stm32l4xx_hal_spi.c ****   */
2987:Drivers/STM32L4xx_HAL_Driver/Src/stm32l4xx_hal_spi.c **** uint32_t HAL_SPI_GetError(SPI_HandleTypeDef *hspi)
2988:Drivers/STM32L4xx_HAL_Driver/Src/stm32l4xx_hal_spi.c **** {
 5558              		.loc 1 2988 1
 5559              		.cfi_startproc
 5560              		@ args = 0, pretend = 0, frame = 8
 5561              		@ frame_needed = 1, uses_anonymous_args = 0
 5562              		@ link register save eliminated.
 5563 0000 80B4     		push	{r7}
 5564              		.cfi_def_cfa_offset 4
 5565              		.cfi_offset 7, -4
 5566 0002 83B0     		sub	sp, sp, #12
 5567              		.cfi_def_cfa_offset 16
 5568 0004 00AF     		add	r7, sp, #0
 5569              		.cfi_def_cfa_register 7
 5570 0006 7860     		str	r0, [r7, #4]
2989:Drivers/STM32L4xx_HAL_Driver/Src/stm32l4xx_hal_spi.c ****   /* Return SPI ErrorCode */
2990:Drivers/STM32L4xx_HAL_Driver/Src/stm32l4xx_hal_spi.c ****   return hspi->ErrorCode;
 5571              		.loc 1 2990 14
 5572 0008 7B68     		ldr	r3, [r7, #4]
 5573 000a 1B6E     		ldr	r3, [r3, #96]
2991:Drivers/STM32L4xx_HAL_Driver/Src/stm32l4xx_hal_spi.c **** }
 5574              		.loc 1 2991 1
 5575 000c 1846     		mov	r0, r3
 5576 000e 0C37     		adds	r7, r7, #12
 5577              		.cfi_def_cfa_offset 4
 5578 0010 BD46     		mov	sp, r7
 5579              		.cfi_def_cfa_register 13
 5580              		@ sp needed
 5581 0012 5DF8047B 		ldr	r7, [sp], #4
 5582              		.cfi_restore 7
 5583              		.cfi_def_cfa_offset 0
 5584 0016 7047     		bx	lr
 5585              		.cfi_endproc
 5586              	.LFE349:
 5588              		.section	.text.SPI_DMATransmitCplt,"ax",%progbits
 5589              		.align	1
 5590              		.syntax unified
ARM GAS  C:\Users\Morroway\AppData\Local\Temp\ccCQJjHM.s 			page 151


 5591              		.thumb
 5592              		.thumb_func
 5594              	SPI_DMATransmitCplt:
 5595              	.LFB350:
2992:Drivers/STM32L4xx_HAL_Driver/Src/stm32l4xx_hal_spi.c **** 
2993:Drivers/STM32L4xx_HAL_Driver/Src/stm32l4xx_hal_spi.c **** /**
2994:Drivers/STM32L4xx_HAL_Driver/Src/stm32l4xx_hal_spi.c ****   * @}
2995:Drivers/STM32L4xx_HAL_Driver/Src/stm32l4xx_hal_spi.c ****   */
2996:Drivers/STM32L4xx_HAL_Driver/Src/stm32l4xx_hal_spi.c **** 
2997:Drivers/STM32L4xx_HAL_Driver/Src/stm32l4xx_hal_spi.c **** /**
2998:Drivers/STM32L4xx_HAL_Driver/Src/stm32l4xx_hal_spi.c ****   * @}
2999:Drivers/STM32L4xx_HAL_Driver/Src/stm32l4xx_hal_spi.c ****   */
3000:Drivers/STM32L4xx_HAL_Driver/Src/stm32l4xx_hal_spi.c **** 
3001:Drivers/STM32L4xx_HAL_Driver/Src/stm32l4xx_hal_spi.c **** /** @addtogroup SPI_Private_Functions
3002:Drivers/STM32L4xx_HAL_Driver/Src/stm32l4xx_hal_spi.c ****   * @brief   Private functions
3003:Drivers/STM32L4xx_HAL_Driver/Src/stm32l4xx_hal_spi.c ****   * @{
3004:Drivers/STM32L4xx_HAL_Driver/Src/stm32l4xx_hal_spi.c ****   */
3005:Drivers/STM32L4xx_HAL_Driver/Src/stm32l4xx_hal_spi.c **** 
3006:Drivers/STM32L4xx_HAL_Driver/Src/stm32l4xx_hal_spi.c **** /**
3007:Drivers/STM32L4xx_HAL_Driver/Src/stm32l4xx_hal_spi.c ****   * @brief  DMA SPI transmit process complete callback.
3008:Drivers/STM32L4xx_HAL_Driver/Src/stm32l4xx_hal_spi.c ****   * @param  hdma pointer to a DMA_HandleTypeDef structure that contains
3009:Drivers/STM32L4xx_HAL_Driver/Src/stm32l4xx_hal_spi.c ****   *               the configuration information for the specified DMA module.
3010:Drivers/STM32L4xx_HAL_Driver/Src/stm32l4xx_hal_spi.c ****   * @retval None
3011:Drivers/STM32L4xx_HAL_Driver/Src/stm32l4xx_hal_spi.c ****   */
3012:Drivers/STM32L4xx_HAL_Driver/Src/stm32l4xx_hal_spi.c **** static void SPI_DMATransmitCplt(DMA_HandleTypeDef *hdma)
3013:Drivers/STM32L4xx_HAL_Driver/Src/stm32l4xx_hal_spi.c **** {
 5596              		.loc 1 3013 1
 5597              		.cfi_startproc
 5598              		@ args = 0, pretend = 0, frame = 24
 5599              		@ frame_needed = 1, uses_anonymous_args = 0
 5600 0000 80B5     		push	{r7, lr}
 5601              		.cfi_def_cfa_offset 8
 5602              		.cfi_offset 7, -8
 5603              		.cfi_offset 14, -4
 5604 0002 86B0     		sub	sp, sp, #24
 5605              		.cfi_def_cfa_offset 32
 5606 0004 00AF     		add	r7, sp, #0
 5607              		.cfi_def_cfa_register 7
 5608 0006 7860     		str	r0, [r7, #4]
3014:Drivers/STM32L4xx_HAL_Driver/Src/stm32l4xx_hal_spi.c ****   SPI_HandleTypeDef *hspi = (SPI_HandleTypeDef *)(((DMA_HandleTypeDef *)hdma)->Parent); /* Derogati
 5609              		.loc 1 3014 22
 5610 0008 7B68     		ldr	r3, [r7, #4]
 5611 000a 9B6A     		ldr	r3, [r3, #40]
 5612 000c 7B61     		str	r3, [r7, #20]
3015:Drivers/STM32L4xx_HAL_Driver/Src/stm32l4xx_hal_spi.c ****   uint32_t tickstart;
3016:Drivers/STM32L4xx_HAL_Driver/Src/stm32l4xx_hal_spi.c **** 
3017:Drivers/STM32L4xx_HAL_Driver/Src/stm32l4xx_hal_spi.c ****   /* Init tickstart for timeout management*/
3018:Drivers/STM32L4xx_HAL_Driver/Src/stm32l4xx_hal_spi.c ****   tickstart = HAL_GetTick();
 5613              		.loc 1 3018 15
 5614 000e FFF7FEFF 		bl	HAL_GetTick
 5615 0012 3861     		str	r0, [r7, #16]
3019:Drivers/STM32L4xx_HAL_Driver/Src/stm32l4xx_hal_spi.c **** 
3020:Drivers/STM32L4xx_HAL_Driver/Src/stm32l4xx_hal_spi.c ****   /* DMA Normal Mode */
3021:Drivers/STM32L4xx_HAL_Driver/Src/stm32l4xx_hal_spi.c ****   if ((hdma->Instance->CCR & DMA_CCR_CIRC) != DMA_CCR_CIRC)
 5616              		.loc 1 3021 12
 5617 0014 7B68     		ldr	r3, [r7, #4]
 5618 0016 1B68     		ldr	r3, [r3]
ARM GAS  C:\Users\Morroway\AppData\Local\Temp\ccCQJjHM.s 			page 152


 5619              		.loc 1 3021 22
 5620 0018 1B68     		ldr	r3, [r3]
 5621              		.loc 1 3021 28
 5622 001a 03F02003 		and	r3, r3, #32
 5623              		.loc 1 3021 6
 5624 001e 202B     		cmp	r3, #32
 5625 0020 3BD0     		beq	.L286
3022:Drivers/STM32L4xx_HAL_Driver/Src/stm32l4xx_hal_spi.c ****   {
3023:Drivers/STM32L4xx_HAL_Driver/Src/stm32l4xx_hal_spi.c ****     /* Disable ERR interrupt */
3024:Drivers/STM32L4xx_HAL_Driver/Src/stm32l4xx_hal_spi.c ****     __HAL_SPI_DISABLE_IT(hspi, SPI_IT_ERR);
 5626              		.loc 1 3024 5
 5627 0022 7B69     		ldr	r3, [r7, #20]
 5628 0024 1B68     		ldr	r3, [r3]
 5629 0026 5A68     		ldr	r2, [r3, #4]
 5630 0028 7B69     		ldr	r3, [r7, #20]
 5631 002a 1B68     		ldr	r3, [r3]
 5632 002c 22F02002 		bic	r2, r2, #32
 5633 0030 5A60     		str	r2, [r3, #4]
3025:Drivers/STM32L4xx_HAL_Driver/Src/stm32l4xx_hal_spi.c **** 
3026:Drivers/STM32L4xx_HAL_Driver/Src/stm32l4xx_hal_spi.c ****     /* Disable Tx DMA Request */
3027:Drivers/STM32L4xx_HAL_Driver/Src/stm32l4xx_hal_spi.c ****     CLEAR_BIT(hspi->Instance->CR2, SPI_CR2_TXDMAEN);
 5634              		.loc 1 3027 5
 5635 0032 7B69     		ldr	r3, [r7, #20]
 5636 0034 1B68     		ldr	r3, [r3]
 5637 0036 5A68     		ldr	r2, [r3, #4]
 5638 0038 7B69     		ldr	r3, [r7, #20]
 5639 003a 1B68     		ldr	r3, [r3]
 5640 003c 22F00202 		bic	r2, r2, #2
 5641 0040 5A60     		str	r2, [r3, #4]
3028:Drivers/STM32L4xx_HAL_Driver/Src/stm32l4xx_hal_spi.c **** 
3029:Drivers/STM32L4xx_HAL_Driver/Src/stm32l4xx_hal_spi.c ****     /* Check the end of the transaction */
3030:Drivers/STM32L4xx_HAL_Driver/Src/stm32l4xx_hal_spi.c ****     if (SPI_EndRxTxTransaction(hspi, SPI_DEFAULT_TIMEOUT, tickstart) != HAL_OK)
 5642              		.loc 1 3030 9
 5643 0042 3A69     		ldr	r2, [r7, #16]
 5644 0044 6421     		movs	r1, #100
 5645 0046 7869     		ldr	r0, [r7, #20]
 5646 0048 FFF7FEFF 		bl	SPI_EndRxTxTransaction
 5647 004c 0346     		mov	r3, r0
 5648              		.loc 1 3030 8
 5649 004e 002B     		cmp	r3, #0
 5650 0050 05D0     		beq	.L287
3031:Drivers/STM32L4xx_HAL_Driver/Src/stm32l4xx_hal_spi.c ****     {
3032:Drivers/STM32L4xx_HAL_Driver/Src/stm32l4xx_hal_spi.c ****       SET_BIT(hspi->ErrorCode, HAL_SPI_ERROR_FLAG);
 5651              		.loc 1 3032 7
 5652 0052 7B69     		ldr	r3, [r7, #20]
 5653 0054 1B6E     		ldr	r3, [r3, #96]
 5654 0056 43F02002 		orr	r2, r3, #32
 5655 005a 7B69     		ldr	r3, [r7, #20]
 5656 005c 1A66     		str	r2, [r3, #96]
 5657              	.L287:
3033:Drivers/STM32L4xx_HAL_Driver/Src/stm32l4xx_hal_spi.c ****     }
3034:Drivers/STM32L4xx_HAL_Driver/Src/stm32l4xx_hal_spi.c **** 
3035:Drivers/STM32L4xx_HAL_Driver/Src/stm32l4xx_hal_spi.c ****     /* Clear overrun flag in 2 Lines communication mode because received data is not read */
3036:Drivers/STM32L4xx_HAL_Driver/Src/stm32l4xx_hal_spi.c ****     if (hspi->Init.Direction == SPI_DIRECTION_2LINES)
 5658              		.loc 1 3036 19
 5659 005e 7B69     		ldr	r3, [r7, #20]
 5660 0060 9B68     		ldr	r3, [r3, #8]
ARM GAS  C:\Users\Morroway\AppData\Local\Temp\ccCQJjHM.s 			page 153


 5661              		.loc 1 3036 8
 5662 0062 002B     		cmp	r3, #0
 5663 0064 0AD1     		bne	.L288
 5664              	.LBB11:
3037:Drivers/STM32L4xx_HAL_Driver/Src/stm32l4xx_hal_spi.c ****     {
3038:Drivers/STM32L4xx_HAL_Driver/Src/stm32l4xx_hal_spi.c ****       __HAL_SPI_CLEAR_OVRFLAG(hspi);
 5665              		.loc 1 3038 7
 5666 0066 0023     		movs	r3, #0
 5667 0068 FB60     		str	r3, [r7, #12]
 5668 006a 7B69     		ldr	r3, [r7, #20]
 5669 006c 1B68     		ldr	r3, [r3]
 5670 006e DB68     		ldr	r3, [r3, #12]
 5671 0070 FB60     		str	r3, [r7, #12]
 5672 0072 7B69     		ldr	r3, [r7, #20]
 5673 0074 1B68     		ldr	r3, [r3]
 5674 0076 9B68     		ldr	r3, [r3, #8]
 5675 0078 FB60     		str	r3, [r7, #12]
 5676 007a FB68     		ldr	r3, [r7, #12]
 5677              	.L288:
 5678              	.LBE11:
3039:Drivers/STM32L4xx_HAL_Driver/Src/stm32l4xx_hal_spi.c ****     }
3040:Drivers/STM32L4xx_HAL_Driver/Src/stm32l4xx_hal_spi.c **** 
3041:Drivers/STM32L4xx_HAL_Driver/Src/stm32l4xx_hal_spi.c ****     hspi->TxXferCount = 0U;
 5679              		.loc 1 3041 23
 5680 007c 7B69     		ldr	r3, [r7, #20]
 5681 007e 0022     		movs	r2, #0
 5682 0080 DA87     		strh	r2, [r3, #62]	@ movhi
3042:Drivers/STM32L4xx_HAL_Driver/Src/stm32l4xx_hal_spi.c ****     hspi->State = HAL_SPI_STATE_READY;
 5683              		.loc 1 3042 17
 5684 0082 7B69     		ldr	r3, [r7, #20]
 5685 0084 0122     		movs	r2, #1
 5686 0086 83F85D20 		strb	r2, [r3, #93]
3043:Drivers/STM32L4xx_HAL_Driver/Src/stm32l4xx_hal_spi.c **** 
3044:Drivers/STM32L4xx_HAL_Driver/Src/stm32l4xx_hal_spi.c ****     if (hspi->ErrorCode != HAL_SPI_ERROR_NONE)
 5687              		.loc 1 3044 13
 5688 008a 7B69     		ldr	r3, [r7, #20]
 5689 008c 1B6E     		ldr	r3, [r3, #96]
 5690              		.loc 1 3044 8
 5691 008e 002B     		cmp	r3, #0
 5692 0090 03D0     		beq	.L286
3045:Drivers/STM32L4xx_HAL_Driver/Src/stm32l4xx_hal_spi.c ****     {
3046:Drivers/STM32L4xx_HAL_Driver/Src/stm32l4xx_hal_spi.c ****       /* Call user error callback */
3047:Drivers/STM32L4xx_HAL_Driver/Src/stm32l4xx_hal_spi.c **** #if (USE_HAL_SPI_REGISTER_CALLBACKS == 1U)
3048:Drivers/STM32L4xx_HAL_Driver/Src/stm32l4xx_hal_spi.c ****       hspi->ErrorCallback(hspi);
3049:Drivers/STM32L4xx_HAL_Driver/Src/stm32l4xx_hal_spi.c **** #else
3050:Drivers/STM32L4xx_HAL_Driver/Src/stm32l4xx_hal_spi.c ****       HAL_SPI_ErrorCallback(hspi);
 5693              		.loc 1 3050 7
 5694 0092 7869     		ldr	r0, [r7, #20]
 5695 0094 FFF7FEFF 		bl	HAL_SPI_ErrorCallback
3051:Drivers/STM32L4xx_HAL_Driver/Src/stm32l4xx_hal_spi.c **** #endif /* USE_HAL_SPI_REGISTER_CALLBACKS */
3052:Drivers/STM32L4xx_HAL_Driver/Src/stm32l4xx_hal_spi.c ****       return;
 5696              		.loc 1 3052 7
 5697 0098 02E0     		b	.L285
 5698              	.L286:
3053:Drivers/STM32L4xx_HAL_Driver/Src/stm32l4xx_hal_spi.c ****     }
3054:Drivers/STM32L4xx_HAL_Driver/Src/stm32l4xx_hal_spi.c ****   }
3055:Drivers/STM32L4xx_HAL_Driver/Src/stm32l4xx_hal_spi.c ****   /* Call user Tx complete callback */
ARM GAS  C:\Users\Morroway\AppData\Local\Temp\ccCQJjHM.s 			page 154


3056:Drivers/STM32L4xx_HAL_Driver/Src/stm32l4xx_hal_spi.c **** #if (USE_HAL_SPI_REGISTER_CALLBACKS == 1U)
3057:Drivers/STM32L4xx_HAL_Driver/Src/stm32l4xx_hal_spi.c ****   hspi->TxCpltCallback(hspi);
3058:Drivers/STM32L4xx_HAL_Driver/Src/stm32l4xx_hal_spi.c **** #else
3059:Drivers/STM32L4xx_HAL_Driver/Src/stm32l4xx_hal_spi.c ****   HAL_SPI_TxCpltCallback(hspi);
 5699              		.loc 1 3059 3
 5700 009a 7869     		ldr	r0, [r7, #20]
 5701 009c FFF7FEFF 		bl	HAL_SPI_TxCpltCallback
 5702              	.L285:
3060:Drivers/STM32L4xx_HAL_Driver/Src/stm32l4xx_hal_spi.c **** #endif /* USE_HAL_SPI_REGISTER_CALLBACKS */
3061:Drivers/STM32L4xx_HAL_Driver/Src/stm32l4xx_hal_spi.c **** }
 5703              		.loc 1 3061 1
 5704 00a0 1837     		adds	r7, r7, #24
 5705              		.cfi_def_cfa_offset 8
 5706 00a2 BD46     		mov	sp, r7
 5707              		.cfi_def_cfa_register 13
 5708              		@ sp needed
 5709 00a4 80BD     		pop	{r7, pc}
 5710              		.cfi_endproc
 5711              	.LFE350:
 5713              		.section	.text.SPI_DMAReceiveCplt,"ax",%progbits
 5714              		.align	1
 5715              		.syntax unified
 5716              		.thumb
 5717              		.thumb_func
 5719              	SPI_DMAReceiveCplt:
 5720              	.LFB351:
3062:Drivers/STM32L4xx_HAL_Driver/Src/stm32l4xx_hal_spi.c **** 
3063:Drivers/STM32L4xx_HAL_Driver/Src/stm32l4xx_hal_spi.c **** /**
3064:Drivers/STM32L4xx_HAL_Driver/Src/stm32l4xx_hal_spi.c ****   * @brief  DMA SPI receive process complete callback.
3065:Drivers/STM32L4xx_HAL_Driver/Src/stm32l4xx_hal_spi.c ****   * @param  hdma pointer to a DMA_HandleTypeDef structure that contains
3066:Drivers/STM32L4xx_HAL_Driver/Src/stm32l4xx_hal_spi.c ****   *               the configuration information for the specified DMA module.
3067:Drivers/STM32L4xx_HAL_Driver/Src/stm32l4xx_hal_spi.c ****   * @retval None
3068:Drivers/STM32L4xx_HAL_Driver/Src/stm32l4xx_hal_spi.c ****   */
3069:Drivers/STM32L4xx_HAL_Driver/Src/stm32l4xx_hal_spi.c **** static void SPI_DMAReceiveCplt(DMA_HandleTypeDef *hdma)
3070:Drivers/STM32L4xx_HAL_Driver/Src/stm32l4xx_hal_spi.c **** {
 5721              		.loc 1 3070 1
 5722              		.cfi_startproc
 5723              		@ args = 0, pretend = 0, frame = 16
 5724              		@ frame_needed = 1, uses_anonymous_args = 0
 5725 0000 80B5     		push	{r7, lr}
 5726              		.cfi_def_cfa_offset 8
 5727              		.cfi_offset 7, -8
 5728              		.cfi_offset 14, -4
 5729 0002 84B0     		sub	sp, sp, #16
 5730              		.cfi_def_cfa_offset 24
 5731 0004 00AF     		add	r7, sp, #0
 5732              		.cfi_def_cfa_register 7
 5733 0006 7860     		str	r0, [r7, #4]
3071:Drivers/STM32L4xx_HAL_Driver/Src/stm32l4xx_hal_spi.c ****   SPI_HandleTypeDef *hspi = (SPI_HandleTypeDef *)(((DMA_HandleTypeDef *)hdma)->Parent); /* Derogati
 5734              		.loc 1 3071 22
 5735 0008 7B68     		ldr	r3, [r7, #4]
 5736 000a 9B6A     		ldr	r3, [r3, #40]
 5737 000c FB60     		str	r3, [r7, #12]
3072:Drivers/STM32L4xx_HAL_Driver/Src/stm32l4xx_hal_spi.c ****   uint32_t tickstart;
3073:Drivers/STM32L4xx_HAL_Driver/Src/stm32l4xx_hal_spi.c **** #if (USE_SPI_CRC != 0U)
3074:Drivers/STM32L4xx_HAL_Driver/Src/stm32l4xx_hal_spi.c ****   __IO uint32_t tmpreg = 0U;
3075:Drivers/STM32L4xx_HAL_Driver/Src/stm32l4xx_hal_spi.c ****   __IO uint8_t  *ptmpreg8;
ARM GAS  C:\Users\Morroway\AppData\Local\Temp\ccCQJjHM.s 			page 155


3076:Drivers/STM32L4xx_HAL_Driver/Src/stm32l4xx_hal_spi.c ****   __IO uint8_t  tmpreg8 = 0;
3077:Drivers/STM32L4xx_HAL_Driver/Src/stm32l4xx_hal_spi.c **** #endif /* USE_SPI_CRC */
3078:Drivers/STM32L4xx_HAL_Driver/Src/stm32l4xx_hal_spi.c **** 
3079:Drivers/STM32L4xx_HAL_Driver/Src/stm32l4xx_hal_spi.c ****   /* Init tickstart for timeout management*/
3080:Drivers/STM32L4xx_HAL_Driver/Src/stm32l4xx_hal_spi.c ****   tickstart = HAL_GetTick();
 5738              		.loc 1 3080 15
 5739 000e FFF7FEFF 		bl	HAL_GetTick
 5740 0012 B860     		str	r0, [r7, #8]
3081:Drivers/STM32L4xx_HAL_Driver/Src/stm32l4xx_hal_spi.c **** 
3082:Drivers/STM32L4xx_HAL_Driver/Src/stm32l4xx_hal_spi.c ****   /* DMA Normal Mode */
3083:Drivers/STM32L4xx_HAL_Driver/Src/stm32l4xx_hal_spi.c ****   if ((hdma->Instance->CCR & DMA_CCR_CIRC) != DMA_CCR_CIRC)
 5741              		.loc 1 3083 12
 5742 0014 7B68     		ldr	r3, [r7, #4]
 5743 0016 1B68     		ldr	r3, [r3]
 5744              		.loc 1 3083 22
 5745 0018 1B68     		ldr	r3, [r3]
 5746              		.loc 1 3083 28
 5747 001a 03F02003 		and	r3, r3, #32
 5748              		.loc 1 3083 6
 5749 001e 202B     		cmp	r3, #32
 5750 0020 3CD0     		beq	.L291
3084:Drivers/STM32L4xx_HAL_Driver/Src/stm32l4xx_hal_spi.c ****   {
3085:Drivers/STM32L4xx_HAL_Driver/Src/stm32l4xx_hal_spi.c ****     /* Disable ERR interrupt */
3086:Drivers/STM32L4xx_HAL_Driver/Src/stm32l4xx_hal_spi.c ****     __HAL_SPI_DISABLE_IT(hspi, SPI_IT_ERR);
 5751              		.loc 1 3086 5
 5752 0022 FB68     		ldr	r3, [r7, #12]
 5753 0024 1B68     		ldr	r3, [r3]
 5754 0026 5A68     		ldr	r2, [r3, #4]
 5755 0028 FB68     		ldr	r3, [r7, #12]
 5756 002a 1B68     		ldr	r3, [r3]
 5757 002c 22F02002 		bic	r2, r2, #32
 5758 0030 5A60     		str	r2, [r3, #4]
3087:Drivers/STM32L4xx_HAL_Driver/Src/stm32l4xx_hal_spi.c **** 
3088:Drivers/STM32L4xx_HAL_Driver/Src/stm32l4xx_hal_spi.c **** #if (USE_SPI_CRC != 0U)
3089:Drivers/STM32L4xx_HAL_Driver/Src/stm32l4xx_hal_spi.c ****     /* CRC handling */
3090:Drivers/STM32L4xx_HAL_Driver/Src/stm32l4xx_hal_spi.c ****     if (hspi->Init.CRCCalculation == SPI_CRCCALCULATION_ENABLE)
3091:Drivers/STM32L4xx_HAL_Driver/Src/stm32l4xx_hal_spi.c ****     {
3092:Drivers/STM32L4xx_HAL_Driver/Src/stm32l4xx_hal_spi.c ****       /* Wait until RXNE flag */
3093:Drivers/STM32L4xx_HAL_Driver/Src/stm32l4xx_hal_spi.c ****       if (SPI_WaitFlagStateUntilTimeout(hspi, SPI_FLAG_RXNE, SET, SPI_DEFAULT_TIMEOUT, tickstart) !
3094:Drivers/STM32L4xx_HAL_Driver/Src/stm32l4xx_hal_spi.c ****       {
3095:Drivers/STM32L4xx_HAL_Driver/Src/stm32l4xx_hal_spi.c ****         /* Error on the CRC reception */
3096:Drivers/STM32L4xx_HAL_Driver/Src/stm32l4xx_hal_spi.c ****         SET_BIT(hspi->ErrorCode, HAL_SPI_ERROR_CRC);
3097:Drivers/STM32L4xx_HAL_Driver/Src/stm32l4xx_hal_spi.c ****       }
3098:Drivers/STM32L4xx_HAL_Driver/Src/stm32l4xx_hal_spi.c ****       /* Read CRC */
3099:Drivers/STM32L4xx_HAL_Driver/Src/stm32l4xx_hal_spi.c ****       if (hspi->Init.DataSize > SPI_DATASIZE_8BIT)
3100:Drivers/STM32L4xx_HAL_Driver/Src/stm32l4xx_hal_spi.c ****       {
3101:Drivers/STM32L4xx_HAL_Driver/Src/stm32l4xx_hal_spi.c ****         /* Read 16bit CRC */
3102:Drivers/STM32L4xx_HAL_Driver/Src/stm32l4xx_hal_spi.c ****         tmpreg = READ_REG(hspi->Instance->DR);
3103:Drivers/STM32L4xx_HAL_Driver/Src/stm32l4xx_hal_spi.c ****         /* To avoid GCC warning */
3104:Drivers/STM32L4xx_HAL_Driver/Src/stm32l4xx_hal_spi.c ****         UNUSED(tmpreg);
3105:Drivers/STM32L4xx_HAL_Driver/Src/stm32l4xx_hal_spi.c ****       }
3106:Drivers/STM32L4xx_HAL_Driver/Src/stm32l4xx_hal_spi.c ****       else
3107:Drivers/STM32L4xx_HAL_Driver/Src/stm32l4xx_hal_spi.c ****       {
3108:Drivers/STM32L4xx_HAL_Driver/Src/stm32l4xx_hal_spi.c ****         /* Initialize the 8bit temporary pointer */
3109:Drivers/STM32L4xx_HAL_Driver/Src/stm32l4xx_hal_spi.c ****         ptmpreg8 = (__IO uint8_t *)&hspi->Instance->DR;
3110:Drivers/STM32L4xx_HAL_Driver/Src/stm32l4xx_hal_spi.c ****         /* Read 8bit CRC */
3111:Drivers/STM32L4xx_HAL_Driver/Src/stm32l4xx_hal_spi.c ****         tmpreg8 = *ptmpreg8;
ARM GAS  C:\Users\Morroway\AppData\Local\Temp\ccCQJjHM.s 			page 156


3112:Drivers/STM32L4xx_HAL_Driver/Src/stm32l4xx_hal_spi.c ****         /* To avoid GCC warning */
3113:Drivers/STM32L4xx_HAL_Driver/Src/stm32l4xx_hal_spi.c ****         UNUSED(tmpreg8);
3114:Drivers/STM32L4xx_HAL_Driver/Src/stm32l4xx_hal_spi.c **** 
3115:Drivers/STM32L4xx_HAL_Driver/Src/stm32l4xx_hal_spi.c ****         if (hspi->Init.CRCLength == SPI_CRC_LENGTH_16BIT)
3116:Drivers/STM32L4xx_HAL_Driver/Src/stm32l4xx_hal_spi.c ****         {
3117:Drivers/STM32L4xx_HAL_Driver/Src/stm32l4xx_hal_spi.c ****           if (SPI_WaitFlagStateUntilTimeout(hspi, SPI_FLAG_RXNE, SET, SPI_DEFAULT_TIMEOUT, tickstar
3118:Drivers/STM32L4xx_HAL_Driver/Src/stm32l4xx_hal_spi.c ****           {
3119:Drivers/STM32L4xx_HAL_Driver/Src/stm32l4xx_hal_spi.c ****             /* Error on the CRC reception */
3120:Drivers/STM32L4xx_HAL_Driver/Src/stm32l4xx_hal_spi.c ****             SET_BIT(hspi->ErrorCode, HAL_SPI_ERROR_CRC);
3121:Drivers/STM32L4xx_HAL_Driver/Src/stm32l4xx_hal_spi.c ****           }
3122:Drivers/STM32L4xx_HAL_Driver/Src/stm32l4xx_hal_spi.c ****           /* Read 8bit CRC again in case of 16bit CRC in 8bit Data mode */
3123:Drivers/STM32L4xx_HAL_Driver/Src/stm32l4xx_hal_spi.c ****           tmpreg8 = *ptmpreg8;
3124:Drivers/STM32L4xx_HAL_Driver/Src/stm32l4xx_hal_spi.c ****           /* To avoid GCC warning */
3125:Drivers/STM32L4xx_HAL_Driver/Src/stm32l4xx_hal_spi.c ****           UNUSED(tmpreg8);
3126:Drivers/STM32L4xx_HAL_Driver/Src/stm32l4xx_hal_spi.c ****         }
3127:Drivers/STM32L4xx_HAL_Driver/Src/stm32l4xx_hal_spi.c ****       }
3128:Drivers/STM32L4xx_HAL_Driver/Src/stm32l4xx_hal_spi.c ****     }
3129:Drivers/STM32L4xx_HAL_Driver/Src/stm32l4xx_hal_spi.c **** #endif /* USE_SPI_CRC */
3130:Drivers/STM32L4xx_HAL_Driver/Src/stm32l4xx_hal_spi.c **** 
3131:Drivers/STM32L4xx_HAL_Driver/Src/stm32l4xx_hal_spi.c ****     /* Check if we are in Master RX 2 line mode */
3132:Drivers/STM32L4xx_HAL_Driver/Src/stm32l4xx_hal_spi.c ****     if ((hspi->Init.Direction == SPI_DIRECTION_2LINES) && (hspi->Init.Mode == SPI_MODE_MASTER))
 5759              		.loc 1 3132 20
 5760 0032 FB68     		ldr	r3, [r7, #12]
 5761 0034 9B68     		ldr	r3, [r3, #8]
 5762              		.loc 1 3132 8
 5763 0036 002B     		cmp	r3, #0
 5764 0038 0DD1     		bne	.L292
 5765              		.loc 1 3132 70 discriminator 1
 5766 003a FB68     		ldr	r3, [r7, #12]
 5767 003c 5B68     		ldr	r3, [r3, #4]
 5768              		.loc 1 3132 56 discriminator 1
 5769 003e B3F5827F 		cmp	r3, #260
 5770 0042 08D1     		bne	.L292
3133:Drivers/STM32L4xx_HAL_Driver/Src/stm32l4xx_hal_spi.c ****     {
3134:Drivers/STM32L4xx_HAL_Driver/Src/stm32l4xx_hal_spi.c ****       /* Disable Rx/Tx DMA Request (done by default to handle the case master rx direction 2 lines)
3135:Drivers/STM32L4xx_HAL_Driver/Src/stm32l4xx_hal_spi.c ****       CLEAR_BIT(hspi->Instance->CR2, SPI_CR2_TXDMAEN | SPI_CR2_RXDMAEN);
 5771              		.loc 1 3135 7
 5772 0044 FB68     		ldr	r3, [r7, #12]
 5773 0046 1B68     		ldr	r3, [r3]
 5774 0048 5A68     		ldr	r2, [r3, #4]
 5775 004a FB68     		ldr	r3, [r7, #12]
 5776 004c 1B68     		ldr	r3, [r3]
 5777 004e 22F00302 		bic	r2, r2, #3
 5778 0052 5A60     		str	r2, [r3, #4]
 5779 0054 07E0     		b	.L293
 5780              	.L292:
3136:Drivers/STM32L4xx_HAL_Driver/Src/stm32l4xx_hal_spi.c ****     }
3137:Drivers/STM32L4xx_HAL_Driver/Src/stm32l4xx_hal_spi.c ****     else
3138:Drivers/STM32L4xx_HAL_Driver/Src/stm32l4xx_hal_spi.c ****     {
3139:Drivers/STM32L4xx_HAL_Driver/Src/stm32l4xx_hal_spi.c ****       /* Normal case */
3140:Drivers/STM32L4xx_HAL_Driver/Src/stm32l4xx_hal_spi.c ****       CLEAR_BIT(hspi->Instance->CR2, SPI_CR2_RXDMAEN);
 5781              		.loc 1 3140 7
 5782 0056 FB68     		ldr	r3, [r7, #12]
 5783 0058 1B68     		ldr	r3, [r3]
 5784 005a 5A68     		ldr	r2, [r3, #4]
 5785 005c FB68     		ldr	r3, [r7, #12]
 5786 005e 1B68     		ldr	r3, [r3]
ARM GAS  C:\Users\Morroway\AppData\Local\Temp\ccCQJjHM.s 			page 157


 5787 0060 22F00102 		bic	r2, r2, #1
 5788 0064 5A60     		str	r2, [r3, #4]
 5789              	.L293:
3141:Drivers/STM32L4xx_HAL_Driver/Src/stm32l4xx_hal_spi.c ****     }
3142:Drivers/STM32L4xx_HAL_Driver/Src/stm32l4xx_hal_spi.c **** 
3143:Drivers/STM32L4xx_HAL_Driver/Src/stm32l4xx_hal_spi.c ****     /* Check the end of the transaction */
3144:Drivers/STM32L4xx_HAL_Driver/Src/stm32l4xx_hal_spi.c ****     if (SPI_EndRxTransaction(hspi, SPI_DEFAULT_TIMEOUT, tickstart) != HAL_OK)
 5790              		.loc 1 3144 9
 5791 0066 BA68     		ldr	r2, [r7, #8]
 5792 0068 6421     		movs	r1, #100
 5793 006a F868     		ldr	r0, [r7, #12]
 5794 006c FFF7FEFF 		bl	SPI_EndRxTransaction
 5795 0070 0346     		mov	r3, r0
 5796              		.loc 1 3144 8
 5797 0072 002B     		cmp	r3, #0
 5798 0074 02D0     		beq	.L294
3145:Drivers/STM32L4xx_HAL_Driver/Src/stm32l4xx_hal_spi.c ****     {
3146:Drivers/STM32L4xx_HAL_Driver/Src/stm32l4xx_hal_spi.c ****       hspi->ErrorCode = HAL_SPI_ERROR_FLAG;
 5799              		.loc 1 3146 23
 5800 0076 FB68     		ldr	r3, [r7, #12]
 5801 0078 2022     		movs	r2, #32
 5802 007a 1A66     		str	r2, [r3, #96]
 5803              	.L294:
3147:Drivers/STM32L4xx_HAL_Driver/Src/stm32l4xx_hal_spi.c ****     }
3148:Drivers/STM32L4xx_HAL_Driver/Src/stm32l4xx_hal_spi.c **** 
3149:Drivers/STM32L4xx_HAL_Driver/Src/stm32l4xx_hal_spi.c ****     hspi->RxXferCount = 0U;
 5804              		.loc 1 3149 23
 5805 007c FB68     		ldr	r3, [r7, #12]
 5806 007e 0022     		movs	r2, #0
 5807 0080 A3F84620 		strh	r2, [r3, #70]	@ movhi
3150:Drivers/STM32L4xx_HAL_Driver/Src/stm32l4xx_hal_spi.c ****     hspi->State = HAL_SPI_STATE_READY;
 5808              		.loc 1 3150 17
 5809 0084 FB68     		ldr	r3, [r7, #12]
 5810 0086 0122     		movs	r2, #1
 5811 0088 83F85D20 		strb	r2, [r3, #93]
3151:Drivers/STM32L4xx_HAL_Driver/Src/stm32l4xx_hal_spi.c **** 
3152:Drivers/STM32L4xx_HAL_Driver/Src/stm32l4xx_hal_spi.c **** #if (USE_SPI_CRC != 0U)
3153:Drivers/STM32L4xx_HAL_Driver/Src/stm32l4xx_hal_spi.c ****     /* Check if CRC error occurred */
3154:Drivers/STM32L4xx_HAL_Driver/Src/stm32l4xx_hal_spi.c ****     if (__HAL_SPI_GET_FLAG(hspi, SPI_FLAG_CRCERR))
3155:Drivers/STM32L4xx_HAL_Driver/Src/stm32l4xx_hal_spi.c ****     {
3156:Drivers/STM32L4xx_HAL_Driver/Src/stm32l4xx_hal_spi.c ****       SET_BIT(hspi->ErrorCode, HAL_SPI_ERROR_CRC);
3157:Drivers/STM32L4xx_HAL_Driver/Src/stm32l4xx_hal_spi.c ****       __HAL_SPI_CLEAR_CRCERRFLAG(hspi);
3158:Drivers/STM32L4xx_HAL_Driver/Src/stm32l4xx_hal_spi.c ****     }
3159:Drivers/STM32L4xx_HAL_Driver/Src/stm32l4xx_hal_spi.c **** #endif /* USE_SPI_CRC */
3160:Drivers/STM32L4xx_HAL_Driver/Src/stm32l4xx_hal_spi.c **** 
3161:Drivers/STM32L4xx_HAL_Driver/Src/stm32l4xx_hal_spi.c ****     if (hspi->ErrorCode != HAL_SPI_ERROR_NONE)
 5812              		.loc 1 3161 13
 5813 008c FB68     		ldr	r3, [r7, #12]
 5814 008e 1B6E     		ldr	r3, [r3, #96]
 5815              		.loc 1 3161 8
 5816 0090 002B     		cmp	r3, #0
 5817 0092 03D0     		beq	.L291
3162:Drivers/STM32L4xx_HAL_Driver/Src/stm32l4xx_hal_spi.c ****     {
3163:Drivers/STM32L4xx_HAL_Driver/Src/stm32l4xx_hal_spi.c ****       /* Call user error callback */
3164:Drivers/STM32L4xx_HAL_Driver/Src/stm32l4xx_hal_spi.c **** #if (USE_HAL_SPI_REGISTER_CALLBACKS == 1U)
3165:Drivers/STM32L4xx_HAL_Driver/Src/stm32l4xx_hal_spi.c ****       hspi->ErrorCallback(hspi);
3166:Drivers/STM32L4xx_HAL_Driver/Src/stm32l4xx_hal_spi.c **** #else
ARM GAS  C:\Users\Morroway\AppData\Local\Temp\ccCQJjHM.s 			page 158


3167:Drivers/STM32L4xx_HAL_Driver/Src/stm32l4xx_hal_spi.c ****       HAL_SPI_ErrorCallback(hspi);
 5818              		.loc 1 3167 7
 5819 0094 F868     		ldr	r0, [r7, #12]
 5820 0096 FFF7FEFF 		bl	HAL_SPI_ErrorCallback
3168:Drivers/STM32L4xx_HAL_Driver/Src/stm32l4xx_hal_spi.c **** #endif /* USE_HAL_SPI_REGISTER_CALLBACKS */
3169:Drivers/STM32L4xx_HAL_Driver/Src/stm32l4xx_hal_spi.c ****       return;
 5821              		.loc 1 3169 7
 5822 009a 02E0     		b	.L290
 5823              	.L291:
3170:Drivers/STM32L4xx_HAL_Driver/Src/stm32l4xx_hal_spi.c ****     }
3171:Drivers/STM32L4xx_HAL_Driver/Src/stm32l4xx_hal_spi.c ****   }
3172:Drivers/STM32L4xx_HAL_Driver/Src/stm32l4xx_hal_spi.c ****   /* Call user Rx complete callback */
3173:Drivers/STM32L4xx_HAL_Driver/Src/stm32l4xx_hal_spi.c **** #if (USE_HAL_SPI_REGISTER_CALLBACKS == 1U)
3174:Drivers/STM32L4xx_HAL_Driver/Src/stm32l4xx_hal_spi.c ****   hspi->RxCpltCallback(hspi);
3175:Drivers/STM32L4xx_HAL_Driver/Src/stm32l4xx_hal_spi.c **** #else
3176:Drivers/STM32L4xx_HAL_Driver/Src/stm32l4xx_hal_spi.c ****   HAL_SPI_RxCpltCallback(hspi);
 5824              		.loc 1 3176 3
 5825 009c F868     		ldr	r0, [r7, #12]
 5826 009e FFF7FEFF 		bl	HAL_SPI_RxCpltCallback
 5827              	.L290:
3177:Drivers/STM32L4xx_HAL_Driver/Src/stm32l4xx_hal_spi.c **** #endif /* USE_HAL_SPI_REGISTER_CALLBACKS */
3178:Drivers/STM32L4xx_HAL_Driver/Src/stm32l4xx_hal_spi.c **** }
 5828              		.loc 1 3178 1
 5829 00a2 1037     		adds	r7, r7, #16
 5830              		.cfi_def_cfa_offset 8
 5831 00a4 BD46     		mov	sp, r7
 5832              		.cfi_def_cfa_register 13
 5833              		@ sp needed
 5834 00a6 80BD     		pop	{r7, pc}
 5835              		.cfi_endproc
 5836              	.LFE351:
 5838              		.section	.text.SPI_DMATransmitReceiveCplt,"ax",%progbits
 5839              		.align	1
 5840              		.syntax unified
 5841              		.thumb
 5842              		.thumb_func
 5844              	SPI_DMATransmitReceiveCplt:
 5845              	.LFB352:
3179:Drivers/STM32L4xx_HAL_Driver/Src/stm32l4xx_hal_spi.c **** 
3180:Drivers/STM32L4xx_HAL_Driver/Src/stm32l4xx_hal_spi.c **** /**
3181:Drivers/STM32L4xx_HAL_Driver/Src/stm32l4xx_hal_spi.c ****   * @brief  DMA SPI transmit receive process complete callback.
3182:Drivers/STM32L4xx_HAL_Driver/Src/stm32l4xx_hal_spi.c ****   * @param  hdma pointer to a DMA_HandleTypeDef structure that contains
3183:Drivers/STM32L4xx_HAL_Driver/Src/stm32l4xx_hal_spi.c ****   *               the configuration information for the specified DMA module.
3184:Drivers/STM32L4xx_HAL_Driver/Src/stm32l4xx_hal_spi.c ****   * @retval None
3185:Drivers/STM32L4xx_HAL_Driver/Src/stm32l4xx_hal_spi.c ****   */
3186:Drivers/STM32L4xx_HAL_Driver/Src/stm32l4xx_hal_spi.c **** static void SPI_DMATransmitReceiveCplt(DMA_HandleTypeDef *hdma)
3187:Drivers/STM32L4xx_HAL_Driver/Src/stm32l4xx_hal_spi.c **** {
 5846              		.loc 1 3187 1
 5847              		.cfi_startproc
 5848              		@ args = 0, pretend = 0, frame = 16
 5849              		@ frame_needed = 1, uses_anonymous_args = 0
 5850 0000 80B5     		push	{r7, lr}
 5851              		.cfi_def_cfa_offset 8
 5852              		.cfi_offset 7, -8
 5853              		.cfi_offset 14, -4
 5854 0002 84B0     		sub	sp, sp, #16
 5855              		.cfi_def_cfa_offset 24
ARM GAS  C:\Users\Morroway\AppData\Local\Temp\ccCQJjHM.s 			page 159


 5856 0004 00AF     		add	r7, sp, #0
 5857              		.cfi_def_cfa_register 7
 5858 0006 7860     		str	r0, [r7, #4]
3188:Drivers/STM32L4xx_HAL_Driver/Src/stm32l4xx_hal_spi.c ****   SPI_HandleTypeDef *hspi = (SPI_HandleTypeDef *)(((DMA_HandleTypeDef *)hdma)->Parent); /* Derogati
 5859              		.loc 1 3188 22
 5860 0008 7B68     		ldr	r3, [r7, #4]
 5861 000a 9B6A     		ldr	r3, [r3, #40]
 5862 000c FB60     		str	r3, [r7, #12]
3189:Drivers/STM32L4xx_HAL_Driver/Src/stm32l4xx_hal_spi.c ****   uint32_t tickstart;
3190:Drivers/STM32L4xx_HAL_Driver/Src/stm32l4xx_hal_spi.c **** #if (USE_SPI_CRC != 0U)
3191:Drivers/STM32L4xx_HAL_Driver/Src/stm32l4xx_hal_spi.c ****   __IO uint32_t tmpreg = 0U;
3192:Drivers/STM32L4xx_HAL_Driver/Src/stm32l4xx_hal_spi.c ****   __IO uint8_t  *ptmpreg8;
3193:Drivers/STM32L4xx_HAL_Driver/Src/stm32l4xx_hal_spi.c ****   __IO uint8_t  tmpreg8 = 0;
3194:Drivers/STM32L4xx_HAL_Driver/Src/stm32l4xx_hal_spi.c **** #endif /* USE_SPI_CRC */
3195:Drivers/STM32L4xx_HAL_Driver/Src/stm32l4xx_hal_spi.c **** 
3196:Drivers/STM32L4xx_HAL_Driver/Src/stm32l4xx_hal_spi.c ****   /* Init tickstart for timeout management*/
3197:Drivers/STM32L4xx_HAL_Driver/Src/stm32l4xx_hal_spi.c ****   tickstart = HAL_GetTick();
 5863              		.loc 1 3197 15
 5864 000e FFF7FEFF 		bl	HAL_GetTick
 5865 0012 B860     		str	r0, [r7, #8]
3198:Drivers/STM32L4xx_HAL_Driver/Src/stm32l4xx_hal_spi.c **** 
3199:Drivers/STM32L4xx_HAL_Driver/Src/stm32l4xx_hal_spi.c ****   /* DMA Normal Mode */
3200:Drivers/STM32L4xx_HAL_Driver/Src/stm32l4xx_hal_spi.c ****   if ((hdma->Instance->CCR & DMA_CCR_CIRC) != DMA_CCR_CIRC)
 5866              		.loc 1 3200 12
 5867 0014 7B68     		ldr	r3, [r7, #4]
 5868 0016 1B68     		ldr	r3, [r3]
 5869              		.loc 1 3200 22
 5870 0018 1B68     		ldr	r3, [r3]
 5871              		.loc 1 3200 28
 5872 001a 03F02003 		and	r3, r3, #32
 5873              		.loc 1 3200 6
 5874 001e 202B     		cmp	r3, #32
 5875 0020 30D0     		beq	.L297
3201:Drivers/STM32L4xx_HAL_Driver/Src/stm32l4xx_hal_spi.c ****   {
3202:Drivers/STM32L4xx_HAL_Driver/Src/stm32l4xx_hal_spi.c ****     /* Disable ERR interrupt */
3203:Drivers/STM32L4xx_HAL_Driver/Src/stm32l4xx_hal_spi.c ****     __HAL_SPI_DISABLE_IT(hspi, SPI_IT_ERR);
 5876              		.loc 1 3203 5
 5877 0022 FB68     		ldr	r3, [r7, #12]
 5878 0024 1B68     		ldr	r3, [r3]
 5879 0026 5A68     		ldr	r2, [r3, #4]
 5880 0028 FB68     		ldr	r3, [r7, #12]
 5881 002a 1B68     		ldr	r3, [r3]
 5882 002c 22F02002 		bic	r2, r2, #32
 5883 0030 5A60     		str	r2, [r3, #4]
3204:Drivers/STM32L4xx_HAL_Driver/Src/stm32l4xx_hal_spi.c **** 
3205:Drivers/STM32L4xx_HAL_Driver/Src/stm32l4xx_hal_spi.c **** #if (USE_SPI_CRC != 0U)
3206:Drivers/STM32L4xx_HAL_Driver/Src/stm32l4xx_hal_spi.c ****     /* CRC handling */
3207:Drivers/STM32L4xx_HAL_Driver/Src/stm32l4xx_hal_spi.c ****     if (hspi->Init.CRCCalculation == SPI_CRCCALCULATION_ENABLE)
3208:Drivers/STM32L4xx_HAL_Driver/Src/stm32l4xx_hal_spi.c ****     {
3209:Drivers/STM32L4xx_HAL_Driver/Src/stm32l4xx_hal_spi.c ****       if ((hspi->Init.DataSize == SPI_DATASIZE_8BIT) && (hspi->Init.CRCLength == SPI_CRC_LENGTH_8BI
3210:Drivers/STM32L4xx_HAL_Driver/Src/stm32l4xx_hal_spi.c ****       {
3211:Drivers/STM32L4xx_HAL_Driver/Src/stm32l4xx_hal_spi.c ****         if (SPI_WaitFifoStateUntilTimeout(hspi, SPI_FLAG_FRLVL, SPI_FRLVL_QUARTER_FULL, SPI_DEFAULT
3212:Drivers/STM32L4xx_HAL_Driver/Src/stm32l4xx_hal_spi.c ****                                           tickstart) != HAL_OK)
3213:Drivers/STM32L4xx_HAL_Driver/Src/stm32l4xx_hal_spi.c ****         {
3214:Drivers/STM32L4xx_HAL_Driver/Src/stm32l4xx_hal_spi.c ****           /* Error on the CRC reception */
3215:Drivers/STM32L4xx_HAL_Driver/Src/stm32l4xx_hal_spi.c ****           SET_BIT(hspi->ErrorCode, HAL_SPI_ERROR_CRC);
3216:Drivers/STM32L4xx_HAL_Driver/Src/stm32l4xx_hal_spi.c ****         }
ARM GAS  C:\Users\Morroway\AppData\Local\Temp\ccCQJjHM.s 			page 160


3217:Drivers/STM32L4xx_HAL_Driver/Src/stm32l4xx_hal_spi.c ****         /* Initialize the 8bit temporary pointer */
3218:Drivers/STM32L4xx_HAL_Driver/Src/stm32l4xx_hal_spi.c ****         ptmpreg8 = (__IO uint8_t *)&hspi->Instance->DR;
3219:Drivers/STM32L4xx_HAL_Driver/Src/stm32l4xx_hal_spi.c ****         /* Read 8bit CRC */
3220:Drivers/STM32L4xx_HAL_Driver/Src/stm32l4xx_hal_spi.c ****         tmpreg8 = *ptmpreg8;
3221:Drivers/STM32L4xx_HAL_Driver/Src/stm32l4xx_hal_spi.c ****         /* To avoid GCC warning */
3222:Drivers/STM32L4xx_HAL_Driver/Src/stm32l4xx_hal_spi.c ****         UNUSED(tmpreg8);
3223:Drivers/STM32L4xx_HAL_Driver/Src/stm32l4xx_hal_spi.c ****       }
3224:Drivers/STM32L4xx_HAL_Driver/Src/stm32l4xx_hal_spi.c ****       else
3225:Drivers/STM32L4xx_HAL_Driver/Src/stm32l4xx_hal_spi.c ****       {
3226:Drivers/STM32L4xx_HAL_Driver/Src/stm32l4xx_hal_spi.c ****         if (SPI_WaitFifoStateUntilTimeout(hspi, SPI_FLAG_FRLVL, SPI_FRLVL_HALF_FULL, SPI_DEFAULT_TI
3227:Drivers/STM32L4xx_HAL_Driver/Src/stm32l4xx_hal_spi.c ****         {
3228:Drivers/STM32L4xx_HAL_Driver/Src/stm32l4xx_hal_spi.c ****           /* Error on the CRC reception */
3229:Drivers/STM32L4xx_HAL_Driver/Src/stm32l4xx_hal_spi.c ****           SET_BIT(hspi->ErrorCode, HAL_SPI_ERROR_CRC);
3230:Drivers/STM32L4xx_HAL_Driver/Src/stm32l4xx_hal_spi.c ****         }
3231:Drivers/STM32L4xx_HAL_Driver/Src/stm32l4xx_hal_spi.c ****         /* Read CRC to Flush DR and RXNE flag */
3232:Drivers/STM32L4xx_HAL_Driver/Src/stm32l4xx_hal_spi.c ****         tmpreg = READ_REG(hspi->Instance->DR);
3233:Drivers/STM32L4xx_HAL_Driver/Src/stm32l4xx_hal_spi.c ****         /* To avoid GCC warning */
3234:Drivers/STM32L4xx_HAL_Driver/Src/stm32l4xx_hal_spi.c ****         UNUSED(tmpreg);
3235:Drivers/STM32L4xx_HAL_Driver/Src/stm32l4xx_hal_spi.c ****       }
3236:Drivers/STM32L4xx_HAL_Driver/Src/stm32l4xx_hal_spi.c ****     }
3237:Drivers/STM32L4xx_HAL_Driver/Src/stm32l4xx_hal_spi.c **** #endif /* USE_SPI_CRC */
3238:Drivers/STM32L4xx_HAL_Driver/Src/stm32l4xx_hal_spi.c **** 
3239:Drivers/STM32L4xx_HAL_Driver/Src/stm32l4xx_hal_spi.c ****     /* Check the end of the transaction */
3240:Drivers/STM32L4xx_HAL_Driver/Src/stm32l4xx_hal_spi.c ****     if (SPI_EndRxTxTransaction(hspi, SPI_DEFAULT_TIMEOUT, tickstart) != HAL_OK)
 5884              		.loc 1 3240 9
 5885 0032 BA68     		ldr	r2, [r7, #8]
 5886 0034 6421     		movs	r1, #100
 5887 0036 F868     		ldr	r0, [r7, #12]
 5888 0038 FFF7FEFF 		bl	SPI_EndRxTxTransaction
 5889 003c 0346     		mov	r3, r0
 5890              		.loc 1 3240 8
 5891 003e 002B     		cmp	r3, #0
 5892 0040 05D0     		beq	.L298
3241:Drivers/STM32L4xx_HAL_Driver/Src/stm32l4xx_hal_spi.c ****     {
3242:Drivers/STM32L4xx_HAL_Driver/Src/stm32l4xx_hal_spi.c ****       SET_BIT(hspi->ErrorCode, HAL_SPI_ERROR_FLAG);
 5893              		.loc 1 3242 7
 5894 0042 FB68     		ldr	r3, [r7, #12]
 5895 0044 1B6E     		ldr	r3, [r3, #96]
 5896 0046 43F02002 		orr	r2, r3, #32
 5897 004a FB68     		ldr	r3, [r7, #12]
 5898 004c 1A66     		str	r2, [r3, #96]
 5899              	.L298:
3243:Drivers/STM32L4xx_HAL_Driver/Src/stm32l4xx_hal_spi.c ****     }
3244:Drivers/STM32L4xx_HAL_Driver/Src/stm32l4xx_hal_spi.c **** 
3245:Drivers/STM32L4xx_HAL_Driver/Src/stm32l4xx_hal_spi.c ****     /* Disable Rx/Tx DMA Request */
3246:Drivers/STM32L4xx_HAL_Driver/Src/stm32l4xx_hal_spi.c ****     CLEAR_BIT(hspi->Instance->CR2, SPI_CR2_TXDMAEN | SPI_CR2_RXDMAEN);
 5900              		.loc 1 3246 5
 5901 004e FB68     		ldr	r3, [r7, #12]
 5902 0050 1B68     		ldr	r3, [r3]
 5903 0052 5A68     		ldr	r2, [r3, #4]
 5904 0054 FB68     		ldr	r3, [r7, #12]
 5905 0056 1B68     		ldr	r3, [r3]
 5906 0058 22F00302 		bic	r2, r2, #3
 5907 005c 5A60     		str	r2, [r3, #4]
3247:Drivers/STM32L4xx_HAL_Driver/Src/stm32l4xx_hal_spi.c **** 
3248:Drivers/STM32L4xx_HAL_Driver/Src/stm32l4xx_hal_spi.c ****     hspi->TxXferCount = 0U;
 5908              		.loc 1 3248 23
ARM GAS  C:\Users\Morroway\AppData\Local\Temp\ccCQJjHM.s 			page 161


 5909 005e FB68     		ldr	r3, [r7, #12]
 5910 0060 0022     		movs	r2, #0
 5911 0062 DA87     		strh	r2, [r3, #62]	@ movhi
3249:Drivers/STM32L4xx_HAL_Driver/Src/stm32l4xx_hal_spi.c ****     hspi->RxXferCount = 0U;
 5912              		.loc 1 3249 23
 5913 0064 FB68     		ldr	r3, [r7, #12]
 5914 0066 0022     		movs	r2, #0
 5915 0068 A3F84620 		strh	r2, [r3, #70]	@ movhi
3250:Drivers/STM32L4xx_HAL_Driver/Src/stm32l4xx_hal_spi.c ****     hspi->State = HAL_SPI_STATE_READY;
 5916              		.loc 1 3250 17
 5917 006c FB68     		ldr	r3, [r7, #12]
 5918 006e 0122     		movs	r2, #1
 5919 0070 83F85D20 		strb	r2, [r3, #93]
3251:Drivers/STM32L4xx_HAL_Driver/Src/stm32l4xx_hal_spi.c **** 
3252:Drivers/STM32L4xx_HAL_Driver/Src/stm32l4xx_hal_spi.c **** #if (USE_SPI_CRC != 0U)
3253:Drivers/STM32L4xx_HAL_Driver/Src/stm32l4xx_hal_spi.c ****     /* Check if CRC error occurred */
3254:Drivers/STM32L4xx_HAL_Driver/Src/stm32l4xx_hal_spi.c ****     if (__HAL_SPI_GET_FLAG(hspi, SPI_FLAG_CRCERR))
3255:Drivers/STM32L4xx_HAL_Driver/Src/stm32l4xx_hal_spi.c ****     {
3256:Drivers/STM32L4xx_HAL_Driver/Src/stm32l4xx_hal_spi.c ****       SET_BIT(hspi->ErrorCode, HAL_SPI_ERROR_CRC);
3257:Drivers/STM32L4xx_HAL_Driver/Src/stm32l4xx_hal_spi.c ****       __HAL_SPI_CLEAR_CRCERRFLAG(hspi);
3258:Drivers/STM32L4xx_HAL_Driver/Src/stm32l4xx_hal_spi.c ****     }
3259:Drivers/STM32L4xx_HAL_Driver/Src/stm32l4xx_hal_spi.c **** #endif /* USE_SPI_CRC */
3260:Drivers/STM32L4xx_HAL_Driver/Src/stm32l4xx_hal_spi.c **** 
3261:Drivers/STM32L4xx_HAL_Driver/Src/stm32l4xx_hal_spi.c ****     if (hspi->ErrorCode != HAL_SPI_ERROR_NONE)
 5920              		.loc 1 3261 13
 5921 0074 FB68     		ldr	r3, [r7, #12]
 5922 0076 1B6E     		ldr	r3, [r3, #96]
 5923              		.loc 1 3261 8
 5924 0078 002B     		cmp	r3, #0
 5925 007a 03D0     		beq	.L297
3262:Drivers/STM32L4xx_HAL_Driver/Src/stm32l4xx_hal_spi.c ****     {
3263:Drivers/STM32L4xx_HAL_Driver/Src/stm32l4xx_hal_spi.c ****       /* Call user error callback */
3264:Drivers/STM32L4xx_HAL_Driver/Src/stm32l4xx_hal_spi.c **** #if (USE_HAL_SPI_REGISTER_CALLBACKS == 1U)
3265:Drivers/STM32L4xx_HAL_Driver/Src/stm32l4xx_hal_spi.c ****       hspi->ErrorCallback(hspi);
3266:Drivers/STM32L4xx_HAL_Driver/Src/stm32l4xx_hal_spi.c **** #else
3267:Drivers/STM32L4xx_HAL_Driver/Src/stm32l4xx_hal_spi.c ****       HAL_SPI_ErrorCallback(hspi);
 5926              		.loc 1 3267 7
 5927 007c F868     		ldr	r0, [r7, #12]
 5928 007e FFF7FEFF 		bl	HAL_SPI_ErrorCallback
3268:Drivers/STM32L4xx_HAL_Driver/Src/stm32l4xx_hal_spi.c **** #endif /* USE_HAL_SPI_REGISTER_CALLBACKS */
3269:Drivers/STM32L4xx_HAL_Driver/Src/stm32l4xx_hal_spi.c ****       return;
 5929              		.loc 1 3269 7
 5930 0082 02E0     		b	.L296
 5931              	.L297:
3270:Drivers/STM32L4xx_HAL_Driver/Src/stm32l4xx_hal_spi.c ****     }
3271:Drivers/STM32L4xx_HAL_Driver/Src/stm32l4xx_hal_spi.c ****   }
3272:Drivers/STM32L4xx_HAL_Driver/Src/stm32l4xx_hal_spi.c ****   /* Call user TxRx complete callback */
3273:Drivers/STM32L4xx_HAL_Driver/Src/stm32l4xx_hal_spi.c **** #if (USE_HAL_SPI_REGISTER_CALLBACKS == 1U)
3274:Drivers/STM32L4xx_HAL_Driver/Src/stm32l4xx_hal_spi.c ****   hspi->TxRxCpltCallback(hspi);
3275:Drivers/STM32L4xx_HAL_Driver/Src/stm32l4xx_hal_spi.c **** #else
3276:Drivers/STM32L4xx_HAL_Driver/Src/stm32l4xx_hal_spi.c ****   HAL_SPI_TxRxCpltCallback(hspi);
 5932              		.loc 1 3276 3
 5933 0084 F868     		ldr	r0, [r7, #12]
 5934 0086 FFF7FEFF 		bl	HAL_SPI_TxRxCpltCallback
 5935              	.L296:
3277:Drivers/STM32L4xx_HAL_Driver/Src/stm32l4xx_hal_spi.c **** #endif /* USE_HAL_SPI_REGISTER_CALLBACKS */
3278:Drivers/STM32L4xx_HAL_Driver/Src/stm32l4xx_hal_spi.c **** }
ARM GAS  C:\Users\Morroway\AppData\Local\Temp\ccCQJjHM.s 			page 162


 5936              		.loc 1 3278 1
 5937 008a 1037     		adds	r7, r7, #16
 5938              		.cfi_def_cfa_offset 8
 5939 008c BD46     		mov	sp, r7
 5940              		.cfi_def_cfa_register 13
 5941              		@ sp needed
 5942 008e 80BD     		pop	{r7, pc}
 5943              		.cfi_endproc
 5944              	.LFE352:
 5946              		.section	.text.SPI_DMAHalfTransmitCplt,"ax",%progbits
 5947              		.align	1
 5948              		.syntax unified
 5949              		.thumb
 5950              		.thumb_func
 5952              	SPI_DMAHalfTransmitCplt:
 5953              	.LFB353:
3279:Drivers/STM32L4xx_HAL_Driver/Src/stm32l4xx_hal_spi.c **** 
3280:Drivers/STM32L4xx_HAL_Driver/Src/stm32l4xx_hal_spi.c **** /**
3281:Drivers/STM32L4xx_HAL_Driver/Src/stm32l4xx_hal_spi.c ****   * @brief  DMA SPI half transmit process complete callback.
3282:Drivers/STM32L4xx_HAL_Driver/Src/stm32l4xx_hal_spi.c ****   * @param  hdma pointer to a DMA_HandleTypeDef structure that contains
3283:Drivers/STM32L4xx_HAL_Driver/Src/stm32l4xx_hal_spi.c ****   *               the configuration information for the specified DMA module.
3284:Drivers/STM32L4xx_HAL_Driver/Src/stm32l4xx_hal_spi.c ****   * @retval None
3285:Drivers/STM32L4xx_HAL_Driver/Src/stm32l4xx_hal_spi.c ****   */
3286:Drivers/STM32L4xx_HAL_Driver/Src/stm32l4xx_hal_spi.c **** static void SPI_DMAHalfTransmitCplt(DMA_HandleTypeDef *hdma)
3287:Drivers/STM32L4xx_HAL_Driver/Src/stm32l4xx_hal_spi.c **** {
 5954              		.loc 1 3287 1
 5955              		.cfi_startproc
 5956              		@ args = 0, pretend = 0, frame = 16
 5957              		@ frame_needed = 1, uses_anonymous_args = 0
 5958 0000 80B5     		push	{r7, lr}
 5959              		.cfi_def_cfa_offset 8
 5960              		.cfi_offset 7, -8
 5961              		.cfi_offset 14, -4
 5962 0002 84B0     		sub	sp, sp, #16
 5963              		.cfi_def_cfa_offset 24
 5964 0004 00AF     		add	r7, sp, #0
 5965              		.cfi_def_cfa_register 7
 5966 0006 7860     		str	r0, [r7, #4]
3288:Drivers/STM32L4xx_HAL_Driver/Src/stm32l4xx_hal_spi.c ****   SPI_HandleTypeDef *hspi = (SPI_HandleTypeDef *)(((DMA_HandleTypeDef *)hdma)->Parent); /* Derogati
 5967              		.loc 1 3288 22
 5968 0008 7B68     		ldr	r3, [r7, #4]
 5969 000a 9B6A     		ldr	r3, [r3, #40]
 5970 000c FB60     		str	r3, [r7, #12]
3289:Drivers/STM32L4xx_HAL_Driver/Src/stm32l4xx_hal_spi.c **** 
3290:Drivers/STM32L4xx_HAL_Driver/Src/stm32l4xx_hal_spi.c ****   /* Call user Tx half complete callback */
3291:Drivers/STM32L4xx_HAL_Driver/Src/stm32l4xx_hal_spi.c **** #if (USE_HAL_SPI_REGISTER_CALLBACKS == 1U)
3292:Drivers/STM32L4xx_HAL_Driver/Src/stm32l4xx_hal_spi.c ****   hspi->TxHalfCpltCallback(hspi);
3293:Drivers/STM32L4xx_HAL_Driver/Src/stm32l4xx_hal_spi.c **** #else
3294:Drivers/STM32L4xx_HAL_Driver/Src/stm32l4xx_hal_spi.c ****   HAL_SPI_TxHalfCpltCallback(hspi);
 5971              		.loc 1 3294 3
 5972 000e F868     		ldr	r0, [r7, #12]
 5973 0010 FFF7FEFF 		bl	HAL_SPI_TxHalfCpltCallback
3295:Drivers/STM32L4xx_HAL_Driver/Src/stm32l4xx_hal_spi.c **** #endif /* USE_HAL_SPI_REGISTER_CALLBACKS */
3296:Drivers/STM32L4xx_HAL_Driver/Src/stm32l4xx_hal_spi.c **** }
 5974              		.loc 1 3296 1
 5975 0014 00BF     		nop
 5976 0016 1037     		adds	r7, r7, #16
ARM GAS  C:\Users\Morroway\AppData\Local\Temp\ccCQJjHM.s 			page 163


 5977              		.cfi_def_cfa_offset 8
 5978 0018 BD46     		mov	sp, r7
 5979              		.cfi_def_cfa_register 13
 5980              		@ sp needed
 5981 001a 80BD     		pop	{r7, pc}
 5982              		.cfi_endproc
 5983              	.LFE353:
 5985              		.section	.text.SPI_DMAHalfReceiveCplt,"ax",%progbits
 5986              		.align	1
 5987              		.syntax unified
 5988              		.thumb
 5989              		.thumb_func
 5991              	SPI_DMAHalfReceiveCplt:
 5992              	.LFB354:
3297:Drivers/STM32L4xx_HAL_Driver/Src/stm32l4xx_hal_spi.c **** 
3298:Drivers/STM32L4xx_HAL_Driver/Src/stm32l4xx_hal_spi.c **** /**
3299:Drivers/STM32L4xx_HAL_Driver/Src/stm32l4xx_hal_spi.c ****   * @brief  DMA SPI half receive process complete callback
3300:Drivers/STM32L4xx_HAL_Driver/Src/stm32l4xx_hal_spi.c ****   * @param  hdma pointer to a DMA_HandleTypeDef structure that contains
3301:Drivers/STM32L4xx_HAL_Driver/Src/stm32l4xx_hal_spi.c ****   *               the configuration information for the specified DMA module.
3302:Drivers/STM32L4xx_HAL_Driver/Src/stm32l4xx_hal_spi.c ****   * @retval None
3303:Drivers/STM32L4xx_HAL_Driver/Src/stm32l4xx_hal_spi.c ****   */
3304:Drivers/STM32L4xx_HAL_Driver/Src/stm32l4xx_hal_spi.c **** static void SPI_DMAHalfReceiveCplt(DMA_HandleTypeDef *hdma)
3305:Drivers/STM32L4xx_HAL_Driver/Src/stm32l4xx_hal_spi.c **** {
 5993              		.loc 1 3305 1
 5994              		.cfi_startproc
 5995              		@ args = 0, pretend = 0, frame = 16
 5996              		@ frame_needed = 1, uses_anonymous_args = 0
 5997 0000 80B5     		push	{r7, lr}
 5998              		.cfi_def_cfa_offset 8
 5999              		.cfi_offset 7, -8
 6000              		.cfi_offset 14, -4
 6001 0002 84B0     		sub	sp, sp, #16
 6002              		.cfi_def_cfa_offset 24
 6003 0004 00AF     		add	r7, sp, #0
 6004              		.cfi_def_cfa_register 7
 6005 0006 7860     		str	r0, [r7, #4]
3306:Drivers/STM32L4xx_HAL_Driver/Src/stm32l4xx_hal_spi.c ****   SPI_HandleTypeDef *hspi = (SPI_HandleTypeDef *)(((DMA_HandleTypeDef *)hdma)->Parent); /* Derogati
 6006              		.loc 1 3306 22
 6007 0008 7B68     		ldr	r3, [r7, #4]
 6008 000a 9B6A     		ldr	r3, [r3, #40]
 6009 000c FB60     		str	r3, [r7, #12]
3307:Drivers/STM32L4xx_HAL_Driver/Src/stm32l4xx_hal_spi.c **** 
3308:Drivers/STM32L4xx_HAL_Driver/Src/stm32l4xx_hal_spi.c ****   /* Call user Rx half complete callback */
3309:Drivers/STM32L4xx_HAL_Driver/Src/stm32l4xx_hal_spi.c **** #if (USE_HAL_SPI_REGISTER_CALLBACKS == 1U)
3310:Drivers/STM32L4xx_HAL_Driver/Src/stm32l4xx_hal_spi.c ****   hspi->RxHalfCpltCallback(hspi);
3311:Drivers/STM32L4xx_HAL_Driver/Src/stm32l4xx_hal_spi.c **** #else
3312:Drivers/STM32L4xx_HAL_Driver/Src/stm32l4xx_hal_spi.c ****   HAL_SPI_RxHalfCpltCallback(hspi);
 6010              		.loc 1 3312 3
 6011 000e F868     		ldr	r0, [r7, #12]
 6012 0010 FFF7FEFF 		bl	HAL_SPI_RxHalfCpltCallback
3313:Drivers/STM32L4xx_HAL_Driver/Src/stm32l4xx_hal_spi.c **** #endif /* USE_HAL_SPI_REGISTER_CALLBACKS */
3314:Drivers/STM32L4xx_HAL_Driver/Src/stm32l4xx_hal_spi.c **** }
 6013              		.loc 1 3314 1
 6014 0014 00BF     		nop
 6015 0016 1037     		adds	r7, r7, #16
 6016              		.cfi_def_cfa_offset 8
 6017 0018 BD46     		mov	sp, r7
ARM GAS  C:\Users\Morroway\AppData\Local\Temp\ccCQJjHM.s 			page 164


 6018              		.cfi_def_cfa_register 13
 6019              		@ sp needed
 6020 001a 80BD     		pop	{r7, pc}
 6021              		.cfi_endproc
 6022              	.LFE354:
 6024              		.section	.text.SPI_DMAHalfTransmitReceiveCplt,"ax",%progbits
 6025              		.align	1
 6026              		.syntax unified
 6027              		.thumb
 6028              		.thumb_func
 6030              	SPI_DMAHalfTransmitReceiveCplt:
 6031              	.LFB355:
3315:Drivers/STM32L4xx_HAL_Driver/Src/stm32l4xx_hal_spi.c **** 
3316:Drivers/STM32L4xx_HAL_Driver/Src/stm32l4xx_hal_spi.c **** /**
3317:Drivers/STM32L4xx_HAL_Driver/Src/stm32l4xx_hal_spi.c ****   * @brief  DMA SPI half transmit receive process complete callback.
3318:Drivers/STM32L4xx_HAL_Driver/Src/stm32l4xx_hal_spi.c ****   * @param  hdma pointer to a DMA_HandleTypeDef structure that contains
3319:Drivers/STM32L4xx_HAL_Driver/Src/stm32l4xx_hal_spi.c ****   *               the configuration information for the specified DMA module.
3320:Drivers/STM32L4xx_HAL_Driver/Src/stm32l4xx_hal_spi.c ****   * @retval None
3321:Drivers/STM32L4xx_HAL_Driver/Src/stm32l4xx_hal_spi.c ****   */
3322:Drivers/STM32L4xx_HAL_Driver/Src/stm32l4xx_hal_spi.c **** static void SPI_DMAHalfTransmitReceiveCplt(DMA_HandleTypeDef *hdma)
3323:Drivers/STM32L4xx_HAL_Driver/Src/stm32l4xx_hal_spi.c **** {
 6032              		.loc 1 3323 1
 6033              		.cfi_startproc
 6034              		@ args = 0, pretend = 0, frame = 16
 6035              		@ frame_needed = 1, uses_anonymous_args = 0
 6036 0000 80B5     		push	{r7, lr}
 6037              		.cfi_def_cfa_offset 8
 6038              		.cfi_offset 7, -8
 6039              		.cfi_offset 14, -4
 6040 0002 84B0     		sub	sp, sp, #16
 6041              		.cfi_def_cfa_offset 24
 6042 0004 00AF     		add	r7, sp, #0
 6043              		.cfi_def_cfa_register 7
 6044 0006 7860     		str	r0, [r7, #4]
3324:Drivers/STM32L4xx_HAL_Driver/Src/stm32l4xx_hal_spi.c ****   SPI_HandleTypeDef *hspi = (SPI_HandleTypeDef *)(((DMA_HandleTypeDef *)hdma)->Parent); /* Derogati
 6045              		.loc 1 3324 22
 6046 0008 7B68     		ldr	r3, [r7, #4]
 6047 000a 9B6A     		ldr	r3, [r3, #40]
 6048 000c FB60     		str	r3, [r7, #12]
3325:Drivers/STM32L4xx_HAL_Driver/Src/stm32l4xx_hal_spi.c **** 
3326:Drivers/STM32L4xx_HAL_Driver/Src/stm32l4xx_hal_spi.c ****   /* Call user TxRx half complete callback */
3327:Drivers/STM32L4xx_HAL_Driver/Src/stm32l4xx_hal_spi.c **** #if (USE_HAL_SPI_REGISTER_CALLBACKS == 1U)
3328:Drivers/STM32L4xx_HAL_Driver/Src/stm32l4xx_hal_spi.c ****   hspi->TxRxHalfCpltCallback(hspi);
3329:Drivers/STM32L4xx_HAL_Driver/Src/stm32l4xx_hal_spi.c **** #else
3330:Drivers/STM32L4xx_HAL_Driver/Src/stm32l4xx_hal_spi.c ****   HAL_SPI_TxRxHalfCpltCallback(hspi);
 6049              		.loc 1 3330 3
 6050 000e F868     		ldr	r0, [r7, #12]
 6051 0010 FFF7FEFF 		bl	HAL_SPI_TxRxHalfCpltCallback
3331:Drivers/STM32L4xx_HAL_Driver/Src/stm32l4xx_hal_spi.c **** #endif /* USE_HAL_SPI_REGISTER_CALLBACKS */
3332:Drivers/STM32L4xx_HAL_Driver/Src/stm32l4xx_hal_spi.c **** }
 6052              		.loc 1 3332 1
 6053 0014 00BF     		nop
 6054 0016 1037     		adds	r7, r7, #16
 6055              		.cfi_def_cfa_offset 8
 6056 0018 BD46     		mov	sp, r7
 6057              		.cfi_def_cfa_register 13
 6058              		@ sp needed
ARM GAS  C:\Users\Morroway\AppData\Local\Temp\ccCQJjHM.s 			page 165


 6059 001a 80BD     		pop	{r7, pc}
 6060              		.cfi_endproc
 6061              	.LFE355:
 6063              		.section	.text.SPI_DMAError,"ax",%progbits
 6064              		.align	1
 6065              		.syntax unified
 6066              		.thumb
 6067              		.thumb_func
 6069              	SPI_DMAError:
 6070              	.LFB356:
3333:Drivers/STM32L4xx_HAL_Driver/Src/stm32l4xx_hal_spi.c **** 
3334:Drivers/STM32L4xx_HAL_Driver/Src/stm32l4xx_hal_spi.c **** /**
3335:Drivers/STM32L4xx_HAL_Driver/Src/stm32l4xx_hal_spi.c ****   * @brief  DMA SPI communication error callback.
3336:Drivers/STM32L4xx_HAL_Driver/Src/stm32l4xx_hal_spi.c ****   * @param  hdma pointer to a DMA_HandleTypeDef structure that contains
3337:Drivers/STM32L4xx_HAL_Driver/Src/stm32l4xx_hal_spi.c ****   *               the configuration information for the specified DMA module.
3338:Drivers/STM32L4xx_HAL_Driver/Src/stm32l4xx_hal_spi.c ****   * @retval None
3339:Drivers/STM32L4xx_HAL_Driver/Src/stm32l4xx_hal_spi.c ****   */
3340:Drivers/STM32L4xx_HAL_Driver/Src/stm32l4xx_hal_spi.c **** static void SPI_DMAError(DMA_HandleTypeDef *hdma)
3341:Drivers/STM32L4xx_HAL_Driver/Src/stm32l4xx_hal_spi.c **** {
 6071              		.loc 1 3341 1
 6072              		.cfi_startproc
 6073              		@ args = 0, pretend = 0, frame = 16
 6074              		@ frame_needed = 1, uses_anonymous_args = 0
 6075 0000 80B5     		push	{r7, lr}
 6076              		.cfi_def_cfa_offset 8
 6077              		.cfi_offset 7, -8
 6078              		.cfi_offset 14, -4
 6079 0002 84B0     		sub	sp, sp, #16
 6080              		.cfi_def_cfa_offset 24
 6081 0004 00AF     		add	r7, sp, #0
 6082              		.cfi_def_cfa_register 7
 6083 0006 7860     		str	r0, [r7, #4]
3342:Drivers/STM32L4xx_HAL_Driver/Src/stm32l4xx_hal_spi.c ****   SPI_HandleTypeDef *hspi = (SPI_HandleTypeDef *)(((DMA_HandleTypeDef *)hdma)->Parent); /* Derogati
 6084              		.loc 1 3342 22
 6085 0008 7B68     		ldr	r3, [r7, #4]
 6086 000a 9B6A     		ldr	r3, [r3, #40]
 6087 000c FB60     		str	r3, [r7, #12]
3343:Drivers/STM32L4xx_HAL_Driver/Src/stm32l4xx_hal_spi.c **** 
3344:Drivers/STM32L4xx_HAL_Driver/Src/stm32l4xx_hal_spi.c ****   /* Stop the disable DMA transfer on SPI side */
3345:Drivers/STM32L4xx_HAL_Driver/Src/stm32l4xx_hal_spi.c ****   CLEAR_BIT(hspi->Instance->CR2, SPI_CR2_TXDMAEN | SPI_CR2_RXDMAEN);
 6088              		.loc 1 3345 3
 6089 000e FB68     		ldr	r3, [r7, #12]
 6090 0010 1B68     		ldr	r3, [r3]
 6091 0012 5A68     		ldr	r2, [r3, #4]
 6092 0014 FB68     		ldr	r3, [r7, #12]
 6093 0016 1B68     		ldr	r3, [r3]
 6094 0018 22F00302 		bic	r2, r2, #3
 6095 001c 5A60     		str	r2, [r3, #4]
3346:Drivers/STM32L4xx_HAL_Driver/Src/stm32l4xx_hal_spi.c **** 
3347:Drivers/STM32L4xx_HAL_Driver/Src/stm32l4xx_hal_spi.c ****   SET_BIT(hspi->ErrorCode, HAL_SPI_ERROR_DMA);
 6096              		.loc 1 3347 3
 6097 001e FB68     		ldr	r3, [r7, #12]
 6098 0020 1B6E     		ldr	r3, [r3, #96]
 6099 0022 43F01002 		orr	r2, r3, #16
 6100 0026 FB68     		ldr	r3, [r7, #12]
 6101 0028 1A66     		str	r2, [r3, #96]
3348:Drivers/STM32L4xx_HAL_Driver/Src/stm32l4xx_hal_spi.c ****   hspi->State = HAL_SPI_STATE_READY;
ARM GAS  C:\Users\Morroway\AppData\Local\Temp\ccCQJjHM.s 			page 166


 6102              		.loc 1 3348 15
 6103 002a FB68     		ldr	r3, [r7, #12]
 6104 002c 0122     		movs	r2, #1
 6105 002e 83F85D20 		strb	r2, [r3, #93]
3349:Drivers/STM32L4xx_HAL_Driver/Src/stm32l4xx_hal_spi.c ****   /* Call user error callback */
3350:Drivers/STM32L4xx_HAL_Driver/Src/stm32l4xx_hal_spi.c **** #if (USE_HAL_SPI_REGISTER_CALLBACKS == 1U)
3351:Drivers/STM32L4xx_HAL_Driver/Src/stm32l4xx_hal_spi.c ****   hspi->ErrorCallback(hspi);
3352:Drivers/STM32L4xx_HAL_Driver/Src/stm32l4xx_hal_spi.c **** #else
3353:Drivers/STM32L4xx_HAL_Driver/Src/stm32l4xx_hal_spi.c ****   HAL_SPI_ErrorCallback(hspi);
 6106              		.loc 1 3353 3
 6107 0032 F868     		ldr	r0, [r7, #12]
 6108 0034 FFF7FEFF 		bl	HAL_SPI_ErrorCallback
3354:Drivers/STM32L4xx_HAL_Driver/Src/stm32l4xx_hal_spi.c **** #endif /* USE_HAL_SPI_REGISTER_CALLBACKS */
3355:Drivers/STM32L4xx_HAL_Driver/Src/stm32l4xx_hal_spi.c **** }
 6109              		.loc 1 3355 1
 6110 0038 00BF     		nop
 6111 003a 1037     		adds	r7, r7, #16
 6112              		.cfi_def_cfa_offset 8
 6113 003c BD46     		mov	sp, r7
 6114              		.cfi_def_cfa_register 13
 6115              		@ sp needed
 6116 003e 80BD     		pop	{r7, pc}
 6117              		.cfi_endproc
 6118              	.LFE356:
 6120              		.section	.text.SPI_DMAAbortOnError,"ax",%progbits
 6121              		.align	1
 6122              		.syntax unified
 6123              		.thumb
 6124              		.thumb_func
 6126              	SPI_DMAAbortOnError:
 6127              	.LFB357:
3356:Drivers/STM32L4xx_HAL_Driver/Src/stm32l4xx_hal_spi.c **** 
3357:Drivers/STM32L4xx_HAL_Driver/Src/stm32l4xx_hal_spi.c **** /**
3358:Drivers/STM32L4xx_HAL_Driver/Src/stm32l4xx_hal_spi.c ****   * @brief  DMA SPI communication abort callback, when initiated by HAL services on Error
3359:Drivers/STM32L4xx_HAL_Driver/Src/stm32l4xx_hal_spi.c ****   *         (To be called at end of DMA Abort procedure following error occurrence).
3360:Drivers/STM32L4xx_HAL_Driver/Src/stm32l4xx_hal_spi.c ****   * @param  hdma DMA handle.
3361:Drivers/STM32L4xx_HAL_Driver/Src/stm32l4xx_hal_spi.c ****   * @retval None
3362:Drivers/STM32L4xx_HAL_Driver/Src/stm32l4xx_hal_spi.c ****   */
3363:Drivers/STM32L4xx_HAL_Driver/Src/stm32l4xx_hal_spi.c **** static void SPI_DMAAbortOnError(DMA_HandleTypeDef *hdma)
3364:Drivers/STM32L4xx_HAL_Driver/Src/stm32l4xx_hal_spi.c **** {
 6128              		.loc 1 3364 1
 6129              		.cfi_startproc
 6130              		@ args = 0, pretend = 0, frame = 16
 6131              		@ frame_needed = 1, uses_anonymous_args = 0
 6132 0000 80B5     		push	{r7, lr}
 6133              		.cfi_def_cfa_offset 8
 6134              		.cfi_offset 7, -8
 6135              		.cfi_offset 14, -4
 6136 0002 84B0     		sub	sp, sp, #16
 6137              		.cfi_def_cfa_offset 24
 6138 0004 00AF     		add	r7, sp, #0
 6139              		.cfi_def_cfa_register 7
 6140 0006 7860     		str	r0, [r7, #4]
3365:Drivers/STM32L4xx_HAL_Driver/Src/stm32l4xx_hal_spi.c ****   SPI_HandleTypeDef *hspi = (SPI_HandleTypeDef *)(((DMA_HandleTypeDef *)hdma)->Parent); /* Derogati
 6141              		.loc 1 3365 22
 6142 0008 7B68     		ldr	r3, [r7, #4]
 6143 000a 9B6A     		ldr	r3, [r3, #40]
ARM GAS  C:\Users\Morroway\AppData\Local\Temp\ccCQJjHM.s 			page 167


 6144 000c FB60     		str	r3, [r7, #12]
3366:Drivers/STM32L4xx_HAL_Driver/Src/stm32l4xx_hal_spi.c ****   hspi->RxXferCount = 0U;
 6145              		.loc 1 3366 21
 6146 000e FB68     		ldr	r3, [r7, #12]
 6147 0010 0022     		movs	r2, #0
 6148 0012 A3F84620 		strh	r2, [r3, #70]	@ movhi
3367:Drivers/STM32L4xx_HAL_Driver/Src/stm32l4xx_hal_spi.c ****   hspi->TxXferCount = 0U;
 6149              		.loc 1 3367 21
 6150 0016 FB68     		ldr	r3, [r7, #12]
 6151 0018 0022     		movs	r2, #0
 6152 001a DA87     		strh	r2, [r3, #62]	@ movhi
3368:Drivers/STM32L4xx_HAL_Driver/Src/stm32l4xx_hal_spi.c **** 
3369:Drivers/STM32L4xx_HAL_Driver/Src/stm32l4xx_hal_spi.c ****   /* Call user error callback */
3370:Drivers/STM32L4xx_HAL_Driver/Src/stm32l4xx_hal_spi.c **** #if (USE_HAL_SPI_REGISTER_CALLBACKS == 1U)
3371:Drivers/STM32L4xx_HAL_Driver/Src/stm32l4xx_hal_spi.c ****   hspi->ErrorCallback(hspi);
3372:Drivers/STM32L4xx_HAL_Driver/Src/stm32l4xx_hal_spi.c **** #else
3373:Drivers/STM32L4xx_HAL_Driver/Src/stm32l4xx_hal_spi.c ****   HAL_SPI_ErrorCallback(hspi);
 6153              		.loc 1 3373 3
 6154 001c F868     		ldr	r0, [r7, #12]
 6155 001e FFF7FEFF 		bl	HAL_SPI_ErrorCallback
3374:Drivers/STM32L4xx_HAL_Driver/Src/stm32l4xx_hal_spi.c **** #endif /* USE_HAL_SPI_REGISTER_CALLBACKS */
3375:Drivers/STM32L4xx_HAL_Driver/Src/stm32l4xx_hal_spi.c **** }
 6156              		.loc 1 3375 1
 6157 0022 00BF     		nop
 6158 0024 1037     		adds	r7, r7, #16
 6159              		.cfi_def_cfa_offset 8
 6160 0026 BD46     		mov	sp, r7
 6161              		.cfi_def_cfa_register 13
 6162              		@ sp needed
 6163 0028 80BD     		pop	{r7, pc}
 6164              		.cfi_endproc
 6165              	.LFE357:
 6167              		.section	.text.SPI_DMATxAbortCallback,"ax",%progbits
 6168              		.align	1
 6169              		.syntax unified
 6170              		.thumb
 6171              		.thumb_func
 6173              	SPI_DMATxAbortCallback:
 6174              	.LFB358:
3376:Drivers/STM32L4xx_HAL_Driver/Src/stm32l4xx_hal_spi.c **** 
3377:Drivers/STM32L4xx_HAL_Driver/Src/stm32l4xx_hal_spi.c **** /**
3378:Drivers/STM32L4xx_HAL_Driver/Src/stm32l4xx_hal_spi.c ****   * @brief  DMA SPI Tx communication abort callback, when initiated by user
3379:Drivers/STM32L4xx_HAL_Driver/Src/stm32l4xx_hal_spi.c ****   *         (To be called at end of DMA Tx Abort procedure following user abort request).
3380:Drivers/STM32L4xx_HAL_Driver/Src/stm32l4xx_hal_spi.c ****   * @note   When this callback is executed, User Abort complete call back is called only if no
3381:Drivers/STM32L4xx_HAL_Driver/Src/stm32l4xx_hal_spi.c ****   *         Abort still ongoing for Rx DMA Handle.
3382:Drivers/STM32L4xx_HAL_Driver/Src/stm32l4xx_hal_spi.c ****   * @param  hdma DMA handle.
3383:Drivers/STM32L4xx_HAL_Driver/Src/stm32l4xx_hal_spi.c ****   * @retval None
3384:Drivers/STM32L4xx_HAL_Driver/Src/stm32l4xx_hal_spi.c ****   */
3385:Drivers/STM32L4xx_HAL_Driver/Src/stm32l4xx_hal_spi.c **** static void SPI_DMATxAbortCallback(DMA_HandleTypeDef *hdma)
3386:Drivers/STM32L4xx_HAL_Driver/Src/stm32l4xx_hal_spi.c **** {
 6175              		.loc 1 3386 1
 6176              		.cfi_startproc
 6177              		@ args = 0, pretend = 0, frame = 24
 6178              		@ frame_needed = 1, uses_anonymous_args = 0
 6179 0000 80B5     		push	{r7, lr}
 6180              		.cfi_def_cfa_offset 8
 6181              		.cfi_offset 7, -8
ARM GAS  C:\Users\Morroway\AppData\Local\Temp\ccCQJjHM.s 			page 168


 6182              		.cfi_offset 14, -4
 6183 0002 88B0     		sub	sp, sp, #32
 6184              		.cfi_def_cfa_offset 40
 6185 0004 02AF     		add	r7, sp, #8
 6186              		.cfi_def_cfa 7, 32
 6187 0006 7860     		str	r0, [r7, #4]
3387:Drivers/STM32L4xx_HAL_Driver/Src/stm32l4xx_hal_spi.c ****   SPI_HandleTypeDef *hspi = (SPI_HandleTypeDef *)(((DMA_HandleTypeDef *)hdma)->Parent); /* Derogati
 6188              		.loc 1 3387 22
 6189 0008 7B68     		ldr	r3, [r7, #4]
 6190 000a 9B6A     		ldr	r3, [r3, #40]
 6191 000c 7B61     		str	r3, [r7, #20]
3388:Drivers/STM32L4xx_HAL_Driver/Src/stm32l4xx_hal_spi.c **** 
3389:Drivers/STM32L4xx_HAL_Driver/Src/stm32l4xx_hal_spi.c ****   hspi->hdmatx->XferAbortCallback = NULL;
 6192              		.loc 1 3389 7
 6193 000e 7B69     		ldr	r3, [r7, #20]
 6194 0010 5B6D     		ldr	r3, [r3, #84]
 6195              		.loc 1 3389 35
 6196 0012 0022     		movs	r2, #0
 6197 0014 9A63     		str	r2, [r3, #56]
3390:Drivers/STM32L4xx_HAL_Driver/Src/stm32l4xx_hal_spi.c **** 
3391:Drivers/STM32L4xx_HAL_Driver/Src/stm32l4xx_hal_spi.c ****   /* Disable Tx DMA Request */
3392:Drivers/STM32L4xx_HAL_Driver/Src/stm32l4xx_hal_spi.c ****   CLEAR_BIT(hspi->Instance->CR2, SPI_CR2_TXDMAEN);
 6198              		.loc 1 3392 3
 6199 0016 7B69     		ldr	r3, [r7, #20]
 6200 0018 1B68     		ldr	r3, [r3]
 6201 001a 5A68     		ldr	r2, [r3, #4]
 6202 001c 7B69     		ldr	r3, [r7, #20]
 6203 001e 1B68     		ldr	r3, [r3]
 6204 0020 22F00202 		bic	r2, r2, #2
 6205 0024 5A60     		str	r2, [r3, #4]
3393:Drivers/STM32L4xx_HAL_Driver/Src/stm32l4xx_hal_spi.c **** 
3394:Drivers/STM32L4xx_HAL_Driver/Src/stm32l4xx_hal_spi.c ****   if (SPI_EndRxTxTransaction(hspi, SPI_DEFAULT_TIMEOUT, HAL_GetTick()) != HAL_OK)
 6206              		.loc 1 3394 7
 6207 0026 FFF7FEFF 		bl	HAL_GetTick
 6208 002a 0346     		mov	r3, r0
 6209 002c 1A46     		mov	r2, r3
 6210 002e 6421     		movs	r1, #100
 6211 0030 7869     		ldr	r0, [r7, #20]
 6212 0032 FFF7FEFF 		bl	SPI_EndRxTxTransaction
 6213 0036 0346     		mov	r3, r0
 6214              		.loc 1 3394 6
 6215 0038 002B     		cmp	r3, #0
 6216 003a 02D0     		beq	.L306
3395:Drivers/STM32L4xx_HAL_Driver/Src/stm32l4xx_hal_spi.c ****   {
3396:Drivers/STM32L4xx_HAL_Driver/Src/stm32l4xx_hal_spi.c ****     hspi->ErrorCode = HAL_SPI_ERROR_ABORT;
 6217              		.loc 1 3396 21
 6218 003c 7B69     		ldr	r3, [r7, #20]
 6219 003e 4022     		movs	r2, #64
 6220 0040 1A66     		str	r2, [r3, #96]
 6221              	.L306:
3397:Drivers/STM32L4xx_HAL_Driver/Src/stm32l4xx_hal_spi.c ****   }
3398:Drivers/STM32L4xx_HAL_Driver/Src/stm32l4xx_hal_spi.c **** 
3399:Drivers/STM32L4xx_HAL_Driver/Src/stm32l4xx_hal_spi.c ****   /* Disable SPI Peripheral */
3400:Drivers/STM32L4xx_HAL_Driver/Src/stm32l4xx_hal_spi.c ****   __HAL_SPI_DISABLE(hspi);
 6222              		.loc 1 3400 3
 6223 0042 7B69     		ldr	r3, [r7, #20]
 6224 0044 1B68     		ldr	r3, [r3]
ARM GAS  C:\Users\Morroway\AppData\Local\Temp\ccCQJjHM.s 			page 169


 6225 0046 1A68     		ldr	r2, [r3]
 6226 0048 7B69     		ldr	r3, [r7, #20]
 6227 004a 1B68     		ldr	r3, [r3]
 6228 004c 22F04002 		bic	r2, r2, #64
 6229 0050 1A60     		str	r2, [r3]
3401:Drivers/STM32L4xx_HAL_Driver/Src/stm32l4xx_hal_spi.c **** 
3402:Drivers/STM32L4xx_HAL_Driver/Src/stm32l4xx_hal_spi.c ****   /* Empty the FRLVL fifo */
3403:Drivers/STM32L4xx_HAL_Driver/Src/stm32l4xx_hal_spi.c ****   if (SPI_WaitFifoStateUntilTimeout(hspi, SPI_FLAG_FRLVL, SPI_FRLVL_EMPTY, SPI_DEFAULT_TIMEOUT, HAL
 6230              		.loc 1 3403 7
 6231 0052 FFF7FEFF 		bl	HAL_GetTick
 6232 0056 0346     		mov	r3, r0
 6233 0058 0093     		str	r3, [sp]
 6234 005a 6423     		movs	r3, #100
 6235 005c 0022     		movs	r2, #0
 6236 005e 4FF4C061 		mov	r1, #1536
 6237 0062 7869     		ldr	r0, [r7, #20]
 6238 0064 FFF7FEFF 		bl	SPI_WaitFifoStateUntilTimeout
 6239 0068 0346     		mov	r3, r0
 6240              		.loc 1 3403 6
 6241 006a 002B     		cmp	r3, #0
 6242 006c 02D0     		beq	.L307
3404:Drivers/STM32L4xx_HAL_Driver/Src/stm32l4xx_hal_spi.c ****   {
3405:Drivers/STM32L4xx_HAL_Driver/Src/stm32l4xx_hal_spi.c ****     hspi->ErrorCode = HAL_SPI_ERROR_ABORT;
 6243              		.loc 1 3405 21
 6244 006e 7B69     		ldr	r3, [r7, #20]
 6245 0070 4022     		movs	r2, #64
 6246 0072 1A66     		str	r2, [r3, #96]
 6247              	.L307:
3406:Drivers/STM32L4xx_HAL_Driver/Src/stm32l4xx_hal_spi.c ****   }
3407:Drivers/STM32L4xx_HAL_Driver/Src/stm32l4xx_hal_spi.c **** 
3408:Drivers/STM32L4xx_HAL_Driver/Src/stm32l4xx_hal_spi.c ****   /* Check if an Abort process is still ongoing */
3409:Drivers/STM32L4xx_HAL_Driver/Src/stm32l4xx_hal_spi.c ****   if (hspi->hdmarx != NULL)
 6248              		.loc 1 3409 11
 6249 0074 7B69     		ldr	r3, [r7, #20]
 6250 0076 9B6D     		ldr	r3, [r3, #88]
 6251              		.loc 1 3409 6
 6252 0078 002B     		cmp	r3, #0
 6253 007a 04D0     		beq	.L308
3410:Drivers/STM32L4xx_HAL_Driver/Src/stm32l4xx_hal_spi.c ****   {
3411:Drivers/STM32L4xx_HAL_Driver/Src/stm32l4xx_hal_spi.c ****     if (hspi->hdmarx->XferAbortCallback != NULL)
 6254              		.loc 1 3411 13
 6255 007c 7B69     		ldr	r3, [r7, #20]
 6256 007e 9B6D     		ldr	r3, [r3, #88]
 6257              		.loc 1 3411 21
 6258 0080 9B6B     		ldr	r3, [r3, #56]
 6259              		.loc 1 3411 8
 6260 0082 002B     		cmp	r3, #0
 6261 0084 27D1     		bne	.L311
 6262              	.L308:
3412:Drivers/STM32L4xx_HAL_Driver/Src/stm32l4xx_hal_spi.c ****     {
3413:Drivers/STM32L4xx_HAL_Driver/Src/stm32l4xx_hal_spi.c ****       return;
3414:Drivers/STM32L4xx_HAL_Driver/Src/stm32l4xx_hal_spi.c ****     }
3415:Drivers/STM32L4xx_HAL_Driver/Src/stm32l4xx_hal_spi.c ****   }
3416:Drivers/STM32L4xx_HAL_Driver/Src/stm32l4xx_hal_spi.c **** 
3417:Drivers/STM32L4xx_HAL_Driver/Src/stm32l4xx_hal_spi.c ****   /* No Abort process still ongoing : All DMA Stream/Channel are aborted, call user Abort Complete 
3418:Drivers/STM32L4xx_HAL_Driver/Src/stm32l4xx_hal_spi.c ****   hspi->RxXferCount = 0U;
 6263              		.loc 1 3418 21
ARM GAS  C:\Users\Morroway\AppData\Local\Temp\ccCQJjHM.s 			page 170


 6264 0086 7B69     		ldr	r3, [r7, #20]
 6265 0088 0022     		movs	r2, #0
 6266 008a A3F84620 		strh	r2, [r3, #70]	@ movhi
3419:Drivers/STM32L4xx_HAL_Driver/Src/stm32l4xx_hal_spi.c ****   hspi->TxXferCount = 0U;
 6267              		.loc 1 3419 21
 6268 008e 7B69     		ldr	r3, [r7, #20]
 6269 0090 0022     		movs	r2, #0
 6270 0092 DA87     		strh	r2, [r3, #62]	@ movhi
3420:Drivers/STM32L4xx_HAL_Driver/Src/stm32l4xx_hal_spi.c **** 
3421:Drivers/STM32L4xx_HAL_Driver/Src/stm32l4xx_hal_spi.c ****   /* Check no error during Abort procedure */
3422:Drivers/STM32L4xx_HAL_Driver/Src/stm32l4xx_hal_spi.c ****   if (hspi->ErrorCode != HAL_SPI_ERROR_ABORT)
 6271              		.loc 1 3422 11
 6272 0094 7B69     		ldr	r3, [r7, #20]
 6273 0096 1B6E     		ldr	r3, [r3, #96]
 6274              		.loc 1 3422 6
 6275 0098 402B     		cmp	r3, #64
 6276 009a 02D0     		beq	.L310
3423:Drivers/STM32L4xx_HAL_Driver/Src/stm32l4xx_hal_spi.c ****   {
3424:Drivers/STM32L4xx_HAL_Driver/Src/stm32l4xx_hal_spi.c ****     /* Reset errorCode */
3425:Drivers/STM32L4xx_HAL_Driver/Src/stm32l4xx_hal_spi.c ****     hspi->ErrorCode = HAL_SPI_ERROR_NONE;
 6277              		.loc 1 3425 21
 6278 009c 7B69     		ldr	r3, [r7, #20]
 6279 009e 0022     		movs	r2, #0
 6280 00a0 1A66     		str	r2, [r3, #96]
 6281              	.L310:
 6282              	.LBB12:
3426:Drivers/STM32L4xx_HAL_Driver/Src/stm32l4xx_hal_spi.c ****   }
3427:Drivers/STM32L4xx_HAL_Driver/Src/stm32l4xx_hal_spi.c **** 
3428:Drivers/STM32L4xx_HAL_Driver/Src/stm32l4xx_hal_spi.c ****   /* Clear the Error flags in the SR register */
3429:Drivers/STM32L4xx_HAL_Driver/Src/stm32l4xx_hal_spi.c ****   __HAL_SPI_CLEAR_OVRFLAG(hspi);
 6283              		.loc 1 3429 3
 6284 00a2 0023     		movs	r3, #0
 6285 00a4 3B61     		str	r3, [r7, #16]
 6286 00a6 7B69     		ldr	r3, [r7, #20]
 6287 00a8 1B68     		ldr	r3, [r3]
 6288 00aa DB68     		ldr	r3, [r3, #12]
 6289 00ac 3B61     		str	r3, [r7, #16]
 6290 00ae 7B69     		ldr	r3, [r7, #20]
 6291 00b0 1B68     		ldr	r3, [r3]
 6292 00b2 9B68     		ldr	r3, [r3, #8]
 6293 00b4 3B61     		str	r3, [r7, #16]
 6294 00b6 3B69     		ldr	r3, [r7, #16]
 6295              	.LBE12:
 6296              	.LBB13:
3430:Drivers/STM32L4xx_HAL_Driver/Src/stm32l4xx_hal_spi.c ****   __HAL_SPI_CLEAR_FREFLAG(hspi);
 6297              		.loc 1 3430 3
 6298 00b8 0023     		movs	r3, #0
 6299 00ba FB60     		str	r3, [r7, #12]
 6300 00bc 7B69     		ldr	r3, [r7, #20]
 6301 00be 1B68     		ldr	r3, [r3]
 6302 00c0 9B68     		ldr	r3, [r3, #8]
 6303 00c2 FB60     		str	r3, [r7, #12]
 6304 00c4 FB68     		ldr	r3, [r7, #12]
 6305              	.LBE13:
3431:Drivers/STM32L4xx_HAL_Driver/Src/stm32l4xx_hal_spi.c **** 
3432:Drivers/STM32L4xx_HAL_Driver/Src/stm32l4xx_hal_spi.c ****   /* Restore hspi->State to Ready */
3433:Drivers/STM32L4xx_HAL_Driver/Src/stm32l4xx_hal_spi.c ****   hspi->State  = HAL_SPI_STATE_READY;
ARM GAS  C:\Users\Morroway\AppData\Local\Temp\ccCQJjHM.s 			page 171


 6306              		.loc 1 3433 16
 6307 00c6 7B69     		ldr	r3, [r7, #20]
 6308 00c8 0122     		movs	r2, #1
 6309 00ca 83F85D20 		strb	r2, [r3, #93]
3434:Drivers/STM32L4xx_HAL_Driver/Src/stm32l4xx_hal_spi.c **** 
3435:Drivers/STM32L4xx_HAL_Driver/Src/stm32l4xx_hal_spi.c ****   /* Call user Abort complete callback */
3436:Drivers/STM32L4xx_HAL_Driver/Src/stm32l4xx_hal_spi.c **** #if (USE_HAL_SPI_REGISTER_CALLBACKS == 1U)
3437:Drivers/STM32L4xx_HAL_Driver/Src/stm32l4xx_hal_spi.c ****   hspi->AbortCpltCallback(hspi);
3438:Drivers/STM32L4xx_HAL_Driver/Src/stm32l4xx_hal_spi.c **** #else
3439:Drivers/STM32L4xx_HAL_Driver/Src/stm32l4xx_hal_spi.c ****   HAL_SPI_AbortCpltCallback(hspi);
 6310              		.loc 1 3439 3
 6311 00ce 7869     		ldr	r0, [r7, #20]
 6312 00d0 FFF7FEFF 		bl	HAL_SPI_AbortCpltCallback
 6313 00d4 00E0     		b	.L305
 6314              	.L311:
3413:Drivers/STM32L4xx_HAL_Driver/Src/stm32l4xx_hal_spi.c ****     }
 6315              		.loc 1 3413 7
 6316 00d6 00BF     		nop
 6317              	.L305:
3440:Drivers/STM32L4xx_HAL_Driver/Src/stm32l4xx_hal_spi.c **** #endif /* USE_HAL_SPI_REGISTER_CALLBACKS */
3441:Drivers/STM32L4xx_HAL_Driver/Src/stm32l4xx_hal_spi.c **** }
 6318              		.loc 1 3441 1
 6319 00d8 1837     		adds	r7, r7, #24
 6320              		.cfi_def_cfa_offset 8
 6321 00da BD46     		mov	sp, r7
 6322              		.cfi_def_cfa_register 13
 6323              		@ sp needed
 6324 00dc 80BD     		pop	{r7, pc}
 6325              		.cfi_endproc
 6326              	.LFE358:
 6328              		.section	.text.SPI_DMARxAbortCallback,"ax",%progbits
 6329              		.align	1
 6330              		.syntax unified
 6331              		.thumb
 6332              		.thumb_func
 6334              	SPI_DMARxAbortCallback:
 6335              	.LFB359:
3442:Drivers/STM32L4xx_HAL_Driver/Src/stm32l4xx_hal_spi.c **** 
3443:Drivers/STM32L4xx_HAL_Driver/Src/stm32l4xx_hal_spi.c **** /**
3444:Drivers/STM32L4xx_HAL_Driver/Src/stm32l4xx_hal_spi.c ****   * @brief  DMA SPI Rx communication abort callback, when initiated by user
3445:Drivers/STM32L4xx_HAL_Driver/Src/stm32l4xx_hal_spi.c ****   *         (To be called at end of DMA Rx Abort procedure following user abort request).
3446:Drivers/STM32L4xx_HAL_Driver/Src/stm32l4xx_hal_spi.c ****   * @note   When this callback is executed, User Abort complete call back is called only if no
3447:Drivers/STM32L4xx_HAL_Driver/Src/stm32l4xx_hal_spi.c ****   *         Abort still ongoing for Tx DMA Handle.
3448:Drivers/STM32L4xx_HAL_Driver/Src/stm32l4xx_hal_spi.c ****   * @param  hdma DMA handle.
3449:Drivers/STM32L4xx_HAL_Driver/Src/stm32l4xx_hal_spi.c ****   * @retval None
3450:Drivers/STM32L4xx_HAL_Driver/Src/stm32l4xx_hal_spi.c ****   */
3451:Drivers/STM32L4xx_HAL_Driver/Src/stm32l4xx_hal_spi.c **** static void SPI_DMARxAbortCallback(DMA_HandleTypeDef *hdma)
3452:Drivers/STM32L4xx_HAL_Driver/Src/stm32l4xx_hal_spi.c **** {
 6336              		.loc 1 3452 1
 6337              		.cfi_startproc
 6338              		@ args = 0, pretend = 0, frame = 24
 6339              		@ frame_needed = 1, uses_anonymous_args = 0
 6340 0000 80B5     		push	{r7, lr}
 6341              		.cfi_def_cfa_offset 8
 6342              		.cfi_offset 7, -8
 6343              		.cfi_offset 14, -4
 6344 0002 88B0     		sub	sp, sp, #32
ARM GAS  C:\Users\Morroway\AppData\Local\Temp\ccCQJjHM.s 			page 172


 6345              		.cfi_def_cfa_offset 40
 6346 0004 02AF     		add	r7, sp, #8
 6347              		.cfi_def_cfa 7, 32
 6348 0006 7860     		str	r0, [r7, #4]
3453:Drivers/STM32L4xx_HAL_Driver/Src/stm32l4xx_hal_spi.c ****   SPI_HandleTypeDef *hspi = (SPI_HandleTypeDef *)(((DMA_HandleTypeDef *)hdma)->Parent); /* Derogati
 6349              		.loc 1 3453 22
 6350 0008 7B68     		ldr	r3, [r7, #4]
 6351 000a 9B6A     		ldr	r3, [r3, #40]
 6352 000c 7B61     		str	r3, [r7, #20]
3454:Drivers/STM32L4xx_HAL_Driver/Src/stm32l4xx_hal_spi.c **** 
3455:Drivers/STM32L4xx_HAL_Driver/Src/stm32l4xx_hal_spi.c ****   /* Disable SPI Peripheral */
3456:Drivers/STM32L4xx_HAL_Driver/Src/stm32l4xx_hal_spi.c ****   __HAL_SPI_DISABLE(hspi);
 6353              		.loc 1 3456 3
 6354 000e 7B69     		ldr	r3, [r7, #20]
 6355 0010 1B68     		ldr	r3, [r3]
 6356 0012 1A68     		ldr	r2, [r3]
 6357 0014 7B69     		ldr	r3, [r7, #20]
 6358 0016 1B68     		ldr	r3, [r3]
 6359 0018 22F04002 		bic	r2, r2, #64
 6360 001c 1A60     		str	r2, [r3]
3457:Drivers/STM32L4xx_HAL_Driver/Src/stm32l4xx_hal_spi.c **** 
3458:Drivers/STM32L4xx_HAL_Driver/Src/stm32l4xx_hal_spi.c ****   hspi->hdmarx->XferAbortCallback = NULL;
 6361              		.loc 1 3458 7
 6362 001e 7B69     		ldr	r3, [r7, #20]
 6363 0020 9B6D     		ldr	r3, [r3, #88]
 6364              		.loc 1 3458 35
 6365 0022 0022     		movs	r2, #0
 6366 0024 9A63     		str	r2, [r3, #56]
3459:Drivers/STM32L4xx_HAL_Driver/Src/stm32l4xx_hal_spi.c **** 
3460:Drivers/STM32L4xx_HAL_Driver/Src/stm32l4xx_hal_spi.c ****   /* Disable Rx DMA Request */
3461:Drivers/STM32L4xx_HAL_Driver/Src/stm32l4xx_hal_spi.c ****   CLEAR_BIT(hspi->Instance->CR2, SPI_CR2_RXDMAEN);
 6367              		.loc 1 3461 3
 6368 0026 7B69     		ldr	r3, [r7, #20]
 6369 0028 1B68     		ldr	r3, [r3]
 6370 002a 5A68     		ldr	r2, [r3, #4]
 6371 002c 7B69     		ldr	r3, [r7, #20]
 6372 002e 1B68     		ldr	r3, [r3]
 6373 0030 22F00102 		bic	r2, r2, #1
 6374 0034 5A60     		str	r2, [r3, #4]
3462:Drivers/STM32L4xx_HAL_Driver/Src/stm32l4xx_hal_spi.c **** 
3463:Drivers/STM32L4xx_HAL_Driver/Src/stm32l4xx_hal_spi.c ****   /* Control the BSY flag */
3464:Drivers/STM32L4xx_HAL_Driver/Src/stm32l4xx_hal_spi.c ****   if (SPI_WaitFlagStateUntilTimeout(hspi, SPI_FLAG_BSY, RESET, SPI_DEFAULT_TIMEOUT, HAL_GetTick()) 
 6375              		.loc 1 3464 7
 6376 0036 FFF7FEFF 		bl	HAL_GetTick
 6377 003a 0346     		mov	r3, r0
 6378 003c 0093     		str	r3, [sp]
 6379 003e 6423     		movs	r3, #100
 6380 0040 0022     		movs	r2, #0
 6381 0042 8021     		movs	r1, #128
 6382 0044 7869     		ldr	r0, [r7, #20]
 6383 0046 FFF7FEFF 		bl	SPI_WaitFlagStateUntilTimeout
 6384 004a 0346     		mov	r3, r0
 6385              		.loc 1 3464 6
 6386 004c 002B     		cmp	r3, #0
 6387 004e 02D0     		beq	.L313
3465:Drivers/STM32L4xx_HAL_Driver/Src/stm32l4xx_hal_spi.c ****   {
3466:Drivers/STM32L4xx_HAL_Driver/Src/stm32l4xx_hal_spi.c ****     hspi->ErrorCode = HAL_SPI_ERROR_ABORT;
ARM GAS  C:\Users\Morroway\AppData\Local\Temp\ccCQJjHM.s 			page 173


 6388              		.loc 1 3466 21
 6389 0050 7B69     		ldr	r3, [r7, #20]
 6390 0052 4022     		movs	r2, #64
 6391 0054 1A66     		str	r2, [r3, #96]
 6392              	.L313:
3467:Drivers/STM32L4xx_HAL_Driver/Src/stm32l4xx_hal_spi.c ****   }
3468:Drivers/STM32L4xx_HAL_Driver/Src/stm32l4xx_hal_spi.c **** 
3469:Drivers/STM32L4xx_HAL_Driver/Src/stm32l4xx_hal_spi.c ****   /* Empty the FRLVL fifo */
3470:Drivers/STM32L4xx_HAL_Driver/Src/stm32l4xx_hal_spi.c ****   if (SPI_WaitFifoStateUntilTimeout(hspi, SPI_FLAG_FRLVL, SPI_FRLVL_EMPTY, SPI_DEFAULT_TIMEOUT, HAL
 6393              		.loc 1 3470 7
 6394 0056 FFF7FEFF 		bl	HAL_GetTick
 6395 005a 0346     		mov	r3, r0
 6396 005c 0093     		str	r3, [sp]
 6397 005e 6423     		movs	r3, #100
 6398 0060 0022     		movs	r2, #0
 6399 0062 4FF4C061 		mov	r1, #1536
 6400 0066 7869     		ldr	r0, [r7, #20]
 6401 0068 FFF7FEFF 		bl	SPI_WaitFifoStateUntilTimeout
 6402 006c 0346     		mov	r3, r0
 6403              		.loc 1 3470 6
 6404 006e 002B     		cmp	r3, #0
 6405 0070 02D0     		beq	.L314
3471:Drivers/STM32L4xx_HAL_Driver/Src/stm32l4xx_hal_spi.c ****   {
3472:Drivers/STM32L4xx_HAL_Driver/Src/stm32l4xx_hal_spi.c ****     hspi->ErrorCode = HAL_SPI_ERROR_ABORT;
 6406              		.loc 1 3472 21
 6407 0072 7B69     		ldr	r3, [r7, #20]
 6408 0074 4022     		movs	r2, #64
 6409 0076 1A66     		str	r2, [r3, #96]
 6410              	.L314:
3473:Drivers/STM32L4xx_HAL_Driver/Src/stm32l4xx_hal_spi.c ****   }
3474:Drivers/STM32L4xx_HAL_Driver/Src/stm32l4xx_hal_spi.c **** 
3475:Drivers/STM32L4xx_HAL_Driver/Src/stm32l4xx_hal_spi.c ****   /* Check if an Abort process is still ongoing */
3476:Drivers/STM32L4xx_HAL_Driver/Src/stm32l4xx_hal_spi.c ****   if (hspi->hdmatx != NULL)
 6411              		.loc 1 3476 11
 6412 0078 7B69     		ldr	r3, [r7, #20]
 6413 007a 5B6D     		ldr	r3, [r3, #84]
 6414              		.loc 1 3476 6
 6415 007c 002B     		cmp	r3, #0
 6416 007e 04D0     		beq	.L315
3477:Drivers/STM32L4xx_HAL_Driver/Src/stm32l4xx_hal_spi.c ****   {
3478:Drivers/STM32L4xx_HAL_Driver/Src/stm32l4xx_hal_spi.c ****     if (hspi->hdmatx->XferAbortCallback != NULL)
 6417              		.loc 1 3478 13
 6418 0080 7B69     		ldr	r3, [r7, #20]
 6419 0082 5B6D     		ldr	r3, [r3, #84]
 6420              		.loc 1 3478 21
 6421 0084 9B6B     		ldr	r3, [r3, #56]
 6422              		.loc 1 3478 8
 6423 0086 002B     		cmp	r3, #0
 6424 0088 27D1     		bne	.L318
 6425              	.L315:
3479:Drivers/STM32L4xx_HAL_Driver/Src/stm32l4xx_hal_spi.c ****     {
3480:Drivers/STM32L4xx_HAL_Driver/Src/stm32l4xx_hal_spi.c ****       return;
3481:Drivers/STM32L4xx_HAL_Driver/Src/stm32l4xx_hal_spi.c ****     }
3482:Drivers/STM32L4xx_HAL_Driver/Src/stm32l4xx_hal_spi.c ****   }
3483:Drivers/STM32L4xx_HAL_Driver/Src/stm32l4xx_hal_spi.c **** 
3484:Drivers/STM32L4xx_HAL_Driver/Src/stm32l4xx_hal_spi.c ****   /* No Abort process still ongoing : All DMA Stream/Channel are aborted, call user Abort Complete 
3485:Drivers/STM32L4xx_HAL_Driver/Src/stm32l4xx_hal_spi.c ****   hspi->RxXferCount = 0U;
ARM GAS  C:\Users\Morroway\AppData\Local\Temp\ccCQJjHM.s 			page 174


 6426              		.loc 1 3485 21
 6427 008a 7B69     		ldr	r3, [r7, #20]
 6428 008c 0022     		movs	r2, #0
 6429 008e A3F84620 		strh	r2, [r3, #70]	@ movhi
3486:Drivers/STM32L4xx_HAL_Driver/Src/stm32l4xx_hal_spi.c ****   hspi->TxXferCount = 0U;
 6430              		.loc 1 3486 21
 6431 0092 7B69     		ldr	r3, [r7, #20]
 6432 0094 0022     		movs	r2, #0
 6433 0096 DA87     		strh	r2, [r3, #62]	@ movhi
3487:Drivers/STM32L4xx_HAL_Driver/Src/stm32l4xx_hal_spi.c **** 
3488:Drivers/STM32L4xx_HAL_Driver/Src/stm32l4xx_hal_spi.c ****   /* Check no error during Abort procedure */
3489:Drivers/STM32L4xx_HAL_Driver/Src/stm32l4xx_hal_spi.c ****   if (hspi->ErrorCode != HAL_SPI_ERROR_ABORT)
 6434              		.loc 1 3489 11
 6435 0098 7B69     		ldr	r3, [r7, #20]
 6436 009a 1B6E     		ldr	r3, [r3, #96]
 6437              		.loc 1 3489 6
 6438 009c 402B     		cmp	r3, #64
 6439 009e 02D0     		beq	.L317
3490:Drivers/STM32L4xx_HAL_Driver/Src/stm32l4xx_hal_spi.c ****   {
3491:Drivers/STM32L4xx_HAL_Driver/Src/stm32l4xx_hal_spi.c ****     /* Reset errorCode */
3492:Drivers/STM32L4xx_HAL_Driver/Src/stm32l4xx_hal_spi.c ****     hspi->ErrorCode = HAL_SPI_ERROR_NONE;
 6440              		.loc 1 3492 21
 6441 00a0 7B69     		ldr	r3, [r7, #20]
 6442 00a2 0022     		movs	r2, #0
 6443 00a4 1A66     		str	r2, [r3, #96]
 6444              	.L317:
 6445              	.LBB14:
3493:Drivers/STM32L4xx_HAL_Driver/Src/stm32l4xx_hal_spi.c ****   }
3494:Drivers/STM32L4xx_HAL_Driver/Src/stm32l4xx_hal_spi.c **** 
3495:Drivers/STM32L4xx_HAL_Driver/Src/stm32l4xx_hal_spi.c ****   /* Clear the Error flags in the SR register */
3496:Drivers/STM32L4xx_HAL_Driver/Src/stm32l4xx_hal_spi.c ****   __HAL_SPI_CLEAR_OVRFLAG(hspi);
 6446              		.loc 1 3496 3
 6447 00a6 0023     		movs	r3, #0
 6448 00a8 3B61     		str	r3, [r7, #16]
 6449 00aa 7B69     		ldr	r3, [r7, #20]
 6450 00ac 1B68     		ldr	r3, [r3]
 6451 00ae DB68     		ldr	r3, [r3, #12]
 6452 00b0 3B61     		str	r3, [r7, #16]
 6453 00b2 7B69     		ldr	r3, [r7, #20]
 6454 00b4 1B68     		ldr	r3, [r3]
 6455 00b6 9B68     		ldr	r3, [r3, #8]
 6456 00b8 3B61     		str	r3, [r7, #16]
 6457 00ba 3B69     		ldr	r3, [r7, #16]
 6458              	.LBE14:
 6459              	.LBB15:
3497:Drivers/STM32L4xx_HAL_Driver/Src/stm32l4xx_hal_spi.c ****   __HAL_SPI_CLEAR_FREFLAG(hspi);
 6460              		.loc 1 3497 3
 6461 00bc 0023     		movs	r3, #0
 6462 00be FB60     		str	r3, [r7, #12]
 6463 00c0 7B69     		ldr	r3, [r7, #20]
 6464 00c2 1B68     		ldr	r3, [r3]
 6465 00c4 9B68     		ldr	r3, [r3, #8]
 6466 00c6 FB60     		str	r3, [r7, #12]
 6467 00c8 FB68     		ldr	r3, [r7, #12]
 6468              	.LBE15:
3498:Drivers/STM32L4xx_HAL_Driver/Src/stm32l4xx_hal_spi.c **** 
3499:Drivers/STM32L4xx_HAL_Driver/Src/stm32l4xx_hal_spi.c ****   /* Restore hspi->State to Ready */
ARM GAS  C:\Users\Morroway\AppData\Local\Temp\ccCQJjHM.s 			page 175


3500:Drivers/STM32L4xx_HAL_Driver/Src/stm32l4xx_hal_spi.c ****   hspi->State  = HAL_SPI_STATE_READY;
 6469              		.loc 1 3500 16
 6470 00ca 7B69     		ldr	r3, [r7, #20]
 6471 00cc 0122     		movs	r2, #1
 6472 00ce 83F85D20 		strb	r2, [r3, #93]
3501:Drivers/STM32L4xx_HAL_Driver/Src/stm32l4xx_hal_spi.c **** 
3502:Drivers/STM32L4xx_HAL_Driver/Src/stm32l4xx_hal_spi.c ****   /* Call user Abort complete callback */
3503:Drivers/STM32L4xx_HAL_Driver/Src/stm32l4xx_hal_spi.c **** #if (USE_HAL_SPI_REGISTER_CALLBACKS == 1U)
3504:Drivers/STM32L4xx_HAL_Driver/Src/stm32l4xx_hal_spi.c ****   hspi->AbortCpltCallback(hspi);
3505:Drivers/STM32L4xx_HAL_Driver/Src/stm32l4xx_hal_spi.c **** #else
3506:Drivers/STM32L4xx_HAL_Driver/Src/stm32l4xx_hal_spi.c ****   HAL_SPI_AbortCpltCallback(hspi);
 6473              		.loc 1 3506 3
 6474 00d2 7869     		ldr	r0, [r7, #20]
 6475 00d4 FFF7FEFF 		bl	HAL_SPI_AbortCpltCallback
 6476 00d8 00E0     		b	.L312
 6477              	.L318:
3480:Drivers/STM32L4xx_HAL_Driver/Src/stm32l4xx_hal_spi.c ****     }
 6478              		.loc 1 3480 7
 6479 00da 00BF     		nop
 6480              	.L312:
3507:Drivers/STM32L4xx_HAL_Driver/Src/stm32l4xx_hal_spi.c **** #endif /* USE_HAL_SPI_REGISTER_CALLBACKS */
3508:Drivers/STM32L4xx_HAL_Driver/Src/stm32l4xx_hal_spi.c **** }
 6481              		.loc 1 3508 1
 6482 00dc 1837     		adds	r7, r7, #24
 6483              		.cfi_def_cfa_offset 8
 6484 00de BD46     		mov	sp, r7
 6485              		.cfi_def_cfa_register 13
 6486              		@ sp needed
 6487 00e0 80BD     		pop	{r7, pc}
 6488              		.cfi_endproc
 6489              	.LFE359:
 6491              		.section	.text.SPI_2linesRxISR_8BIT,"ax",%progbits
 6492              		.align	1
 6493              		.syntax unified
 6494              		.thumb
 6495              		.thumb_func
 6497              	SPI_2linesRxISR_8BIT:
 6498              	.LFB360:
3509:Drivers/STM32L4xx_HAL_Driver/Src/stm32l4xx_hal_spi.c **** 
3510:Drivers/STM32L4xx_HAL_Driver/Src/stm32l4xx_hal_spi.c **** /**
3511:Drivers/STM32L4xx_HAL_Driver/Src/stm32l4xx_hal_spi.c ****   * @brief  Rx 8-bit handler for Transmit and Receive in Interrupt mode.
3512:Drivers/STM32L4xx_HAL_Driver/Src/stm32l4xx_hal_spi.c ****   * @param  hspi pointer to a SPI_HandleTypeDef structure that contains
3513:Drivers/STM32L4xx_HAL_Driver/Src/stm32l4xx_hal_spi.c ****   *               the configuration information for SPI module.
3514:Drivers/STM32L4xx_HAL_Driver/Src/stm32l4xx_hal_spi.c ****   * @retval None
3515:Drivers/STM32L4xx_HAL_Driver/Src/stm32l4xx_hal_spi.c ****   */
3516:Drivers/STM32L4xx_HAL_Driver/Src/stm32l4xx_hal_spi.c **** static void SPI_2linesRxISR_8BIT(struct __SPI_HandleTypeDef *hspi)
3517:Drivers/STM32L4xx_HAL_Driver/Src/stm32l4xx_hal_spi.c **** {
 6499              		.loc 1 3517 1
 6500              		.cfi_startproc
 6501              		@ args = 0, pretend = 0, frame = 8
 6502              		@ frame_needed = 1, uses_anonymous_args = 0
 6503 0000 80B5     		push	{r7, lr}
 6504              		.cfi_def_cfa_offset 8
 6505              		.cfi_offset 7, -8
 6506              		.cfi_offset 14, -4
 6507 0002 82B0     		sub	sp, sp, #8
 6508              		.cfi_def_cfa_offset 16
ARM GAS  C:\Users\Morroway\AppData\Local\Temp\ccCQJjHM.s 			page 176


 6509 0004 00AF     		add	r7, sp, #0
 6510              		.cfi_def_cfa_register 7
 6511 0006 7860     		str	r0, [r7, #4]
3518:Drivers/STM32L4xx_HAL_Driver/Src/stm32l4xx_hal_spi.c ****   /* Receive data in packing mode */
3519:Drivers/STM32L4xx_HAL_Driver/Src/stm32l4xx_hal_spi.c ****   if (hspi->RxXferCount > 1U)
 6512              		.loc 1 3519 11
 6513 0008 7B68     		ldr	r3, [r7, #4]
 6514 000a B3F84630 		ldrh	r3, [r3, #70]	@ movhi
 6515 000e 9BB2     		uxth	r3, r3
 6516              		.loc 1 3519 6
 6517 0010 012B     		cmp	r3, #1
 6518 0012 23D9     		bls	.L320
3520:Drivers/STM32L4xx_HAL_Driver/Src/stm32l4xx_hal_spi.c ****   {
3521:Drivers/STM32L4xx_HAL_Driver/Src/stm32l4xx_hal_spi.c ****     *((uint16_t *)hspi->pRxBuffPtr) = (uint16_t)(hspi->Instance->DR);
 6519              		.loc 1 3521 54
 6520 0014 7B68     		ldr	r3, [r7, #4]
 6521 0016 1B68     		ldr	r3, [r3]
 6522              		.loc 1 3521 64
 6523 0018 DA68     		ldr	r2, [r3, #12]
 6524              		.loc 1 3521 23
 6525 001a 7B68     		ldr	r3, [r7, #4]
 6526 001c 1B6C     		ldr	r3, [r3, #64]
 6527              		.loc 1 3521 39
 6528 001e 92B2     		uxth	r2, r2
 6529              		.loc 1 3521 37
 6530 0020 1A80     		strh	r2, [r3]	@ movhi
3522:Drivers/STM32L4xx_HAL_Driver/Src/stm32l4xx_hal_spi.c ****     hspi->pRxBuffPtr += sizeof(uint16_t);
 6531              		.loc 1 3522 22
 6532 0022 7B68     		ldr	r3, [r7, #4]
 6533 0024 1B6C     		ldr	r3, [r3, #64]
 6534 0026 9A1C     		adds	r2, r3, #2
 6535 0028 7B68     		ldr	r3, [r7, #4]
 6536 002a 1A64     		str	r2, [r3, #64]
3523:Drivers/STM32L4xx_HAL_Driver/Src/stm32l4xx_hal_spi.c ****     hspi->RxXferCount -= 2U;
 6537              		.loc 1 3523 23
 6538 002c 7B68     		ldr	r3, [r7, #4]
 6539 002e B3F84630 		ldrh	r3, [r3, #70]	@ movhi
 6540 0032 9BB2     		uxth	r3, r3
 6541 0034 023B     		subs	r3, r3, #2
 6542 0036 9AB2     		uxth	r2, r3
 6543 0038 7B68     		ldr	r3, [r7, #4]
 6544 003a A3F84620 		strh	r2, [r3, #70]	@ movhi
3524:Drivers/STM32L4xx_HAL_Driver/Src/stm32l4xx_hal_spi.c ****     if (hspi->RxXferCount == 1U)
 6545              		.loc 1 3524 13
 6546 003e 7B68     		ldr	r3, [r7, #4]
 6547 0040 B3F84630 		ldrh	r3, [r3, #70]	@ movhi
 6548 0044 9BB2     		uxth	r3, r3
 6549              		.loc 1 3524 8
 6550 0046 012B     		cmp	r3, #1
 6551 0048 1FD1     		bne	.L321
3525:Drivers/STM32L4xx_HAL_Driver/Src/stm32l4xx_hal_spi.c ****     {
3526:Drivers/STM32L4xx_HAL_Driver/Src/stm32l4xx_hal_spi.c ****       /* Set RX Fifo threshold according the reception data length: 8bit */
3527:Drivers/STM32L4xx_HAL_Driver/Src/stm32l4xx_hal_spi.c ****       SET_BIT(hspi->Instance->CR2, SPI_RXFIFO_THRESHOLD);
 6552              		.loc 1 3527 7
 6553 004a 7B68     		ldr	r3, [r7, #4]
 6554 004c 1B68     		ldr	r3, [r3]
 6555 004e 5A68     		ldr	r2, [r3, #4]
ARM GAS  C:\Users\Morroway\AppData\Local\Temp\ccCQJjHM.s 			page 177


 6556 0050 7B68     		ldr	r3, [r7, #4]
 6557 0052 1B68     		ldr	r3, [r3]
 6558 0054 42F48052 		orr	r2, r2, #4096
 6559 0058 5A60     		str	r2, [r3, #4]
 6560 005a 16E0     		b	.L321
 6561              	.L320:
3528:Drivers/STM32L4xx_HAL_Driver/Src/stm32l4xx_hal_spi.c ****     }
3529:Drivers/STM32L4xx_HAL_Driver/Src/stm32l4xx_hal_spi.c ****   }
3530:Drivers/STM32L4xx_HAL_Driver/Src/stm32l4xx_hal_spi.c ****   /* Receive data in 8 Bit mode */
3531:Drivers/STM32L4xx_HAL_Driver/Src/stm32l4xx_hal_spi.c ****   else
3532:Drivers/STM32L4xx_HAL_Driver/Src/stm32l4xx_hal_spi.c ****   {
3533:Drivers/STM32L4xx_HAL_Driver/Src/stm32l4xx_hal_spi.c ****     *hspi->pRxBuffPtr = *((__IO uint8_t *)&hspi->Instance->DR);
 6562              		.loc 1 3533 48
 6563 005c 7B68     		ldr	r3, [r7, #4]
 6564 005e 1B68     		ldr	r3, [r3]
 6565              		.loc 1 3533 43
 6566 0060 03F10C02 		add	r2, r3, #12
 6567              		.loc 1 3533 10
 6568 0064 7B68     		ldr	r3, [r7, #4]
 6569 0066 1B6C     		ldr	r3, [r3, #64]
 6570              		.loc 1 3533 25
 6571 0068 1278     		ldrb	r2, [r2]
 6572 006a D2B2     		uxtb	r2, r2
 6573              		.loc 1 3533 23
 6574 006c 1A70     		strb	r2, [r3]
3534:Drivers/STM32L4xx_HAL_Driver/Src/stm32l4xx_hal_spi.c ****     hspi->pRxBuffPtr++;
 6575              		.loc 1 3534 9
 6576 006e 7B68     		ldr	r3, [r7, #4]
 6577 0070 1B6C     		ldr	r3, [r3, #64]
 6578              		.loc 1 3534 21
 6579 0072 5A1C     		adds	r2, r3, #1
 6580 0074 7B68     		ldr	r3, [r7, #4]
 6581 0076 1A64     		str	r2, [r3, #64]
3535:Drivers/STM32L4xx_HAL_Driver/Src/stm32l4xx_hal_spi.c ****     hspi->RxXferCount--;
 6582              		.loc 1 3535 9
 6583 0078 7B68     		ldr	r3, [r7, #4]
 6584 007a B3F84630 		ldrh	r3, [r3, #70]	@ movhi
 6585 007e 9BB2     		uxth	r3, r3
 6586              		.loc 1 3535 22
 6587 0080 013B     		subs	r3, r3, #1
 6588 0082 9AB2     		uxth	r2, r3
 6589 0084 7B68     		ldr	r3, [r7, #4]
 6590 0086 A3F84620 		strh	r2, [r3, #70]	@ movhi
 6591              	.L321:
3536:Drivers/STM32L4xx_HAL_Driver/Src/stm32l4xx_hal_spi.c ****   }
3537:Drivers/STM32L4xx_HAL_Driver/Src/stm32l4xx_hal_spi.c **** 
3538:Drivers/STM32L4xx_HAL_Driver/Src/stm32l4xx_hal_spi.c ****   /* Check end of the reception */
3539:Drivers/STM32L4xx_HAL_Driver/Src/stm32l4xx_hal_spi.c ****   if (hspi->RxXferCount == 0U)
 6592              		.loc 1 3539 11
 6593 008a 7B68     		ldr	r3, [r7, #4]
 6594 008c B3F84630 		ldrh	r3, [r3, #70]	@ movhi
 6595 0090 9BB2     		uxth	r3, r3
 6596              		.loc 1 3539 6
 6597 0092 002B     		cmp	r3, #0
 6598 0094 0FD1     		bne	.L323
3540:Drivers/STM32L4xx_HAL_Driver/Src/stm32l4xx_hal_spi.c ****   {
3541:Drivers/STM32L4xx_HAL_Driver/Src/stm32l4xx_hal_spi.c **** #if (USE_SPI_CRC != 0U)
ARM GAS  C:\Users\Morroway\AppData\Local\Temp\ccCQJjHM.s 			page 178


3542:Drivers/STM32L4xx_HAL_Driver/Src/stm32l4xx_hal_spi.c ****     if (hspi->Init.CRCCalculation == SPI_CRCCALCULATION_ENABLE)
3543:Drivers/STM32L4xx_HAL_Driver/Src/stm32l4xx_hal_spi.c ****     {
3544:Drivers/STM32L4xx_HAL_Driver/Src/stm32l4xx_hal_spi.c ****       SET_BIT(hspi->Instance->CR2, SPI_RXFIFO_THRESHOLD);
3545:Drivers/STM32L4xx_HAL_Driver/Src/stm32l4xx_hal_spi.c ****       hspi->RxISR =  SPI_2linesRxISR_8BITCRC;
3546:Drivers/STM32L4xx_HAL_Driver/Src/stm32l4xx_hal_spi.c ****       return;
3547:Drivers/STM32L4xx_HAL_Driver/Src/stm32l4xx_hal_spi.c ****     }
3548:Drivers/STM32L4xx_HAL_Driver/Src/stm32l4xx_hal_spi.c **** #endif /* USE_SPI_CRC */
3549:Drivers/STM32L4xx_HAL_Driver/Src/stm32l4xx_hal_spi.c **** 
3550:Drivers/STM32L4xx_HAL_Driver/Src/stm32l4xx_hal_spi.c ****     /* Disable RXNE  and ERR interrupt */
3551:Drivers/STM32L4xx_HAL_Driver/Src/stm32l4xx_hal_spi.c ****     __HAL_SPI_DISABLE_IT(hspi, (SPI_IT_RXNE | SPI_IT_ERR));
 6599              		.loc 1 3551 5
 6600 0096 7B68     		ldr	r3, [r7, #4]
 6601 0098 1B68     		ldr	r3, [r3]
 6602 009a 5A68     		ldr	r2, [r3, #4]
 6603 009c 7B68     		ldr	r3, [r7, #4]
 6604 009e 1B68     		ldr	r3, [r3]
 6605 00a0 22F06002 		bic	r2, r2, #96
 6606 00a4 5A60     		str	r2, [r3, #4]
3552:Drivers/STM32L4xx_HAL_Driver/Src/stm32l4xx_hal_spi.c **** 
3553:Drivers/STM32L4xx_HAL_Driver/Src/stm32l4xx_hal_spi.c ****     if (hspi->TxXferCount == 0U)
 6607              		.loc 1 3553 13
 6608 00a6 7B68     		ldr	r3, [r7, #4]
 6609 00a8 DB8F     		ldrh	r3, [r3, #62]	@ movhi
 6610 00aa 9BB2     		uxth	r3, r3
 6611              		.loc 1 3553 8
 6612 00ac 002B     		cmp	r3, #0
 6613 00ae 02D1     		bne	.L323
3554:Drivers/STM32L4xx_HAL_Driver/Src/stm32l4xx_hal_spi.c ****     {
3555:Drivers/STM32L4xx_HAL_Driver/Src/stm32l4xx_hal_spi.c ****       SPI_CloseRxTx_ISR(hspi);
 6614              		.loc 1 3555 7
 6615 00b0 7868     		ldr	r0, [r7, #4]
 6616 00b2 FFF7FEFF 		bl	SPI_CloseRxTx_ISR
 6617              	.L323:
3556:Drivers/STM32L4xx_HAL_Driver/Src/stm32l4xx_hal_spi.c ****     }
3557:Drivers/STM32L4xx_HAL_Driver/Src/stm32l4xx_hal_spi.c ****   }
3558:Drivers/STM32L4xx_HAL_Driver/Src/stm32l4xx_hal_spi.c **** }
 6618              		.loc 1 3558 1
 6619 00b6 00BF     		nop
 6620 00b8 0837     		adds	r7, r7, #8
 6621              		.cfi_def_cfa_offset 8
 6622 00ba BD46     		mov	sp, r7
 6623              		.cfi_def_cfa_register 13
 6624              		@ sp needed
 6625 00bc 80BD     		pop	{r7, pc}
 6626              		.cfi_endproc
 6627              	.LFE360:
 6629              		.section	.text.SPI_2linesTxISR_8BIT,"ax",%progbits
 6630              		.align	1
 6631              		.syntax unified
 6632              		.thumb
 6633              		.thumb_func
 6635              	SPI_2linesTxISR_8BIT:
 6636              	.LFB361:
3559:Drivers/STM32L4xx_HAL_Driver/Src/stm32l4xx_hal_spi.c **** 
3560:Drivers/STM32L4xx_HAL_Driver/Src/stm32l4xx_hal_spi.c **** #if (USE_SPI_CRC != 0U)
3561:Drivers/STM32L4xx_HAL_Driver/Src/stm32l4xx_hal_spi.c **** /**
3562:Drivers/STM32L4xx_HAL_Driver/Src/stm32l4xx_hal_spi.c ****   * @brief  Rx 8-bit handler for Transmit and Receive in Interrupt mode.
ARM GAS  C:\Users\Morroway\AppData\Local\Temp\ccCQJjHM.s 			page 179


3563:Drivers/STM32L4xx_HAL_Driver/Src/stm32l4xx_hal_spi.c ****   * @param  hspi pointer to a SPI_HandleTypeDef structure that contains
3564:Drivers/STM32L4xx_HAL_Driver/Src/stm32l4xx_hal_spi.c ****   *               the configuration information for SPI module.
3565:Drivers/STM32L4xx_HAL_Driver/Src/stm32l4xx_hal_spi.c ****   * @retval None
3566:Drivers/STM32L4xx_HAL_Driver/Src/stm32l4xx_hal_spi.c ****   */
3567:Drivers/STM32L4xx_HAL_Driver/Src/stm32l4xx_hal_spi.c **** static void SPI_2linesRxISR_8BITCRC(struct __SPI_HandleTypeDef *hspi)
3568:Drivers/STM32L4xx_HAL_Driver/Src/stm32l4xx_hal_spi.c **** {
3569:Drivers/STM32L4xx_HAL_Driver/Src/stm32l4xx_hal_spi.c ****   __IO uint8_t  *ptmpreg8;
3570:Drivers/STM32L4xx_HAL_Driver/Src/stm32l4xx_hal_spi.c ****   __IO uint8_t  tmpreg8 = 0;
3571:Drivers/STM32L4xx_HAL_Driver/Src/stm32l4xx_hal_spi.c **** 
3572:Drivers/STM32L4xx_HAL_Driver/Src/stm32l4xx_hal_spi.c ****   /* Initialize the 8bit temporary pointer */
3573:Drivers/STM32L4xx_HAL_Driver/Src/stm32l4xx_hal_spi.c ****   ptmpreg8 = (__IO uint8_t *)&hspi->Instance->DR;
3574:Drivers/STM32L4xx_HAL_Driver/Src/stm32l4xx_hal_spi.c ****   /* Read 8bit CRC to flush Data Register */
3575:Drivers/STM32L4xx_HAL_Driver/Src/stm32l4xx_hal_spi.c ****   tmpreg8 = *ptmpreg8;
3576:Drivers/STM32L4xx_HAL_Driver/Src/stm32l4xx_hal_spi.c ****   /* To avoid GCC warning */
3577:Drivers/STM32L4xx_HAL_Driver/Src/stm32l4xx_hal_spi.c ****   UNUSED(tmpreg8);
3578:Drivers/STM32L4xx_HAL_Driver/Src/stm32l4xx_hal_spi.c **** 
3579:Drivers/STM32L4xx_HAL_Driver/Src/stm32l4xx_hal_spi.c ****   hspi->CRCSize--;
3580:Drivers/STM32L4xx_HAL_Driver/Src/stm32l4xx_hal_spi.c **** 
3581:Drivers/STM32L4xx_HAL_Driver/Src/stm32l4xx_hal_spi.c ****   /* Check end of the reception */
3582:Drivers/STM32L4xx_HAL_Driver/Src/stm32l4xx_hal_spi.c ****   if (hspi->CRCSize == 0U)
3583:Drivers/STM32L4xx_HAL_Driver/Src/stm32l4xx_hal_spi.c ****   {
3584:Drivers/STM32L4xx_HAL_Driver/Src/stm32l4xx_hal_spi.c ****     /* Disable RXNE and ERR interrupt */
3585:Drivers/STM32L4xx_HAL_Driver/Src/stm32l4xx_hal_spi.c ****     __HAL_SPI_DISABLE_IT(hspi, (SPI_IT_RXNE | SPI_IT_ERR));
3586:Drivers/STM32L4xx_HAL_Driver/Src/stm32l4xx_hal_spi.c **** 
3587:Drivers/STM32L4xx_HAL_Driver/Src/stm32l4xx_hal_spi.c ****     if (hspi->TxXferCount == 0U)
3588:Drivers/STM32L4xx_HAL_Driver/Src/stm32l4xx_hal_spi.c ****     {
3589:Drivers/STM32L4xx_HAL_Driver/Src/stm32l4xx_hal_spi.c ****       SPI_CloseRxTx_ISR(hspi);
3590:Drivers/STM32L4xx_HAL_Driver/Src/stm32l4xx_hal_spi.c ****     }
3591:Drivers/STM32L4xx_HAL_Driver/Src/stm32l4xx_hal_spi.c ****   }
3592:Drivers/STM32L4xx_HAL_Driver/Src/stm32l4xx_hal_spi.c **** }
3593:Drivers/STM32L4xx_HAL_Driver/Src/stm32l4xx_hal_spi.c **** #endif /* USE_SPI_CRC */
3594:Drivers/STM32L4xx_HAL_Driver/Src/stm32l4xx_hal_spi.c **** 
3595:Drivers/STM32L4xx_HAL_Driver/Src/stm32l4xx_hal_spi.c **** /**
3596:Drivers/STM32L4xx_HAL_Driver/Src/stm32l4xx_hal_spi.c ****   * @brief  Tx 8-bit handler for Transmit and Receive in Interrupt mode.
3597:Drivers/STM32L4xx_HAL_Driver/Src/stm32l4xx_hal_spi.c ****   * @param  hspi pointer to a SPI_HandleTypeDef structure that contains
3598:Drivers/STM32L4xx_HAL_Driver/Src/stm32l4xx_hal_spi.c ****   *               the configuration information for SPI module.
3599:Drivers/STM32L4xx_HAL_Driver/Src/stm32l4xx_hal_spi.c ****   * @retval None
3600:Drivers/STM32L4xx_HAL_Driver/Src/stm32l4xx_hal_spi.c ****   */
3601:Drivers/STM32L4xx_HAL_Driver/Src/stm32l4xx_hal_spi.c **** static void SPI_2linesTxISR_8BIT(struct __SPI_HandleTypeDef *hspi)
3602:Drivers/STM32L4xx_HAL_Driver/Src/stm32l4xx_hal_spi.c **** {
 6637              		.loc 1 3602 1
 6638              		.cfi_startproc
 6639              		@ args = 0, pretend = 0, frame = 8
 6640              		@ frame_needed = 1, uses_anonymous_args = 0
 6641 0000 80B5     		push	{r7, lr}
 6642              		.cfi_def_cfa_offset 8
 6643              		.cfi_offset 7, -8
 6644              		.cfi_offset 14, -4
 6645 0002 82B0     		sub	sp, sp, #8
 6646              		.cfi_def_cfa_offset 16
 6647 0004 00AF     		add	r7, sp, #0
 6648              		.cfi_def_cfa_register 7
 6649 0006 7860     		str	r0, [r7, #4]
3603:Drivers/STM32L4xx_HAL_Driver/Src/stm32l4xx_hal_spi.c ****   /* Transmit data in packing Bit mode */
3604:Drivers/STM32L4xx_HAL_Driver/Src/stm32l4xx_hal_spi.c ****   if (hspi->TxXferCount >= 2U)
 6650              		.loc 1 3604 11
 6651 0008 7B68     		ldr	r3, [r7, #4]
ARM GAS  C:\Users\Morroway\AppData\Local\Temp\ccCQJjHM.s 			page 180


 6652 000a DB8F     		ldrh	r3, [r3, #62]	@ movhi
 6653 000c 9BB2     		uxth	r3, r3
 6654              		.loc 1 3604 6
 6655 000e 012B     		cmp	r3, #1
 6656 0010 12D9     		bls	.L325
3605:Drivers/STM32L4xx_HAL_Driver/Src/stm32l4xx_hal_spi.c ****   {
3606:Drivers/STM32L4xx_HAL_Driver/Src/stm32l4xx_hal_spi.c ****     hspi->Instance->DR = *((uint16_t *)hspi->pTxBuffPtr);
 6657              		.loc 1 3606 44
 6658 0012 7B68     		ldr	r3, [r7, #4]
 6659 0014 9B6B     		ldr	r3, [r3, #56]
 6660              		.loc 1 3606 26
 6661 0016 1A88     		ldrh	r2, [r3]
 6662              		.loc 1 3606 9
 6663 0018 7B68     		ldr	r3, [r7, #4]
 6664 001a 1B68     		ldr	r3, [r3]
 6665              		.loc 1 3606 24
 6666 001c DA60     		str	r2, [r3, #12]
3607:Drivers/STM32L4xx_HAL_Driver/Src/stm32l4xx_hal_spi.c ****     hspi->pTxBuffPtr += sizeof(uint16_t);
 6667              		.loc 1 3607 22
 6668 001e 7B68     		ldr	r3, [r7, #4]
 6669 0020 9B6B     		ldr	r3, [r3, #56]
 6670 0022 9A1C     		adds	r2, r3, #2
 6671 0024 7B68     		ldr	r3, [r7, #4]
 6672 0026 9A63     		str	r2, [r3, #56]
3608:Drivers/STM32L4xx_HAL_Driver/Src/stm32l4xx_hal_spi.c ****     hspi->TxXferCount -= 2U;
 6673              		.loc 1 3608 23
 6674 0028 7B68     		ldr	r3, [r7, #4]
 6675 002a DB8F     		ldrh	r3, [r3, #62]	@ movhi
 6676 002c 9BB2     		uxth	r3, r3
 6677 002e 023B     		subs	r3, r3, #2
 6678 0030 9AB2     		uxth	r2, r3
 6679 0032 7B68     		ldr	r3, [r7, #4]
 6680 0034 DA87     		strh	r2, [r3, #62]	@ movhi
 6681 0036 12E0     		b	.L326
 6682              	.L325:
3609:Drivers/STM32L4xx_HAL_Driver/Src/stm32l4xx_hal_spi.c ****   }
3610:Drivers/STM32L4xx_HAL_Driver/Src/stm32l4xx_hal_spi.c ****   /* Transmit data in 8 Bit mode */
3611:Drivers/STM32L4xx_HAL_Driver/Src/stm32l4xx_hal_spi.c ****   else
3612:Drivers/STM32L4xx_HAL_Driver/Src/stm32l4xx_hal_spi.c ****   {
3613:Drivers/STM32L4xx_HAL_Driver/Src/stm32l4xx_hal_spi.c ****     *(__IO uint8_t *)&hspi->Instance->DR = (*hspi->pTxBuffPtr);
 6683              		.loc 1 3613 50
 6684 0038 7B68     		ldr	r3, [r7, #4]
 6685 003a 9A6B     		ldr	r2, [r3, #56]
 6686              		.loc 1 3613 27
 6687 003c 7B68     		ldr	r3, [r7, #4]
 6688 003e 1B68     		ldr	r3, [r3]
 6689              		.loc 1 3613 22
 6690 0040 0C33     		adds	r3, r3, #12
 6691              		.loc 1 3613 45
 6692 0042 1278     		ldrb	r2, [r2]	@ zero_extendqisi2
 6693              		.loc 1 3613 42
 6694 0044 1A70     		strb	r2, [r3]
3614:Drivers/STM32L4xx_HAL_Driver/Src/stm32l4xx_hal_spi.c ****     hspi->pTxBuffPtr++;
 6695              		.loc 1 3614 9
 6696 0046 7B68     		ldr	r3, [r7, #4]
 6697 0048 9B6B     		ldr	r3, [r3, #56]
 6698              		.loc 1 3614 21
ARM GAS  C:\Users\Morroway\AppData\Local\Temp\ccCQJjHM.s 			page 181


 6699 004a 5A1C     		adds	r2, r3, #1
 6700 004c 7B68     		ldr	r3, [r7, #4]
 6701 004e 9A63     		str	r2, [r3, #56]
3615:Drivers/STM32L4xx_HAL_Driver/Src/stm32l4xx_hal_spi.c ****     hspi->TxXferCount--;
 6702              		.loc 1 3615 9
 6703 0050 7B68     		ldr	r3, [r7, #4]
 6704 0052 DB8F     		ldrh	r3, [r3, #62]	@ movhi
 6705 0054 9BB2     		uxth	r3, r3
 6706              		.loc 1 3615 22
 6707 0056 013B     		subs	r3, r3, #1
 6708 0058 9AB2     		uxth	r2, r3
 6709 005a 7B68     		ldr	r3, [r7, #4]
 6710 005c DA87     		strh	r2, [r3, #62]	@ movhi
 6711              	.L326:
3616:Drivers/STM32L4xx_HAL_Driver/Src/stm32l4xx_hal_spi.c ****   }
3617:Drivers/STM32L4xx_HAL_Driver/Src/stm32l4xx_hal_spi.c **** 
3618:Drivers/STM32L4xx_HAL_Driver/Src/stm32l4xx_hal_spi.c ****   /* Check the end of the transmission */
3619:Drivers/STM32L4xx_HAL_Driver/Src/stm32l4xx_hal_spi.c ****   if (hspi->TxXferCount == 0U)
 6712              		.loc 1 3619 11
 6713 005e 7B68     		ldr	r3, [r7, #4]
 6714 0060 DB8F     		ldrh	r3, [r3, #62]	@ movhi
 6715 0062 9BB2     		uxth	r3, r3
 6716              		.loc 1 3619 6
 6717 0064 002B     		cmp	r3, #0
 6718 0066 10D1     		bne	.L328
3620:Drivers/STM32L4xx_HAL_Driver/Src/stm32l4xx_hal_spi.c ****   {
3621:Drivers/STM32L4xx_HAL_Driver/Src/stm32l4xx_hal_spi.c **** #if (USE_SPI_CRC != 0U)
3622:Drivers/STM32L4xx_HAL_Driver/Src/stm32l4xx_hal_spi.c ****     if (hspi->Init.CRCCalculation == SPI_CRCCALCULATION_ENABLE)
3623:Drivers/STM32L4xx_HAL_Driver/Src/stm32l4xx_hal_spi.c ****     {
3624:Drivers/STM32L4xx_HAL_Driver/Src/stm32l4xx_hal_spi.c ****       /* Set CRC Next Bit to send CRC */
3625:Drivers/STM32L4xx_HAL_Driver/Src/stm32l4xx_hal_spi.c ****       SET_BIT(hspi->Instance->CR1, SPI_CR1_CRCNEXT);
3626:Drivers/STM32L4xx_HAL_Driver/Src/stm32l4xx_hal_spi.c ****       /* Disable TXE interrupt */
3627:Drivers/STM32L4xx_HAL_Driver/Src/stm32l4xx_hal_spi.c ****       __HAL_SPI_DISABLE_IT(hspi, SPI_IT_TXE);
3628:Drivers/STM32L4xx_HAL_Driver/Src/stm32l4xx_hal_spi.c ****       return;
3629:Drivers/STM32L4xx_HAL_Driver/Src/stm32l4xx_hal_spi.c ****     }
3630:Drivers/STM32L4xx_HAL_Driver/Src/stm32l4xx_hal_spi.c **** #endif /* USE_SPI_CRC */
3631:Drivers/STM32L4xx_HAL_Driver/Src/stm32l4xx_hal_spi.c **** 
3632:Drivers/STM32L4xx_HAL_Driver/Src/stm32l4xx_hal_spi.c ****     /* Disable TXE interrupt */
3633:Drivers/STM32L4xx_HAL_Driver/Src/stm32l4xx_hal_spi.c ****     __HAL_SPI_DISABLE_IT(hspi, SPI_IT_TXE);
 6719              		.loc 1 3633 5
 6720 0068 7B68     		ldr	r3, [r7, #4]
 6721 006a 1B68     		ldr	r3, [r3]
 6722 006c 5A68     		ldr	r2, [r3, #4]
 6723 006e 7B68     		ldr	r3, [r7, #4]
 6724 0070 1B68     		ldr	r3, [r3]
 6725 0072 22F08002 		bic	r2, r2, #128
 6726 0076 5A60     		str	r2, [r3, #4]
3634:Drivers/STM32L4xx_HAL_Driver/Src/stm32l4xx_hal_spi.c **** 
3635:Drivers/STM32L4xx_HAL_Driver/Src/stm32l4xx_hal_spi.c ****     if (hspi->RxXferCount == 0U)
 6727              		.loc 1 3635 13
 6728 0078 7B68     		ldr	r3, [r7, #4]
 6729 007a B3F84630 		ldrh	r3, [r3, #70]	@ movhi
 6730 007e 9BB2     		uxth	r3, r3
 6731              		.loc 1 3635 8
 6732 0080 002B     		cmp	r3, #0
 6733 0082 02D1     		bne	.L328
3636:Drivers/STM32L4xx_HAL_Driver/Src/stm32l4xx_hal_spi.c ****     {
ARM GAS  C:\Users\Morroway\AppData\Local\Temp\ccCQJjHM.s 			page 182


3637:Drivers/STM32L4xx_HAL_Driver/Src/stm32l4xx_hal_spi.c ****       SPI_CloseRxTx_ISR(hspi);
 6734              		.loc 1 3637 7
 6735 0084 7868     		ldr	r0, [r7, #4]
 6736 0086 FFF7FEFF 		bl	SPI_CloseRxTx_ISR
 6737              	.L328:
3638:Drivers/STM32L4xx_HAL_Driver/Src/stm32l4xx_hal_spi.c ****     }
3639:Drivers/STM32L4xx_HAL_Driver/Src/stm32l4xx_hal_spi.c ****   }
3640:Drivers/STM32L4xx_HAL_Driver/Src/stm32l4xx_hal_spi.c **** }
 6738              		.loc 1 3640 1
 6739 008a 00BF     		nop
 6740 008c 0837     		adds	r7, r7, #8
 6741              		.cfi_def_cfa_offset 8
 6742 008e BD46     		mov	sp, r7
 6743              		.cfi_def_cfa_register 13
 6744              		@ sp needed
 6745 0090 80BD     		pop	{r7, pc}
 6746              		.cfi_endproc
 6747              	.LFE361:
 6749              		.section	.text.SPI_2linesRxISR_16BIT,"ax",%progbits
 6750              		.align	1
 6751              		.syntax unified
 6752              		.thumb
 6753              		.thumb_func
 6755              	SPI_2linesRxISR_16BIT:
 6756              	.LFB362:
3641:Drivers/STM32L4xx_HAL_Driver/Src/stm32l4xx_hal_spi.c **** 
3642:Drivers/STM32L4xx_HAL_Driver/Src/stm32l4xx_hal_spi.c **** /**
3643:Drivers/STM32L4xx_HAL_Driver/Src/stm32l4xx_hal_spi.c ****   * @brief  Rx 16-bit handler for Transmit and Receive in Interrupt mode.
3644:Drivers/STM32L4xx_HAL_Driver/Src/stm32l4xx_hal_spi.c ****   * @param  hspi pointer to a SPI_HandleTypeDef structure that contains
3645:Drivers/STM32L4xx_HAL_Driver/Src/stm32l4xx_hal_spi.c ****   *               the configuration information for SPI module.
3646:Drivers/STM32L4xx_HAL_Driver/Src/stm32l4xx_hal_spi.c ****   * @retval None
3647:Drivers/STM32L4xx_HAL_Driver/Src/stm32l4xx_hal_spi.c ****   */
3648:Drivers/STM32L4xx_HAL_Driver/Src/stm32l4xx_hal_spi.c **** static void SPI_2linesRxISR_16BIT(struct __SPI_HandleTypeDef *hspi)
3649:Drivers/STM32L4xx_HAL_Driver/Src/stm32l4xx_hal_spi.c **** {
 6757              		.loc 1 3649 1
 6758              		.cfi_startproc
 6759              		@ args = 0, pretend = 0, frame = 8
 6760              		@ frame_needed = 1, uses_anonymous_args = 0
 6761 0000 80B5     		push	{r7, lr}
 6762              		.cfi_def_cfa_offset 8
 6763              		.cfi_offset 7, -8
 6764              		.cfi_offset 14, -4
 6765 0002 82B0     		sub	sp, sp, #8
 6766              		.cfi_def_cfa_offset 16
 6767 0004 00AF     		add	r7, sp, #0
 6768              		.cfi_def_cfa_register 7
 6769 0006 7860     		str	r0, [r7, #4]
3650:Drivers/STM32L4xx_HAL_Driver/Src/stm32l4xx_hal_spi.c ****   /* Receive data in 16 Bit mode */
3651:Drivers/STM32L4xx_HAL_Driver/Src/stm32l4xx_hal_spi.c ****   *((uint16_t *)hspi->pRxBuffPtr) = (uint16_t)(hspi->Instance->DR);
 6770              		.loc 1 3651 52
 6771 0008 7B68     		ldr	r3, [r7, #4]
 6772 000a 1B68     		ldr	r3, [r3]
 6773              		.loc 1 3651 62
 6774 000c DA68     		ldr	r2, [r3, #12]
 6775              		.loc 1 3651 21
 6776 000e 7B68     		ldr	r3, [r7, #4]
 6777 0010 1B6C     		ldr	r3, [r3, #64]
ARM GAS  C:\Users\Morroway\AppData\Local\Temp\ccCQJjHM.s 			page 183


 6778              		.loc 1 3651 37
 6779 0012 92B2     		uxth	r2, r2
 6780              		.loc 1 3651 35
 6781 0014 1A80     		strh	r2, [r3]	@ movhi
3652:Drivers/STM32L4xx_HAL_Driver/Src/stm32l4xx_hal_spi.c ****   hspi->pRxBuffPtr += sizeof(uint16_t);
 6782              		.loc 1 3652 20
 6783 0016 7B68     		ldr	r3, [r7, #4]
 6784 0018 1B6C     		ldr	r3, [r3, #64]
 6785 001a 9A1C     		adds	r2, r3, #2
 6786 001c 7B68     		ldr	r3, [r7, #4]
 6787 001e 1A64     		str	r2, [r3, #64]
3653:Drivers/STM32L4xx_HAL_Driver/Src/stm32l4xx_hal_spi.c ****   hspi->RxXferCount--;
 6788              		.loc 1 3653 7
 6789 0020 7B68     		ldr	r3, [r7, #4]
 6790 0022 B3F84630 		ldrh	r3, [r3, #70]	@ movhi
 6791 0026 9BB2     		uxth	r3, r3
 6792              		.loc 1 3653 20
 6793 0028 013B     		subs	r3, r3, #1
 6794 002a 9AB2     		uxth	r2, r3
 6795 002c 7B68     		ldr	r3, [r7, #4]
 6796 002e A3F84620 		strh	r2, [r3, #70]	@ movhi
3654:Drivers/STM32L4xx_HAL_Driver/Src/stm32l4xx_hal_spi.c **** 
3655:Drivers/STM32L4xx_HAL_Driver/Src/stm32l4xx_hal_spi.c ****   if (hspi->RxXferCount == 0U)
 6797              		.loc 1 3655 11
 6798 0032 7B68     		ldr	r3, [r7, #4]
 6799 0034 B3F84630 		ldrh	r3, [r3, #70]	@ movhi
 6800 0038 9BB2     		uxth	r3, r3
 6801              		.loc 1 3655 6
 6802 003a 002B     		cmp	r3, #0
 6803 003c 0FD1     		bne	.L331
3656:Drivers/STM32L4xx_HAL_Driver/Src/stm32l4xx_hal_spi.c ****   {
3657:Drivers/STM32L4xx_HAL_Driver/Src/stm32l4xx_hal_spi.c **** #if (USE_SPI_CRC != 0U)
3658:Drivers/STM32L4xx_HAL_Driver/Src/stm32l4xx_hal_spi.c ****     if (hspi->Init.CRCCalculation == SPI_CRCCALCULATION_ENABLE)
3659:Drivers/STM32L4xx_HAL_Driver/Src/stm32l4xx_hal_spi.c ****     {
3660:Drivers/STM32L4xx_HAL_Driver/Src/stm32l4xx_hal_spi.c ****       hspi->RxISR =  SPI_2linesRxISR_16BITCRC;
3661:Drivers/STM32L4xx_HAL_Driver/Src/stm32l4xx_hal_spi.c ****       return;
3662:Drivers/STM32L4xx_HAL_Driver/Src/stm32l4xx_hal_spi.c ****     }
3663:Drivers/STM32L4xx_HAL_Driver/Src/stm32l4xx_hal_spi.c **** #endif /* USE_SPI_CRC */
3664:Drivers/STM32L4xx_HAL_Driver/Src/stm32l4xx_hal_spi.c **** 
3665:Drivers/STM32L4xx_HAL_Driver/Src/stm32l4xx_hal_spi.c ****     /* Disable RXNE interrupt */
3666:Drivers/STM32L4xx_HAL_Driver/Src/stm32l4xx_hal_spi.c ****     __HAL_SPI_DISABLE_IT(hspi, SPI_IT_RXNE);
 6804              		.loc 1 3666 5
 6805 003e 7B68     		ldr	r3, [r7, #4]
 6806 0040 1B68     		ldr	r3, [r3]
 6807 0042 5A68     		ldr	r2, [r3, #4]
 6808 0044 7B68     		ldr	r3, [r7, #4]
 6809 0046 1B68     		ldr	r3, [r3]
 6810 0048 22F04002 		bic	r2, r2, #64
 6811 004c 5A60     		str	r2, [r3, #4]
3667:Drivers/STM32L4xx_HAL_Driver/Src/stm32l4xx_hal_spi.c **** 
3668:Drivers/STM32L4xx_HAL_Driver/Src/stm32l4xx_hal_spi.c ****     if (hspi->TxXferCount == 0U)
 6812              		.loc 1 3668 13
 6813 004e 7B68     		ldr	r3, [r7, #4]
 6814 0050 DB8F     		ldrh	r3, [r3, #62]	@ movhi
 6815 0052 9BB2     		uxth	r3, r3
 6816              		.loc 1 3668 8
 6817 0054 002B     		cmp	r3, #0
ARM GAS  C:\Users\Morroway\AppData\Local\Temp\ccCQJjHM.s 			page 184


 6818 0056 02D1     		bne	.L331
3669:Drivers/STM32L4xx_HAL_Driver/Src/stm32l4xx_hal_spi.c ****     {
3670:Drivers/STM32L4xx_HAL_Driver/Src/stm32l4xx_hal_spi.c ****       SPI_CloseRxTx_ISR(hspi);
 6819              		.loc 1 3670 7
 6820 0058 7868     		ldr	r0, [r7, #4]
 6821 005a FFF7FEFF 		bl	SPI_CloseRxTx_ISR
 6822              	.L331:
3671:Drivers/STM32L4xx_HAL_Driver/Src/stm32l4xx_hal_spi.c ****     }
3672:Drivers/STM32L4xx_HAL_Driver/Src/stm32l4xx_hal_spi.c ****   }
3673:Drivers/STM32L4xx_HAL_Driver/Src/stm32l4xx_hal_spi.c **** }
 6823              		.loc 1 3673 1
 6824 005e 00BF     		nop
 6825 0060 0837     		adds	r7, r7, #8
 6826              		.cfi_def_cfa_offset 8
 6827 0062 BD46     		mov	sp, r7
 6828              		.cfi_def_cfa_register 13
 6829              		@ sp needed
 6830 0064 80BD     		pop	{r7, pc}
 6831              		.cfi_endproc
 6832              	.LFE362:
 6834              		.section	.text.SPI_2linesTxISR_16BIT,"ax",%progbits
 6835              		.align	1
 6836              		.syntax unified
 6837              		.thumb
 6838              		.thumb_func
 6840              	SPI_2linesTxISR_16BIT:
 6841              	.LFB363:
3674:Drivers/STM32L4xx_HAL_Driver/Src/stm32l4xx_hal_spi.c **** 
3675:Drivers/STM32L4xx_HAL_Driver/Src/stm32l4xx_hal_spi.c **** #if (USE_SPI_CRC != 0U)
3676:Drivers/STM32L4xx_HAL_Driver/Src/stm32l4xx_hal_spi.c **** /**
3677:Drivers/STM32L4xx_HAL_Driver/Src/stm32l4xx_hal_spi.c ****   * @brief  Manage the CRC 16-bit receive for Transmit and Receive in Interrupt mode.
3678:Drivers/STM32L4xx_HAL_Driver/Src/stm32l4xx_hal_spi.c ****   * @param  hspi pointer to a SPI_HandleTypeDef structure that contains
3679:Drivers/STM32L4xx_HAL_Driver/Src/stm32l4xx_hal_spi.c ****   *               the configuration information for SPI module.
3680:Drivers/STM32L4xx_HAL_Driver/Src/stm32l4xx_hal_spi.c ****   * @retval None
3681:Drivers/STM32L4xx_HAL_Driver/Src/stm32l4xx_hal_spi.c ****   */
3682:Drivers/STM32L4xx_HAL_Driver/Src/stm32l4xx_hal_spi.c **** static void SPI_2linesRxISR_16BITCRC(struct __SPI_HandleTypeDef *hspi)
3683:Drivers/STM32L4xx_HAL_Driver/Src/stm32l4xx_hal_spi.c **** {
3684:Drivers/STM32L4xx_HAL_Driver/Src/stm32l4xx_hal_spi.c ****   __IO uint32_t tmpreg = 0U;
3685:Drivers/STM32L4xx_HAL_Driver/Src/stm32l4xx_hal_spi.c **** 
3686:Drivers/STM32L4xx_HAL_Driver/Src/stm32l4xx_hal_spi.c ****   /* Read 16bit CRC to flush Data Register */
3687:Drivers/STM32L4xx_HAL_Driver/Src/stm32l4xx_hal_spi.c ****   tmpreg = READ_REG(hspi->Instance->DR);
3688:Drivers/STM32L4xx_HAL_Driver/Src/stm32l4xx_hal_spi.c ****   /* To avoid GCC warning */
3689:Drivers/STM32L4xx_HAL_Driver/Src/stm32l4xx_hal_spi.c ****   UNUSED(tmpreg);
3690:Drivers/STM32L4xx_HAL_Driver/Src/stm32l4xx_hal_spi.c **** 
3691:Drivers/STM32L4xx_HAL_Driver/Src/stm32l4xx_hal_spi.c ****   /* Disable RXNE interrupt */
3692:Drivers/STM32L4xx_HAL_Driver/Src/stm32l4xx_hal_spi.c ****   __HAL_SPI_DISABLE_IT(hspi, SPI_IT_RXNE);
3693:Drivers/STM32L4xx_HAL_Driver/Src/stm32l4xx_hal_spi.c **** 
3694:Drivers/STM32L4xx_HAL_Driver/Src/stm32l4xx_hal_spi.c ****   SPI_CloseRxTx_ISR(hspi);
3695:Drivers/STM32L4xx_HAL_Driver/Src/stm32l4xx_hal_spi.c **** }
3696:Drivers/STM32L4xx_HAL_Driver/Src/stm32l4xx_hal_spi.c **** #endif /* USE_SPI_CRC */
3697:Drivers/STM32L4xx_HAL_Driver/Src/stm32l4xx_hal_spi.c **** 
3698:Drivers/STM32L4xx_HAL_Driver/Src/stm32l4xx_hal_spi.c **** /**
3699:Drivers/STM32L4xx_HAL_Driver/Src/stm32l4xx_hal_spi.c ****   * @brief  Tx 16-bit handler for Transmit and Receive in Interrupt mode.
3700:Drivers/STM32L4xx_HAL_Driver/Src/stm32l4xx_hal_spi.c ****   * @param  hspi pointer to a SPI_HandleTypeDef structure that contains
3701:Drivers/STM32L4xx_HAL_Driver/Src/stm32l4xx_hal_spi.c ****   *               the configuration information for SPI module.
3702:Drivers/STM32L4xx_HAL_Driver/Src/stm32l4xx_hal_spi.c ****   * @retval None
3703:Drivers/STM32L4xx_HAL_Driver/Src/stm32l4xx_hal_spi.c ****   */
ARM GAS  C:\Users\Morroway\AppData\Local\Temp\ccCQJjHM.s 			page 185


3704:Drivers/STM32L4xx_HAL_Driver/Src/stm32l4xx_hal_spi.c **** static void SPI_2linesTxISR_16BIT(struct __SPI_HandleTypeDef *hspi)
3705:Drivers/STM32L4xx_HAL_Driver/Src/stm32l4xx_hal_spi.c **** {
 6842              		.loc 1 3705 1
 6843              		.cfi_startproc
 6844              		@ args = 0, pretend = 0, frame = 8
 6845              		@ frame_needed = 1, uses_anonymous_args = 0
 6846 0000 80B5     		push	{r7, lr}
 6847              		.cfi_def_cfa_offset 8
 6848              		.cfi_offset 7, -8
 6849              		.cfi_offset 14, -4
 6850 0002 82B0     		sub	sp, sp, #8
 6851              		.cfi_def_cfa_offset 16
 6852 0004 00AF     		add	r7, sp, #0
 6853              		.cfi_def_cfa_register 7
 6854 0006 7860     		str	r0, [r7, #4]
3706:Drivers/STM32L4xx_HAL_Driver/Src/stm32l4xx_hal_spi.c ****   /* Transmit data in 16 Bit mode */
3707:Drivers/STM32L4xx_HAL_Driver/Src/stm32l4xx_hal_spi.c ****   hspi->Instance->DR = *((uint16_t *)hspi->pTxBuffPtr);
 6855              		.loc 1 3707 42
 6856 0008 7B68     		ldr	r3, [r7, #4]
 6857 000a 9B6B     		ldr	r3, [r3, #56]
 6858              		.loc 1 3707 24
 6859 000c 1A88     		ldrh	r2, [r3]
 6860              		.loc 1 3707 7
 6861 000e 7B68     		ldr	r3, [r7, #4]
 6862 0010 1B68     		ldr	r3, [r3]
 6863              		.loc 1 3707 22
 6864 0012 DA60     		str	r2, [r3, #12]
3708:Drivers/STM32L4xx_HAL_Driver/Src/stm32l4xx_hal_spi.c ****   hspi->pTxBuffPtr += sizeof(uint16_t);
 6865              		.loc 1 3708 20
 6866 0014 7B68     		ldr	r3, [r7, #4]
 6867 0016 9B6B     		ldr	r3, [r3, #56]
 6868 0018 9A1C     		adds	r2, r3, #2
 6869 001a 7B68     		ldr	r3, [r7, #4]
 6870 001c 9A63     		str	r2, [r3, #56]
3709:Drivers/STM32L4xx_HAL_Driver/Src/stm32l4xx_hal_spi.c ****   hspi->TxXferCount--;
 6871              		.loc 1 3709 7
 6872 001e 7B68     		ldr	r3, [r7, #4]
 6873 0020 DB8F     		ldrh	r3, [r3, #62]	@ movhi
 6874 0022 9BB2     		uxth	r3, r3
 6875              		.loc 1 3709 20
 6876 0024 013B     		subs	r3, r3, #1
 6877 0026 9AB2     		uxth	r2, r3
 6878 0028 7B68     		ldr	r3, [r7, #4]
 6879 002a DA87     		strh	r2, [r3, #62]	@ movhi
3710:Drivers/STM32L4xx_HAL_Driver/Src/stm32l4xx_hal_spi.c **** 
3711:Drivers/STM32L4xx_HAL_Driver/Src/stm32l4xx_hal_spi.c ****   /* Enable CRC Transmission */
3712:Drivers/STM32L4xx_HAL_Driver/Src/stm32l4xx_hal_spi.c ****   if (hspi->TxXferCount == 0U)
 6880              		.loc 1 3712 11
 6881 002c 7B68     		ldr	r3, [r7, #4]
 6882 002e DB8F     		ldrh	r3, [r3, #62]	@ movhi
 6883 0030 9BB2     		uxth	r3, r3
 6884              		.loc 1 3712 6
 6885 0032 002B     		cmp	r3, #0
 6886 0034 10D1     		bne	.L334
3713:Drivers/STM32L4xx_HAL_Driver/Src/stm32l4xx_hal_spi.c ****   {
3714:Drivers/STM32L4xx_HAL_Driver/Src/stm32l4xx_hal_spi.c **** #if (USE_SPI_CRC != 0U)
3715:Drivers/STM32L4xx_HAL_Driver/Src/stm32l4xx_hal_spi.c ****     if (hspi->Init.CRCCalculation == SPI_CRCCALCULATION_ENABLE)
ARM GAS  C:\Users\Morroway\AppData\Local\Temp\ccCQJjHM.s 			page 186


3716:Drivers/STM32L4xx_HAL_Driver/Src/stm32l4xx_hal_spi.c ****     {
3717:Drivers/STM32L4xx_HAL_Driver/Src/stm32l4xx_hal_spi.c ****       /* Set CRC Next Bit to send CRC */
3718:Drivers/STM32L4xx_HAL_Driver/Src/stm32l4xx_hal_spi.c ****       SET_BIT(hspi->Instance->CR1, SPI_CR1_CRCNEXT);
3719:Drivers/STM32L4xx_HAL_Driver/Src/stm32l4xx_hal_spi.c ****       /* Disable TXE interrupt */
3720:Drivers/STM32L4xx_HAL_Driver/Src/stm32l4xx_hal_spi.c ****       __HAL_SPI_DISABLE_IT(hspi, SPI_IT_TXE);
3721:Drivers/STM32L4xx_HAL_Driver/Src/stm32l4xx_hal_spi.c ****       return;
3722:Drivers/STM32L4xx_HAL_Driver/Src/stm32l4xx_hal_spi.c ****     }
3723:Drivers/STM32L4xx_HAL_Driver/Src/stm32l4xx_hal_spi.c **** #endif /* USE_SPI_CRC */
3724:Drivers/STM32L4xx_HAL_Driver/Src/stm32l4xx_hal_spi.c **** 
3725:Drivers/STM32L4xx_HAL_Driver/Src/stm32l4xx_hal_spi.c ****     /* Disable TXE interrupt */
3726:Drivers/STM32L4xx_HAL_Driver/Src/stm32l4xx_hal_spi.c ****     __HAL_SPI_DISABLE_IT(hspi, SPI_IT_TXE);
 6887              		.loc 1 3726 5
 6888 0036 7B68     		ldr	r3, [r7, #4]
 6889 0038 1B68     		ldr	r3, [r3]
 6890 003a 5A68     		ldr	r2, [r3, #4]
 6891 003c 7B68     		ldr	r3, [r7, #4]
 6892 003e 1B68     		ldr	r3, [r3]
 6893 0040 22F08002 		bic	r2, r2, #128
 6894 0044 5A60     		str	r2, [r3, #4]
3727:Drivers/STM32L4xx_HAL_Driver/Src/stm32l4xx_hal_spi.c **** 
3728:Drivers/STM32L4xx_HAL_Driver/Src/stm32l4xx_hal_spi.c ****     if (hspi->RxXferCount == 0U)
 6895              		.loc 1 3728 13
 6896 0046 7B68     		ldr	r3, [r7, #4]
 6897 0048 B3F84630 		ldrh	r3, [r3, #70]	@ movhi
 6898 004c 9BB2     		uxth	r3, r3
 6899              		.loc 1 3728 8
 6900 004e 002B     		cmp	r3, #0
 6901 0050 02D1     		bne	.L334
3729:Drivers/STM32L4xx_HAL_Driver/Src/stm32l4xx_hal_spi.c ****     {
3730:Drivers/STM32L4xx_HAL_Driver/Src/stm32l4xx_hal_spi.c ****       SPI_CloseRxTx_ISR(hspi);
 6902              		.loc 1 3730 7
 6903 0052 7868     		ldr	r0, [r7, #4]
 6904 0054 FFF7FEFF 		bl	SPI_CloseRxTx_ISR
 6905              	.L334:
3731:Drivers/STM32L4xx_HAL_Driver/Src/stm32l4xx_hal_spi.c ****     }
3732:Drivers/STM32L4xx_HAL_Driver/Src/stm32l4xx_hal_spi.c ****   }
3733:Drivers/STM32L4xx_HAL_Driver/Src/stm32l4xx_hal_spi.c **** }
 6906              		.loc 1 3733 1
 6907 0058 00BF     		nop
 6908 005a 0837     		adds	r7, r7, #8
 6909              		.cfi_def_cfa_offset 8
 6910 005c BD46     		mov	sp, r7
 6911              		.cfi_def_cfa_register 13
 6912              		@ sp needed
 6913 005e 80BD     		pop	{r7, pc}
 6914              		.cfi_endproc
 6915              	.LFE363:
 6917              		.section	.text.SPI_RxISR_8BIT,"ax",%progbits
 6918              		.align	1
 6919              		.syntax unified
 6920              		.thumb
 6921              		.thumb_func
 6923              	SPI_RxISR_8BIT:
 6924              	.LFB364:
3734:Drivers/STM32L4xx_HAL_Driver/Src/stm32l4xx_hal_spi.c **** 
3735:Drivers/STM32L4xx_HAL_Driver/Src/stm32l4xx_hal_spi.c **** #if (USE_SPI_CRC != 0U)
3736:Drivers/STM32L4xx_HAL_Driver/Src/stm32l4xx_hal_spi.c **** /**
ARM GAS  C:\Users\Morroway\AppData\Local\Temp\ccCQJjHM.s 			page 187


3737:Drivers/STM32L4xx_HAL_Driver/Src/stm32l4xx_hal_spi.c ****   * @brief  Manage the CRC 8-bit receive in Interrupt context.
3738:Drivers/STM32L4xx_HAL_Driver/Src/stm32l4xx_hal_spi.c ****   * @param  hspi pointer to a SPI_HandleTypeDef structure that contains
3739:Drivers/STM32L4xx_HAL_Driver/Src/stm32l4xx_hal_spi.c ****   *               the configuration information for SPI module.
3740:Drivers/STM32L4xx_HAL_Driver/Src/stm32l4xx_hal_spi.c ****   * @retval None
3741:Drivers/STM32L4xx_HAL_Driver/Src/stm32l4xx_hal_spi.c ****   */
3742:Drivers/STM32L4xx_HAL_Driver/Src/stm32l4xx_hal_spi.c **** static void SPI_RxISR_8BITCRC(struct __SPI_HandleTypeDef *hspi)
3743:Drivers/STM32L4xx_HAL_Driver/Src/stm32l4xx_hal_spi.c **** {
3744:Drivers/STM32L4xx_HAL_Driver/Src/stm32l4xx_hal_spi.c ****   __IO uint8_t  *ptmpreg8;
3745:Drivers/STM32L4xx_HAL_Driver/Src/stm32l4xx_hal_spi.c ****   __IO uint8_t  tmpreg8 = 0;
3746:Drivers/STM32L4xx_HAL_Driver/Src/stm32l4xx_hal_spi.c **** 
3747:Drivers/STM32L4xx_HAL_Driver/Src/stm32l4xx_hal_spi.c ****   /* Initialize the 8bit temporary pointer */
3748:Drivers/STM32L4xx_HAL_Driver/Src/stm32l4xx_hal_spi.c ****   ptmpreg8 = (__IO uint8_t *)&hspi->Instance->DR;
3749:Drivers/STM32L4xx_HAL_Driver/Src/stm32l4xx_hal_spi.c ****   /* Read 8bit CRC to flush Data Register */
3750:Drivers/STM32L4xx_HAL_Driver/Src/stm32l4xx_hal_spi.c ****   tmpreg8 = *ptmpreg8;
3751:Drivers/STM32L4xx_HAL_Driver/Src/stm32l4xx_hal_spi.c ****   /* To avoid GCC warning */
3752:Drivers/STM32L4xx_HAL_Driver/Src/stm32l4xx_hal_spi.c ****   UNUSED(tmpreg8);
3753:Drivers/STM32L4xx_HAL_Driver/Src/stm32l4xx_hal_spi.c **** 
3754:Drivers/STM32L4xx_HAL_Driver/Src/stm32l4xx_hal_spi.c ****   hspi->CRCSize--;
3755:Drivers/STM32L4xx_HAL_Driver/Src/stm32l4xx_hal_spi.c **** 
3756:Drivers/STM32L4xx_HAL_Driver/Src/stm32l4xx_hal_spi.c ****   if (hspi->CRCSize == 0U)
3757:Drivers/STM32L4xx_HAL_Driver/Src/stm32l4xx_hal_spi.c ****   {
3758:Drivers/STM32L4xx_HAL_Driver/Src/stm32l4xx_hal_spi.c ****     SPI_CloseRx_ISR(hspi);
3759:Drivers/STM32L4xx_HAL_Driver/Src/stm32l4xx_hal_spi.c ****   }
3760:Drivers/STM32L4xx_HAL_Driver/Src/stm32l4xx_hal_spi.c **** }
3761:Drivers/STM32L4xx_HAL_Driver/Src/stm32l4xx_hal_spi.c **** #endif /* USE_SPI_CRC */
3762:Drivers/STM32L4xx_HAL_Driver/Src/stm32l4xx_hal_spi.c **** 
3763:Drivers/STM32L4xx_HAL_Driver/Src/stm32l4xx_hal_spi.c **** /**
3764:Drivers/STM32L4xx_HAL_Driver/Src/stm32l4xx_hal_spi.c ****   * @brief  Manage the receive 8-bit in Interrupt context.
3765:Drivers/STM32L4xx_HAL_Driver/Src/stm32l4xx_hal_spi.c ****   * @param  hspi pointer to a SPI_HandleTypeDef structure that contains
3766:Drivers/STM32L4xx_HAL_Driver/Src/stm32l4xx_hal_spi.c ****   *               the configuration information for SPI module.
3767:Drivers/STM32L4xx_HAL_Driver/Src/stm32l4xx_hal_spi.c ****   * @retval None
3768:Drivers/STM32L4xx_HAL_Driver/Src/stm32l4xx_hal_spi.c ****   */
3769:Drivers/STM32L4xx_HAL_Driver/Src/stm32l4xx_hal_spi.c **** static void SPI_RxISR_8BIT(struct __SPI_HandleTypeDef *hspi)
3770:Drivers/STM32L4xx_HAL_Driver/Src/stm32l4xx_hal_spi.c **** {
 6925              		.loc 1 3770 1
 6926              		.cfi_startproc
 6927              		@ args = 0, pretend = 0, frame = 8
 6928              		@ frame_needed = 1, uses_anonymous_args = 0
 6929 0000 80B5     		push	{r7, lr}
 6930              		.cfi_def_cfa_offset 8
 6931              		.cfi_offset 7, -8
 6932              		.cfi_offset 14, -4
 6933 0002 82B0     		sub	sp, sp, #8
 6934              		.cfi_def_cfa_offset 16
 6935 0004 00AF     		add	r7, sp, #0
 6936              		.cfi_def_cfa_register 7
 6937 0006 7860     		str	r0, [r7, #4]
3771:Drivers/STM32L4xx_HAL_Driver/Src/stm32l4xx_hal_spi.c ****   *hspi->pRxBuffPtr = (*(__IO uint8_t *)&hspi->Instance->DR);
 6938              		.loc 1 3771 46
 6939 0008 7B68     		ldr	r3, [r7, #4]
 6940 000a 1B68     		ldr	r3, [r3]
 6941              		.loc 1 3771 41
 6942 000c 03F10C02 		add	r2, r3, #12
 6943              		.loc 1 3771 8
 6944 0010 7B68     		ldr	r3, [r7, #4]
 6945 0012 1B6C     		ldr	r3, [r3, #64]
 6946              		.loc 1 3771 24
ARM GAS  C:\Users\Morroway\AppData\Local\Temp\ccCQJjHM.s 			page 188


 6947 0014 1278     		ldrb	r2, [r2]
 6948 0016 D2B2     		uxtb	r2, r2
 6949              		.loc 1 3771 21
 6950 0018 1A70     		strb	r2, [r3]
3772:Drivers/STM32L4xx_HAL_Driver/Src/stm32l4xx_hal_spi.c ****   hspi->pRxBuffPtr++;
 6951              		.loc 1 3772 7
 6952 001a 7B68     		ldr	r3, [r7, #4]
 6953 001c 1B6C     		ldr	r3, [r3, #64]
 6954              		.loc 1 3772 19
 6955 001e 5A1C     		adds	r2, r3, #1
 6956 0020 7B68     		ldr	r3, [r7, #4]
 6957 0022 1A64     		str	r2, [r3, #64]
3773:Drivers/STM32L4xx_HAL_Driver/Src/stm32l4xx_hal_spi.c ****   hspi->RxXferCount--;
 6958              		.loc 1 3773 7
 6959 0024 7B68     		ldr	r3, [r7, #4]
 6960 0026 B3F84630 		ldrh	r3, [r3, #70]	@ movhi
 6961 002a 9BB2     		uxth	r3, r3
 6962              		.loc 1 3773 20
 6963 002c 013B     		subs	r3, r3, #1
 6964 002e 9AB2     		uxth	r2, r3
 6965 0030 7B68     		ldr	r3, [r7, #4]
 6966 0032 A3F84620 		strh	r2, [r3, #70]	@ movhi
3774:Drivers/STM32L4xx_HAL_Driver/Src/stm32l4xx_hal_spi.c **** 
3775:Drivers/STM32L4xx_HAL_Driver/Src/stm32l4xx_hal_spi.c **** #if (USE_SPI_CRC != 0U)
3776:Drivers/STM32L4xx_HAL_Driver/Src/stm32l4xx_hal_spi.c ****   /* Enable CRC Transmission */
3777:Drivers/STM32L4xx_HAL_Driver/Src/stm32l4xx_hal_spi.c ****   if ((hspi->RxXferCount == 1U) && (hspi->Init.CRCCalculation == SPI_CRCCALCULATION_ENABLE))
3778:Drivers/STM32L4xx_HAL_Driver/Src/stm32l4xx_hal_spi.c ****   {
3779:Drivers/STM32L4xx_HAL_Driver/Src/stm32l4xx_hal_spi.c ****     SET_BIT(hspi->Instance->CR1, SPI_CR1_CRCNEXT);
3780:Drivers/STM32L4xx_HAL_Driver/Src/stm32l4xx_hal_spi.c ****   }
3781:Drivers/STM32L4xx_HAL_Driver/Src/stm32l4xx_hal_spi.c **** #endif /* USE_SPI_CRC */
3782:Drivers/STM32L4xx_HAL_Driver/Src/stm32l4xx_hal_spi.c **** 
3783:Drivers/STM32L4xx_HAL_Driver/Src/stm32l4xx_hal_spi.c ****   if (hspi->RxXferCount == 0U)
 6967              		.loc 1 3783 11
 6968 0036 7B68     		ldr	r3, [r7, #4]
 6969 0038 B3F84630 		ldrh	r3, [r3, #70]	@ movhi
 6970 003c 9BB2     		uxth	r3, r3
 6971              		.loc 1 3783 6
 6972 003e 002B     		cmp	r3, #0
 6973 0040 02D1     		bne	.L337
3784:Drivers/STM32L4xx_HAL_Driver/Src/stm32l4xx_hal_spi.c ****   {
3785:Drivers/STM32L4xx_HAL_Driver/Src/stm32l4xx_hal_spi.c **** #if (USE_SPI_CRC != 0U)
3786:Drivers/STM32L4xx_HAL_Driver/Src/stm32l4xx_hal_spi.c ****     if (hspi->Init.CRCCalculation == SPI_CRCCALCULATION_ENABLE)
3787:Drivers/STM32L4xx_HAL_Driver/Src/stm32l4xx_hal_spi.c ****     {
3788:Drivers/STM32L4xx_HAL_Driver/Src/stm32l4xx_hal_spi.c ****       hspi->RxISR =  SPI_RxISR_8BITCRC;
3789:Drivers/STM32L4xx_HAL_Driver/Src/stm32l4xx_hal_spi.c ****       return;
3790:Drivers/STM32L4xx_HAL_Driver/Src/stm32l4xx_hal_spi.c ****     }
3791:Drivers/STM32L4xx_HAL_Driver/Src/stm32l4xx_hal_spi.c **** #endif /* USE_SPI_CRC */
3792:Drivers/STM32L4xx_HAL_Driver/Src/stm32l4xx_hal_spi.c ****     SPI_CloseRx_ISR(hspi);
 6974              		.loc 1 3792 5
 6975 0042 7868     		ldr	r0, [r7, #4]
 6976 0044 FFF7FEFF 		bl	SPI_CloseRx_ISR
 6977              	.L337:
3793:Drivers/STM32L4xx_HAL_Driver/Src/stm32l4xx_hal_spi.c ****   }
3794:Drivers/STM32L4xx_HAL_Driver/Src/stm32l4xx_hal_spi.c **** }
 6978              		.loc 1 3794 1
 6979 0048 00BF     		nop
 6980 004a 0837     		adds	r7, r7, #8
ARM GAS  C:\Users\Morroway\AppData\Local\Temp\ccCQJjHM.s 			page 189


 6981              		.cfi_def_cfa_offset 8
 6982 004c BD46     		mov	sp, r7
 6983              		.cfi_def_cfa_register 13
 6984              		@ sp needed
 6985 004e 80BD     		pop	{r7, pc}
 6986              		.cfi_endproc
 6987              	.LFE364:
 6989              		.section	.text.SPI_RxISR_16BIT,"ax",%progbits
 6990              		.align	1
 6991              		.syntax unified
 6992              		.thumb
 6993              		.thumb_func
 6995              	SPI_RxISR_16BIT:
 6996              	.LFB365:
3795:Drivers/STM32L4xx_HAL_Driver/Src/stm32l4xx_hal_spi.c **** 
3796:Drivers/STM32L4xx_HAL_Driver/Src/stm32l4xx_hal_spi.c **** #if (USE_SPI_CRC != 0U)
3797:Drivers/STM32L4xx_HAL_Driver/Src/stm32l4xx_hal_spi.c **** /**
3798:Drivers/STM32L4xx_HAL_Driver/Src/stm32l4xx_hal_spi.c ****   * @brief  Manage the CRC 16-bit receive in Interrupt context.
3799:Drivers/STM32L4xx_HAL_Driver/Src/stm32l4xx_hal_spi.c ****   * @param  hspi pointer to a SPI_HandleTypeDef structure that contains
3800:Drivers/STM32L4xx_HAL_Driver/Src/stm32l4xx_hal_spi.c ****   *               the configuration information for SPI module.
3801:Drivers/STM32L4xx_HAL_Driver/Src/stm32l4xx_hal_spi.c ****   * @retval None
3802:Drivers/STM32L4xx_HAL_Driver/Src/stm32l4xx_hal_spi.c ****   */
3803:Drivers/STM32L4xx_HAL_Driver/Src/stm32l4xx_hal_spi.c **** static void SPI_RxISR_16BITCRC(struct __SPI_HandleTypeDef *hspi)
3804:Drivers/STM32L4xx_HAL_Driver/Src/stm32l4xx_hal_spi.c **** {
3805:Drivers/STM32L4xx_HAL_Driver/Src/stm32l4xx_hal_spi.c ****   __IO uint32_t tmpreg = 0U;
3806:Drivers/STM32L4xx_HAL_Driver/Src/stm32l4xx_hal_spi.c **** 
3807:Drivers/STM32L4xx_HAL_Driver/Src/stm32l4xx_hal_spi.c ****   /* Read 16bit CRC to flush Data Register */
3808:Drivers/STM32L4xx_HAL_Driver/Src/stm32l4xx_hal_spi.c ****   tmpreg = READ_REG(hspi->Instance->DR);
3809:Drivers/STM32L4xx_HAL_Driver/Src/stm32l4xx_hal_spi.c ****   /* To avoid GCC warning */
3810:Drivers/STM32L4xx_HAL_Driver/Src/stm32l4xx_hal_spi.c ****   UNUSED(tmpreg);
3811:Drivers/STM32L4xx_HAL_Driver/Src/stm32l4xx_hal_spi.c **** 
3812:Drivers/STM32L4xx_HAL_Driver/Src/stm32l4xx_hal_spi.c ****   /* Disable RXNE and ERR interrupt */
3813:Drivers/STM32L4xx_HAL_Driver/Src/stm32l4xx_hal_spi.c ****   __HAL_SPI_DISABLE_IT(hspi, (SPI_IT_RXNE | SPI_IT_ERR));
3814:Drivers/STM32L4xx_HAL_Driver/Src/stm32l4xx_hal_spi.c **** 
3815:Drivers/STM32L4xx_HAL_Driver/Src/stm32l4xx_hal_spi.c ****   SPI_CloseRx_ISR(hspi);
3816:Drivers/STM32L4xx_HAL_Driver/Src/stm32l4xx_hal_spi.c **** }
3817:Drivers/STM32L4xx_HAL_Driver/Src/stm32l4xx_hal_spi.c **** #endif /* USE_SPI_CRC */
3818:Drivers/STM32L4xx_HAL_Driver/Src/stm32l4xx_hal_spi.c **** 
3819:Drivers/STM32L4xx_HAL_Driver/Src/stm32l4xx_hal_spi.c **** /**
3820:Drivers/STM32L4xx_HAL_Driver/Src/stm32l4xx_hal_spi.c ****   * @brief  Manage the 16-bit receive in Interrupt context.
3821:Drivers/STM32L4xx_HAL_Driver/Src/stm32l4xx_hal_spi.c ****   * @param  hspi pointer to a SPI_HandleTypeDef structure that contains
3822:Drivers/STM32L4xx_HAL_Driver/Src/stm32l4xx_hal_spi.c ****   *               the configuration information for SPI module.
3823:Drivers/STM32L4xx_HAL_Driver/Src/stm32l4xx_hal_spi.c ****   * @retval None
3824:Drivers/STM32L4xx_HAL_Driver/Src/stm32l4xx_hal_spi.c ****   */
3825:Drivers/STM32L4xx_HAL_Driver/Src/stm32l4xx_hal_spi.c **** static void SPI_RxISR_16BIT(struct __SPI_HandleTypeDef *hspi)
3826:Drivers/STM32L4xx_HAL_Driver/Src/stm32l4xx_hal_spi.c **** {
 6997              		.loc 1 3826 1
 6998              		.cfi_startproc
 6999              		@ args = 0, pretend = 0, frame = 8
 7000              		@ frame_needed = 1, uses_anonymous_args = 0
 7001 0000 80B5     		push	{r7, lr}
 7002              		.cfi_def_cfa_offset 8
 7003              		.cfi_offset 7, -8
 7004              		.cfi_offset 14, -4
 7005 0002 82B0     		sub	sp, sp, #8
 7006              		.cfi_def_cfa_offset 16
 7007 0004 00AF     		add	r7, sp, #0
ARM GAS  C:\Users\Morroway\AppData\Local\Temp\ccCQJjHM.s 			page 190


 7008              		.cfi_def_cfa_register 7
 7009 0006 7860     		str	r0, [r7, #4]
3827:Drivers/STM32L4xx_HAL_Driver/Src/stm32l4xx_hal_spi.c ****   *((uint16_t *)hspi->pRxBuffPtr) = (uint16_t)(hspi->Instance->DR);
 7010              		.loc 1 3827 52
 7011 0008 7B68     		ldr	r3, [r7, #4]
 7012 000a 1B68     		ldr	r3, [r3]
 7013              		.loc 1 3827 62
 7014 000c DA68     		ldr	r2, [r3, #12]
 7015              		.loc 1 3827 21
 7016 000e 7B68     		ldr	r3, [r7, #4]
 7017 0010 1B6C     		ldr	r3, [r3, #64]
 7018              		.loc 1 3827 37
 7019 0012 92B2     		uxth	r2, r2
 7020              		.loc 1 3827 35
 7021 0014 1A80     		strh	r2, [r3]	@ movhi
3828:Drivers/STM32L4xx_HAL_Driver/Src/stm32l4xx_hal_spi.c ****   hspi->pRxBuffPtr += sizeof(uint16_t);
 7022              		.loc 1 3828 20
 7023 0016 7B68     		ldr	r3, [r7, #4]
 7024 0018 1B6C     		ldr	r3, [r3, #64]
 7025 001a 9A1C     		adds	r2, r3, #2
 7026 001c 7B68     		ldr	r3, [r7, #4]
 7027 001e 1A64     		str	r2, [r3, #64]
3829:Drivers/STM32L4xx_HAL_Driver/Src/stm32l4xx_hal_spi.c ****   hspi->RxXferCount--;
 7028              		.loc 1 3829 7
 7029 0020 7B68     		ldr	r3, [r7, #4]
 7030 0022 B3F84630 		ldrh	r3, [r3, #70]	@ movhi
 7031 0026 9BB2     		uxth	r3, r3
 7032              		.loc 1 3829 20
 7033 0028 013B     		subs	r3, r3, #1
 7034 002a 9AB2     		uxth	r2, r3
 7035 002c 7B68     		ldr	r3, [r7, #4]
 7036 002e A3F84620 		strh	r2, [r3, #70]	@ movhi
3830:Drivers/STM32L4xx_HAL_Driver/Src/stm32l4xx_hal_spi.c **** 
3831:Drivers/STM32L4xx_HAL_Driver/Src/stm32l4xx_hal_spi.c **** #if (USE_SPI_CRC != 0U)
3832:Drivers/STM32L4xx_HAL_Driver/Src/stm32l4xx_hal_spi.c ****   /* Enable CRC Transmission */
3833:Drivers/STM32L4xx_HAL_Driver/Src/stm32l4xx_hal_spi.c ****   if ((hspi->RxXferCount == 1U) && (hspi->Init.CRCCalculation == SPI_CRCCALCULATION_ENABLE))
3834:Drivers/STM32L4xx_HAL_Driver/Src/stm32l4xx_hal_spi.c ****   {
3835:Drivers/STM32L4xx_HAL_Driver/Src/stm32l4xx_hal_spi.c ****     SET_BIT(hspi->Instance->CR1, SPI_CR1_CRCNEXT);
3836:Drivers/STM32L4xx_HAL_Driver/Src/stm32l4xx_hal_spi.c ****   }
3837:Drivers/STM32L4xx_HAL_Driver/Src/stm32l4xx_hal_spi.c **** #endif /* USE_SPI_CRC */
3838:Drivers/STM32L4xx_HAL_Driver/Src/stm32l4xx_hal_spi.c **** 
3839:Drivers/STM32L4xx_HAL_Driver/Src/stm32l4xx_hal_spi.c ****   if (hspi->RxXferCount == 0U)
 7037              		.loc 1 3839 11
 7038 0032 7B68     		ldr	r3, [r7, #4]
 7039 0034 B3F84630 		ldrh	r3, [r3, #70]	@ movhi
 7040 0038 9BB2     		uxth	r3, r3
 7041              		.loc 1 3839 6
 7042 003a 002B     		cmp	r3, #0
 7043 003c 02D1     		bne	.L340
3840:Drivers/STM32L4xx_HAL_Driver/Src/stm32l4xx_hal_spi.c ****   {
3841:Drivers/STM32L4xx_HAL_Driver/Src/stm32l4xx_hal_spi.c **** #if (USE_SPI_CRC != 0U)
3842:Drivers/STM32L4xx_HAL_Driver/Src/stm32l4xx_hal_spi.c ****     if (hspi->Init.CRCCalculation == SPI_CRCCALCULATION_ENABLE)
3843:Drivers/STM32L4xx_HAL_Driver/Src/stm32l4xx_hal_spi.c ****     {
3844:Drivers/STM32L4xx_HAL_Driver/Src/stm32l4xx_hal_spi.c ****       hspi->RxISR = SPI_RxISR_16BITCRC;
3845:Drivers/STM32L4xx_HAL_Driver/Src/stm32l4xx_hal_spi.c ****       return;
3846:Drivers/STM32L4xx_HAL_Driver/Src/stm32l4xx_hal_spi.c ****     }
3847:Drivers/STM32L4xx_HAL_Driver/Src/stm32l4xx_hal_spi.c **** #endif /* USE_SPI_CRC */
ARM GAS  C:\Users\Morroway\AppData\Local\Temp\ccCQJjHM.s 			page 191


3848:Drivers/STM32L4xx_HAL_Driver/Src/stm32l4xx_hal_spi.c ****     SPI_CloseRx_ISR(hspi);
 7044              		.loc 1 3848 5
 7045 003e 7868     		ldr	r0, [r7, #4]
 7046 0040 FFF7FEFF 		bl	SPI_CloseRx_ISR
 7047              	.L340:
3849:Drivers/STM32L4xx_HAL_Driver/Src/stm32l4xx_hal_spi.c ****   }
3850:Drivers/STM32L4xx_HAL_Driver/Src/stm32l4xx_hal_spi.c **** }
 7048              		.loc 1 3850 1
 7049 0044 00BF     		nop
 7050 0046 0837     		adds	r7, r7, #8
 7051              		.cfi_def_cfa_offset 8
 7052 0048 BD46     		mov	sp, r7
 7053              		.cfi_def_cfa_register 13
 7054              		@ sp needed
 7055 004a 80BD     		pop	{r7, pc}
 7056              		.cfi_endproc
 7057              	.LFE365:
 7059              		.section	.text.SPI_TxISR_8BIT,"ax",%progbits
 7060              		.align	1
 7061              		.syntax unified
 7062              		.thumb
 7063              		.thumb_func
 7065              	SPI_TxISR_8BIT:
 7066              	.LFB366:
3851:Drivers/STM32L4xx_HAL_Driver/Src/stm32l4xx_hal_spi.c **** 
3852:Drivers/STM32L4xx_HAL_Driver/Src/stm32l4xx_hal_spi.c **** /**
3853:Drivers/STM32L4xx_HAL_Driver/Src/stm32l4xx_hal_spi.c ****   * @brief  Handle the data 8-bit transmit in Interrupt mode.
3854:Drivers/STM32L4xx_HAL_Driver/Src/stm32l4xx_hal_spi.c ****   * @param  hspi pointer to a SPI_HandleTypeDef structure that contains
3855:Drivers/STM32L4xx_HAL_Driver/Src/stm32l4xx_hal_spi.c ****   *               the configuration information for SPI module.
3856:Drivers/STM32L4xx_HAL_Driver/Src/stm32l4xx_hal_spi.c ****   * @retval None
3857:Drivers/STM32L4xx_HAL_Driver/Src/stm32l4xx_hal_spi.c ****   */
3858:Drivers/STM32L4xx_HAL_Driver/Src/stm32l4xx_hal_spi.c **** static void SPI_TxISR_8BIT(struct __SPI_HandleTypeDef *hspi)
3859:Drivers/STM32L4xx_HAL_Driver/Src/stm32l4xx_hal_spi.c **** {
 7067              		.loc 1 3859 1
 7068              		.cfi_startproc
 7069              		@ args = 0, pretend = 0, frame = 8
 7070              		@ frame_needed = 1, uses_anonymous_args = 0
 7071 0000 80B5     		push	{r7, lr}
 7072              		.cfi_def_cfa_offset 8
 7073              		.cfi_offset 7, -8
 7074              		.cfi_offset 14, -4
 7075 0002 82B0     		sub	sp, sp, #8
 7076              		.cfi_def_cfa_offset 16
 7077 0004 00AF     		add	r7, sp, #0
 7078              		.cfi_def_cfa_register 7
 7079 0006 7860     		str	r0, [r7, #4]
3860:Drivers/STM32L4xx_HAL_Driver/Src/stm32l4xx_hal_spi.c ****   *(__IO uint8_t *)&hspi->Instance->DR = (*hspi->pTxBuffPtr);
 7080              		.loc 1 3860 48
 7081 0008 7B68     		ldr	r3, [r7, #4]
 7082 000a 9A6B     		ldr	r2, [r3, #56]
 7083              		.loc 1 3860 25
 7084 000c 7B68     		ldr	r3, [r7, #4]
 7085 000e 1B68     		ldr	r3, [r3]
 7086              		.loc 1 3860 20
 7087 0010 0C33     		adds	r3, r3, #12
 7088              		.loc 1 3860 43
 7089 0012 1278     		ldrb	r2, [r2]	@ zero_extendqisi2
ARM GAS  C:\Users\Morroway\AppData\Local\Temp\ccCQJjHM.s 			page 192


 7090              		.loc 1 3860 40
 7091 0014 1A70     		strb	r2, [r3]
3861:Drivers/STM32L4xx_HAL_Driver/Src/stm32l4xx_hal_spi.c ****   hspi->pTxBuffPtr++;
 7092              		.loc 1 3861 7
 7093 0016 7B68     		ldr	r3, [r7, #4]
 7094 0018 9B6B     		ldr	r3, [r3, #56]
 7095              		.loc 1 3861 19
 7096 001a 5A1C     		adds	r2, r3, #1
 7097 001c 7B68     		ldr	r3, [r7, #4]
 7098 001e 9A63     		str	r2, [r3, #56]
3862:Drivers/STM32L4xx_HAL_Driver/Src/stm32l4xx_hal_spi.c ****   hspi->TxXferCount--;
 7099              		.loc 1 3862 7
 7100 0020 7B68     		ldr	r3, [r7, #4]
 7101 0022 DB8F     		ldrh	r3, [r3, #62]	@ movhi
 7102 0024 9BB2     		uxth	r3, r3
 7103              		.loc 1 3862 20
 7104 0026 013B     		subs	r3, r3, #1
 7105 0028 9AB2     		uxth	r2, r3
 7106 002a 7B68     		ldr	r3, [r7, #4]
 7107 002c DA87     		strh	r2, [r3, #62]	@ movhi
3863:Drivers/STM32L4xx_HAL_Driver/Src/stm32l4xx_hal_spi.c **** 
3864:Drivers/STM32L4xx_HAL_Driver/Src/stm32l4xx_hal_spi.c ****   if (hspi->TxXferCount == 0U)
 7108              		.loc 1 3864 11
 7109 002e 7B68     		ldr	r3, [r7, #4]
 7110 0030 DB8F     		ldrh	r3, [r3, #62]	@ movhi
 7111 0032 9BB2     		uxth	r3, r3
 7112              		.loc 1 3864 6
 7113 0034 002B     		cmp	r3, #0
 7114 0036 02D1     		bne	.L343
3865:Drivers/STM32L4xx_HAL_Driver/Src/stm32l4xx_hal_spi.c ****   {
3866:Drivers/STM32L4xx_HAL_Driver/Src/stm32l4xx_hal_spi.c **** #if (USE_SPI_CRC != 0U)
3867:Drivers/STM32L4xx_HAL_Driver/Src/stm32l4xx_hal_spi.c ****     if (hspi->Init.CRCCalculation == SPI_CRCCALCULATION_ENABLE)
3868:Drivers/STM32L4xx_HAL_Driver/Src/stm32l4xx_hal_spi.c ****     {
3869:Drivers/STM32L4xx_HAL_Driver/Src/stm32l4xx_hal_spi.c ****       /* Enable CRC Transmission */
3870:Drivers/STM32L4xx_HAL_Driver/Src/stm32l4xx_hal_spi.c ****       SET_BIT(hspi->Instance->CR1, SPI_CR1_CRCNEXT);
3871:Drivers/STM32L4xx_HAL_Driver/Src/stm32l4xx_hal_spi.c ****     }
3872:Drivers/STM32L4xx_HAL_Driver/Src/stm32l4xx_hal_spi.c **** #endif /* USE_SPI_CRC */
3873:Drivers/STM32L4xx_HAL_Driver/Src/stm32l4xx_hal_spi.c ****     SPI_CloseTx_ISR(hspi);
 7115              		.loc 1 3873 5
 7116 0038 7868     		ldr	r0, [r7, #4]
 7117 003a FFF7FEFF 		bl	SPI_CloseTx_ISR
 7118              	.L343:
3874:Drivers/STM32L4xx_HAL_Driver/Src/stm32l4xx_hal_spi.c ****   }
3875:Drivers/STM32L4xx_HAL_Driver/Src/stm32l4xx_hal_spi.c **** }
 7119              		.loc 1 3875 1
 7120 003e 00BF     		nop
 7121 0040 0837     		adds	r7, r7, #8
 7122              		.cfi_def_cfa_offset 8
 7123 0042 BD46     		mov	sp, r7
 7124              		.cfi_def_cfa_register 13
 7125              		@ sp needed
 7126 0044 80BD     		pop	{r7, pc}
 7127              		.cfi_endproc
 7128              	.LFE366:
 7130              		.section	.text.SPI_TxISR_16BIT,"ax",%progbits
 7131              		.align	1
 7132              		.syntax unified
ARM GAS  C:\Users\Morroway\AppData\Local\Temp\ccCQJjHM.s 			page 193


 7133              		.thumb
 7134              		.thumb_func
 7136              	SPI_TxISR_16BIT:
 7137              	.LFB367:
3876:Drivers/STM32L4xx_HAL_Driver/Src/stm32l4xx_hal_spi.c **** 
3877:Drivers/STM32L4xx_HAL_Driver/Src/stm32l4xx_hal_spi.c **** /**
3878:Drivers/STM32L4xx_HAL_Driver/Src/stm32l4xx_hal_spi.c ****   * @brief  Handle the data 16-bit transmit in Interrupt mode.
3879:Drivers/STM32L4xx_HAL_Driver/Src/stm32l4xx_hal_spi.c ****   * @param  hspi pointer to a SPI_HandleTypeDef structure that contains
3880:Drivers/STM32L4xx_HAL_Driver/Src/stm32l4xx_hal_spi.c ****   *               the configuration information for SPI module.
3881:Drivers/STM32L4xx_HAL_Driver/Src/stm32l4xx_hal_spi.c ****   * @retval None
3882:Drivers/STM32L4xx_HAL_Driver/Src/stm32l4xx_hal_spi.c ****   */
3883:Drivers/STM32L4xx_HAL_Driver/Src/stm32l4xx_hal_spi.c **** static void SPI_TxISR_16BIT(struct __SPI_HandleTypeDef *hspi)
3884:Drivers/STM32L4xx_HAL_Driver/Src/stm32l4xx_hal_spi.c **** {
 7138              		.loc 1 3884 1
 7139              		.cfi_startproc
 7140              		@ args = 0, pretend = 0, frame = 8
 7141              		@ frame_needed = 1, uses_anonymous_args = 0
 7142 0000 80B5     		push	{r7, lr}
 7143              		.cfi_def_cfa_offset 8
 7144              		.cfi_offset 7, -8
 7145              		.cfi_offset 14, -4
 7146 0002 82B0     		sub	sp, sp, #8
 7147              		.cfi_def_cfa_offset 16
 7148 0004 00AF     		add	r7, sp, #0
 7149              		.cfi_def_cfa_register 7
 7150 0006 7860     		str	r0, [r7, #4]
3885:Drivers/STM32L4xx_HAL_Driver/Src/stm32l4xx_hal_spi.c ****   /* Transmit data in 16 Bit mode */
3886:Drivers/STM32L4xx_HAL_Driver/Src/stm32l4xx_hal_spi.c ****   hspi->Instance->DR = *((uint16_t *)hspi->pTxBuffPtr);
 7151              		.loc 1 3886 42
 7152 0008 7B68     		ldr	r3, [r7, #4]
 7153 000a 9B6B     		ldr	r3, [r3, #56]
 7154              		.loc 1 3886 24
 7155 000c 1A88     		ldrh	r2, [r3]
 7156              		.loc 1 3886 7
 7157 000e 7B68     		ldr	r3, [r7, #4]
 7158 0010 1B68     		ldr	r3, [r3]
 7159              		.loc 1 3886 22
 7160 0012 DA60     		str	r2, [r3, #12]
3887:Drivers/STM32L4xx_HAL_Driver/Src/stm32l4xx_hal_spi.c ****   hspi->pTxBuffPtr += sizeof(uint16_t);
 7161              		.loc 1 3887 20
 7162 0014 7B68     		ldr	r3, [r7, #4]
 7163 0016 9B6B     		ldr	r3, [r3, #56]
 7164 0018 9A1C     		adds	r2, r3, #2
 7165 001a 7B68     		ldr	r3, [r7, #4]
 7166 001c 9A63     		str	r2, [r3, #56]
3888:Drivers/STM32L4xx_HAL_Driver/Src/stm32l4xx_hal_spi.c ****   hspi->TxXferCount--;
 7167              		.loc 1 3888 7
 7168 001e 7B68     		ldr	r3, [r7, #4]
 7169 0020 DB8F     		ldrh	r3, [r3, #62]	@ movhi
 7170 0022 9BB2     		uxth	r3, r3
 7171              		.loc 1 3888 20
 7172 0024 013B     		subs	r3, r3, #1
 7173 0026 9AB2     		uxth	r2, r3
 7174 0028 7B68     		ldr	r3, [r7, #4]
 7175 002a DA87     		strh	r2, [r3, #62]	@ movhi
3889:Drivers/STM32L4xx_HAL_Driver/Src/stm32l4xx_hal_spi.c **** 
3890:Drivers/STM32L4xx_HAL_Driver/Src/stm32l4xx_hal_spi.c ****   if (hspi->TxXferCount == 0U)
ARM GAS  C:\Users\Morroway\AppData\Local\Temp\ccCQJjHM.s 			page 194


 7176              		.loc 1 3890 11
 7177 002c 7B68     		ldr	r3, [r7, #4]
 7178 002e DB8F     		ldrh	r3, [r3, #62]	@ movhi
 7179 0030 9BB2     		uxth	r3, r3
 7180              		.loc 1 3890 6
 7181 0032 002B     		cmp	r3, #0
 7182 0034 02D1     		bne	.L346
3891:Drivers/STM32L4xx_HAL_Driver/Src/stm32l4xx_hal_spi.c ****   {
3892:Drivers/STM32L4xx_HAL_Driver/Src/stm32l4xx_hal_spi.c **** #if (USE_SPI_CRC != 0U)
3893:Drivers/STM32L4xx_HAL_Driver/Src/stm32l4xx_hal_spi.c ****     if (hspi->Init.CRCCalculation == SPI_CRCCALCULATION_ENABLE)
3894:Drivers/STM32L4xx_HAL_Driver/Src/stm32l4xx_hal_spi.c ****     {
3895:Drivers/STM32L4xx_HAL_Driver/Src/stm32l4xx_hal_spi.c ****       /* Enable CRC Transmission */
3896:Drivers/STM32L4xx_HAL_Driver/Src/stm32l4xx_hal_spi.c ****       SET_BIT(hspi->Instance->CR1, SPI_CR1_CRCNEXT);
3897:Drivers/STM32L4xx_HAL_Driver/Src/stm32l4xx_hal_spi.c ****     }
3898:Drivers/STM32L4xx_HAL_Driver/Src/stm32l4xx_hal_spi.c **** #endif /* USE_SPI_CRC */
3899:Drivers/STM32L4xx_HAL_Driver/Src/stm32l4xx_hal_spi.c ****     SPI_CloseTx_ISR(hspi);
 7183              		.loc 1 3899 5
 7184 0036 7868     		ldr	r0, [r7, #4]
 7185 0038 FFF7FEFF 		bl	SPI_CloseTx_ISR
 7186              	.L346:
3900:Drivers/STM32L4xx_HAL_Driver/Src/stm32l4xx_hal_spi.c ****   }
3901:Drivers/STM32L4xx_HAL_Driver/Src/stm32l4xx_hal_spi.c **** }
 7187              		.loc 1 3901 1
 7188 003c 00BF     		nop
 7189 003e 0837     		adds	r7, r7, #8
 7190              		.cfi_def_cfa_offset 8
 7191 0040 BD46     		mov	sp, r7
 7192              		.cfi_def_cfa_register 13
 7193              		@ sp needed
 7194 0042 80BD     		pop	{r7, pc}
 7195              		.cfi_endproc
 7196              	.LFE367:
 7198              		.section	.text.SPI_WaitFlagStateUntilTimeout,"ax",%progbits
 7199              		.align	1
 7200              		.syntax unified
 7201              		.thumb
 7202              		.thumb_func
 7204              	SPI_WaitFlagStateUntilTimeout:
 7205              	.LFB368:
3902:Drivers/STM32L4xx_HAL_Driver/Src/stm32l4xx_hal_spi.c **** 
3903:Drivers/STM32L4xx_HAL_Driver/Src/stm32l4xx_hal_spi.c **** /**
3904:Drivers/STM32L4xx_HAL_Driver/Src/stm32l4xx_hal_spi.c ****   * @brief  Handle SPI Communication Timeout.
3905:Drivers/STM32L4xx_HAL_Driver/Src/stm32l4xx_hal_spi.c ****   * @param  hspi pointer to a SPI_HandleTypeDef structure that contains
3906:Drivers/STM32L4xx_HAL_Driver/Src/stm32l4xx_hal_spi.c ****   *              the configuration information for SPI module.
3907:Drivers/STM32L4xx_HAL_Driver/Src/stm32l4xx_hal_spi.c ****   * @param  Flag SPI flag to check
3908:Drivers/STM32L4xx_HAL_Driver/Src/stm32l4xx_hal_spi.c ****   * @param  State flag state to check
3909:Drivers/STM32L4xx_HAL_Driver/Src/stm32l4xx_hal_spi.c ****   * @param  Timeout Timeout duration
3910:Drivers/STM32L4xx_HAL_Driver/Src/stm32l4xx_hal_spi.c ****   * @param  Tickstart tick start value
3911:Drivers/STM32L4xx_HAL_Driver/Src/stm32l4xx_hal_spi.c ****   * @retval HAL status
3912:Drivers/STM32L4xx_HAL_Driver/Src/stm32l4xx_hal_spi.c ****   */
3913:Drivers/STM32L4xx_HAL_Driver/Src/stm32l4xx_hal_spi.c **** static HAL_StatusTypeDef SPI_WaitFlagStateUntilTimeout(SPI_HandleTypeDef *hspi, uint32_t Flag, Flag
3914:Drivers/STM32L4xx_HAL_Driver/Src/stm32l4xx_hal_spi.c ****                                                        uint32_t Timeout, uint32_t Tickstart)
3915:Drivers/STM32L4xx_HAL_Driver/Src/stm32l4xx_hal_spi.c **** {
 7206              		.loc 1 3915 1
 7207              		.cfi_startproc
 7208              		@ args = 4, pretend = 0, frame = 32
 7209              		@ frame_needed = 1, uses_anonymous_args = 0
ARM GAS  C:\Users\Morroway\AppData\Local\Temp\ccCQJjHM.s 			page 195


 7210 0000 80B5     		push	{r7, lr}
 7211              		.cfi_def_cfa_offset 8
 7212              		.cfi_offset 7, -8
 7213              		.cfi_offset 14, -4
 7214 0002 88B0     		sub	sp, sp, #32
 7215              		.cfi_def_cfa_offset 40
 7216 0004 00AF     		add	r7, sp, #0
 7217              		.cfi_def_cfa_register 7
 7218 0006 F860     		str	r0, [r7, #12]
 7219 0008 B960     		str	r1, [r7, #8]
 7220 000a 3B60     		str	r3, [r7]
 7221 000c 1346     		mov	r3, r2
 7222 000e FB71     		strb	r3, [r7, #7]
3916:Drivers/STM32L4xx_HAL_Driver/Src/stm32l4xx_hal_spi.c ****   __IO uint32_t count;
3917:Drivers/STM32L4xx_HAL_Driver/Src/stm32l4xx_hal_spi.c ****   uint32_t tmp_timeout;
3918:Drivers/STM32L4xx_HAL_Driver/Src/stm32l4xx_hal_spi.c ****   uint32_t tmp_tickstart;
3919:Drivers/STM32L4xx_HAL_Driver/Src/stm32l4xx_hal_spi.c **** 
3920:Drivers/STM32L4xx_HAL_Driver/Src/stm32l4xx_hal_spi.c ****   /* Adjust Timeout value  in case of end of transfer */
3921:Drivers/STM32L4xx_HAL_Driver/Src/stm32l4xx_hal_spi.c ****   tmp_timeout   = Timeout - (HAL_GetTick() - Tickstart);
 7223              		.loc 1 3921 30
 7224 0010 FFF7FEFF 		bl	HAL_GetTick
 7225 0014 0246     		mov	r2, r0
 7226              		.loc 1 3921 44
 7227 0016 BB6A     		ldr	r3, [r7, #40]
 7228 0018 9B1A     		subs	r3, r3, r2
 7229              		.loc 1 3921 17
 7230 001a 3A68     		ldr	r2, [r7]
 7231 001c 1344     		add	r3, r3, r2
 7232 001e FB61     		str	r3, [r7, #28]
3922:Drivers/STM32L4xx_HAL_Driver/Src/stm32l4xx_hal_spi.c ****   tmp_tickstart = HAL_GetTick();
 7233              		.loc 1 3922 19
 7234 0020 FFF7FEFF 		bl	HAL_GetTick
 7235 0024 B861     		str	r0, [r7, #24]
3923:Drivers/STM32L4xx_HAL_Driver/Src/stm32l4xx_hal_spi.c **** 
3924:Drivers/STM32L4xx_HAL_Driver/Src/stm32l4xx_hal_spi.c ****   /* Calculate Timeout based on a software loop to avoid blocking issue if Systick is disabled */
3925:Drivers/STM32L4xx_HAL_Driver/Src/stm32l4xx_hal_spi.c ****   count = tmp_timeout * ((SystemCoreClock * 32U) >> 20U);
 7236              		.loc 1 3925 43
 7237 0026 394B     		ldr	r3, .L357
 7238 0028 1B68     		ldr	r3, [r3]
 7239 002a 5B01     		lsls	r3, r3, #5
 7240              		.loc 1 3925 50
 7241 002c 1B0D     		lsrs	r3, r3, #20
 7242              		.loc 1 3925 23
 7243 002e FA69     		ldr	r2, [r7, #28]
 7244 0030 02FB03F3 		mul	r3, r2, r3
 7245              		.loc 1 3925 9
 7246 0034 7B61     		str	r3, [r7, #20]
3926:Drivers/STM32L4xx_HAL_Driver/Src/stm32l4xx_hal_spi.c **** 
3927:Drivers/STM32L4xx_HAL_Driver/Src/stm32l4xx_hal_spi.c ****   while ((__HAL_SPI_GET_FLAG(hspi, Flag) ? SET : RESET) != State)
 7247              		.loc 1 3927 9
 7248 0036 54E0     		b	.L348
 7249              	.L356:
3928:Drivers/STM32L4xx_HAL_Driver/Src/stm32l4xx_hal_spi.c ****   {
3929:Drivers/STM32L4xx_HAL_Driver/Src/stm32l4xx_hal_spi.c ****     if (Timeout != HAL_MAX_DELAY)
 7250              		.loc 1 3929 8
 7251 0038 3B68     		ldr	r3, [r7]
 7252 003a B3F1FF3F 		cmp	r3, #-1
ARM GAS  C:\Users\Morroway\AppData\Local\Temp\ccCQJjHM.s 			page 196


 7253 003e 50D0     		beq	.L348
3930:Drivers/STM32L4xx_HAL_Driver/Src/stm32l4xx_hal_spi.c ****     {
3931:Drivers/STM32L4xx_HAL_Driver/Src/stm32l4xx_hal_spi.c ****       if (((HAL_GetTick() - tmp_tickstart) >= tmp_timeout) || (tmp_timeout == 0U))
 7254              		.loc 1 3931 13
 7255 0040 FFF7FEFF 		bl	HAL_GetTick
 7256 0044 0246     		mov	r2, r0
 7257              		.loc 1 3931 27
 7258 0046 BB69     		ldr	r3, [r7, #24]
 7259 0048 D31A     		subs	r3, r2, r3
 7260              		.loc 1 3931 10
 7261 004a FA69     		ldr	r2, [r7, #28]
 7262 004c 9A42     		cmp	r2, r3
 7263 004e 02D9     		bls	.L349
 7264              		.loc 1 3931 60 discriminator 1
 7265 0050 FB69     		ldr	r3, [r7, #28]
 7266 0052 002B     		cmp	r3, #0
 7267 0054 3DD1     		bne	.L350
 7268              	.L349:
3932:Drivers/STM32L4xx_HAL_Driver/Src/stm32l4xx_hal_spi.c ****       {
3933:Drivers/STM32L4xx_HAL_Driver/Src/stm32l4xx_hal_spi.c ****         /* Disable the SPI and reset the CRC: the CRC value should be cleared
3934:Drivers/STM32L4xx_HAL_Driver/Src/stm32l4xx_hal_spi.c ****            on both master and slave sides in order to resynchronize the master
3935:Drivers/STM32L4xx_HAL_Driver/Src/stm32l4xx_hal_spi.c ****            and slave for their respective CRC calculation */
3936:Drivers/STM32L4xx_HAL_Driver/Src/stm32l4xx_hal_spi.c **** 
3937:Drivers/STM32L4xx_HAL_Driver/Src/stm32l4xx_hal_spi.c ****         /* Disable TXE, RXNE and ERR interrupts for the interrupt process */
3938:Drivers/STM32L4xx_HAL_Driver/Src/stm32l4xx_hal_spi.c ****         __HAL_SPI_DISABLE_IT(hspi, (SPI_IT_TXE | SPI_IT_RXNE | SPI_IT_ERR));
 7269              		.loc 1 3938 9
 7270 0056 FB68     		ldr	r3, [r7, #12]
 7271 0058 1B68     		ldr	r3, [r3]
 7272 005a 5A68     		ldr	r2, [r3, #4]
 7273 005c FB68     		ldr	r3, [r7, #12]
 7274 005e 1B68     		ldr	r3, [r3]
 7275 0060 22F0E002 		bic	r2, r2, #224
 7276 0064 5A60     		str	r2, [r3, #4]
3939:Drivers/STM32L4xx_HAL_Driver/Src/stm32l4xx_hal_spi.c **** 
3940:Drivers/STM32L4xx_HAL_Driver/Src/stm32l4xx_hal_spi.c ****         if ((hspi->Init.Mode == SPI_MODE_MASTER) && ((hspi->Init.Direction == SPI_DIRECTION_1LINE)
 7277              		.loc 1 3940 24
 7278 0066 FB68     		ldr	r3, [r7, #12]
 7279 0068 5B68     		ldr	r3, [r3, #4]
 7280              		.loc 1 3940 12
 7281 006a B3F5827F 		cmp	r3, #260
 7282 006e 11D1     		bne	.L351
 7283              		.loc 1 3940 65 discriminator 1
 7284 0070 FB68     		ldr	r3, [r7, #12]
 7285 0072 9B68     		ldr	r3, [r3, #8]
 7286              		.loc 1 3940 50 discriminator 1
 7287 0074 B3F5004F 		cmp	r3, #32768
 7288 0078 04D0     		beq	.L352
3941:Drivers/STM32L4xx_HAL_Driver/Src/stm32l4xx_hal_spi.c ****                                                      || (hspi->Init.Direction == SPI_DIRECTION_2LIN
 7289              		.loc 1 3941 68
 7290 007a FB68     		ldr	r3, [r7, #12]
 7291 007c 9B68     		ldr	r3, [r3, #8]
 7292              		.loc 1 3941 54
 7293 007e B3F5806F 		cmp	r3, #1024
 7294 0082 07D1     		bne	.L351
 7295              	.L352:
3942:Drivers/STM32L4xx_HAL_Driver/Src/stm32l4xx_hal_spi.c ****         {
3943:Drivers/STM32L4xx_HAL_Driver/Src/stm32l4xx_hal_spi.c ****           /* Disable SPI peripheral */
ARM GAS  C:\Users\Morroway\AppData\Local\Temp\ccCQJjHM.s 			page 197


3944:Drivers/STM32L4xx_HAL_Driver/Src/stm32l4xx_hal_spi.c ****           __HAL_SPI_DISABLE(hspi);
 7296              		.loc 1 3944 11
 7297 0084 FB68     		ldr	r3, [r7, #12]
 7298 0086 1B68     		ldr	r3, [r3]
 7299 0088 1A68     		ldr	r2, [r3]
 7300 008a FB68     		ldr	r3, [r7, #12]
 7301 008c 1B68     		ldr	r3, [r3]
 7302 008e 22F04002 		bic	r2, r2, #64
 7303 0092 1A60     		str	r2, [r3]
 7304              	.L351:
3945:Drivers/STM32L4xx_HAL_Driver/Src/stm32l4xx_hal_spi.c ****         }
3946:Drivers/STM32L4xx_HAL_Driver/Src/stm32l4xx_hal_spi.c **** 
3947:Drivers/STM32L4xx_HAL_Driver/Src/stm32l4xx_hal_spi.c ****         /* Reset CRC Calculation */
3948:Drivers/STM32L4xx_HAL_Driver/Src/stm32l4xx_hal_spi.c ****         if (hspi->Init.CRCCalculation == SPI_CRCCALCULATION_ENABLE)
 7305              		.loc 1 3948 23
 7306 0094 FB68     		ldr	r3, [r7, #12]
 7307 0096 9B6A     		ldr	r3, [r3, #40]
 7308              		.loc 1 3948 12
 7309 0098 B3F5005F 		cmp	r3, #8192
 7310 009c 0FD1     		bne	.L353
3949:Drivers/STM32L4xx_HAL_Driver/Src/stm32l4xx_hal_spi.c ****         {
3950:Drivers/STM32L4xx_HAL_Driver/Src/stm32l4xx_hal_spi.c ****           SPI_RESET_CRC(hspi);
 7311              		.loc 1 3950 11
 7312 009e FB68     		ldr	r3, [r7, #12]
 7313 00a0 1B68     		ldr	r3, [r3]
 7314 00a2 1A68     		ldr	r2, [r3]
 7315 00a4 FB68     		ldr	r3, [r7, #12]
 7316 00a6 1B68     		ldr	r3, [r3]
 7317 00a8 22F40052 		bic	r2, r2, #8192
 7318 00ac 1A60     		str	r2, [r3]
 7319 00ae FB68     		ldr	r3, [r7, #12]
 7320 00b0 1B68     		ldr	r3, [r3]
 7321 00b2 1A68     		ldr	r2, [r3]
 7322 00b4 FB68     		ldr	r3, [r7, #12]
 7323 00b6 1B68     		ldr	r3, [r3]
 7324 00b8 42F40052 		orr	r2, r2, #8192
 7325 00bc 1A60     		str	r2, [r3]
 7326              	.L353:
3951:Drivers/STM32L4xx_HAL_Driver/Src/stm32l4xx_hal_spi.c ****         }
3952:Drivers/STM32L4xx_HAL_Driver/Src/stm32l4xx_hal_spi.c **** 
3953:Drivers/STM32L4xx_HAL_Driver/Src/stm32l4xx_hal_spi.c ****         hspi->State = HAL_SPI_STATE_READY;
 7327              		.loc 1 3953 21
 7328 00be FB68     		ldr	r3, [r7, #12]
 7329 00c0 0122     		movs	r2, #1
 7330 00c2 83F85D20 		strb	r2, [r3, #93]
3954:Drivers/STM32L4xx_HAL_Driver/Src/stm32l4xx_hal_spi.c **** 
3955:Drivers/STM32L4xx_HAL_Driver/Src/stm32l4xx_hal_spi.c ****         /* Process Unlocked */
3956:Drivers/STM32L4xx_HAL_Driver/Src/stm32l4xx_hal_spi.c ****         __HAL_UNLOCK(hspi);
 7331              		.loc 1 3956 9
 7332 00c6 FB68     		ldr	r3, [r7, #12]
 7333 00c8 0022     		movs	r2, #0
 7334 00ca 83F85C20 		strb	r2, [r3, #92]
3957:Drivers/STM32L4xx_HAL_Driver/Src/stm32l4xx_hal_spi.c **** 
3958:Drivers/STM32L4xx_HAL_Driver/Src/stm32l4xx_hal_spi.c ****         return HAL_TIMEOUT;
 7335              		.loc 1 3958 16
 7336 00ce 0323     		movs	r3, #3
 7337 00d0 17E0     		b	.L354
ARM GAS  C:\Users\Morroway\AppData\Local\Temp\ccCQJjHM.s 			page 198


 7338              	.L350:
3959:Drivers/STM32L4xx_HAL_Driver/Src/stm32l4xx_hal_spi.c ****       }
3960:Drivers/STM32L4xx_HAL_Driver/Src/stm32l4xx_hal_spi.c ****       /* If Systick is disabled or not incremented, deactivate timeout to go in disable loop proced
3961:Drivers/STM32L4xx_HAL_Driver/Src/stm32l4xx_hal_spi.c ****       if (count == 0U)
 7339              		.loc 1 3961 17
 7340 00d2 7B69     		ldr	r3, [r7, #20]
 7341              		.loc 1 3961 10
 7342 00d4 002B     		cmp	r3, #0
 7343 00d6 01D1     		bne	.L355
3962:Drivers/STM32L4xx_HAL_Driver/Src/stm32l4xx_hal_spi.c ****       {
3963:Drivers/STM32L4xx_HAL_Driver/Src/stm32l4xx_hal_spi.c ****         tmp_timeout = 0U;
 7344              		.loc 1 3963 21
 7345 00d8 0023     		movs	r3, #0
 7346 00da FB61     		str	r3, [r7, #28]
 7347              	.L355:
3964:Drivers/STM32L4xx_HAL_Driver/Src/stm32l4xx_hal_spi.c ****       }
3965:Drivers/STM32L4xx_HAL_Driver/Src/stm32l4xx_hal_spi.c ****       count--;
 7348              		.loc 1 3965 12
 7349 00dc 7B69     		ldr	r3, [r7, #20]
 7350 00de 013B     		subs	r3, r3, #1
 7351 00e0 7B61     		str	r3, [r7, #20]
 7352              	.L348:
3927:Drivers/STM32L4xx_HAL_Driver/Src/stm32l4xx_hal_spi.c ****   {
 7353              		.loc 1 3927 11
 7354 00e2 FB68     		ldr	r3, [r7, #12]
 7355 00e4 1B68     		ldr	r3, [r3]
 7356 00e6 9A68     		ldr	r2, [r3, #8]
 7357 00e8 BB68     		ldr	r3, [r7, #8]
 7358 00ea 1340     		ands	r3, r3, r2
3927:Drivers/STM32L4xx_HAL_Driver/Src/stm32l4xx_hal_spi.c ****   {
 7359              		.loc 1 3927 48
 7360 00ec BA68     		ldr	r2, [r7, #8]
 7361 00ee 9A42     		cmp	r2, r3
 7362 00f0 0CBF     		ite	eq
 7363 00f2 0123     		moveq	r3, #1
 7364 00f4 0023     		movne	r3, #0
 7365 00f6 DBB2     		uxtb	r3, r3
 7366 00f8 1A46     		mov	r2, r3
3927:Drivers/STM32L4xx_HAL_Driver/Src/stm32l4xx_hal_spi.c ****   {
 7367              		.loc 1 3927 57
 7368 00fa FB79     		ldrb	r3, [r7, #7]	@ zero_extendqisi2
 7369 00fc 9A42     		cmp	r2, r3
 7370 00fe 9BD1     		bne	.L356
3966:Drivers/STM32L4xx_HAL_Driver/Src/stm32l4xx_hal_spi.c ****     }
3967:Drivers/STM32L4xx_HAL_Driver/Src/stm32l4xx_hal_spi.c ****   }
3968:Drivers/STM32L4xx_HAL_Driver/Src/stm32l4xx_hal_spi.c **** 
3969:Drivers/STM32L4xx_HAL_Driver/Src/stm32l4xx_hal_spi.c ****   return HAL_OK;
 7371              		.loc 1 3969 10
 7372 0100 0023     		movs	r3, #0
 7373              	.L354:
3970:Drivers/STM32L4xx_HAL_Driver/Src/stm32l4xx_hal_spi.c **** }
 7374              		.loc 1 3970 1
 7375 0102 1846     		mov	r0, r3
 7376 0104 2037     		adds	r7, r7, #32
 7377              		.cfi_def_cfa_offset 8
 7378 0106 BD46     		mov	sp, r7
 7379              		.cfi_def_cfa_register 13
ARM GAS  C:\Users\Morroway\AppData\Local\Temp\ccCQJjHM.s 			page 199


 7380              		@ sp needed
 7381 0108 80BD     		pop	{r7, pc}
 7382              	.L358:
 7383 010a 00BF     		.align	2
 7384              	.L357:
 7385 010c 00000000 		.word	SystemCoreClock
 7386              		.cfi_endproc
 7387              	.LFE368:
 7389              		.section	.text.SPI_WaitFifoStateUntilTimeout,"ax",%progbits
 7390              		.align	1
 7391              		.syntax unified
 7392              		.thumb
 7393              		.thumb_func
 7395              	SPI_WaitFifoStateUntilTimeout:
 7396              	.LFB369:
3971:Drivers/STM32L4xx_HAL_Driver/Src/stm32l4xx_hal_spi.c **** 
3972:Drivers/STM32L4xx_HAL_Driver/Src/stm32l4xx_hal_spi.c **** /**
3973:Drivers/STM32L4xx_HAL_Driver/Src/stm32l4xx_hal_spi.c ****   * @brief  Handle SPI FIFO Communication Timeout.
3974:Drivers/STM32L4xx_HAL_Driver/Src/stm32l4xx_hal_spi.c ****   * @param  hspi pointer to a SPI_HandleTypeDef structure that contains
3975:Drivers/STM32L4xx_HAL_Driver/Src/stm32l4xx_hal_spi.c ****   *              the configuration information for SPI module.
3976:Drivers/STM32L4xx_HAL_Driver/Src/stm32l4xx_hal_spi.c ****   * @param  Fifo Fifo to check
3977:Drivers/STM32L4xx_HAL_Driver/Src/stm32l4xx_hal_spi.c ****   * @param  State Fifo state to check
3978:Drivers/STM32L4xx_HAL_Driver/Src/stm32l4xx_hal_spi.c ****   * @param  Timeout Timeout duration
3979:Drivers/STM32L4xx_HAL_Driver/Src/stm32l4xx_hal_spi.c ****   * @param  Tickstart tick start value
3980:Drivers/STM32L4xx_HAL_Driver/Src/stm32l4xx_hal_spi.c ****   * @retval HAL status
3981:Drivers/STM32L4xx_HAL_Driver/Src/stm32l4xx_hal_spi.c ****   */
3982:Drivers/STM32L4xx_HAL_Driver/Src/stm32l4xx_hal_spi.c **** static HAL_StatusTypeDef SPI_WaitFifoStateUntilTimeout(SPI_HandleTypeDef *hspi, uint32_t Fifo, uint
3983:Drivers/STM32L4xx_HAL_Driver/Src/stm32l4xx_hal_spi.c ****                                                        uint32_t Timeout, uint32_t Tickstart)
3984:Drivers/STM32L4xx_HAL_Driver/Src/stm32l4xx_hal_spi.c **** {
 7397              		.loc 1 3984 1
 7398              		.cfi_startproc
 7399              		@ args = 4, pretend = 0, frame = 40
 7400              		@ frame_needed = 1, uses_anonymous_args = 0
 7401 0000 80B5     		push	{r7, lr}
 7402              		.cfi_def_cfa_offset 8
 7403              		.cfi_offset 7, -8
 7404              		.cfi_offset 14, -4
 7405 0002 8AB0     		sub	sp, sp, #40
 7406              		.cfi_def_cfa_offset 48
 7407 0004 00AF     		add	r7, sp, #0
 7408              		.cfi_def_cfa_register 7
 7409 0006 F860     		str	r0, [r7, #12]
 7410 0008 B960     		str	r1, [r7, #8]
 7411 000a 7A60     		str	r2, [r7, #4]
 7412 000c 3B60     		str	r3, [r7]
3985:Drivers/STM32L4xx_HAL_Driver/Src/stm32l4xx_hal_spi.c ****   __IO uint32_t count;
3986:Drivers/STM32L4xx_HAL_Driver/Src/stm32l4xx_hal_spi.c ****   uint32_t tmp_timeout;
3987:Drivers/STM32L4xx_HAL_Driver/Src/stm32l4xx_hal_spi.c ****   uint32_t tmp_tickstart;
3988:Drivers/STM32L4xx_HAL_Driver/Src/stm32l4xx_hal_spi.c ****   __IO uint8_t  *ptmpreg8;
3989:Drivers/STM32L4xx_HAL_Driver/Src/stm32l4xx_hal_spi.c ****   __IO uint8_t  tmpreg8 = 0;
 7413              		.loc 1 3989 17
 7414 000e 0023     		movs	r3, #0
 7415 0010 FB75     		strb	r3, [r7, #23]
3990:Drivers/STM32L4xx_HAL_Driver/Src/stm32l4xx_hal_spi.c **** 
3991:Drivers/STM32L4xx_HAL_Driver/Src/stm32l4xx_hal_spi.c ****   /* Adjust Timeout value  in case of end of transfer */
3992:Drivers/STM32L4xx_HAL_Driver/Src/stm32l4xx_hal_spi.c ****   tmp_timeout = Timeout - (HAL_GetTick() - Tickstart);
 7416              		.loc 1 3992 28
ARM GAS  C:\Users\Morroway\AppData\Local\Temp\ccCQJjHM.s 			page 200


 7417 0012 FFF7FEFF 		bl	HAL_GetTick
 7418 0016 0246     		mov	r2, r0
 7419              		.loc 1 3992 42
 7420 0018 3B6B     		ldr	r3, [r7, #48]
 7421 001a 9B1A     		subs	r3, r3, r2
 7422              		.loc 1 3992 15
 7423 001c 3A68     		ldr	r2, [r7]
 7424 001e 1344     		add	r3, r3, r2
 7425 0020 7B62     		str	r3, [r7, #36]
3993:Drivers/STM32L4xx_HAL_Driver/Src/stm32l4xx_hal_spi.c ****   tmp_tickstart = HAL_GetTick();
 7426              		.loc 1 3993 19
 7427 0022 FFF7FEFF 		bl	HAL_GetTick
 7428 0026 3862     		str	r0, [r7, #32]
3994:Drivers/STM32L4xx_HAL_Driver/Src/stm32l4xx_hal_spi.c **** 
3995:Drivers/STM32L4xx_HAL_Driver/Src/stm32l4xx_hal_spi.c ****   /* Initialize the 8bit temporary pointer */
3996:Drivers/STM32L4xx_HAL_Driver/Src/stm32l4xx_hal_spi.c ****   ptmpreg8 = (__IO uint8_t *)&hspi->Instance->DR;
 7429              		.loc 1 3996 35
 7430 0028 FB68     		ldr	r3, [r7, #12]
 7431 002a 1B68     		ldr	r3, [r3]
 7432              		.loc 1 3996 12
 7433 002c 0C33     		adds	r3, r3, #12
 7434 002e FB61     		str	r3, [r7, #28]
3997:Drivers/STM32L4xx_HAL_Driver/Src/stm32l4xx_hal_spi.c **** 
3998:Drivers/STM32L4xx_HAL_Driver/Src/stm32l4xx_hal_spi.c ****   /* Calculate Timeout based on a software loop to avoid blocking issue if Systick is disabled */
3999:Drivers/STM32L4xx_HAL_Driver/Src/stm32l4xx_hal_spi.c ****   count = tmp_timeout * ((SystemCoreClock * 35U) >> 20U);
 7435              		.loc 1 3999 43
 7436 0030 3D4B     		ldr	r3, .L370
 7437 0032 1A68     		ldr	r2, [r3]
 7438 0034 1346     		mov	r3, r2
 7439 0036 9B00     		lsls	r3, r3, #2
 7440 0038 1344     		add	r3, r3, r2
 7441 003a DA00     		lsls	r2, r3, #3
 7442 003c D31A     		subs	r3, r2, r3
 7443              		.loc 1 3999 50
 7444 003e 1B0D     		lsrs	r3, r3, #20
 7445              		.loc 1 3999 23
 7446 0040 7A6A     		ldr	r2, [r7, #36]
 7447 0042 02FB03F3 		mul	r3, r2, r3
 7448              		.loc 1 3999 9
 7449 0046 BB61     		str	r3, [r7, #24]
4000:Drivers/STM32L4xx_HAL_Driver/Src/stm32l4xx_hal_spi.c **** 
4001:Drivers/STM32L4xx_HAL_Driver/Src/stm32l4xx_hal_spi.c ****   while ((hspi->Instance->SR & Fifo) != State)
 7450              		.loc 1 4001 9
 7451 0048 60E0     		b	.L360
 7452              	.L369:
4002:Drivers/STM32L4xx_HAL_Driver/Src/stm32l4xx_hal_spi.c ****   {
4003:Drivers/STM32L4xx_HAL_Driver/Src/stm32l4xx_hal_spi.c ****     if ((Fifo == SPI_SR_FRLVL) && (State == SPI_FRLVL_EMPTY))
 7453              		.loc 1 4003 8
 7454 004a BB68     		ldr	r3, [r7, #8]
 7455 004c B3F5C06F 		cmp	r3, #1536
 7456 0050 07D1     		bne	.L361
 7457              		.loc 1 4003 32 discriminator 1
 7458 0052 7B68     		ldr	r3, [r7, #4]
 7459 0054 002B     		cmp	r3, #0
 7460 0056 04D1     		bne	.L361
4004:Drivers/STM32L4xx_HAL_Driver/Src/stm32l4xx_hal_spi.c ****     {
4005:Drivers/STM32L4xx_HAL_Driver/Src/stm32l4xx_hal_spi.c ****       /* Flush Data Register by a blank read */
ARM GAS  C:\Users\Morroway\AppData\Local\Temp\ccCQJjHM.s 			page 201


4006:Drivers/STM32L4xx_HAL_Driver/Src/stm32l4xx_hal_spi.c ****       tmpreg8 = *ptmpreg8;
 7461              		.loc 1 4006 17
 7462 0058 FB69     		ldr	r3, [r7, #28]
 7463 005a 1B78     		ldrb	r3, [r3]
 7464 005c DBB2     		uxtb	r3, r3
 7465              		.loc 1 4006 15
 7466 005e FB75     		strb	r3, [r7, #23]
4007:Drivers/STM32L4xx_HAL_Driver/Src/stm32l4xx_hal_spi.c ****       /* To avoid GCC warning */
4008:Drivers/STM32L4xx_HAL_Driver/Src/stm32l4xx_hal_spi.c ****       UNUSED(tmpreg8);
 7467              		.loc 1 4008 7
 7468 0060 FB7D     		ldrb	r3, [r7, #23]
 7469              	.L361:
4009:Drivers/STM32L4xx_HAL_Driver/Src/stm32l4xx_hal_spi.c ****     }
4010:Drivers/STM32L4xx_HAL_Driver/Src/stm32l4xx_hal_spi.c **** 
4011:Drivers/STM32L4xx_HAL_Driver/Src/stm32l4xx_hal_spi.c ****     if (Timeout != HAL_MAX_DELAY)
 7470              		.loc 1 4011 8
 7471 0062 3B68     		ldr	r3, [r7]
 7472 0064 B3F1FF3F 		cmp	r3, #-1
 7473 0068 50D0     		beq	.L360
4012:Drivers/STM32L4xx_HAL_Driver/Src/stm32l4xx_hal_spi.c ****     {
4013:Drivers/STM32L4xx_HAL_Driver/Src/stm32l4xx_hal_spi.c ****       if (((HAL_GetTick() - tmp_tickstart) >= tmp_timeout) || (tmp_timeout == 0U))
 7474              		.loc 1 4013 13
 7475 006a FFF7FEFF 		bl	HAL_GetTick
 7476 006e 0246     		mov	r2, r0
 7477              		.loc 1 4013 27
 7478 0070 3B6A     		ldr	r3, [r7, #32]
 7479 0072 D31A     		subs	r3, r2, r3
 7480              		.loc 1 4013 10
 7481 0074 7A6A     		ldr	r2, [r7, #36]
 7482 0076 9A42     		cmp	r2, r3
 7483 0078 02D9     		bls	.L362
 7484              		.loc 1 4013 60 discriminator 1
 7485 007a 7B6A     		ldr	r3, [r7, #36]
 7486 007c 002B     		cmp	r3, #0
 7487 007e 3DD1     		bne	.L363
 7488              	.L362:
4014:Drivers/STM32L4xx_HAL_Driver/Src/stm32l4xx_hal_spi.c ****       {
4015:Drivers/STM32L4xx_HAL_Driver/Src/stm32l4xx_hal_spi.c ****         /* Disable the SPI and reset the CRC: the CRC value should be cleared
4016:Drivers/STM32L4xx_HAL_Driver/Src/stm32l4xx_hal_spi.c ****            on both master and slave sides in order to resynchronize the master
4017:Drivers/STM32L4xx_HAL_Driver/Src/stm32l4xx_hal_spi.c ****            and slave for their respective CRC calculation */
4018:Drivers/STM32L4xx_HAL_Driver/Src/stm32l4xx_hal_spi.c **** 
4019:Drivers/STM32L4xx_HAL_Driver/Src/stm32l4xx_hal_spi.c ****         /* Disable TXE, RXNE and ERR interrupts for the interrupt process */
4020:Drivers/STM32L4xx_HAL_Driver/Src/stm32l4xx_hal_spi.c ****         __HAL_SPI_DISABLE_IT(hspi, (SPI_IT_TXE | SPI_IT_RXNE | SPI_IT_ERR));
 7489              		.loc 1 4020 9
 7490 0080 FB68     		ldr	r3, [r7, #12]
 7491 0082 1B68     		ldr	r3, [r3]
 7492 0084 5A68     		ldr	r2, [r3, #4]
 7493 0086 FB68     		ldr	r3, [r7, #12]
 7494 0088 1B68     		ldr	r3, [r3]
 7495 008a 22F0E002 		bic	r2, r2, #224
 7496 008e 5A60     		str	r2, [r3, #4]
4021:Drivers/STM32L4xx_HAL_Driver/Src/stm32l4xx_hal_spi.c **** 
4022:Drivers/STM32L4xx_HAL_Driver/Src/stm32l4xx_hal_spi.c ****         if ((hspi->Init.Mode == SPI_MODE_MASTER) && ((hspi->Init.Direction == SPI_DIRECTION_1LINE)
 7497              		.loc 1 4022 24
 7498 0090 FB68     		ldr	r3, [r7, #12]
 7499 0092 5B68     		ldr	r3, [r3, #4]
 7500              		.loc 1 4022 12
ARM GAS  C:\Users\Morroway\AppData\Local\Temp\ccCQJjHM.s 			page 202


 7501 0094 B3F5827F 		cmp	r3, #260
 7502 0098 11D1     		bne	.L364
 7503              		.loc 1 4022 65 discriminator 1
 7504 009a FB68     		ldr	r3, [r7, #12]
 7505 009c 9B68     		ldr	r3, [r3, #8]
 7506              		.loc 1 4022 50 discriminator 1
 7507 009e B3F5004F 		cmp	r3, #32768
 7508 00a2 04D0     		beq	.L365
4023:Drivers/STM32L4xx_HAL_Driver/Src/stm32l4xx_hal_spi.c ****                                                      || (hspi->Init.Direction == SPI_DIRECTION_2LIN
 7509              		.loc 1 4023 68
 7510 00a4 FB68     		ldr	r3, [r7, #12]
 7511 00a6 9B68     		ldr	r3, [r3, #8]
 7512              		.loc 1 4023 54
 7513 00a8 B3F5806F 		cmp	r3, #1024
 7514 00ac 07D1     		bne	.L364
 7515              	.L365:
4024:Drivers/STM32L4xx_HAL_Driver/Src/stm32l4xx_hal_spi.c ****         {
4025:Drivers/STM32L4xx_HAL_Driver/Src/stm32l4xx_hal_spi.c ****           /* Disable SPI peripheral */
4026:Drivers/STM32L4xx_HAL_Driver/Src/stm32l4xx_hal_spi.c ****           __HAL_SPI_DISABLE(hspi);
 7516              		.loc 1 4026 11
 7517 00ae FB68     		ldr	r3, [r7, #12]
 7518 00b0 1B68     		ldr	r3, [r3]
 7519 00b2 1A68     		ldr	r2, [r3]
 7520 00b4 FB68     		ldr	r3, [r7, #12]
 7521 00b6 1B68     		ldr	r3, [r3]
 7522 00b8 22F04002 		bic	r2, r2, #64
 7523 00bc 1A60     		str	r2, [r3]
 7524              	.L364:
4027:Drivers/STM32L4xx_HAL_Driver/Src/stm32l4xx_hal_spi.c ****         }
4028:Drivers/STM32L4xx_HAL_Driver/Src/stm32l4xx_hal_spi.c **** 
4029:Drivers/STM32L4xx_HAL_Driver/Src/stm32l4xx_hal_spi.c ****         /* Reset CRC Calculation */
4030:Drivers/STM32L4xx_HAL_Driver/Src/stm32l4xx_hal_spi.c ****         if (hspi->Init.CRCCalculation == SPI_CRCCALCULATION_ENABLE)
 7525              		.loc 1 4030 23
 7526 00be FB68     		ldr	r3, [r7, #12]
 7527 00c0 9B6A     		ldr	r3, [r3, #40]
 7528              		.loc 1 4030 12
 7529 00c2 B3F5005F 		cmp	r3, #8192
 7530 00c6 0FD1     		bne	.L366
4031:Drivers/STM32L4xx_HAL_Driver/Src/stm32l4xx_hal_spi.c ****         {
4032:Drivers/STM32L4xx_HAL_Driver/Src/stm32l4xx_hal_spi.c ****           SPI_RESET_CRC(hspi);
 7531              		.loc 1 4032 11
 7532 00c8 FB68     		ldr	r3, [r7, #12]
 7533 00ca 1B68     		ldr	r3, [r3]
 7534 00cc 1A68     		ldr	r2, [r3]
 7535 00ce FB68     		ldr	r3, [r7, #12]
 7536 00d0 1B68     		ldr	r3, [r3]
 7537 00d2 22F40052 		bic	r2, r2, #8192
 7538 00d6 1A60     		str	r2, [r3]
 7539 00d8 FB68     		ldr	r3, [r7, #12]
 7540 00da 1B68     		ldr	r3, [r3]
 7541 00dc 1A68     		ldr	r2, [r3]
 7542 00de FB68     		ldr	r3, [r7, #12]
 7543 00e0 1B68     		ldr	r3, [r3]
 7544 00e2 42F40052 		orr	r2, r2, #8192
 7545 00e6 1A60     		str	r2, [r3]
 7546              	.L366:
4033:Drivers/STM32L4xx_HAL_Driver/Src/stm32l4xx_hal_spi.c ****         }
ARM GAS  C:\Users\Morroway\AppData\Local\Temp\ccCQJjHM.s 			page 203


4034:Drivers/STM32L4xx_HAL_Driver/Src/stm32l4xx_hal_spi.c **** 
4035:Drivers/STM32L4xx_HAL_Driver/Src/stm32l4xx_hal_spi.c ****         hspi->State = HAL_SPI_STATE_READY;
 7547              		.loc 1 4035 21
 7548 00e8 FB68     		ldr	r3, [r7, #12]
 7549 00ea 0122     		movs	r2, #1
 7550 00ec 83F85D20 		strb	r2, [r3, #93]
4036:Drivers/STM32L4xx_HAL_Driver/Src/stm32l4xx_hal_spi.c **** 
4037:Drivers/STM32L4xx_HAL_Driver/Src/stm32l4xx_hal_spi.c ****         /* Process Unlocked */
4038:Drivers/STM32L4xx_HAL_Driver/Src/stm32l4xx_hal_spi.c ****         __HAL_UNLOCK(hspi);
 7551              		.loc 1 4038 9
 7552 00f0 FB68     		ldr	r3, [r7, #12]
 7553 00f2 0022     		movs	r2, #0
 7554 00f4 83F85C20 		strb	r2, [r3, #92]
4039:Drivers/STM32L4xx_HAL_Driver/Src/stm32l4xx_hal_spi.c **** 
4040:Drivers/STM32L4xx_HAL_Driver/Src/stm32l4xx_hal_spi.c ****         return HAL_TIMEOUT;
 7555              		.loc 1 4040 16
 7556 00f8 0323     		movs	r3, #3
 7557 00fa 10E0     		b	.L367
 7558              	.L363:
4041:Drivers/STM32L4xx_HAL_Driver/Src/stm32l4xx_hal_spi.c ****       }
4042:Drivers/STM32L4xx_HAL_Driver/Src/stm32l4xx_hal_spi.c ****       /* If Systick is disabled or not incremented, deactivate timeout to go in disable loop proced
4043:Drivers/STM32L4xx_HAL_Driver/Src/stm32l4xx_hal_spi.c ****       if (count == 0U)
 7559              		.loc 1 4043 17
 7560 00fc BB69     		ldr	r3, [r7, #24]
 7561              		.loc 1 4043 10
 7562 00fe 002B     		cmp	r3, #0
 7563 0100 01D1     		bne	.L368
4044:Drivers/STM32L4xx_HAL_Driver/Src/stm32l4xx_hal_spi.c ****       {
4045:Drivers/STM32L4xx_HAL_Driver/Src/stm32l4xx_hal_spi.c ****         tmp_timeout = 0U;
 7564              		.loc 1 4045 21
 7565 0102 0023     		movs	r3, #0
 7566 0104 7B62     		str	r3, [r7, #36]
 7567              	.L368:
4046:Drivers/STM32L4xx_HAL_Driver/Src/stm32l4xx_hal_spi.c ****       }
4047:Drivers/STM32L4xx_HAL_Driver/Src/stm32l4xx_hal_spi.c ****       count--;
 7568              		.loc 1 4047 12
 7569 0106 BB69     		ldr	r3, [r7, #24]
 7570 0108 013B     		subs	r3, r3, #1
 7571 010a BB61     		str	r3, [r7, #24]
 7572              	.L360:
4001:Drivers/STM32L4xx_HAL_Driver/Src/stm32l4xx_hal_spi.c ****   {
 7573              		.loc 1 4001 15
 7574 010c FB68     		ldr	r3, [r7, #12]
 7575 010e 1B68     		ldr	r3, [r3]
4001:Drivers/STM32L4xx_HAL_Driver/Src/stm32l4xx_hal_spi.c ****   {
 7576              		.loc 1 4001 25
 7577 0110 9A68     		ldr	r2, [r3, #8]
4001:Drivers/STM32L4xx_HAL_Driver/Src/stm32l4xx_hal_spi.c ****   {
 7578              		.loc 1 4001 30
 7579 0112 BB68     		ldr	r3, [r7, #8]
 7580 0114 1340     		ands	r3, r3, r2
4001:Drivers/STM32L4xx_HAL_Driver/Src/stm32l4xx_hal_spi.c ****   {
 7581              		.loc 1 4001 38
 7582 0116 7A68     		ldr	r2, [r7, #4]
 7583 0118 9A42     		cmp	r2, r3
 7584 011a 96D1     		bne	.L369
4048:Drivers/STM32L4xx_HAL_Driver/Src/stm32l4xx_hal_spi.c ****     }
ARM GAS  C:\Users\Morroway\AppData\Local\Temp\ccCQJjHM.s 			page 204


4049:Drivers/STM32L4xx_HAL_Driver/Src/stm32l4xx_hal_spi.c ****   }
4050:Drivers/STM32L4xx_HAL_Driver/Src/stm32l4xx_hal_spi.c **** 
4051:Drivers/STM32L4xx_HAL_Driver/Src/stm32l4xx_hal_spi.c ****   return HAL_OK;
 7585              		.loc 1 4051 10
 7586 011c 0023     		movs	r3, #0
 7587              	.L367:
4052:Drivers/STM32L4xx_HAL_Driver/Src/stm32l4xx_hal_spi.c **** }
 7588              		.loc 1 4052 1
 7589 011e 1846     		mov	r0, r3
 7590 0120 2837     		adds	r7, r7, #40
 7591              		.cfi_def_cfa_offset 8
 7592 0122 BD46     		mov	sp, r7
 7593              		.cfi_def_cfa_register 13
 7594              		@ sp needed
 7595 0124 80BD     		pop	{r7, pc}
 7596              	.L371:
 7597 0126 00BF     		.align	2
 7598              	.L370:
 7599 0128 00000000 		.word	SystemCoreClock
 7600              		.cfi_endproc
 7601              	.LFE369:
 7603              		.section	.text.SPI_EndRxTransaction,"ax",%progbits
 7604              		.align	1
 7605              		.syntax unified
 7606              		.thumb
 7607              		.thumb_func
 7609              	SPI_EndRxTransaction:
 7610              	.LFB370:
4053:Drivers/STM32L4xx_HAL_Driver/Src/stm32l4xx_hal_spi.c **** 
4054:Drivers/STM32L4xx_HAL_Driver/Src/stm32l4xx_hal_spi.c **** /**
4055:Drivers/STM32L4xx_HAL_Driver/Src/stm32l4xx_hal_spi.c ****   * @brief  Handle the check of the RX transaction complete.
4056:Drivers/STM32L4xx_HAL_Driver/Src/stm32l4xx_hal_spi.c ****   * @param  hspi pointer to a SPI_HandleTypeDef structure that contains
4057:Drivers/STM32L4xx_HAL_Driver/Src/stm32l4xx_hal_spi.c ****   *               the configuration information for SPI module.
4058:Drivers/STM32L4xx_HAL_Driver/Src/stm32l4xx_hal_spi.c ****   * @param  Timeout Timeout duration
4059:Drivers/STM32L4xx_HAL_Driver/Src/stm32l4xx_hal_spi.c ****   * @param  Tickstart tick start value
4060:Drivers/STM32L4xx_HAL_Driver/Src/stm32l4xx_hal_spi.c ****   * @retval HAL status
4061:Drivers/STM32L4xx_HAL_Driver/Src/stm32l4xx_hal_spi.c ****   */
4062:Drivers/STM32L4xx_HAL_Driver/Src/stm32l4xx_hal_spi.c **** static HAL_StatusTypeDef SPI_EndRxTransaction(SPI_HandleTypeDef *hspi,  uint32_t Timeout, uint32_t 
4063:Drivers/STM32L4xx_HAL_Driver/Src/stm32l4xx_hal_spi.c **** {
 7611              		.loc 1 4063 1
 7612              		.cfi_startproc
 7613              		@ args = 0, pretend = 0, frame = 16
 7614              		@ frame_needed = 1, uses_anonymous_args = 0
 7615 0000 80B5     		push	{r7, lr}
 7616              		.cfi_def_cfa_offset 8
 7617              		.cfi_offset 7, -8
 7618              		.cfi_offset 14, -4
 7619 0002 86B0     		sub	sp, sp, #24
 7620              		.cfi_def_cfa_offset 32
 7621 0004 02AF     		add	r7, sp, #8
 7622              		.cfi_def_cfa 7, 24
 7623 0006 F860     		str	r0, [r7, #12]
 7624 0008 B960     		str	r1, [r7, #8]
 7625 000a 7A60     		str	r2, [r7, #4]
4064:Drivers/STM32L4xx_HAL_Driver/Src/stm32l4xx_hal_spi.c ****   if ((hspi->Init.Mode == SPI_MODE_MASTER) && ((hspi->Init.Direction == SPI_DIRECTION_1LINE)
 7626              		.loc 1 4064 18
 7627 000c FB68     		ldr	r3, [r7, #12]
ARM GAS  C:\Users\Morroway\AppData\Local\Temp\ccCQJjHM.s 			page 205


 7628 000e 5B68     		ldr	r3, [r3, #4]
 7629              		.loc 1 4064 6
 7630 0010 B3F5827F 		cmp	r3, #260
 7631 0014 11D1     		bne	.L373
 7632              		.loc 1 4064 59 discriminator 1
 7633 0016 FB68     		ldr	r3, [r7, #12]
 7634 0018 9B68     		ldr	r3, [r3, #8]
 7635              		.loc 1 4064 44 discriminator 1
 7636 001a B3F5004F 		cmp	r3, #32768
 7637 001e 04D0     		beq	.L374
4065:Drivers/STM32L4xx_HAL_Driver/Src/stm32l4xx_hal_spi.c ****                                                || (hspi->Init.Direction == SPI_DIRECTION_2LINES_RXO
 7638              		.loc 1 4065 62
 7639 0020 FB68     		ldr	r3, [r7, #12]
 7640 0022 9B68     		ldr	r3, [r3, #8]
 7641              		.loc 1 4065 48
 7642 0024 B3F5806F 		cmp	r3, #1024
 7643 0028 07D1     		bne	.L373
 7644              	.L374:
4066:Drivers/STM32L4xx_HAL_Driver/Src/stm32l4xx_hal_spi.c ****   {
4067:Drivers/STM32L4xx_HAL_Driver/Src/stm32l4xx_hal_spi.c ****     /* Disable SPI peripheral */
4068:Drivers/STM32L4xx_HAL_Driver/Src/stm32l4xx_hal_spi.c ****     __HAL_SPI_DISABLE(hspi);
 7645              		.loc 1 4068 5
 7646 002a FB68     		ldr	r3, [r7, #12]
 7647 002c 1B68     		ldr	r3, [r3]
 7648 002e 1A68     		ldr	r2, [r3]
 7649 0030 FB68     		ldr	r3, [r7, #12]
 7650 0032 1B68     		ldr	r3, [r3]
 7651 0034 22F04002 		bic	r2, r2, #64
 7652 0038 1A60     		str	r2, [r3]
 7653              	.L373:
4069:Drivers/STM32L4xx_HAL_Driver/Src/stm32l4xx_hal_spi.c ****   }
4070:Drivers/STM32L4xx_HAL_Driver/Src/stm32l4xx_hal_spi.c **** 
4071:Drivers/STM32L4xx_HAL_Driver/Src/stm32l4xx_hal_spi.c ****   /* Control the BSY flag */
4072:Drivers/STM32L4xx_HAL_Driver/Src/stm32l4xx_hal_spi.c ****   if (SPI_WaitFlagStateUntilTimeout(hspi, SPI_FLAG_BSY, RESET, Timeout, Tickstart) != HAL_OK)
 7654              		.loc 1 4072 7
 7655 003a 7B68     		ldr	r3, [r7, #4]
 7656 003c 0093     		str	r3, [sp]
 7657 003e BB68     		ldr	r3, [r7, #8]
 7658 0040 0022     		movs	r2, #0
 7659 0042 8021     		movs	r1, #128
 7660 0044 F868     		ldr	r0, [r7, #12]
 7661 0046 FFF7FEFF 		bl	SPI_WaitFlagStateUntilTimeout
 7662 004a 0346     		mov	r3, r0
 7663              		.loc 1 4072 6
 7664 004c 002B     		cmp	r3, #0
 7665 004e 07D0     		beq	.L375
4073:Drivers/STM32L4xx_HAL_Driver/Src/stm32l4xx_hal_spi.c ****   {
4074:Drivers/STM32L4xx_HAL_Driver/Src/stm32l4xx_hal_spi.c ****     SET_BIT(hspi->ErrorCode, HAL_SPI_ERROR_FLAG);
 7666              		.loc 1 4074 5
 7667 0050 FB68     		ldr	r3, [r7, #12]
 7668 0052 1B6E     		ldr	r3, [r3, #96]
 7669 0054 43F02002 		orr	r2, r3, #32
 7670 0058 FB68     		ldr	r3, [r7, #12]
 7671 005a 1A66     		str	r2, [r3, #96]
4075:Drivers/STM32L4xx_HAL_Driver/Src/stm32l4xx_hal_spi.c ****     return HAL_TIMEOUT;
 7672              		.loc 1 4075 12
 7673 005c 0323     		movs	r3, #3
ARM GAS  C:\Users\Morroway\AppData\Local\Temp\ccCQJjHM.s 			page 206


 7674 005e 23E0     		b	.L376
 7675              	.L375:
4076:Drivers/STM32L4xx_HAL_Driver/Src/stm32l4xx_hal_spi.c ****   }
4077:Drivers/STM32L4xx_HAL_Driver/Src/stm32l4xx_hal_spi.c **** 
4078:Drivers/STM32L4xx_HAL_Driver/Src/stm32l4xx_hal_spi.c ****   if ((hspi->Init.Mode == SPI_MODE_MASTER) && ((hspi->Init.Direction == SPI_DIRECTION_1LINE)
 7676              		.loc 1 4078 18
 7677 0060 FB68     		ldr	r3, [r7, #12]
 7678 0062 5B68     		ldr	r3, [r3, #4]
 7679              		.loc 1 4078 6
 7680 0064 B3F5827F 		cmp	r3, #260
 7681 0068 1DD1     		bne	.L377
 7682              		.loc 1 4078 59 discriminator 1
 7683 006a FB68     		ldr	r3, [r7, #12]
 7684 006c 9B68     		ldr	r3, [r3, #8]
 7685              		.loc 1 4078 44 discriminator 1
 7686 006e B3F5004F 		cmp	r3, #32768
 7687 0072 04D0     		beq	.L378
4079:Drivers/STM32L4xx_HAL_Driver/Src/stm32l4xx_hal_spi.c ****                                                || (hspi->Init.Direction == SPI_DIRECTION_2LINES_RXO
 7688              		.loc 1 4079 62
 7689 0074 FB68     		ldr	r3, [r7, #12]
 7690 0076 9B68     		ldr	r3, [r3, #8]
 7691              		.loc 1 4079 48
 7692 0078 B3F5806F 		cmp	r3, #1024
 7693 007c 13D1     		bne	.L377
 7694              	.L378:
4080:Drivers/STM32L4xx_HAL_Driver/Src/stm32l4xx_hal_spi.c ****   {
4081:Drivers/STM32L4xx_HAL_Driver/Src/stm32l4xx_hal_spi.c ****     /* Empty the FRLVL fifo */
4082:Drivers/STM32L4xx_HAL_Driver/Src/stm32l4xx_hal_spi.c ****     if (SPI_WaitFifoStateUntilTimeout(hspi, SPI_FLAG_FRLVL, SPI_FRLVL_EMPTY, Timeout, Tickstart) !=
 7695              		.loc 1 4082 9
 7696 007e 7B68     		ldr	r3, [r7, #4]
 7697 0080 0093     		str	r3, [sp]
 7698 0082 BB68     		ldr	r3, [r7, #8]
 7699 0084 0022     		movs	r2, #0
 7700 0086 4FF4C061 		mov	r1, #1536
 7701 008a F868     		ldr	r0, [r7, #12]
 7702 008c FFF7FEFF 		bl	SPI_WaitFifoStateUntilTimeout
 7703 0090 0346     		mov	r3, r0
 7704              		.loc 1 4082 8
 7705 0092 002B     		cmp	r3, #0
 7706 0094 07D0     		beq	.L377
4083:Drivers/STM32L4xx_HAL_Driver/Src/stm32l4xx_hal_spi.c ****     {
4084:Drivers/STM32L4xx_HAL_Driver/Src/stm32l4xx_hal_spi.c ****       SET_BIT(hspi->ErrorCode, HAL_SPI_ERROR_FLAG);
 7707              		.loc 1 4084 7
 7708 0096 FB68     		ldr	r3, [r7, #12]
 7709 0098 1B6E     		ldr	r3, [r3, #96]
 7710 009a 43F02002 		orr	r2, r3, #32
 7711 009e FB68     		ldr	r3, [r7, #12]
 7712 00a0 1A66     		str	r2, [r3, #96]
4085:Drivers/STM32L4xx_HAL_Driver/Src/stm32l4xx_hal_spi.c ****       return HAL_TIMEOUT;
 7713              		.loc 1 4085 14
 7714 00a2 0323     		movs	r3, #3
 7715 00a4 00E0     		b	.L376
 7716              	.L377:
4086:Drivers/STM32L4xx_HAL_Driver/Src/stm32l4xx_hal_spi.c ****     }
4087:Drivers/STM32L4xx_HAL_Driver/Src/stm32l4xx_hal_spi.c ****   }
4088:Drivers/STM32L4xx_HAL_Driver/Src/stm32l4xx_hal_spi.c ****   return HAL_OK;
 7717              		.loc 1 4088 10
ARM GAS  C:\Users\Morroway\AppData\Local\Temp\ccCQJjHM.s 			page 207


 7718 00a6 0023     		movs	r3, #0
 7719              	.L376:
4089:Drivers/STM32L4xx_HAL_Driver/Src/stm32l4xx_hal_spi.c **** }
 7720              		.loc 1 4089 1
 7721 00a8 1846     		mov	r0, r3
 7722 00aa 1037     		adds	r7, r7, #16
 7723              		.cfi_def_cfa_offset 8
 7724 00ac BD46     		mov	sp, r7
 7725              		.cfi_def_cfa_register 13
 7726              		@ sp needed
 7727 00ae 80BD     		pop	{r7, pc}
 7728              		.cfi_endproc
 7729              	.LFE370:
 7731              		.section	.text.SPI_EndRxTxTransaction,"ax",%progbits
 7732              		.align	1
 7733              		.syntax unified
 7734              		.thumb
 7735              		.thumb_func
 7737              	SPI_EndRxTxTransaction:
 7738              	.LFB371:
4090:Drivers/STM32L4xx_HAL_Driver/Src/stm32l4xx_hal_spi.c **** 
4091:Drivers/STM32L4xx_HAL_Driver/Src/stm32l4xx_hal_spi.c **** /**
4092:Drivers/STM32L4xx_HAL_Driver/Src/stm32l4xx_hal_spi.c ****   * @brief  Handle the check of the RXTX or TX transaction complete.
4093:Drivers/STM32L4xx_HAL_Driver/Src/stm32l4xx_hal_spi.c ****   * @param  hspi SPI handle
4094:Drivers/STM32L4xx_HAL_Driver/Src/stm32l4xx_hal_spi.c ****   * @param  Timeout Timeout duration
4095:Drivers/STM32L4xx_HAL_Driver/Src/stm32l4xx_hal_spi.c ****   * @param  Tickstart tick start value
4096:Drivers/STM32L4xx_HAL_Driver/Src/stm32l4xx_hal_spi.c ****   * @retval HAL status
4097:Drivers/STM32L4xx_HAL_Driver/Src/stm32l4xx_hal_spi.c ****   */
4098:Drivers/STM32L4xx_HAL_Driver/Src/stm32l4xx_hal_spi.c **** static HAL_StatusTypeDef SPI_EndRxTxTransaction(SPI_HandleTypeDef *hspi, uint32_t Timeout, uint32_t
4099:Drivers/STM32L4xx_HAL_Driver/Src/stm32l4xx_hal_spi.c **** {
 7739              		.loc 1 4099 1
 7740              		.cfi_startproc
 7741              		@ args = 0, pretend = 0, frame = 16
 7742              		@ frame_needed = 1, uses_anonymous_args = 0
 7743 0000 80B5     		push	{r7, lr}
 7744              		.cfi_def_cfa_offset 8
 7745              		.cfi_offset 7, -8
 7746              		.cfi_offset 14, -4
 7747 0002 86B0     		sub	sp, sp, #24
 7748              		.cfi_def_cfa_offset 32
 7749 0004 02AF     		add	r7, sp, #8
 7750              		.cfi_def_cfa 7, 24
 7751 0006 F860     		str	r0, [r7, #12]
 7752 0008 B960     		str	r1, [r7, #8]
 7753 000a 7A60     		str	r2, [r7, #4]
4100:Drivers/STM32L4xx_HAL_Driver/Src/stm32l4xx_hal_spi.c ****   /* Control if the TX fifo is empty */
4101:Drivers/STM32L4xx_HAL_Driver/Src/stm32l4xx_hal_spi.c ****   if (SPI_WaitFifoStateUntilTimeout(hspi, SPI_FLAG_FTLVL, SPI_FTLVL_EMPTY, Timeout, Tickstart) != H
 7754              		.loc 1 4101 7
 7755 000c 7B68     		ldr	r3, [r7, #4]
 7756 000e 0093     		str	r3, [sp]
 7757 0010 BB68     		ldr	r3, [r7, #8]
 7758 0012 0022     		movs	r2, #0
 7759 0014 4FF4C051 		mov	r1, #6144
 7760 0018 F868     		ldr	r0, [r7, #12]
 7761 001a FFF7FEFF 		bl	SPI_WaitFifoStateUntilTimeout
 7762 001e 0346     		mov	r3, r0
 7763              		.loc 1 4101 6
ARM GAS  C:\Users\Morroway\AppData\Local\Temp\ccCQJjHM.s 			page 208


 7764 0020 002B     		cmp	r3, #0
 7765 0022 07D0     		beq	.L380
4102:Drivers/STM32L4xx_HAL_Driver/Src/stm32l4xx_hal_spi.c ****   {
4103:Drivers/STM32L4xx_HAL_Driver/Src/stm32l4xx_hal_spi.c ****     SET_BIT(hspi->ErrorCode, HAL_SPI_ERROR_FLAG);
 7766              		.loc 1 4103 5
 7767 0024 FB68     		ldr	r3, [r7, #12]
 7768 0026 1B6E     		ldr	r3, [r3, #96]
 7769 0028 43F02002 		orr	r2, r3, #32
 7770 002c FB68     		ldr	r3, [r7, #12]
 7771 002e 1A66     		str	r2, [r3, #96]
4104:Drivers/STM32L4xx_HAL_Driver/Src/stm32l4xx_hal_spi.c ****     return HAL_TIMEOUT;
 7772              		.loc 1 4104 12
 7773 0030 0323     		movs	r3, #3
 7774 0032 27E0     		b	.L381
 7775              	.L380:
4105:Drivers/STM32L4xx_HAL_Driver/Src/stm32l4xx_hal_spi.c ****   }
4106:Drivers/STM32L4xx_HAL_Driver/Src/stm32l4xx_hal_spi.c **** 
4107:Drivers/STM32L4xx_HAL_Driver/Src/stm32l4xx_hal_spi.c ****   /* Control the BSY flag */
4108:Drivers/STM32L4xx_HAL_Driver/Src/stm32l4xx_hal_spi.c ****   if (SPI_WaitFlagStateUntilTimeout(hspi, SPI_FLAG_BSY, RESET, Timeout, Tickstart) != HAL_OK)
 7776              		.loc 1 4108 7
 7777 0034 7B68     		ldr	r3, [r7, #4]
 7778 0036 0093     		str	r3, [sp]
 7779 0038 BB68     		ldr	r3, [r7, #8]
 7780 003a 0022     		movs	r2, #0
 7781 003c 8021     		movs	r1, #128
 7782 003e F868     		ldr	r0, [r7, #12]
 7783 0040 FFF7FEFF 		bl	SPI_WaitFlagStateUntilTimeout
 7784 0044 0346     		mov	r3, r0
 7785              		.loc 1 4108 6
 7786 0046 002B     		cmp	r3, #0
 7787 0048 07D0     		beq	.L382
4109:Drivers/STM32L4xx_HAL_Driver/Src/stm32l4xx_hal_spi.c ****   {
4110:Drivers/STM32L4xx_HAL_Driver/Src/stm32l4xx_hal_spi.c ****     SET_BIT(hspi->ErrorCode, HAL_SPI_ERROR_FLAG);
 7788              		.loc 1 4110 5
 7789 004a FB68     		ldr	r3, [r7, #12]
 7790 004c 1B6E     		ldr	r3, [r3, #96]
 7791 004e 43F02002 		orr	r2, r3, #32
 7792 0052 FB68     		ldr	r3, [r7, #12]
 7793 0054 1A66     		str	r2, [r3, #96]
4111:Drivers/STM32L4xx_HAL_Driver/Src/stm32l4xx_hal_spi.c ****     return HAL_TIMEOUT;
 7794              		.loc 1 4111 12
 7795 0056 0323     		movs	r3, #3
 7796 0058 14E0     		b	.L381
 7797              	.L382:
4112:Drivers/STM32L4xx_HAL_Driver/Src/stm32l4xx_hal_spi.c ****   }
4113:Drivers/STM32L4xx_HAL_Driver/Src/stm32l4xx_hal_spi.c **** 
4114:Drivers/STM32L4xx_HAL_Driver/Src/stm32l4xx_hal_spi.c ****   /* Control if the RX fifo is empty */
4115:Drivers/STM32L4xx_HAL_Driver/Src/stm32l4xx_hal_spi.c ****   if (SPI_WaitFifoStateUntilTimeout(hspi, SPI_FLAG_FRLVL, SPI_FRLVL_EMPTY, Timeout, Tickstart) != H
 7798              		.loc 1 4115 7
 7799 005a 7B68     		ldr	r3, [r7, #4]
 7800 005c 0093     		str	r3, [sp]
 7801 005e BB68     		ldr	r3, [r7, #8]
 7802 0060 0022     		movs	r2, #0
 7803 0062 4FF4C061 		mov	r1, #1536
 7804 0066 F868     		ldr	r0, [r7, #12]
 7805 0068 FFF7FEFF 		bl	SPI_WaitFifoStateUntilTimeout
 7806 006c 0346     		mov	r3, r0
ARM GAS  C:\Users\Morroway\AppData\Local\Temp\ccCQJjHM.s 			page 209


 7807              		.loc 1 4115 6
 7808 006e 002B     		cmp	r3, #0
 7809 0070 07D0     		beq	.L383
4116:Drivers/STM32L4xx_HAL_Driver/Src/stm32l4xx_hal_spi.c ****   {
4117:Drivers/STM32L4xx_HAL_Driver/Src/stm32l4xx_hal_spi.c ****     SET_BIT(hspi->ErrorCode, HAL_SPI_ERROR_FLAG);
 7810              		.loc 1 4117 5
 7811 0072 FB68     		ldr	r3, [r7, #12]
 7812 0074 1B6E     		ldr	r3, [r3, #96]
 7813 0076 43F02002 		orr	r2, r3, #32
 7814 007a FB68     		ldr	r3, [r7, #12]
 7815 007c 1A66     		str	r2, [r3, #96]
4118:Drivers/STM32L4xx_HAL_Driver/Src/stm32l4xx_hal_spi.c ****     return HAL_TIMEOUT;
 7816              		.loc 1 4118 12
 7817 007e 0323     		movs	r3, #3
 7818 0080 00E0     		b	.L381
 7819              	.L383:
4119:Drivers/STM32L4xx_HAL_Driver/Src/stm32l4xx_hal_spi.c ****   }
4120:Drivers/STM32L4xx_HAL_Driver/Src/stm32l4xx_hal_spi.c **** 
4121:Drivers/STM32L4xx_HAL_Driver/Src/stm32l4xx_hal_spi.c ****   return HAL_OK;
 7820              		.loc 1 4121 10
 7821 0082 0023     		movs	r3, #0
 7822              	.L381:
4122:Drivers/STM32L4xx_HAL_Driver/Src/stm32l4xx_hal_spi.c **** }
 7823              		.loc 1 4122 1
 7824 0084 1846     		mov	r0, r3
 7825 0086 1037     		adds	r7, r7, #16
 7826              		.cfi_def_cfa_offset 8
 7827 0088 BD46     		mov	sp, r7
 7828              		.cfi_def_cfa_register 13
 7829              		@ sp needed
 7830 008a 80BD     		pop	{r7, pc}
 7831              		.cfi_endproc
 7832              	.LFE371:
 7834              		.section	.text.SPI_CloseRxTx_ISR,"ax",%progbits
 7835              		.align	1
 7836              		.syntax unified
 7837              		.thumb
 7838              		.thumb_func
 7840              	SPI_CloseRxTx_ISR:
 7841              	.LFB372:
4123:Drivers/STM32L4xx_HAL_Driver/Src/stm32l4xx_hal_spi.c **** 
4124:Drivers/STM32L4xx_HAL_Driver/Src/stm32l4xx_hal_spi.c **** /**
4125:Drivers/STM32L4xx_HAL_Driver/Src/stm32l4xx_hal_spi.c ****   * @brief  Handle the end of the RXTX transaction.
4126:Drivers/STM32L4xx_HAL_Driver/Src/stm32l4xx_hal_spi.c ****   * @param  hspi pointer to a SPI_HandleTypeDef structure that contains
4127:Drivers/STM32L4xx_HAL_Driver/Src/stm32l4xx_hal_spi.c ****   *               the configuration information for SPI module.
4128:Drivers/STM32L4xx_HAL_Driver/Src/stm32l4xx_hal_spi.c ****   * @retval None
4129:Drivers/STM32L4xx_HAL_Driver/Src/stm32l4xx_hal_spi.c ****   */
4130:Drivers/STM32L4xx_HAL_Driver/Src/stm32l4xx_hal_spi.c **** static void SPI_CloseRxTx_ISR(SPI_HandleTypeDef *hspi)
4131:Drivers/STM32L4xx_HAL_Driver/Src/stm32l4xx_hal_spi.c **** {
 7842              		.loc 1 4131 1
 7843              		.cfi_startproc
 7844              		@ args = 0, pretend = 0, frame = 16
 7845              		@ frame_needed = 1, uses_anonymous_args = 0
 7846 0000 80B5     		push	{r7, lr}
 7847              		.cfi_def_cfa_offset 8
 7848              		.cfi_offset 7, -8
 7849              		.cfi_offset 14, -4
ARM GAS  C:\Users\Morroway\AppData\Local\Temp\ccCQJjHM.s 			page 210


 7850 0002 84B0     		sub	sp, sp, #16
 7851              		.cfi_def_cfa_offset 24
 7852 0004 00AF     		add	r7, sp, #0
 7853              		.cfi_def_cfa_register 7
 7854 0006 7860     		str	r0, [r7, #4]
4132:Drivers/STM32L4xx_HAL_Driver/Src/stm32l4xx_hal_spi.c ****   uint32_t tickstart;
4133:Drivers/STM32L4xx_HAL_Driver/Src/stm32l4xx_hal_spi.c **** 
4134:Drivers/STM32L4xx_HAL_Driver/Src/stm32l4xx_hal_spi.c ****   /* Init tickstart for timeout management */
4135:Drivers/STM32L4xx_HAL_Driver/Src/stm32l4xx_hal_spi.c ****   tickstart = HAL_GetTick();
 7855              		.loc 1 4135 15
 7856 0008 FFF7FEFF 		bl	HAL_GetTick
 7857 000c F860     		str	r0, [r7, #12]
4136:Drivers/STM32L4xx_HAL_Driver/Src/stm32l4xx_hal_spi.c **** 
4137:Drivers/STM32L4xx_HAL_Driver/Src/stm32l4xx_hal_spi.c ****   /* Disable ERR interrupt */
4138:Drivers/STM32L4xx_HAL_Driver/Src/stm32l4xx_hal_spi.c ****   __HAL_SPI_DISABLE_IT(hspi, SPI_IT_ERR);
 7858              		.loc 1 4138 3
 7859 000e 7B68     		ldr	r3, [r7, #4]
 7860 0010 1B68     		ldr	r3, [r3]
 7861 0012 5A68     		ldr	r2, [r3, #4]
 7862 0014 7B68     		ldr	r3, [r7, #4]
 7863 0016 1B68     		ldr	r3, [r3]
 7864 0018 22F02002 		bic	r2, r2, #32
 7865 001c 5A60     		str	r2, [r3, #4]
4139:Drivers/STM32L4xx_HAL_Driver/Src/stm32l4xx_hal_spi.c **** 
4140:Drivers/STM32L4xx_HAL_Driver/Src/stm32l4xx_hal_spi.c ****   /* Check the end of the transaction */
4141:Drivers/STM32L4xx_HAL_Driver/Src/stm32l4xx_hal_spi.c ****   if (SPI_EndRxTxTransaction(hspi, SPI_DEFAULT_TIMEOUT, tickstart) != HAL_OK)
 7866              		.loc 1 4141 7
 7867 001e FA68     		ldr	r2, [r7, #12]
 7868 0020 6421     		movs	r1, #100
 7869 0022 7868     		ldr	r0, [r7, #4]
 7870 0024 FFF7FEFF 		bl	SPI_EndRxTxTransaction
 7871 0028 0346     		mov	r3, r0
 7872              		.loc 1 4141 6
 7873 002a 002B     		cmp	r3, #0
 7874 002c 05D0     		beq	.L385
4142:Drivers/STM32L4xx_HAL_Driver/Src/stm32l4xx_hal_spi.c ****   {
4143:Drivers/STM32L4xx_HAL_Driver/Src/stm32l4xx_hal_spi.c ****     SET_BIT(hspi->ErrorCode, HAL_SPI_ERROR_FLAG);
 7875              		.loc 1 4143 5
 7876 002e 7B68     		ldr	r3, [r7, #4]
 7877 0030 1B6E     		ldr	r3, [r3, #96]
 7878 0032 43F02002 		orr	r2, r3, #32
 7879 0036 7B68     		ldr	r3, [r7, #4]
 7880 0038 1A66     		str	r2, [r3, #96]
 7881              	.L385:
4144:Drivers/STM32L4xx_HAL_Driver/Src/stm32l4xx_hal_spi.c ****   }
4145:Drivers/STM32L4xx_HAL_Driver/Src/stm32l4xx_hal_spi.c **** 
4146:Drivers/STM32L4xx_HAL_Driver/Src/stm32l4xx_hal_spi.c **** #if (USE_SPI_CRC != 0U)
4147:Drivers/STM32L4xx_HAL_Driver/Src/stm32l4xx_hal_spi.c ****   /* Check if CRC error occurred */
4148:Drivers/STM32L4xx_HAL_Driver/Src/stm32l4xx_hal_spi.c ****   if (__HAL_SPI_GET_FLAG(hspi, SPI_FLAG_CRCERR) != RESET)
4149:Drivers/STM32L4xx_HAL_Driver/Src/stm32l4xx_hal_spi.c ****   {
4150:Drivers/STM32L4xx_HAL_Driver/Src/stm32l4xx_hal_spi.c ****     hspi->State = HAL_SPI_STATE_READY;
4151:Drivers/STM32L4xx_HAL_Driver/Src/stm32l4xx_hal_spi.c ****     SET_BIT(hspi->ErrorCode, HAL_SPI_ERROR_CRC);
4152:Drivers/STM32L4xx_HAL_Driver/Src/stm32l4xx_hal_spi.c ****     __HAL_SPI_CLEAR_CRCERRFLAG(hspi);
4153:Drivers/STM32L4xx_HAL_Driver/Src/stm32l4xx_hal_spi.c ****     /* Call user error callback */
4154:Drivers/STM32L4xx_HAL_Driver/Src/stm32l4xx_hal_spi.c **** #if (USE_HAL_SPI_REGISTER_CALLBACKS == 1U)
4155:Drivers/STM32L4xx_HAL_Driver/Src/stm32l4xx_hal_spi.c ****     hspi->ErrorCallback(hspi);
4156:Drivers/STM32L4xx_HAL_Driver/Src/stm32l4xx_hal_spi.c **** #else
ARM GAS  C:\Users\Morroway\AppData\Local\Temp\ccCQJjHM.s 			page 211


4157:Drivers/STM32L4xx_HAL_Driver/Src/stm32l4xx_hal_spi.c ****     HAL_SPI_ErrorCallback(hspi);
4158:Drivers/STM32L4xx_HAL_Driver/Src/stm32l4xx_hal_spi.c **** #endif /* USE_HAL_SPI_REGISTER_CALLBACKS */
4159:Drivers/STM32L4xx_HAL_Driver/Src/stm32l4xx_hal_spi.c ****   }
4160:Drivers/STM32L4xx_HAL_Driver/Src/stm32l4xx_hal_spi.c ****   else
4161:Drivers/STM32L4xx_HAL_Driver/Src/stm32l4xx_hal_spi.c ****   {
4162:Drivers/STM32L4xx_HAL_Driver/Src/stm32l4xx_hal_spi.c **** #endif /* USE_SPI_CRC */
4163:Drivers/STM32L4xx_HAL_Driver/Src/stm32l4xx_hal_spi.c ****     if (hspi->ErrorCode == HAL_SPI_ERROR_NONE)
 7882              		.loc 1 4163 13
 7883 003a 7B68     		ldr	r3, [r7, #4]
 7884 003c 1B6E     		ldr	r3, [r3, #96]
 7885              		.loc 1 4163 8
 7886 003e 002B     		cmp	r3, #0
 7887 0040 15D1     		bne	.L386
4164:Drivers/STM32L4xx_HAL_Driver/Src/stm32l4xx_hal_spi.c ****     {
4165:Drivers/STM32L4xx_HAL_Driver/Src/stm32l4xx_hal_spi.c ****       if (hspi->State == HAL_SPI_STATE_BUSY_RX)
 7888              		.loc 1 4165 15
 7889 0042 7B68     		ldr	r3, [r7, #4]
 7890 0044 93F85D30 		ldrb	r3, [r3, #93]
 7891 0048 DBB2     		uxtb	r3, r3
 7892              		.loc 1 4165 10
 7893 004a 042B     		cmp	r3, #4
 7894 004c 07D1     		bne	.L387
4166:Drivers/STM32L4xx_HAL_Driver/Src/stm32l4xx_hal_spi.c ****       {
4167:Drivers/STM32L4xx_HAL_Driver/Src/stm32l4xx_hal_spi.c ****         hspi->State = HAL_SPI_STATE_READY;
 7895              		.loc 1 4167 21
 7896 004e 7B68     		ldr	r3, [r7, #4]
 7897 0050 0122     		movs	r2, #1
 7898 0052 83F85D20 		strb	r2, [r3, #93]
4168:Drivers/STM32L4xx_HAL_Driver/Src/stm32l4xx_hal_spi.c ****         /* Call user Rx complete callback */
4169:Drivers/STM32L4xx_HAL_Driver/Src/stm32l4xx_hal_spi.c **** #if (USE_HAL_SPI_REGISTER_CALLBACKS == 1U)
4170:Drivers/STM32L4xx_HAL_Driver/Src/stm32l4xx_hal_spi.c ****         hspi->RxCpltCallback(hspi);
4171:Drivers/STM32L4xx_HAL_Driver/Src/stm32l4xx_hal_spi.c **** #else
4172:Drivers/STM32L4xx_HAL_Driver/Src/stm32l4xx_hal_spi.c ****         HAL_SPI_RxCpltCallback(hspi);
 7899              		.loc 1 4172 9
 7900 0056 7868     		ldr	r0, [r7, #4]
 7901 0058 FFF7FEFF 		bl	HAL_SPI_RxCpltCallback
4173:Drivers/STM32L4xx_HAL_Driver/Src/stm32l4xx_hal_spi.c **** #endif /* USE_HAL_SPI_REGISTER_CALLBACKS */
4174:Drivers/STM32L4xx_HAL_Driver/Src/stm32l4xx_hal_spi.c ****       }
4175:Drivers/STM32L4xx_HAL_Driver/Src/stm32l4xx_hal_spi.c ****       else
4176:Drivers/STM32L4xx_HAL_Driver/Src/stm32l4xx_hal_spi.c ****       {
4177:Drivers/STM32L4xx_HAL_Driver/Src/stm32l4xx_hal_spi.c ****         hspi->State = HAL_SPI_STATE_READY;
4178:Drivers/STM32L4xx_HAL_Driver/Src/stm32l4xx_hal_spi.c ****         /* Call user TxRx complete callback */
4179:Drivers/STM32L4xx_HAL_Driver/Src/stm32l4xx_hal_spi.c **** #if (USE_HAL_SPI_REGISTER_CALLBACKS == 1U)
4180:Drivers/STM32L4xx_HAL_Driver/Src/stm32l4xx_hal_spi.c ****         hspi->TxRxCpltCallback(hspi);
4181:Drivers/STM32L4xx_HAL_Driver/Src/stm32l4xx_hal_spi.c **** #else
4182:Drivers/STM32L4xx_HAL_Driver/Src/stm32l4xx_hal_spi.c ****         HAL_SPI_TxRxCpltCallback(hspi);
4183:Drivers/STM32L4xx_HAL_Driver/Src/stm32l4xx_hal_spi.c **** #endif /* USE_HAL_SPI_REGISTER_CALLBACKS */
4184:Drivers/STM32L4xx_HAL_Driver/Src/stm32l4xx_hal_spi.c ****       }
4185:Drivers/STM32L4xx_HAL_Driver/Src/stm32l4xx_hal_spi.c ****     }
4186:Drivers/STM32L4xx_HAL_Driver/Src/stm32l4xx_hal_spi.c ****     else
4187:Drivers/STM32L4xx_HAL_Driver/Src/stm32l4xx_hal_spi.c ****     {
4188:Drivers/STM32L4xx_HAL_Driver/Src/stm32l4xx_hal_spi.c ****       hspi->State = HAL_SPI_STATE_READY;
4189:Drivers/STM32L4xx_HAL_Driver/Src/stm32l4xx_hal_spi.c ****       /* Call user error callback */
4190:Drivers/STM32L4xx_HAL_Driver/Src/stm32l4xx_hal_spi.c **** #if (USE_HAL_SPI_REGISTER_CALLBACKS == 1U)
4191:Drivers/STM32L4xx_HAL_Driver/Src/stm32l4xx_hal_spi.c ****       hspi->ErrorCallback(hspi);
4192:Drivers/STM32L4xx_HAL_Driver/Src/stm32l4xx_hal_spi.c **** #else
4193:Drivers/STM32L4xx_HAL_Driver/Src/stm32l4xx_hal_spi.c ****       HAL_SPI_ErrorCallback(hspi);
ARM GAS  C:\Users\Morroway\AppData\Local\Temp\ccCQJjHM.s 			page 212


4194:Drivers/STM32L4xx_HAL_Driver/Src/stm32l4xx_hal_spi.c **** #endif /* USE_HAL_SPI_REGISTER_CALLBACKS */
4195:Drivers/STM32L4xx_HAL_Driver/Src/stm32l4xx_hal_spi.c ****     }
4196:Drivers/STM32L4xx_HAL_Driver/Src/stm32l4xx_hal_spi.c **** #if (USE_SPI_CRC != 0U)
4197:Drivers/STM32L4xx_HAL_Driver/Src/stm32l4xx_hal_spi.c ****   }
4198:Drivers/STM32L4xx_HAL_Driver/Src/stm32l4xx_hal_spi.c **** #endif /* USE_SPI_CRC */
4199:Drivers/STM32L4xx_HAL_Driver/Src/stm32l4xx_hal_spi.c **** }
 7902              		.loc 1 4199 1
 7903 005c 0EE0     		b	.L389
 7904              	.L387:
4177:Drivers/STM32L4xx_HAL_Driver/Src/stm32l4xx_hal_spi.c ****         /* Call user TxRx complete callback */
 7905              		.loc 1 4177 21
 7906 005e 7B68     		ldr	r3, [r7, #4]
 7907 0060 0122     		movs	r2, #1
 7908 0062 83F85D20 		strb	r2, [r3, #93]
4182:Drivers/STM32L4xx_HAL_Driver/Src/stm32l4xx_hal_spi.c **** #endif /* USE_HAL_SPI_REGISTER_CALLBACKS */
 7909              		.loc 1 4182 9
 7910 0066 7868     		ldr	r0, [r7, #4]
 7911 0068 FFF7FEFF 		bl	HAL_SPI_TxRxCpltCallback
 7912              		.loc 1 4199 1
 7913 006c 06E0     		b	.L389
 7914              	.L386:
4188:Drivers/STM32L4xx_HAL_Driver/Src/stm32l4xx_hal_spi.c ****       /* Call user error callback */
 7915              		.loc 1 4188 19
 7916 006e 7B68     		ldr	r3, [r7, #4]
 7917 0070 0122     		movs	r2, #1
 7918 0072 83F85D20 		strb	r2, [r3, #93]
4193:Drivers/STM32L4xx_HAL_Driver/Src/stm32l4xx_hal_spi.c **** #endif /* USE_HAL_SPI_REGISTER_CALLBACKS */
 7919              		.loc 1 4193 7
 7920 0076 7868     		ldr	r0, [r7, #4]
 7921 0078 FFF7FEFF 		bl	HAL_SPI_ErrorCallback
 7922              	.L389:
 7923              		.loc 1 4199 1
 7924 007c 00BF     		nop
 7925 007e 1037     		adds	r7, r7, #16
 7926              		.cfi_def_cfa_offset 8
 7927 0080 BD46     		mov	sp, r7
 7928              		.cfi_def_cfa_register 13
 7929              		@ sp needed
 7930 0082 80BD     		pop	{r7, pc}
 7931              		.cfi_endproc
 7932              	.LFE372:
 7934              		.section	.text.SPI_CloseRx_ISR,"ax",%progbits
 7935              		.align	1
 7936              		.syntax unified
 7937              		.thumb
 7938              		.thumb_func
 7940              	SPI_CloseRx_ISR:
 7941              	.LFB373:
4200:Drivers/STM32L4xx_HAL_Driver/Src/stm32l4xx_hal_spi.c **** 
4201:Drivers/STM32L4xx_HAL_Driver/Src/stm32l4xx_hal_spi.c **** /**
4202:Drivers/STM32L4xx_HAL_Driver/Src/stm32l4xx_hal_spi.c ****   * @brief  Handle the end of the RX transaction.
4203:Drivers/STM32L4xx_HAL_Driver/Src/stm32l4xx_hal_spi.c ****   * @param  hspi pointer to a SPI_HandleTypeDef structure that contains
4204:Drivers/STM32L4xx_HAL_Driver/Src/stm32l4xx_hal_spi.c ****   *               the configuration information for SPI module.
4205:Drivers/STM32L4xx_HAL_Driver/Src/stm32l4xx_hal_spi.c ****   * @retval None
4206:Drivers/STM32L4xx_HAL_Driver/Src/stm32l4xx_hal_spi.c ****   */
4207:Drivers/STM32L4xx_HAL_Driver/Src/stm32l4xx_hal_spi.c **** static void SPI_CloseRx_ISR(SPI_HandleTypeDef *hspi)
4208:Drivers/STM32L4xx_HAL_Driver/Src/stm32l4xx_hal_spi.c **** {
ARM GAS  C:\Users\Morroway\AppData\Local\Temp\ccCQJjHM.s 			page 213


 7942              		.loc 1 4208 1
 7943              		.cfi_startproc
 7944              		@ args = 0, pretend = 0, frame = 8
 7945              		@ frame_needed = 1, uses_anonymous_args = 0
 7946 0000 80B5     		push	{r7, lr}
 7947              		.cfi_def_cfa_offset 8
 7948              		.cfi_offset 7, -8
 7949              		.cfi_offset 14, -4
 7950 0002 82B0     		sub	sp, sp, #8
 7951              		.cfi_def_cfa_offset 16
 7952 0004 00AF     		add	r7, sp, #0
 7953              		.cfi_def_cfa_register 7
 7954 0006 7860     		str	r0, [r7, #4]
4209:Drivers/STM32L4xx_HAL_Driver/Src/stm32l4xx_hal_spi.c ****   /* Disable RXNE and ERR interrupt */
4210:Drivers/STM32L4xx_HAL_Driver/Src/stm32l4xx_hal_spi.c ****   __HAL_SPI_DISABLE_IT(hspi, (SPI_IT_RXNE | SPI_IT_ERR));
 7955              		.loc 1 4210 3
 7956 0008 7B68     		ldr	r3, [r7, #4]
 7957 000a 1B68     		ldr	r3, [r3]
 7958 000c 5A68     		ldr	r2, [r3, #4]
 7959 000e 7B68     		ldr	r3, [r7, #4]
 7960 0010 1B68     		ldr	r3, [r3]
 7961 0012 22F06002 		bic	r2, r2, #96
 7962 0016 5A60     		str	r2, [r3, #4]
4211:Drivers/STM32L4xx_HAL_Driver/Src/stm32l4xx_hal_spi.c **** 
4212:Drivers/STM32L4xx_HAL_Driver/Src/stm32l4xx_hal_spi.c ****   /* Check the end of the transaction */
4213:Drivers/STM32L4xx_HAL_Driver/Src/stm32l4xx_hal_spi.c ****   if (SPI_EndRxTransaction(hspi, SPI_DEFAULT_TIMEOUT, HAL_GetTick()) != HAL_OK)
 7963              		.loc 1 4213 7
 7964 0018 FFF7FEFF 		bl	HAL_GetTick
 7965 001c 0346     		mov	r3, r0
 7966 001e 1A46     		mov	r2, r3
 7967 0020 6421     		movs	r1, #100
 7968 0022 7868     		ldr	r0, [r7, #4]
 7969 0024 FFF7FEFF 		bl	SPI_EndRxTransaction
 7970 0028 0346     		mov	r3, r0
 7971              		.loc 1 4213 6
 7972 002a 002B     		cmp	r3, #0
 7973 002c 05D0     		beq	.L391
4214:Drivers/STM32L4xx_HAL_Driver/Src/stm32l4xx_hal_spi.c ****   {
4215:Drivers/STM32L4xx_HAL_Driver/Src/stm32l4xx_hal_spi.c ****     SET_BIT(hspi->ErrorCode, HAL_SPI_ERROR_FLAG);
 7974              		.loc 1 4215 5
 7975 002e 7B68     		ldr	r3, [r7, #4]
 7976 0030 1B6E     		ldr	r3, [r3, #96]
 7977 0032 43F02002 		orr	r2, r3, #32
 7978 0036 7B68     		ldr	r3, [r7, #4]
 7979 0038 1A66     		str	r2, [r3, #96]
 7980              	.L391:
4216:Drivers/STM32L4xx_HAL_Driver/Src/stm32l4xx_hal_spi.c ****   }
4217:Drivers/STM32L4xx_HAL_Driver/Src/stm32l4xx_hal_spi.c ****   hspi->State = HAL_SPI_STATE_READY;
 7981              		.loc 1 4217 15
 7982 003a 7B68     		ldr	r3, [r7, #4]
 7983 003c 0122     		movs	r2, #1
 7984 003e 83F85D20 		strb	r2, [r3, #93]
4218:Drivers/STM32L4xx_HAL_Driver/Src/stm32l4xx_hal_spi.c **** 
4219:Drivers/STM32L4xx_HAL_Driver/Src/stm32l4xx_hal_spi.c **** #if (USE_SPI_CRC != 0U)
4220:Drivers/STM32L4xx_HAL_Driver/Src/stm32l4xx_hal_spi.c ****   /* Check if CRC error occurred */
4221:Drivers/STM32L4xx_HAL_Driver/Src/stm32l4xx_hal_spi.c ****   if (__HAL_SPI_GET_FLAG(hspi, SPI_FLAG_CRCERR) != RESET)
4222:Drivers/STM32L4xx_HAL_Driver/Src/stm32l4xx_hal_spi.c ****   {
ARM GAS  C:\Users\Morroway\AppData\Local\Temp\ccCQJjHM.s 			page 214


4223:Drivers/STM32L4xx_HAL_Driver/Src/stm32l4xx_hal_spi.c ****     SET_BIT(hspi->ErrorCode, HAL_SPI_ERROR_CRC);
4224:Drivers/STM32L4xx_HAL_Driver/Src/stm32l4xx_hal_spi.c ****     __HAL_SPI_CLEAR_CRCERRFLAG(hspi);
4225:Drivers/STM32L4xx_HAL_Driver/Src/stm32l4xx_hal_spi.c ****     /* Call user error callback */
4226:Drivers/STM32L4xx_HAL_Driver/Src/stm32l4xx_hal_spi.c **** #if (USE_HAL_SPI_REGISTER_CALLBACKS == 1U)
4227:Drivers/STM32L4xx_HAL_Driver/Src/stm32l4xx_hal_spi.c ****     hspi->ErrorCallback(hspi);
4228:Drivers/STM32L4xx_HAL_Driver/Src/stm32l4xx_hal_spi.c **** #else
4229:Drivers/STM32L4xx_HAL_Driver/Src/stm32l4xx_hal_spi.c ****     HAL_SPI_ErrorCallback(hspi);
4230:Drivers/STM32L4xx_HAL_Driver/Src/stm32l4xx_hal_spi.c **** #endif /* USE_HAL_SPI_REGISTER_CALLBACKS */
4231:Drivers/STM32L4xx_HAL_Driver/Src/stm32l4xx_hal_spi.c ****   }
4232:Drivers/STM32L4xx_HAL_Driver/Src/stm32l4xx_hal_spi.c ****   else
4233:Drivers/STM32L4xx_HAL_Driver/Src/stm32l4xx_hal_spi.c ****   {
4234:Drivers/STM32L4xx_HAL_Driver/Src/stm32l4xx_hal_spi.c **** #endif /* USE_SPI_CRC */
4235:Drivers/STM32L4xx_HAL_Driver/Src/stm32l4xx_hal_spi.c ****     if (hspi->ErrorCode == HAL_SPI_ERROR_NONE)
 7985              		.loc 1 4235 13
 7986 0042 7B68     		ldr	r3, [r7, #4]
 7987 0044 1B6E     		ldr	r3, [r3, #96]
 7988              		.loc 1 4235 8
 7989 0046 002B     		cmp	r3, #0
 7990 0048 03D1     		bne	.L392
4236:Drivers/STM32L4xx_HAL_Driver/Src/stm32l4xx_hal_spi.c ****     {
4237:Drivers/STM32L4xx_HAL_Driver/Src/stm32l4xx_hal_spi.c ****       /* Call user Rx complete callback */
4238:Drivers/STM32L4xx_HAL_Driver/Src/stm32l4xx_hal_spi.c **** #if (USE_HAL_SPI_REGISTER_CALLBACKS == 1U)
4239:Drivers/STM32L4xx_HAL_Driver/Src/stm32l4xx_hal_spi.c ****       hspi->RxCpltCallback(hspi);
4240:Drivers/STM32L4xx_HAL_Driver/Src/stm32l4xx_hal_spi.c **** #else
4241:Drivers/STM32L4xx_HAL_Driver/Src/stm32l4xx_hal_spi.c ****       HAL_SPI_RxCpltCallback(hspi);
 7991              		.loc 1 4241 7
 7992 004a 7868     		ldr	r0, [r7, #4]
 7993 004c FFF7FEFF 		bl	HAL_SPI_RxCpltCallback
4242:Drivers/STM32L4xx_HAL_Driver/Src/stm32l4xx_hal_spi.c **** #endif /* USE_HAL_SPI_REGISTER_CALLBACKS */
4243:Drivers/STM32L4xx_HAL_Driver/Src/stm32l4xx_hal_spi.c ****     }
4244:Drivers/STM32L4xx_HAL_Driver/Src/stm32l4xx_hal_spi.c ****     else
4245:Drivers/STM32L4xx_HAL_Driver/Src/stm32l4xx_hal_spi.c ****     {
4246:Drivers/STM32L4xx_HAL_Driver/Src/stm32l4xx_hal_spi.c ****       /* Call user error callback */
4247:Drivers/STM32L4xx_HAL_Driver/Src/stm32l4xx_hal_spi.c **** #if (USE_HAL_SPI_REGISTER_CALLBACKS == 1U)
4248:Drivers/STM32L4xx_HAL_Driver/Src/stm32l4xx_hal_spi.c ****       hspi->ErrorCallback(hspi);
4249:Drivers/STM32L4xx_HAL_Driver/Src/stm32l4xx_hal_spi.c **** #else
4250:Drivers/STM32L4xx_HAL_Driver/Src/stm32l4xx_hal_spi.c ****       HAL_SPI_ErrorCallback(hspi);
4251:Drivers/STM32L4xx_HAL_Driver/Src/stm32l4xx_hal_spi.c **** #endif /* USE_HAL_SPI_REGISTER_CALLBACKS */
4252:Drivers/STM32L4xx_HAL_Driver/Src/stm32l4xx_hal_spi.c ****     }
4253:Drivers/STM32L4xx_HAL_Driver/Src/stm32l4xx_hal_spi.c **** #if (USE_SPI_CRC != 0U)
4254:Drivers/STM32L4xx_HAL_Driver/Src/stm32l4xx_hal_spi.c ****   }
4255:Drivers/STM32L4xx_HAL_Driver/Src/stm32l4xx_hal_spi.c **** #endif /* USE_SPI_CRC */
4256:Drivers/STM32L4xx_HAL_Driver/Src/stm32l4xx_hal_spi.c **** }
 7994              		.loc 1 4256 1
 7995 0050 02E0     		b	.L394
 7996              	.L392:
4250:Drivers/STM32L4xx_HAL_Driver/Src/stm32l4xx_hal_spi.c **** #endif /* USE_HAL_SPI_REGISTER_CALLBACKS */
 7997              		.loc 1 4250 7
 7998 0052 7868     		ldr	r0, [r7, #4]
 7999 0054 FFF7FEFF 		bl	HAL_SPI_ErrorCallback
 8000              	.L394:
 8001              		.loc 1 4256 1
 8002 0058 00BF     		nop
 8003 005a 0837     		adds	r7, r7, #8
 8004              		.cfi_def_cfa_offset 8
 8005 005c BD46     		mov	sp, r7
 8006              		.cfi_def_cfa_register 13
ARM GAS  C:\Users\Morroway\AppData\Local\Temp\ccCQJjHM.s 			page 215


 8007              		@ sp needed
 8008 005e 80BD     		pop	{r7, pc}
 8009              		.cfi_endproc
 8010              	.LFE373:
 8012              		.section	.text.SPI_CloseTx_ISR,"ax",%progbits
 8013              		.align	1
 8014              		.syntax unified
 8015              		.thumb
 8016              		.thumb_func
 8018              	SPI_CloseTx_ISR:
 8019              	.LFB374:
4257:Drivers/STM32L4xx_HAL_Driver/Src/stm32l4xx_hal_spi.c **** 
4258:Drivers/STM32L4xx_HAL_Driver/Src/stm32l4xx_hal_spi.c **** /**
4259:Drivers/STM32L4xx_HAL_Driver/Src/stm32l4xx_hal_spi.c ****   * @brief  Handle the end of the TX transaction.
4260:Drivers/STM32L4xx_HAL_Driver/Src/stm32l4xx_hal_spi.c ****   * @param  hspi pointer to a SPI_HandleTypeDef structure that contains
4261:Drivers/STM32L4xx_HAL_Driver/Src/stm32l4xx_hal_spi.c ****   *               the configuration information for SPI module.
4262:Drivers/STM32L4xx_HAL_Driver/Src/stm32l4xx_hal_spi.c ****   * @retval None
4263:Drivers/STM32L4xx_HAL_Driver/Src/stm32l4xx_hal_spi.c ****   */
4264:Drivers/STM32L4xx_HAL_Driver/Src/stm32l4xx_hal_spi.c **** static void SPI_CloseTx_ISR(SPI_HandleTypeDef *hspi)
4265:Drivers/STM32L4xx_HAL_Driver/Src/stm32l4xx_hal_spi.c **** {
 8020              		.loc 1 4265 1
 8021              		.cfi_startproc
 8022              		@ args = 0, pretend = 0, frame = 16
 8023              		@ frame_needed = 1, uses_anonymous_args = 0
 8024 0000 80B5     		push	{r7, lr}
 8025              		.cfi_def_cfa_offset 8
 8026              		.cfi_offset 7, -8
 8027              		.cfi_offset 14, -4
 8028 0002 84B0     		sub	sp, sp, #16
 8029              		.cfi_def_cfa_offset 24
 8030 0004 00AF     		add	r7, sp, #0
 8031              		.cfi_def_cfa_register 7
 8032 0006 7860     		str	r0, [r7, #4]
4266:Drivers/STM32L4xx_HAL_Driver/Src/stm32l4xx_hal_spi.c ****   uint32_t tickstart;
4267:Drivers/STM32L4xx_HAL_Driver/Src/stm32l4xx_hal_spi.c **** 
4268:Drivers/STM32L4xx_HAL_Driver/Src/stm32l4xx_hal_spi.c ****   /* Init tickstart for timeout management*/
4269:Drivers/STM32L4xx_HAL_Driver/Src/stm32l4xx_hal_spi.c ****   tickstart = HAL_GetTick();
 8033              		.loc 1 4269 15
 8034 0008 FFF7FEFF 		bl	HAL_GetTick
 8035 000c F860     		str	r0, [r7, #12]
4270:Drivers/STM32L4xx_HAL_Driver/Src/stm32l4xx_hal_spi.c **** 
4271:Drivers/STM32L4xx_HAL_Driver/Src/stm32l4xx_hal_spi.c ****   /* Disable TXE and ERR interrupt */
4272:Drivers/STM32L4xx_HAL_Driver/Src/stm32l4xx_hal_spi.c ****   __HAL_SPI_DISABLE_IT(hspi, (SPI_IT_TXE | SPI_IT_ERR));
 8036              		.loc 1 4272 3
 8037 000e 7B68     		ldr	r3, [r7, #4]
 8038 0010 1B68     		ldr	r3, [r3]
 8039 0012 5A68     		ldr	r2, [r3, #4]
 8040 0014 7B68     		ldr	r3, [r7, #4]
 8041 0016 1B68     		ldr	r3, [r3]
 8042 0018 22F0A002 		bic	r2, r2, #160
 8043 001c 5A60     		str	r2, [r3, #4]
4273:Drivers/STM32L4xx_HAL_Driver/Src/stm32l4xx_hal_spi.c **** 
4274:Drivers/STM32L4xx_HAL_Driver/Src/stm32l4xx_hal_spi.c ****   /* Check the end of the transaction */
4275:Drivers/STM32L4xx_HAL_Driver/Src/stm32l4xx_hal_spi.c ****   if (SPI_EndRxTxTransaction(hspi, SPI_DEFAULT_TIMEOUT, tickstart) != HAL_OK)
 8044              		.loc 1 4275 7
 8045 001e FA68     		ldr	r2, [r7, #12]
 8046 0020 6421     		movs	r1, #100
ARM GAS  C:\Users\Morroway\AppData\Local\Temp\ccCQJjHM.s 			page 216


 8047 0022 7868     		ldr	r0, [r7, #4]
 8048 0024 FFF7FEFF 		bl	SPI_EndRxTxTransaction
 8049 0028 0346     		mov	r3, r0
 8050              		.loc 1 4275 6
 8051 002a 002B     		cmp	r3, #0
 8052 002c 05D0     		beq	.L396
4276:Drivers/STM32L4xx_HAL_Driver/Src/stm32l4xx_hal_spi.c ****   {
4277:Drivers/STM32L4xx_HAL_Driver/Src/stm32l4xx_hal_spi.c ****     SET_BIT(hspi->ErrorCode, HAL_SPI_ERROR_FLAG);
 8053              		.loc 1 4277 5
 8054 002e 7B68     		ldr	r3, [r7, #4]
 8055 0030 1B6E     		ldr	r3, [r3, #96]
 8056 0032 43F02002 		orr	r2, r3, #32
 8057 0036 7B68     		ldr	r3, [r7, #4]
 8058 0038 1A66     		str	r2, [r3, #96]
 8059              	.L396:
4278:Drivers/STM32L4xx_HAL_Driver/Src/stm32l4xx_hal_spi.c ****   }
4279:Drivers/STM32L4xx_HAL_Driver/Src/stm32l4xx_hal_spi.c **** 
4280:Drivers/STM32L4xx_HAL_Driver/Src/stm32l4xx_hal_spi.c ****   /* Clear overrun flag in 2 Lines communication mode because received is not read */
4281:Drivers/STM32L4xx_HAL_Driver/Src/stm32l4xx_hal_spi.c ****   if (hspi->Init.Direction == SPI_DIRECTION_2LINES)
 8060              		.loc 1 4281 17
 8061 003a 7B68     		ldr	r3, [r7, #4]
 8062 003c 9B68     		ldr	r3, [r3, #8]
 8063              		.loc 1 4281 6
 8064 003e 002B     		cmp	r3, #0
 8065 0040 0AD1     		bne	.L397
 8066              	.LBB16:
4282:Drivers/STM32L4xx_HAL_Driver/Src/stm32l4xx_hal_spi.c ****   {
4283:Drivers/STM32L4xx_HAL_Driver/Src/stm32l4xx_hal_spi.c ****     __HAL_SPI_CLEAR_OVRFLAG(hspi);
 8067              		.loc 1 4283 5
 8068 0042 0023     		movs	r3, #0
 8069 0044 BB60     		str	r3, [r7, #8]
 8070 0046 7B68     		ldr	r3, [r7, #4]
 8071 0048 1B68     		ldr	r3, [r3]
 8072 004a DB68     		ldr	r3, [r3, #12]
 8073 004c BB60     		str	r3, [r7, #8]
 8074 004e 7B68     		ldr	r3, [r7, #4]
 8075 0050 1B68     		ldr	r3, [r3]
 8076 0052 9B68     		ldr	r3, [r3, #8]
 8077 0054 BB60     		str	r3, [r7, #8]
 8078 0056 BB68     		ldr	r3, [r7, #8]
 8079              	.L397:
 8080              	.LBE16:
4284:Drivers/STM32L4xx_HAL_Driver/Src/stm32l4xx_hal_spi.c ****   }
4285:Drivers/STM32L4xx_HAL_Driver/Src/stm32l4xx_hal_spi.c **** 
4286:Drivers/STM32L4xx_HAL_Driver/Src/stm32l4xx_hal_spi.c ****   hspi->State = HAL_SPI_STATE_READY;
 8081              		.loc 1 4286 15
 8082 0058 7B68     		ldr	r3, [r7, #4]
 8083 005a 0122     		movs	r2, #1
 8084 005c 83F85D20 		strb	r2, [r3, #93]
4287:Drivers/STM32L4xx_HAL_Driver/Src/stm32l4xx_hal_spi.c ****   if (hspi->ErrorCode != HAL_SPI_ERROR_NONE)
 8085              		.loc 1 4287 11
 8086 0060 7B68     		ldr	r3, [r7, #4]
 8087 0062 1B6E     		ldr	r3, [r3, #96]
 8088              		.loc 1 4287 6
 8089 0064 002B     		cmp	r3, #0
 8090 0066 03D0     		beq	.L398
4288:Drivers/STM32L4xx_HAL_Driver/Src/stm32l4xx_hal_spi.c ****   {
ARM GAS  C:\Users\Morroway\AppData\Local\Temp\ccCQJjHM.s 			page 217


4289:Drivers/STM32L4xx_HAL_Driver/Src/stm32l4xx_hal_spi.c ****     /* Call user error callback */
4290:Drivers/STM32L4xx_HAL_Driver/Src/stm32l4xx_hal_spi.c **** #if (USE_HAL_SPI_REGISTER_CALLBACKS == 1U)
4291:Drivers/STM32L4xx_HAL_Driver/Src/stm32l4xx_hal_spi.c ****     hspi->ErrorCallback(hspi);
4292:Drivers/STM32L4xx_HAL_Driver/Src/stm32l4xx_hal_spi.c **** #else
4293:Drivers/STM32L4xx_HAL_Driver/Src/stm32l4xx_hal_spi.c ****     HAL_SPI_ErrorCallback(hspi);
 8091              		.loc 1 4293 5
 8092 0068 7868     		ldr	r0, [r7, #4]
 8093 006a FFF7FEFF 		bl	HAL_SPI_ErrorCallback
4294:Drivers/STM32L4xx_HAL_Driver/Src/stm32l4xx_hal_spi.c **** #endif /* USE_HAL_SPI_REGISTER_CALLBACKS */
4295:Drivers/STM32L4xx_HAL_Driver/Src/stm32l4xx_hal_spi.c ****   }
4296:Drivers/STM32L4xx_HAL_Driver/Src/stm32l4xx_hal_spi.c ****   else
4297:Drivers/STM32L4xx_HAL_Driver/Src/stm32l4xx_hal_spi.c ****   {
4298:Drivers/STM32L4xx_HAL_Driver/Src/stm32l4xx_hal_spi.c ****     /* Call user Rx complete callback */
4299:Drivers/STM32L4xx_HAL_Driver/Src/stm32l4xx_hal_spi.c **** #if (USE_HAL_SPI_REGISTER_CALLBACKS == 1U)
4300:Drivers/STM32L4xx_HAL_Driver/Src/stm32l4xx_hal_spi.c ****     hspi->TxCpltCallback(hspi);
4301:Drivers/STM32L4xx_HAL_Driver/Src/stm32l4xx_hal_spi.c **** #else
4302:Drivers/STM32L4xx_HAL_Driver/Src/stm32l4xx_hal_spi.c ****     HAL_SPI_TxCpltCallback(hspi);
4303:Drivers/STM32L4xx_HAL_Driver/Src/stm32l4xx_hal_spi.c **** #endif /* USE_HAL_SPI_REGISTER_CALLBACKS */
4304:Drivers/STM32L4xx_HAL_Driver/Src/stm32l4xx_hal_spi.c ****   }
4305:Drivers/STM32L4xx_HAL_Driver/Src/stm32l4xx_hal_spi.c **** }
 8094              		.loc 1 4305 1
 8095 006e 02E0     		b	.L400
 8096              	.L398:
4302:Drivers/STM32L4xx_HAL_Driver/Src/stm32l4xx_hal_spi.c **** #endif /* USE_HAL_SPI_REGISTER_CALLBACKS */
 8097              		.loc 1 4302 5
 8098 0070 7868     		ldr	r0, [r7, #4]
 8099 0072 FFF7FEFF 		bl	HAL_SPI_TxCpltCallback
 8100              	.L400:
 8101              		.loc 1 4305 1
 8102 0076 00BF     		nop
 8103 0078 1037     		adds	r7, r7, #16
 8104              		.cfi_def_cfa_offset 8
 8105 007a BD46     		mov	sp, r7
 8106              		.cfi_def_cfa_register 13
 8107              		@ sp needed
 8108 007c 80BD     		pop	{r7, pc}
 8109              		.cfi_endproc
 8110              	.LFE374:
 8112              		.section	.text.SPI_AbortRx_ISR,"ax",%progbits
 8113              		.align	1
 8114              		.syntax unified
 8115              		.thumb
 8116              		.thumb_func
 8118              	SPI_AbortRx_ISR:
 8119              	.LFB375:
4306:Drivers/STM32L4xx_HAL_Driver/Src/stm32l4xx_hal_spi.c **** 
4307:Drivers/STM32L4xx_HAL_Driver/Src/stm32l4xx_hal_spi.c **** /**
4308:Drivers/STM32L4xx_HAL_Driver/Src/stm32l4xx_hal_spi.c ****   * @brief  Handle abort a Rx transaction.
4309:Drivers/STM32L4xx_HAL_Driver/Src/stm32l4xx_hal_spi.c ****   * @param  hspi pointer to a SPI_HandleTypeDef structure that contains
4310:Drivers/STM32L4xx_HAL_Driver/Src/stm32l4xx_hal_spi.c ****   *               the configuration information for SPI module.
4311:Drivers/STM32L4xx_HAL_Driver/Src/stm32l4xx_hal_spi.c ****   * @retval None
4312:Drivers/STM32L4xx_HAL_Driver/Src/stm32l4xx_hal_spi.c ****   */
4313:Drivers/STM32L4xx_HAL_Driver/Src/stm32l4xx_hal_spi.c **** static void SPI_AbortRx_ISR(SPI_HandleTypeDef *hspi)
4314:Drivers/STM32L4xx_HAL_Driver/Src/stm32l4xx_hal_spi.c **** {
 8120              		.loc 1 4314 1
 8121              		.cfi_startproc
 8122              		@ args = 0, pretend = 0, frame = 16
ARM GAS  C:\Users\Morroway\AppData\Local\Temp\ccCQJjHM.s 			page 218


 8123              		@ frame_needed = 1, uses_anonymous_args = 0
 8124 0000 80B5     		push	{r7, lr}
 8125              		.cfi_def_cfa_offset 8
 8126              		.cfi_offset 7, -8
 8127              		.cfi_offset 14, -4
 8128 0002 86B0     		sub	sp, sp, #24
 8129              		.cfi_def_cfa_offset 32
 8130 0004 02AF     		add	r7, sp, #8
 8131              		.cfi_def_cfa 7, 24
 8132 0006 7860     		str	r0, [r7, #4]
4315:Drivers/STM32L4xx_HAL_Driver/Src/stm32l4xx_hal_spi.c ****   __IO uint32_t count;
4316:Drivers/STM32L4xx_HAL_Driver/Src/stm32l4xx_hal_spi.c **** 
4317:Drivers/STM32L4xx_HAL_Driver/Src/stm32l4xx_hal_spi.c ****   /* Disable SPI Peripheral */
4318:Drivers/STM32L4xx_HAL_Driver/Src/stm32l4xx_hal_spi.c ****   __HAL_SPI_DISABLE(hspi);
 8133              		.loc 1 4318 3
 8134 0008 7B68     		ldr	r3, [r7, #4]
 8135 000a 1B68     		ldr	r3, [r3]
 8136 000c 1A68     		ldr	r2, [r3]
 8137 000e 7B68     		ldr	r3, [r7, #4]
 8138 0010 1B68     		ldr	r3, [r3]
 8139 0012 22F04002 		bic	r2, r2, #64
 8140 0016 1A60     		str	r2, [r3]
4319:Drivers/STM32L4xx_HAL_Driver/Src/stm32l4xx_hal_spi.c **** 
4320:Drivers/STM32L4xx_HAL_Driver/Src/stm32l4xx_hal_spi.c ****   count = SPI_DEFAULT_TIMEOUT * (SystemCoreClock / 24U / 1000U);
 8141              		.loc 1 4320 56
 8142 0018 274B     		ldr	r3, .L407
 8143 001a 1B68     		ldr	r3, [r3]
 8144 001c 274A     		ldr	r2, .L407+4
 8145 001e A2FB0323 		umull	r2, r3, r2, r3
 8146 0022 5B0A     		lsrs	r3, r3, #9
 8147              		.loc 1 4320 31
 8148 0024 6422     		movs	r2, #100
 8149 0026 02FB03F3 		mul	r3, r2, r3
 8150              		.loc 1 4320 9
 8151 002a FB60     		str	r3, [r7, #12]
4321:Drivers/STM32L4xx_HAL_Driver/Src/stm32l4xx_hal_spi.c **** 
4322:Drivers/STM32L4xx_HAL_Driver/Src/stm32l4xx_hal_spi.c ****   /* Disable RXNEIE interrupt */
4323:Drivers/STM32L4xx_HAL_Driver/Src/stm32l4xx_hal_spi.c ****   CLEAR_BIT(hspi->Instance->CR2, (SPI_CR2_RXNEIE));
 8152              		.loc 1 4323 3
 8153 002c 7B68     		ldr	r3, [r7, #4]
 8154 002e 1B68     		ldr	r3, [r3]
 8155 0030 5A68     		ldr	r2, [r3, #4]
 8156 0032 7B68     		ldr	r3, [r7, #4]
 8157 0034 1B68     		ldr	r3, [r3]
 8158 0036 22F04002 		bic	r2, r2, #64
 8159 003a 5A60     		str	r2, [r3, #4]
 8160              	.L404:
4324:Drivers/STM32L4xx_HAL_Driver/Src/stm32l4xx_hal_spi.c **** 
4325:Drivers/STM32L4xx_HAL_Driver/Src/stm32l4xx_hal_spi.c ****   /* Check RXNEIE is disabled */
4326:Drivers/STM32L4xx_HAL_Driver/Src/stm32l4xx_hal_spi.c ****   do
4327:Drivers/STM32L4xx_HAL_Driver/Src/stm32l4xx_hal_spi.c ****   {
4328:Drivers/STM32L4xx_HAL_Driver/Src/stm32l4xx_hal_spi.c ****     if (count == 0U)
 8161              		.loc 1 4328 15
 8162 003c FB68     		ldr	r3, [r7, #12]
 8163              		.loc 1 4328 8
 8164 003e 002B     		cmp	r3, #0
 8165 0040 06D1     		bne	.L402
ARM GAS  C:\Users\Morroway\AppData\Local\Temp\ccCQJjHM.s 			page 219


4329:Drivers/STM32L4xx_HAL_Driver/Src/stm32l4xx_hal_spi.c ****     {
4330:Drivers/STM32L4xx_HAL_Driver/Src/stm32l4xx_hal_spi.c ****       SET_BIT(hspi->ErrorCode, HAL_SPI_ERROR_ABORT);
 8166              		.loc 1 4330 7
 8167 0042 7B68     		ldr	r3, [r7, #4]
 8168 0044 1B6E     		ldr	r3, [r3, #96]
 8169 0046 43F04002 		orr	r2, r3, #64
 8170 004a 7B68     		ldr	r3, [r7, #4]
 8171 004c 1A66     		str	r2, [r3, #96]
4331:Drivers/STM32L4xx_HAL_Driver/Src/stm32l4xx_hal_spi.c ****       break;
 8172              		.loc 1 4331 7
 8173 004e 09E0     		b	.L403
 8174              	.L402:
4332:Drivers/STM32L4xx_HAL_Driver/Src/stm32l4xx_hal_spi.c ****     }
4333:Drivers/STM32L4xx_HAL_Driver/Src/stm32l4xx_hal_spi.c ****     count--;
 8175              		.loc 1 4333 10
 8176 0050 FB68     		ldr	r3, [r7, #12]
 8177 0052 013B     		subs	r3, r3, #1
 8178 0054 FB60     		str	r3, [r7, #12]
4334:Drivers/STM32L4xx_HAL_Driver/Src/stm32l4xx_hal_spi.c ****   } while (HAL_IS_BIT_SET(hspi->Instance->CR2, SPI_CR2_RXNEIE));
 8179              		.loc 1 4334 12
 8180 0056 7B68     		ldr	r3, [r7, #4]
 8181 0058 1B68     		ldr	r3, [r3]
 8182 005a 5B68     		ldr	r3, [r3, #4]
 8183 005c 03F04003 		and	r3, r3, #64
 8184 0060 402B     		cmp	r3, #64
 8185 0062 EBD0     		beq	.L404
 8186              	.L403:
4335:Drivers/STM32L4xx_HAL_Driver/Src/stm32l4xx_hal_spi.c **** 
4336:Drivers/STM32L4xx_HAL_Driver/Src/stm32l4xx_hal_spi.c ****   /* Control the BSY flag */
4337:Drivers/STM32L4xx_HAL_Driver/Src/stm32l4xx_hal_spi.c ****   if (SPI_WaitFlagStateUntilTimeout(hspi, SPI_FLAG_BSY, RESET, SPI_DEFAULT_TIMEOUT, HAL_GetTick()) 
 8187              		.loc 1 4337 7
 8188 0064 FFF7FEFF 		bl	HAL_GetTick
 8189 0068 0346     		mov	r3, r0
 8190 006a 0093     		str	r3, [sp]
 8191 006c 6423     		movs	r3, #100
 8192 006e 0022     		movs	r2, #0
 8193 0070 8021     		movs	r1, #128
 8194 0072 7868     		ldr	r0, [r7, #4]
 8195 0074 FFF7FEFF 		bl	SPI_WaitFlagStateUntilTimeout
 8196 0078 0346     		mov	r3, r0
 8197              		.loc 1 4337 6
 8198 007a 002B     		cmp	r3, #0
 8199 007c 02D0     		beq	.L405
4338:Drivers/STM32L4xx_HAL_Driver/Src/stm32l4xx_hal_spi.c ****   {
4339:Drivers/STM32L4xx_HAL_Driver/Src/stm32l4xx_hal_spi.c ****     hspi->ErrorCode = HAL_SPI_ERROR_ABORT;
 8200              		.loc 1 4339 21
 8201 007e 7B68     		ldr	r3, [r7, #4]
 8202 0080 4022     		movs	r2, #64
 8203 0082 1A66     		str	r2, [r3, #96]
 8204              	.L405:
4340:Drivers/STM32L4xx_HAL_Driver/Src/stm32l4xx_hal_spi.c ****   }
4341:Drivers/STM32L4xx_HAL_Driver/Src/stm32l4xx_hal_spi.c **** 
4342:Drivers/STM32L4xx_HAL_Driver/Src/stm32l4xx_hal_spi.c ****   /* Empty the FRLVL fifo */
4343:Drivers/STM32L4xx_HAL_Driver/Src/stm32l4xx_hal_spi.c ****   if (SPI_WaitFifoStateUntilTimeout(hspi, SPI_FLAG_FRLVL, SPI_FRLVL_EMPTY, SPI_DEFAULT_TIMEOUT, HAL
 8205              		.loc 1 4343 7
 8206 0084 FFF7FEFF 		bl	HAL_GetTick
 8207 0088 0346     		mov	r3, r0
ARM GAS  C:\Users\Morroway\AppData\Local\Temp\ccCQJjHM.s 			page 220


 8208 008a 0093     		str	r3, [sp]
 8209 008c 6423     		movs	r3, #100
 8210 008e 0022     		movs	r2, #0
 8211 0090 4FF4C061 		mov	r1, #1536
 8212 0094 7868     		ldr	r0, [r7, #4]
 8213 0096 FFF7FEFF 		bl	SPI_WaitFifoStateUntilTimeout
 8214 009a 0346     		mov	r3, r0
 8215              		.loc 1 4343 6
 8216 009c 002B     		cmp	r3, #0
 8217 009e 02D0     		beq	.L406
4344:Drivers/STM32L4xx_HAL_Driver/Src/stm32l4xx_hal_spi.c ****   {
4345:Drivers/STM32L4xx_HAL_Driver/Src/stm32l4xx_hal_spi.c ****     hspi->ErrorCode = HAL_SPI_ERROR_ABORT;
 8218              		.loc 1 4345 21
 8219 00a0 7B68     		ldr	r3, [r7, #4]
 8220 00a2 4022     		movs	r2, #64
 8221 00a4 1A66     		str	r2, [r3, #96]
 8222              	.L406:
4346:Drivers/STM32L4xx_HAL_Driver/Src/stm32l4xx_hal_spi.c ****   }
4347:Drivers/STM32L4xx_HAL_Driver/Src/stm32l4xx_hal_spi.c **** 
4348:Drivers/STM32L4xx_HAL_Driver/Src/stm32l4xx_hal_spi.c ****   hspi->State = HAL_SPI_STATE_ABORT;
 8223              		.loc 1 4348 15
 8224 00a6 7B68     		ldr	r3, [r7, #4]
 8225 00a8 0722     		movs	r2, #7
 8226 00aa 83F85D20 		strb	r2, [r3, #93]
4349:Drivers/STM32L4xx_HAL_Driver/Src/stm32l4xx_hal_spi.c **** }
 8227              		.loc 1 4349 1
 8228 00ae 00BF     		nop
 8229 00b0 1037     		adds	r7, r7, #16
 8230              		.cfi_def_cfa_offset 8
 8231 00b2 BD46     		mov	sp, r7
 8232              		.cfi_def_cfa_register 13
 8233              		@ sp needed
 8234 00b4 80BD     		pop	{r7, pc}
 8235              	.L408:
 8236 00b6 00BF     		.align	2
 8237              	.L407:
 8238 00b8 00000000 		.word	SystemCoreClock
 8239 00bc F1197605 		.word	91625969
 8240              		.cfi_endproc
 8241              	.LFE375:
 8243              		.section	.text.SPI_AbortTx_ISR,"ax",%progbits
 8244              		.align	1
 8245              		.syntax unified
 8246              		.thumb
 8247              		.thumb_func
 8249              	SPI_AbortTx_ISR:
 8250              	.LFB376:
4350:Drivers/STM32L4xx_HAL_Driver/Src/stm32l4xx_hal_spi.c **** 
4351:Drivers/STM32L4xx_HAL_Driver/Src/stm32l4xx_hal_spi.c **** /**
4352:Drivers/STM32L4xx_HAL_Driver/Src/stm32l4xx_hal_spi.c ****   * @brief  Handle abort a Tx or Rx/Tx transaction.
4353:Drivers/STM32L4xx_HAL_Driver/Src/stm32l4xx_hal_spi.c ****   * @param  hspi pointer to a SPI_HandleTypeDef structure that contains
4354:Drivers/STM32L4xx_HAL_Driver/Src/stm32l4xx_hal_spi.c ****   *               the configuration information for SPI module.
4355:Drivers/STM32L4xx_HAL_Driver/Src/stm32l4xx_hal_spi.c ****   * @retval None
4356:Drivers/STM32L4xx_HAL_Driver/Src/stm32l4xx_hal_spi.c ****   */
4357:Drivers/STM32L4xx_HAL_Driver/Src/stm32l4xx_hal_spi.c **** static void SPI_AbortTx_ISR(SPI_HandleTypeDef *hspi)
4358:Drivers/STM32L4xx_HAL_Driver/Src/stm32l4xx_hal_spi.c **** {
 8251              		.loc 1 4358 1
ARM GAS  C:\Users\Morroway\AppData\Local\Temp\ccCQJjHM.s 			page 221


 8252              		.cfi_startproc
 8253              		@ args = 0, pretend = 0, frame = 16
 8254              		@ frame_needed = 1, uses_anonymous_args = 0
 8255 0000 80B5     		push	{r7, lr}
 8256              		.cfi_def_cfa_offset 8
 8257              		.cfi_offset 7, -8
 8258              		.cfi_offset 14, -4
 8259 0002 86B0     		sub	sp, sp, #24
 8260              		.cfi_def_cfa_offset 32
 8261 0004 02AF     		add	r7, sp, #8
 8262              		.cfi_def_cfa 7, 24
 8263 0006 7860     		str	r0, [r7, #4]
4359:Drivers/STM32L4xx_HAL_Driver/Src/stm32l4xx_hal_spi.c ****   __IO uint32_t count;
4360:Drivers/STM32L4xx_HAL_Driver/Src/stm32l4xx_hal_spi.c **** 
4361:Drivers/STM32L4xx_HAL_Driver/Src/stm32l4xx_hal_spi.c ****   count = SPI_DEFAULT_TIMEOUT * (SystemCoreClock / 24U / 1000U);
 8264              		.loc 1 4361 56
 8265 0008 4C4B     		ldr	r3, .L420
 8266 000a 1B68     		ldr	r3, [r3]
 8267 000c 4C4A     		ldr	r2, .L420+4
 8268 000e A2FB0323 		umull	r2, r3, r2, r3
 8269 0012 5B0A     		lsrs	r3, r3, #9
 8270              		.loc 1 4361 31
 8271 0014 6422     		movs	r2, #100
 8272 0016 02FB03F3 		mul	r3, r2, r3
 8273              		.loc 1 4361 9
 8274 001a FB60     		str	r3, [r7, #12]
4362:Drivers/STM32L4xx_HAL_Driver/Src/stm32l4xx_hal_spi.c **** 
4363:Drivers/STM32L4xx_HAL_Driver/Src/stm32l4xx_hal_spi.c ****   /* Disable TXEIE interrupt */
4364:Drivers/STM32L4xx_HAL_Driver/Src/stm32l4xx_hal_spi.c ****   CLEAR_BIT(hspi->Instance->CR2, (SPI_CR2_TXEIE));
 8275              		.loc 1 4364 3
 8276 001c 7B68     		ldr	r3, [r7, #4]
 8277 001e 1B68     		ldr	r3, [r3]
 8278 0020 5A68     		ldr	r2, [r3, #4]
 8279 0022 7B68     		ldr	r3, [r7, #4]
 8280 0024 1B68     		ldr	r3, [r3]
 8281 0026 22F08002 		bic	r2, r2, #128
 8282 002a 5A60     		str	r2, [r3, #4]
 8283              	.L412:
4365:Drivers/STM32L4xx_HAL_Driver/Src/stm32l4xx_hal_spi.c **** 
4366:Drivers/STM32L4xx_HAL_Driver/Src/stm32l4xx_hal_spi.c ****   /* Check TXEIE is disabled */
4367:Drivers/STM32L4xx_HAL_Driver/Src/stm32l4xx_hal_spi.c ****   do
4368:Drivers/STM32L4xx_HAL_Driver/Src/stm32l4xx_hal_spi.c ****   {
4369:Drivers/STM32L4xx_HAL_Driver/Src/stm32l4xx_hal_spi.c ****     if (count == 0U)
 8284              		.loc 1 4369 15
 8285 002c FB68     		ldr	r3, [r7, #12]
 8286              		.loc 1 4369 8
 8287 002e 002B     		cmp	r3, #0
 8288 0030 06D1     		bne	.L410
4370:Drivers/STM32L4xx_HAL_Driver/Src/stm32l4xx_hal_spi.c ****     {
4371:Drivers/STM32L4xx_HAL_Driver/Src/stm32l4xx_hal_spi.c ****       SET_BIT(hspi->ErrorCode, HAL_SPI_ERROR_ABORT);
 8289              		.loc 1 4371 7
 8290 0032 7B68     		ldr	r3, [r7, #4]
 8291 0034 1B6E     		ldr	r3, [r3, #96]
 8292 0036 43F04002 		orr	r2, r3, #64
 8293 003a 7B68     		ldr	r3, [r7, #4]
 8294 003c 1A66     		str	r2, [r3, #96]
4372:Drivers/STM32L4xx_HAL_Driver/Src/stm32l4xx_hal_spi.c ****       break;
ARM GAS  C:\Users\Morroway\AppData\Local\Temp\ccCQJjHM.s 			page 222


 8295              		.loc 1 4372 7
 8296 003e 09E0     		b	.L411
 8297              	.L410:
4373:Drivers/STM32L4xx_HAL_Driver/Src/stm32l4xx_hal_spi.c ****     }
4374:Drivers/STM32L4xx_HAL_Driver/Src/stm32l4xx_hal_spi.c ****     count--;
 8298              		.loc 1 4374 10
 8299 0040 FB68     		ldr	r3, [r7, #12]
 8300 0042 013B     		subs	r3, r3, #1
 8301 0044 FB60     		str	r3, [r7, #12]
4375:Drivers/STM32L4xx_HAL_Driver/Src/stm32l4xx_hal_spi.c ****   } while (HAL_IS_BIT_SET(hspi->Instance->CR2, SPI_CR2_TXEIE));
 8302              		.loc 1 4375 12
 8303 0046 7B68     		ldr	r3, [r7, #4]
 8304 0048 1B68     		ldr	r3, [r3]
 8305 004a 5B68     		ldr	r3, [r3, #4]
 8306 004c 03F08003 		and	r3, r3, #128
 8307 0050 802B     		cmp	r3, #128
 8308 0052 EBD0     		beq	.L412
 8309              	.L411:
4376:Drivers/STM32L4xx_HAL_Driver/Src/stm32l4xx_hal_spi.c **** 
4377:Drivers/STM32L4xx_HAL_Driver/Src/stm32l4xx_hal_spi.c ****   if (SPI_EndRxTxTransaction(hspi, SPI_DEFAULT_TIMEOUT, HAL_GetTick()) != HAL_OK)
 8310              		.loc 1 4377 7
 8311 0054 FFF7FEFF 		bl	HAL_GetTick
 8312 0058 0346     		mov	r3, r0
 8313 005a 1A46     		mov	r2, r3
 8314 005c 6421     		movs	r1, #100
 8315 005e 7868     		ldr	r0, [r7, #4]
 8316 0060 FFF7FEFF 		bl	SPI_EndRxTxTransaction
 8317 0064 0346     		mov	r3, r0
 8318              		.loc 1 4377 6
 8319 0066 002B     		cmp	r3, #0
 8320 0068 02D0     		beq	.L413
4378:Drivers/STM32L4xx_HAL_Driver/Src/stm32l4xx_hal_spi.c ****   {
4379:Drivers/STM32L4xx_HAL_Driver/Src/stm32l4xx_hal_spi.c ****     hspi->ErrorCode = HAL_SPI_ERROR_ABORT;
 8321              		.loc 1 4379 21
 8322 006a 7B68     		ldr	r3, [r7, #4]
 8323 006c 4022     		movs	r2, #64
 8324 006e 1A66     		str	r2, [r3, #96]
 8325              	.L413:
4380:Drivers/STM32L4xx_HAL_Driver/Src/stm32l4xx_hal_spi.c ****   }
4381:Drivers/STM32L4xx_HAL_Driver/Src/stm32l4xx_hal_spi.c **** 
4382:Drivers/STM32L4xx_HAL_Driver/Src/stm32l4xx_hal_spi.c ****   /* Disable SPI Peripheral */
4383:Drivers/STM32L4xx_HAL_Driver/Src/stm32l4xx_hal_spi.c ****   __HAL_SPI_DISABLE(hspi);
 8326              		.loc 1 4383 3
 8327 0070 7B68     		ldr	r3, [r7, #4]
 8328 0072 1B68     		ldr	r3, [r3]
 8329 0074 1A68     		ldr	r2, [r3]
 8330 0076 7B68     		ldr	r3, [r7, #4]
 8331 0078 1B68     		ldr	r3, [r3]
 8332 007a 22F04002 		bic	r2, r2, #64
 8333 007e 1A60     		str	r2, [r3]
4384:Drivers/STM32L4xx_HAL_Driver/Src/stm32l4xx_hal_spi.c **** 
4385:Drivers/STM32L4xx_HAL_Driver/Src/stm32l4xx_hal_spi.c ****   /* Empty the FRLVL fifo */
4386:Drivers/STM32L4xx_HAL_Driver/Src/stm32l4xx_hal_spi.c ****   if (SPI_WaitFifoStateUntilTimeout(hspi, SPI_FLAG_FRLVL, SPI_FRLVL_EMPTY, SPI_DEFAULT_TIMEOUT, HAL
 8334              		.loc 1 4386 7
 8335 0080 FFF7FEFF 		bl	HAL_GetTick
 8336 0084 0346     		mov	r3, r0
 8337 0086 0093     		str	r3, [sp]
ARM GAS  C:\Users\Morroway\AppData\Local\Temp\ccCQJjHM.s 			page 223


 8338 0088 6423     		movs	r3, #100
 8339 008a 0022     		movs	r2, #0
 8340 008c 4FF4C061 		mov	r1, #1536
 8341 0090 7868     		ldr	r0, [r7, #4]
 8342 0092 FFF7FEFF 		bl	SPI_WaitFifoStateUntilTimeout
 8343 0096 0346     		mov	r3, r0
 8344              		.loc 1 4386 6
 8345 0098 002B     		cmp	r3, #0
 8346 009a 02D0     		beq	.L414
4387:Drivers/STM32L4xx_HAL_Driver/Src/stm32l4xx_hal_spi.c ****   {
4388:Drivers/STM32L4xx_HAL_Driver/Src/stm32l4xx_hal_spi.c ****     hspi->ErrorCode = HAL_SPI_ERROR_ABORT;
 8347              		.loc 1 4388 21
 8348 009c 7B68     		ldr	r3, [r7, #4]
 8349 009e 4022     		movs	r2, #64
 8350 00a0 1A66     		str	r2, [r3, #96]
 8351              	.L414:
4389:Drivers/STM32L4xx_HAL_Driver/Src/stm32l4xx_hal_spi.c ****   }
4390:Drivers/STM32L4xx_HAL_Driver/Src/stm32l4xx_hal_spi.c **** 
4391:Drivers/STM32L4xx_HAL_Driver/Src/stm32l4xx_hal_spi.c ****   /* Check case of Full-Duplex Mode and disable directly RXNEIE interrupt */
4392:Drivers/STM32L4xx_HAL_Driver/Src/stm32l4xx_hal_spi.c ****   if (HAL_IS_BIT_SET(hspi->Instance->CR2, SPI_CR2_RXNEIE))
 8352              		.loc 1 4392 7
 8353 00a2 7B68     		ldr	r3, [r7, #4]
 8354 00a4 1B68     		ldr	r3, [r3]
 8355 00a6 5B68     		ldr	r3, [r3, #4]
 8356 00a8 03F04003 		and	r3, r3, #64
 8357              		.loc 1 4392 6
 8358 00ac 402B     		cmp	r3, #64
 8359 00ae 3CD1     		bne	.L415
4393:Drivers/STM32L4xx_HAL_Driver/Src/stm32l4xx_hal_spi.c ****   {
4394:Drivers/STM32L4xx_HAL_Driver/Src/stm32l4xx_hal_spi.c ****     /* Disable RXNEIE interrupt */
4395:Drivers/STM32L4xx_HAL_Driver/Src/stm32l4xx_hal_spi.c ****     CLEAR_BIT(hspi->Instance->CR2, (SPI_CR2_RXNEIE));
 8360              		.loc 1 4395 5
 8361 00b0 7B68     		ldr	r3, [r7, #4]
 8362 00b2 1B68     		ldr	r3, [r3]
 8363 00b4 5A68     		ldr	r2, [r3, #4]
 8364 00b6 7B68     		ldr	r3, [r7, #4]
 8365 00b8 1B68     		ldr	r3, [r3]
 8366 00ba 22F04002 		bic	r2, r2, #64
 8367 00be 5A60     		str	r2, [r3, #4]
 8368              	.L418:
4396:Drivers/STM32L4xx_HAL_Driver/Src/stm32l4xx_hal_spi.c **** 
4397:Drivers/STM32L4xx_HAL_Driver/Src/stm32l4xx_hal_spi.c ****     /* Check RXNEIE is disabled */
4398:Drivers/STM32L4xx_HAL_Driver/Src/stm32l4xx_hal_spi.c ****     do
4399:Drivers/STM32L4xx_HAL_Driver/Src/stm32l4xx_hal_spi.c ****     {
4400:Drivers/STM32L4xx_HAL_Driver/Src/stm32l4xx_hal_spi.c ****       if (count == 0U)
 8369              		.loc 1 4400 17
 8370 00c0 FB68     		ldr	r3, [r7, #12]
 8371              		.loc 1 4400 10
 8372 00c2 002B     		cmp	r3, #0
 8373 00c4 06D1     		bne	.L416
4401:Drivers/STM32L4xx_HAL_Driver/Src/stm32l4xx_hal_spi.c ****       {
4402:Drivers/STM32L4xx_HAL_Driver/Src/stm32l4xx_hal_spi.c ****         SET_BIT(hspi->ErrorCode, HAL_SPI_ERROR_ABORT);
 8374              		.loc 1 4402 9
 8375 00c6 7B68     		ldr	r3, [r7, #4]
 8376 00c8 1B6E     		ldr	r3, [r3, #96]
 8377 00ca 43F04002 		orr	r2, r3, #64
 8378 00ce 7B68     		ldr	r3, [r7, #4]
ARM GAS  C:\Users\Morroway\AppData\Local\Temp\ccCQJjHM.s 			page 224


 8379 00d0 1A66     		str	r2, [r3, #96]
4403:Drivers/STM32L4xx_HAL_Driver/Src/stm32l4xx_hal_spi.c ****         break;
 8380              		.loc 1 4403 9
 8381 00d2 09E0     		b	.L417
 8382              	.L416:
4404:Drivers/STM32L4xx_HAL_Driver/Src/stm32l4xx_hal_spi.c ****       }
4405:Drivers/STM32L4xx_HAL_Driver/Src/stm32l4xx_hal_spi.c ****       count--;
 8383              		.loc 1 4405 12
 8384 00d4 FB68     		ldr	r3, [r7, #12]
 8385 00d6 013B     		subs	r3, r3, #1
 8386 00d8 FB60     		str	r3, [r7, #12]
4406:Drivers/STM32L4xx_HAL_Driver/Src/stm32l4xx_hal_spi.c ****     } while (HAL_IS_BIT_SET(hspi->Instance->CR2, SPI_CR2_RXNEIE));
 8387              		.loc 1 4406 14
 8388 00da 7B68     		ldr	r3, [r7, #4]
 8389 00dc 1B68     		ldr	r3, [r3]
 8390 00de 5B68     		ldr	r3, [r3, #4]
 8391 00e0 03F04003 		and	r3, r3, #64
 8392 00e4 402B     		cmp	r3, #64
 8393 00e6 EBD0     		beq	.L418
 8394              	.L417:
4407:Drivers/STM32L4xx_HAL_Driver/Src/stm32l4xx_hal_spi.c **** 
4408:Drivers/STM32L4xx_HAL_Driver/Src/stm32l4xx_hal_spi.c ****     /* Control the BSY flag */
4409:Drivers/STM32L4xx_HAL_Driver/Src/stm32l4xx_hal_spi.c ****     if (SPI_WaitFlagStateUntilTimeout(hspi, SPI_FLAG_BSY, RESET, SPI_DEFAULT_TIMEOUT, HAL_GetTick()
 8395              		.loc 1 4409 9
 8396 00e8 FFF7FEFF 		bl	HAL_GetTick
 8397 00ec 0346     		mov	r3, r0
 8398 00ee 0093     		str	r3, [sp]
 8399 00f0 6423     		movs	r3, #100
 8400 00f2 0022     		movs	r2, #0
 8401 00f4 8021     		movs	r1, #128
 8402 00f6 7868     		ldr	r0, [r7, #4]
 8403 00f8 FFF7FEFF 		bl	SPI_WaitFlagStateUntilTimeout
 8404 00fc 0346     		mov	r3, r0
 8405              		.loc 1 4409 8
 8406 00fe 002B     		cmp	r3, #0
 8407 0100 02D0     		beq	.L419
4410:Drivers/STM32L4xx_HAL_Driver/Src/stm32l4xx_hal_spi.c ****     {
4411:Drivers/STM32L4xx_HAL_Driver/Src/stm32l4xx_hal_spi.c ****       hspi->ErrorCode = HAL_SPI_ERROR_ABORT;
 8408              		.loc 1 4411 23
 8409 0102 7B68     		ldr	r3, [r7, #4]
 8410 0104 4022     		movs	r2, #64
 8411 0106 1A66     		str	r2, [r3, #96]
 8412              	.L419:
4412:Drivers/STM32L4xx_HAL_Driver/Src/stm32l4xx_hal_spi.c ****     }
4413:Drivers/STM32L4xx_HAL_Driver/Src/stm32l4xx_hal_spi.c **** 
4414:Drivers/STM32L4xx_HAL_Driver/Src/stm32l4xx_hal_spi.c ****     /* Empty the FRLVL fifo */
4415:Drivers/STM32L4xx_HAL_Driver/Src/stm32l4xx_hal_spi.c ****     if (SPI_WaitFifoStateUntilTimeout(hspi, SPI_FLAG_FRLVL, SPI_FRLVL_EMPTY, SPI_DEFAULT_TIMEOUT, H
 8413              		.loc 1 4415 9
 8414 0108 FFF7FEFF 		bl	HAL_GetTick
 8415 010c 0346     		mov	r3, r0
 8416 010e 0093     		str	r3, [sp]
 8417 0110 6423     		movs	r3, #100
 8418 0112 0022     		movs	r2, #0
 8419 0114 4FF4C061 		mov	r1, #1536
 8420 0118 7868     		ldr	r0, [r7, #4]
 8421 011a FFF7FEFF 		bl	SPI_WaitFifoStateUntilTimeout
 8422 011e 0346     		mov	r3, r0
ARM GAS  C:\Users\Morroway\AppData\Local\Temp\ccCQJjHM.s 			page 225


 8423              		.loc 1 4415 8
 8424 0120 002B     		cmp	r3, #0
 8425 0122 02D0     		beq	.L415
4416:Drivers/STM32L4xx_HAL_Driver/Src/stm32l4xx_hal_spi.c ****     {
4417:Drivers/STM32L4xx_HAL_Driver/Src/stm32l4xx_hal_spi.c ****       hspi->ErrorCode = HAL_SPI_ERROR_ABORT;
 8426              		.loc 1 4417 23
 8427 0124 7B68     		ldr	r3, [r7, #4]
 8428 0126 4022     		movs	r2, #64
 8429 0128 1A66     		str	r2, [r3, #96]
 8430              	.L415:
4418:Drivers/STM32L4xx_HAL_Driver/Src/stm32l4xx_hal_spi.c ****     }
4419:Drivers/STM32L4xx_HAL_Driver/Src/stm32l4xx_hal_spi.c ****   }
4420:Drivers/STM32L4xx_HAL_Driver/Src/stm32l4xx_hal_spi.c ****   hspi->State = HAL_SPI_STATE_ABORT;
 8431              		.loc 1 4420 15
 8432 012a 7B68     		ldr	r3, [r7, #4]
 8433 012c 0722     		movs	r2, #7
 8434 012e 83F85D20 		strb	r2, [r3, #93]
4421:Drivers/STM32L4xx_HAL_Driver/Src/stm32l4xx_hal_spi.c **** }
 8435              		.loc 1 4421 1
 8436 0132 00BF     		nop
 8437 0134 1037     		adds	r7, r7, #16
 8438              		.cfi_def_cfa_offset 8
 8439 0136 BD46     		mov	sp, r7
 8440              		.cfi_def_cfa_register 13
 8441              		@ sp needed
 8442 0138 80BD     		pop	{r7, pc}
 8443              	.L421:
 8444 013a 00BF     		.align	2
 8445              	.L420:
 8446 013c 00000000 		.word	SystemCoreClock
 8447 0140 F1197605 		.word	91625969
 8448              		.cfi_endproc
 8449              	.LFE376:
 8451              		.text
 8452              	.Letext0:
 8453              		.file 2 "c:\\users\\morroway\\appdata\\roaming\\code\\user\\globalstorage\\bmd.stm32-for-vscode\\@
 8454              		.file 3 "c:\\users\\morroway\\appdata\\roaming\\code\\user\\globalstorage\\bmd.stm32-for-vscode\\@
 8455              		.file 4 "Drivers/CMSIS/Device/ST/STM32L4xx/Include/stm32l4p5xx.h"
 8456              		.file 5 "Drivers/CMSIS/Device/ST/STM32L4xx/Include/stm32l4xx.h"
 8457              		.file 6 "Drivers/STM32L4xx_HAL_Driver/Inc/stm32l4xx_hal_def.h"
 8458              		.file 7 "Drivers/STM32L4xx_HAL_Driver/Inc/stm32l4xx_hal_dma.h"
 8459              		.file 8 "Drivers/STM32L4xx_HAL_Driver/Inc/stm32l4xx_hal_spi.h"
 8460              		.file 9 "Drivers/CMSIS/Device/ST/STM32L4xx/Include/system_stm32l4xx.h"
 8461              		.file 10 "Drivers/STM32L4xx_HAL_Driver/Inc/stm32l4xx_hal.h"
ARM GAS  C:\Users\Morroway\AppData\Local\Temp\ccCQJjHM.s 			page 226


DEFINED SYMBOLS
                            *ABS*:0000000000000000 stm32l4xx_hal_spi.c
C:\Users\Morroway\AppData\Local\Temp\ccCQJjHM.s:20     .text.HAL_SPI_Init:0000000000000000 $t
C:\Users\Morroway\AppData\Local\Temp\ccCQJjHM.s:26     .text.HAL_SPI_Init:0000000000000000 HAL_SPI_Init
C:\Users\Morroway\AppData\Local\Temp\ccCQJjHM.s:298    .text.HAL_SPI_MspInit:0000000000000000 HAL_SPI_MspInit
C:\Users\Morroway\AppData\Local\Temp\ccCQJjHM.s:221    .text.HAL_SPI_DeInit:0000000000000000 $t
C:\Users\Morroway\AppData\Local\Temp\ccCQJjHM.s:227    .text.HAL_SPI_DeInit:0000000000000000 HAL_SPI_DeInit
C:\Users\Morroway\AppData\Local\Temp\ccCQJjHM.s:334    .text.HAL_SPI_MspDeInit:0000000000000000 HAL_SPI_MspDeInit
C:\Users\Morroway\AppData\Local\Temp\ccCQJjHM.s:292    .text.HAL_SPI_MspInit:0000000000000000 $t
C:\Users\Morroway\AppData\Local\Temp\ccCQJjHM.s:328    .text.HAL_SPI_MspDeInit:0000000000000000 $t
C:\Users\Morroway\AppData\Local\Temp\ccCQJjHM.s:364    .text.HAL_SPI_Transmit:0000000000000000 $t
C:\Users\Morroway\AppData\Local\Temp\ccCQJjHM.s:370    .text.HAL_SPI_Transmit:0000000000000000 HAL_SPI_Transmit
C:\Users\Morroway\AppData\Local\Temp\ccCQJjHM.s:7737   .text.SPI_EndRxTxTransaction:0000000000000000 SPI_EndRxTxTransaction
C:\Users\Morroway\AppData\Local\Temp\ccCQJjHM.s:888    .text.HAL_SPI_Receive:0000000000000000 $t
C:\Users\Morroway\AppData\Local\Temp\ccCQJjHM.s:894    .text.HAL_SPI_Receive:0000000000000000 HAL_SPI_Receive
C:\Users\Morroway\AppData\Local\Temp\ccCQJjHM.s:1305   .text.HAL_SPI_TransmitReceive:0000000000000000 HAL_SPI_TransmitReceive
C:\Users\Morroway\AppData\Local\Temp\ccCQJjHM.s:7609   .text.SPI_EndRxTransaction:0000000000000000 SPI_EndRxTransaction
C:\Users\Morroway\AppData\Local\Temp\ccCQJjHM.s:1299   .text.HAL_SPI_TransmitReceive:0000000000000000 $t
C:\Users\Morroway\AppData\Local\Temp\ccCQJjHM.s:2019   .text.HAL_SPI_Transmit_IT:0000000000000000 $t
C:\Users\Morroway\AppData\Local\Temp\ccCQJjHM.s:2025   .text.HAL_SPI_Transmit_IT:0000000000000000 HAL_SPI_Transmit_IT
C:\Users\Morroway\AppData\Local\Temp\ccCQJjHM.s:2215   .text.HAL_SPI_Transmit_IT:0000000000000114 $d
C:\Users\Morroway\AppData\Local\Temp\ccCQJjHM.s:7136   .text.SPI_TxISR_16BIT:0000000000000000 SPI_TxISR_16BIT
C:\Users\Morroway\AppData\Local\Temp\ccCQJjHM.s:7065   .text.SPI_TxISR_8BIT:0000000000000000 SPI_TxISR_8BIT
C:\Users\Morroway\AppData\Local\Temp\ccCQJjHM.s:2221   .text.HAL_SPI_Receive_IT:0000000000000000 $t
C:\Users\Morroway\AppData\Local\Temp\ccCQJjHM.s:2227   .text.HAL_SPI_Receive_IT:0000000000000000 HAL_SPI_Receive_IT
C:\Users\Morroway\AppData\Local\Temp\ccCQJjHM.s:2467   .text.HAL_SPI_TransmitReceive_IT:0000000000000000 HAL_SPI_TransmitReceive_IT
C:\Users\Morroway\AppData\Local\Temp\ccCQJjHM.s:2455   .text.HAL_SPI_Receive_IT:0000000000000158 $d
C:\Users\Morroway\AppData\Local\Temp\ccCQJjHM.s:6995   .text.SPI_RxISR_16BIT:0000000000000000 SPI_RxISR_16BIT
C:\Users\Morroway\AppData\Local\Temp\ccCQJjHM.s:6923   .text.SPI_RxISR_8BIT:0000000000000000 SPI_RxISR_8BIT
C:\Users\Morroway\AppData\Local\Temp\ccCQJjHM.s:2461   .text.HAL_SPI_TransmitReceive_IT:0000000000000000 $t
C:\Users\Morroway\AppData\Local\Temp\ccCQJjHM.s:2700   .text.HAL_SPI_TransmitReceive_IT:0000000000000150 $d
C:\Users\Morroway\AppData\Local\Temp\ccCQJjHM.s:6755   .text.SPI_2linesRxISR_16BIT:0000000000000000 SPI_2linesRxISR_16BIT
C:\Users\Morroway\AppData\Local\Temp\ccCQJjHM.s:6840   .text.SPI_2linesTxISR_16BIT:0000000000000000 SPI_2linesTxISR_16BIT
C:\Users\Morroway\AppData\Local\Temp\ccCQJjHM.s:6497   .text.SPI_2linesRxISR_8BIT:0000000000000000 SPI_2linesRxISR_8BIT
C:\Users\Morroway\AppData\Local\Temp\ccCQJjHM.s:6635   .text.SPI_2linesTxISR_8BIT:0000000000000000 SPI_2linesTxISR_8BIT
C:\Users\Morroway\AppData\Local\Temp\ccCQJjHM.s:2708   .text.HAL_SPI_Transmit_DMA:0000000000000000 $t
C:\Users\Morroway\AppData\Local\Temp\ccCQJjHM.s:2714   .text.HAL_SPI_Transmit_DMA:0000000000000000 HAL_SPI_Transmit_DMA
C:\Users\Morroway\AppData\Local\Temp\ccCQJjHM.s:3029   .text.HAL_SPI_Transmit_DMA:00000000000001dc $d
C:\Users\Morroway\AppData\Local\Temp\ccCQJjHM.s:5952   .text.SPI_DMAHalfTransmitCplt:0000000000000000 SPI_DMAHalfTransmitCplt
C:\Users\Morroway\AppData\Local\Temp\ccCQJjHM.s:5594   .text.SPI_DMATransmitCplt:0000000000000000 SPI_DMATransmitCplt
C:\Users\Morroway\AppData\Local\Temp\ccCQJjHM.s:6069   .text.SPI_DMAError:0000000000000000 SPI_DMAError
C:\Users\Morroway\AppData\Local\Temp\ccCQJjHM.s:3036   .text.HAL_SPI_Receive_DMA:0000000000000000 $t
C:\Users\Morroway\AppData\Local\Temp\ccCQJjHM.s:3042   .text.HAL_SPI_Receive_DMA:0000000000000000 HAL_SPI_Receive_DMA
C:\Users\Morroway\AppData\Local\Temp\ccCQJjHM.s:3417   .text.HAL_SPI_TransmitReceive_DMA:0000000000000000 HAL_SPI_TransmitReceive_DMA
C:\Users\Morroway\AppData\Local\Temp\ccCQJjHM.s:3404   .text.HAL_SPI_Receive_DMA:000000000000023c $d
C:\Users\Morroway\AppData\Local\Temp\ccCQJjHM.s:5991   .text.SPI_DMAHalfReceiveCplt:0000000000000000 SPI_DMAHalfReceiveCplt
C:\Users\Morroway\AppData\Local\Temp\ccCQJjHM.s:5719   .text.SPI_DMAReceiveCplt:0000000000000000 SPI_DMAReceiveCplt
C:\Users\Morroway\AppData\Local\Temp\ccCQJjHM.s:3411   .text.HAL_SPI_TransmitReceive_DMA:0000000000000000 $t
C:\Users\Morroway\AppData\Local\Temp\ccCQJjHM.s:3918   .text.HAL_SPI_TransmitReceive_DMA:0000000000000304 $d
C:\Users\Morroway\AppData\Local\Temp\ccCQJjHM.s:6030   .text.SPI_DMAHalfTransmitReceiveCplt:0000000000000000 SPI_DMAHalfTransmitReceiveCplt
C:\Users\Morroway\AppData\Local\Temp\ccCQJjHM.s:5844   .text.SPI_DMATransmitReceiveCplt:0000000000000000 SPI_DMATransmitReceiveCplt
C:\Users\Morroway\AppData\Local\Temp\ccCQJjHM.s:3927   .text.HAL_SPI_Abort:0000000000000000 $t
C:\Users\Morroway\AppData\Local\Temp\ccCQJjHM.s:3933   .text.HAL_SPI_Abort:0000000000000000 HAL_SPI_Abort
C:\Users\Morroway\AppData\Local\Temp\ccCQJjHM.s:7395   .text.SPI_WaitFifoStateUntilTimeout:0000000000000000 SPI_WaitFifoStateUntilTimeout
C:\Users\Morroway\AppData\Local\Temp\ccCQJjHM.s:7204   .text.SPI_WaitFlagStateUntilTimeout:0000000000000000 SPI_WaitFlagStateUntilTimeout
C:\Users\Morroway\AppData\Local\Temp\ccCQJjHM.s:4295   .text.HAL_SPI_Abort:0000000000000230 $d
C:\Users\Morroway\AppData\Local\Temp\ccCQJjHM.s:8249   .text.SPI_AbortTx_ISR:0000000000000000 SPI_AbortTx_ISR
ARM GAS  C:\Users\Morroway\AppData\Local\Temp\ccCQJjHM.s 			page 227


C:\Users\Morroway\AppData\Local\Temp\ccCQJjHM.s:8118   .text.SPI_AbortRx_ISR:0000000000000000 SPI_AbortRx_ISR
C:\Users\Morroway\AppData\Local\Temp\ccCQJjHM.s:4303   .text.HAL_SPI_Abort_IT:0000000000000000 $t
C:\Users\Morroway\AppData\Local\Temp\ccCQJjHM.s:4309   .text.HAL_SPI_Abort_IT:0000000000000000 HAL_SPI_Abort_IT
C:\Users\Morroway\AppData\Local\Temp\ccCQJjHM.s:5480   .text.HAL_SPI_AbortCpltCallback:0000000000000000 HAL_SPI_AbortCpltCallback
C:\Users\Morroway\AppData\Local\Temp\ccCQJjHM.s:4647   .text.HAL_SPI_Abort_IT:00000000000001dc $d
C:\Users\Morroway\AppData\Local\Temp\ccCQJjHM.s:6173   .text.SPI_DMATxAbortCallback:0000000000000000 SPI_DMATxAbortCallback
C:\Users\Morroway\AppData\Local\Temp\ccCQJjHM.s:6334   .text.SPI_DMARxAbortCallback:0000000000000000 SPI_DMARxAbortCallback
C:\Users\Morroway\AppData\Local\Temp\ccCQJjHM.s:4657   .text.HAL_SPI_DMAPause:0000000000000000 $t
C:\Users\Morroway\AppData\Local\Temp\ccCQJjHM.s:4663   .text.HAL_SPI_DMAPause:0000000000000000 HAL_SPI_DMAPause
C:\Users\Morroway\AppData\Local\Temp\ccCQJjHM.s:4721   .text.HAL_SPI_DMAResume:0000000000000000 $t
C:\Users\Morroway\AppData\Local\Temp\ccCQJjHM.s:4727   .text.HAL_SPI_DMAResume:0000000000000000 HAL_SPI_DMAResume
C:\Users\Morroway\AppData\Local\Temp\ccCQJjHM.s:4785   .text.HAL_SPI_DMAStop:0000000000000000 $t
C:\Users\Morroway\AppData\Local\Temp\ccCQJjHM.s:4791   .text.HAL_SPI_DMAStop:0000000000000000 HAL_SPI_DMAStop
C:\Users\Morroway\AppData\Local\Temp\ccCQJjHM.s:4885   .text.HAL_SPI_IRQHandler:0000000000000000 $t
C:\Users\Morroway\AppData\Local\Temp\ccCQJjHM.s:4891   .text.HAL_SPI_IRQHandler:0000000000000000 HAL_SPI_IRQHandler
C:\Users\Morroway\AppData\Local\Temp\ccCQJjHM.s:5444   .text.HAL_SPI_ErrorCallback:0000000000000000 HAL_SPI_ErrorCallback
C:\Users\Morroway\AppData\Local\Temp\ccCQJjHM.s:5217   .text.HAL_SPI_IRQHandler:00000000000001e4 $d
C:\Users\Morroway\AppData\Local\Temp\ccCQJjHM.s:6126   .text.SPI_DMAAbortOnError:0000000000000000 SPI_DMAAbortOnError
C:\Users\Morroway\AppData\Local\Temp\ccCQJjHM.s:5222   .text.HAL_SPI_TxCpltCallback:0000000000000000 $t
C:\Users\Morroway\AppData\Local\Temp\ccCQJjHM.s:5228   .text.HAL_SPI_TxCpltCallback:0000000000000000 HAL_SPI_TxCpltCallback
C:\Users\Morroway\AppData\Local\Temp\ccCQJjHM.s:5258   .text.HAL_SPI_RxCpltCallback:0000000000000000 $t
C:\Users\Morroway\AppData\Local\Temp\ccCQJjHM.s:5264   .text.HAL_SPI_RxCpltCallback:0000000000000000 HAL_SPI_RxCpltCallback
C:\Users\Morroway\AppData\Local\Temp\ccCQJjHM.s:5294   .text.HAL_SPI_TxRxCpltCallback:0000000000000000 $t
C:\Users\Morroway\AppData\Local\Temp\ccCQJjHM.s:5300   .text.HAL_SPI_TxRxCpltCallback:0000000000000000 HAL_SPI_TxRxCpltCallback
C:\Users\Morroway\AppData\Local\Temp\ccCQJjHM.s:5330   .text.HAL_SPI_TxHalfCpltCallback:0000000000000000 $t
C:\Users\Morroway\AppData\Local\Temp\ccCQJjHM.s:5336   .text.HAL_SPI_TxHalfCpltCallback:0000000000000000 HAL_SPI_TxHalfCpltCallback
C:\Users\Morroway\AppData\Local\Temp\ccCQJjHM.s:5366   .text.HAL_SPI_RxHalfCpltCallback:0000000000000000 $t
C:\Users\Morroway\AppData\Local\Temp\ccCQJjHM.s:5372   .text.HAL_SPI_RxHalfCpltCallback:0000000000000000 HAL_SPI_RxHalfCpltCallback
C:\Users\Morroway\AppData\Local\Temp\ccCQJjHM.s:5402   .text.HAL_SPI_TxRxHalfCpltCallback:0000000000000000 $t
C:\Users\Morroway\AppData\Local\Temp\ccCQJjHM.s:5408   .text.HAL_SPI_TxRxHalfCpltCallback:0000000000000000 HAL_SPI_TxRxHalfCpltCallback
C:\Users\Morroway\AppData\Local\Temp\ccCQJjHM.s:5438   .text.HAL_SPI_ErrorCallback:0000000000000000 $t
C:\Users\Morroway\AppData\Local\Temp\ccCQJjHM.s:5474   .text.HAL_SPI_AbortCpltCallback:0000000000000000 $t
C:\Users\Morroway\AppData\Local\Temp\ccCQJjHM.s:5510   .text.HAL_SPI_GetState:0000000000000000 $t
C:\Users\Morroway\AppData\Local\Temp\ccCQJjHM.s:5516   .text.HAL_SPI_GetState:0000000000000000 HAL_SPI_GetState
C:\Users\Morroway\AppData\Local\Temp\ccCQJjHM.s:5550   .text.HAL_SPI_GetError:0000000000000000 $t
C:\Users\Morroway\AppData\Local\Temp\ccCQJjHM.s:5556   .text.HAL_SPI_GetError:0000000000000000 HAL_SPI_GetError
C:\Users\Morroway\AppData\Local\Temp\ccCQJjHM.s:5589   .text.SPI_DMATransmitCplt:0000000000000000 $t
C:\Users\Morroway\AppData\Local\Temp\ccCQJjHM.s:5714   .text.SPI_DMAReceiveCplt:0000000000000000 $t
C:\Users\Morroway\AppData\Local\Temp\ccCQJjHM.s:5839   .text.SPI_DMATransmitReceiveCplt:0000000000000000 $t
C:\Users\Morroway\AppData\Local\Temp\ccCQJjHM.s:5947   .text.SPI_DMAHalfTransmitCplt:0000000000000000 $t
C:\Users\Morroway\AppData\Local\Temp\ccCQJjHM.s:5986   .text.SPI_DMAHalfReceiveCplt:0000000000000000 $t
C:\Users\Morroway\AppData\Local\Temp\ccCQJjHM.s:6025   .text.SPI_DMAHalfTransmitReceiveCplt:0000000000000000 $t
C:\Users\Morroway\AppData\Local\Temp\ccCQJjHM.s:6064   .text.SPI_DMAError:0000000000000000 $t
C:\Users\Morroway\AppData\Local\Temp\ccCQJjHM.s:6121   .text.SPI_DMAAbortOnError:0000000000000000 $t
C:\Users\Morroway\AppData\Local\Temp\ccCQJjHM.s:6168   .text.SPI_DMATxAbortCallback:0000000000000000 $t
C:\Users\Morroway\AppData\Local\Temp\ccCQJjHM.s:6329   .text.SPI_DMARxAbortCallback:0000000000000000 $t
C:\Users\Morroway\AppData\Local\Temp\ccCQJjHM.s:6492   .text.SPI_2linesRxISR_8BIT:0000000000000000 $t
C:\Users\Morroway\AppData\Local\Temp\ccCQJjHM.s:7840   .text.SPI_CloseRxTx_ISR:0000000000000000 SPI_CloseRxTx_ISR
C:\Users\Morroway\AppData\Local\Temp\ccCQJjHM.s:6630   .text.SPI_2linesTxISR_8BIT:0000000000000000 $t
C:\Users\Morroway\AppData\Local\Temp\ccCQJjHM.s:6750   .text.SPI_2linesRxISR_16BIT:0000000000000000 $t
C:\Users\Morroway\AppData\Local\Temp\ccCQJjHM.s:6835   .text.SPI_2linesTxISR_16BIT:0000000000000000 $t
C:\Users\Morroway\AppData\Local\Temp\ccCQJjHM.s:6918   .text.SPI_RxISR_8BIT:0000000000000000 $t
C:\Users\Morroway\AppData\Local\Temp\ccCQJjHM.s:7940   .text.SPI_CloseRx_ISR:0000000000000000 SPI_CloseRx_ISR
C:\Users\Morroway\AppData\Local\Temp\ccCQJjHM.s:6990   .text.SPI_RxISR_16BIT:0000000000000000 $t
C:\Users\Morroway\AppData\Local\Temp\ccCQJjHM.s:7060   .text.SPI_TxISR_8BIT:0000000000000000 $t
C:\Users\Morroway\AppData\Local\Temp\ccCQJjHM.s:8018   .text.SPI_CloseTx_ISR:0000000000000000 SPI_CloseTx_ISR
C:\Users\Morroway\AppData\Local\Temp\ccCQJjHM.s:7131   .text.SPI_TxISR_16BIT:0000000000000000 $t
ARM GAS  C:\Users\Morroway\AppData\Local\Temp\ccCQJjHM.s 			page 228


C:\Users\Morroway\AppData\Local\Temp\ccCQJjHM.s:7199   .text.SPI_WaitFlagStateUntilTimeout:0000000000000000 $t
C:\Users\Morroway\AppData\Local\Temp\ccCQJjHM.s:7385   .text.SPI_WaitFlagStateUntilTimeout:000000000000010c $d
C:\Users\Morroway\AppData\Local\Temp\ccCQJjHM.s:7390   .text.SPI_WaitFifoStateUntilTimeout:0000000000000000 $t
C:\Users\Morroway\AppData\Local\Temp\ccCQJjHM.s:7599   .text.SPI_WaitFifoStateUntilTimeout:0000000000000128 $d
C:\Users\Morroway\AppData\Local\Temp\ccCQJjHM.s:7604   .text.SPI_EndRxTransaction:0000000000000000 $t
C:\Users\Morroway\AppData\Local\Temp\ccCQJjHM.s:7732   .text.SPI_EndRxTxTransaction:0000000000000000 $t
C:\Users\Morroway\AppData\Local\Temp\ccCQJjHM.s:7835   .text.SPI_CloseRxTx_ISR:0000000000000000 $t
C:\Users\Morroway\AppData\Local\Temp\ccCQJjHM.s:7935   .text.SPI_CloseRx_ISR:0000000000000000 $t
C:\Users\Morroway\AppData\Local\Temp\ccCQJjHM.s:8013   .text.SPI_CloseTx_ISR:0000000000000000 $t
C:\Users\Morroway\AppData\Local\Temp\ccCQJjHM.s:8113   .text.SPI_AbortRx_ISR:0000000000000000 $t
C:\Users\Morroway\AppData\Local\Temp\ccCQJjHM.s:8238   .text.SPI_AbortRx_ISR:00000000000000b8 $d
C:\Users\Morroway\AppData\Local\Temp\ccCQJjHM.s:8244   .text.SPI_AbortTx_ISR:0000000000000000 $t
C:\Users\Morroway\AppData\Local\Temp\ccCQJjHM.s:8446   .text.SPI_AbortTx_ISR:000000000000013c $d

UNDEFINED SYMBOLS
HAL_GetTick
HAL_DMA_Start_IT
HAL_DMA_Abort
SystemCoreClock
HAL_DMA_Abort_IT
