ARM GAS  C:\Users\Morroway\AppData\Local\Temp\cc5tRrQy.s 			page 1


   1              		.cpu cortex-m4
   2              		.arch armv7e-m
   3              		.fpu fpv4-sp-d16
   4              		.eabi_attribute 27, 1
   5              		.eabi_attribute 28, 1
   6              		.eabi_attribute 20, 1
   7              		.eabi_attribute 21, 1
   8              		.eabi_attribute 23, 3
   9              		.eabi_attribute 24, 1
  10              		.eabi_attribute 25, 1
  11              		.eabi_attribute 26, 1
  12              		.eabi_attribute 30, 6
  13              		.eabi_attribute 34, 1
  14              		.eabi_attribute 18, 4
  15              		.file	"stm32l4xx_it.c"
  16              		.text
  17              	.Ltext0:
  18              		.cfi_sections	.debug_frame
  19              		.section	.bss.R,"aw",%nobits
  20              		.align	1
  23              	R:
  24 0000 0000     		.space	2
  25              		.section	.bss.T,"aw",%nobits
  26              		.align	1
  29              	T:
  30 0000 0000     		.space	2
  31              		.section	.bss.S,"aw",%nobits
  32              		.align	1
  35              	S:
  36 0000 0000     		.space	2
  37              		.section	.bss.msg_buffer,"aw",%nobits
  38              		.align	2
  41              	msg_buffer:
  42 0000 00000000 		.space	30
  42      00000000 
  42      00000000 
  42      00000000 
  42      00000000 
  43              		.section	.bss.value,"aw",%nobits
  44              		.align	2
  47              	value:
  48 0000 00000000 		.space	12
  48      00000000 
  48      00000000 
  49              		.section	.bss.RxBuf,"aw",%nobits
  50              		.align	2
  53              	RxBuf:
  54 0000 00000000 		.space	20
  54      00000000 
  54      00000000 
  54      00000000 
  54      00000000 
  55              		.section	.text.NMI_Handler,"ax",%progbits
  56              		.align	1
  57              		.global	NMI_Handler
  58              		.syntax unified
  59              		.thumb
ARM GAS  C:\Users\Morroway\AppData\Local\Temp\cc5tRrQy.s 			page 2


  60              		.thumb_func
  62              	NMI_Handler:
  63              	.LFB321:
  64              		.file 1 "Core/Src/stm32l4xx_it.c"
   1:Core/Src/stm32l4xx_it.c **** /* USER CODE BEGIN Header */
   2:Core/Src/stm32l4xx_it.c **** /**
   3:Core/Src/stm32l4xx_it.c ****   ******************************************************************************
   4:Core/Src/stm32l4xx_it.c ****   * @file    stm32l4xx_it.c
   5:Core/Src/stm32l4xx_it.c ****   * @brief   Interrupt Service Routines.
   6:Core/Src/stm32l4xx_it.c ****   ******************************************************************************
   7:Core/Src/stm32l4xx_it.c ****   * @attention
   8:Core/Src/stm32l4xx_it.c ****   *
   9:Core/Src/stm32l4xx_it.c ****   * Copyright (c) 2022 STMicroelectronics.
  10:Core/Src/stm32l4xx_it.c ****   * All rights reserved.
  11:Core/Src/stm32l4xx_it.c ****   *
  12:Core/Src/stm32l4xx_it.c ****   * This software is licensed under terms that can be found in the LICENSE file
  13:Core/Src/stm32l4xx_it.c ****   * in the root directory of this software component.
  14:Core/Src/stm32l4xx_it.c ****   * If no LICENSE file comes with this software, it is provided AS-IS.
  15:Core/Src/stm32l4xx_it.c ****   *
  16:Core/Src/stm32l4xx_it.c ****   ******************************************************************************
  17:Core/Src/stm32l4xx_it.c ****   */
  18:Core/Src/stm32l4xx_it.c **** /* USER CODE END Header */
  19:Core/Src/stm32l4xx_it.c **** 
  20:Core/Src/stm32l4xx_it.c **** /* Includes ------------------------------------------------------------------*/
  21:Core/Src/stm32l4xx_it.c **** #include "main.h"
  22:Core/Src/stm32l4xx_it.c **** #include "stm32l4xx_it.h"
  23:Core/Src/stm32l4xx_it.c **** /* Private includes ----------------------------------------------------------*/
  24:Core/Src/stm32l4xx_it.c **** /* USER CODE BEGIN Includes */
  25:Core/Src/stm32l4xx_it.c **** /* USER CODE END Includes */
  26:Core/Src/stm32l4xx_it.c **** 
  27:Core/Src/stm32l4xx_it.c **** /* Private typedef -----------------------------------------------------------*/
  28:Core/Src/stm32l4xx_it.c **** /* USER CODE BEGIN TD */
  29:Core/Src/stm32l4xx_it.c **** 
  30:Core/Src/stm32l4xx_it.c **** /* USER CODE END TD */
  31:Core/Src/stm32l4xx_it.c **** 
  32:Core/Src/stm32l4xx_it.c **** /* Private define ------------------------------------------------------------*/
  33:Core/Src/stm32l4xx_it.c **** /* USER CODE BEGIN PD */
  34:Core/Src/stm32l4xx_it.c **** 
  35:Core/Src/stm32l4xx_it.c **** /* USER CODE END PD */
  36:Core/Src/stm32l4xx_it.c **** 
  37:Core/Src/stm32l4xx_it.c **** /* Private macro -------------------------------------------------------------*/
  38:Core/Src/stm32l4xx_it.c **** /* USER CODE BEGIN PM */
  39:Core/Src/stm32l4xx_it.c **** 
  40:Core/Src/stm32l4xx_it.c **** /* USER CODE END PM */
  41:Core/Src/stm32l4xx_it.c **** 
  42:Core/Src/stm32l4xx_it.c **** /* Private variables ---------------------------------------------------------*/
  43:Core/Src/stm32l4xx_it.c **** /* USER CODE BEGIN PV */
  44:Core/Src/stm32l4xx_it.c **** 
  45:Core/Src/stm32l4xx_it.c **** /* USER CODE END PV */
  46:Core/Src/stm32l4xx_it.c **** 
  47:Core/Src/stm32l4xx_it.c **** /* Private function prototypes -----------------------------------------------*/
  48:Core/Src/stm32l4xx_it.c **** /* USER CODE BEGIN PFP */
  49:Core/Src/stm32l4xx_it.c **** 
  50:Core/Src/stm32l4xx_it.c **** /* USER CODE END PFP */
  51:Core/Src/stm32l4xx_it.c **** 
  52:Core/Src/stm32l4xx_it.c **** /* Private user code ---------------------------------------------------------*/
  53:Core/Src/stm32l4xx_it.c **** /* USER CODE BEGIN 0 */
ARM GAS  C:\Users\Morroway\AppData\Local\Temp\cc5tRrQy.s 			page 3


  54:Core/Src/stm32l4xx_it.c **** 
  55:Core/Src/stm32l4xx_it.c **** /* USER CODE END 0 */
  56:Core/Src/stm32l4xx_it.c **** 
  57:Core/Src/stm32l4xx_it.c **** /* External variables --------------------------------------------------------*/
  58:Core/Src/stm32l4xx_it.c **** extern DMA_HandleTypeDef hdma_adc1;
  59:Core/Src/stm32l4xx_it.c **** extern DMA_HandleTypeDef hdma_lpuart1_rx;
  60:Core/Src/stm32l4xx_it.c **** extern UART_HandleTypeDef hlpuart1;
  61:Core/Src/stm32l4xx_it.c **** /* USER CODE BEGIN EV */
  62:Core/Src/stm32l4xx_it.c **** 
  63:Core/Src/stm32l4xx_it.c **** /* USER CODE END EV */
  64:Core/Src/stm32l4xx_it.c **** 
  65:Core/Src/stm32l4xx_it.c **** /******************************************************************************/
  66:Core/Src/stm32l4xx_it.c **** /*           Cortex-M4 Processor Interruption and Exception Handlers          */
  67:Core/Src/stm32l4xx_it.c **** /******************************************************************************/
  68:Core/Src/stm32l4xx_it.c **** /**
  69:Core/Src/stm32l4xx_it.c ****   * @brief This function handles Non maskable interrupt.
  70:Core/Src/stm32l4xx_it.c ****   */
  71:Core/Src/stm32l4xx_it.c **** void NMI_Handler(void)
  72:Core/Src/stm32l4xx_it.c **** {
  65              		.loc 1 72 1
  66              		.cfi_startproc
  67              		@ args = 0, pretend = 0, frame = 0
  68              		@ frame_needed = 1, uses_anonymous_args = 0
  69              		@ link register save eliminated.
  70 0000 80B4     		push	{r7}
  71              		.cfi_def_cfa_offset 4
  72              		.cfi_offset 7, -4
  73 0002 00AF     		add	r7, sp, #0
  74              		.cfi_def_cfa_register 7
  75              	.L2:
  73:Core/Src/stm32l4xx_it.c ****   /* USER CODE BEGIN NonMaskableInt_IRQn 0 */
  74:Core/Src/stm32l4xx_it.c **** 
  75:Core/Src/stm32l4xx_it.c ****   /* USER CODE END NonMaskableInt_IRQn 0 */
  76:Core/Src/stm32l4xx_it.c ****   /* USER CODE BEGIN NonMaskableInt_IRQn 1 */
  77:Core/Src/stm32l4xx_it.c ****   while (1)
  76              		.loc 1 77 9 discriminator 1
  77 0004 FEE7     		b	.L2
  78              		.cfi_endproc
  79              	.LFE321:
  81              		.section	.text.HardFault_Handler,"ax",%progbits
  82              		.align	1
  83              		.global	HardFault_Handler
  84              		.syntax unified
  85              		.thumb
  86              		.thumb_func
  88              	HardFault_Handler:
  89              	.LFB322:
  78:Core/Src/stm32l4xx_it.c ****   {
  79:Core/Src/stm32l4xx_it.c ****   }
  80:Core/Src/stm32l4xx_it.c ****   /* USER CODE END NonMaskableInt_IRQn 1 */
  81:Core/Src/stm32l4xx_it.c **** }
  82:Core/Src/stm32l4xx_it.c **** 
  83:Core/Src/stm32l4xx_it.c **** /**
  84:Core/Src/stm32l4xx_it.c ****   * @brief This function handles Hard fault interrupt.
  85:Core/Src/stm32l4xx_it.c ****   */
  86:Core/Src/stm32l4xx_it.c **** void HardFault_Handler(void)
  87:Core/Src/stm32l4xx_it.c **** {
ARM GAS  C:\Users\Morroway\AppData\Local\Temp\cc5tRrQy.s 			page 4


  90              		.loc 1 87 1
  91              		.cfi_startproc
  92              		@ args = 0, pretend = 0, frame = 0
  93              		@ frame_needed = 1, uses_anonymous_args = 0
  94              		@ link register save eliminated.
  95 0000 80B4     		push	{r7}
  96              		.cfi_def_cfa_offset 4
  97              		.cfi_offset 7, -4
  98 0002 00AF     		add	r7, sp, #0
  99              		.cfi_def_cfa_register 7
 100              	.L4:
  88:Core/Src/stm32l4xx_it.c ****   /* USER CODE BEGIN HardFault_IRQn 0 */
  89:Core/Src/stm32l4xx_it.c **** 
  90:Core/Src/stm32l4xx_it.c ****   /* USER CODE END HardFault_IRQn 0 */
  91:Core/Src/stm32l4xx_it.c ****   while (1)
 101              		.loc 1 91 9 discriminator 1
 102 0004 FEE7     		b	.L4
 103              		.cfi_endproc
 104              	.LFE322:
 106              		.section	.text.MemManage_Handler,"ax",%progbits
 107              		.align	1
 108              		.global	MemManage_Handler
 109              		.syntax unified
 110              		.thumb
 111              		.thumb_func
 113              	MemManage_Handler:
 114              	.LFB323:
  92:Core/Src/stm32l4xx_it.c ****   {
  93:Core/Src/stm32l4xx_it.c ****     /* USER CODE BEGIN W1_HardFault_IRQn 0 */
  94:Core/Src/stm32l4xx_it.c ****     /* USER CODE END W1_HardFault_IRQn 0 */
  95:Core/Src/stm32l4xx_it.c ****   }
  96:Core/Src/stm32l4xx_it.c **** }
  97:Core/Src/stm32l4xx_it.c **** 
  98:Core/Src/stm32l4xx_it.c **** /**
  99:Core/Src/stm32l4xx_it.c ****   * @brief This function handles Memory management fault.
 100:Core/Src/stm32l4xx_it.c ****   */
 101:Core/Src/stm32l4xx_it.c **** void MemManage_Handler(void)
 102:Core/Src/stm32l4xx_it.c **** {
 115              		.loc 1 102 1
 116              		.cfi_startproc
 117              		@ args = 0, pretend = 0, frame = 0
 118              		@ frame_needed = 1, uses_anonymous_args = 0
 119              		@ link register save eliminated.
 120 0000 80B4     		push	{r7}
 121              		.cfi_def_cfa_offset 4
 122              		.cfi_offset 7, -4
 123 0002 00AF     		add	r7, sp, #0
 124              		.cfi_def_cfa_register 7
 125              	.L6:
 103:Core/Src/stm32l4xx_it.c ****   /* USER CODE BEGIN MemoryManagement_IRQn 0 */
 104:Core/Src/stm32l4xx_it.c **** 
 105:Core/Src/stm32l4xx_it.c ****   /* USER CODE END MemoryManagement_IRQn 0 */
 106:Core/Src/stm32l4xx_it.c ****   while (1)
 126              		.loc 1 106 9 discriminator 1
 127 0004 FEE7     		b	.L6
 128              		.cfi_endproc
 129              	.LFE323:
ARM GAS  C:\Users\Morroway\AppData\Local\Temp\cc5tRrQy.s 			page 5


 131              		.section	.text.BusFault_Handler,"ax",%progbits
 132              		.align	1
 133              		.global	BusFault_Handler
 134              		.syntax unified
 135              		.thumb
 136              		.thumb_func
 138              	BusFault_Handler:
 139              	.LFB324:
 107:Core/Src/stm32l4xx_it.c ****   {
 108:Core/Src/stm32l4xx_it.c ****     /* USER CODE BEGIN W1_MemoryManagement_IRQn 0 */
 109:Core/Src/stm32l4xx_it.c ****     /* USER CODE END W1_MemoryManagement_IRQn 0 */
 110:Core/Src/stm32l4xx_it.c ****   }
 111:Core/Src/stm32l4xx_it.c **** }
 112:Core/Src/stm32l4xx_it.c **** 
 113:Core/Src/stm32l4xx_it.c **** /**
 114:Core/Src/stm32l4xx_it.c ****   * @brief This function handles Prefetch fault, memory access fault.
 115:Core/Src/stm32l4xx_it.c ****   */
 116:Core/Src/stm32l4xx_it.c **** void BusFault_Handler(void)
 117:Core/Src/stm32l4xx_it.c **** {
 140              		.loc 1 117 1
 141              		.cfi_startproc
 142              		@ args = 0, pretend = 0, frame = 0
 143              		@ frame_needed = 1, uses_anonymous_args = 0
 144              		@ link register save eliminated.
 145 0000 80B4     		push	{r7}
 146              		.cfi_def_cfa_offset 4
 147              		.cfi_offset 7, -4
 148 0002 00AF     		add	r7, sp, #0
 149              		.cfi_def_cfa_register 7
 150              	.L8:
 118:Core/Src/stm32l4xx_it.c ****   /* USER CODE BEGIN BusFault_IRQn 0 */
 119:Core/Src/stm32l4xx_it.c **** 
 120:Core/Src/stm32l4xx_it.c ****   /* USER CODE END BusFault_IRQn 0 */
 121:Core/Src/stm32l4xx_it.c ****   while (1)
 151              		.loc 1 121 9 discriminator 1
 152 0004 FEE7     		b	.L8
 153              		.cfi_endproc
 154              	.LFE324:
 156              		.section	.text.UsageFault_Handler,"ax",%progbits
 157              		.align	1
 158              		.global	UsageFault_Handler
 159              		.syntax unified
 160              		.thumb
 161              		.thumb_func
 163              	UsageFault_Handler:
 164              	.LFB325:
 122:Core/Src/stm32l4xx_it.c ****   {
 123:Core/Src/stm32l4xx_it.c ****     /* USER CODE BEGIN W1_BusFault_IRQn 0 */
 124:Core/Src/stm32l4xx_it.c ****     /* USER CODE END W1_BusFault_IRQn 0 */
 125:Core/Src/stm32l4xx_it.c ****   }
 126:Core/Src/stm32l4xx_it.c **** }
 127:Core/Src/stm32l4xx_it.c **** 
 128:Core/Src/stm32l4xx_it.c **** /**
 129:Core/Src/stm32l4xx_it.c ****   * @brief This function handles Undefined instruction or illegal state.
 130:Core/Src/stm32l4xx_it.c ****   */
 131:Core/Src/stm32l4xx_it.c **** void UsageFault_Handler(void)
 132:Core/Src/stm32l4xx_it.c **** {
ARM GAS  C:\Users\Morroway\AppData\Local\Temp\cc5tRrQy.s 			page 6


 165              		.loc 1 132 1
 166              		.cfi_startproc
 167              		@ args = 0, pretend = 0, frame = 0
 168              		@ frame_needed = 1, uses_anonymous_args = 0
 169              		@ link register save eliminated.
 170 0000 80B4     		push	{r7}
 171              		.cfi_def_cfa_offset 4
 172              		.cfi_offset 7, -4
 173 0002 00AF     		add	r7, sp, #0
 174              		.cfi_def_cfa_register 7
 175              	.L10:
 133:Core/Src/stm32l4xx_it.c ****   /* USER CODE BEGIN UsageFault_IRQn 0 */
 134:Core/Src/stm32l4xx_it.c **** 
 135:Core/Src/stm32l4xx_it.c ****   /* USER CODE END UsageFault_IRQn 0 */
 136:Core/Src/stm32l4xx_it.c ****   while (1)
 176              		.loc 1 136 9 discriminator 1
 177 0004 FEE7     		b	.L10
 178              		.cfi_endproc
 179              	.LFE325:
 181              		.section	.text.SVC_Handler,"ax",%progbits
 182              		.align	1
 183              		.global	SVC_Handler
 184              		.syntax unified
 185              		.thumb
 186              		.thumb_func
 188              	SVC_Handler:
 189              	.LFB326:
 137:Core/Src/stm32l4xx_it.c ****   {
 138:Core/Src/stm32l4xx_it.c ****     /* USER CODE BEGIN W1_UsageFault_IRQn 0 */
 139:Core/Src/stm32l4xx_it.c ****     /* USER CODE END W1_UsageFault_IRQn 0 */
 140:Core/Src/stm32l4xx_it.c ****   }
 141:Core/Src/stm32l4xx_it.c **** }
 142:Core/Src/stm32l4xx_it.c **** 
 143:Core/Src/stm32l4xx_it.c **** /**
 144:Core/Src/stm32l4xx_it.c ****   * @brief This function handles System service call via SWI instruction.
 145:Core/Src/stm32l4xx_it.c ****   */
 146:Core/Src/stm32l4xx_it.c **** void SVC_Handler(void)
 147:Core/Src/stm32l4xx_it.c **** {
 190              		.loc 1 147 1
 191              		.cfi_startproc
 192              		@ args = 0, pretend = 0, frame = 0
 193              		@ frame_needed = 1, uses_anonymous_args = 0
 194              		@ link register save eliminated.
 195 0000 80B4     		push	{r7}
 196              		.cfi_def_cfa_offset 4
 197              		.cfi_offset 7, -4
 198 0002 00AF     		add	r7, sp, #0
 199              		.cfi_def_cfa_register 7
 148:Core/Src/stm32l4xx_it.c ****   /* USER CODE BEGIN SVCall_IRQn 0 */
 149:Core/Src/stm32l4xx_it.c **** 
 150:Core/Src/stm32l4xx_it.c ****   /* USER CODE END SVCall_IRQn 0 */
 151:Core/Src/stm32l4xx_it.c ****   /* USER CODE BEGIN SVCall_IRQn 1 */
 152:Core/Src/stm32l4xx_it.c **** 
 153:Core/Src/stm32l4xx_it.c ****   /* USER CODE END SVCall_IRQn 1 */
 154:Core/Src/stm32l4xx_it.c **** }
 200              		.loc 1 154 1
 201 0004 00BF     		nop
ARM GAS  C:\Users\Morroway\AppData\Local\Temp\cc5tRrQy.s 			page 7


 202 0006 BD46     		mov	sp, r7
 203              		.cfi_def_cfa_register 13
 204              		@ sp needed
 205 0008 5DF8047B 		ldr	r7, [sp], #4
 206              		.cfi_restore 7
 207              		.cfi_def_cfa_offset 0
 208 000c 7047     		bx	lr
 209              		.cfi_endproc
 210              	.LFE326:
 212              		.section	.text.DebugMon_Handler,"ax",%progbits
 213              		.align	1
 214              		.global	DebugMon_Handler
 215              		.syntax unified
 216              		.thumb
 217              		.thumb_func
 219              	DebugMon_Handler:
 220              	.LFB327:
 155:Core/Src/stm32l4xx_it.c **** 
 156:Core/Src/stm32l4xx_it.c **** /**
 157:Core/Src/stm32l4xx_it.c ****   * @brief This function handles Debug monitor.
 158:Core/Src/stm32l4xx_it.c ****   */
 159:Core/Src/stm32l4xx_it.c **** void DebugMon_Handler(void)
 160:Core/Src/stm32l4xx_it.c **** {
 221              		.loc 1 160 1
 222              		.cfi_startproc
 223              		@ args = 0, pretend = 0, frame = 0
 224              		@ frame_needed = 1, uses_anonymous_args = 0
 225              		@ link register save eliminated.
 226 0000 80B4     		push	{r7}
 227              		.cfi_def_cfa_offset 4
 228              		.cfi_offset 7, -4
 229 0002 00AF     		add	r7, sp, #0
 230              		.cfi_def_cfa_register 7
 161:Core/Src/stm32l4xx_it.c ****   /* USER CODE BEGIN DebugMonitor_IRQn 0 */
 162:Core/Src/stm32l4xx_it.c **** 
 163:Core/Src/stm32l4xx_it.c ****   /* USER CODE END DebugMonitor_IRQn 0 */
 164:Core/Src/stm32l4xx_it.c ****   /* USER CODE BEGIN DebugMonitor_IRQn 1 */
 165:Core/Src/stm32l4xx_it.c **** 
 166:Core/Src/stm32l4xx_it.c ****   /* USER CODE END DebugMonitor_IRQn 1 */
 167:Core/Src/stm32l4xx_it.c **** }
 231              		.loc 1 167 1
 232 0004 00BF     		nop
 233 0006 BD46     		mov	sp, r7
 234              		.cfi_def_cfa_register 13
 235              		@ sp needed
 236 0008 5DF8047B 		ldr	r7, [sp], #4
 237              		.cfi_restore 7
 238              		.cfi_def_cfa_offset 0
 239 000c 7047     		bx	lr
 240              		.cfi_endproc
 241              	.LFE327:
 243              		.section	.text.PendSV_Handler,"ax",%progbits
 244              		.align	1
 245              		.global	PendSV_Handler
 246              		.syntax unified
 247              		.thumb
 248              		.thumb_func
ARM GAS  C:\Users\Morroway\AppData\Local\Temp\cc5tRrQy.s 			page 8


 250              	PendSV_Handler:
 251              	.LFB328:
 168:Core/Src/stm32l4xx_it.c **** 
 169:Core/Src/stm32l4xx_it.c **** /**
 170:Core/Src/stm32l4xx_it.c ****   * @brief This function handles Pendable request for system service.
 171:Core/Src/stm32l4xx_it.c ****   */
 172:Core/Src/stm32l4xx_it.c **** void PendSV_Handler(void)
 173:Core/Src/stm32l4xx_it.c **** {
 252              		.loc 1 173 1
 253              		.cfi_startproc
 254              		@ args = 0, pretend = 0, frame = 0
 255              		@ frame_needed = 1, uses_anonymous_args = 0
 256              		@ link register save eliminated.
 257 0000 80B4     		push	{r7}
 258              		.cfi_def_cfa_offset 4
 259              		.cfi_offset 7, -4
 260 0002 00AF     		add	r7, sp, #0
 261              		.cfi_def_cfa_register 7
 174:Core/Src/stm32l4xx_it.c ****   /* USER CODE BEGIN PendSV_IRQn 0 */
 175:Core/Src/stm32l4xx_it.c **** 
 176:Core/Src/stm32l4xx_it.c ****   /* USER CODE END PendSV_IRQn 0 */
 177:Core/Src/stm32l4xx_it.c ****   /* USER CODE BEGIN PendSV_IRQn 1 */
 178:Core/Src/stm32l4xx_it.c **** 
 179:Core/Src/stm32l4xx_it.c ****   /* USER CODE END PendSV_IRQn 1 */
 180:Core/Src/stm32l4xx_it.c **** }
 262              		.loc 1 180 1
 263 0004 00BF     		nop
 264 0006 BD46     		mov	sp, r7
 265              		.cfi_def_cfa_register 13
 266              		@ sp needed
 267 0008 5DF8047B 		ldr	r7, [sp], #4
 268              		.cfi_restore 7
 269              		.cfi_def_cfa_offset 0
 270 000c 7047     		bx	lr
 271              		.cfi_endproc
 272              	.LFE328:
 274              		.section	.text.SysTick_Handler,"ax",%progbits
 275              		.align	1
 276              		.global	SysTick_Handler
 277              		.syntax unified
 278              		.thumb
 279              		.thumb_func
 281              	SysTick_Handler:
 282              	.LFB329:
 181:Core/Src/stm32l4xx_it.c **** 
 182:Core/Src/stm32l4xx_it.c **** /**
 183:Core/Src/stm32l4xx_it.c ****   * @brief This function handles System tick timer.
 184:Core/Src/stm32l4xx_it.c ****   */
 185:Core/Src/stm32l4xx_it.c **** void SysTick_Handler(void)
 186:Core/Src/stm32l4xx_it.c **** {
 283              		.loc 1 186 1
 284              		.cfi_startproc
 285              		@ args = 0, pretend = 0, frame = 0
 286              		@ frame_needed = 1, uses_anonymous_args = 0
 287 0000 80B5     		push	{r7, lr}
 288              		.cfi_def_cfa_offset 8
 289              		.cfi_offset 7, -8
ARM GAS  C:\Users\Morroway\AppData\Local\Temp\cc5tRrQy.s 			page 9


 290              		.cfi_offset 14, -4
 291 0002 00AF     		add	r7, sp, #0
 292              		.cfi_def_cfa_register 7
 187:Core/Src/stm32l4xx_it.c ****   /* USER CODE BEGIN SysTick_IRQn 0 */
 188:Core/Src/stm32l4xx_it.c **** 
 189:Core/Src/stm32l4xx_it.c ****   /* USER CODE END SysTick_IRQn 0 */
 190:Core/Src/stm32l4xx_it.c ****   HAL_IncTick();
 293              		.loc 1 190 3
 294 0004 FFF7FEFF 		bl	HAL_IncTick
 191:Core/Src/stm32l4xx_it.c ****   /* USER CODE BEGIN SysTick_IRQn 1 */
 192:Core/Src/stm32l4xx_it.c **** 
 193:Core/Src/stm32l4xx_it.c ****   /* USER CODE END SysTick_IRQn 1 */
 194:Core/Src/stm32l4xx_it.c **** }
 295              		.loc 1 194 1
 296 0008 00BF     		nop
 297 000a 80BD     		pop	{r7, pc}
 298              		.cfi_endproc
 299              	.LFE329:
 301              		.section	.text.DMA1_Channel1_IRQHandler,"ax",%progbits
 302              		.align	1
 303              		.global	DMA1_Channel1_IRQHandler
 304              		.syntax unified
 305              		.thumb
 306              		.thumb_func
 308              	DMA1_Channel1_IRQHandler:
 309              	.LFB330:
 195:Core/Src/stm32l4xx_it.c **** 
 196:Core/Src/stm32l4xx_it.c **** /******************************************************************************/
 197:Core/Src/stm32l4xx_it.c **** /* STM32L4xx Peripheral Interrupt Handlers                                    */
 198:Core/Src/stm32l4xx_it.c **** /* Add here the Interrupt Handlers for the used peripherals.                  */
 199:Core/Src/stm32l4xx_it.c **** /* For the available peripheral interrupt handler names,                      */
 200:Core/Src/stm32l4xx_it.c **** /* please refer to the startup file (startup_stm32l4xx.s).                    */
 201:Core/Src/stm32l4xx_it.c **** /******************************************************************************/
 202:Core/Src/stm32l4xx_it.c **** 
 203:Core/Src/stm32l4xx_it.c **** /**
 204:Core/Src/stm32l4xx_it.c ****   * @brief This function handles DMA1 channel1 global interrupt.
 205:Core/Src/stm32l4xx_it.c ****   */
 206:Core/Src/stm32l4xx_it.c **** void DMA1_Channel1_IRQHandler(void)
 207:Core/Src/stm32l4xx_it.c **** {
 310              		.loc 1 207 1
 311              		.cfi_startproc
 312              		@ args = 0, pretend = 0, frame = 0
 313              		@ frame_needed = 1, uses_anonymous_args = 0
 314 0000 80B5     		push	{r7, lr}
 315              		.cfi_def_cfa_offset 8
 316              		.cfi_offset 7, -8
 317              		.cfi_offset 14, -4
 318 0002 00AF     		add	r7, sp, #0
 319              		.cfi_def_cfa_register 7
 208:Core/Src/stm32l4xx_it.c ****   /* USER CODE BEGIN DMA1_Channel1_IRQn 0 */
 209:Core/Src/stm32l4xx_it.c **** 
 210:Core/Src/stm32l4xx_it.c ****   /* USER CODE END DMA1_Channel1_IRQn 0 */
 211:Core/Src/stm32l4xx_it.c ****   HAL_DMA_IRQHandler(&hdma_adc1);
 320              		.loc 1 211 3
 321 0004 0248     		ldr	r0, .L16
 322 0006 FFF7FEFF 		bl	HAL_DMA_IRQHandler
 212:Core/Src/stm32l4xx_it.c ****   /* USER CODE BEGIN DMA1_Channel1_IRQn 1 */
ARM GAS  C:\Users\Morroway\AppData\Local\Temp\cc5tRrQy.s 			page 10


 213:Core/Src/stm32l4xx_it.c **** 
 214:Core/Src/stm32l4xx_it.c ****   /* USER CODE END DMA1_Channel1_IRQn 1 */
 215:Core/Src/stm32l4xx_it.c **** }
 323              		.loc 1 215 1
 324 000a 00BF     		nop
 325 000c 80BD     		pop	{r7, pc}
 326              	.L17:
 327 000e 00BF     		.align	2
 328              	.L16:
 329 0010 00000000 		.word	hdma_adc1
 330              		.cfi_endproc
 331              	.LFE330:
 333              		.section	.text.DMA1_Channel2_IRQHandler,"ax",%progbits
 334              		.align	1
 335              		.global	DMA1_Channel2_IRQHandler
 336              		.syntax unified
 337              		.thumb
 338              		.thumb_func
 340              	DMA1_Channel2_IRQHandler:
 341              	.LFB331:
 216:Core/Src/stm32l4xx_it.c **** 
 217:Core/Src/stm32l4xx_it.c **** /**
 218:Core/Src/stm32l4xx_it.c ****   * @brief This function handles DMA1 channel2 global interrupt.
 219:Core/Src/stm32l4xx_it.c ****   */
 220:Core/Src/stm32l4xx_it.c **** void DMA1_Channel2_IRQHandler(void)
 221:Core/Src/stm32l4xx_it.c **** {
 342              		.loc 1 221 1
 343              		.cfi_startproc
 344              		@ args = 0, pretend = 0, frame = 0
 345              		@ frame_needed = 1, uses_anonymous_args = 0
 346 0000 80B5     		push	{r7, lr}
 347              		.cfi_def_cfa_offset 8
 348              		.cfi_offset 7, -8
 349              		.cfi_offset 14, -4
 350 0002 00AF     		add	r7, sp, #0
 351              		.cfi_def_cfa_register 7
 222:Core/Src/stm32l4xx_it.c ****   /* USER CODE BEGIN DMA1_Channel2_IRQn 0 */
 223:Core/Src/stm32l4xx_it.c **** 
 224:Core/Src/stm32l4xx_it.c ****   /* USER CODE END DMA1_Channel2_IRQn 0 */
 225:Core/Src/stm32l4xx_it.c ****   HAL_DMA_IRQHandler(&hdma_lpuart1_rx);
 352              		.loc 1 225 3
 353 0004 0248     		ldr	r0, .L19
 354 0006 FFF7FEFF 		bl	HAL_DMA_IRQHandler
 226:Core/Src/stm32l4xx_it.c ****   /* USER CODE BEGIN DMA1_Channel2_IRQn 1 */
 227:Core/Src/stm32l4xx_it.c **** 
 228:Core/Src/stm32l4xx_it.c ****   /* USER CODE END DMA1_Channel2_IRQn 1 */
 229:Core/Src/stm32l4xx_it.c **** }
 355              		.loc 1 229 1
 356 000a 00BF     		nop
 357 000c 80BD     		pop	{r7, pc}
 358              	.L20:
 359 000e 00BF     		.align	2
 360              	.L19:
 361 0010 00000000 		.word	hdma_lpuart1_rx
 362              		.cfi_endproc
 363              	.LFE331:
 365              		.section	.text.LPUART1_IRQHandler,"ax",%progbits
ARM GAS  C:\Users\Morroway\AppData\Local\Temp\cc5tRrQy.s 			page 11


 366              		.align	1
 367              		.global	LPUART1_IRQHandler
 368              		.syntax unified
 369              		.thumb
 370              		.thumb_func
 372              	LPUART1_IRQHandler:
 373              	.LFB332:
 230:Core/Src/stm32l4xx_it.c **** 
 231:Core/Src/stm32l4xx_it.c **** /**
 232:Core/Src/stm32l4xx_it.c ****   * @brief This function handles LPUART1 global interrupt.
 233:Core/Src/stm32l4xx_it.c ****   */
 234:Core/Src/stm32l4xx_it.c **** void LPUART1_IRQHandler(void)
 235:Core/Src/stm32l4xx_it.c **** {
 374              		.loc 1 235 1
 375              		.cfi_startproc
 376              		@ args = 0, pretend = 0, frame = 0
 377              		@ frame_needed = 1, uses_anonymous_args = 0
 378 0000 80B5     		push	{r7, lr}
 379              		.cfi_def_cfa_offset 8
 380              		.cfi_offset 7, -8
 381              		.cfi_offset 14, -4
 382 0002 00AF     		add	r7, sp, #0
 383              		.cfi_def_cfa_register 7
 236:Core/Src/stm32l4xx_it.c ****   /* USER CODE BEGIN LPUART1_IRQn 0 */
 237:Core/Src/stm32l4xx_it.c **** 
 238:Core/Src/stm32l4xx_it.c ****   /* USER CODE END LPUART1_IRQn 0 */
 239:Core/Src/stm32l4xx_it.c ****   HAL_UART_IRQHandler(&hlpuart1);
 384              		.loc 1 239 3
 385 0004 0248     		ldr	r0, .L22
 386 0006 FFF7FEFF 		bl	HAL_UART_IRQHandler
 240:Core/Src/stm32l4xx_it.c ****   /* USER CODE BEGIN LPUART1_IRQn 1 */
 241:Core/Src/stm32l4xx_it.c **** 
 242:Core/Src/stm32l4xx_it.c ****   /* USER CODE END LPUART1_IRQn 1 */
 243:Core/Src/stm32l4xx_it.c **** }
 387              		.loc 1 243 1
 388 000a 00BF     		nop
 389 000c 80BD     		pop	{r7, pc}
 390              	.L23:
 391 000e 00BF     		.align	2
 392              	.L22:
 393 0010 00000000 		.word	hlpuart1
 394              		.cfi_endproc
 395              	.LFE332:
 397              		.text
 398              	.Letext0:
 399              		.file 2 "c:\\users\\morroway\\appdata\\roaming\\code\\user\\globalstorage\\bmd.stm32-for-vscode\\@
 400              		.file 3 "c:\\users\\morroway\\appdata\\roaming\\code\\user\\globalstorage\\bmd.stm32-for-vscode\\@
 401              		.file 4 "Drivers/CMSIS/Device/ST/STM32L4xx/Include/stm32l4p5xx.h"
 402              		.file 5 "Drivers/STM32L4xx_HAL_Driver/Inc/stm32l4xx_hal_def.h"
 403              		.file 6 "Drivers/STM32L4xx_HAL_Driver/Inc/stm32l4xx_hal_dma.h"
 404              		.file 7 "Drivers/STM32L4xx_HAL_Driver/Inc/stm32l4xx_hal_uart.h"
 405              		.file 8 "Core/Inc/Parser.h"
 406              		.file 9 "Core/Inc/main.h"
 407              		.file 10 "Drivers/STM32L4xx_HAL_Driver/Inc/stm32l4xx_hal.h"
ARM GAS  C:\Users\Morroway\AppData\Local\Temp\cc5tRrQy.s 			page 12

