ARM GAS  C:\Users\isan\AppData\Local\Temp\ccdMwwg3.s 			page 1


   1              		.cpu cortex-m4
   2              		.arch armv7e-m
   3              		.fpu fpv4-sp-d16
   4              		.eabi_attribute 27, 1
   5              		.eabi_attribute 28, 1
   6              		.eabi_attribute 20, 1
   7              		.eabi_attribute 21, 1
   8              		.eabi_attribute 23, 3
   9              		.eabi_attribute 24, 1
  10              		.eabi_attribute 25, 1
  11              		.eabi_attribute 26, 1
  12              		.eabi_attribute 30, 6
  13              		.eabi_attribute 34, 1
  14              		.eabi_attribute 18, 4
  15              		.file	"stm32l4xx_hal_exti.c"
  16              		.text
  17              	.Ltext0:
  18              		.cfi_sections	.debug_frame
  19              		.section	.text.HAL_EXTI_SetConfigLine,"ax",%progbits
  20              		.align	1
  21              		.global	HAL_EXTI_SetConfigLine
  22              		.syntax unified
  23              		.thumb
  24              		.thumb_func
  26              	HAL_EXTI_SetConfigLine:
  27              	.LFB321:
  28              		.file 1 "Drivers/STM32L4xx_HAL_Driver/Src/stm32l4xx_hal_exti.c"
   1:Drivers/STM32L4xx_HAL_Driver/Src/stm32l4xx_hal_exti.c **** /**
   2:Drivers/STM32L4xx_HAL_Driver/Src/stm32l4xx_hal_exti.c ****   ******************************************************************************
   3:Drivers/STM32L4xx_HAL_Driver/Src/stm32l4xx_hal_exti.c ****   * @file    stm32l4xx_hal_exti.c
   4:Drivers/STM32L4xx_HAL_Driver/Src/stm32l4xx_hal_exti.c ****   * @author  MCD Application Team
   5:Drivers/STM32L4xx_HAL_Driver/Src/stm32l4xx_hal_exti.c ****   * @brief   EXTI HAL module driver.
   6:Drivers/STM32L4xx_HAL_Driver/Src/stm32l4xx_hal_exti.c ****   *          This file provides firmware functions to manage the following
   7:Drivers/STM32L4xx_HAL_Driver/Src/stm32l4xx_hal_exti.c ****   *          functionalities of the Extended Interrupts and events controller (EXTI) peripheral:
   8:Drivers/STM32L4xx_HAL_Driver/Src/stm32l4xx_hal_exti.c ****   *           + Initialization and de-initialization functions
   9:Drivers/STM32L4xx_HAL_Driver/Src/stm32l4xx_hal_exti.c ****   *           + IO operation functions
  10:Drivers/STM32L4xx_HAL_Driver/Src/stm32l4xx_hal_exti.c ****   *
  11:Drivers/STM32L4xx_HAL_Driver/Src/stm32l4xx_hal_exti.c ****   ******************************************************************************
  12:Drivers/STM32L4xx_HAL_Driver/Src/stm32l4xx_hal_exti.c ****   * @attention
  13:Drivers/STM32L4xx_HAL_Driver/Src/stm32l4xx_hal_exti.c ****   *
  14:Drivers/STM32L4xx_HAL_Driver/Src/stm32l4xx_hal_exti.c ****   * Copyright (c) 2018 STMicroelectronics.
  15:Drivers/STM32L4xx_HAL_Driver/Src/stm32l4xx_hal_exti.c ****   * All rights reserved.
  16:Drivers/STM32L4xx_HAL_Driver/Src/stm32l4xx_hal_exti.c ****   *
  17:Drivers/STM32L4xx_HAL_Driver/Src/stm32l4xx_hal_exti.c ****   * This software is licensed under terms that can be found in the LICENSE file
  18:Drivers/STM32L4xx_HAL_Driver/Src/stm32l4xx_hal_exti.c ****   * in the root directory of this software component.
  19:Drivers/STM32L4xx_HAL_Driver/Src/stm32l4xx_hal_exti.c ****   * If no LICENSE file comes with this software, it is provided AS-IS.
  20:Drivers/STM32L4xx_HAL_Driver/Src/stm32l4xx_hal_exti.c ****   *
  21:Drivers/STM32L4xx_HAL_Driver/Src/stm32l4xx_hal_exti.c ****   ******************************************************************************
  22:Drivers/STM32L4xx_HAL_Driver/Src/stm32l4xx_hal_exti.c ****   @verbatim
  23:Drivers/STM32L4xx_HAL_Driver/Src/stm32l4xx_hal_exti.c ****   ==============================================================================
  24:Drivers/STM32L4xx_HAL_Driver/Src/stm32l4xx_hal_exti.c ****                     ##### EXTI Peripheral features #####
  25:Drivers/STM32L4xx_HAL_Driver/Src/stm32l4xx_hal_exti.c ****   ==============================================================================
  26:Drivers/STM32L4xx_HAL_Driver/Src/stm32l4xx_hal_exti.c ****   [..]
  27:Drivers/STM32L4xx_HAL_Driver/Src/stm32l4xx_hal_exti.c ****     (+) Each Exti line can be configured within this driver.
  28:Drivers/STM32L4xx_HAL_Driver/Src/stm32l4xx_hal_exti.c **** 
  29:Drivers/STM32L4xx_HAL_Driver/Src/stm32l4xx_hal_exti.c ****     (+) Exti line can be configured in 3 different modes
  30:Drivers/STM32L4xx_HAL_Driver/Src/stm32l4xx_hal_exti.c ****         (++) Interrupt
ARM GAS  C:\Users\isan\AppData\Local\Temp\ccdMwwg3.s 			page 2


  31:Drivers/STM32L4xx_HAL_Driver/Src/stm32l4xx_hal_exti.c ****         (++) Event
  32:Drivers/STM32L4xx_HAL_Driver/Src/stm32l4xx_hal_exti.c ****         (++) Both of them
  33:Drivers/STM32L4xx_HAL_Driver/Src/stm32l4xx_hal_exti.c **** 
  34:Drivers/STM32L4xx_HAL_Driver/Src/stm32l4xx_hal_exti.c ****     (+) Configurable Exti lines can be configured with 3 different triggers
  35:Drivers/STM32L4xx_HAL_Driver/Src/stm32l4xx_hal_exti.c ****         (++) Rising
  36:Drivers/STM32L4xx_HAL_Driver/Src/stm32l4xx_hal_exti.c ****         (++) Falling
  37:Drivers/STM32L4xx_HAL_Driver/Src/stm32l4xx_hal_exti.c ****         (++) Both of them
  38:Drivers/STM32L4xx_HAL_Driver/Src/stm32l4xx_hal_exti.c **** 
  39:Drivers/STM32L4xx_HAL_Driver/Src/stm32l4xx_hal_exti.c ****     (+) When set in interrupt mode, configurable Exti lines have two different
  40:Drivers/STM32L4xx_HAL_Driver/Src/stm32l4xx_hal_exti.c ****         interrupts pending registers which allow to distinguish which transition
  41:Drivers/STM32L4xx_HAL_Driver/Src/stm32l4xx_hal_exti.c ****         occurs:
  42:Drivers/STM32L4xx_HAL_Driver/Src/stm32l4xx_hal_exti.c ****         (++) Rising edge pending interrupt
  43:Drivers/STM32L4xx_HAL_Driver/Src/stm32l4xx_hal_exti.c ****         (++) Falling
  44:Drivers/STM32L4xx_HAL_Driver/Src/stm32l4xx_hal_exti.c **** 
  45:Drivers/STM32L4xx_HAL_Driver/Src/stm32l4xx_hal_exti.c ****     (+) Exti lines 0 to 15 are linked to gpio pin number 0 to 15. Gpio port can
  46:Drivers/STM32L4xx_HAL_Driver/Src/stm32l4xx_hal_exti.c ****         be selected through multiplexer.
  47:Drivers/STM32L4xx_HAL_Driver/Src/stm32l4xx_hal_exti.c **** 
  48:Drivers/STM32L4xx_HAL_Driver/Src/stm32l4xx_hal_exti.c ****                      ##### How to use this driver #####
  49:Drivers/STM32L4xx_HAL_Driver/Src/stm32l4xx_hal_exti.c ****   ==============================================================================
  50:Drivers/STM32L4xx_HAL_Driver/Src/stm32l4xx_hal_exti.c ****   [..]
  51:Drivers/STM32L4xx_HAL_Driver/Src/stm32l4xx_hal_exti.c **** 
  52:Drivers/STM32L4xx_HAL_Driver/Src/stm32l4xx_hal_exti.c ****     (#) Configure the EXTI line using HAL_EXTI_SetConfigLine().
  53:Drivers/STM32L4xx_HAL_Driver/Src/stm32l4xx_hal_exti.c ****         (++) Choose the interrupt line number by setting "Line" member from
  54:Drivers/STM32L4xx_HAL_Driver/Src/stm32l4xx_hal_exti.c ****              EXTI_ConfigTypeDef structure.
  55:Drivers/STM32L4xx_HAL_Driver/Src/stm32l4xx_hal_exti.c ****         (++) Configure the interrupt and/or event mode using "Mode" member from
  56:Drivers/STM32L4xx_HAL_Driver/Src/stm32l4xx_hal_exti.c ****              EXTI_ConfigTypeDef structure.
  57:Drivers/STM32L4xx_HAL_Driver/Src/stm32l4xx_hal_exti.c ****         (++) For configurable lines, configure rising and/or falling trigger
  58:Drivers/STM32L4xx_HAL_Driver/Src/stm32l4xx_hal_exti.c ****              "Trigger" member from EXTI_ConfigTypeDef structure.
  59:Drivers/STM32L4xx_HAL_Driver/Src/stm32l4xx_hal_exti.c ****         (++) For Exti lines linked to gpio, choose gpio port using "GPIOSel"
  60:Drivers/STM32L4xx_HAL_Driver/Src/stm32l4xx_hal_exti.c ****              member from GPIO_InitTypeDef structure.
  61:Drivers/STM32L4xx_HAL_Driver/Src/stm32l4xx_hal_exti.c **** 
  62:Drivers/STM32L4xx_HAL_Driver/Src/stm32l4xx_hal_exti.c ****     (#) Get current Exti configuration of a dedicated line using
  63:Drivers/STM32L4xx_HAL_Driver/Src/stm32l4xx_hal_exti.c ****         HAL_EXTI_GetConfigLine().
  64:Drivers/STM32L4xx_HAL_Driver/Src/stm32l4xx_hal_exti.c ****         (++) Provide exiting handle as parameter.
  65:Drivers/STM32L4xx_HAL_Driver/Src/stm32l4xx_hal_exti.c ****         (++) Provide pointer on EXTI_ConfigTypeDef structure as second parameter.
  66:Drivers/STM32L4xx_HAL_Driver/Src/stm32l4xx_hal_exti.c **** 
  67:Drivers/STM32L4xx_HAL_Driver/Src/stm32l4xx_hal_exti.c ****     (#) Clear Exti configuration of a dedicated line using HAL_EXTI_GetConfigLine().
  68:Drivers/STM32L4xx_HAL_Driver/Src/stm32l4xx_hal_exti.c ****         (++) Provide exiting handle as parameter.
  69:Drivers/STM32L4xx_HAL_Driver/Src/stm32l4xx_hal_exti.c **** 
  70:Drivers/STM32L4xx_HAL_Driver/Src/stm32l4xx_hal_exti.c ****     (#) Register callback to treat Exti interrupts using HAL_EXTI_RegisterCallback().
  71:Drivers/STM32L4xx_HAL_Driver/Src/stm32l4xx_hal_exti.c ****         (++) Provide exiting handle as first parameter.
  72:Drivers/STM32L4xx_HAL_Driver/Src/stm32l4xx_hal_exti.c ****         (++) Provide which callback will be registered using one value from
  73:Drivers/STM32L4xx_HAL_Driver/Src/stm32l4xx_hal_exti.c ****              EXTI_CallbackIDTypeDef.
  74:Drivers/STM32L4xx_HAL_Driver/Src/stm32l4xx_hal_exti.c ****         (++) Provide callback function pointer.
  75:Drivers/STM32L4xx_HAL_Driver/Src/stm32l4xx_hal_exti.c **** 
  76:Drivers/STM32L4xx_HAL_Driver/Src/stm32l4xx_hal_exti.c ****     (#) Get interrupt pending bit using HAL_EXTI_GetPending().
  77:Drivers/STM32L4xx_HAL_Driver/Src/stm32l4xx_hal_exti.c **** 
  78:Drivers/STM32L4xx_HAL_Driver/Src/stm32l4xx_hal_exti.c ****     (#) Clear interrupt pending bit using HAL_EXTI_GetPending().
  79:Drivers/STM32L4xx_HAL_Driver/Src/stm32l4xx_hal_exti.c **** 
  80:Drivers/STM32L4xx_HAL_Driver/Src/stm32l4xx_hal_exti.c ****     (#) Generate software interrupt using HAL_EXTI_GenerateSWI().
  81:Drivers/STM32L4xx_HAL_Driver/Src/stm32l4xx_hal_exti.c **** 
  82:Drivers/STM32L4xx_HAL_Driver/Src/stm32l4xx_hal_exti.c ****   @endverbatim
  83:Drivers/STM32L4xx_HAL_Driver/Src/stm32l4xx_hal_exti.c ****   */
  84:Drivers/STM32L4xx_HAL_Driver/Src/stm32l4xx_hal_exti.c **** 
  85:Drivers/STM32L4xx_HAL_Driver/Src/stm32l4xx_hal_exti.c **** /* Includes ------------------------------------------------------------------*/
  86:Drivers/STM32L4xx_HAL_Driver/Src/stm32l4xx_hal_exti.c **** #include "stm32l4xx_hal.h"
  87:Drivers/STM32L4xx_HAL_Driver/Src/stm32l4xx_hal_exti.c **** 
ARM GAS  C:\Users\isan\AppData\Local\Temp\ccdMwwg3.s 			page 3


  88:Drivers/STM32L4xx_HAL_Driver/Src/stm32l4xx_hal_exti.c **** /** @addtogroup STM32L4xx_HAL_Driver
  89:Drivers/STM32L4xx_HAL_Driver/Src/stm32l4xx_hal_exti.c ****   * @{
  90:Drivers/STM32L4xx_HAL_Driver/Src/stm32l4xx_hal_exti.c ****   */
  91:Drivers/STM32L4xx_HAL_Driver/Src/stm32l4xx_hal_exti.c **** 
  92:Drivers/STM32L4xx_HAL_Driver/Src/stm32l4xx_hal_exti.c **** /** @addtogroup EXTI
  93:Drivers/STM32L4xx_HAL_Driver/Src/stm32l4xx_hal_exti.c ****   * @{
  94:Drivers/STM32L4xx_HAL_Driver/Src/stm32l4xx_hal_exti.c ****   */
  95:Drivers/STM32L4xx_HAL_Driver/Src/stm32l4xx_hal_exti.c **** /** MISRA C:2012 deviation rule has been granted for following rule:
  96:Drivers/STM32L4xx_HAL_Driver/Src/stm32l4xx_hal_exti.c ****   * Rule-18.1_b - Medium: Array `EXTICR' 1st subscript interval [0,7] may be out
  97:Drivers/STM32L4xx_HAL_Driver/Src/stm32l4xx_hal_exti.c ****   * of bounds [0,3] in following API :
  98:Drivers/STM32L4xx_HAL_Driver/Src/stm32l4xx_hal_exti.c ****   * HAL_EXTI_SetConfigLine
  99:Drivers/STM32L4xx_HAL_Driver/Src/stm32l4xx_hal_exti.c ****   * HAL_EXTI_GetConfigLine
 100:Drivers/STM32L4xx_HAL_Driver/Src/stm32l4xx_hal_exti.c ****   * HAL_EXTI_ClearConfigLine
 101:Drivers/STM32L4xx_HAL_Driver/Src/stm32l4xx_hal_exti.c ****   */
 102:Drivers/STM32L4xx_HAL_Driver/Src/stm32l4xx_hal_exti.c **** 
 103:Drivers/STM32L4xx_HAL_Driver/Src/stm32l4xx_hal_exti.c **** #ifdef HAL_EXTI_MODULE_ENABLED
 104:Drivers/STM32L4xx_HAL_Driver/Src/stm32l4xx_hal_exti.c **** 
 105:Drivers/STM32L4xx_HAL_Driver/Src/stm32l4xx_hal_exti.c **** /* Private typedef -----------------------------------------------------------*/
 106:Drivers/STM32L4xx_HAL_Driver/Src/stm32l4xx_hal_exti.c **** /* Private defines ------------------------------------------------------------*/
 107:Drivers/STM32L4xx_HAL_Driver/Src/stm32l4xx_hal_exti.c **** /** @defgroup EXTI_Private_Constants EXTI Private Constants
 108:Drivers/STM32L4xx_HAL_Driver/Src/stm32l4xx_hal_exti.c ****   * @{
 109:Drivers/STM32L4xx_HAL_Driver/Src/stm32l4xx_hal_exti.c ****   */
 110:Drivers/STM32L4xx_HAL_Driver/Src/stm32l4xx_hal_exti.c **** #define EXTI_MODE_OFFSET                    0x08u   /* 0x20: offset between MCU IMR/EMR registers *
 111:Drivers/STM32L4xx_HAL_Driver/Src/stm32l4xx_hal_exti.c **** #define EXTI_CONFIG_OFFSET                  0x08u   /* 0x20: offset between MCU Rising/Falling conf
 112:Drivers/STM32L4xx_HAL_Driver/Src/stm32l4xx_hal_exti.c **** /**
 113:Drivers/STM32L4xx_HAL_Driver/Src/stm32l4xx_hal_exti.c ****   * @}
 114:Drivers/STM32L4xx_HAL_Driver/Src/stm32l4xx_hal_exti.c ****   */
 115:Drivers/STM32L4xx_HAL_Driver/Src/stm32l4xx_hal_exti.c **** 
 116:Drivers/STM32L4xx_HAL_Driver/Src/stm32l4xx_hal_exti.c **** /* Private macros ------------------------------------------------------------*/
 117:Drivers/STM32L4xx_HAL_Driver/Src/stm32l4xx_hal_exti.c **** /* Private variables ---------------------------------------------------------*/
 118:Drivers/STM32L4xx_HAL_Driver/Src/stm32l4xx_hal_exti.c **** /* Private function prototypes -----------------------------------------------*/
 119:Drivers/STM32L4xx_HAL_Driver/Src/stm32l4xx_hal_exti.c **** /* Exported functions --------------------------------------------------------*/
 120:Drivers/STM32L4xx_HAL_Driver/Src/stm32l4xx_hal_exti.c **** 
 121:Drivers/STM32L4xx_HAL_Driver/Src/stm32l4xx_hal_exti.c **** /** @addtogroup EXTI_Exported_Functions
 122:Drivers/STM32L4xx_HAL_Driver/Src/stm32l4xx_hal_exti.c ****   * @{
 123:Drivers/STM32L4xx_HAL_Driver/Src/stm32l4xx_hal_exti.c ****   */
 124:Drivers/STM32L4xx_HAL_Driver/Src/stm32l4xx_hal_exti.c **** 
 125:Drivers/STM32L4xx_HAL_Driver/Src/stm32l4xx_hal_exti.c **** /** @addtogroup EXTI_Exported_Functions_Group1
 126:Drivers/STM32L4xx_HAL_Driver/Src/stm32l4xx_hal_exti.c ****  *  @brief    Configuration functions
 127:Drivers/STM32L4xx_HAL_Driver/Src/stm32l4xx_hal_exti.c ****  *
 128:Drivers/STM32L4xx_HAL_Driver/Src/stm32l4xx_hal_exti.c **** @verbatim
 129:Drivers/STM32L4xx_HAL_Driver/Src/stm32l4xx_hal_exti.c ****  ===============================================================================
 130:Drivers/STM32L4xx_HAL_Driver/Src/stm32l4xx_hal_exti.c ****               ##### Configuration functions #####
 131:Drivers/STM32L4xx_HAL_Driver/Src/stm32l4xx_hal_exti.c ****  ===============================================================================
 132:Drivers/STM32L4xx_HAL_Driver/Src/stm32l4xx_hal_exti.c **** 
 133:Drivers/STM32L4xx_HAL_Driver/Src/stm32l4xx_hal_exti.c **** @endverbatim
 134:Drivers/STM32L4xx_HAL_Driver/Src/stm32l4xx_hal_exti.c ****   * @{
 135:Drivers/STM32L4xx_HAL_Driver/Src/stm32l4xx_hal_exti.c ****   */
 136:Drivers/STM32L4xx_HAL_Driver/Src/stm32l4xx_hal_exti.c **** 
 137:Drivers/STM32L4xx_HAL_Driver/Src/stm32l4xx_hal_exti.c **** /**
 138:Drivers/STM32L4xx_HAL_Driver/Src/stm32l4xx_hal_exti.c ****   * @brief  Set configuration of a dedicated Exti line.
 139:Drivers/STM32L4xx_HAL_Driver/Src/stm32l4xx_hal_exti.c ****   * @param  hexti Exti handle.
 140:Drivers/STM32L4xx_HAL_Driver/Src/stm32l4xx_hal_exti.c ****   * @param  pExtiConfig Pointer on EXTI configuration to be set.
 141:Drivers/STM32L4xx_HAL_Driver/Src/stm32l4xx_hal_exti.c ****   * @retval HAL Status.
 142:Drivers/STM32L4xx_HAL_Driver/Src/stm32l4xx_hal_exti.c ****   */
 143:Drivers/STM32L4xx_HAL_Driver/Src/stm32l4xx_hal_exti.c **** HAL_StatusTypeDef HAL_EXTI_SetConfigLine(EXTI_HandleTypeDef *hexti, EXTI_ConfigTypeDef *pExtiConfig
 144:Drivers/STM32L4xx_HAL_Driver/Src/stm32l4xx_hal_exti.c **** {
ARM GAS  C:\Users\isan\AppData\Local\Temp\ccdMwwg3.s 			page 4


  29              		.loc 1 144 1
  30              		.cfi_startproc
  31              		@ args = 0, pretend = 0, frame = 32
  32              		@ frame_needed = 1, uses_anonymous_args = 0
  33              		@ link register save eliminated.
  34 0000 80B4     		push	{r7}
  35              		.cfi_def_cfa_offset 4
  36              		.cfi_offset 7, -4
  37 0002 89B0     		sub	sp, sp, #36
  38              		.cfi_def_cfa_offset 40
  39 0004 00AF     		add	r7, sp, #0
  40              		.cfi_def_cfa_register 7
  41 0006 7860     		str	r0, [r7, #4]
  42 0008 3960     		str	r1, [r7]
 145:Drivers/STM32L4xx_HAL_Driver/Src/stm32l4xx_hal_exti.c ****   __IO uint32_t *regaddr;
 146:Drivers/STM32L4xx_HAL_Driver/Src/stm32l4xx_hal_exti.c ****   uint32_t regval;
 147:Drivers/STM32L4xx_HAL_Driver/Src/stm32l4xx_hal_exti.c ****   uint32_t linepos;
 148:Drivers/STM32L4xx_HAL_Driver/Src/stm32l4xx_hal_exti.c ****   uint32_t maskline;
 149:Drivers/STM32L4xx_HAL_Driver/Src/stm32l4xx_hal_exti.c ****   uint32_t offset;
 150:Drivers/STM32L4xx_HAL_Driver/Src/stm32l4xx_hal_exti.c **** 
 151:Drivers/STM32L4xx_HAL_Driver/Src/stm32l4xx_hal_exti.c ****   /* Check null pointer */
 152:Drivers/STM32L4xx_HAL_Driver/Src/stm32l4xx_hal_exti.c ****   if ((hexti == NULL) || (pExtiConfig == NULL))
  43              		.loc 1 152 6
  44 000a 7B68     		ldr	r3, [r7, #4]
  45 000c 002B     		cmp	r3, #0
  46 000e 02D0     		beq	.L2
  47              		.loc 1 152 23 discriminator 1
  48 0010 3B68     		ldr	r3, [r7]
  49 0012 002B     		cmp	r3, #0
  50 0014 01D1     		bne	.L3
  51              	.L2:
 153:Drivers/STM32L4xx_HAL_Driver/Src/stm32l4xx_hal_exti.c ****   {
 154:Drivers/STM32L4xx_HAL_Driver/Src/stm32l4xx_hal_exti.c ****     return HAL_ERROR;
  52              		.loc 1 154 12
  53 0016 0123     		movs	r3, #1
  54 0018 B3E0     		b	.L4
  55              	.L3:
 155:Drivers/STM32L4xx_HAL_Driver/Src/stm32l4xx_hal_exti.c ****   }
 156:Drivers/STM32L4xx_HAL_Driver/Src/stm32l4xx_hal_exti.c **** 
 157:Drivers/STM32L4xx_HAL_Driver/Src/stm32l4xx_hal_exti.c ****   /* Check parameters */
 158:Drivers/STM32L4xx_HAL_Driver/Src/stm32l4xx_hal_exti.c ****   assert_param(IS_EXTI_LINE(pExtiConfig->Line));
 159:Drivers/STM32L4xx_HAL_Driver/Src/stm32l4xx_hal_exti.c ****   assert_param(IS_EXTI_MODE(pExtiConfig->Mode));
 160:Drivers/STM32L4xx_HAL_Driver/Src/stm32l4xx_hal_exti.c **** 
 161:Drivers/STM32L4xx_HAL_Driver/Src/stm32l4xx_hal_exti.c ****   /* Assign line number to handle */
 162:Drivers/STM32L4xx_HAL_Driver/Src/stm32l4xx_hal_exti.c ****   hexti->Line = pExtiConfig->Line;
  56              		.loc 1 162 28
  57 001a 3B68     		ldr	r3, [r7]
  58 001c 1A68     		ldr	r2, [r3]
  59              		.loc 1 162 15
  60 001e 7B68     		ldr	r3, [r7, #4]
  61 0020 1A60     		str	r2, [r3]
 163:Drivers/STM32L4xx_HAL_Driver/Src/stm32l4xx_hal_exti.c **** 
 164:Drivers/STM32L4xx_HAL_Driver/Src/stm32l4xx_hal_exti.c ****   /* Compute line register offset and line mask */
 165:Drivers/STM32L4xx_HAL_Driver/Src/stm32l4xx_hal_exti.c ****   offset = ((pExtiConfig->Line & EXTI_REG_MASK) >> EXTI_REG_SHIFT);
  62              		.loc 1 165 25
  63 0022 3B68     		ldr	r3, [r7]
  64 0024 1B68     		ldr	r3, [r3]
ARM GAS  C:\Users\isan\AppData\Local\Temp\ccdMwwg3.s 			page 5


  65              		.loc 1 165 49
  66 0026 1B0C     		lsrs	r3, r3, #16
  67              		.loc 1 165 10
  68 0028 03F00103 		and	r3, r3, #1
  69 002c BB61     		str	r3, [r7, #24]
 166:Drivers/STM32L4xx_HAL_Driver/Src/stm32l4xx_hal_exti.c ****   linepos = (pExtiConfig->Line & EXTI_PIN_MASK);
  70              		.loc 1 166 25
  71 002e 3B68     		ldr	r3, [r7]
  72 0030 1B68     		ldr	r3, [r3]
  73              		.loc 1 166 11
  74 0032 03F01F03 		and	r3, r3, #31
  75 0036 7B61     		str	r3, [r7, #20]
 167:Drivers/STM32L4xx_HAL_Driver/Src/stm32l4xx_hal_exti.c ****   maskline = (1uL << linepos);
  76              		.loc 1 167 12
  77 0038 0122     		movs	r2, #1
  78 003a 7B69     		ldr	r3, [r7, #20]
  79 003c 02FA03F3 		lsl	r3, r2, r3
  80 0040 3B61     		str	r3, [r7, #16]
 168:Drivers/STM32L4xx_HAL_Driver/Src/stm32l4xx_hal_exti.c **** 
 169:Drivers/STM32L4xx_HAL_Driver/Src/stm32l4xx_hal_exti.c ****   /* Configure triggers for configurable lines */
 170:Drivers/STM32L4xx_HAL_Driver/Src/stm32l4xx_hal_exti.c ****   if ((pExtiConfig->Line & EXTI_CONFIG) != 0x00u)
  81              		.loc 1 170 19
  82 0042 3B68     		ldr	r3, [r7]
  83 0044 1B68     		ldr	r3, [r3]
  84              		.loc 1 170 26
  85 0046 03F00073 		and	r3, r3, #33554432
  86              		.loc 1 170 6
  87 004a 002B     		cmp	r3, #0
  88 004c 60D0     		beq	.L5
 171:Drivers/STM32L4xx_HAL_Driver/Src/stm32l4xx_hal_exti.c ****   {
 172:Drivers/STM32L4xx_HAL_Driver/Src/stm32l4xx_hal_exti.c ****     assert_param(IS_EXTI_TRIGGER(pExtiConfig->Trigger));
 173:Drivers/STM32L4xx_HAL_Driver/Src/stm32l4xx_hal_exti.c **** 
 174:Drivers/STM32L4xx_HAL_Driver/Src/stm32l4xx_hal_exti.c ****     /* Configure rising trigger */
 175:Drivers/STM32L4xx_HAL_Driver/Src/stm32l4xx_hal_exti.c ****     regaddr = (&EXTI->RTSR1 + (EXTI_CONFIG_OFFSET * offset));
  89              		.loc 1 175 29
  90 004e BB69     		ldr	r3, [r7, #24]
  91 0050 5A01     		lsls	r2, r3, #5
  92              		.loc 1 175 13
  93 0052 4F4B     		ldr	r3, .L14
  94 0054 1344     		add	r3, r3, r2
  95 0056 FB60     		str	r3, [r7, #12]
 176:Drivers/STM32L4xx_HAL_Driver/Src/stm32l4xx_hal_exti.c ****     regval = *regaddr;
  96              		.loc 1 176 12
  97 0058 FB68     		ldr	r3, [r7, #12]
  98 005a 1B68     		ldr	r3, [r3]
  99 005c FB61     		str	r3, [r7, #28]
 177:Drivers/STM32L4xx_HAL_Driver/Src/stm32l4xx_hal_exti.c **** 
 178:Drivers/STM32L4xx_HAL_Driver/Src/stm32l4xx_hal_exti.c ****     /* Mask or set line */
 179:Drivers/STM32L4xx_HAL_Driver/Src/stm32l4xx_hal_exti.c ****     if ((pExtiConfig->Trigger & EXTI_TRIGGER_RISING) != 0x00u)
 100              		.loc 1 179 21
 101 005e 3B68     		ldr	r3, [r7]
 102 0060 9B68     		ldr	r3, [r3, #8]
 103              		.loc 1 179 31
 104 0062 03F00103 		and	r3, r3, #1
 105              		.loc 1 179 8
 106 0066 002B     		cmp	r3, #0
 107 0068 04D0     		beq	.L6
ARM GAS  C:\Users\isan\AppData\Local\Temp\ccdMwwg3.s 			page 6


 180:Drivers/STM32L4xx_HAL_Driver/Src/stm32l4xx_hal_exti.c ****     {
 181:Drivers/STM32L4xx_HAL_Driver/Src/stm32l4xx_hal_exti.c ****       regval |= maskline;
 108              		.loc 1 181 14
 109 006a FA69     		ldr	r2, [r7, #28]
 110 006c 3B69     		ldr	r3, [r7, #16]
 111 006e 1343     		orrs	r3, r3, r2
 112 0070 FB61     		str	r3, [r7, #28]
 113 0072 04E0     		b	.L7
 114              	.L6:
 182:Drivers/STM32L4xx_HAL_Driver/Src/stm32l4xx_hal_exti.c ****     }
 183:Drivers/STM32L4xx_HAL_Driver/Src/stm32l4xx_hal_exti.c ****     else
 184:Drivers/STM32L4xx_HAL_Driver/Src/stm32l4xx_hal_exti.c ****     {
 185:Drivers/STM32L4xx_HAL_Driver/Src/stm32l4xx_hal_exti.c ****       regval &= ~maskline;
 115              		.loc 1 185 17
 116 0074 3B69     		ldr	r3, [r7, #16]
 117 0076 DB43     		mvns	r3, r3
 118              		.loc 1 185 14
 119 0078 FA69     		ldr	r2, [r7, #28]
 120 007a 1340     		ands	r3, r3, r2
 121 007c FB61     		str	r3, [r7, #28]
 122              	.L7:
 186:Drivers/STM32L4xx_HAL_Driver/Src/stm32l4xx_hal_exti.c ****     }
 187:Drivers/STM32L4xx_HAL_Driver/Src/stm32l4xx_hal_exti.c **** 
 188:Drivers/STM32L4xx_HAL_Driver/Src/stm32l4xx_hal_exti.c ****     /* Store rising trigger mode */
 189:Drivers/STM32L4xx_HAL_Driver/Src/stm32l4xx_hal_exti.c ****     *regaddr = regval;
 123              		.loc 1 189 14
 124 007e FB68     		ldr	r3, [r7, #12]
 125 0080 FA69     		ldr	r2, [r7, #28]
 126 0082 1A60     		str	r2, [r3]
 190:Drivers/STM32L4xx_HAL_Driver/Src/stm32l4xx_hal_exti.c **** 
 191:Drivers/STM32L4xx_HAL_Driver/Src/stm32l4xx_hal_exti.c ****     /* Configure falling trigger */
 192:Drivers/STM32L4xx_HAL_Driver/Src/stm32l4xx_hal_exti.c ****     regaddr = (&EXTI->FTSR1 + (EXTI_CONFIG_OFFSET * offset));
 127              		.loc 1 192 29
 128 0084 BB69     		ldr	r3, [r7, #24]
 129 0086 5A01     		lsls	r2, r3, #5
 130              		.loc 1 192 13
 131 0088 424B     		ldr	r3, .L14+4
 132 008a 1344     		add	r3, r3, r2
 133 008c FB60     		str	r3, [r7, #12]
 193:Drivers/STM32L4xx_HAL_Driver/Src/stm32l4xx_hal_exti.c ****     regval = *regaddr;
 134              		.loc 1 193 12
 135 008e FB68     		ldr	r3, [r7, #12]
 136 0090 1B68     		ldr	r3, [r3]
 137 0092 FB61     		str	r3, [r7, #28]
 194:Drivers/STM32L4xx_HAL_Driver/Src/stm32l4xx_hal_exti.c **** 
 195:Drivers/STM32L4xx_HAL_Driver/Src/stm32l4xx_hal_exti.c ****     /* Mask or set line */
 196:Drivers/STM32L4xx_HAL_Driver/Src/stm32l4xx_hal_exti.c ****     if ((pExtiConfig->Trigger & EXTI_TRIGGER_FALLING) != 0x00u)
 138              		.loc 1 196 21
 139 0094 3B68     		ldr	r3, [r7]
 140 0096 9B68     		ldr	r3, [r3, #8]
 141              		.loc 1 196 31
 142 0098 03F00203 		and	r3, r3, #2
 143              		.loc 1 196 8
 144 009c 002B     		cmp	r3, #0
 145 009e 04D0     		beq	.L8
 197:Drivers/STM32L4xx_HAL_Driver/Src/stm32l4xx_hal_exti.c ****     {
 198:Drivers/STM32L4xx_HAL_Driver/Src/stm32l4xx_hal_exti.c ****       regval |= maskline;
ARM GAS  C:\Users\isan\AppData\Local\Temp\ccdMwwg3.s 			page 7


 146              		.loc 1 198 14
 147 00a0 FA69     		ldr	r2, [r7, #28]
 148 00a2 3B69     		ldr	r3, [r7, #16]
 149 00a4 1343     		orrs	r3, r3, r2
 150 00a6 FB61     		str	r3, [r7, #28]
 151 00a8 04E0     		b	.L9
 152              	.L8:
 199:Drivers/STM32L4xx_HAL_Driver/Src/stm32l4xx_hal_exti.c ****     }
 200:Drivers/STM32L4xx_HAL_Driver/Src/stm32l4xx_hal_exti.c ****     else
 201:Drivers/STM32L4xx_HAL_Driver/Src/stm32l4xx_hal_exti.c ****     {
 202:Drivers/STM32L4xx_HAL_Driver/Src/stm32l4xx_hal_exti.c ****       regval &= ~maskline;
 153              		.loc 1 202 17
 154 00aa 3B69     		ldr	r3, [r7, #16]
 155 00ac DB43     		mvns	r3, r3
 156              		.loc 1 202 14
 157 00ae FA69     		ldr	r2, [r7, #28]
 158 00b0 1340     		ands	r3, r3, r2
 159 00b2 FB61     		str	r3, [r7, #28]
 160              	.L9:
 203:Drivers/STM32L4xx_HAL_Driver/Src/stm32l4xx_hal_exti.c ****     }
 204:Drivers/STM32L4xx_HAL_Driver/Src/stm32l4xx_hal_exti.c **** 
 205:Drivers/STM32L4xx_HAL_Driver/Src/stm32l4xx_hal_exti.c ****     /* Store falling trigger mode */
 206:Drivers/STM32L4xx_HAL_Driver/Src/stm32l4xx_hal_exti.c ****     *regaddr = regval;
 161              		.loc 1 206 14
 162 00b4 FB68     		ldr	r3, [r7, #12]
 163 00b6 FA69     		ldr	r2, [r7, #28]
 164 00b8 1A60     		str	r2, [r3]
 207:Drivers/STM32L4xx_HAL_Driver/Src/stm32l4xx_hal_exti.c **** 
 208:Drivers/STM32L4xx_HAL_Driver/Src/stm32l4xx_hal_exti.c ****     /* Configure gpio port selection in case of gpio exti line */
 209:Drivers/STM32L4xx_HAL_Driver/Src/stm32l4xx_hal_exti.c ****     if ((pExtiConfig->Line & EXTI_GPIO) == EXTI_GPIO)
 165              		.loc 1 209 21
 166 00ba 3B68     		ldr	r3, [r7]
 167 00bc 1B68     		ldr	r3, [r3]
 168              		.loc 1 209 28
 169 00be 03F0C063 		and	r3, r3, #100663296
 170              		.loc 1 209 8
 171 00c2 B3F1C06F 		cmp	r3, #100663296
 172 00c6 23D1     		bne	.L5
 210:Drivers/STM32L4xx_HAL_Driver/Src/stm32l4xx_hal_exti.c ****     {
 211:Drivers/STM32L4xx_HAL_Driver/Src/stm32l4xx_hal_exti.c ****       assert_param(IS_EXTI_GPIO_PORT(pExtiConfig->GPIOSel));
 212:Drivers/STM32L4xx_HAL_Driver/Src/stm32l4xx_hal_exti.c ****       assert_param(IS_EXTI_GPIO_PIN(linepos));
 213:Drivers/STM32L4xx_HAL_Driver/Src/stm32l4xx_hal_exti.c **** 
 214:Drivers/STM32L4xx_HAL_Driver/Src/stm32l4xx_hal_exti.c ****       regval = SYSCFG->EXTICR[linepos >> 2u];
 173              		.loc 1 214 22
 174 00c8 334A     		ldr	r2, .L14+8
 175              		.loc 1 214 39
 176 00ca 7B69     		ldr	r3, [r7, #20]
 177 00cc 9B08     		lsrs	r3, r3, #2
 178              		.loc 1 214 14
 179 00ce 0233     		adds	r3, r3, #2
 180 00d0 52F82330 		ldr	r3, [r2, r3, lsl #2]
 181 00d4 FB61     		str	r3, [r7, #28]
 215:Drivers/STM32L4xx_HAL_Driver/Src/stm32l4xx_hal_exti.c ****       regval &= ~(SYSCFG_EXTICR1_EXTI0 << (SYSCFG_EXTICR1_EXTI1_Pos * (linepos & 0x03u)));
 182              		.loc 1 215 80
 183 00d6 7B69     		ldr	r3, [r7, #20]
 184 00d8 03F00303 		and	r3, r3, #3
 185              		.loc 1 215 69
ARM GAS  C:\Users\isan\AppData\Local\Temp\ccdMwwg3.s 			page 8


 186 00dc 9B00     		lsls	r3, r3, #2
 187              		.loc 1 215 40
 188 00de 0F22     		movs	r2, #15
 189 00e0 02FA03F3 		lsl	r3, r2, r3
 190              		.loc 1 215 17
 191 00e4 DB43     		mvns	r3, r3
 192              		.loc 1 215 14
 193 00e6 FA69     		ldr	r2, [r7, #28]
 194 00e8 1340     		ands	r3, r3, r2
 195 00ea FB61     		str	r3, [r7, #28]
 216:Drivers/STM32L4xx_HAL_Driver/Src/stm32l4xx_hal_exti.c ****       regval |= (pExtiConfig->GPIOSel << (SYSCFG_EXTICR1_EXTI1_Pos * (linepos & 0x03u)));
 196              		.loc 1 216 29
 197 00ec 3B68     		ldr	r3, [r7]
 198 00ee DA68     		ldr	r2, [r3, #12]
 199              		.loc 1 216 79
 200 00f0 7B69     		ldr	r3, [r7, #20]
 201 00f2 03F00303 		and	r3, r3, #3
 202              		.loc 1 216 68
 203 00f6 9B00     		lsls	r3, r3, #2
 204              		.loc 1 216 39
 205 00f8 02FA03F3 		lsl	r3, r2, r3
 206              		.loc 1 216 14
 207 00fc FA69     		ldr	r2, [r7, #28]
 208 00fe 1343     		orrs	r3, r3, r2
 209 0100 FB61     		str	r3, [r7, #28]
 217:Drivers/STM32L4xx_HAL_Driver/Src/stm32l4xx_hal_exti.c ****       SYSCFG->EXTICR[linepos >> 2u] = regval;
 210              		.loc 1 217 13
 211 0102 2549     		ldr	r1, .L14+8
 212              		.loc 1 217 30
 213 0104 7B69     		ldr	r3, [r7, #20]
 214 0106 9B08     		lsrs	r3, r3, #2
 215              		.loc 1 217 37
 216 0108 0233     		adds	r3, r3, #2
 217 010a FA69     		ldr	r2, [r7, #28]
 218 010c 41F82320 		str	r2, [r1, r3, lsl #2]
 219              	.L5:
 218:Drivers/STM32L4xx_HAL_Driver/Src/stm32l4xx_hal_exti.c ****     }
 219:Drivers/STM32L4xx_HAL_Driver/Src/stm32l4xx_hal_exti.c ****   }
 220:Drivers/STM32L4xx_HAL_Driver/Src/stm32l4xx_hal_exti.c **** 
 221:Drivers/STM32L4xx_HAL_Driver/Src/stm32l4xx_hal_exti.c ****   /* Configure interrupt mode : read current mode */
 222:Drivers/STM32L4xx_HAL_Driver/Src/stm32l4xx_hal_exti.c ****   regaddr = (&EXTI->IMR1 + (EXTI_MODE_OFFSET * offset));
 220              		.loc 1 222 26
 221 0110 BB69     		ldr	r3, [r7, #24]
 222 0112 5B01     		lsls	r3, r3, #5
 223              		.loc 1 222 11
 224 0114 03F18043 		add	r3, r3, #1073741824
 225 0118 03F58233 		add	r3, r3, #66560
 226 011c FB60     		str	r3, [r7, #12]
 223:Drivers/STM32L4xx_HAL_Driver/Src/stm32l4xx_hal_exti.c ****   regval = *regaddr;
 227              		.loc 1 223 10
 228 011e FB68     		ldr	r3, [r7, #12]
 229 0120 1B68     		ldr	r3, [r3]
 230 0122 FB61     		str	r3, [r7, #28]
 224:Drivers/STM32L4xx_HAL_Driver/Src/stm32l4xx_hal_exti.c **** 
 225:Drivers/STM32L4xx_HAL_Driver/Src/stm32l4xx_hal_exti.c ****   /* Mask or set line */
 226:Drivers/STM32L4xx_HAL_Driver/Src/stm32l4xx_hal_exti.c ****   if ((pExtiConfig->Mode & EXTI_MODE_INTERRUPT) != 0x00u)
 231              		.loc 1 226 19
ARM GAS  C:\Users\isan\AppData\Local\Temp\ccdMwwg3.s 			page 9


 232 0124 3B68     		ldr	r3, [r7]
 233 0126 5B68     		ldr	r3, [r3, #4]
 234              		.loc 1 226 26
 235 0128 03F00103 		and	r3, r3, #1
 236              		.loc 1 226 6
 237 012c 002B     		cmp	r3, #0
 238 012e 04D0     		beq	.L10
 227:Drivers/STM32L4xx_HAL_Driver/Src/stm32l4xx_hal_exti.c ****   {
 228:Drivers/STM32L4xx_HAL_Driver/Src/stm32l4xx_hal_exti.c ****     regval |= maskline;
 239              		.loc 1 228 12
 240 0130 FA69     		ldr	r2, [r7, #28]
 241 0132 3B69     		ldr	r3, [r7, #16]
 242 0134 1343     		orrs	r3, r3, r2
 243 0136 FB61     		str	r3, [r7, #28]
 244 0138 04E0     		b	.L11
 245              	.L10:
 229:Drivers/STM32L4xx_HAL_Driver/Src/stm32l4xx_hal_exti.c ****   }
 230:Drivers/STM32L4xx_HAL_Driver/Src/stm32l4xx_hal_exti.c ****   else
 231:Drivers/STM32L4xx_HAL_Driver/Src/stm32l4xx_hal_exti.c ****   {
 232:Drivers/STM32L4xx_HAL_Driver/Src/stm32l4xx_hal_exti.c ****     regval &= ~maskline;
 246              		.loc 1 232 15
 247 013a 3B69     		ldr	r3, [r7, #16]
 248 013c DB43     		mvns	r3, r3
 249              		.loc 1 232 12
 250 013e FA69     		ldr	r2, [r7, #28]
 251 0140 1340     		ands	r3, r3, r2
 252 0142 FB61     		str	r3, [r7, #28]
 253              	.L11:
 233:Drivers/STM32L4xx_HAL_Driver/Src/stm32l4xx_hal_exti.c ****   }
 234:Drivers/STM32L4xx_HAL_Driver/Src/stm32l4xx_hal_exti.c **** 
 235:Drivers/STM32L4xx_HAL_Driver/Src/stm32l4xx_hal_exti.c ****   /* Store interrupt mode */
 236:Drivers/STM32L4xx_HAL_Driver/Src/stm32l4xx_hal_exti.c ****   *regaddr = regval;
 254              		.loc 1 236 12
 255 0144 FB68     		ldr	r3, [r7, #12]
 256 0146 FA69     		ldr	r2, [r7, #28]
 257 0148 1A60     		str	r2, [r3]
 237:Drivers/STM32L4xx_HAL_Driver/Src/stm32l4xx_hal_exti.c **** 
 238:Drivers/STM32L4xx_HAL_Driver/Src/stm32l4xx_hal_exti.c ****   /* The event mode cannot be configured if the line does not support it */
 239:Drivers/STM32L4xx_HAL_Driver/Src/stm32l4xx_hal_exti.c ****   assert_param(((pExtiConfig->Line & EXTI_EVENT) == EXTI_EVENT) || ((pExtiConfig->Mode & EXTI_MODE_
 240:Drivers/STM32L4xx_HAL_Driver/Src/stm32l4xx_hal_exti.c **** 
 241:Drivers/STM32L4xx_HAL_Driver/Src/stm32l4xx_hal_exti.c ****   /* Configure event mode : read current mode */
 242:Drivers/STM32L4xx_HAL_Driver/Src/stm32l4xx_hal_exti.c ****   regaddr = (&EXTI->EMR1 + (EXTI_MODE_OFFSET * offset));
 258              		.loc 1 242 26
 259 014a BB69     		ldr	r3, [r7, #24]
 260 014c 5A01     		lsls	r2, r3, #5
 261              		.loc 1 242 11
 262 014e 134B     		ldr	r3, .L14+12
 263 0150 1344     		add	r3, r3, r2
 264 0152 FB60     		str	r3, [r7, #12]
 243:Drivers/STM32L4xx_HAL_Driver/Src/stm32l4xx_hal_exti.c ****   regval = *regaddr;
 265              		.loc 1 243 10
 266 0154 FB68     		ldr	r3, [r7, #12]
 267 0156 1B68     		ldr	r3, [r3]
 268 0158 FB61     		str	r3, [r7, #28]
 244:Drivers/STM32L4xx_HAL_Driver/Src/stm32l4xx_hal_exti.c **** 
 245:Drivers/STM32L4xx_HAL_Driver/Src/stm32l4xx_hal_exti.c ****   /* Mask or set line */
 246:Drivers/STM32L4xx_HAL_Driver/Src/stm32l4xx_hal_exti.c ****   if ((pExtiConfig->Mode & EXTI_MODE_EVENT) != 0x00u)
ARM GAS  C:\Users\isan\AppData\Local\Temp\ccdMwwg3.s 			page 10


 269              		.loc 1 246 19
 270 015a 3B68     		ldr	r3, [r7]
 271 015c 5B68     		ldr	r3, [r3, #4]
 272              		.loc 1 246 26
 273 015e 03F00203 		and	r3, r3, #2
 274              		.loc 1 246 6
 275 0162 002B     		cmp	r3, #0
 276 0164 04D0     		beq	.L12
 247:Drivers/STM32L4xx_HAL_Driver/Src/stm32l4xx_hal_exti.c ****   {
 248:Drivers/STM32L4xx_HAL_Driver/Src/stm32l4xx_hal_exti.c ****     regval |= maskline;
 277              		.loc 1 248 12
 278 0166 FA69     		ldr	r2, [r7, #28]
 279 0168 3B69     		ldr	r3, [r7, #16]
 280 016a 1343     		orrs	r3, r3, r2
 281 016c FB61     		str	r3, [r7, #28]
 282 016e 04E0     		b	.L13
 283              	.L12:
 249:Drivers/STM32L4xx_HAL_Driver/Src/stm32l4xx_hal_exti.c ****   }
 250:Drivers/STM32L4xx_HAL_Driver/Src/stm32l4xx_hal_exti.c ****   else
 251:Drivers/STM32L4xx_HAL_Driver/Src/stm32l4xx_hal_exti.c ****   {
 252:Drivers/STM32L4xx_HAL_Driver/Src/stm32l4xx_hal_exti.c ****     regval &= ~maskline;
 284              		.loc 1 252 15
 285 0170 3B69     		ldr	r3, [r7, #16]
 286 0172 DB43     		mvns	r3, r3
 287              		.loc 1 252 12
 288 0174 FA69     		ldr	r2, [r7, #28]
 289 0176 1340     		ands	r3, r3, r2
 290 0178 FB61     		str	r3, [r7, #28]
 291              	.L13:
 253:Drivers/STM32L4xx_HAL_Driver/Src/stm32l4xx_hal_exti.c ****   }
 254:Drivers/STM32L4xx_HAL_Driver/Src/stm32l4xx_hal_exti.c **** 
 255:Drivers/STM32L4xx_HAL_Driver/Src/stm32l4xx_hal_exti.c ****   /* Store event mode */
 256:Drivers/STM32L4xx_HAL_Driver/Src/stm32l4xx_hal_exti.c ****   *regaddr = regval;
 292              		.loc 1 256 12
 293 017a FB68     		ldr	r3, [r7, #12]
 294 017c FA69     		ldr	r2, [r7, #28]
 295 017e 1A60     		str	r2, [r3]
 257:Drivers/STM32L4xx_HAL_Driver/Src/stm32l4xx_hal_exti.c **** 
 258:Drivers/STM32L4xx_HAL_Driver/Src/stm32l4xx_hal_exti.c ****   return HAL_OK;
 296              		.loc 1 258 10
 297 0180 0023     		movs	r3, #0
 298              	.L4:
 259:Drivers/STM32L4xx_HAL_Driver/Src/stm32l4xx_hal_exti.c **** }
 299              		.loc 1 259 1
 300 0182 1846     		mov	r0, r3
 301 0184 2437     		adds	r7, r7, #36
 302              		.cfi_def_cfa_offset 4
 303 0186 BD46     		mov	sp, r7
 304              		.cfi_def_cfa_register 13
 305              		@ sp needed
 306 0188 5DF8047B 		ldr	r7, [sp], #4
 307              		.cfi_restore 7
 308              		.cfi_def_cfa_offset 0
 309 018c 7047     		bx	lr
 310              	.L15:
 311 018e 00BF     		.align	2
 312              	.L14:
ARM GAS  C:\Users\isan\AppData\Local\Temp\ccdMwwg3.s 			page 11


 313 0190 08040140 		.word	1073808392
 314 0194 0C040140 		.word	1073808396
 315 0198 00000140 		.word	1073807360
 316 019c 04040140 		.word	1073808388
 317              		.cfi_endproc
 318              	.LFE321:
 320              		.section	.text.HAL_EXTI_GetConfigLine,"ax",%progbits
 321              		.align	1
 322              		.global	HAL_EXTI_GetConfigLine
 323              		.syntax unified
 324              		.thumb
 325              		.thumb_func
 327              	HAL_EXTI_GetConfigLine:
 328              	.LFB322:
 260:Drivers/STM32L4xx_HAL_Driver/Src/stm32l4xx_hal_exti.c **** 
 261:Drivers/STM32L4xx_HAL_Driver/Src/stm32l4xx_hal_exti.c **** 
 262:Drivers/STM32L4xx_HAL_Driver/Src/stm32l4xx_hal_exti.c **** /**
 263:Drivers/STM32L4xx_HAL_Driver/Src/stm32l4xx_hal_exti.c ****   * @brief  Get configuration of a dedicated Exti line.
 264:Drivers/STM32L4xx_HAL_Driver/Src/stm32l4xx_hal_exti.c ****   * @param  hexti Exti handle.
 265:Drivers/STM32L4xx_HAL_Driver/Src/stm32l4xx_hal_exti.c ****   * @param  pExtiConfig Pointer on structure to store Exti configuration.
 266:Drivers/STM32L4xx_HAL_Driver/Src/stm32l4xx_hal_exti.c ****   * @retval HAL Status.
 267:Drivers/STM32L4xx_HAL_Driver/Src/stm32l4xx_hal_exti.c ****   */
 268:Drivers/STM32L4xx_HAL_Driver/Src/stm32l4xx_hal_exti.c **** HAL_StatusTypeDef HAL_EXTI_GetConfigLine(EXTI_HandleTypeDef *hexti, EXTI_ConfigTypeDef *pExtiConfig
 269:Drivers/STM32L4xx_HAL_Driver/Src/stm32l4xx_hal_exti.c **** {
 329              		.loc 1 269 1
 330              		.cfi_startproc
 331              		@ args = 0, pretend = 0, frame = 32
 332              		@ frame_needed = 1, uses_anonymous_args = 0
 333              		@ link register save eliminated.
 334 0000 80B4     		push	{r7}
 335              		.cfi_def_cfa_offset 4
 336              		.cfi_offset 7, -4
 337 0002 89B0     		sub	sp, sp, #36
 338              		.cfi_def_cfa_offset 40
 339 0004 00AF     		add	r7, sp, #0
 340              		.cfi_def_cfa_register 7
 341 0006 7860     		str	r0, [r7, #4]
 342 0008 3960     		str	r1, [r7]
 270:Drivers/STM32L4xx_HAL_Driver/Src/stm32l4xx_hal_exti.c ****   __IO uint32_t *regaddr;
 271:Drivers/STM32L4xx_HAL_Driver/Src/stm32l4xx_hal_exti.c ****   uint32_t regval;
 272:Drivers/STM32L4xx_HAL_Driver/Src/stm32l4xx_hal_exti.c ****   uint32_t linepos;
 273:Drivers/STM32L4xx_HAL_Driver/Src/stm32l4xx_hal_exti.c ****   uint32_t maskline;
 274:Drivers/STM32L4xx_HAL_Driver/Src/stm32l4xx_hal_exti.c ****   uint32_t offset;
 275:Drivers/STM32L4xx_HAL_Driver/Src/stm32l4xx_hal_exti.c **** 
 276:Drivers/STM32L4xx_HAL_Driver/Src/stm32l4xx_hal_exti.c ****   /* Check null pointer */
 277:Drivers/STM32L4xx_HAL_Driver/Src/stm32l4xx_hal_exti.c ****   if ((hexti == NULL) || (pExtiConfig == NULL))
 343              		.loc 1 277 6
 344 000a 7B68     		ldr	r3, [r7, #4]
 345 000c 002B     		cmp	r3, #0
 346 000e 02D0     		beq	.L17
 347              		.loc 1 277 23 discriminator 1
 348 0010 3B68     		ldr	r3, [r7]
 349 0012 002B     		cmp	r3, #0
 350 0014 01D1     		bne	.L18
 351              	.L17:
 278:Drivers/STM32L4xx_HAL_Driver/Src/stm32l4xx_hal_exti.c ****   {
 279:Drivers/STM32L4xx_HAL_Driver/Src/stm32l4xx_hal_exti.c ****     return HAL_ERROR;
ARM GAS  C:\Users\isan\AppData\Local\Temp\ccdMwwg3.s 			page 12


 352              		.loc 1 279 12
 353 0016 0123     		movs	r3, #1
 354 0018 85E0     		b	.L19
 355              	.L18:
 280:Drivers/STM32L4xx_HAL_Driver/Src/stm32l4xx_hal_exti.c ****   }
 281:Drivers/STM32L4xx_HAL_Driver/Src/stm32l4xx_hal_exti.c **** 
 282:Drivers/STM32L4xx_HAL_Driver/Src/stm32l4xx_hal_exti.c ****   /* Check the parameter */
 283:Drivers/STM32L4xx_HAL_Driver/Src/stm32l4xx_hal_exti.c ****   assert_param(IS_EXTI_LINE(hexti->Line));
 284:Drivers/STM32L4xx_HAL_Driver/Src/stm32l4xx_hal_exti.c **** 
 285:Drivers/STM32L4xx_HAL_Driver/Src/stm32l4xx_hal_exti.c ****   /* Store handle line number to configuration structure */
 286:Drivers/STM32L4xx_HAL_Driver/Src/stm32l4xx_hal_exti.c ****   pExtiConfig->Line = hexti->Line;
 356              		.loc 1 286 28
 357 001a 7B68     		ldr	r3, [r7, #4]
 358 001c 1A68     		ldr	r2, [r3]
 359              		.loc 1 286 21
 360 001e 3B68     		ldr	r3, [r7]
 361 0020 1A60     		str	r2, [r3]
 287:Drivers/STM32L4xx_HAL_Driver/Src/stm32l4xx_hal_exti.c **** 
 288:Drivers/STM32L4xx_HAL_Driver/Src/stm32l4xx_hal_exti.c ****   /* Compute line register offset and line mask */
 289:Drivers/STM32L4xx_HAL_Driver/Src/stm32l4xx_hal_exti.c ****   offset = ((pExtiConfig->Line & EXTI_REG_MASK) >> EXTI_REG_SHIFT);
 362              		.loc 1 289 25
 363 0022 3B68     		ldr	r3, [r7]
 364 0024 1B68     		ldr	r3, [r3]
 365              		.loc 1 289 49
 366 0026 1B0C     		lsrs	r3, r3, #16
 367              		.loc 1 289 10
 368 0028 03F00103 		and	r3, r3, #1
 369 002c FB61     		str	r3, [r7, #28]
 290:Drivers/STM32L4xx_HAL_Driver/Src/stm32l4xx_hal_exti.c ****   linepos = (pExtiConfig->Line & EXTI_PIN_MASK);
 370              		.loc 1 290 25
 371 002e 3B68     		ldr	r3, [r7]
 372 0030 1B68     		ldr	r3, [r3]
 373              		.loc 1 290 11
 374 0032 03F01F03 		and	r3, r3, #31
 375 0036 BB61     		str	r3, [r7, #24]
 291:Drivers/STM32L4xx_HAL_Driver/Src/stm32l4xx_hal_exti.c ****   maskline = (1uL << linepos);
 376              		.loc 1 291 12
 377 0038 0122     		movs	r2, #1
 378 003a BB69     		ldr	r3, [r7, #24]
 379 003c 02FA03F3 		lsl	r3, r2, r3
 380 0040 7B61     		str	r3, [r7, #20]
 292:Drivers/STM32L4xx_HAL_Driver/Src/stm32l4xx_hal_exti.c **** 
 293:Drivers/STM32L4xx_HAL_Driver/Src/stm32l4xx_hal_exti.c ****   /* 1] Get core mode : interrupt */
 294:Drivers/STM32L4xx_HAL_Driver/Src/stm32l4xx_hal_exti.c ****   regaddr = (&EXTI->IMR1 + (EXTI_MODE_OFFSET * offset));
 381              		.loc 1 294 26
 382 0042 FB69     		ldr	r3, [r7, #28]
 383 0044 5B01     		lsls	r3, r3, #5
 384              		.loc 1 294 11
 385 0046 03F18043 		add	r3, r3, #1073741824
 386 004a 03F58233 		add	r3, r3, #66560
 387 004e 3B61     		str	r3, [r7, #16]
 295:Drivers/STM32L4xx_HAL_Driver/Src/stm32l4xx_hal_exti.c ****   regval = *regaddr;
 388              		.loc 1 295 10
 389 0050 3B69     		ldr	r3, [r7, #16]
 390 0052 1B68     		ldr	r3, [r3]
 391 0054 FB60     		str	r3, [r7, #12]
 296:Drivers/STM32L4xx_HAL_Driver/Src/stm32l4xx_hal_exti.c **** 
ARM GAS  C:\Users\isan\AppData\Local\Temp\ccdMwwg3.s 			page 13


 297:Drivers/STM32L4xx_HAL_Driver/Src/stm32l4xx_hal_exti.c ****   /* Check if selected line is enable */
 298:Drivers/STM32L4xx_HAL_Driver/Src/stm32l4xx_hal_exti.c ****   if ((regval & maskline) != 0x00u)
 392              		.loc 1 298 15
 393 0056 FA68     		ldr	r2, [r7, #12]
 394 0058 7B69     		ldr	r3, [r7, #20]
 395 005a 1340     		ands	r3, r3, r2
 396              		.loc 1 298 6
 397 005c 002B     		cmp	r3, #0
 398 005e 03D0     		beq	.L20
 299:Drivers/STM32L4xx_HAL_Driver/Src/stm32l4xx_hal_exti.c ****   {
 300:Drivers/STM32L4xx_HAL_Driver/Src/stm32l4xx_hal_exti.c ****     pExtiConfig->Mode = EXTI_MODE_INTERRUPT;
 399              		.loc 1 300 23
 400 0060 3B68     		ldr	r3, [r7]
 401 0062 0122     		movs	r2, #1
 402 0064 5A60     		str	r2, [r3, #4]
 403 0066 02E0     		b	.L21
 404              	.L20:
 301:Drivers/STM32L4xx_HAL_Driver/Src/stm32l4xx_hal_exti.c ****   }
 302:Drivers/STM32L4xx_HAL_Driver/Src/stm32l4xx_hal_exti.c ****   else
 303:Drivers/STM32L4xx_HAL_Driver/Src/stm32l4xx_hal_exti.c ****   {
 304:Drivers/STM32L4xx_HAL_Driver/Src/stm32l4xx_hal_exti.c ****     pExtiConfig->Mode = EXTI_MODE_NONE;
 405              		.loc 1 304 23
 406 0068 3B68     		ldr	r3, [r7]
 407 006a 0022     		movs	r2, #0
 408 006c 5A60     		str	r2, [r3, #4]
 409              	.L21:
 305:Drivers/STM32L4xx_HAL_Driver/Src/stm32l4xx_hal_exti.c ****   }
 306:Drivers/STM32L4xx_HAL_Driver/Src/stm32l4xx_hal_exti.c **** 
 307:Drivers/STM32L4xx_HAL_Driver/Src/stm32l4xx_hal_exti.c ****   /* Get event mode */
 308:Drivers/STM32L4xx_HAL_Driver/Src/stm32l4xx_hal_exti.c ****   regaddr = (&EXTI->EMR1 + (EXTI_MODE_OFFSET * offset));
 410              		.loc 1 308 26
 411 006e FB69     		ldr	r3, [r7, #28]
 412 0070 5A01     		lsls	r2, r3, #5
 413              		.loc 1 308 11
 414 0072 304B     		ldr	r3, .L26
 415 0074 1344     		add	r3, r3, r2
 416 0076 3B61     		str	r3, [r7, #16]
 309:Drivers/STM32L4xx_HAL_Driver/Src/stm32l4xx_hal_exti.c ****   regval = *regaddr;
 417              		.loc 1 309 10
 418 0078 3B69     		ldr	r3, [r7, #16]
 419 007a 1B68     		ldr	r3, [r3]
 420 007c FB60     		str	r3, [r7, #12]
 310:Drivers/STM32L4xx_HAL_Driver/Src/stm32l4xx_hal_exti.c **** 
 311:Drivers/STM32L4xx_HAL_Driver/Src/stm32l4xx_hal_exti.c ****   /* Check if selected line is enable */
 312:Drivers/STM32L4xx_HAL_Driver/Src/stm32l4xx_hal_exti.c ****   if ((regval & maskline) != 0x00u)
 421              		.loc 1 312 15
 422 007e FA68     		ldr	r2, [r7, #12]
 423 0080 7B69     		ldr	r3, [r7, #20]
 424 0082 1340     		ands	r3, r3, r2
 425              		.loc 1 312 6
 426 0084 002B     		cmp	r3, #0
 427 0086 05D0     		beq	.L22
 313:Drivers/STM32L4xx_HAL_Driver/Src/stm32l4xx_hal_exti.c ****   {
 314:Drivers/STM32L4xx_HAL_Driver/Src/stm32l4xx_hal_exti.c ****     pExtiConfig->Mode |= EXTI_MODE_EVENT;
 428              		.loc 1 314 23
 429 0088 3B68     		ldr	r3, [r7]
 430 008a 5B68     		ldr	r3, [r3, #4]
ARM GAS  C:\Users\isan\AppData\Local\Temp\ccdMwwg3.s 			page 14


 431 008c 43F00202 		orr	r2, r3, #2
 432 0090 3B68     		ldr	r3, [r7]
 433 0092 5A60     		str	r2, [r3, #4]
 434              	.L22:
 315:Drivers/STM32L4xx_HAL_Driver/Src/stm32l4xx_hal_exti.c ****   }
 316:Drivers/STM32L4xx_HAL_Driver/Src/stm32l4xx_hal_exti.c **** 
 317:Drivers/STM32L4xx_HAL_Driver/Src/stm32l4xx_hal_exti.c ****   /* Get default Trigger and GPIOSel configuration */
 318:Drivers/STM32L4xx_HAL_Driver/Src/stm32l4xx_hal_exti.c ****   pExtiConfig->Trigger = EXTI_TRIGGER_NONE;
 435              		.loc 1 318 24
 436 0094 3B68     		ldr	r3, [r7]
 437 0096 0022     		movs	r2, #0
 438 0098 9A60     		str	r2, [r3, #8]
 319:Drivers/STM32L4xx_HAL_Driver/Src/stm32l4xx_hal_exti.c ****   pExtiConfig->GPIOSel = 0x00u;
 439              		.loc 1 319 24
 440 009a 3B68     		ldr	r3, [r7]
 441 009c 0022     		movs	r2, #0
 442 009e DA60     		str	r2, [r3, #12]
 320:Drivers/STM32L4xx_HAL_Driver/Src/stm32l4xx_hal_exti.c **** 
 321:Drivers/STM32L4xx_HAL_Driver/Src/stm32l4xx_hal_exti.c ****   /* 2] Get trigger for configurable lines : rising */
 322:Drivers/STM32L4xx_HAL_Driver/Src/stm32l4xx_hal_exti.c ****   if ((pExtiConfig->Line & EXTI_CONFIG) != 0x00u)
 443              		.loc 1 322 19
 444 00a0 3B68     		ldr	r3, [r7]
 445 00a2 1B68     		ldr	r3, [r3]
 446              		.loc 1 322 26
 447 00a4 03F00073 		and	r3, r3, #33554432
 448              		.loc 1 322 6
 449 00a8 002B     		cmp	r3, #0
 450 00aa 3BD0     		beq	.L23
 323:Drivers/STM32L4xx_HAL_Driver/Src/stm32l4xx_hal_exti.c ****   {
 324:Drivers/STM32L4xx_HAL_Driver/Src/stm32l4xx_hal_exti.c ****     regaddr = (&EXTI->RTSR1 + (EXTI_CONFIG_OFFSET * offset));
 451              		.loc 1 324 29
 452 00ac FB69     		ldr	r3, [r7, #28]
 453 00ae 5A01     		lsls	r2, r3, #5
 454              		.loc 1 324 13
 455 00b0 214B     		ldr	r3, .L26+4
 456 00b2 1344     		add	r3, r3, r2
 457 00b4 3B61     		str	r3, [r7, #16]
 325:Drivers/STM32L4xx_HAL_Driver/Src/stm32l4xx_hal_exti.c ****     regval = *regaddr;
 458              		.loc 1 325 12
 459 00b6 3B69     		ldr	r3, [r7, #16]
 460 00b8 1B68     		ldr	r3, [r3]
 461 00ba FB60     		str	r3, [r7, #12]
 326:Drivers/STM32L4xx_HAL_Driver/Src/stm32l4xx_hal_exti.c **** 
 327:Drivers/STM32L4xx_HAL_Driver/Src/stm32l4xx_hal_exti.c ****     /* Check if configuration of selected line is enable */
 328:Drivers/STM32L4xx_HAL_Driver/Src/stm32l4xx_hal_exti.c ****     if ((regval & maskline) != 0x00u)
 462              		.loc 1 328 17
 463 00bc FA68     		ldr	r2, [r7, #12]
 464 00be 7B69     		ldr	r3, [r7, #20]
 465 00c0 1340     		ands	r3, r3, r2
 466              		.loc 1 328 8
 467 00c2 002B     		cmp	r3, #0
 468 00c4 02D0     		beq	.L24
 329:Drivers/STM32L4xx_HAL_Driver/Src/stm32l4xx_hal_exti.c ****     {
 330:Drivers/STM32L4xx_HAL_Driver/Src/stm32l4xx_hal_exti.c ****       pExtiConfig->Trigger = EXTI_TRIGGER_RISING;
 469              		.loc 1 330 28
 470 00c6 3B68     		ldr	r3, [r7]
 471 00c8 0122     		movs	r2, #1
ARM GAS  C:\Users\isan\AppData\Local\Temp\ccdMwwg3.s 			page 15


 472 00ca 9A60     		str	r2, [r3, #8]
 473              	.L24:
 331:Drivers/STM32L4xx_HAL_Driver/Src/stm32l4xx_hal_exti.c ****     }
 332:Drivers/STM32L4xx_HAL_Driver/Src/stm32l4xx_hal_exti.c **** 
 333:Drivers/STM32L4xx_HAL_Driver/Src/stm32l4xx_hal_exti.c ****     /* Get falling configuration */
 334:Drivers/STM32L4xx_HAL_Driver/Src/stm32l4xx_hal_exti.c ****     regaddr = (&EXTI->FTSR1 + (EXTI_CONFIG_OFFSET * offset));
 474              		.loc 1 334 29
 475 00cc FB69     		ldr	r3, [r7, #28]
 476 00ce 5A01     		lsls	r2, r3, #5
 477              		.loc 1 334 13
 478 00d0 1A4B     		ldr	r3, .L26+8
 479 00d2 1344     		add	r3, r3, r2
 480 00d4 3B61     		str	r3, [r7, #16]
 335:Drivers/STM32L4xx_HAL_Driver/Src/stm32l4xx_hal_exti.c ****     regval = *regaddr;
 481              		.loc 1 335 12
 482 00d6 3B69     		ldr	r3, [r7, #16]
 483 00d8 1B68     		ldr	r3, [r3]
 484 00da FB60     		str	r3, [r7, #12]
 336:Drivers/STM32L4xx_HAL_Driver/Src/stm32l4xx_hal_exti.c **** 
 337:Drivers/STM32L4xx_HAL_Driver/Src/stm32l4xx_hal_exti.c ****     /* Check if configuration of selected line is enable */
 338:Drivers/STM32L4xx_HAL_Driver/Src/stm32l4xx_hal_exti.c ****     if ((regval & maskline) != 0x00u)
 485              		.loc 1 338 17
 486 00dc FA68     		ldr	r2, [r7, #12]
 487 00de 7B69     		ldr	r3, [r7, #20]
 488 00e0 1340     		ands	r3, r3, r2
 489              		.loc 1 338 8
 490 00e2 002B     		cmp	r3, #0
 491 00e4 05D0     		beq	.L25
 339:Drivers/STM32L4xx_HAL_Driver/Src/stm32l4xx_hal_exti.c ****     {
 340:Drivers/STM32L4xx_HAL_Driver/Src/stm32l4xx_hal_exti.c ****       pExtiConfig->Trigger |= EXTI_TRIGGER_FALLING;
 492              		.loc 1 340 28
 493 00e6 3B68     		ldr	r3, [r7]
 494 00e8 9B68     		ldr	r3, [r3, #8]
 495 00ea 43F00202 		orr	r2, r3, #2
 496 00ee 3B68     		ldr	r3, [r7]
 497 00f0 9A60     		str	r2, [r3, #8]
 498              	.L25:
 341:Drivers/STM32L4xx_HAL_Driver/Src/stm32l4xx_hal_exti.c ****     }
 342:Drivers/STM32L4xx_HAL_Driver/Src/stm32l4xx_hal_exti.c **** 
 343:Drivers/STM32L4xx_HAL_Driver/Src/stm32l4xx_hal_exti.c ****     /* Get Gpio port selection for gpio lines */
 344:Drivers/STM32L4xx_HAL_Driver/Src/stm32l4xx_hal_exti.c ****     if ((pExtiConfig->Line & EXTI_GPIO) == EXTI_GPIO)
 499              		.loc 1 344 21
 500 00f2 3B68     		ldr	r3, [r7]
 501 00f4 1B68     		ldr	r3, [r3]
 502              		.loc 1 344 28
 503 00f6 03F0C063 		and	r3, r3, #100663296
 504              		.loc 1 344 8
 505 00fa B3F1C06F 		cmp	r3, #100663296
 506 00fe 11D1     		bne	.L23
 345:Drivers/STM32L4xx_HAL_Driver/Src/stm32l4xx_hal_exti.c ****     {
 346:Drivers/STM32L4xx_HAL_Driver/Src/stm32l4xx_hal_exti.c ****       assert_param(IS_EXTI_GPIO_PIN(linepos));
 347:Drivers/STM32L4xx_HAL_Driver/Src/stm32l4xx_hal_exti.c **** 
 348:Drivers/STM32L4xx_HAL_Driver/Src/stm32l4xx_hal_exti.c ****       regval = SYSCFG->EXTICR[linepos >> 2u];
 507              		.loc 1 348 22
 508 0100 0F4A     		ldr	r2, .L26+12
 509              		.loc 1 348 39
 510 0102 BB69     		ldr	r3, [r7, #24]
ARM GAS  C:\Users\isan\AppData\Local\Temp\ccdMwwg3.s 			page 16


 511 0104 9B08     		lsrs	r3, r3, #2
 512              		.loc 1 348 14
 513 0106 0233     		adds	r3, r3, #2
 514 0108 52F82330 		ldr	r3, [r2, r3, lsl #2]
 515 010c FB60     		str	r3, [r7, #12]
 349:Drivers/STM32L4xx_HAL_Driver/Src/stm32l4xx_hal_exti.c ****       pExtiConfig->GPIOSel = ((regval << (SYSCFG_EXTICR1_EXTI1_Pos * (3uL - (linepos & 0x03u)))) >>
 516              		.loc 1 349 75
 517 010e BB69     		ldr	r3, [r7, #24]
 518 0110 DB43     		mvns	r3, r3
 519 0112 03F00303 		and	r3, r3, #3
 520              		.loc 1 349 68
 521 0116 9B00     		lsls	r3, r3, #2
 522              		.loc 1 349 39
 523 0118 FA68     		ldr	r2, [r7, #12]
 524 011a 02FA03F3 		lsl	r3, r2, r3
 525              		.loc 1 349 98
 526 011e 1A0E     		lsrs	r2, r3, #24
 527              		.loc 1 349 28
 528 0120 3B68     		ldr	r3, [r7]
 529 0122 DA60     		str	r2, [r3, #12]
 530              	.L23:
 350:Drivers/STM32L4xx_HAL_Driver/Src/stm32l4xx_hal_exti.c ****     }
 351:Drivers/STM32L4xx_HAL_Driver/Src/stm32l4xx_hal_exti.c ****   }
 352:Drivers/STM32L4xx_HAL_Driver/Src/stm32l4xx_hal_exti.c **** 
 353:Drivers/STM32L4xx_HAL_Driver/Src/stm32l4xx_hal_exti.c ****   return HAL_OK;
 531              		.loc 1 353 10
 532 0124 0023     		movs	r3, #0
 533              	.L19:
 354:Drivers/STM32L4xx_HAL_Driver/Src/stm32l4xx_hal_exti.c **** }
 534              		.loc 1 354 1
 535 0126 1846     		mov	r0, r3
 536 0128 2437     		adds	r7, r7, #36
 537              		.cfi_def_cfa_offset 4
 538 012a BD46     		mov	sp, r7
 539              		.cfi_def_cfa_register 13
 540              		@ sp needed
 541 012c 5DF8047B 		ldr	r7, [sp], #4
 542              		.cfi_restore 7
 543              		.cfi_def_cfa_offset 0
 544 0130 7047     		bx	lr
 545              	.L27:
 546 0132 00BF     		.align	2
 547              	.L26:
 548 0134 04040140 		.word	1073808388
 549 0138 08040140 		.word	1073808392
 550 013c 0C040140 		.word	1073808396
 551 0140 00000140 		.word	1073807360
 552              		.cfi_endproc
 553              	.LFE322:
 555              		.section	.text.HAL_EXTI_ClearConfigLine,"ax",%progbits
 556              		.align	1
 557              		.global	HAL_EXTI_ClearConfigLine
 558              		.syntax unified
 559              		.thumb
 560              		.thumb_func
 562              	HAL_EXTI_ClearConfigLine:
 563              	.LFB323:
ARM GAS  C:\Users\isan\AppData\Local\Temp\ccdMwwg3.s 			page 17


 355:Drivers/STM32L4xx_HAL_Driver/Src/stm32l4xx_hal_exti.c **** 
 356:Drivers/STM32L4xx_HAL_Driver/Src/stm32l4xx_hal_exti.c **** 
 357:Drivers/STM32L4xx_HAL_Driver/Src/stm32l4xx_hal_exti.c **** /**
 358:Drivers/STM32L4xx_HAL_Driver/Src/stm32l4xx_hal_exti.c ****   * @brief  Clear whole configuration of a dedicated Exti line.
 359:Drivers/STM32L4xx_HAL_Driver/Src/stm32l4xx_hal_exti.c ****   * @param  hexti Exti handle.
 360:Drivers/STM32L4xx_HAL_Driver/Src/stm32l4xx_hal_exti.c ****   * @retval HAL Status.
 361:Drivers/STM32L4xx_HAL_Driver/Src/stm32l4xx_hal_exti.c ****   */
 362:Drivers/STM32L4xx_HAL_Driver/Src/stm32l4xx_hal_exti.c **** HAL_StatusTypeDef HAL_EXTI_ClearConfigLine(EXTI_HandleTypeDef *hexti)
 363:Drivers/STM32L4xx_HAL_Driver/Src/stm32l4xx_hal_exti.c **** {
 564              		.loc 1 363 1
 565              		.cfi_startproc
 566              		@ args = 0, pretend = 0, frame = 32
 567              		@ frame_needed = 1, uses_anonymous_args = 0
 568              		@ link register save eliminated.
 569 0000 80B4     		push	{r7}
 570              		.cfi_def_cfa_offset 4
 571              		.cfi_offset 7, -4
 572 0002 89B0     		sub	sp, sp, #36
 573              		.cfi_def_cfa_offset 40
 574 0004 00AF     		add	r7, sp, #0
 575              		.cfi_def_cfa_register 7
 576 0006 7860     		str	r0, [r7, #4]
 364:Drivers/STM32L4xx_HAL_Driver/Src/stm32l4xx_hal_exti.c ****   __IO uint32_t *regaddr;
 365:Drivers/STM32L4xx_HAL_Driver/Src/stm32l4xx_hal_exti.c ****   uint32_t regval;
 366:Drivers/STM32L4xx_HAL_Driver/Src/stm32l4xx_hal_exti.c ****   uint32_t linepos;
 367:Drivers/STM32L4xx_HAL_Driver/Src/stm32l4xx_hal_exti.c ****   uint32_t maskline;
 368:Drivers/STM32L4xx_HAL_Driver/Src/stm32l4xx_hal_exti.c ****   uint32_t offset;
 369:Drivers/STM32L4xx_HAL_Driver/Src/stm32l4xx_hal_exti.c **** 
 370:Drivers/STM32L4xx_HAL_Driver/Src/stm32l4xx_hal_exti.c ****   /* Check null pointer */
 371:Drivers/STM32L4xx_HAL_Driver/Src/stm32l4xx_hal_exti.c ****   if (hexti == NULL)
 577              		.loc 1 371 6
 578 0008 7B68     		ldr	r3, [r7, #4]
 579 000a 002B     		cmp	r3, #0
 580 000c 01D1     		bne	.L29
 372:Drivers/STM32L4xx_HAL_Driver/Src/stm32l4xx_hal_exti.c ****   {
 373:Drivers/STM32L4xx_HAL_Driver/Src/stm32l4xx_hal_exti.c ****     return HAL_ERROR;
 581              		.loc 1 373 12
 582 000e 0123     		movs	r3, #1
 583 0010 70E0     		b	.L30
 584              	.L29:
 374:Drivers/STM32L4xx_HAL_Driver/Src/stm32l4xx_hal_exti.c ****   }
 375:Drivers/STM32L4xx_HAL_Driver/Src/stm32l4xx_hal_exti.c **** 
 376:Drivers/STM32L4xx_HAL_Driver/Src/stm32l4xx_hal_exti.c ****   /* Check the parameter */
 377:Drivers/STM32L4xx_HAL_Driver/Src/stm32l4xx_hal_exti.c ****   assert_param(IS_EXTI_LINE(hexti->Line));
 378:Drivers/STM32L4xx_HAL_Driver/Src/stm32l4xx_hal_exti.c **** 
 379:Drivers/STM32L4xx_HAL_Driver/Src/stm32l4xx_hal_exti.c ****   /* compute line register offset and line mask */
 380:Drivers/STM32L4xx_HAL_Driver/Src/stm32l4xx_hal_exti.c ****   offset = ((hexti->Line & EXTI_REG_MASK) >> EXTI_REG_SHIFT);
 585              		.loc 1 380 19
 586 0012 7B68     		ldr	r3, [r7, #4]
 587 0014 1B68     		ldr	r3, [r3]
 588              		.loc 1 380 43
 589 0016 1B0C     		lsrs	r3, r3, #16
 590              		.loc 1 380 10
 591 0018 03F00103 		and	r3, r3, #1
 592 001c FB61     		str	r3, [r7, #28]
 381:Drivers/STM32L4xx_HAL_Driver/Src/stm32l4xx_hal_exti.c ****   linepos = (hexti->Line & EXTI_PIN_MASK);
 593              		.loc 1 381 19
ARM GAS  C:\Users\isan\AppData\Local\Temp\ccdMwwg3.s 			page 18


 594 001e 7B68     		ldr	r3, [r7, #4]
 595 0020 1B68     		ldr	r3, [r3]
 596              		.loc 1 381 11
 597 0022 03F01F03 		and	r3, r3, #31
 598 0026 BB61     		str	r3, [r7, #24]
 382:Drivers/STM32L4xx_HAL_Driver/Src/stm32l4xx_hal_exti.c ****   maskline = (1uL << linepos);
 599              		.loc 1 382 12
 600 0028 0122     		movs	r2, #1
 601 002a BB69     		ldr	r3, [r7, #24]
 602 002c 02FA03F3 		lsl	r3, r2, r3
 603 0030 7B61     		str	r3, [r7, #20]
 383:Drivers/STM32L4xx_HAL_Driver/Src/stm32l4xx_hal_exti.c **** 
 384:Drivers/STM32L4xx_HAL_Driver/Src/stm32l4xx_hal_exti.c ****   /* 1] Clear interrupt mode */
 385:Drivers/STM32L4xx_HAL_Driver/Src/stm32l4xx_hal_exti.c ****   regaddr = (&EXTI->IMR1 + (EXTI_MODE_OFFSET * offset));
 604              		.loc 1 385 26
 605 0032 FB69     		ldr	r3, [r7, #28]
 606 0034 5B01     		lsls	r3, r3, #5
 607              		.loc 1 385 11
 608 0036 03F18043 		add	r3, r3, #1073741824
 609 003a 03F58233 		add	r3, r3, #66560
 610 003e 3B61     		str	r3, [r7, #16]
 386:Drivers/STM32L4xx_HAL_Driver/Src/stm32l4xx_hal_exti.c ****   regval = (*regaddr & ~maskline);
 611              		.loc 1 386 13
 612 0040 3B69     		ldr	r3, [r7, #16]
 613 0042 1A68     		ldr	r2, [r3]
 614              		.loc 1 386 24
 615 0044 7B69     		ldr	r3, [r7, #20]
 616 0046 DB43     		mvns	r3, r3
 617              		.loc 1 386 10
 618 0048 1340     		ands	r3, r3, r2
 619 004a FB60     		str	r3, [r7, #12]
 387:Drivers/STM32L4xx_HAL_Driver/Src/stm32l4xx_hal_exti.c ****   *regaddr = regval;
 620              		.loc 1 387 12
 621 004c 3B69     		ldr	r3, [r7, #16]
 622 004e FA68     		ldr	r2, [r7, #12]
 623 0050 1A60     		str	r2, [r3]
 388:Drivers/STM32L4xx_HAL_Driver/Src/stm32l4xx_hal_exti.c **** 
 389:Drivers/STM32L4xx_HAL_Driver/Src/stm32l4xx_hal_exti.c ****   /* 2] Clear event mode */
 390:Drivers/STM32L4xx_HAL_Driver/Src/stm32l4xx_hal_exti.c ****   regaddr = (&EXTI->EMR1 + (EXTI_MODE_OFFSET * offset));
 624              		.loc 1 390 26
 625 0052 FB69     		ldr	r3, [r7, #28]
 626 0054 5A01     		lsls	r2, r3, #5
 627              		.loc 1 390 11
 628 0056 2A4B     		ldr	r3, .L32
 629 0058 1344     		add	r3, r3, r2
 630 005a 3B61     		str	r3, [r7, #16]
 391:Drivers/STM32L4xx_HAL_Driver/Src/stm32l4xx_hal_exti.c ****   regval = (*regaddr & ~maskline);
 631              		.loc 1 391 13
 632 005c 3B69     		ldr	r3, [r7, #16]
 633 005e 1A68     		ldr	r2, [r3]
 634              		.loc 1 391 24
 635 0060 7B69     		ldr	r3, [r7, #20]
 636 0062 DB43     		mvns	r3, r3
 637              		.loc 1 391 10
 638 0064 1340     		ands	r3, r3, r2
 639 0066 FB60     		str	r3, [r7, #12]
 392:Drivers/STM32L4xx_HAL_Driver/Src/stm32l4xx_hal_exti.c ****   *regaddr = regval;
ARM GAS  C:\Users\isan\AppData\Local\Temp\ccdMwwg3.s 			page 19


 640              		.loc 1 392 12
 641 0068 3B69     		ldr	r3, [r7, #16]
 642 006a FA68     		ldr	r2, [r7, #12]
 643 006c 1A60     		str	r2, [r3]
 393:Drivers/STM32L4xx_HAL_Driver/Src/stm32l4xx_hal_exti.c **** 
 394:Drivers/STM32L4xx_HAL_Driver/Src/stm32l4xx_hal_exti.c ****   /* 3] Clear triggers in case of configurable lines */
 395:Drivers/STM32L4xx_HAL_Driver/Src/stm32l4xx_hal_exti.c ****   if ((hexti->Line & EXTI_CONFIG) != 0x00u)
 644              		.loc 1 395 13
 645 006e 7B68     		ldr	r3, [r7, #4]
 646 0070 1B68     		ldr	r3, [r3]
 647              		.loc 1 395 20
 648 0072 03F00073 		and	r3, r3, #33554432
 649              		.loc 1 395 6
 650 0076 002B     		cmp	r3, #0
 651 0078 3BD0     		beq	.L31
 396:Drivers/STM32L4xx_HAL_Driver/Src/stm32l4xx_hal_exti.c ****   {
 397:Drivers/STM32L4xx_HAL_Driver/Src/stm32l4xx_hal_exti.c ****     regaddr = (&EXTI->RTSR1 + (EXTI_CONFIG_OFFSET * offset));
 652              		.loc 1 397 29
 653 007a FB69     		ldr	r3, [r7, #28]
 654 007c 5A01     		lsls	r2, r3, #5
 655              		.loc 1 397 13
 656 007e 214B     		ldr	r3, .L32+4
 657 0080 1344     		add	r3, r3, r2
 658 0082 3B61     		str	r3, [r7, #16]
 398:Drivers/STM32L4xx_HAL_Driver/Src/stm32l4xx_hal_exti.c ****     regval = (*regaddr & ~maskline);
 659              		.loc 1 398 15
 660 0084 3B69     		ldr	r3, [r7, #16]
 661 0086 1A68     		ldr	r2, [r3]
 662              		.loc 1 398 26
 663 0088 7B69     		ldr	r3, [r7, #20]
 664 008a DB43     		mvns	r3, r3
 665              		.loc 1 398 12
 666 008c 1340     		ands	r3, r3, r2
 667 008e FB60     		str	r3, [r7, #12]
 399:Drivers/STM32L4xx_HAL_Driver/Src/stm32l4xx_hal_exti.c ****     *regaddr = regval;
 668              		.loc 1 399 14
 669 0090 3B69     		ldr	r3, [r7, #16]
 670 0092 FA68     		ldr	r2, [r7, #12]
 671 0094 1A60     		str	r2, [r3]
 400:Drivers/STM32L4xx_HAL_Driver/Src/stm32l4xx_hal_exti.c **** 
 401:Drivers/STM32L4xx_HAL_Driver/Src/stm32l4xx_hal_exti.c ****     regaddr = (&EXTI->FTSR1 + (EXTI_CONFIG_OFFSET * offset));
 672              		.loc 1 401 29
 673 0096 FB69     		ldr	r3, [r7, #28]
 674 0098 5A01     		lsls	r2, r3, #5
 675              		.loc 1 401 13
 676 009a 1B4B     		ldr	r3, .L32+8
 677 009c 1344     		add	r3, r3, r2
 678 009e 3B61     		str	r3, [r7, #16]
 402:Drivers/STM32L4xx_HAL_Driver/Src/stm32l4xx_hal_exti.c ****     regval = (*regaddr & ~maskline);
 679              		.loc 1 402 15
 680 00a0 3B69     		ldr	r3, [r7, #16]
 681 00a2 1A68     		ldr	r2, [r3]
 682              		.loc 1 402 26
 683 00a4 7B69     		ldr	r3, [r7, #20]
 684 00a6 DB43     		mvns	r3, r3
 685              		.loc 1 402 12
 686 00a8 1340     		ands	r3, r3, r2
ARM GAS  C:\Users\isan\AppData\Local\Temp\ccdMwwg3.s 			page 20


 687 00aa FB60     		str	r3, [r7, #12]
 403:Drivers/STM32L4xx_HAL_Driver/Src/stm32l4xx_hal_exti.c ****     *regaddr = regval;
 688              		.loc 1 403 14
 689 00ac 3B69     		ldr	r3, [r7, #16]
 690 00ae FA68     		ldr	r2, [r7, #12]
 691 00b0 1A60     		str	r2, [r3]
 404:Drivers/STM32L4xx_HAL_Driver/Src/stm32l4xx_hal_exti.c **** 
 405:Drivers/STM32L4xx_HAL_Driver/Src/stm32l4xx_hal_exti.c ****     /* Get Gpio port selection for gpio lines */
 406:Drivers/STM32L4xx_HAL_Driver/Src/stm32l4xx_hal_exti.c ****     if ((hexti->Line & EXTI_GPIO) == EXTI_GPIO)
 692              		.loc 1 406 15
 693 00b2 7B68     		ldr	r3, [r7, #4]
 694 00b4 1B68     		ldr	r3, [r3]
 695              		.loc 1 406 22
 696 00b6 03F0C063 		and	r3, r3, #100663296
 697              		.loc 1 406 8
 698 00ba B3F1C06F 		cmp	r3, #100663296
 699 00be 18D1     		bne	.L31
 407:Drivers/STM32L4xx_HAL_Driver/Src/stm32l4xx_hal_exti.c ****     {
 408:Drivers/STM32L4xx_HAL_Driver/Src/stm32l4xx_hal_exti.c ****       assert_param(IS_EXTI_GPIO_PIN(linepos));
 409:Drivers/STM32L4xx_HAL_Driver/Src/stm32l4xx_hal_exti.c **** 
 410:Drivers/STM32L4xx_HAL_Driver/Src/stm32l4xx_hal_exti.c ****       regval = SYSCFG->EXTICR[linepos >> 2u];
 700              		.loc 1 410 22
 701 00c0 124A     		ldr	r2, .L32+12
 702              		.loc 1 410 39
 703 00c2 BB69     		ldr	r3, [r7, #24]
 704 00c4 9B08     		lsrs	r3, r3, #2
 705              		.loc 1 410 14
 706 00c6 0233     		adds	r3, r3, #2
 707 00c8 52F82330 		ldr	r3, [r2, r3, lsl #2]
 708 00cc FB60     		str	r3, [r7, #12]
 411:Drivers/STM32L4xx_HAL_Driver/Src/stm32l4xx_hal_exti.c ****       regval &= ~(SYSCFG_EXTICR1_EXTI0 << (SYSCFG_EXTICR1_EXTI1_Pos * (linepos & 0x03u)));
 709              		.loc 1 411 80
 710 00ce BB69     		ldr	r3, [r7, #24]
 711 00d0 03F00303 		and	r3, r3, #3
 712              		.loc 1 411 69
 713 00d4 9B00     		lsls	r3, r3, #2
 714              		.loc 1 411 40
 715 00d6 0F22     		movs	r2, #15
 716 00d8 02FA03F3 		lsl	r3, r2, r3
 717              		.loc 1 411 17
 718 00dc DB43     		mvns	r3, r3
 719              		.loc 1 411 14
 720 00de FA68     		ldr	r2, [r7, #12]
 721 00e0 1340     		ands	r3, r3, r2
 722 00e2 FB60     		str	r3, [r7, #12]
 412:Drivers/STM32L4xx_HAL_Driver/Src/stm32l4xx_hal_exti.c ****       SYSCFG->EXTICR[linepos >> 2u] = regval;
 723              		.loc 1 412 13
 724 00e4 0949     		ldr	r1, .L32+12
 725              		.loc 1 412 30
 726 00e6 BB69     		ldr	r3, [r7, #24]
 727 00e8 9B08     		lsrs	r3, r3, #2
 728              		.loc 1 412 37
 729 00ea 0233     		adds	r3, r3, #2
 730 00ec FA68     		ldr	r2, [r7, #12]
 731 00ee 41F82320 		str	r2, [r1, r3, lsl #2]
 732              	.L31:
 413:Drivers/STM32L4xx_HAL_Driver/Src/stm32l4xx_hal_exti.c ****     }
ARM GAS  C:\Users\isan\AppData\Local\Temp\ccdMwwg3.s 			page 21


 414:Drivers/STM32L4xx_HAL_Driver/Src/stm32l4xx_hal_exti.c ****   }
 415:Drivers/STM32L4xx_HAL_Driver/Src/stm32l4xx_hal_exti.c **** 
 416:Drivers/STM32L4xx_HAL_Driver/Src/stm32l4xx_hal_exti.c ****   return HAL_OK;
 733              		.loc 1 416 10
 734 00f2 0023     		movs	r3, #0
 735              	.L30:
 417:Drivers/STM32L4xx_HAL_Driver/Src/stm32l4xx_hal_exti.c **** }
 736              		.loc 1 417 1
 737 00f4 1846     		mov	r0, r3
 738 00f6 2437     		adds	r7, r7, #36
 739              		.cfi_def_cfa_offset 4
 740 00f8 BD46     		mov	sp, r7
 741              		.cfi_def_cfa_register 13
 742              		@ sp needed
 743 00fa 5DF8047B 		ldr	r7, [sp], #4
 744              		.cfi_restore 7
 745              		.cfi_def_cfa_offset 0
 746 00fe 7047     		bx	lr
 747              	.L33:
 748              		.align	2
 749              	.L32:
 750 0100 04040140 		.word	1073808388
 751 0104 08040140 		.word	1073808392
 752 0108 0C040140 		.word	1073808396
 753 010c 00000140 		.word	1073807360
 754              		.cfi_endproc
 755              	.LFE323:
 757              		.section	.text.HAL_EXTI_RegisterCallback,"ax",%progbits
 758              		.align	1
 759              		.global	HAL_EXTI_RegisterCallback
 760              		.syntax unified
 761              		.thumb
 762              		.thumb_func
 764              	HAL_EXTI_RegisterCallback:
 765              	.LFB324:
 418:Drivers/STM32L4xx_HAL_Driver/Src/stm32l4xx_hal_exti.c **** 
 419:Drivers/STM32L4xx_HAL_Driver/Src/stm32l4xx_hal_exti.c **** 
 420:Drivers/STM32L4xx_HAL_Driver/Src/stm32l4xx_hal_exti.c **** /**
 421:Drivers/STM32L4xx_HAL_Driver/Src/stm32l4xx_hal_exti.c ****   * @brief  Register callback for a dedicated Exti line.
 422:Drivers/STM32L4xx_HAL_Driver/Src/stm32l4xx_hal_exti.c ****   * @param  hexti Exti handle.
 423:Drivers/STM32L4xx_HAL_Driver/Src/stm32l4xx_hal_exti.c ****   * @param  CallbackID User callback identifier.
 424:Drivers/STM32L4xx_HAL_Driver/Src/stm32l4xx_hal_exti.c ****   *         This parameter can be one of @arg @ref EXTI_CallbackIDTypeDef values.
 425:Drivers/STM32L4xx_HAL_Driver/Src/stm32l4xx_hal_exti.c ****   * @param  pPendingCbfn function pointer to be stored as callback.
 426:Drivers/STM32L4xx_HAL_Driver/Src/stm32l4xx_hal_exti.c ****   * @retval HAL Status.
 427:Drivers/STM32L4xx_HAL_Driver/Src/stm32l4xx_hal_exti.c ****   */
 428:Drivers/STM32L4xx_HAL_Driver/Src/stm32l4xx_hal_exti.c **** HAL_StatusTypeDef HAL_EXTI_RegisterCallback(EXTI_HandleTypeDef *hexti, EXTI_CallbackIDTypeDef Callb
 429:Drivers/STM32L4xx_HAL_Driver/Src/stm32l4xx_hal_exti.c **** {
 766              		.loc 1 429 1
 767              		.cfi_startproc
 768              		@ args = 0, pretend = 0, frame = 24
 769              		@ frame_needed = 1, uses_anonymous_args = 0
 770              		@ link register save eliminated.
 771 0000 80B4     		push	{r7}
 772              		.cfi_def_cfa_offset 4
 773              		.cfi_offset 7, -4
 774 0002 87B0     		sub	sp, sp, #28
 775              		.cfi_def_cfa_offset 32
ARM GAS  C:\Users\isan\AppData\Local\Temp\ccdMwwg3.s 			page 22


 776 0004 00AF     		add	r7, sp, #0
 777              		.cfi_def_cfa_register 7
 778 0006 F860     		str	r0, [r7, #12]
 779 0008 0B46     		mov	r3, r1
 780 000a 7A60     		str	r2, [r7, #4]
 781 000c FB72     		strb	r3, [r7, #11]
 430:Drivers/STM32L4xx_HAL_Driver/Src/stm32l4xx_hal_exti.c ****   HAL_StatusTypeDef status = HAL_OK;
 782              		.loc 1 430 21
 783 000e 0023     		movs	r3, #0
 784 0010 FB75     		strb	r3, [r7, #23]
 431:Drivers/STM32L4xx_HAL_Driver/Src/stm32l4xx_hal_exti.c **** 
 432:Drivers/STM32L4xx_HAL_Driver/Src/stm32l4xx_hal_exti.c ****   switch (CallbackID)
 785              		.loc 1 432 3
 786 0012 FB7A     		ldrb	r3, [r7, #11]	@ zero_extendqisi2
 787 0014 002B     		cmp	r3, #0
 788 0016 03D1     		bne	.L35
 433:Drivers/STM32L4xx_HAL_Driver/Src/stm32l4xx_hal_exti.c ****   {
 434:Drivers/STM32L4xx_HAL_Driver/Src/stm32l4xx_hal_exti.c ****     case  HAL_EXTI_COMMON_CB_ID:
 435:Drivers/STM32L4xx_HAL_Driver/Src/stm32l4xx_hal_exti.c ****       hexti->PendingCallback = pPendingCbfn;
 789              		.loc 1 435 30
 790 0018 FB68     		ldr	r3, [r7, #12]
 791 001a 7A68     		ldr	r2, [r7, #4]
 792 001c 5A60     		str	r2, [r3, #4]
 436:Drivers/STM32L4xx_HAL_Driver/Src/stm32l4xx_hal_exti.c ****       break;
 793              		.loc 1 436 7
 794 001e 02E0     		b	.L36
 795              	.L35:
 437:Drivers/STM32L4xx_HAL_Driver/Src/stm32l4xx_hal_exti.c **** 
 438:Drivers/STM32L4xx_HAL_Driver/Src/stm32l4xx_hal_exti.c ****     default:
 439:Drivers/STM32L4xx_HAL_Driver/Src/stm32l4xx_hal_exti.c ****       status = HAL_ERROR;
 796              		.loc 1 439 14
 797 0020 0123     		movs	r3, #1
 798 0022 FB75     		strb	r3, [r7, #23]
 440:Drivers/STM32L4xx_HAL_Driver/Src/stm32l4xx_hal_exti.c ****       break;
 799              		.loc 1 440 7
 800 0024 00BF     		nop
 801              	.L36:
 441:Drivers/STM32L4xx_HAL_Driver/Src/stm32l4xx_hal_exti.c ****   }
 442:Drivers/STM32L4xx_HAL_Driver/Src/stm32l4xx_hal_exti.c **** 
 443:Drivers/STM32L4xx_HAL_Driver/Src/stm32l4xx_hal_exti.c ****   return status;
 802              		.loc 1 443 10
 803 0026 FB7D     		ldrb	r3, [r7, #23]	@ zero_extendqisi2
 444:Drivers/STM32L4xx_HAL_Driver/Src/stm32l4xx_hal_exti.c **** }
 804              		.loc 1 444 1
 805 0028 1846     		mov	r0, r3
 806 002a 1C37     		adds	r7, r7, #28
 807              		.cfi_def_cfa_offset 4
 808 002c BD46     		mov	sp, r7
 809              		.cfi_def_cfa_register 13
 810              		@ sp needed
 811 002e 5DF8047B 		ldr	r7, [sp], #4
 812              		.cfi_restore 7
 813              		.cfi_def_cfa_offset 0
 814 0032 7047     		bx	lr
 815              		.cfi_endproc
 816              	.LFE324:
 818              		.section	.text.HAL_EXTI_GetHandle,"ax",%progbits
ARM GAS  C:\Users\isan\AppData\Local\Temp\ccdMwwg3.s 			page 23


 819              		.align	1
 820              		.global	HAL_EXTI_GetHandle
 821              		.syntax unified
 822              		.thumb
 823              		.thumb_func
 825              	HAL_EXTI_GetHandle:
 826              	.LFB325:
 445:Drivers/STM32L4xx_HAL_Driver/Src/stm32l4xx_hal_exti.c **** 
 446:Drivers/STM32L4xx_HAL_Driver/Src/stm32l4xx_hal_exti.c **** 
 447:Drivers/STM32L4xx_HAL_Driver/Src/stm32l4xx_hal_exti.c **** /**
 448:Drivers/STM32L4xx_HAL_Driver/Src/stm32l4xx_hal_exti.c ****   * @brief  Store line number as handle private field.
 449:Drivers/STM32L4xx_HAL_Driver/Src/stm32l4xx_hal_exti.c ****   * @param  hexti Exti handle.
 450:Drivers/STM32L4xx_HAL_Driver/Src/stm32l4xx_hal_exti.c ****   * @param  ExtiLine Exti line number.
 451:Drivers/STM32L4xx_HAL_Driver/Src/stm32l4xx_hal_exti.c ****   *         This parameter can be from 0 to @ref EXTI_LINE_NB.
 452:Drivers/STM32L4xx_HAL_Driver/Src/stm32l4xx_hal_exti.c ****   * @retval HAL Status.
 453:Drivers/STM32L4xx_HAL_Driver/Src/stm32l4xx_hal_exti.c ****   */
 454:Drivers/STM32L4xx_HAL_Driver/Src/stm32l4xx_hal_exti.c **** HAL_StatusTypeDef HAL_EXTI_GetHandle(EXTI_HandleTypeDef *hexti, uint32_t ExtiLine)
 455:Drivers/STM32L4xx_HAL_Driver/Src/stm32l4xx_hal_exti.c **** {
 827              		.loc 1 455 1
 828              		.cfi_startproc
 829              		@ args = 0, pretend = 0, frame = 8
 830              		@ frame_needed = 1, uses_anonymous_args = 0
 831              		@ link register save eliminated.
 832 0000 80B4     		push	{r7}
 833              		.cfi_def_cfa_offset 4
 834              		.cfi_offset 7, -4
 835 0002 83B0     		sub	sp, sp, #12
 836              		.cfi_def_cfa_offset 16
 837 0004 00AF     		add	r7, sp, #0
 838              		.cfi_def_cfa_register 7
 839 0006 7860     		str	r0, [r7, #4]
 840 0008 3960     		str	r1, [r7]
 456:Drivers/STM32L4xx_HAL_Driver/Src/stm32l4xx_hal_exti.c ****   /* Check the parameters */
 457:Drivers/STM32L4xx_HAL_Driver/Src/stm32l4xx_hal_exti.c ****   assert_param(IS_EXTI_LINE(ExtiLine));
 458:Drivers/STM32L4xx_HAL_Driver/Src/stm32l4xx_hal_exti.c **** 
 459:Drivers/STM32L4xx_HAL_Driver/Src/stm32l4xx_hal_exti.c ****   /* Check null pointer */
 460:Drivers/STM32L4xx_HAL_Driver/Src/stm32l4xx_hal_exti.c ****   if (hexti == NULL)
 841              		.loc 1 460 6
 842 000a 7B68     		ldr	r3, [r7, #4]
 843 000c 002B     		cmp	r3, #0
 844 000e 01D1     		bne	.L39
 461:Drivers/STM32L4xx_HAL_Driver/Src/stm32l4xx_hal_exti.c ****   {
 462:Drivers/STM32L4xx_HAL_Driver/Src/stm32l4xx_hal_exti.c ****     return HAL_ERROR;
 845              		.loc 1 462 12
 846 0010 0123     		movs	r3, #1
 847 0012 03E0     		b	.L40
 848              	.L39:
 463:Drivers/STM32L4xx_HAL_Driver/Src/stm32l4xx_hal_exti.c ****   }
 464:Drivers/STM32L4xx_HAL_Driver/Src/stm32l4xx_hal_exti.c ****   else
 465:Drivers/STM32L4xx_HAL_Driver/Src/stm32l4xx_hal_exti.c ****   {
 466:Drivers/STM32L4xx_HAL_Driver/Src/stm32l4xx_hal_exti.c ****     /* Store line number as handle private field */
 467:Drivers/STM32L4xx_HAL_Driver/Src/stm32l4xx_hal_exti.c ****     hexti->Line = ExtiLine;
 849              		.loc 1 467 17
 850 0014 7B68     		ldr	r3, [r7, #4]
 851 0016 3A68     		ldr	r2, [r7]
 852 0018 1A60     		str	r2, [r3]
 468:Drivers/STM32L4xx_HAL_Driver/Src/stm32l4xx_hal_exti.c **** 
ARM GAS  C:\Users\isan\AppData\Local\Temp\ccdMwwg3.s 			page 24


 469:Drivers/STM32L4xx_HAL_Driver/Src/stm32l4xx_hal_exti.c ****     return HAL_OK;
 853              		.loc 1 469 12
 854 001a 0023     		movs	r3, #0
 855              	.L40:
 470:Drivers/STM32L4xx_HAL_Driver/Src/stm32l4xx_hal_exti.c ****   }
 471:Drivers/STM32L4xx_HAL_Driver/Src/stm32l4xx_hal_exti.c **** }
 856              		.loc 1 471 1
 857 001c 1846     		mov	r0, r3
 858 001e 0C37     		adds	r7, r7, #12
 859              		.cfi_def_cfa_offset 4
 860 0020 BD46     		mov	sp, r7
 861              		.cfi_def_cfa_register 13
 862              		@ sp needed
 863 0022 5DF8047B 		ldr	r7, [sp], #4
 864              		.cfi_restore 7
 865              		.cfi_def_cfa_offset 0
 866 0026 7047     		bx	lr
 867              		.cfi_endproc
 868              	.LFE325:
 870              		.section	.text.HAL_EXTI_IRQHandler,"ax",%progbits
 871              		.align	1
 872              		.global	HAL_EXTI_IRQHandler
 873              		.syntax unified
 874              		.thumb
 875              		.thumb_func
 877              	HAL_EXTI_IRQHandler:
 878              	.LFB326:
 472:Drivers/STM32L4xx_HAL_Driver/Src/stm32l4xx_hal_exti.c **** 
 473:Drivers/STM32L4xx_HAL_Driver/Src/stm32l4xx_hal_exti.c **** 
 474:Drivers/STM32L4xx_HAL_Driver/Src/stm32l4xx_hal_exti.c **** /**
 475:Drivers/STM32L4xx_HAL_Driver/Src/stm32l4xx_hal_exti.c ****   * @}
 476:Drivers/STM32L4xx_HAL_Driver/Src/stm32l4xx_hal_exti.c ****   */
 477:Drivers/STM32L4xx_HAL_Driver/Src/stm32l4xx_hal_exti.c **** 
 478:Drivers/STM32L4xx_HAL_Driver/Src/stm32l4xx_hal_exti.c **** /** @addtogroup EXTI_Exported_Functions_Group2
 479:Drivers/STM32L4xx_HAL_Driver/Src/stm32l4xx_hal_exti.c ****  *  @brief EXTI IO functions.
 480:Drivers/STM32L4xx_HAL_Driver/Src/stm32l4xx_hal_exti.c ****  *
 481:Drivers/STM32L4xx_HAL_Driver/Src/stm32l4xx_hal_exti.c **** @verbatim
 482:Drivers/STM32L4xx_HAL_Driver/Src/stm32l4xx_hal_exti.c ****  ===============================================================================
 483:Drivers/STM32L4xx_HAL_Driver/Src/stm32l4xx_hal_exti.c ****                        ##### IO operation functions #####
 484:Drivers/STM32L4xx_HAL_Driver/Src/stm32l4xx_hal_exti.c ****  ===============================================================================
 485:Drivers/STM32L4xx_HAL_Driver/Src/stm32l4xx_hal_exti.c **** 
 486:Drivers/STM32L4xx_HAL_Driver/Src/stm32l4xx_hal_exti.c **** @endverbatim
 487:Drivers/STM32L4xx_HAL_Driver/Src/stm32l4xx_hal_exti.c ****   * @{
 488:Drivers/STM32L4xx_HAL_Driver/Src/stm32l4xx_hal_exti.c ****   */
 489:Drivers/STM32L4xx_HAL_Driver/Src/stm32l4xx_hal_exti.c **** 
 490:Drivers/STM32L4xx_HAL_Driver/Src/stm32l4xx_hal_exti.c **** /**
 491:Drivers/STM32L4xx_HAL_Driver/Src/stm32l4xx_hal_exti.c ****   * @brief  Handle EXTI interrupt request.
 492:Drivers/STM32L4xx_HAL_Driver/Src/stm32l4xx_hal_exti.c ****   * @param  hexti Exti handle.
 493:Drivers/STM32L4xx_HAL_Driver/Src/stm32l4xx_hal_exti.c ****   * @retval none.
 494:Drivers/STM32L4xx_HAL_Driver/Src/stm32l4xx_hal_exti.c ****   */
 495:Drivers/STM32L4xx_HAL_Driver/Src/stm32l4xx_hal_exti.c **** void HAL_EXTI_IRQHandler(EXTI_HandleTypeDef *hexti)
 496:Drivers/STM32L4xx_HAL_Driver/Src/stm32l4xx_hal_exti.c **** {
 879              		.loc 1 496 1
 880              		.cfi_startproc
 881              		@ args = 0, pretend = 0, frame = 24
 882              		@ frame_needed = 1, uses_anonymous_args = 0
 883 0000 80B5     		push	{r7, lr}
ARM GAS  C:\Users\isan\AppData\Local\Temp\ccdMwwg3.s 			page 25


 884              		.cfi_def_cfa_offset 8
 885              		.cfi_offset 7, -8
 886              		.cfi_offset 14, -4
 887 0002 86B0     		sub	sp, sp, #24
 888              		.cfi_def_cfa_offset 32
 889 0004 00AF     		add	r7, sp, #0
 890              		.cfi_def_cfa_register 7
 891 0006 7860     		str	r0, [r7, #4]
 497:Drivers/STM32L4xx_HAL_Driver/Src/stm32l4xx_hal_exti.c ****   __IO uint32_t *regaddr;
 498:Drivers/STM32L4xx_HAL_Driver/Src/stm32l4xx_hal_exti.c ****   uint32_t regval;
 499:Drivers/STM32L4xx_HAL_Driver/Src/stm32l4xx_hal_exti.c ****   uint32_t maskline;
 500:Drivers/STM32L4xx_HAL_Driver/Src/stm32l4xx_hal_exti.c ****   uint32_t offset;
 501:Drivers/STM32L4xx_HAL_Driver/Src/stm32l4xx_hal_exti.c **** 
 502:Drivers/STM32L4xx_HAL_Driver/Src/stm32l4xx_hal_exti.c ****   /* Compute line register offset and line mask */
 503:Drivers/STM32L4xx_HAL_Driver/Src/stm32l4xx_hal_exti.c ****   offset = ((hexti->Line & EXTI_REG_MASK) >> EXTI_REG_SHIFT);
 892              		.loc 1 503 19
 893 0008 7B68     		ldr	r3, [r7, #4]
 894 000a 1B68     		ldr	r3, [r3]
 895              		.loc 1 503 43
 896 000c 1B0C     		lsrs	r3, r3, #16
 897              		.loc 1 503 10
 898 000e 03F00103 		and	r3, r3, #1
 899 0012 7B61     		str	r3, [r7, #20]
 504:Drivers/STM32L4xx_HAL_Driver/Src/stm32l4xx_hal_exti.c ****   maskline = (1uL << (hexti->Line & EXTI_PIN_MASK));
 900              		.loc 1 504 28
 901 0014 7B68     		ldr	r3, [r7, #4]
 902 0016 1B68     		ldr	r3, [r3]
 903              		.loc 1 504 35
 904 0018 03F01F03 		and	r3, r3, #31
 905              		.loc 1 504 12
 906 001c 0122     		movs	r2, #1
 907 001e 02FA03F3 		lsl	r3, r2, r3
 908 0022 3B61     		str	r3, [r7, #16]
 505:Drivers/STM32L4xx_HAL_Driver/Src/stm32l4xx_hal_exti.c **** 
 506:Drivers/STM32L4xx_HAL_Driver/Src/stm32l4xx_hal_exti.c ****   /* Get pending bit  */
 507:Drivers/STM32L4xx_HAL_Driver/Src/stm32l4xx_hal_exti.c ****   regaddr = (&EXTI->PR1 + (EXTI_CONFIG_OFFSET * offset));
 909              		.loc 1 507 25
 910 0024 7B69     		ldr	r3, [r7, #20]
 911 0026 5A01     		lsls	r2, r3, #5
 912              		.loc 1 507 11
 913 0028 0C4B     		ldr	r3, .L44
 914 002a 1344     		add	r3, r3, r2
 915 002c FB60     		str	r3, [r7, #12]
 508:Drivers/STM32L4xx_HAL_Driver/Src/stm32l4xx_hal_exti.c ****   regval = (*regaddr & maskline);
 916              		.loc 1 508 13
 917 002e FB68     		ldr	r3, [r7, #12]
 918 0030 1B68     		ldr	r3, [r3]
 919              		.loc 1 508 10
 920 0032 3A69     		ldr	r2, [r7, #16]
 921 0034 1340     		ands	r3, r3, r2
 922 0036 BB60     		str	r3, [r7, #8]
 509:Drivers/STM32L4xx_HAL_Driver/Src/stm32l4xx_hal_exti.c **** 
 510:Drivers/STM32L4xx_HAL_Driver/Src/stm32l4xx_hal_exti.c ****   if (regval != 0x00u)
 923              		.loc 1 510 6
 924 0038 BB68     		ldr	r3, [r7, #8]
 925 003a 002B     		cmp	r3, #0
 926 003c 09D0     		beq	.L43
ARM GAS  C:\Users\isan\AppData\Local\Temp\ccdMwwg3.s 			page 26


 511:Drivers/STM32L4xx_HAL_Driver/Src/stm32l4xx_hal_exti.c ****   {
 512:Drivers/STM32L4xx_HAL_Driver/Src/stm32l4xx_hal_exti.c ****     /* Clear pending bit */
 513:Drivers/STM32L4xx_HAL_Driver/Src/stm32l4xx_hal_exti.c ****     *regaddr = maskline;
 927              		.loc 1 513 14
 928 003e FB68     		ldr	r3, [r7, #12]
 929 0040 3A69     		ldr	r2, [r7, #16]
 930 0042 1A60     		str	r2, [r3]
 514:Drivers/STM32L4xx_HAL_Driver/Src/stm32l4xx_hal_exti.c **** 
 515:Drivers/STM32L4xx_HAL_Driver/Src/stm32l4xx_hal_exti.c ****     /* Call callback */
 516:Drivers/STM32L4xx_HAL_Driver/Src/stm32l4xx_hal_exti.c ****     if (hexti->PendingCallback != NULL)
 931              		.loc 1 516 14
 932 0044 7B68     		ldr	r3, [r7, #4]
 933 0046 5B68     		ldr	r3, [r3, #4]
 934              		.loc 1 516 8
 935 0048 002B     		cmp	r3, #0
 936 004a 02D0     		beq	.L43
 517:Drivers/STM32L4xx_HAL_Driver/Src/stm32l4xx_hal_exti.c ****     {
 518:Drivers/STM32L4xx_HAL_Driver/Src/stm32l4xx_hal_exti.c ****       hexti->PendingCallback();
 937              		.loc 1 518 12
 938 004c 7B68     		ldr	r3, [r7, #4]
 939 004e 5B68     		ldr	r3, [r3, #4]
 940              		.loc 1 518 7
 941 0050 9847     		blx	r3
 942              	.LVL0:
 943              	.L43:
 519:Drivers/STM32L4xx_HAL_Driver/Src/stm32l4xx_hal_exti.c ****     }
 520:Drivers/STM32L4xx_HAL_Driver/Src/stm32l4xx_hal_exti.c ****   }
 521:Drivers/STM32L4xx_HAL_Driver/Src/stm32l4xx_hal_exti.c **** }
 944              		.loc 1 521 1
 945 0052 00BF     		nop
 946 0054 1837     		adds	r7, r7, #24
 947              		.cfi_def_cfa_offset 8
 948 0056 BD46     		mov	sp, r7
 949              		.cfi_def_cfa_register 13
 950              		@ sp needed
 951 0058 80BD     		pop	{r7, pc}
 952              	.L45:
 953 005a 00BF     		.align	2
 954              	.L44:
 955 005c 14040140 		.word	1073808404
 956              		.cfi_endproc
 957              	.LFE326:
 959              		.section	.text.HAL_EXTI_GetPending,"ax",%progbits
 960              		.align	1
 961              		.global	HAL_EXTI_GetPending
 962              		.syntax unified
 963              		.thumb
 964              		.thumb_func
 966              	HAL_EXTI_GetPending:
 967              	.LFB327:
 522:Drivers/STM32L4xx_HAL_Driver/Src/stm32l4xx_hal_exti.c **** 
 523:Drivers/STM32L4xx_HAL_Driver/Src/stm32l4xx_hal_exti.c **** 
 524:Drivers/STM32L4xx_HAL_Driver/Src/stm32l4xx_hal_exti.c **** /**
 525:Drivers/STM32L4xx_HAL_Driver/Src/stm32l4xx_hal_exti.c ****   * @brief  Get interrupt pending bit of a dedicated line.
 526:Drivers/STM32L4xx_HAL_Driver/Src/stm32l4xx_hal_exti.c ****   * @param  hexti Exti handle.
 527:Drivers/STM32L4xx_HAL_Driver/Src/stm32l4xx_hal_exti.c ****   * @param  Edge Specify which pending edge as to be checked.
 528:Drivers/STM32L4xx_HAL_Driver/Src/stm32l4xx_hal_exti.c ****   *         This parameter can be one of the following values:
ARM GAS  C:\Users\isan\AppData\Local\Temp\ccdMwwg3.s 			page 27


 529:Drivers/STM32L4xx_HAL_Driver/Src/stm32l4xx_hal_exti.c ****   *           @arg @ref EXTI_TRIGGER_RISING_FALLING
 530:Drivers/STM32L4xx_HAL_Driver/Src/stm32l4xx_hal_exti.c ****   *         This parameter is kept for compatibility with other series.
 531:Drivers/STM32L4xx_HAL_Driver/Src/stm32l4xx_hal_exti.c ****   * @retval 1 if interrupt is pending else 0.
 532:Drivers/STM32L4xx_HAL_Driver/Src/stm32l4xx_hal_exti.c ****   */
 533:Drivers/STM32L4xx_HAL_Driver/Src/stm32l4xx_hal_exti.c **** uint32_t HAL_EXTI_GetPending(EXTI_HandleTypeDef *hexti, uint32_t Edge)
 534:Drivers/STM32L4xx_HAL_Driver/Src/stm32l4xx_hal_exti.c **** {
 968              		.loc 1 534 1
 969              		.cfi_startproc
 970              		@ args = 0, pretend = 0, frame = 32
 971              		@ frame_needed = 1, uses_anonymous_args = 0
 972              		@ link register save eliminated.
 973 0000 80B4     		push	{r7}
 974              		.cfi_def_cfa_offset 4
 975              		.cfi_offset 7, -4
 976 0002 89B0     		sub	sp, sp, #36
 977              		.cfi_def_cfa_offset 40
 978 0004 00AF     		add	r7, sp, #0
 979              		.cfi_def_cfa_register 7
 980 0006 7860     		str	r0, [r7, #4]
 981 0008 3960     		str	r1, [r7]
 535:Drivers/STM32L4xx_HAL_Driver/Src/stm32l4xx_hal_exti.c ****   __IO uint32_t *regaddr;
 536:Drivers/STM32L4xx_HAL_Driver/Src/stm32l4xx_hal_exti.c ****   uint32_t regval;
 537:Drivers/STM32L4xx_HAL_Driver/Src/stm32l4xx_hal_exti.c ****   uint32_t linepos;
 538:Drivers/STM32L4xx_HAL_Driver/Src/stm32l4xx_hal_exti.c ****   uint32_t maskline;
 539:Drivers/STM32L4xx_HAL_Driver/Src/stm32l4xx_hal_exti.c ****   uint32_t offset;
 540:Drivers/STM32L4xx_HAL_Driver/Src/stm32l4xx_hal_exti.c **** 
 541:Drivers/STM32L4xx_HAL_Driver/Src/stm32l4xx_hal_exti.c ****   /* Check parameters */
 542:Drivers/STM32L4xx_HAL_Driver/Src/stm32l4xx_hal_exti.c ****   assert_param(IS_EXTI_LINE(hexti->Line));
 543:Drivers/STM32L4xx_HAL_Driver/Src/stm32l4xx_hal_exti.c ****   assert_param(IS_EXTI_CONFIG_LINE(hexti->Line));
 544:Drivers/STM32L4xx_HAL_Driver/Src/stm32l4xx_hal_exti.c ****   assert_param(IS_EXTI_PENDING_EDGE(Edge));
 545:Drivers/STM32L4xx_HAL_Driver/Src/stm32l4xx_hal_exti.c **** 
 546:Drivers/STM32L4xx_HAL_Driver/Src/stm32l4xx_hal_exti.c ****   /* Compute line register offset and line mask */
 547:Drivers/STM32L4xx_HAL_Driver/Src/stm32l4xx_hal_exti.c ****   offset = ((hexti->Line & EXTI_REG_MASK) >> EXTI_REG_SHIFT);
 982              		.loc 1 547 19
 983 000a 7B68     		ldr	r3, [r7, #4]
 984 000c 1B68     		ldr	r3, [r3]
 985              		.loc 1 547 43
 986 000e 1B0C     		lsrs	r3, r3, #16
 987              		.loc 1 547 10
 988 0010 03F00103 		and	r3, r3, #1
 989 0014 FB61     		str	r3, [r7, #28]
 548:Drivers/STM32L4xx_HAL_Driver/Src/stm32l4xx_hal_exti.c ****   linepos = (hexti->Line & EXTI_PIN_MASK);
 990              		.loc 1 548 19
 991 0016 7B68     		ldr	r3, [r7, #4]
 992 0018 1B68     		ldr	r3, [r3]
 993              		.loc 1 548 11
 994 001a 03F01F03 		and	r3, r3, #31
 995 001e BB61     		str	r3, [r7, #24]
 549:Drivers/STM32L4xx_HAL_Driver/Src/stm32l4xx_hal_exti.c ****   maskline = (1uL << linepos);
 996              		.loc 1 549 12
 997 0020 0122     		movs	r2, #1
 998 0022 BB69     		ldr	r3, [r7, #24]
 999 0024 02FA03F3 		lsl	r3, r2, r3
 1000 0028 7B61     		str	r3, [r7, #20]
 550:Drivers/STM32L4xx_HAL_Driver/Src/stm32l4xx_hal_exti.c **** 
 551:Drivers/STM32L4xx_HAL_Driver/Src/stm32l4xx_hal_exti.c ****   /* Get pending bit */
 552:Drivers/STM32L4xx_HAL_Driver/Src/stm32l4xx_hal_exti.c ****   regaddr = (&EXTI->PR1 + (EXTI_CONFIG_OFFSET * offset));
ARM GAS  C:\Users\isan\AppData\Local\Temp\ccdMwwg3.s 			page 28


 1001              		.loc 1 552 25
 1002 002a FB69     		ldr	r3, [r7, #28]
 1003 002c 5A01     		lsls	r2, r3, #5
 1004              		.loc 1 552 11
 1005 002e 094B     		ldr	r3, .L48
 1006 0030 1344     		add	r3, r3, r2
 1007 0032 3B61     		str	r3, [r7, #16]
 553:Drivers/STM32L4xx_HAL_Driver/Src/stm32l4xx_hal_exti.c **** 
 554:Drivers/STM32L4xx_HAL_Driver/Src/stm32l4xx_hal_exti.c ****   /* return 1 if bit is set else 0 */
 555:Drivers/STM32L4xx_HAL_Driver/Src/stm32l4xx_hal_exti.c ****   regval = ((*regaddr & maskline) >> linepos);
 1008              		.loc 1 555 14
 1009 0034 3B69     		ldr	r3, [r7, #16]
 1010 0036 1A68     		ldr	r2, [r3]
 1011              		.loc 1 555 23
 1012 0038 7B69     		ldr	r3, [r7, #20]
 1013 003a 1A40     		ands	r2, r2, r3
 1014              		.loc 1 555 10
 1015 003c BB69     		ldr	r3, [r7, #24]
 1016 003e 22FA03F3 		lsr	r3, r2, r3
 1017 0042 FB60     		str	r3, [r7, #12]
 556:Drivers/STM32L4xx_HAL_Driver/Src/stm32l4xx_hal_exti.c ****   return regval;
 1018              		.loc 1 556 10
 1019 0044 FB68     		ldr	r3, [r7, #12]
 557:Drivers/STM32L4xx_HAL_Driver/Src/stm32l4xx_hal_exti.c **** }
 1020              		.loc 1 557 1
 1021 0046 1846     		mov	r0, r3
 1022 0048 2437     		adds	r7, r7, #36
 1023              		.cfi_def_cfa_offset 4
 1024 004a BD46     		mov	sp, r7
 1025              		.cfi_def_cfa_register 13
 1026              		@ sp needed
 1027 004c 5DF8047B 		ldr	r7, [sp], #4
 1028              		.cfi_restore 7
 1029              		.cfi_def_cfa_offset 0
 1030 0050 7047     		bx	lr
 1031              	.L49:
 1032 0052 00BF     		.align	2
 1033              	.L48:
 1034 0054 14040140 		.word	1073808404
 1035              		.cfi_endproc
 1036              	.LFE327:
 1038              		.section	.text.HAL_EXTI_ClearPending,"ax",%progbits
 1039              		.align	1
 1040              		.global	HAL_EXTI_ClearPending
 1041              		.syntax unified
 1042              		.thumb
 1043              		.thumb_func
 1045              	HAL_EXTI_ClearPending:
 1046              	.LFB328:
 558:Drivers/STM32L4xx_HAL_Driver/Src/stm32l4xx_hal_exti.c **** 
 559:Drivers/STM32L4xx_HAL_Driver/Src/stm32l4xx_hal_exti.c **** 
 560:Drivers/STM32L4xx_HAL_Driver/Src/stm32l4xx_hal_exti.c **** /**
 561:Drivers/STM32L4xx_HAL_Driver/Src/stm32l4xx_hal_exti.c ****   * @brief  Clear interrupt pending bit of a dedicated line.
 562:Drivers/STM32L4xx_HAL_Driver/Src/stm32l4xx_hal_exti.c ****   * @param  hexti Exti handle.
 563:Drivers/STM32L4xx_HAL_Driver/Src/stm32l4xx_hal_exti.c ****   * @param  Edge Specify which pending edge as to be clear.
 564:Drivers/STM32L4xx_HAL_Driver/Src/stm32l4xx_hal_exti.c ****   *         This parameter can be one of the following values:
 565:Drivers/STM32L4xx_HAL_Driver/Src/stm32l4xx_hal_exti.c ****   *           @arg @ref EXTI_TRIGGER_RISING_FALLING
ARM GAS  C:\Users\isan\AppData\Local\Temp\ccdMwwg3.s 			page 29


 566:Drivers/STM32L4xx_HAL_Driver/Src/stm32l4xx_hal_exti.c ****   *         This parameter is kept for compatibility with other series.
 567:Drivers/STM32L4xx_HAL_Driver/Src/stm32l4xx_hal_exti.c ****   * @retval None.
 568:Drivers/STM32L4xx_HAL_Driver/Src/stm32l4xx_hal_exti.c ****   */
 569:Drivers/STM32L4xx_HAL_Driver/Src/stm32l4xx_hal_exti.c **** void HAL_EXTI_ClearPending(EXTI_HandleTypeDef *hexti, uint32_t Edge)
 570:Drivers/STM32L4xx_HAL_Driver/Src/stm32l4xx_hal_exti.c **** {
 1047              		.loc 1 570 1
 1048              		.cfi_startproc
 1049              		@ args = 0, pretend = 0, frame = 24
 1050              		@ frame_needed = 1, uses_anonymous_args = 0
 1051              		@ link register save eliminated.
 1052 0000 80B4     		push	{r7}
 1053              		.cfi_def_cfa_offset 4
 1054              		.cfi_offset 7, -4
 1055 0002 87B0     		sub	sp, sp, #28
 1056              		.cfi_def_cfa_offset 32
 1057 0004 00AF     		add	r7, sp, #0
 1058              		.cfi_def_cfa_register 7
 1059 0006 7860     		str	r0, [r7, #4]
 1060 0008 3960     		str	r1, [r7]
 571:Drivers/STM32L4xx_HAL_Driver/Src/stm32l4xx_hal_exti.c ****   __IO uint32_t *regaddr;
 572:Drivers/STM32L4xx_HAL_Driver/Src/stm32l4xx_hal_exti.c ****   uint32_t maskline;
 573:Drivers/STM32L4xx_HAL_Driver/Src/stm32l4xx_hal_exti.c ****   uint32_t offset;
 574:Drivers/STM32L4xx_HAL_Driver/Src/stm32l4xx_hal_exti.c **** 
 575:Drivers/STM32L4xx_HAL_Driver/Src/stm32l4xx_hal_exti.c ****   /* Check parameters */
 576:Drivers/STM32L4xx_HAL_Driver/Src/stm32l4xx_hal_exti.c ****   assert_param(IS_EXTI_LINE(hexti->Line));
 577:Drivers/STM32L4xx_HAL_Driver/Src/stm32l4xx_hal_exti.c ****   assert_param(IS_EXTI_CONFIG_LINE(hexti->Line));
 578:Drivers/STM32L4xx_HAL_Driver/Src/stm32l4xx_hal_exti.c ****   assert_param(IS_EXTI_PENDING_EDGE(Edge));
 579:Drivers/STM32L4xx_HAL_Driver/Src/stm32l4xx_hal_exti.c **** 
 580:Drivers/STM32L4xx_HAL_Driver/Src/stm32l4xx_hal_exti.c ****   /* compute line register offset and line mask */
 581:Drivers/STM32L4xx_HAL_Driver/Src/stm32l4xx_hal_exti.c ****   offset = ((hexti->Line & EXTI_REG_MASK) >> EXTI_REG_SHIFT);
 1061              		.loc 1 581 19
 1062 000a 7B68     		ldr	r3, [r7, #4]
 1063 000c 1B68     		ldr	r3, [r3]
 1064              		.loc 1 581 43
 1065 000e 1B0C     		lsrs	r3, r3, #16
 1066              		.loc 1 581 10
 1067 0010 03F00103 		and	r3, r3, #1
 1068 0014 7B61     		str	r3, [r7, #20]
 582:Drivers/STM32L4xx_HAL_Driver/Src/stm32l4xx_hal_exti.c ****   maskline = (1uL << (hexti->Line & EXTI_PIN_MASK));
 1069              		.loc 1 582 28
 1070 0016 7B68     		ldr	r3, [r7, #4]
 1071 0018 1B68     		ldr	r3, [r3]
 1072              		.loc 1 582 35
 1073 001a 03F01F03 		and	r3, r3, #31
 1074              		.loc 1 582 12
 1075 001e 0122     		movs	r2, #1
 1076 0020 02FA03F3 		lsl	r3, r2, r3
 1077 0024 3B61     		str	r3, [r7, #16]
 583:Drivers/STM32L4xx_HAL_Driver/Src/stm32l4xx_hal_exti.c **** 
 584:Drivers/STM32L4xx_HAL_Driver/Src/stm32l4xx_hal_exti.c ****   /* Get pending register address */
 585:Drivers/STM32L4xx_HAL_Driver/Src/stm32l4xx_hal_exti.c ****   regaddr = (&EXTI->PR1 + (EXTI_CONFIG_OFFSET * offset));
 1078              		.loc 1 585 25
 1079 0026 7B69     		ldr	r3, [r7, #20]
 1080 0028 5A01     		lsls	r2, r3, #5
 1081              		.loc 1 585 11
 1082 002a 064B     		ldr	r3, .L51
 1083 002c 1344     		add	r3, r3, r2
ARM GAS  C:\Users\isan\AppData\Local\Temp\ccdMwwg3.s 			page 30


 1084 002e FB60     		str	r3, [r7, #12]
 586:Drivers/STM32L4xx_HAL_Driver/Src/stm32l4xx_hal_exti.c **** 
 587:Drivers/STM32L4xx_HAL_Driver/Src/stm32l4xx_hal_exti.c ****   /* Clear Pending bit */
 588:Drivers/STM32L4xx_HAL_Driver/Src/stm32l4xx_hal_exti.c ****   *regaddr =  maskline;
 1085              		.loc 1 588 12
 1086 0030 FB68     		ldr	r3, [r7, #12]
 1087 0032 3A69     		ldr	r2, [r7, #16]
 1088 0034 1A60     		str	r2, [r3]
 589:Drivers/STM32L4xx_HAL_Driver/Src/stm32l4xx_hal_exti.c **** }
 1089              		.loc 1 589 1
 1090 0036 00BF     		nop
 1091 0038 1C37     		adds	r7, r7, #28
 1092              		.cfi_def_cfa_offset 4
 1093 003a BD46     		mov	sp, r7
 1094              		.cfi_def_cfa_register 13
 1095              		@ sp needed
 1096 003c 5DF8047B 		ldr	r7, [sp], #4
 1097              		.cfi_restore 7
 1098              		.cfi_def_cfa_offset 0
 1099 0040 7047     		bx	lr
 1100              	.L52:
 1101 0042 00BF     		.align	2
 1102              	.L51:
 1103 0044 14040140 		.word	1073808404
 1104              		.cfi_endproc
 1105              	.LFE328:
 1107              		.section	.text.HAL_EXTI_GenerateSWI,"ax",%progbits
 1108              		.align	1
 1109              		.global	HAL_EXTI_GenerateSWI
 1110              		.syntax unified
 1111              		.thumb
 1112              		.thumb_func
 1114              	HAL_EXTI_GenerateSWI:
 1115              	.LFB329:
 590:Drivers/STM32L4xx_HAL_Driver/Src/stm32l4xx_hal_exti.c **** 
 591:Drivers/STM32L4xx_HAL_Driver/Src/stm32l4xx_hal_exti.c **** 
 592:Drivers/STM32L4xx_HAL_Driver/Src/stm32l4xx_hal_exti.c **** /**
 593:Drivers/STM32L4xx_HAL_Driver/Src/stm32l4xx_hal_exti.c ****   * @brief  Generate a software interrupt for a dedicated line.
 594:Drivers/STM32L4xx_HAL_Driver/Src/stm32l4xx_hal_exti.c ****   * @param  hexti Exti handle.
 595:Drivers/STM32L4xx_HAL_Driver/Src/stm32l4xx_hal_exti.c ****   * @retval None.
 596:Drivers/STM32L4xx_HAL_Driver/Src/stm32l4xx_hal_exti.c ****   */
 597:Drivers/STM32L4xx_HAL_Driver/Src/stm32l4xx_hal_exti.c **** void HAL_EXTI_GenerateSWI(EXTI_HandleTypeDef *hexti)
 598:Drivers/STM32L4xx_HAL_Driver/Src/stm32l4xx_hal_exti.c **** {
 1116              		.loc 1 598 1
 1117              		.cfi_startproc
 1118              		@ args = 0, pretend = 0, frame = 24
 1119              		@ frame_needed = 1, uses_anonymous_args = 0
 1120              		@ link register save eliminated.
 1121 0000 80B4     		push	{r7}
 1122              		.cfi_def_cfa_offset 4
 1123              		.cfi_offset 7, -4
 1124 0002 87B0     		sub	sp, sp, #28
 1125              		.cfi_def_cfa_offset 32
 1126 0004 00AF     		add	r7, sp, #0
 1127              		.cfi_def_cfa_register 7
 1128 0006 7860     		str	r0, [r7, #4]
 599:Drivers/STM32L4xx_HAL_Driver/Src/stm32l4xx_hal_exti.c ****   __IO uint32_t *regaddr;
ARM GAS  C:\Users\isan\AppData\Local\Temp\ccdMwwg3.s 			page 31


 600:Drivers/STM32L4xx_HAL_Driver/Src/stm32l4xx_hal_exti.c ****   uint32_t maskline;
 601:Drivers/STM32L4xx_HAL_Driver/Src/stm32l4xx_hal_exti.c ****   uint32_t offset;
 602:Drivers/STM32L4xx_HAL_Driver/Src/stm32l4xx_hal_exti.c **** 
 603:Drivers/STM32L4xx_HAL_Driver/Src/stm32l4xx_hal_exti.c ****   /* Check parameters */
 604:Drivers/STM32L4xx_HAL_Driver/Src/stm32l4xx_hal_exti.c ****   assert_param(IS_EXTI_LINE(hexti->Line));
 605:Drivers/STM32L4xx_HAL_Driver/Src/stm32l4xx_hal_exti.c ****   assert_param(IS_EXTI_CONFIG_LINE(hexti->Line));
 606:Drivers/STM32L4xx_HAL_Driver/Src/stm32l4xx_hal_exti.c **** 
 607:Drivers/STM32L4xx_HAL_Driver/Src/stm32l4xx_hal_exti.c ****   /* compute line register offset and line mask */
 608:Drivers/STM32L4xx_HAL_Driver/Src/stm32l4xx_hal_exti.c ****   offset = ((hexti->Line & EXTI_REG_MASK) >> EXTI_REG_SHIFT);
 1129              		.loc 1 608 19
 1130 0008 7B68     		ldr	r3, [r7, #4]
 1131 000a 1B68     		ldr	r3, [r3]
 1132              		.loc 1 608 43
 1133 000c 1B0C     		lsrs	r3, r3, #16
 1134              		.loc 1 608 10
 1135 000e 03F00103 		and	r3, r3, #1
 1136 0012 7B61     		str	r3, [r7, #20]
 609:Drivers/STM32L4xx_HAL_Driver/Src/stm32l4xx_hal_exti.c ****   maskline = (1uL << (hexti->Line & EXTI_PIN_MASK));
 1137              		.loc 1 609 28
 1138 0014 7B68     		ldr	r3, [r7, #4]
 1139 0016 1B68     		ldr	r3, [r3]
 1140              		.loc 1 609 35
 1141 0018 03F01F03 		and	r3, r3, #31
 1142              		.loc 1 609 12
 1143 001c 0122     		movs	r2, #1
 1144 001e 02FA03F3 		lsl	r3, r2, r3
 1145 0022 3B61     		str	r3, [r7, #16]
 610:Drivers/STM32L4xx_HAL_Driver/Src/stm32l4xx_hal_exti.c **** 
 611:Drivers/STM32L4xx_HAL_Driver/Src/stm32l4xx_hal_exti.c ****   regaddr = (&EXTI->SWIER1 + (EXTI_CONFIG_OFFSET * offset));
 1146              		.loc 1 611 28
 1147 0024 7B69     		ldr	r3, [r7, #20]
 1148 0026 5A01     		lsls	r2, r3, #5
 1149              		.loc 1 611 11
 1150 0028 054B     		ldr	r3, .L54
 1151 002a 1344     		add	r3, r3, r2
 1152 002c FB60     		str	r3, [r7, #12]
 612:Drivers/STM32L4xx_HAL_Driver/Src/stm32l4xx_hal_exti.c ****   *regaddr = maskline;
 1153              		.loc 1 612 12
 1154 002e FB68     		ldr	r3, [r7, #12]
 1155 0030 3A69     		ldr	r2, [r7, #16]
 1156 0032 1A60     		str	r2, [r3]
 613:Drivers/STM32L4xx_HAL_Driver/Src/stm32l4xx_hal_exti.c **** }
 1157              		.loc 1 613 1
 1158 0034 00BF     		nop
 1159 0036 1C37     		adds	r7, r7, #28
 1160              		.cfi_def_cfa_offset 4
 1161 0038 BD46     		mov	sp, r7
 1162              		.cfi_def_cfa_register 13
 1163              		@ sp needed
 1164 003a 5DF8047B 		ldr	r7, [sp], #4
 1165              		.cfi_restore 7
 1166              		.cfi_def_cfa_offset 0
 1167 003e 7047     		bx	lr
 1168              	.L55:
 1169              		.align	2
 1170              	.L54:
 1171 0040 10040140 		.word	1073808400
ARM GAS  C:\Users\isan\AppData\Local\Temp\ccdMwwg3.s 			page 32


 1172              		.cfi_endproc
 1173              	.LFE329:
 1175              		.text
 1176              	.Letext0:
 1177              		.file 2 "c:\\users\\isan\\appdata\\roaming\\code\\user\\globalstorage\\bmd.stm32-for-vscode\\@xpac
 1178              		.file 3 "c:\\users\\isan\\appdata\\roaming\\code\\user\\globalstorage\\bmd.stm32-for-vscode\\@xpac
 1179              		.file 4 "Drivers/CMSIS/Device/ST/STM32L4xx/Include/stm32l4p5xx.h"
 1180              		.file 5 "Drivers/STM32L4xx_HAL_Driver/Inc/stm32l4xx_hal_def.h"
 1181              		.file 6 "Drivers/STM32L4xx_HAL_Driver/Inc/stm32l4xx_hal_exti.h"
ARM GAS  C:\Users\isan\AppData\Local\Temp\ccdMwwg3.s 			page 33

