ARM GAS  C:\Users\Morroway\AppData\Local\Temp\cc18sEAf.s 			page 1


   1              		.cpu cortex-m4
   2              		.arch armv7e-m
   3              		.fpu fpv4-sp-d16
   4              		.eabi_attribute 27, 1
   5              		.eabi_attribute 28, 1
   6              		.eabi_attribute 20, 1
   7              		.eabi_attribute 21, 1
   8              		.eabi_attribute 23, 3
   9              		.eabi_attribute 24, 1
  10              		.eabi_attribute 25, 1
  11              		.eabi_attribute 26, 1
  12              		.eabi_attribute 30, 6
  13              		.eabi_attribute 34, 1
  14              		.eabi_attribute 18, 4
  15              		.file	"stm32l4xx_ll_sdmmc.c"
  16              		.text
  17              	.Ltext0:
  18              		.cfi_sections	.debug_frame
  19              		.section	.text.SDMMC_Init,"ax",%progbits
  20              		.align	1
  21              		.global	SDMMC_Init
  22              		.syntax unified
  23              		.thumb
  24              		.thumb_func
  26              	SDMMC_Init:
  27              	.LFB321:
  28              		.file 1 "Drivers/STM32L4xx_HAL_Driver/Src/stm32l4xx_ll_sdmmc.c"
   1:Drivers/STM32L4xx_HAL_Driver/Src/stm32l4xx_ll_sdmmc.c **** /**
   2:Drivers/STM32L4xx_HAL_Driver/Src/stm32l4xx_ll_sdmmc.c ****   ******************************************************************************
   3:Drivers/STM32L4xx_HAL_Driver/Src/stm32l4xx_ll_sdmmc.c ****   * @file    stm32l4xx_ll_sdmmc.c
   4:Drivers/STM32L4xx_HAL_Driver/Src/stm32l4xx_ll_sdmmc.c ****   * @author  MCD Application Team
   5:Drivers/STM32L4xx_HAL_Driver/Src/stm32l4xx_ll_sdmmc.c ****   * @brief   SDMMC Low Layer HAL module driver.
   6:Drivers/STM32L4xx_HAL_Driver/Src/stm32l4xx_ll_sdmmc.c ****   *
   7:Drivers/STM32L4xx_HAL_Driver/Src/stm32l4xx_ll_sdmmc.c ****   *          This file provides firmware functions to manage the following
   8:Drivers/STM32L4xx_HAL_Driver/Src/stm32l4xx_ll_sdmmc.c ****   *          functionalities of the SDMMC peripheral:
   9:Drivers/STM32L4xx_HAL_Driver/Src/stm32l4xx_ll_sdmmc.c ****   *           + Initialization/de-initialization functions
  10:Drivers/STM32L4xx_HAL_Driver/Src/stm32l4xx_ll_sdmmc.c ****   *           + I/O operation functions
  11:Drivers/STM32L4xx_HAL_Driver/Src/stm32l4xx_ll_sdmmc.c ****   *           + Peripheral Control functions
  12:Drivers/STM32L4xx_HAL_Driver/Src/stm32l4xx_ll_sdmmc.c ****   *           + Peripheral State functions
  13:Drivers/STM32L4xx_HAL_Driver/Src/stm32l4xx_ll_sdmmc.c ****   *
  14:Drivers/STM32L4xx_HAL_Driver/Src/stm32l4xx_ll_sdmmc.c ****   ******************************************************************************
  15:Drivers/STM32L4xx_HAL_Driver/Src/stm32l4xx_ll_sdmmc.c ****   * @attention
  16:Drivers/STM32L4xx_HAL_Driver/Src/stm32l4xx_ll_sdmmc.c ****   *
  17:Drivers/STM32L4xx_HAL_Driver/Src/stm32l4xx_ll_sdmmc.c ****   * Copyright (c) 2017 STMicroelectronics.
  18:Drivers/STM32L4xx_HAL_Driver/Src/stm32l4xx_ll_sdmmc.c ****   * All rights reserved.
  19:Drivers/STM32L4xx_HAL_Driver/Src/stm32l4xx_ll_sdmmc.c ****   *
  20:Drivers/STM32L4xx_HAL_Driver/Src/stm32l4xx_ll_sdmmc.c ****   * This software is licensed under terms that can be found in the LICENSE file
  21:Drivers/STM32L4xx_HAL_Driver/Src/stm32l4xx_ll_sdmmc.c ****   * in the root directory of this software component.
  22:Drivers/STM32L4xx_HAL_Driver/Src/stm32l4xx_ll_sdmmc.c ****   * If no LICENSE file comes with this software, it is provided AS-IS.
  23:Drivers/STM32L4xx_HAL_Driver/Src/stm32l4xx_ll_sdmmc.c ****   *
  24:Drivers/STM32L4xx_HAL_Driver/Src/stm32l4xx_ll_sdmmc.c ****   ******************************************************************************
  25:Drivers/STM32L4xx_HAL_Driver/Src/stm32l4xx_ll_sdmmc.c ****   @verbatim
  26:Drivers/STM32L4xx_HAL_Driver/Src/stm32l4xx_ll_sdmmc.c ****   ==============================================================================
  27:Drivers/STM32L4xx_HAL_Driver/Src/stm32l4xx_ll_sdmmc.c ****                        ##### SDMMC peripheral features #####
  28:Drivers/STM32L4xx_HAL_Driver/Src/stm32l4xx_ll_sdmmc.c ****   ==============================================================================
  29:Drivers/STM32L4xx_HAL_Driver/Src/stm32l4xx_ll_sdmmc.c ****     [..] The SD/SDMMC MMC card host interface (SDMMC) provides an interface between the AHB
  30:Drivers/STM32L4xx_HAL_Driver/Src/stm32l4xx_ll_sdmmc.c ****          peripheral bus and MultiMedia cards (MMCs), SD memory cards, SDMMC cards and CE-ATA
ARM GAS  C:\Users\Morroway\AppData\Local\Temp\cc18sEAf.s 			page 2


  31:Drivers/STM32L4xx_HAL_Driver/Src/stm32l4xx_ll_sdmmc.c ****          devices.
  32:Drivers/STM32L4xx_HAL_Driver/Src/stm32l4xx_ll_sdmmc.c **** 
  33:Drivers/STM32L4xx_HAL_Driver/Src/stm32l4xx_ll_sdmmc.c ****     [..] The SDMMC features include the following:
  34:Drivers/STM32L4xx_HAL_Driver/Src/stm32l4xx_ll_sdmmc.c ****          (+) Full compliance with MultiMediaCard System Specification Version 4.51. Card support
  35:Drivers/STM32L4xx_HAL_Driver/Src/stm32l4xx_ll_sdmmc.c ****              for three different databus modes: 1-bit (default), 4-bit and 8-bit.
  36:Drivers/STM32L4xx_HAL_Driver/Src/stm32l4xx_ll_sdmmc.c ****          (+) Full compatibility with previous versions of MultiMediaCards (backward compatibility).
  37:Drivers/STM32L4xx_HAL_Driver/Src/stm32l4xx_ll_sdmmc.c ****          (+) Full compliance with SD memory card specifications version 4.1.
  38:Drivers/STM32L4xx_HAL_Driver/Src/stm32l4xx_ll_sdmmc.c ****              (SDR104 SDMMC_CK speed limited to maximum allowed IO speed, SPI mode and
  39:Drivers/STM32L4xx_HAL_Driver/Src/stm32l4xx_ll_sdmmc.c ****               UHS-II mode not supported).
  40:Drivers/STM32L4xx_HAL_Driver/Src/stm32l4xx_ll_sdmmc.c ****          (+) Full compliance with SDIO card specification version 4.0. Card support
  41:Drivers/STM32L4xx_HAL_Driver/Src/stm32l4xx_ll_sdmmc.c ****              for two different databus modes: 1-bit (default) and 4-bit.
  42:Drivers/STM32L4xx_HAL_Driver/Src/stm32l4xx_ll_sdmmc.c ****              (SDR104 SDMMC_CK speed limited to maximum allowed IO speed, SPI mode and
  43:Drivers/STM32L4xx_HAL_Driver/Src/stm32l4xx_ll_sdmmc.c ****               UHS-II mode not supported).
  44:Drivers/STM32L4xx_HAL_Driver/Src/stm32l4xx_ll_sdmmc.c ****          (+) Data transfer up to 208 Mbyte/s for the 8 bit mode. (depending maximum allowed IO spee
  45:Drivers/STM32L4xx_HAL_Driver/Src/stm32l4xx_ll_sdmmc.c ****          (+) Data and command output enable signals to control external bidirectional drivers
  46:Drivers/STM32L4xx_HAL_Driver/Src/stm32l4xx_ll_sdmmc.c **** 
  47:Drivers/STM32L4xx_HAL_Driver/Src/stm32l4xx_ll_sdmmc.c ****                            ##### How to use this driver #####
  48:Drivers/STM32L4xx_HAL_Driver/Src/stm32l4xx_ll_sdmmc.c ****   ==============================================================================
  49:Drivers/STM32L4xx_HAL_Driver/Src/stm32l4xx_ll_sdmmc.c ****     [..]
  50:Drivers/STM32L4xx_HAL_Driver/Src/stm32l4xx_ll_sdmmc.c ****       This driver is a considered as a driver of service for external devices drivers
  51:Drivers/STM32L4xx_HAL_Driver/Src/stm32l4xx_ll_sdmmc.c ****       that interfaces with the SDMMC peripheral.
  52:Drivers/STM32L4xx_HAL_Driver/Src/stm32l4xx_ll_sdmmc.c ****       According to the device used (SD card/ MMC card / SDMMC card ...), a set of APIs
  53:Drivers/STM32L4xx_HAL_Driver/Src/stm32l4xx_ll_sdmmc.c ****       is used in the device's driver to perform SDMMC operations and functionalities.
  54:Drivers/STM32L4xx_HAL_Driver/Src/stm32l4xx_ll_sdmmc.c **** 
  55:Drivers/STM32L4xx_HAL_Driver/Src/stm32l4xx_ll_sdmmc.c ****       This driver is almost transparent for the final user, it is only used to implement other
  56:Drivers/STM32L4xx_HAL_Driver/Src/stm32l4xx_ll_sdmmc.c ****       functionalities of the external device.
  57:Drivers/STM32L4xx_HAL_Driver/Src/stm32l4xx_ll_sdmmc.c **** 
  58:Drivers/STM32L4xx_HAL_Driver/Src/stm32l4xx_ll_sdmmc.c ****     [..]
  59:Drivers/STM32L4xx_HAL_Driver/Src/stm32l4xx_ll_sdmmc.c ****       (+) The SDMMC clock (SDMMCCLK = 48 MHz) is coming from a specific output (MSI, PLLUSB1CLK,
  60:Drivers/STM32L4xx_HAL_Driver/Src/stm32l4xx_ll_sdmmc.c ****           PLLUSB2CLK). Before start working with SDMMC peripheral make sure that the
  61:Drivers/STM32L4xx_HAL_Driver/Src/stm32l4xx_ll_sdmmc.c ****           PLL is well configured.
  62:Drivers/STM32L4xx_HAL_Driver/Src/stm32l4xx_ll_sdmmc.c ****           The SDMMC peripheral uses two clock signals:
  63:Drivers/STM32L4xx_HAL_Driver/Src/stm32l4xx_ll_sdmmc.c ****           (++) SDMMC adapter clock (SDMMCCLK = 48 MHz)
  64:Drivers/STM32L4xx_HAL_Driver/Src/stm32l4xx_ll_sdmmc.c ****           (++) APB2 bus clock (PCLK2)
  65:Drivers/STM32L4xx_HAL_Driver/Src/stm32l4xx_ll_sdmmc.c **** 
  66:Drivers/STM32L4xx_HAL_Driver/Src/stm32l4xx_ll_sdmmc.c ****           -@@- PCLK2 and SDMMC_CK clock frequencies must respect the following condition:
  67:Drivers/STM32L4xx_HAL_Driver/Src/stm32l4xx_ll_sdmmc.c ****                Frequency(PCLK2) >= (3 / 8 x Frequency(SDMMC_CK)) for STM32L496xG and STM32L4A6xG
  68:Drivers/STM32L4xx_HAL_Driver/Src/stm32l4xx_ll_sdmmc.c ****                Frequency(PCLK2) >= (3 / 4 x Frequency(SDMMC_CK)) otherwise
  69:Drivers/STM32L4xx_HAL_Driver/Src/stm32l4xx_ll_sdmmc.c **** 
  70:Drivers/STM32L4xx_HAL_Driver/Src/stm32l4xx_ll_sdmmc.c ****       (+) Enable/Disable peripheral clock using RCC peripheral macros related to SDMMC
  71:Drivers/STM32L4xx_HAL_Driver/Src/stm32l4xx_ll_sdmmc.c ****           peripheral.
  72:Drivers/STM32L4xx_HAL_Driver/Src/stm32l4xx_ll_sdmmc.c **** 
  73:Drivers/STM32L4xx_HAL_Driver/Src/stm32l4xx_ll_sdmmc.c ****       (+) Enable the Power ON State using the SDMMC_PowerState_ON(SDMMCx)
  74:Drivers/STM32L4xx_HAL_Driver/Src/stm32l4xx_ll_sdmmc.c ****           function and disable it using the function SDMMC_PowerState_OFF(SDMMCx).
  75:Drivers/STM32L4xx_HAL_Driver/Src/stm32l4xx_ll_sdmmc.c **** 
  76:Drivers/STM32L4xx_HAL_Driver/Src/stm32l4xx_ll_sdmmc.c ****       (+) Enable/Disable the clock using the __SDMMC_ENABLE()/__SDMMC_DISABLE() macros.
  77:Drivers/STM32L4xx_HAL_Driver/Src/stm32l4xx_ll_sdmmc.c **** 
  78:Drivers/STM32L4xx_HAL_Driver/Src/stm32l4xx_ll_sdmmc.c ****       (+) Enable/Disable the peripheral interrupts using the macros __SDMMC_ENABLE_IT(hSDMMC, IT)
  79:Drivers/STM32L4xx_HAL_Driver/Src/stm32l4xx_ll_sdmmc.c ****           and __SDMMC_DISABLE_IT(hSDMMC, IT) if you need to use interrupt mode.
  80:Drivers/STM32L4xx_HAL_Driver/Src/stm32l4xx_ll_sdmmc.c **** 
  81:Drivers/STM32L4xx_HAL_Driver/Src/stm32l4xx_ll_sdmmc.c ****       (+) When using the DMA mode
  82:Drivers/STM32L4xx_HAL_Driver/Src/stm32l4xx_ll_sdmmc.c ****           (++) On STM32L4Rx/STM32L4Sxx devices
  83:Drivers/STM32L4xx_HAL_Driver/Src/stm32l4xx_ll_sdmmc.c ****                (+++) Configure the IDMA mode (Single buffer or double)
  84:Drivers/STM32L4xx_HAL_Driver/Src/stm32l4xx_ll_sdmmc.c ****                (+++) Configure the buffer address
  85:Drivers/STM32L4xx_HAL_Driver/Src/stm32l4xx_ll_sdmmc.c ****                (+++) Configure Data Path State Machine
  86:Drivers/STM32L4xx_HAL_Driver/Src/stm32l4xx_ll_sdmmc.c ****           (++) On other devices
  87:Drivers/STM32L4xx_HAL_Driver/Src/stm32l4xx_ll_sdmmc.c ****                (+++) Configure the DMA in the MSP layer of the external device
ARM GAS  C:\Users\Morroway\AppData\Local\Temp\cc18sEAf.s 			page 3


  88:Drivers/STM32L4xx_HAL_Driver/Src/stm32l4xx_ll_sdmmc.c ****                (+++) Active the needed channel Request 
  89:Drivers/STM32L4xx_HAL_Driver/Src/stm32l4xx_ll_sdmmc.c ****                (+++) Enable the DMA using __SDMMC_DMA_ENABLE() macro or Disable it using the macro
  90:Drivers/STM32L4xx_HAL_Driver/Src/stm32l4xx_ll_sdmmc.c ****                      __SDMMC_DMA_DISABLE().
  91:Drivers/STM32L4xx_HAL_Driver/Src/stm32l4xx_ll_sdmmc.c **** 
  92:Drivers/STM32L4xx_HAL_Driver/Src/stm32l4xx_ll_sdmmc.c ****       (+) To control the CPSM (Command Path State Machine) and send
  93:Drivers/STM32L4xx_HAL_Driver/Src/stm32l4xx_ll_sdmmc.c ****           commands to the card use the SDMMC_SendCommand(SDMMCx),
  94:Drivers/STM32L4xx_HAL_Driver/Src/stm32l4xx_ll_sdmmc.c ****           SDMMC_GetCommandResponse() and SDMMC_GetResponse() functions. First, user has
  95:Drivers/STM32L4xx_HAL_Driver/Src/stm32l4xx_ll_sdmmc.c ****           to fill the command structure (pointer to SDMMC_CmdInitTypeDef) according
  96:Drivers/STM32L4xx_HAL_Driver/Src/stm32l4xx_ll_sdmmc.c ****           to the selected command to be sent.
  97:Drivers/STM32L4xx_HAL_Driver/Src/stm32l4xx_ll_sdmmc.c ****           The parameters that should be filled are:
  98:Drivers/STM32L4xx_HAL_Driver/Src/stm32l4xx_ll_sdmmc.c ****            (++) Command Argument
  99:Drivers/STM32L4xx_HAL_Driver/Src/stm32l4xx_ll_sdmmc.c ****            (++) Command Index
 100:Drivers/STM32L4xx_HAL_Driver/Src/stm32l4xx_ll_sdmmc.c ****            (++) Command Response type
 101:Drivers/STM32L4xx_HAL_Driver/Src/stm32l4xx_ll_sdmmc.c ****            (++) Command Wait
 102:Drivers/STM32L4xx_HAL_Driver/Src/stm32l4xx_ll_sdmmc.c ****            (++) CPSM Status (Enable or Disable).
 103:Drivers/STM32L4xx_HAL_Driver/Src/stm32l4xx_ll_sdmmc.c **** 
 104:Drivers/STM32L4xx_HAL_Driver/Src/stm32l4xx_ll_sdmmc.c ****           -@@- To check if the command is well received, read the SDMMC_CMDRESP
 105:Drivers/STM32L4xx_HAL_Driver/Src/stm32l4xx_ll_sdmmc.c ****               register using the SDMMC_GetCommandResponse().
 106:Drivers/STM32L4xx_HAL_Driver/Src/stm32l4xx_ll_sdmmc.c ****               The SDMMC responses registers (SDMMC_RESP1 to SDMMC_RESP2), use the
 107:Drivers/STM32L4xx_HAL_Driver/Src/stm32l4xx_ll_sdmmc.c ****               SDMMC_GetResponse() function.
 108:Drivers/STM32L4xx_HAL_Driver/Src/stm32l4xx_ll_sdmmc.c **** 
 109:Drivers/STM32L4xx_HAL_Driver/Src/stm32l4xx_ll_sdmmc.c ****       (+) To control the DPSM (Data Path State Machine) and send/receive
 110:Drivers/STM32L4xx_HAL_Driver/Src/stm32l4xx_ll_sdmmc.c ****            data to/from the card use the SDMMC_DataConfig(), SDMMC_GetDataCounter(),
 111:Drivers/STM32L4xx_HAL_Driver/Src/stm32l4xx_ll_sdmmc.c ****           SDMMC_ReadFIFO(), SDMMC_WriteFIFO() and SDMMC_GetFIFOCount() functions.
 112:Drivers/STM32L4xx_HAL_Driver/Src/stm32l4xx_ll_sdmmc.c **** 
 113:Drivers/STM32L4xx_HAL_Driver/Src/stm32l4xx_ll_sdmmc.c ****     *** Read Operations ***
 114:Drivers/STM32L4xx_HAL_Driver/Src/stm32l4xx_ll_sdmmc.c ****     =======================
 115:Drivers/STM32L4xx_HAL_Driver/Src/stm32l4xx_ll_sdmmc.c ****     [..]
 116:Drivers/STM32L4xx_HAL_Driver/Src/stm32l4xx_ll_sdmmc.c ****       (#) First, user has to fill the data structure (pointer to
 117:Drivers/STM32L4xx_HAL_Driver/Src/stm32l4xx_ll_sdmmc.c ****           SDMMC_DataInitTypeDef) according to the selected data type to be received.
 118:Drivers/STM32L4xx_HAL_Driver/Src/stm32l4xx_ll_sdmmc.c ****           The parameters that should be filled are:
 119:Drivers/STM32L4xx_HAL_Driver/Src/stm32l4xx_ll_sdmmc.c ****            (++) Data TimeOut
 120:Drivers/STM32L4xx_HAL_Driver/Src/stm32l4xx_ll_sdmmc.c ****            (++) Data Length
 121:Drivers/STM32L4xx_HAL_Driver/Src/stm32l4xx_ll_sdmmc.c ****            (++) Data Block size
 122:Drivers/STM32L4xx_HAL_Driver/Src/stm32l4xx_ll_sdmmc.c ****            (++) Data Transfer direction: should be from card (To SDMMC)
 123:Drivers/STM32L4xx_HAL_Driver/Src/stm32l4xx_ll_sdmmc.c ****            (++) Data Transfer mode
 124:Drivers/STM32L4xx_HAL_Driver/Src/stm32l4xx_ll_sdmmc.c ****            (++) DPSM Status (Enable or Disable)
 125:Drivers/STM32L4xx_HAL_Driver/Src/stm32l4xx_ll_sdmmc.c **** 
 126:Drivers/STM32L4xx_HAL_Driver/Src/stm32l4xx_ll_sdmmc.c ****       (#) Configure the SDMMC resources to receive the data from the card
 127:Drivers/STM32L4xx_HAL_Driver/Src/stm32l4xx_ll_sdmmc.c ****           according to selected transfer mode (Refer to Step 8, 9 and 10).
 128:Drivers/STM32L4xx_HAL_Driver/Src/stm32l4xx_ll_sdmmc.c **** 
 129:Drivers/STM32L4xx_HAL_Driver/Src/stm32l4xx_ll_sdmmc.c ****       (#) Send the selected Read command (refer to step 11).
 130:Drivers/STM32L4xx_HAL_Driver/Src/stm32l4xx_ll_sdmmc.c **** 
 131:Drivers/STM32L4xx_HAL_Driver/Src/stm32l4xx_ll_sdmmc.c ****       (#) Use the SDMMC flags/interrupts to check the transfer status.
 132:Drivers/STM32L4xx_HAL_Driver/Src/stm32l4xx_ll_sdmmc.c **** 
 133:Drivers/STM32L4xx_HAL_Driver/Src/stm32l4xx_ll_sdmmc.c ****     *** Write Operations ***
 134:Drivers/STM32L4xx_HAL_Driver/Src/stm32l4xx_ll_sdmmc.c ****     ========================
 135:Drivers/STM32L4xx_HAL_Driver/Src/stm32l4xx_ll_sdmmc.c ****     [..]
 136:Drivers/STM32L4xx_HAL_Driver/Src/stm32l4xx_ll_sdmmc.c ****      (#) First, user has to fill the data structure (pointer to
 137:Drivers/STM32L4xx_HAL_Driver/Src/stm32l4xx_ll_sdmmc.c ****          SDMMC_DataInitTypeDef) according to the selected data type to be received.
 138:Drivers/STM32L4xx_HAL_Driver/Src/stm32l4xx_ll_sdmmc.c ****          The parameters that should be filled are:
 139:Drivers/STM32L4xx_HAL_Driver/Src/stm32l4xx_ll_sdmmc.c ****           (++) Data TimeOut
 140:Drivers/STM32L4xx_HAL_Driver/Src/stm32l4xx_ll_sdmmc.c ****           (++) Data Length
 141:Drivers/STM32L4xx_HAL_Driver/Src/stm32l4xx_ll_sdmmc.c ****           (++) Data Block size
 142:Drivers/STM32L4xx_HAL_Driver/Src/stm32l4xx_ll_sdmmc.c ****           (++) Data Transfer direction:  should be to card (To CARD)
 143:Drivers/STM32L4xx_HAL_Driver/Src/stm32l4xx_ll_sdmmc.c ****           (++) Data Transfer mode
 144:Drivers/STM32L4xx_HAL_Driver/Src/stm32l4xx_ll_sdmmc.c ****           (++) DPSM Status (Enable or Disable)
ARM GAS  C:\Users\Morroway\AppData\Local\Temp\cc18sEAf.s 			page 4


 145:Drivers/STM32L4xx_HAL_Driver/Src/stm32l4xx_ll_sdmmc.c **** 
 146:Drivers/STM32L4xx_HAL_Driver/Src/stm32l4xx_ll_sdmmc.c ****      (#) Configure the SDMMC resources to send the data to the card according to
 147:Drivers/STM32L4xx_HAL_Driver/Src/stm32l4xx_ll_sdmmc.c ****          selected transfer mode.
 148:Drivers/STM32L4xx_HAL_Driver/Src/stm32l4xx_ll_sdmmc.c **** 
 149:Drivers/STM32L4xx_HAL_Driver/Src/stm32l4xx_ll_sdmmc.c ****      (#) Send the selected Write command.
 150:Drivers/STM32L4xx_HAL_Driver/Src/stm32l4xx_ll_sdmmc.c **** 
 151:Drivers/STM32L4xx_HAL_Driver/Src/stm32l4xx_ll_sdmmc.c ****      (#) Use the SDMMC flags/interrupts to check the transfer status.
 152:Drivers/STM32L4xx_HAL_Driver/Src/stm32l4xx_ll_sdmmc.c **** 
 153:Drivers/STM32L4xx_HAL_Driver/Src/stm32l4xx_ll_sdmmc.c ****     *** Command management operations ***
 154:Drivers/STM32L4xx_HAL_Driver/Src/stm32l4xx_ll_sdmmc.c ****     =====================================
 155:Drivers/STM32L4xx_HAL_Driver/Src/stm32l4xx_ll_sdmmc.c ****     [..]
 156:Drivers/STM32L4xx_HAL_Driver/Src/stm32l4xx_ll_sdmmc.c ****      (#) The commands used for Read/Write/Erase operations are managed in
 157:Drivers/STM32L4xx_HAL_Driver/Src/stm32l4xx_ll_sdmmc.c ****          separate functions.
 158:Drivers/STM32L4xx_HAL_Driver/Src/stm32l4xx_ll_sdmmc.c ****          Each function allows to send the needed command with the related argument,
 159:Drivers/STM32L4xx_HAL_Driver/Src/stm32l4xx_ll_sdmmc.c ****          then check the response.
 160:Drivers/STM32L4xx_HAL_Driver/Src/stm32l4xx_ll_sdmmc.c ****          By the same approach, you could implement a command and check the response.
 161:Drivers/STM32L4xx_HAL_Driver/Src/stm32l4xx_ll_sdmmc.c **** 
 162:Drivers/STM32L4xx_HAL_Driver/Src/stm32l4xx_ll_sdmmc.c ****   @endverbatim
 163:Drivers/STM32L4xx_HAL_Driver/Src/stm32l4xx_ll_sdmmc.c ****   ******************************************************************************
 164:Drivers/STM32L4xx_HAL_Driver/Src/stm32l4xx_ll_sdmmc.c ****   */
 165:Drivers/STM32L4xx_HAL_Driver/Src/stm32l4xx_ll_sdmmc.c **** 
 166:Drivers/STM32L4xx_HAL_Driver/Src/stm32l4xx_ll_sdmmc.c **** /* Includes ------------------------------------------------------------------*/
 167:Drivers/STM32L4xx_HAL_Driver/Src/stm32l4xx_ll_sdmmc.c **** #include "stm32l4xx_hal.h"
 168:Drivers/STM32L4xx_HAL_Driver/Src/stm32l4xx_ll_sdmmc.c **** 
 169:Drivers/STM32L4xx_HAL_Driver/Src/stm32l4xx_ll_sdmmc.c **** #if defined(SDMMC1)
 170:Drivers/STM32L4xx_HAL_Driver/Src/stm32l4xx_ll_sdmmc.c **** 
 171:Drivers/STM32L4xx_HAL_Driver/Src/stm32l4xx_ll_sdmmc.c **** /** @addtogroup STM32L4xx_HAL_Driver
 172:Drivers/STM32L4xx_HAL_Driver/Src/stm32l4xx_ll_sdmmc.c ****   * @{
 173:Drivers/STM32L4xx_HAL_Driver/Src/stm32l4xx_ll_sdmmc.c ****   */
 174:Drivers/STM32L4xx_HAL_Driver/Src/stm32l4xx_ll_sdmmc.c **** 
 175:Drivers/STM32L4xx_HAL_Driver/Src/stm32l4xx_ll_sdmmc.c **** /** @defgroup SDMMC_LL SDMMC Low Layer
 176:Drivers/STM32L4xx_HAL_Driver/Src/stm32l4xx_ll_sdmmc.c ****   * @brief Low layer module for SD
 177:Drivers/STM32L4xx_HAL_Driver/Src/stm32l4xx_ll_sdmmc.c ****   * @{
 178:Drivers/STM32L4xx_HAL_Driver/Src/stm32l4xx_ll_sdmmc.c ****   */
 179:Drivers/STM32L4xx_HAL_Driver/Src/stm32l4xx_ll_sdmmc.c **** 
 180:Drivers/STM32L4xx_HAL_Driver/Src/stm32l4xx_ll_sdmmc.c **** #if defined (HAL_SD_MODULE_ENABLED) || defined (HAL_MMC_MODULE_ENABLED)
 181:Drivers/STM32L4xx_HAL_Driver/Src/stm32l4xx_ll_sdmmc.c **** 
 182:Drivers/STM32L4xx_HAL_Driver/Src/stm32l4xx_ll_sdmmc.c **** /* Private typedef -----------------------------------------------------------*/
 183:Drivers/STM32L4xx_HAL_Driver/Src/stm32l4xx_ll_sdmmc.c **** /* Private define ------------------------------------------------------------*/
 184:Drivers/STM32L4xx_HAL_Driver/Src/stm32l4xx_ll_sdmmc.c **** /* Private macro -------------------------------------------------------------*/
 185:Drivers/STM32L4xx_HAL_Driver/Src/stm32l4xx_ll_sdmmc.c **** /* Private variables ---------------------------------------------------------*/
 186:Drivers/STM32L4xx_HAL_Driver/Src/stm32l4xx_ll_sdmmc.c **** /* Private function prototypes -----------------------------------------------*/
 187:Drivers/STM32L4xx_HAL_Driver/Src/stm32l4xx_ll_sdmmc.c **** static uint32_t SDMMC_GetCmdError(SDMMC_TypeDef *SDMMCx);
 188:Drivers/STM32L4xx_HAL_Driver/Src/stm32l4xx_ll_sdmmc.c **** 
 189:Drivers/STM32L4xx_HAL_Driver/Src/stm32l4xx_ll_sdmmc.c **** /* Exported functions --------------------------------------------------------*/
 190:Drivers/STM32L4xx_HAL_Driver/Src/stm32l4xx_ll_sdmmc.c **** 
 191:Drivers/STM32L4xx_HAL_Driver/Src/stm32l4xx_ll_sdmmc.c **** /** @defgroup SDMMC_LL_Exported_Functions SDMMC Low Layer Exported Functions
 192:Drivers/STM32L4xx_HAL_Driver/Src/stm32l4xx_ll_sdmmc.c ****   * @{
 193:Drivers/STM32L4xx_HAL_Driver/Src/stm32l4xx_ll_sdmmc.c ****   */
 194:Drivers/STM32L4xx_HAL_Driver/Src/stm32l4xx_ll_sdmmc.c **** 
 195:Drivers/STM32L4xx_HAL_Driver/Src/stm32l4xx_ll_sdmmc.c **** /** @defgroup HAL_SDMMC_LL_Group1 Initialization de-initialization functions
 196:Drivers/STM32L4xx_HAL_Driver/Src/stm32l4xx_ll_sdmmc.c ****  *  @brief    Initialization and Configuration functions
 197:Drivers/STM32L4xx_HAL_Driver/Src/stm32l4xx_ll_sdmmc.c ****  *
 198:Drivers/STM32L4xx_HAL_Driver/Src/stm32l4xx_ll_sdmmc.c **** @verbatim
 199:Drivers/STM32L4xx_HAL_Driver/Src/stm32l4xx_ll_sdmmc.c ****  ===============================================================================
 200:Drivers/STM32L4xx_HAL_Driver/Src/stm32l4xx_ll_sdmmc.c ****               ##### Initialization/de-initialization functions #####
 201:Drivers/STM32L4xx_HAL_Driver/Src/stm32l4xx_ll_sdmmc.c ****  ===============================================================================
ARM GAS  C:\Users\Morroway\AppData\Local\Temp\cc18sEAf.s 			page 5


 202:Drivers/STM32L4xx_HAL_Driver/Src/stm32l4xx_ll_sdmmc.c ****     [..]  This section provides functions allowing to:
 203:Drivers/STM32L4xx_HAL_Driver/Src/stm32l4xx_ll_sdmmc.c **** 
 204:Drivers/STM32L4xx_HAL_Driver/Src/stm32l4xx_ll_sdmmc.c **** @endverbatim
 205:Drivers/STM32L4xx_HAL_Driver/Src/stm32l4xx_ll_sdmmc.c ****   * @{
 206:Drivers/STM32L4xx_HAL_Driver/Src/stm32l4xx_ll_sdmmc.c ****   */
 207:Drivers/STM32L4xx_HAL_Driver/Src/stm32l4xx_ll_sdmmc.c **** 
 208:Drivers/STM32L4xx_HAL_Driver/Src/stm32l4xx_ll_sdmmc.c **** /**
 209:Drivers/STM32L4xx_HAL_Driver/Src/stm32l4xx_ll_sdmmc.c ****   * @brief  Initializes the SDMMC according to the specified
 210:Drivers/STM32L4xx_HAL_Driver/Src/stm32l4xx_ll_sdmmc.c ****   *         parameters in the SDMMC_InitTypeDef and create the associated handle.
 211:Drivers/STM32L4xx_HAL_Driver/Src/stm32l4xx_ll_sdmmc.c ****   * @param  SDMMCx Pointer to SDMMC register base
 212:Drivers/STM32L4xx_HAL_Driver/Src/stm32l4xx_ll_sdmmc.c ****   * @param  Init SDMMC initialization structure
 213:Drivers/STM32L4xx_HAL_Driver/Src/stm32l4xx_ll_sdmmc.c ****   * @retval HAL status
 214:Drivers/STM32L4xx_HAL_Driver/Src/stm32l4xx_ll_sdmmc.c ****   */
 215:Drivers/STM32L4xx_HAL_Driver/Src/stm32l4xx_ll_sdmmc.c **** HAL_StatusTypeDef SDMMC_Init(SDMMC_TypeDef *SDMMCx, SDMMC_InitTypeDef Init)
 216:Drivers/STM32L4xx_HAL_Driver/Src/stm32l4xx_ll_sdmmc.c **** {
  29              		.loc 1 216 1
  30              		.cfi_startproc
  31              		@ args = 28, pretend = 16, frame = 16
  32              		@ frame_needed = 1, uses_anonymous_args = 0
  33              		@ link register save eliminated.
  34 0000 84B0     		sub	sp, sp, #16
  35              		.cfi_def_cfa_offset 16
  36 0002 80B4     		push	{r7}
  37              		.cfi_def_cfa_offset 20
  38              		.cfi_offset 7, -20
  39 0004 85B0     		sub	sp, sp, #20
  40              		.cfi_def_cfa_offset 40
  41 0006 00AF     		add	r7, sp, #0
  42              		.cfi_def_cfa_register 7
  43 0008 7860     		str	r0, [r7, #4]
  44 000a 07F11C00 		add	r0, r7, #28
  45 000e 80E80E00 		stm	r0, {r1, r2, r3}
 217:Drivers/STM32L4xx_HAL_Driver/Src/stm32l4xx_ll_sdmmc.c ****   uint32_t tmpreg = 0;
  46              		.loc 1 217 12
  47 0012 0023     		movs	r3, #0
  48 0014 FB60     		str	r3, [r7, #12]
 218:Drivers/STM32L4xx_HAL_Driver/Src/stm32l4xx_ll_sdmmc.c **** 
 219:Drivers/STM32L4xx_HAL_Driver/Src/stm32l4xx_ll_sdmmc.c ****   /* Check the parameters */
 220:Drivers/STM32L4xx_HAL_Driver/Src/stm32l4xx_ll_sdmmc.c ****   assert_param(IS_SDMMC_ALL_INSTANCE(SDMMCx));
 221:Drivers/STM32L4xx_HAL_Driver/Src/stm32l4xx_ll_sdmmc.c ****   assert_param(IS_SDMMC_CLOCK_EDGE(Init.ClockEdge));
 222:Drivers/STM32L4xx_HAL_Driver/Src/stm32l4xx_ll_sdmmc.c **** #if !defined(STM32L4P5xx) && !defined(STM32L4Q5xx) && !defined(STM32L4R5xx) && !defined(STM32L4R7xx
 223:Drivers/STM32L4xx_HAL_Driver/Src/stm32l4xx_ll_sdmmc.c ****   assert_param(IS_SDMMC_CLOCK_BYPASS(Init.ClockBypass));
 224:Drivers/STM32L4xx_HAL_Driver/Src/stm32l4xx_ll_sdmmc.c **** #endif /* !STM32L4P5xx && !STM32L4Q5xx && !STM32L4R5xx && !STM32L4R7xx && !STM32L4R9xx && !STM32L4S
 225:Drivers/STM32L4xx_HAL_Driver/Src/stm32l4xx_ll_sdmmc.c ****   assert_param(IS_SDMMC_CLOCK_POWER_SAVE(Init.ClockPowerSave));
 226:Drivers/STM32L4xx_HAL_Driver/Src/stm32l4xx_ll_sdmmc.c ****   assert_param(IS_SDMMC_BUS_WIDE(Init.BusWide));
 227:Drivers/STM32L4xx_HAL_Driver/Src/stm32l4xx_ll_sdmmc.c ****   assert_param(IS_SDMMC_HARDWARE_FLOW_CONTROL(Init.HardwareFlowControl));
 228:Drivers/STM32L4xx_HAL_Driver/Src/stm32l4xx_ll_sdmmc.c ****   assert_param(IS_SDMMC_CLKDIV(Init.ClockDiv));
 229:Drivers/STM32L4xx_HAL_Driver/Src/stm32l4xx_ll_sdmmc.c **** 
 230:Drivers/STM32L4xx_HAL_Driver/Src/stm32l4xx_ll_sdmmc.c ****   /* Set SDMMC configuration parameters */
 231:Drivers/STM32L4xx_HAL_Driver/Src/stm32l4xx_ll_sdmmc.c **** #if !defined(STM32L4P5xx) && !defined(STM32L4Q5xx) && !defined(STM32L4R5xx) && !defined(STM32L4R7xx
 232:Drivers/STM32L4xx_HAL_Driver/Src/stm32l4xx_ll_sdmmc.c ****   tmpreg |= Init.ClockBypass;
 233:Drivers/STM32L4xx_HAL_Driver/Src/stm32l4xx_ll_sdmmc.c **** #endif
 234:Drivers/STM32L4xx_HAL_Driver/Src/stm32l4xx_ll_sdmmc.c ****   tmpreg |= (Init.ClockEdge           |\
  49              		.loc 1 234 18
  50 0016 FA69     		ldr	r2, [r7, #28]
 235:Drivers/STM32L4xx_HAL_Driver/Src/stm32l4xx_ll_sdmmc.c ****              Init.ClockPowerSave      |\
  51              		.loc 1 235 18
ARM GAS  C:\Users\Morroway\AppData\Local\Temp\cc18sEAf.s 			page 6


  52 0018 3B6A     		ldr	r3, [r7, #32]
 234:Drivers/STM32L4xx_HAL_Driver/Src/stm32l4xx_ll_sdmmc.c ****              Init.ClockPowerSave      |\
  53              		.loc 1 234 39
  54 001a 1A43     		orrs	r2, r2, r3
 236:Drivers/STM32L4xx_HAL_Driver/Src/stm32l4xx_ll_sdmmc.c ****              Init.BusWide             |\
  55              		.loc 1 236 18
  56 001c 7B6A     		ldr	r3, [r7, #36]
 235:Drivers/STM32L4xx_HAL_Driver/Src/stm32l4xx_ll_sdmmc.c ****              Init.ClockPowerSave      |\
  57              		.loc 1 235 39
  58 001e 1A43     		orrs	r2, r2, r3
 237:Drivers/STM32L4xx_HAL_Driver/Src/stm32l4xx_ll_sdmmc.c ****              Init.HardwareFlowControl |\
  59              		.loc 1 237 18
  60 0020 BB6A     		ldr	r3, [r7, #40]
 236:Drivers/STM32L4xx_HAL_Driver/Src/stm32l4xx_ll_sdmmc.c ****              Init.BusWide             |\
  61              		.loc 1 236 39
  62 0022 1A43     		orrs	r2, r2, r3
 238:Drivers/STM32L4xx_HAL_Driver/Src/stm32l4xx_ll_sdmmc.c ****              Init.ClockDiv
  63              		.loc 1 238 18
  64 0024 FB6A     		ldr	r3, [r7, #44]
 237:Drivers/STM32L4xx_HAL_Driver/Src/stm32l4xx_ll_sdmmc.c ****              Init.HardwareFlowControl |\
  65              		.loc 1 237 39
  66 0026 1343     		orrs	r3, r3, r2
 234:Drivers/STM32L4xx_HAL_Driver/Src/stm32l4xx_ll_sdmmc.c ****              Init.ClockPowerSave      |\
  67              		.loc 1 234 10
  68 0028 FA68     		ldr	r2, [r7, #12]
  69 002a 1343     		orrs	r3, r3, r2
  70 002c FB60     		str	r3, [r7, #12]
 239:Drivers/STM32L4xx_HAL_Driver/Src/stm32l4xx_ll_sdmmc.c ****              );
 240:Drivers/STM32L4xx_HAL_Driver/Src/stm32l4xx_ll_sdmmc.c **** 
 241:Drivers/STM32L4xx_HAL_Driver/Src/stm32l4xx_ll_sdmmc.c ****   /* Write to SDMMC CLKCR */
 242:Drivers/STM32L4xx_HAL_Driver/Src/stm32l4xx_ll_sdmmc.c ****   MODIFY_REG(SDMMCx->CLKCR, CLKCR_CLEAR_MASK, tmpreg);
  71              		.loc 1 242 3
  72 002e 7B68     		ldr	r3, [r7, #4]
  73 0030 5A68     		ldr	r2, [r3, #4]
  74 0032 074B     		ldr	r3, .L3
  75 0034 1340     		ands	r3, r3, r2
  76 0036 FA68     		ldr	r2, [r7, #12]
  77 0038 1A43     		orrs	r2, r2, r3
  78 003a 7B68     		ldr	r3, [r7, #4]
  79 003c 5A60     		str	r2, [r3, #4]
 243:Drivers/STM32L4xx_HAL_Driver/Src/stm32l4xx_ll_sdmmc.c **** 
 244:Drivers/STM32L4xx_HAL_Driver/Src/stm32l4xx_ll_sdmmc.c ****   return HAL_OK;
  80              		.loc 1 244 10
  81 003e 0023     		movs	r3, #0
 245:Drivers/STM32L4xx_HAL_Driver/Src/stm32l4xx_ll_sdmmc.c **** }
  82              		.loc 1 245 1
  83 0040 1846     		mov	r0, r3
  84 0042 1437     		adds	r7, r7, #20
  85              		.cfi_def_cfa_offset 20
  86 0044 BD46     		mov	sp, r7
  87              		.cfi_def_cfa_register 13
  88              		@ sp needed
  89 0046 5DF8047B 		ldr	r7, [sp], #4
  90              		.cfi_restore 7
  91              		.cfi_def_cfa_offset 16
  92 004a 04B0     		add	sp, sp, #16
  93              		.cfi_def_cfa_offset 0
ARM GAS  C:\Users\Morroway\AppData\Local\Temp\cc18sEAf.s 			page 7


  94 004c 7047     		bx	lr
  95              	.L4:
  96 004e 00BF     		.align	2
  97              	.L3:
  98 0050 002CC0FF 		.word	-4183040
  99              		.cfi_endproc
 100              	.LFE321:
 102              		.section	.text.SDMMC_ReadFIFO,"ax",%progbits
 103              		.align	1
 104              		.global	SDMMC_ReadFIFO
 105              		.syntax unified
 106              		.thumb
 107              		.thumb_func
 109              	SDMMC_ReadFIFO:
 110              	.LFB322:
 246:Drivers/STM32L4xx_HAL_Driver/Src/stm32l4xx_ll_sdmmc.c **** 
 247:Drivers/STM32L4xx_HAL_Driver/Src/stm32l4xx_ll_sdmmc.c **** 
 248:Drivers/STM32L4xx_HAL_Driver/Src/stm32l4xx_ll_sdmmc.c **** /**
 249:Drivers/STM32L4xx_HAL_Driver/Src/stm32l4xx_ll_sdmmc.c ****   * @}
 250:Drivers/STM32L4xx_HAL_Driver/Src/stm32l4xx_ll_sdmmc.c ****   */
 251:Drivers/STM32L4xx_HAL_Driver/Src/stm32l4xx_ll_sdmmc.c **** 
 252:Drivers/STM32L4xx_HAL_Driver/Src/stm32l4xx_ll_sdmmc.c **** /** @defgroup HAL_SDMMC_LL_Group2 IO operation functions
 253:Drivers/STM32L4xx_HAL_Driver/Src/stm32l4xx_ll_sdmmc.c ****  *  @brief   Data transfers functions
 254:Drivers/STM32L4xx_HAL_Driver/Src/stm32l4xx_ll_sdmmc.c ****  *
 255:Drivers/STM32L4xx_HAL_Driver/Src/stm32l4xx_ll_sdmmc.c **** @verbatim
 256:Drivers/STM32L4xx_HAL_Driver/Src/stm32l4xx_ll_sdmmc.c ****  ===============================================================================
 257:Drivers/STM32L4xx_HAL_Driver/Src/stm32l4xx_ll_sdmmc.c ****                       ##### I/O operation functions #####
 258:Drivers/STM32L4xx_HAL_Driver/Src/stm32l4xx_ll_sdmmc.c ****  ===============================================================================
 259:Drivers/STM32L4xx_HAL_Driver/Src/stm32l4xx_ll_sdmmc.c ****     [..]
 260:Drivers/STM32L4xx_HAL_Driver/Src/stm32l4xx_ll_sdmmc.c ****     This subsection provides a set of functions allowing to manage the SDMMC data
 261:Drivers/STM32L4xx_HAL_Driver/Src/stm32l4xx_ll_sdmmc.c ****     transfers.
 262:Drivers/STM32L4xx_HAL_Driver/Src/stm32l4xx_ll_sdmmc.c **** 
 263:Drivers/STM32L4xx_HAL_Driver/Src/stm32l4xx_ll_sdmmc.c **** @endverbatim
 264:Drivers/STM32L4xx_HAL_Driver/Src/stm32l4xx_ll_sdmmc.c ****   * @{
 265:Drivers/STM32L4xx_HAL_Driver/Src/stm32l4xx_ll_sdmmc.c ****   */
 266:Drivers/STM32L4xx_HAL_Driver/Src/stm32l4xx_ll_sdmmc.c **** 
 267:Drivers/STM32L4xx_HAL_Driver/Src/stm32l4xx_ll_sdmmc.c **** /**
 268:Drivers/STM32L4xx_HAL_Driver/Src/stm32l4xx_ll_sdmmc.c ****   * @brief  Read data (word) from Rx FIFO in blocking mode (polling)
 269:Drivers/STM32L4xx_HAL_Driver/Src/stm32l4xx_ll_sdmmc.c ****   * @param  SDMMCx Pointer to SDMMC register base
 270:Drivers/STM32L4xx_HAL_Driver/Src/stm32l4xx_ll_sdmmc.c ****   * @retval HAL status
 271:Drivers/STM32L4xx_HAL_Driver/Src/stm32l4xx_ll_sdmmc.c ****   */
 272:Drivers/STM32L4xx_HAL_Driver/Src/stm32l4xx_ll_sdmmc.c **** uint32_t SDMMC_ReadFIFO(SDMMC_TypeDef *SDMMCx)
 273:Drivers/STM32L4xx_HAL_Driver/Src/stm32l4xx_ll_sdmmc.c **** {
 111              		.loc 1 273 1
 112              		.cfi_startproc
 113              		@ args = 0, pretend = 0, frame = 8
 114              		@ frame_needed = 1, uses_anonymous_args = 0
 115              		@ link register save eliminated.
 116 0000 80B4     		push	{r7}
 117              		.cfi_def_cfa_offset 4
 118              		.cfi_offset 7, -4
 119 0002 83B0     		sub	sp, sp, #12
 120              		.cfi_def_cfa_offset 16
 121 0004 00AF     		add	r7, sp, #0
 122              		.cfi_def_cfa_register 7
 123 0006 7860     		str	r0, [r7, #4]
 274:Drivers/STM32L4xx_HAL_Driver/Src/stm32l4xx_ll_sdmmc.c ****   /* Read data from Rx FIFO */
ARM GAS  C:\Users\Morroway\AppData\Local\Temp\cc18sEAf.s 			page 8


 275:Drivers/STM32L4xx_HAL_Driver/Src/stm32l4xx_ll_sdmmc.c ****   return (SDMMCx->FIFO);
 124              		.loc 1 275 17
 125 0008 7B68     		ldr	r3, [r7, #4]
 126 000a D3F88030 		ldr	r3, [r3, #128]
 276:Drivers/STM32L4xx_HAL_Driver/Src/stm32l4xx_ll_sdmmc.c **** }
 127              		.loc 1 276 1
 128 000e 1846     		mov	r0, r3
 129 0010 0C37     		adds	r7, r7, #12
 130              		.cfi_def_cfa_offset 4
 131 0012 BD46     		mov	sp, r7
 132              		.cfi_def_cfa_register 13
 133              		@ sp needed
 134 0014 5DF8047B 		ldr	r7, [sp], #4
 135              		.cfi_restore 7
 136              		.cfi_def_cfa_offset 0
 137 0018 7047     		bx	lr
 138              		.cfi_endproc
 139              	.LFE322:
 141              		.section	.text.SDMMC_WriteFIFO,"ax",%progbits
 142              		.align	1
 143              		.global	SDMMC_WriteFIFO
 144              		.syntax unified
 145              		.thumb
 146              		.thumb_func
 148              	SDMMC_WriteFIFO:
 149              	.LFB323:
 277:Drivers/STM32L4xx_HAL_Driver/Src/stm32l4xx_ll_sdmmc.c **** 
 278:Drivers/STM32L4xx_HAL_Driver/Src/stm32l4xx_ll_sdmmc.c **** /**
 279:Drivers/STM32L4xx_HAL_Driver/Src/stm32l4xx_ll_sdmmc.c ****   * @brief  Write data (word) to Tx FIFO in blocking mode (polling)
 280:Drivers/STM32L4xx_HAL_Driver/Src/stm32l4xx_ll_sdmmc.c ****   * @param  SDMMCx Pointer to SDMMC register base
 281:Drivers/STM32L4xx_HAL_Driver/Src/stm32l4xx_ll_sdmmc.c ****   * @param  pWriteData pointer to data to write
 282:Drivers/STM32L4xx_HAL_Driver/Src/stm32l4xx_ll_sdmmc.c ****   * @retval HAL status
 283:Drivers/STM32L4xx_HAL_Driver/Src/stm32l4xx_ll_sdmmc.c ****   */
 284:Drivers/STM32L4xx_HAL_Driver/Src/stm32l4xx_ll_sdmmc.c **** HAL_StatusTypeDef SDMMC_WriteFIFO(SDMMC_TypeDef *SDMMCx, uint32_t *pWriteData)
 285:Drivers/STM32L4xx_HAL_Driver/Src/stm32l4xx_ll_sdmmc.c **** {
 150              		.loc 1 285 1
 151              		.cfi_startproc
 152              		@ args = 0, pretend = 0, frame = 8
 153              		@ frame_needed = 1, uses_anonymous_args = 0
 154              		@ link register save eliminated.
 155 0000 80B4     		push	{r7}
 156              		.cfi_def_cfa_offset 4
 157              		.cfi_offset 7, -4
 158 0002 83B0     		sub	sp, sp, #12
 159              		.cfi_def_cfa_offset 16
 160 0004 00AF     		add	r7, sp, #0
 161              		.cfi_def_cfa_register 7
 162 0006 7860     		str	r0, [r7, #4]
 163 0008 3960     		str	r1, [r7]
 286:Drivers/STM32L4xx_HAL_Driver/Src/stm32l4xx_ll_sdmmc.c ****   /* Write data to FIFO */
 287:Drivers/STM32L4xx_HAL_Driver/Src/stm32l4xx_ll_sdmmc.c ****   SDMMCx->FIFO = *pWriteData;
 164              		.loc 1 287 18
 165 000a 3B68     		ldr	r3, [r7]
 166 000c 1A68     		ldr	r2, [r3]
 167              		.loc 1 287 16
 168 000e 7B68     		ldr	r3, [r7, #4]
 169 0010 C3F88020 		str	r2, [r3, #128]
ARM GAS  C:\Users\Morroway\AppData\Local\Temp\cc18sEAf.s 			page 9


 288:Drivers/STM32L4xx_HAL_Driver/Src/stm32l4xx_ll_sdmmc.c **** 
 289:Drivers/STM32L4xx_HAL_Driver/Src/stm32l4xx_ll_sdmmc.c ****   return HAL_OK;
 170              		.loc 1 289 10
 171 0014 0023     		movs	r3, #0
 290:Drivers/STM32L4xx_HAL_Driver/Src/stm32l4xx_ll_sdmmc.c **** }
 172              		.loc 1 290 1
 173 0016 1846     		mov	r0, r3
 174 0018 0C37     		adds	r7, r7, #12
 175              		.cfi_def_cfa_offset 4
 176 001a BD46     		mov	sp, r7
 177              		.cfi_def_cfa_register 13
 178              		@ sp needed
 179 001c 5DF8047B 		ldr	r7, [sp], #4
 180              		.cfi_restore 7
 181              		.cfi_def_cfa_offset 0
 182 0020 7047     		bx	lr
 183              		.cfi_endproc
 184              	.LFE323:
 186              		.section	.text.SDMMC_PowerState_ON,"ax",%progbits
 187              		.align	1
 188              		.global	SDMMC_PowerState_ON
 189              		.syntax unified
 190              		.thumb
 191              		.thumb_func
 193              	SDMMC_PowerState_ON:
 194              	.LFB324:
 291:Drivers/STM32L4xx_HAL_Driver/Src/stm32l4xx_ll_sdmmc.c **** 
 292:Drivers/STM32L4xx_HAL_Driver/Src/stm32l4xx_ll_sdmmc.c **** /**
 293:Drivers/STM32L4xx_HAL_Driver/Src/stm32l4xx_ll_sdmmc.c ****   * @}
 294:Drivers/STM32L4xx_HAL_Driver/Src/stm32l4xx_ll_sdmmc.c ****   */
 295:Drivers/STM32L4xx_HAL_Driver/Src/stm32l4xx_ll_sdmmc.c **** 
 296:Drivers/STM32L4xx_HAL_Driver/Src/stm32l4xx_ll_sdmmc.c **** /** @defgroup HAL_SDMMC_LL_Group3 Peripheral Control functions
 297:Drivers/STM32L4xx_HAL_Driver/Src/stm32l4xx_ll_sdmmc.c ****  *  @brief   management functions
 298:Drivers/STM32L4xx_HAL_Driver/Src/stm32l4xx_ll_sdmmc.c ****  *
 299:Drivers/STM32L4xx_HAL_Driver/Src/stm32l4xx_ll_sdmmc.c **** @verbatim
 300:Drivers/STM32L4xx_HAL_Driver/Src/stm32l4xx_ll_sdmmc.c ****  ===============================================================================
 301:Drivers/STM32L4xx_HAL_Driver/Src/stm32l4xx_ll_sdmmc.c ****                       ##### Peripheral Control functions #####
 302:Drivers/STM32L4xx_HAL_Driver/Src/stm32l4xx_ll_sdmmc.c ****  ===============================================================================
 303:Drivers/STM32L4xx_HAL_Driver/Src/stm32l4xx_ll_sdmmc.c ****     [..]
 304:Drivers/STM32L4xx_HAL_Driver/Src/stm32l4xx_ll_sdmmc.c ****     This subsection provides a set of functions allowing to control the SDMMC data
 305:Drivers/STM32L4xx_HAL_Driver/Src/stm32l4xx_ll_sdmmc.c ****     transfers.
 306:Drivers/STM32L4xx_HAL_Driver/Src/stm32l4xx_ll_sdmmc.c **** 
 307:Drivers/STM32L4xx_HAL_Driver/Src/stm32l4xx_ll_sdmmc.c **** @endverbatim
 308:Drivers/STM32L4xx_HAL_Driver/Src/stm32l4xx_ll_sdmmc.c ****   * @{
 309:Drivers/STM32L4xx_HAL_Driver/Src/stm32l4xx_ll_sdmmc.c ****   */
 310:Drivers/STM32L4xx_HAL_Driver/Src/stm32l4xx_ll_sdmmc.c **** 
 311:Drivers/STM32L4xx_HAL_Driver/Src/stm32l4xx_ll_sdmmc.c **** /**
 312:Drivers/STM32L4xx_HAL_Driver/Src/stm32l4xx_ll_sdmmc.c ****   * @brief  Set SDMMC Power state to ON.
 313:Drivers/STM32L4xx_HAL_Driver/Src/stm32l4xx_ll_sdmmc.c ****   * @param  SDMMCx Pointer to SDMMC register base
 314:Drivers/STM32L4xx_HAL_Driver/Src/stm32l4xx_ll_sdmmc.c ****   * @retval HAL status
 315:Drivers/STM32L4xx_HAL_Driver/Src/stm32l4xx_ll_sdmmc.c ****   */
 316:Drivers/STM32L4xx_HAL_Driver/Src/stm32l4xx_ll_sdmmc.c **** HAL_StatusTypeDef SDMMC_PowerState_ON(SDMMC_TypeDef *SDMMCx)
 317:Drivers/STM32L4xx_HAL_Driver/Src/stm32l4xx_ll_sdmmc.c **** {
 195              		.loc 1 317 1
 196              		.cfi_startproc
 197              		@ args = 0, pretend = 0, frame = 8
 198              		@ frame_needed = 1, uses_anonymous_args = 0
ARM GAS  C:\Users\Morroway\AppData\Local\Temp\cc18sEAf.s 			page 10


 199 0000 80B5     		push	{r7, lr}
 200              		.cfi_def_cfa_offset 8
 201              		.cfi_offset 7, -8
 202              		.cfi_offset 14, -4
 203 0002 82B0     		sub	sp, sp, #8
 204              		.cfi_def_cfa_offset 16
 205 0004 00AF     		add	r7, sp, #0
 206              		.cfi_def_cfa_register 7
 207 0006 7860     		str	r0, [r7, #4]
 318:Drivers/STM32L4xx_HAL_Driver/Src/stm32l4xx_ll_sdmmc.c ****   /* Set power state to ON */
 319:Drivers/STM32L4xx_HAL_Driver/Src/stm32l4xx_ll_sdmmc.c **** #if defined(STM32L4P5xx) || defined(STM32L4Q5xx) || defined(STM32L4R5xx) || defined(STM32L4R7xx) ||
 320:Drivers/STM32L4xx_HAL_Driver/Src/stm32l4xx_ll_sdmmc.c ****   SDMMCx->POWER |= SDMMC_POWER_PWRCTRL;
 208              		.loc 1 320 17
 209 0008 7B68     		ldr	r3, [r7, #4]
 210 000a 1B68     		ldr	r3, [r3]
 211 000c 43F00302 		orr	r2, r3, #3
 212 0010 7B68     		ldr	r3, [r7, #4]
 213 0012 1A60     		str	r2, [r3]
 321:Drivers/STM32L4xx_HAL_Driver/Src/stm32l4xx_ll_sdmmc.c **** #else
 322:Drivers/STM32L4xx_HAL_Driver/Src/stm32l4xx_ll_sdmmc.c ****   SDMMCx->POWER = SDMMC_POWER_PWRCTRL;
 323:Drivers/STM32L4xx_HAL_Driver/Src/stm32l4xx_ll_sdmmc.c **** #endif /* STM32L4P5xx || STM32L4Q5xx || STM32L4R5xx || STM32L4R7xx || STM32L4R9xx || STM32L4S5xx ||
 324:Drivers/STM32L4xx_HAL_Driver/Src/stm32l4xx_ll_sdmmc.c **** 
 325:Drivers/STM32L4xx_HAL_Driver/Src/stm32l4xx_ll_sdmmc.c ****   /* 1ms: required power up waiting time before starting the SD initialization
 326:Drivers/STM32L4xx_HAL_Driver/Src/stm32l4xx_ll_sdmmc.c ****   sequence */
 327:Drivers/STM32L4xx_HAL_Driver/Src/stm32l4xx_ll_sdmmc.c ****   HAL_Delay(2);
 214              		.loc 1 327 3
 215 0014 0220     		movs	r0, #2
 216 0016 FFF7FEFF 		bl	HAL_Delay
 328:Drivers/STM32L4xx_HAL_Driver/Src/stm32l4xx_ll_sdmmc.c **** 
 329:Drivers/STM32L4xx_HAL_Driver/Src/stm32l4xx_ll_sdmmc.c ****   return HAL_OK;
 217              		.loc 1 329 10
 218 001a 0023     		movs	r3, #0
 330:Drivers/STM32L4xx_HAL_Driver/Src/stm32l4xx_ll_sdmmc.c **** }
 219              		.loc 1 330 1
 220 001c 1846     		mov	r0, r3
 221 001e 0837     		adds	r7, r7, #8
 222              		.cfi_def_cfa_offset 8
 223 0020 BD46     		mov	sp, r7
 224              		.cfi_def_cfa_register 13
 225              		@ sp needed
 226 0022 80BD     		pop	{r7, pc}
 227              		.cfi_endproc
 228              	.LFE324:
 230              		.section	.text.SDMMC_PowerState_Cycle,"ax",%progbits
 231              		.align	1
 232              		.global	SDMMC_PowerState_Cycle
 233              		.syntax unified
 234              		.thumb
 235              		.thumb_func
 237              	SDMMC_PowerState_Cycle:
 238              	.LFB325:
 331:Drivers/STM32L4xx_HAL_Driver/Src/stm32l4xx_ll_sdmmc.c **** 
 332:Drivers/STM32L4xx_HAL_Driver/Src/stm32l4xx_ll_sdmmc.c **** #if defined(STM32L4P5xx) || defined(STM32L4Q5xx) || defined(STM32L4R5xx) || defined(STM32L4R7xx) ||
 333:Drivers/STM32L4xx_HAL_Driver/Src/stm32l4xx_ll_sdmmc.c **** /**
 334:Drivers/STM32L4xx_HAL_Driver/Src/stm32l4xx_ll_sdmmc.c ****   * @brief  Set SDMMC Power state to Power-Cycle.
 335:Drivers/STM32L4xx_HAL_Driver/Src/stm32l4xx_ll_sdmmc.c ****   * @param  SDMMCx Pointer to SDMMC register base
 336:Drivers/STM32L4xx_HAL_Driver/Src/stm32l4xx_ll_sdmmc.c ****   * @retval HAL status
ARM GAS  C:\Users\Morroway\AppData\Local\Temp\cc18sEAf.s 			page 11


 337:Drivers/STM32L4xx_HAL_Driver/Src/stm32l4xx_ll_sdmmc.c ****   */
 338:Drivers/STM32L4xx_HAL_Driver/Src/stm32l4xx_ll_sdmmc.c **** HAL_StatusTypeDef SDMMC_PowerState_Cycle(SDMMC_TypeDef *SDMMCx)
 339:Drivers/STM32L4xx_HAL_Driver/Src/stm32l4xx_ll_sdmmc.c **** {
 239              		.loc 1 339 1
 240              		.cfi_startproc
 241              		@ args = 0, pretend = 0, frame = 8
 242              		@ frame_needed = 1, uses_anonymous_args = 0
 243              		@ link register save eliminated.
 244 0000 80B4     		push	{r7}
 245              		.cfi_def_cfa_offset 4
 246              		.cfi_offset 7, -4
 247 0002 83B0     		sub	sp, sp, #12
 248              		.cfi_def_cfa_offset 16
 249 0004 00AF     		add	r7, sp, #0
 250              		.cfi_def_cfa_register 7
 251 0006 7860     		str	r0, [r7, #4]
 340:Drivers/STM32L4xx_HAL_Driver/Src/stm32l4xx_ll_sdmmc.c ****   /* Set power state to Power Cycle*/
 341:Drivers/STM32L4xx_HAL_Driver/Src/stm32l4xx_ll_sdmmc.c ****   SDMMCx->POWER |= SDMMC_POWER_PWRCTRL_1;
 252              		.loc 1 341 17
 253 0008 7B68     		ldr	r3, [r7, #4]
 254 000a 1B68     		ldr	r3, [r3]
 255 000c 43F00202 		orr	r2, r3, #2
 256 0010 7B68     		ldr	r3, [r7, #4]
 257 0012 1A60     		str	r2, [r3]
 342:Drivers/STM32L4xx_HAL_Driver/Src/stm32l4xx_ll_sdmmc.c **** 
 343:Drivers/STM32L4xx_HAL_Driver/Src/stm32l4xx_ll_sdmmc.c ****   return HAL_OK;
 258              		.loc 1 343 10
 259 0014 0023     		movs	r3, #0
 344:Drivers/STM32L4xx_HAL_Driver/Src/stm32l4xx_ll_sdmmc.c **** }
 260              		.loc 1 344 1
 261 0016 1846     		mov	r0, r3
 262 0018 0C37     		adds	r7, r7, #12
 263              		.cfi_def_cfa_offset 4
 264 001a BD46     		mov	sp, r7
 265              		.cfi_def_cfa_register 13
 266              		@ sp needed
 267 001c 5DF8047B 		ldr	r7, [sp], #4
 268              		.cfi_restore 7
 269              		.cfi_def_cfa_offset 0
 270 0020 7047     		bx	lr
 271              		.cfi_endproc
 272              	.LFE325:
 274              		.section	.text.SDMMC_PowerState_OFF,"ax",%progbits
 275              		.align	1
 276              		.global	SDMMC_PowerState_OFF
 277              		.syntax unified
 278              		.thumb
 279              		.thumb_func
 281              	SDMMC_PowerState_OFF:
 282              	.LFB326:
 345:Drivers/STM32L4xx_HAL_Driver/Src/stm32l4xx_ll_sdmmc.c **** #endif /* STM32L4P5xx || STM32L4Q5xx || STM32L4R5xx || STM32L4R7xx || STM32L4R9xx || STM32L4S5xx ||
 346:Drivers/STM32L4xx_HAL_Driver/Src/stm32l4xx_ll_sdmmc.c **** 
 347:Drivers/STM32L4xx_HAL_Driver/Src/stm32l4xx_ll_sdmmc.c **** /**
 348:Drivers/STM32L4xx_HAL_Driver/Src/stm32l4xx_ll_sdmmc.c ****   * @brief  Set SDMMC Power state to OFF.
 349:Drivers/STM32L4xx_HAL_Driver/Src/stm32l4xx_ll_sdmmc.c ****   * @param  SDMMCx Pointer to SDMMC register base
 350:Drivers/STM32L4xx_HAL_Driver/Src/stm32l4xx_ll_sdmmc.c ****   * @retval HAL status
 351:Drivers/STM32L4xx_HAL_Driver/Src/stm32l4xx_ll_sdmmc.c ****   */
ARM GAS  C:\Users\Morroway\AppData\Local\Temp\cc18sEAf.s 			page 12


 352:Drivers/STM32L4xx_HAL_Driver/Src/stm32l4xx_ll_sdmmc.c **** HAL_StatusTypeDef SDMMC_PowerState_OFF(SDMMC_TypeDef *SDMMCx)
 353:Drivers/STM32L4xx_HAL_Driver/Src/stm32l4xx_ll_sdmmc.c **** {
 283              		.loc 1 353 1
 284              		.cfi_startproc
 285              		@ args = 0, pretend = 0, frame = 8
 286              		@ frame_needed = 1, uses_anonymous_args = 0
 287              		@ link register save eliminated.
 288 0000 80B4     		push	{r7}
 289              		.cfi_def_cfa_offset 4
 290              		.cfi_offset 7, -4
 291 0002 83B0     		sub	sp, sp, #12
 292              		.cfi_def_cfa_offset 16
 293 0004 00AF     		add	r7, sp, #0
 294              		.cfi_def_cfa_register 7
 295 0006 7860     		str	r0, [r7, #4]
 354:Drivers/STM32L4xx_HAL_Driver/Src/stm32l4xx_ll_sdmmc.c ****   /* Set power state to OFF */
 355:Drivers/STM32L4xx_HAL_Driver/Src/stm32l4xx_ll_sdmmc.c **** #if defined(STM32L4P5xx) || defined(STM32L4Q5xx) || defined(STM32L4R5xx) || defined(STM32L4R7xx) ||
 356:Drivers/STM32L4xx_HAL_Driver/Src/stm32l4xx_ll_sdmmc.c ****   SDMMCx->POWER &= ~(SDMMC_POWER_PWRCTRL);
 296              		.loc 1 356 17
 297 0008 7B68     		ldr	r3, [r7, #4]
 298 000a 1B68     		ldr	r3, [r3]
 299 000c 23F00302 		bic	r2, r3, #3
 300 0010 7B68     		ldr	r3, [r7, #4]
 301 0012 1A60     		str	r2, [r3]
 357:Drivers/STM32L4xx_HAL_Driver/Src/stm32l4xx_ll_sdmmc.c **** #else
 358:Drivers/STM32L4xx_HAL_Driver/Src/stm32l4xx_ll_sdmmc.c ****   SDMMCx->POWER = (uint32_t)0x00000000;
 359:Drivers/STM32L4xx_HAL_Driver/Src/stm32l4xx_ll_sdmmc.c **** #endif /* STM32L4P5xx || STM32L4Q5xx || STM32L4R5xx || STM32L4R7xx || STM32L4R9xx || STM32L4S5xx ||
 360:Drivers/STM32L4xx_HAL_Driver/Src/stm32l4xx_ll_sdmmc.c **** 
 361:Drivers/STM32L4xx_HAL_Driver/Src/stm32l4xx_ll_sdmmc.c ****   return HAL_OK;
 302              		.loc 1 361 10
 303 0014 0023     		movs	r3, #0
 362:Drivers/STM32L4xx_HAL_Driver/Src/stm32l4xx_ll_sdmmc.c **** }
 304              		.loc 1 362 1
 305 0016 1846     		mov	r0, r3
 306 0018 0C37     		adds	r7, r7, #12
 307              		.cfi_def_cfa_offset 4
 308 001a BD46     		mov	sp, r7
 309              		.cfi_def_cfa_register 13
 310              		@ sp needed
 311 001c 5DF8047B 		ldr	r7, [sp], #4
 312              		.cfi_restore 7
 313              		.cfi_def_cfa_offset 0
 314 0020 7047     		bx	lr
 315              		.cfi_endproc
 316              	.LFE326:
 318              		.section	.text.SDMMC_GetPowerState,"ax",%progbits
 319              		.align	1
 320              		.global	SDMMC_GetPowerState
 321              		.syntax unified
 322              		.thumb
 323              		.thumb_func
 325              	SDMMC_GetPowerState:
 326              	.LFB327:
 363:Drivers/STM32L4xx_HAL_Driver/Src/stm32l4xx_ll_sdmmc.c **** 
 364:Drivers/STM32L4xx_HAL_Driver/Src/stm32l4xx_ll_sdmmc.c **** /**
 365:Drivers/STM32L4xx_HAL_Driver/Src/stm32l4xx_ll_sdmmc.c ****   * @brief  Get SDMMC Power state.
 366:Drivers/STM32L4xx_HAL_Driver/Src/stm32l4xx_ll_sdmmc.c ****   * @param  SDMMCx Pointer to SDMMC register base
ARM GAS  C:\Users\Morroway\AppData\Local\Temp\cc18sEAf.s 			page 13


 367:Drivers/STM32L4xx_HAL_Driver/Src/stm32l4xx_ll_sdmmc.c ****   * @retval Power status of the controller. The returned value can be one of the
 368:Drivers/STM32L4xx_HAL_Driver/Src/stm32l4xx_ll_sdmmc.c ****   *         following values:
 369:Drivers/STM32L4xx_HAL_Driver/Src/stm32l4xx_ll_sdmmc.c ****   *            - 0x00: Power OFF
 370:Drivers/STM32L4xx_HAL_Driver/Src/stm32l4xx_ll_sdmmc.c ****   *            - 0x02: Power UP
 371:Drivers/STM32L4xx_HAL_Driver/Src/stm32l4xx_ll_sdmmc.c ****   *            - 0x03: Power ON
 372:Drivers/STM32L4xx_HAL_Driver/Src/stm32l4xx_ll_sdmmc.c ****   */
 373:Drivers/STM32L4xx_HAL_Driver/Src/stm32l4xx_ll_sdmmc.c **** uint32_t SDMMC_GetPowerState(SDMMC_TypeDef *SDMMCx)
 374:Drivers/STM32L4xx_HAL_Driver/Src/stm32l4xx_ll_sdmmc.c **** {
 327              		.loc 1 374 1
 328              		.cfi_startproc
 329              		@ args = 0, pretend = 0, frame = 8
 330              		@ frame_needed = 1, uses_anonymous_args = 0
 331              		@ link register save eliminated.
 332 0000 80B4     		push	{r7}
 333              		.cfi_def_cfa_offset 4
 334              		.cfi_offset 7, -4
 335 0002 83B0     		sub	sp, sp, #12
 336              		.cfi_def_cfa_offset 16
 337 0004 00AF     		add	r7, sp, #0
 338              		.cfi_def_cfa_register 7
 339 0006 7860     		str	r0, [r7, #4]
 375:Drivers/STM32L4xx_HAL_Driver/Src/stm32l4xx_ll_sdmmc.c ****   return (SDMMCx->POWER & SDMMC_POWER_PWRCTRL);
 340              		.loc 1 375 17
 341 0008 7B68     		ldr	r3, [r7, #4]
 342 000a 1B68     		ldr	r3, [r3]
 343              		.loc 1 375 25
 344 000c 03F00303 		and	r3, r3, #3
 376:Drivers/STM32L4xx_HAL_Driver/Src/stm32l4xx_ll_sdmmc.c **** }
 345              		.loc 1 376 1
 346 0010 1846     		mov	r0, r3
 347 0012 0C37     		adds	r7, r7, #12
 348              		.cfi_def_cfa_offset 4
 349 0014 BD46     		mov	sp, r7
 350              		.cfi_def_cfa_register 13
 351              		@ sp needed
 352 0016 5DF8047B 		ldr	r7, [sp], #4
 353              		.cfi_restore 7
 354              		.cfi_def_cfa_offset 0
 355 001a 7047     		bx	lr
 356              		.cfi_endproc
 357              	.LFE327:
 359              		.section	.text.SDMMC_SendCommand,"ax",%progbits
 360              		.align	1
 361              		.global	SDMMC_SendCommand
 362              		.syntax unified
 363              		.thumb
 364              		.thumb_func
 366              	SDMMC_SendCommand:
 367              	.LFB328:
 377:Drivers/STM32L4xx_HAL_Driver/Src/stm32l4xx_ll_sdmmc.c **** 
 378:Drivers/STM32L4xx_HAL_Driver/Src/stm32l4xx_ll_sdmmc.c **** /**
 379:Drivers/STM32L4xx_HAL_Driver/Src/stm32l4xx_ll_sdmmc.c ****   * @brief  Configure the SDMMC command path according to the specified parameters in
 380:Drivers/STM32L4xx_HAL_Driver/Src/stm32l4xx_ll_sdmmc.c ****   *         SDMMC_CmdInitTypeDef structure and send the command
 381:Drivers/STM32L4xx_HAL_Driver/Src/stm32l4xx_ll_sdmmc.c ****   * @param  SDMMCx Pointer to SDMMC register base
 382:Drivers/STM32L4xx_HAL_Driver/Src/stm32l4xx_ll_sdmmc.c ****   * @param  Command pointer to a SDMMC_CmdInitTypeDef structure that contains
 383:Drivers/STM32L4xx_HAL_Driver/Src/stm32l4xx_ll_sdmmc.c ****   *         the configuration information for the SDMMC command
 384:Drivers/STM32L4xx_HAL_Driver/Src/stm32l4xx_ll_sdmmc.c ****   * @retval HAL status
ARM GAS  C:\Users\Morroway\AppData\Local\Temp\cc18sEAf.s 			page 14


 385:Drivers/STM32L4xx_HAL_Driver/Src/stm32l4xx_ll_sdmmc.c ****   */
 386:Drivers/STM32L4xx_HAL_Driver/Src/stm32l4xx_ll_sdmmc.c **** HAL_StatusTypeDef SDMMC_SendCommand(SDMMC_TypeDef *SDMMCx, SDMMC_CmdInitTypeDef *Command)
 387:Drivers/STM32L4xx_HAL_Driver/Src/stm32l4xx_ll_sdmmc.c **** {
 368              		.loc 1 387 1
 369              		.cfi_startproc
 370              		@ args = 0, pretend = 0, frame = 16
 371              		@ frame_needed = 1, uses_anonymous_args = 0
 372              		@ link register save eliminated.
 373 0000 80B4     		push	{r7}
 374              		.cfi_def_cfa_offset 4
 375              		.cfi_offset 7, -4
 376 0002 85B0     		sub	sp, sp, #20
 377              		.cfi_def_cfa_offset 24
 378 0004 00AF     		add	r7, sp, #0
 379              		.cfi_def_cfa_register 7
 380 0006 7860     		str	r0, [r7, #4]
 381 0008 3960     		str	r1, [r7]
 388:Drivers/STM32L4xx_HAL_Driver/Src/stm32l4xx_ll_sdmmc.c ****   uint32_t tmpreg = 0;
 382              		.loc 1 388 12
 383 000a 0023     		movs	r3, #0
 384 000c FB60     		str	r3, [r7, #12]
 389:Drivers/STM32L4xx_HAL_Driver/Src/stm32l4xx_ll_sdmmc.c **** 
 390:Drivers/STM32L4xx_HAL_Driver/Src/stm32l4xx_ll_sdmmc.c ****   /* Check the parameters */
 391:Drivers/STM32L4xx_HAL_Driver/Src/stm32l4xx_ll_sdmmc.c ****   assert_param(IS_SDMMC_CMD_INDEX(Command->CmdIndex));
 392:Drivers/STM32L4xx_HAL_Driver/Src/stm32l4xx_ll_sdmmc.c ****   assert_param(IS_SDMMC_RESPONSE(Command->Response));
 393:Drivers/STM32L4xx_HAL_Driver/Src/stm32l4xx_ll_sdmmc.c ****   assert_param(IS_SDMMC_WAIT(Command->WaitForInterrupt));
 394:Drivers/STM32L4xx_HAL_Driver/Src/stm32l4xx_ll_sdmmc.c ****   assert_param(IS_SDMMC_CPSM(Command->CPSM));
 395:Drivers/STM32L4xx_HAL_Driver/Src/stm32l4xx_ll_sdmmc.c **** 
 396:Drivers/STM32L4xx_HAL_Driver/Src/stm32l4xx_ll_sdmmc.c ****   /* Set the SDMMC Argument value */
 397:Drivers/STM32L4xx_HAL_Driver/Src/stm32l4xx_ll_sdmmc.c ****   SDMMCx->ARG = Command->Argument;
 385              		.loc 1 397 24
 386 000e 3B68     		ldr	r3, [r7]
 387 0010 1A68     		ldr	r2, [r3]
 388              		.loc 1 397 15
 389 0012 7B68     		ldr	r3, [r7, #4]
 390 0014 9A60     		str	r2, [r3, #8]
 398:Drivers/STM32L4xx_HAL_Driver/Src/stm32l4xx_ll_sdmmc.c **** 
 399:Drivers/STM32L4xx_HAL_Driver/Src/stm32l4xx_ll_sdmmc.c ****   /* Set SDMMC command parameters */
 400:Drivers/STM32L4xx_HAL_Driver/Src/stm32l4xx_ll_sdmmc.c ****   tmpreg |= (uint32_t)(Command->CmdIndex         |\
 391              		.loc 1 400 31
 392 0016 3B68     		ldr	r3, [r7]
 393 0018 5A68     		ldr	r2, [r3, #4]
 401:Drivers/STM32L4xx_HAL_Driver/Src/stm32l4xx_ll_sdmmc.c ****                        Command->Response         |\
 394              		.loc 1 401 31
 395 001a 3B68     		ldr	r3, [r7]
 396 001c 9B68     		ldr	r3, [r3, #8]
 400:Drivers/STM32L4xx_HAL_Driver/Src/stm32l4xx_ll_sdmmc.c ****                        Command->Response         |\
 397              		.loc 1 400 50
 398 001e 1A43     		orrs	r2, r2, r3
 402:Drivers/STM32L4xx_HAL_Driver/Src/stm32l4xx_ll_sdmmc.c ****                        Command->WaitForInterrupt |\
 399              		.loc 1 402 31
 400 0020 3B68     		ldr	r3, [r7]
 401 0022 DB68     		ldr	r3, [r3, #12]
 401:Drivers/STM32L4xx_HAL_Driver/Src/stm32l4xx_ll_sdmmc.c ****                        Command->Response         |\
 402              		.loc 1 401 50
 403 0024 1A43     		orrs	r2, r2, r3
 403:Drivers/STM32L4xx_HAL_Driver/Src/stm32l4xx_ll_sdmmc.c ****                        Command->CPSM);
ARM GAS  C:\Users\Morroway\AppData\Local\Temp\cc18sEAf.s 			page 15


 404              		.loc 1 403 31
 405 0026 3B68     		ldr	r3, [r7]
 406 0028 1B69     		ldr	r3, [r3, #16]
 402:Drivers/STM32L4xx_HAL_Driver/Src/stm32l4xx_ll_sdmmc.c ****                        Command->WaitForInterrupt |\
 407              		.loc 1 402 50
 408 002a 1343     		orrs	r3, r3, r2
 400:Drivers/STM32L4xx_HAL_Driver/Src/stm32l4xx_ll_sdmmc.c ****                        Command->Response         |\
 409              		.loc 1 400 10
 410 002c FA68     		ldr	r2, [r7, #12]
 411 002e 1343     		orrs	r3, r3, r2
 412 0030 FB60     		str	r3, [r7, #12]
 404:Drivers/STM32L4xx_HAL_Driver/Src/stm32l4xx_ll_sdmmc.c **** 
 405:Drivers/STM32L4xx_HAL_Driver/Src/stm32l4xx_ll_sdmmc.c ****   /* Write to SDMMC CMD register */
 406:Drivers/STM32L4xx_HAL_Driver/Src/stm32l4xx_ll_sdmmc.c ****   MODIFY_REG(SDMMCx->CMD, CMD_CLEAR_MASK, tmpreg);
 413              		.loc 1 406 3
 414 0032 7B68     		ldr	r3, [r7, #4]
 415 0034 DA68     		ldr	r2, [r3, #12]
 416 0036 064B     		ldr	r3, .L19
 417 0038 1340     		ands	r3, r3, r2
 418 003a FA68     		ldr	r2, [r7, #12]
 419 003c 1A43     		orrs	r2, r2, r3
 420 003e 7B68     		ldr	r3, [r7, #4]
 421 0040 DA60     		str	r2, [r3, #12]
 407:Drivers/STM32L4xx_HAL_Driver/Src/stm32l4xx_ll_sdmmc.c **** 
 408:Drivers/STM32L4xx_HAL_Driver/Src/stm32l4xx_ll_sdmmc.c ****   return HAL_OK;
 422              		.loc 1 408 10
 423 0042 0023     		movs	r3, #0
 409:Drivers/STM32L4xx_HAL_Driver/Src/stm32l4xx_ll_sdmmc.c **** }
 424              		.loc 1 409 1
 425 0044 1846     		mov	r0, r3
 426 0046 1437     		adds	r7, r7, #20
 427              		.cfi_def_cfa_offset 4
 428 0048 BD46     		mov	sp, r7
 429              		.cfi_def_cfa_register 13
 430              		@ sp needed
 431 004a 5DF8047B 		ldr	r7, [sp], #4
 432              		.cfi_restore 7
 433              		.cfi_def_cfa_offset 0
 434 004e 7047     		bx	lr
 435              	.L20:
 436              		.align	2
 437              	.L19:
 438 0050 C0E0FEFF 		.word	-73536
 439              		.cfi_endproc
 440              	.LFE328:
 442              		.section	.text.SDMMC_GetCommandResponse,"ax",%progbits
 443              		.align	1
 444              		.global	SDMMC_GetCommandResponse
 445              		.syntax unified
 446              		.thumb
 447              		.thumb_func
 449              	SDMMC_GetCommandResponse:
 450              	.LFB329:
 410:Drivers/STM32L4xx_HAL_Driver/Src/stm32l4xx_ll_sdmmc.c **** 
 411:Drivers/STM32L4xx_HAL_Driver/Src/stm32l4xx_ll_sdmmc.c **** /**
 412:Drivers/STM32L4xx_HAL_Driver/Src/stm32l4xx_ll_sdmmc.c ****   * @brief  Return the command index of last command for which response received
 413:Drivers/STM32L4xx_HAL_Driver/Src/stm32l4xx_ll_sdmmc.c ****   * @param  SDMMCx Pointer to SDMMC register base
ARM GAS  C:\Users\Morroway\AppData\Local\Temp\cc18sEAf.s 			page 16


 414:Drivers/STM32L4xx_HAL_Driver/Src/stm32l4xx_ll_sdmmc.c ****   * @retval Command index of the last command response received
 415:Drivers/STM32L4xx_HAL_Driver/Src/stm32l4xx_ll_sdmmc.c ****   */
 416:Drivers/STM32L4xx_HAL_Driver/Src/stm32l4xx_ll_sdmmc.c **** uint8_t SDMMC_GetCommandResponse(SDMMC_TypeDef *SDMMCx)
 417:Drivers/STM32L4xx_HAL_Driver/Src/stm32l4xx_ll_sdmmc.c **** {
 451              		.loc 1 417 1
 452              		.cfi_startproc
 453              		@ args = 0, pretend = 0, frame = 8
 454              		@ frame_needed = 1, uses_anonymous_args = 0
 455              		@ link register save eliminated.
 456 0000 80B4     		push	{r7}
 457              		.cfi_def_cfa_offset 4
 458              		.cfi_offset 7, -4
 459 0002 83B0     		sub	sp, sp, #12
 460              		.cfi_def_cfa_offset 16
 461 0004 00AF     		add	r7, sp, #0
 462              		.cfi_def_cfa_register 7
 463 0006 7860     		str	r0, [r7, #4]
 418:Drivers/STM32L4xx_HAL_Driver/Src/stm32l4xx_ll_sdmmc.c ****   return (uint8_t)(SDMMCx->RESPCMD);
 464              		.loc 1 418 26
 465 0008 7B68     		ldr	r3, [r7, #4]
 466 000a 1B69     		ldr	r3, [r3, #16]
 467              		.loc 1 418 10
 468 000c DBB2     		uxtb	r3, r3
 419:Drivers/STM32L4xx_HAL_Driver/Src/stm32l4xx_ll_sdmmc.c **** }
 469              		.loc 1 419 1
 470 000e 1846     		mov	r0, r3
 471 0010 0C37     		adds	r7, r7, #12
 472              		.cfi_def_cfa_offset 4
 473 0012 BD46     		mov	sp, r7
 474              		.cfi_def_cfa_register 13
 475              		@ sp needed
 476 0014 5DF8047B 		ldr	r7, [sp], #4
 477              		.cfi_restore 7
 478              		.cfi_def_cfa_offset 0
 479 0018 7047     		bx	lr
 480              		.cfi_endproc
 481              	.LFE329:
 483              		.section	.text.SDMMC_GetResponse,"ax",%progbits
 484              		.align	1
 485              		.global	SDMMC_GetResponse
 486              		.syntax unified
 487              		.thumb
 488              		.thumb_func
 490              	SDMMC_GetResponse:
 491              	.LFB330:
 420:Drivers/STM32L4xx_HAL_Driver/Src/stm32l4xx_ll_sdmmc.c **** 
 421:Drivers/STM32L4xx_HAL_Driver/Src/stm32l4xx_ll_sdmmc.c **** 
 422:Drivers/STM32L4xx_HAL_Driver/Src/stm32l4xx_ll_sdmmc.c **** /**
 423:Drivers/STM32L4xx_HAL_Driver/Src/stm32l4xx_ll_sdmmc.c ****   * @brief  Return the response received from the card for the last command
 424:Drivers/STM32L4xx_HAL_Driver/Src/stm32l4xx_ll_sdmmc.c ****   * @param  SDMMCx Pointer to SDMMC register base
 425:Drivers/STM32L4xx_HAL_Driver/Src/stm32l4xx_ll_sdmmc.c ****   * @param  Response Specifies the SDMMC response register.
 426:Drivers/STM32L4xx_HAL_Driver/Src/stm32l4xx_ll_sdmmc.c ****   *          This parameter can be one of the following values:
 427:Drivers/STM32L4xx_HAL_Driver/Src/stm32l4xx_ll_sdmmc.c ****   *            @arg SDMMC_RESP1: Response Register 1
 428:Drivers/STM32L4xx_HAL_Driver/Src/stm32l4xx_ll_sdmmc.c ****   *            @arg SDMMC_RESP2: Response Register 2
 429:Drivers/STM32L4xx_HAL_Driver/Src/stm32l4xx_ll_sdmmc.c ****   *            @arg SDMMC_RESP3: Response Register 3
 430:Drivers/STM32L4xx_HAL_Driver/Src/stm32l4xx_ll_sdmmc.c ****   *            @arg SDMMC_RESP4: Response Register 4
 431:Drivers/STM32L4xx_HAL_Driver/Src/stm32l4xx_ll_sdmmc.c ****   * @retval The Corresponding response register value
ARM GAS  C:\Users\Morroway\AppData\Local\Temp\cc18sEAf.s 			page 17


 432:Drivers/STM32L4xx_HAL_Driver/Src/stm32l4xx_ll_sdmmc.c ****   */
 433:Drivers/STM32L4xx_HAL_Driver/Src/stm32l4xx_ll_sdmmc.c **** uint32_t SDMMC_GetResponse(SDMMC_TypeDef *SDMMCx, uint32_t Response)
 434:Drivers/STM32L4xx_HAL_Driver/Src/stm32l4xx_ll_sdmmc.c **** {
 492              		.loc 1 434 1
 493              		.cfi_startproc
 494              		@ args = 0, pretend = 0, frame = 16
 495              		@ frame_needed = 1, uses_anonymous_args = 0
 496              		@ link register save eliminated.
 497 0000 80B4     		push	{r7}
 498              		.cfi_def_cfa_offset 4
 499              		.cfi_offset 7, -4
 500 0002 85B0     		sub	sp, sp, #20
 501              		.cfi_def_cfa_offset 24
 502 0004 00AF     		add	r7, sp, #0
 503              		.cfi_def_cfa_register 7
 504 0006 7860     		str	r0, [r7, #4]
 505 0008 3960     		str	r1, [r7]
 435:Drivers/STM32L4xx_HAL_Driver/Src/stm32l4xx_ll_sdmmc.c ****   uint32_t tmp;
 436:Drivers/STM32L4xx_HAL_Driver/Src/stm32l4xx_ll_sdmmc.c **** 
 437:Drivers/STM32L4xx_HAL_Driver/Src/stm32l4xx_ll_sdmmc.c ****   /* Check the parameters */
 438:Drivers/STM32L4xx_HAL_Driver/Src/stm32l4xx_ll_sdmmc.c ****   assert_param(IS_SDMMC_RESP(Response));
 439:Drivers/STM32L4xx_HAL_Driver/Src/stm32l4xx_ll_sdmmc.c **** 
 440:Drivers/STM32L4xx_HAL_Driver/Src/stm32l4xx_ll_sdmmc.c ****   /* Get the response */
 441:Drivers/STM32L4xx_HAL_Driver/Src/stm32l4xx_ll_sdmmc.c ****   tmp = (uint32_t)(&(SDMMCx->RESP1)) + Response;
 506              		.loc 1 441 20
 507 000a 7B68     		ldr	r3, [r7, #4]
 508 000c 1433     		adds	r3, r3, #20
 509              		.loc 1 441 9
 510 000e 1A46     		mov	r2, r3
 511              		.loc 1 441 7
 512 0010 3B68     		ldr	r3, [r7]
 513 0012 1344     		add	r3, r3, r2
 514 0014 FB60     		str	r3, [r7, #12]
 442:Drivers/STM32L4xx_HAL_Driver/Src/stm32l4xx_ll_sdmmc.c **** 
 443:Drivers/STM32L4xx_HAL_Driver/Src/stm32l4xx_ll_sdmmc.c ****   return (*(__IO uint32_t *) tmp);
 515              		.loc 1 443 12
 516 0016 FB68     		ldr	r3, [r7, #12]
 517              		.loc 1 443 11
 518 0018 1B68     		ldr	r3, [r3]
 444:Drivers/STM32L4xx_HAL_Driver/Src/stm32l4xx_ll_sdmmc.c **** }
 519              		.loc 1 444 1
 520 001a 1846     		mov	r0, r3
 521 001c 1437     		adds	r7, r7, #20
 522              		.cfi_def_cfa_offset 4
 523 001e BD46     		mov	sp, r7
 524              		.cfi_def_cfa_register 13
 525              		@ sp needed
 526 0020 5DF8047B 		ldr	r7, [sp], #4
 527              		.cfi_restore 7
 528              		.cfi_def_cfa_offset 0
 529 0024 7047     		bx	lr
 530              		.cfi_endproc
 531              	.LFE330:
 533              		.section	.text.SDMMC_ConfigData,"ax",%progbits
 534              		.align	1
 535              		.global	SDMMC_ConfigData
 536              		.syntax unified
ARM GAS  C:\Users\Morroway\AppData\Local\Temp\cc18sEAf.s 			page 18


 537              		.thumb
 538              		.thumb_func
 540              	SDMMC_ConfigData:
 541              	.LFB331:
 445:Drivers/STM32L4xx_HAL_Driver/Src/stm32l4xx_ll_sdmmc.c **** 
 446:Drivers/STM32L4xx_HAL_Driver/Src/stm32l4xx_ll_sdmmc.c **** /**
 447:Drivers/STM32L4xx_HAL_Driver/Src/stm32l4xx_ll_sdmmc.c ****   * @brief  Configure the SDMMC data path according to the specified
 448:Drivers/STM32L4xx_HAL_Driver/Src/stm32l4xx_ll_sdmmc.c ****   *         parameters in the SDMMC_DataInitTypeDef.
 449:Drivers/STM32L4xx_HAL_Driver/Src/stm32l4xx_ll_sdmmc.c ****   * @param  SDMMCx Pointer to SDMMC register base
 450:Drivers/STM32L4xx_HAL_Driver/Src/stm32l4xx_ll_sdmmc.c ****   * @param  Data : pointer to a SDMMC_DataInitTypeDef structure
 451:Drivers/STM32L4xx_HAL_Driver/Src/stm32l4xx_ll_sdmmc.c ****   *         that contains the configuration information for the SDMMC data.
 452:Drivers/STM32L4xx_HAL_Driver/Src/stm32l4xx_ll_sdmmc.c ****   * @retval HAL status
 453:Drivers/STM32L4xx_HAL_Driver/Src/stm32l4xx_ll_sdmmc.c ****   */
 454:Drivers/STM32L4xx_HAL_Driver/Src/stm32l4xx_ll_sdmmc.c **** HAL_StatusTypeDef SDMMC_ConfigData(SDMMC_TypeDef *SDMMCx, SDMMC_DataInitTypeDef* Data)
 455:Drivers/STM32L4xx_HAL_Driver/Src/stm32l4xx_ll_sdmmc.c **** {
 542              		.loc 1 455 1
 543              		.cfi_startproc
 544              		@ args = 0, pretend = 0, frame = 16
 545              		@ frame_needed = 1, uses_anonymous_args = 0
 546              		@ link register save eliminated.
 547 0000 80B4     		push	{r7}
 548              		.cfi_def_cfa_offset 4
 549              		.cfi_offset 7, -4
 550 0002 85B0     		sub	sp, sp, #20
 551              		.cfi_def_cfa_offset 24
 552 0004 00AF     		add	r7, sp, #0
 553              		.cfi_def_cfa_register 7
 554 0006 7860     		str	r0, [r7, #4]
 555 0008 3960     		str	r1, [r7]
 456:Drivers/STM32L4xx_HAL_Driver/Src/stm32l4xx_ll_sdmmc.c ****   uint32_t tmpreg = 0;
 556              		.loc 1 456 12
 557 000a 0023     		movs	r3, #0
 558 000c FB60     		str	r3, [r7, #12]
 457:Drivers/STM32L4xx_HAL_Driver/Src/stm32l4xx_ll_sdmmc.c **** 
 458:Drivers/STM32L4xx_HAL_Driver/Src/stm32l4xx_ll_sdmmc.c ****   /* Check the parameters */
 459:Drivers/STM32L4xx_HAL_Driver/Src/stm32l4xx_ll_sdmmc.c ****   assert_param(IS_SDMMC_DATA_LENGTH(Data->DataLength));
 460:Drivers/STM32L4xx_HAL_Driver/Src/stm32l4xx_ll_sdmmc.c ****   assert_param(IS_SDMMC_BLOCK_SIZE(Data->DataBlockSize));
 461:Drivers/STM32L4xx_HAL_Driver/Src/stm32l4xx_ll_sdmmc.c ****   assert_param(IS_SDMMC_TRANSFER_DIR(Data->TransferDir));
 462:Drivers/STM32L4xx_HAL_Driver/Src/stm32l4xx_ll_sdmmc.c ****   assert_param(IS_SDMMC_TRANSFER_MODE(Data->TransferMode));
 463:Drivers/STM32L4xx_HAL_Driver/Src/stm32l4xx_ll_sdmmc.c ****   assert_param(IS_SDMMC_DPSM(Data->DPSM));
 464:Drivers/STM32L4xx_HAL_Driver/Src/stm32l4xx_ll_sdmmc.c **** 
 465:Drivers/STM32L4xx_HAL_Driver/Src/stm32l4xx_ll_sdmmc.c ****   /* Set the SDMMC Data TimeOut value */
 466:Drivers/STM32L4xx_HAL_Driver/Src/stm32l4xx_ll_sdmmc.c ****   SDMMCx->DTIMER = Data->DataTimeOut;
 559              		.loc 1 466 24
 560 000e 3B68     		ldr	r3, [r7]
 561 0010 1A68     		ldr	r2, [r3]
 562              		.loc 1 466 18
 563 0012 7B68     		ldr	r3, [r7, #4]
 564 0014 5A62     		str	r2, [r3, #36]
 467:Drivers/STM32L4xx_HAL_Driver/Src/stm32l4xx_ll_sdmmc.c **** 
 468:Drivers/STM32L4xx_HAL_Driver/Src/stm32l4xx_ll_sdmmc.c ****   /* Set the SDMMC DataLength value */
 469:Drivers/STM32L4xx_HAL_Driver/Src/stm32l4xx_ll_sdmmc.c ****   SDMMCx->DLEN = Data->DataLength;
 565              		.loc 1 469 22
 566 0016 3B68     		ldr	r3, [r7]
 567 0018 5A68     		ldr	r2, [r3, #4]
 568              		.loc 1 469 16
 569 001a 7B68     		ldr	r3, [r7, #4]
ARM GAS  C:\Users\Morroway\AppData\Local\Temp\cc18sEAf.s 			page 19


 570 001c 9A62     		str	r2, [r3, #40]
 470:Drivers/STM32L4xx_HAL_Driver/Src/stm32l4xx_ll_sdmmc.c **** 
 471:Drivers/STM32L4xx_HAL_Driver/Src/stm32l4xx_ll_sdmmc.c ****   /* Set the SDMMC data configuration parameters */
 472:Drivers/STM32L4xx_HAL_Driver/Src/stm32l4xx_ll_sdmmc.c ****   tmpreg |= (uint32_t)(Data->DataBlockSize |\
 571              		.loc 1 472 28
 572 001e 3B68     		ldr	r3, [r7]
 573 0020 9A68     		ldr	r2, [r3, #8]
 473:Drivers/STM32L4xx_HAL_Driver/Src/stm32l4xx_ll_sdmmc.c ****                        Data->TransferDir   |\
 574              		.loc 1 473 28
 575 0022 3B68     		ldr	r3, [r7]
 576 0024 DB68     		ldr	r3, [r3, #12]
 472:Drivers/STM32L4xx_HAL_Driver/Src/stm32l4xx_ll_sdmmc.c ****                        Data->TransferDir   |\
 577              		.loc 1 472 44
 578 0026 1A43     		orrs	r2, r2, r3
 474:Drivers/STM32L4xx_HAL_Driver/Src/stm32l4xx_ll_sdmmc.c ****                        Data->TransferMode  |\
 579              		.loc 1 474 28
 580 0028 3B68     		ldr	r3, [r7]
 581 002a 1B69     		ldr	r3, [r3, #16]
 473:Drivers/STM32L4xx_HAL_Driver/Src/stm32l4xx_ll_sdmmc.c ****                        Data->TransferDir   |\
 582              		.loc 1 473 44
 583 002c 1A43     		orrs	r2, r2, r3
 475:Drivers/STM32L4xx_HAL_Driver/Src/stm32l4xx_ll_sdmmc.c ****                        Data->DPSM);
 584              		.loc 1 475 28
 585 002e 3B68     		ldr	r3, [r7]
 586 0030 5B69     		ldr	r3, [r3, #20]
 474:Drivers/STM32L4xx_HAL_Driver/Src/stm32l4xx_ll_sdmmc.c ****                        Data->TransferMode  |\
 587              		.loc 1 474 44
 588 0032 1343     		orrs	r3, r3, r2
 472:Drivers/STM32L4xx_HAL_Driver/Src/stm32l4xx_ll_sdmmc.c ****                        Data->TransferDir   |\
 589              		.loc 1 472 10
 590 0034 FA68     		ldr	r2, [r7, #12]
 591 0036 1343     		orrs	r3, r3, r2
 592 0038 FB60     		str	r3, [r7, #12]
 476:Drivers/STM32L4xx_HAL_Driver/Src/stm32l4xx_ll_sdmmc.c **** 
 477:Drivers/STM32L4xx_HAL_Driver/Src/stm32l4xx_ll_sdmmc.c ****   /* Write to SDMMC DCTRL */
 478:Drivers/STM32L4xx_HAL_Driver/Src/stm32l4xx_ll_sdmmc.c ****   MODIFY_REG(SDMMCx->DCTRL, DCTRL_CLEAR_MASK, tmpreg);
 593              		.loc 1 478 3
 594 003a 7B68     		ldr	r3, [r7, #4]
 595 003c DB6A     		ldr	r3, [r3, #44]
 596 003e 23F0FF02 		bic	r2, r3, #255
 597 0042 FB68     		ldr	r3, [r7, #12]
 598 0044 1A43     		orrs	r2, r2, r3
 599 0046 7B68     		ldr	r3, [r7, #4]
 600 0048 DA62     		str	r2, [r3, #44]
 479:Drivers/STM32L4xx_HAL_Driver/Src/stm32l4xx_ll_sdmmc.c **** 
 480:Drivers/STM32L4xx_HAL_Driver/Src/stm32l4xx_ll_sdmmc.c ****   return HAL_OK;
 601              		.loc 1 480 10
 602 004a 0023     		movs	r3, #0
 481:Drivers/STM32L4xx_HAL_Driver/Src/stm32l4xx_ll_sdmmc.c **** 
 482:Drivers/STM32L4xx_HAL_Driver/Src/stm32l4xx_ll_sdmmc.c **** }
 603              		.loc 1 482 1
 604 004c 1846     		mov	r0, r3
 605 004e 1437     		adds	r7, r7, #20
 606              		.cfi_def_cfa_offset 4
 607 0050 BD46     		mov	sp, r7
 608              		.cfi_def_cfa_register 13
 609              		@ sp needed
ARM GAS  C:\Users\Morroway\AppData\Local\Temp\cc18sEAf.s 			page 20


 610 0052 5DF8047B 		ldr	r7, [sp], #4
 611              		.cfi_restore 7
 612              		.cfi_def_cfa_offset 0
 613 0056 7047     		bx	lr
 614              		.cfi_endproc
 615              	.LFE331:
 617              		.section	.text.SDMMC_GetDataCounter,"ax",%progbits
 618              		.align	1
 619              		.global	SDMMC_GetDataCounter
 620              		.syntax unified
 621              		.thumb
 622              		.thumb_func
 624              	SDMMC_GetDataCounter:
 625              	.LFB332:
 483:Drivers/STM32L4xx_HAL_Driver/Src/stm32l4xx_ll_sdmmc.c **** 
 484:Drivers/STM32L4xx_HAL_Driver/Src/stm32l4xx_ll_sdmmc.c **** /**
 485:Drivers/STM32L4xx_HAL_Driver/Src/stm32l4xx_ll_sdmmc.c ****   * @brief  Returns number of remaining data bytes to be transferred.
 486:Drivers/STM32L4xx_HAL_Driver/Src/stm32l4xx_ll_sdmmc.c ****   * @param  SDMMCx Pointer to SDMMC register base
 487:Drivers/STM32L4xx_HAL_Driver/Src/stm32l4xx_ll_sdmmc.c ****   * @retval Number of remaining data bytes to be transferred
 488:Drivers/STM32L4xx_HAL_Driver/Src/stm32l4xx_ll_sdmmc.c ****   */
 489:Drivers/STM32L4xx_HAL_Driver/Src/stm32l4xx_ll_sdmmc.c **** uint32_t SDMMC_GetDataCounter(SDMMC_TypeDef *SDMMCx)
 490:Drivers/STM32L4xx_HAL_Driver/Src/stm32l4xx_ll_sdmmc.c **** {
 626              		.loc 1 490 1
 627              		.cfi_startproc
 628              		@ args = 0, pretend = 0, frame = 8
 629              		@ frame_needed = 1, uses_anonymous_args = 0
 630              		@ link register save eliminated.
 631 0000 80B4     		push	{r7}
 632              		.cfi_def_cfa_offset 4
 633              		.cfi_offset 7, -4
 634 0002 83B0     		sub	sp, sp, #12
 635              		.cfi_def_cfa_offset 16
 636 0004 00AF     		add	r7, sp, #0
 637              		.cfi_def_cfa_register 7
 638 0006 7860     		str	r0, [r7, #4]
 491:Drivers/STM32L4xx_HAL_Driver/Src/stm32l4xx_ll_sdmmc.c ****   return (SDMMCx->DCOUNT);
 639              		.loc 1 491 17
 640 0008 7B68     		ldr	r3, [r7, #4]
 641 000a 1B6B     		ldr	r3, [r3, #48]
 492:Drivers/STM32L4xx_HAL_Driver/Src/stm32l4xx_ll_sdmmc.c **** }
 642              		.loc 1 492 1
 643 000c 1846     		mov	r0, r3
 644 000e 0C37     		adds	r7, r7, #12
 645              		.cfi_def_cfa_offset 4
 646 0010 BD46     		mov	sp, r7
 647              		.cfi_def_cfa_register 13
 648              		@ sp needed
 649 0012 5DF8047B 		ldr	r7, [sp], #4
 650              		.cfi_restore 7
 651              		.cfi_def_cfa_offset 0
 652 0016 7047     		bx	lr
 653              		.cfi_endproc
 654              	.LFE332:
 656              		.section	.text.SDMMC_GetFIFOCount,"ax",%progbits
 657              		.align	1
 658              		.global	SDMMC_GetFIFOCount
 659              		.syntax unified
ARM GAS  C:\Users\Morroway\AppData\Local\Temp\cc18sEAf.s 			page 21


 660              		.thumb
 661              		.thumb_func
 663              	SDMMC_GetFIFOCount:
 664              	.LFB333:
 493:Drivers/STM32L4xx_HAL_Driver/Src/stm32l4xx_ll_sdmmc.c **** 
 494:Drivers/STM32L4xx_HAL_Driver/Src/stm32l4xx_ll_sdmmc.c **** /**
 495:Drivers/STM32L4xx_HAL_Driver/Src/stm32l4xx_ll_sdmmc.c ****   * @brief  Get the FIFO data
 496:Drivers/STM32L4xx_HAL_Driver/Src/stm32l4xx_ll_sdmmc.c ****   * @param  SDMMCx Pointer to SDMMC register base
 497:Drivers/STM32L4xx_HAL_Driver/Src/stm32l4xx_ll_sdmmc.c ****   * @retval Data received
 498:Drivers/STM32L4xx_HAL_Driver/Src/stm32l4xx_ll_sdmmc.c ****   */
 499:Drivers/STM32L4xx_HAL_Driver/Src/stm32l4xx_ll_sdmmc.c **** uint32_t SDMMC_GetFIFOCount(SDMMC_TypeDef *SDMMCx)
 500:Drivers/STM32L4xx_HAL_Driver/Src/stm32l4xx_ll_sdmmc.c **** {
 665              		.loc 1 500 1
 666              		.cfi_startproc
 667              		@ args = 0, pretend = 0, frame = 8
 668              		@ frame_needed = 1, uses_anonymous_args = 0
 669              		@ link register save eliminated.
 670 0000 80B4     		push	{r7}
 671              		.cfi_def_cfa_offset 4
 672              		.cfi_offset 7, -4
 673 0002 83B0     		sub	sp, sp, #12
 674              		.cfi_def_cfa_offset 16
 675 0004 00AF     		add	r7, sp, #0
 676              		.cfi_def_cfa_register 7
 677 0006 7860     		str	r0, [r7, #4]
 501:Drivers/STM32L4xx_HAL_Driver/Src/stm32l4xx_ll_sdmmc.c ****   return (SDMMCx->FIFO);
 678              		.loc 1 501 17
 679 0008 7B68     		ldr	r3, [r7, #4]
 680 000a D3F88030 		ldr	r3, [r3, #128]
 502:Drivers/STM32L4xx_HAL_Driver/Src/stm32l4xx_ll_sdmmc.c **** }
 681              		.loc 1 502 1
 682 000e 1846     		mov	r0, r3
 683 0010 0C37     		adds	r7, r7, #12
 684              		.cfi_def_cfa_offset 4
 685 0012 BD46     		mov	sp, r7
 686              		.cfi_def_cfa_register 13
 687              		@ sp needed
 688 0014 5DF8047B 		ldr	r7, [sp], #4
 689              		.cfi_restore 7
 690              		.cfi_def_cfa_offset 0
 691 0018 7047     		bx	lr
 692              		.cfi_endproc
 693              	.LFE333:
 695              		.section	.text.SDMMC_SetSDMMCReadWaitMode,"ax",%progbits
 696              		.align	1
 697              		.global	SDMMC_SetSDMMCReadWaitMode
 698              		.syntax unified
 699              		.thumb
 700              		.thumb_func
 702              	SDMMC_SetSDMMCReadWaitMode:
 703              	.LFB334:
 503:Drivers/STM32L4xx_HAL_Driver/Src/stm32l4xx_ll_sdmmc.c **** 
 504:Drivers/STM32L4xx_HAL_Driver/Src/stm32l4xx_ll_sdmmc.c **** /**
 505:Drivers/STM32L4xx_HAL_Driver/Src/stm32l4xx_ll_sdmmc.c ****   * @brief  Sets one of the two options of inserting read wait interval.
 506:Drivers/STM32L4xx_HAL_Driver/Src/stm32l4xx_ll_sdmmc.c ****   * @param  SDMMCx Pointer to SDMMC register base
 507:Drivers/STM32L4xx_HAL_Driver/Src/stm32l4xx_ll_sdmmc.c ****   * @param  SDMMC_ReadWaitMode SDMMC Read Wait operation mode.
 508:Drivers/STM32L4xx_HAL_Driver/Src/stm32l4xx_ll_sdmmc.c ****   *          This parameter can be:
ARM GAS  C:\Users\Morroway\AppData\Local\Temp\cc18sEAf.s 			page 22


 509:Drivers/STM32L4xx_HAL_Driver/Src/stm32l4xx_ll_sdmmc.c ****   *            @arg SDMMC_READ_WAIT_MODE_CLK: Read Wait control by stopping SDMMCCLK
 510:Drivers/STM32L4xx_HAL_Driver/Src/stm32l4xx_ll_sdmmc.c ****   *            @arg SDMMC_READ_WAIT_MODE_DATA2: Read Wait control using SDMMC_DATA2
 511:Drivers/STM32L4xx_HAL_Driver/Src/stm32l4xx_ll_sdmmc.c ****   * @retval None
 512:Drivers/STM32L4xx_HAL_Driver/Src/stm32l4xx_ll_sdmmc.c ****   */
 513:Drivers/STM32L4xx_HAL_Driver/Src/stm32l4xx_ll_sdmmc.c **** HAL_StatusTypeDef SDMMC_SetSDMMCReadWaitMode(SDMMC_TypeDef *SDMMCx, uint32_t SDMMC_ReadWaitMode)
 514:Drivers/STM32L4xx_HAL_Driver/Src/stm32l4xx_ll_sdmmc.c **** {
 704              		.loc 1 514 1
 705              		.cfi_startproc
 706              		@ args = 0, pretend = 0, frame = 8
 707              		@ frame_needed = 1, uses_anonymous_args = 0
 708              		@ link register save eliminated.
 709 0000 80B4     		push	{r7}
 710              		.cfi_def_cfa_offset 4
 711              		.cfi_offset 7, -4
 712 0002 83B0     		sub	sp, sp, #12
 713              		.cfi_def_cfa_offset 16
 714 0004 00AF     		add	r7, sp, #0
 715              		.cfi_def_cfa_register 7
 716 0006 7860     		str	r0, [r7, #4]
 717 0008 3960     		str	r1, [r7]
 515:Drivers/STM32L4xx_HAL_Driver/Src/stm32l4xx_ll_sdmmc.c ****   /* Check the parameters */
 516:Drivers/STM32L4xx_HAL_Driver/Src/stm32l4xx_ll_sdmmc.c ****   assert_param(IS_SDMMC_READWAIT_MODE(SDMMC_ReadWaitMode));
 517:Drivers/STM32L4xx_HAL_Driver/Src/stm32l4xx_ll_sdmmc.c **** 
 518:Drivers/STM32L4xx_HAL_Driver/Src/stm32l4xx_ll_sdmmc.c ****   /* Set SDMMC read wait mode */
 519:Drivers/STM32L4xx_HAL_Driver/Src/stm32l4xx_ll_sdmmc.c ****   MODIFY_REG(SDMMCx->DCTRL, SDMMC_DCTRL_RWMOD, SDMMC_ReadWaitMode);
 718              		.loc 1 519 3
 719 000a 7B68     		ldr	r3, [r7, #4]
 720 000c DB6A     		ldr	r3, [r3, #44]
 721 000e 23F48062 		bic	r2, r3, #1024
 722 0012 3B68     		ldr	r3, [r7]
 723 0014 1A43     		orrs	r2, r2, r3
 724 0016 7B68     		ldr	r3, [r7, #4]
 725 0018 DA62     		str	r2, [r3, #44]
 520:Drivers/STM32L4xx_HAL_Driver/Src/stm32l4xx_ll_sdmmc.c **** 
 521:Drivers/STM32L4xx_HAL_Driver/Src/stm32l4xx_ll_sdmmc.c ****   return HAL_OK;
 726              		.loc 1 521 10
 727 001a 0023     		movs	r3, #0
 522:Drivers/STM32L4xx_HAL_Driver/Src/stm32l4xx_ll_sdmmc.c **** }
 728              		.loc 1 522 1
 729 001c 1846     		mov	r0, r3
 730 001e 0C37     		adds	r7, r7, #12
 731              		.cfi_def_cfa_offset 4
 732 0020 BD46     		mov	sp, r7
 733              		.cfi_def_cfa_register 13
 734              		@ sp needed
 735 0022 5DF8047B 		ldr	r7, [sp], #4
 736              		.cfi_restore 7
 737              		.cfi_def_cfa_offset 0
 738 0026 7047     		bx	lr
 739              		.cfi_endproc
 740              	.LFE334:
 742              		.section	.text.SDMMC_CmdBlockLength,"ax",%progbits
 743              		.align	1
 744              		.global	SDMMC_CmdBlockLength
 745              		.syntax unified
 746              		.thumb
 747              		.thumb_func
ARM GAS  C:\Users\Morroway\AppData\Local\Temp\cc18sEAf.s 			page 23


 749              	SDMMC_CmdBlockLength:
 750              	.LFB335:
 523:Drivers/STM32L4xx_HAL_Driver/Src/stm32l4xx_ll_sdmmc.c **** 
 524:Drivers/STM32L4xx_HAL_Driver/Src/stm32l4xx_ll_sdmmc.c **** /**
 525:Drivers/STM32L4xx_HAL_Driver/Src/stm32l4xx_ll_sdmmc.c ****   * @}
 526:Drivers/STM32L4xx_HAL_Driver/Src/stm32l4xx_ll_sdmmc.c ****   */
 527:Drivers/STM32L4xx_HAL_Driver/Src/stm32l4xx_ll_sdmmc.c **** 
 528:Drivers/STM32L4xx_HAL_Driver/Src/stm32l4xx_ll_sdmmc.c **** 
 529:Drivers/STM32L4xx_HAL_Driver/Src/stm32l4xx_ll_sdmmc.c **** /** @defgroup HAL_SDMMC_LL_Group4 Command management functions
 530:Drivers/STM32L4xx_HAL_Driver/Src/stm32l4xx_ll_sdmmc.c ****  *  @brief   Data transfers functions
 531:Drivers/STM32L4xx_HAL_Driver/Src/stm32l4xx_ll_sdmmc.c ****  *
 532:Drivers/STM32L4xx_HAL_Driver/Src/stm32l4xx_ll_sdmmc.c **** @verbatim
 533:Drivers/STM32L4xx_HAL_Driver/Src/stm32l4xx_ll_sdmmc.c ****  ===============================================================================
 534:Drivers/STM32L4xx_HAL_Driver/Src/stm32l4xx_ll_sdmmc.c ****                    ##### Commands management functions #####
 535:Drivers/STM32L4xx_HAL_Driver/Src/stm32l4xx_ll_sdmmc.c ****  ===============================================================================
 536:Drivers/STM32L4xx_HAL_Driver/Src/stm32l4xx_ll_sdmmc.c ****     [..]
 537:Drivers/STM32L4xx_HAL_Driver/Src/stm32l4xx_ll_sdmmc.c ****     This subsection provides a set of functions allowing to manage the needed commands.
 538:Drivers/STM32L4xx_HAL_Driver/Src/stm32l4xx_ll_sdmmc.c **** 
 539:Drivers/STM32L4xx_HAL_Driver/Src/stm32l4xx_ll_sdmmc.c **** @endverbatim
 540:Drivers/STM32L4xx_HAL_Driver/Src/stm32l4xx_ll_sdmmc.c ****   * @{
 541:Drivers/STM32L4xx_HAL_Driver/Src/stm32l4xx_ll_sdmmc.c ****   */
 542:Drivers/STM32L4xx_HAL_Driver/Src/stm32l4xx_ll_sdmmc.c **** 
 543:Drivers/STM32L4xx_HAL_Driver/Src/stm32l4xx_ll_sdmmc.c **** /**
 544:Drivers/STM32L4xx_HAL_Driver/Src/stm32l4xx_ll_sdmmc.c ****   * @brief  Send the Data Block Length command and check the response
 545:Drivers/STM32L4xx_HAL_Driver/Src/stm32l4xx_ll_sdmmc.c ****   * @param  SDMMCx Pointer to SDMMC register base
 546:Drivers/STM32L4xx_HAL_Driver/Src/stm32l4xx_ll_sdmmc.c ****   * @retval HAL status
 547:Drivers/STM32L4xx_HAL_Driver/Src/stm32l4xx_ll_sdmmc.c ****   */
 548:Drivers/STM32L4xx_HAL_Driver/Src/stm32l4xx_ll_sdmmc.c **** uint32_t SDMMC_CmdBlockLength(SDMMC_TypeDef *SDMMCx, uint32_t BlockSize)
 549:Drivers/STM32L4xx_HAL_Driver/Src/stm32l4xx_ll_sdmmc.c **** {
 751              		.loc 1 549 1
 752              		.cfi_startproc
 753              		@ args = 0, pretend = 0, frame = 32
 754              		@ frame_needed = 1, uses_anonymous_args = 0
 755 0000 80B5     		push	{r7, lr}
 756              		.cfi_def_cfa_offset 8
 757              		.cfi_offset 7, -8
 758              		.cfi_offset 14, -4
 759 0002 88B0     		sub	sp, sp, #32
 760              		.cfi_def_cfa_offset 40
 761 0004 00AF     		add	r7, sp, #0
 762              		.cfi_def_cfa_register 7
 763 0006 7860     		str	r0, [r7, #4]
 764 0008 3960     		str	r1, [r7]
 550:Drivers/STM32L4xx_HAL_Driver/Src/stm32l4xx_ll_sdmmc.c ****   SDMMC_CmdInitTypeDef  sdmmc_cmdinit;
 551:Drivers/STM32L4xx_HAL_Driver/Src/stm32l4xx_ll_sdmmc.c ****   uint32_t errorstate;
 552:Drivers/STM32L4xx_HAL_Driver/Src/stm32l4xx_ll_sdmmc.c **** 
 553:Drivers/STM32L4xx_HAL_Driver/Src/stm32l4xx_ll_sdmmc.c ****   /* Set Block Size for Card */
 554:Drivers/STM32L4xx_HAL_Driver/Src/stm32l4xx_ll_sdmmc.c ****   sdmmc_cmdinit.Argument         = (uint32_t)BlockSize;
 765              		.loc 1 554 34
 766 000a 3B68     		ldr	r3, [r7]
 767 000c BB60     		str	r3, [r7, #8]
 555:Drivers/STM32L4xx_HAL_Driver/Src/stm32l4xx_ll_sdmmc.c ****   sdmmc_cmdinit.CmdIndex         = SDMMC_CMD_SET_BLOCKLEN;
 768              		.loc 1 555 34
 769 000e 1023     		movs	r3, #16
 770 0010 FB60     		str	r3, [r7, #12]
 556:Drivers/STM32L4xx_HAL_Driver/Src/stm32l4xx_ll_sdmmc.c ****   sdmmc_cmdinit.Response         = SDMMC_RESPONSE_SHORT;
 771              		.loc 1 556 34
ARM GAS  C:\Users\Morroway\AppData\Local\Temp\cc18sEAf.s 			page 24


 772 0012 4FF48073 		mov	r3, #256
 773 0016 3B61     		str	r3, [r7, #16]
 557:Drivers/STM32L4xx_HAL_Driver/Src/stm32l4xx_ll_sdmmc.c ****   sdmmc_cmdinit.WaitForInterrupt = SDMMC_WAIT_NO;
 774              		.loc 1 557 34
 775 0018 0023     		movs	r3, #0
 776 001a 7B61     		str	r3, [r7, #20]
 558:Drivers/STM32L4xx_HAL_Driver/Src/stm32l4xx_ll_sdmmc.c ****   sdmmc_cmdinit.CPSM             = SDMMC_CPSM_ENABLE;
 777              		.loc 1 558 34
 778 001c 4FF48053 		mov	r3, #4096
 779 0020 BB61     		str	r3, [r7, #24]
 559:Drivers/STM32L4xx_HAL_Driver/Src/stm32l4xx_ll_sdmmc.c ****   (void)SDMMC_SendCommand(SDMMCx, &sdmmc_cmdinit);
 780              		.loc 1 559 9
 781 0022 07F10803 		add	r3, r7, #8
 782 0026 1946     		mov	r1, r3
 783 0028 7868     		ldr	r0, [r7, #4]
 784 002a FFF7FEFF 		bl	SDMMC_SendCommand
 560:Drivers/STM32L4xx_HAL_Driver/Src/stm32l4xx_ll_sdmmc.c **** 
 561:Drivers/STM32L4xx_HAL_Driver/Src/stm32l4xx_ll_sdmmc.c ****   /* Check for error conditions */
 562:Drivers/STM32L4xx_HAL_Driver/Src/stm32l4xx_ll_sdmmc.c ****   errorstate = SDMMC_GetCmdResp1(SDMMCx, SDMMC_CMD_SET_BLOCKLEN, SDMMC_CMDTIMEOUT);
 785              		.loc 1 562 16
 786 002e 41F28832 		movw	r2, #5000
 787 0032 1021     		movs	r1, #16
 788 0034 7868     		ldr	r0, [r7, #4]
 789 0036 FFF7FEFF 		bl	SDMMC_GetCmdResp1
 790 003a F861     		str	r0, [r7, #28]
 563:Drivers/STM32L4xx_HAL_Driver/Src/stm32l4xx_ll_sdmmc.c **** 
 564:Drivers/STM32L4xx_HAL_Driver/Src/stm32l4xx_ll_sdmmc.c ****   return errorstate;
 791              		.loc 1 564 10
 792 003c FB69     		ldr	r3, [r7, #28]
 565:Drivers/STM32L4xx_HAL_Driver/Src/stm32l4xx_ll_sdmmc.c **** }
 793              		.loc 1 565 1
 794 003e 1846     		mov	r0, r3
 795 0040 2037     		adds	r7, r7, #32
 796              		.cfi_def_cfa_offset 8
 797 0042 BD46     		mov	sp, r7
 798              		.cfi_def_cfa_register 13
 799              		@ sp needed
 800 0044 80BD     		pop	{r7, pc}
 801              		.cfi_endproc
 802              	.LFE335:
 804              		.section	.text.SDMMC_CmdReadSingleBlock,"ax",%progbits
 805              		.align	1
 806              		.global	SDMMC_CmdReadSingleBlock
 807              		.syntax unified
 808              		.thumb
 809              		.thumb_func
 811              	SDMMC_CmdReadSingleBlock:
 812              	.LFB336:
 566:Drivers/STM32L4xx_HAL_Driver/Src/stm32l4xx_ll_sdmmc.c **** 
 567:Drivers/STM32L4xx_HAL_Driver/Src/stm32l4xx_ll_sdmmc.c **** /**
 568:Drivers/STM32L4xx_HAL_Driver/Src/stm32l4xx_ll_sdmmc.c ****   * @brief  Send the Read Single Block command and check the response
 569:Drivers/STM32L4xx_HAL_Driver/Src/stm32l4xx_ll_sdmmc.c ****   * @param  SDMMCx Pointer to SDMMC register base
 570:Drivers/STM32L4xx_HAL_Driver/Src/stm32l4xx_ll_sdmmc.c ****   * @retval HAL status
 571:Drivers/STM32L4xx_HAL_Driver/Src/stm32l4xx_ll_sdmmc.c ****   */
 572:Drivers/STM32L4xx_HAL_Driver/Src/stm32l4xx_ll_sdmmc.c **** uint32_t SDMMC_CmdReadSingleBlock(SDMMC_TypeDef *SDMMCx, uint32_t ReadAdd)
 573:Drivers/STM32L4xx_HAL_Driver/Src/stm32l4xx_ll_sdmmc.c **** {
 813              		.loc 1 573 1
ARM GAS  C:\Users\Morroway\AppData\Local\Temp\cc18sEAf.s 			page 25


 814              		.cfi_startproc
 815              		@ args = 0, pretend = 0, frame = 32
 816              		@ frame_needed = 1, uses_anonymous_args = 0
 817 0000 80B5     		push	{r7, lr}
 818              		.cfi_def_cfa_offset 8
 819              		.cfi_offset 7, -8
 820              		.cfi_offset 14, -4
 821 0002 88B0     		sub	sp, sp, #32
 822              		.cfi_def_cfa_offset 40
 823 0004 00AF     		add	r7, sp, #0
 824              		.cfi_def_cfa_register 7
 825 0006 7860     		str	r0, [r7, #4]
 826 0008 3960     		str	r1, [r7]
 574:Drivers/STM32L4xx_HAL_Driver/Src/stm32l4xx_ll_sdmmc.c ****   SDMMC_CmdInitTypeDef  sdmmc_cmdinit;
 575:Drivers/STM32L4xx_HAL_Driver/Src/stm32l4xx_ll_sdmmc.c ****   uint32_t errorstate;
 576:Drivers/STM32L4xx_HAL_Driver/Src/stm32l4xx_ll_sdmmc.c **** 
 577:Drivers/STM32L4xx_HAL_Driver/Src/stm32l4xx_ll_sdmmc.c ****   /* Set Block Size for Card */
 578:Drivers/STM32L4xx_HAL_Driver/Src/stm32l4xx_ll_sdmmc.c ****   sdmmc_cmdinit.Argument         = (uint32_t)ReadAdd;
 827              		.loc 1 578 34
 828 000a 3B68     		ldr	r3, [r7]
 829 000c BB60     		str	r3, [r7, #8]
 579:Drivers/STM32L4xx_HAL_Driver/Src/stm32l4xx_ll_sdmmc.c ****   sdmmc_cmdinit.CmdIndex         = SDMMC_CMD_READ_SINGLE_BLOCK;
 830              		.loc 1 579 34
 831 000e 1123     		movs	r3, #17
 832 0010 FB60     		str	r3, [r7, #12]
 580:Drivers/STM32L4xx_HAL_Driver/Src/stm32l4xx_ll_sdmmc.c ****   sdmmc_cmdinit.Response         = SDMMC_RESPONSE_SHORT;
 833              		.loc 1 580 34
 834 0012 4FF48073 		mov	r3, #256
 835 0016 3B61     		str	r3, [r7, #16]
 581:Drivers/STM32L4xx_HAL_Driver/Src/stm32l4xx_ll_sdmmc.c ****   sdmmc_cmdinit.WaitForInterrupt = SDMMC_WAIT_NO;
 836              		.loc 1 581 34
 837 0018 0023     		movs	r3, #0
 838 001a 7B61     		str	r3, [r7, #20]
 582:Drivers/STM32L4xx_HAL_Driver/Src/stm32l4xx_ll_sdmmc.c ****   sdmmc_cmdinit.CPSM             = SDMMC_CPSM_ENABLE;
 839              		.loc 1 582 34
 840 001c 4FF48053 		mov	r3, #4096
 841 0020 BB61     		str	r3, [r7, #24]
 583:Drivers/STM32L4xx_HAL_Driver/Src/stm32l4xx_ll_sdmmc.c ****   (void)SDMMC_SendCommand(SDMMCx, &sdmmc_cmdinit);
 842              		.loc 1 583 9
 843 0022 07F10803 		add	r3, r7, #8
 844 0026 1946     		mov	r1, r3
 845 0028 7868     		ldr	r0, [r7, #4]
 846 002a FFF7FEFF 		bl	SDMMC_SendCommand
 584:Drivers/STM32L4xx_HAL_Driver/Src/stm32l4xx_ll_sdmmc.c **** 
 585:Drivers/STM32L4xx_HAL_Driver/Src/stm32l4xx_ll_sdmmc.c ****   /* Check for error conditions */
 586:Drivers/STM32L4xx_HAL_Driver/Src/stm32l4xx_ll_sdmmc.c ****   errorstate = SDMMC_GetCmdResp1(SDMMCx, SDMMC_CMD_READ_SINGLE_BLOCK, SDMMC_CMDTIMEOUT);
 847              		.loc 1 586 16
 848 002e 41F28832 		movw	r2, #5000
 849 0032 1121     		movs	r1, #17
 850 0034 7868     		ldr	r0, [r7, #4]
 851 0036 FFF7FEFF 		bl	SDMMC_GetCmdResp1
 852 003a F861     		str	r0, [r7, #28]
 587:Drivers/STM32L4xx_HAL_Driver/Src/stm32l4xx_ll_sdmmc.c **** 
 588:Drivers/STM32L4xx_HAL_Driver/Src/stm32l4xx_ll_sdmmc.c ****   return errorstate;
 853              		.loc 1 588 10
 854 003c FB69     		ldr	r3, [r7, #28]
 589:Drivers/STM32L4xx_HAL_Driver/Src/stm32l4xx_ll_sdmmc.c **** }
ARM GAS  C:\Users\Morroway\AppData\Local\Temp\cc18sEAf.s 			page 26


 855              		.loc 1 589 1
 856 003e 1846     		mov	r0, r3
 857 0040 2037     		adds	r7, r7, #32
 858              		.cfi_def_cfa_offset 8
 859 0042 BD46     		mov	sp, r7
 860              		.cfi_def_cfa_register 13
 861              		@ sp needed
 862 0044 80BD     		pop	{r7, pc}
 863              		.cfi_endproc
 864              	.LFE336:
 866              		.section	.text.SDMMC_CmdReadMultiBlock,"ax",%progbits
 867              		.align	1
 868              		.global	SDMMC_CmdReadMultiBlock
 869              		.syntax unified
 870              		.thumb
 871              		.thumb_func
 873              	SDMMC_CmdReadMultiBlock:
 874              	.LFB337:
 590:Drivers/STM32L4xx_HAL_Driver/Src/stm32l4xx_ll_sdmmc.c **** 
 591:Drivers/STM32L4xx_HAL_Driver/Src/stm32l4xx_ll_sdmmc.c **** /**
 592:Drivers/STM32L4xx_HAL_Driver/Src/stm32l4xx_ll_sdmmc.c ****   * @brief  Send the Read Multi Block command and check the response
 593:Drivers/STM32L4xx_HAL_Driver/Src/stm32l4xx_ll_sdmmc.c ****   * @param  SDMMCx Pointer to SDMMC register base
 594:Drivers/STM32L4xx_HAL_Driver/Src/stm32l4xx_ll_sdmmc.c ****   * @retval HAL status
 595:Drivers/STM32L4xx_HAL_Driver/Src/stm32l4xx_ll_sdmmc.c ****   */
 596:Drivers/STM32L4xx_HAL_Driver/Src/stm32l4xx_ll_sdmmc.c **** uint32_t SDMMC_CmdReadMultiBlock(SDMMC_TypeDef *SDMMCx, uint32_t ReadAdd)
 597:Drivers/STM32L4xx_HAL_Driver/Src/stm32l4xx_ll_sdmmc.c **** {
 875              		.loc 1 597 1
 876              		.cfi_startproc
 877              		@ args = 0, pretend = 0, frame = 32
 878              		@ frame_needed = 1, uses_anonymous_args = 0
 879 0000 80B5     		push	{r7, lr}
 880              		.cfi_def_cfa_offset 8
 881              		.cfi_offset 7, -8
 882              		.cfi_offset 14, -4
 883 0002 88B0     		sub	sp, sp, #32
 884              		.cfi_def_cfa_offset 40
 885 0004 00AF     		add	r7, sp, #0
 886              		.cfi_def_cfa_register 7
 887 0006 7860     		str	r0, [r7, #4]
 888 0008 3960     		str	r1, [r7]
 598:Drivers/STM32L4xx_HAL_Driver/Src/stm32l4xx_ll_sdmmc.c ****   SDMMC_CmdInitTypeDef  sdmmc_cmdinit;
 599:Drivers/STM32L4xx_HAL_Driver/Src/stm32l4xx_ll_sdmmc.c ****   uint32_t errorstate;
 600:Drivers/STM32L4xx_HAL_Driver/Src/stm32l4xx_ll_sdmmc.c **** 
 601:Drivers/STM32L4xx_HAL_Driver/Src/stm32l4xx_ll_sdmmc.c ****   /* Set Block Size for Card */
 602:Drivers/STM32L4xx_HAL_Driver/Src/stm32l4xx_ll_sdmmc.c ****   sdmmc_cmdinit.Argument         = (uint32_t)ReadAdd;
 889              		.loc 1 602 34
 890 000a 3B68     		ldr	r3, [r7]
 891 000c BB60     		str	r3, [r7, #8]
 603:Drivers/STM32L4xx_HAL_Driver/Src/stm32l4xx_ll_sdmmc.c ****   sdmmc_cmdinit.CmdIndex         = SDMMC_CMD_READ_MULT_BLOCK;
 892              		.loc 1 603 34
 893 000e 1223     		movs	r3, #18
 894 0010 FB60     		str	r3, [r7, #12]
 604:Drivers/STM32L4xx_HAL_Driver/Src/stm32l4xx_ll_sdmmc.c ****   sdmmc_cmdinit.Response         = SDMMC_RESPONSE_SHORT;
 895              		.loc 1 604 34
 896 0012 4FF48073 		mov	r3, #256
 897 0016 3B61     		str	r3, [r7, #16]
 605:Drivers/STM32L4xx_HAL_Driver/Src/stm32l4xx_ll_sdmmc.c ****   sdmmc_cmdinit.WaitForInterrupt = SDMMC_WAIT_NO;
ARM GAS  C:\Users\Morroway\AppData\Local\Temp\cc18sEAf.s 			page 27


 898              		.loc 1 605 34
 899 0018 0023     		movs	r3, #0
 900 001a 7B61     		str	r3, [r7, #20]
 606:Drivers/STM32L4xx_HAL_Driver/Src/stm32l4xx_ll_sdmmc.c ****   sdmmc_cmdinit.CPSM             = SDMMC_CPSM_ENABLE;
 901              		.loc 1 606 34
 902 001c 4FF48053 		mov	r3, #4096
 903 0020 BB61     		str	r3, [r7, #24]
 607:Drivers/STM32L4xx_HAL_Driver/Src/stm32l4xx_ll_sdmmc.c ****   (void)SDMMC_SendCommand(SDMMCx, &sdmmc_cmdinit);
 904              		.loc 1 607 9
 905 0022 07F10803 		add	r3, r7, #8
 906 0026 1946     		mov	r1, r3
 907 0028 7868     		ldr	r0, [r7, #4]
 908 002a FFF7FEFF 		bl	SDMMC_SendCommand
 608:Drivers/STM32L4xx_HAL_Driver/Src/stm32l4xx_ll_sdmmc.c **** 
 609:Drivers/STM32L4xx_HAL_Driver/Src/stm32l4xx_ll_sdmmc.c ****   /* Check for error conditions */
 610:Drivers/STM32L4xx_HAL_Driver/Src/stm32l4xx_ll_sdmmc.c ****   errorstate = SDMMC_GetCmdResp1(SDMMCx, SDMMC_CMD_READ_MULT_BLOCK, SDMMC_CMDTIMEOUT);
 909              		.loc 1 610 16
 910 002e 41F28832 		movw	r2, #5000
 911 0032 1221     		movs	r1, #18
 912 0034 7868     		ldr	r0, [r7, #4]
 913 0036 FFF7FEFF 		bl	SDMMC_GetCmdResp1
 914 003a F861     		str	r0, [r7, #28]
 611:Drivers/STM32L4xx_HAL_Driver/Src/stm32l4xx_ll_sdmmc.c **** 
 612:Drivers/STM32L4xx_HAL_Driver/Src/stm32l4xx_ll_sdmmc.c ****   return errorstate;
 915              		.loc 1 612 10
 916 003c FB69     		ldr	r3, [r7, #28]
 613:Drivers/STM32L4xx_HAL_Driver/Src/stm32l4xx_ll_sdmmc.c **** }
 917              		.loc 1 613 1
 918 003e 1846     		mov	r0, r3
 919 0040 2037     		adds	r7, r7, #32
 920              		.cfi_def_cfa_offset 8
 921 0042 BD46     		mov	sp, r7
 922              		.cfi_def_cfa_register 13
 923              		@ sp needed
 924 0044 80BD     		pop	{r7, pc}
 925              		.cfi_endproc
 926              	.LFE337:
 928              		.section	.text.SDMMC_CmdWriteSingleBlock,"ax",%progbits
 929              		.align	1
 930              		.global	SDMMC_CmdWriteSingleBlock
 931              		.syntax unified
 932              		.thumb
 933              		.thumb_func
 935              	SDMMC_CmdWriteSingleBlock:
 936              	.LFB338:
 614:Drivers/STM32L4xx_HAL_Driver/Src/stm32l4xx_ll_sdmmc.c **** 
 615:Drivers/STM32L4xx_HAL_Driver/Src/stm32l4xx_ll_sdmmc.c **** /**
 616:Drivers/STM32L4xx_HAL_Driver/Src/stm32l4xx_ll_sdmmc.c ****   * @brief  Send the Write Single Block command and check the response
 617:Drivers/STM32L4xx_HAL_Driver/Src/stm32l4xx_ll_sdmmc.c ****   * @param  SDMMCx Pointer to SDMMC register base
 618:Drivers/STM32L4xx_HAL_Driver/Src/stm32l4xx_ll_sdmmc.c ****   * @retval HAL status
 619:Drivers/STM32L4xx_HAL_Driver/Src/stm32l4xx_ll_sdmmc.c ****   */
 620:Drivers/STM32L4xx_HAL_Driver/Src/stm32l4xx_ll_sdmmc.c **** uint32_t SDMMC_CmdWriteSingleBlock(SDMMC_TypeDef *SDMMCx, uint32_t WriteAdd)
 621:Drivers/STM32L4xx_HAL_Driver/Src/stm32l4xx_ll_sdmmc.c **** {
 937              		.loc 1 621 1
 938              		.cfi_startproc
 939              		@ args = 0, pretend = 0, frame = 32
 940              		@ frame_needed = 1, uses_anonymous_args = 0
ARM GAS  C:\Users\Morroway\AppData\Local\Temp\cc18sEAf.s 			page 28


 941 0000 80B5     		push	{r7, lr}
 942              		.cfi_def_cfa_offset 8
 943              		.cfi_offset 7, -8
 944              		.cfi_offset 14, -4
 945 0002 88B0     		sub	sp, sp, #32
 946              		.cfi_def_cfa_offset 40
 947 0004 00AF     		add	r7, sp, #0
 948              		.cfi_def_cfa_register 7
 949 0006 7860     		str	r0, [r7, #4]
 950 0008 3960     		str	r1, [r7]
 622:Drivers/STM32L4xx_HAL_Driver/Src/stm32l4xx_ll_sdmmc.c ****   SDMMC_CmdInitTypeDef  sdmmc_cmdinit;
 623:Drivers/STM32L4xx_HAL_Driver/Src/stm32l4xx_ll_sdmmc.c ****   uint32_t errorstate;
 624:Drivers/STM32L4xx_HAL_Driver/Src/stm32l4xx_ll_sdmmc.c **** 
 625:Drivers/STM32L4xx_HAL_Driver/Src/stm32l4xx_ll_sdmmc.c ****   /* Set Block Size for Card */
 626:Drivers/STM32L4xx_HAL_Driver/Src/stm32l4xx_ll_sdmmc.c ****   sdmmc_cmdinit.Argument         = (uint32_t)WriteAdd;
 951              		.loc 1 626 34
 952 000a 3B68     		ldr	r3, [r7]
 953 000c BB60     		str	r3, [r7, #8]
 627:Drivers/STM32L4xx_HAL_Driver/Src/stm32l4xx_ll_sdmmc.c ****   sdmmc_cmdinit.CmdIndex         = SDMMC_CMD_WRITE_SINGLE_BLOCK;
 954              		.loc 1 627 34
 955 000e 1823     		movs	r3, #24
 956 0010 FB60     		str	r3, [r7, #12]
 628:Drivers/STM32L4xx_HAL_Driver/Src/stm32l4xx_ll_sdmmc.c ****   sdmmc_cmdinit.Response         = SDMMC_RESPONSE_SHORT;
 957              		.loc 1 628 34
 958 0012 4FF48073 		mov	r3, #256
 959 0016 3B61     		str	r3, [r7, #16]
 629:Drivers/STM32L4xx_HAL_Driver/Src/stm32l4xx_ll_sdmmc.c ****   sdmmc_cmdinit.WaitForInterrupt = SDMMC_WAIT_NO;
 960              		.loc 1 629 34
 961 0018 0023     		movs	r3, #0
 962 001a 7B61     		str	r3, [r7, #20]
 630:Drivers/STM32L4xx_HAL_Driver/Src/stm32l4xx_ll_sdmmc.c ****   sdmmc_cmdinit.CPSM             = SDMMC_CPSM_ENABLE;
 963              		.loc 1 630 34
 964 001c 4FF48053 		mov	r3, #4096
 965 0020 BB61     		str	r3, [r7, #24]
 631:Drivers/STM32L4xx_HAL_Driver/Src/stm32l4xx_ll_sdmmc.c ****   (void)SDMMC_SendCommand(SDMMCx, &sdmmc_cmdinit);
 966              		.loc 1 631 9
 967 0022 07F10803 		add	r3, r7, #8
 968 0026 1946     		mov	r1, r3
 969 0028 7868     		ldr	r0, [r7, #4]
 970 002a FFF7FEFF 		bl	SDMMC_SendCommand
 632:Drivers/STM32L4xx_HAL_Driver/Src/stm32l4xx_ll_sdmmc.c **** 
 633:Drivers/STM32L4xx_HAL_Driver/Src/stm32l4xx_ll_sdmmc.c ****   /* Check for error conditions */
 634:Drivers/STM32L4xx_HAL_Driver/Src/stm32l4xx_ll_sdmmc.c ****   errorstate = SDMMC_GetCmdResp1(SDMMCx, SDMMC_CMD_WRITE_SINGLE_BLOCK, SDMMC_CMDTIMEOUT);
 971              		.loc 1 634 16
 972 002e 41F28832 		movw	r2, #5000
 973 0032 1821     		movs	r1, #24
 974 0034 7868     		ldr	r0, [r7, #4]
 975 0036 FFF7FEFF 		bl	SDMMC_GetCmdResp1
 976 003a F861     		str	r0, [r7, #28]
 635:Drivers/STM32L4xx_HAL_Driver/Src/stm32l4xx_ll_sdmmc.c **** 
 636:Drivers/STM32L4xx_HAL_Driver/Src/stm32l4xx_ll_sdmmc.c ****   return errorstate;
 977              		.loc 1 636 10
 978 003c FB69     		ldr	r3, [r7, #28]
 637:Drivers/STM32L4xx_HAL_Driver/Src/stm32l4xx_ll_sdmmc.c **** }
 979              		.loc 1 637 1
 980 003e 1846     		mov	r0, r3
 981 0040 2037     		adds	r7, r7, #32
ARM GAS  C:\Users\Morroway\AppData\Local\Temp\cc18sEAf.s 			page 29


 982              		.cfi_def_cfa_offset 8
 983 0042 BD46     		mov	sp, r7
 984              		.cfi_def_cfa_register 13
 985              		@ sp needed
 986 0044 80BD     		pop	{r7, pc}
 987              		.cfi_endproc
 988              	.LFE338:
 990              		.section	.text.SDMMC_CmdWriteMultiBlock,"ax",%progbits
 991              		.align	1
 992              		.global	SDMMC_CmdWriteMultiBlock
 993              		.syntax unified
 994              		.thumb
 995              		.thumb_func
 997              	SDMMC_CmdWriteMultiBlock:
 998              	.LFB339:
 638:Drivers/STM32L4xx_HAL_Driver/Src/stm32l4xx_ll_sdmmc.c **** 
 639:Drivers/STM32L4xx_HAL_Driver/Src/stm32l4xx_ll_sdmmc.c **** /**
 640:Drivers/STM32L4xx_HAL_Driver/Src/stm32l4xx_ll_sdmmc.c ****   * @brief  Send the Write Multi Block command and check the response
 641:Drivers/STM32L4xx_HAL_Driver/Src/stm32l4xx_ll_sdmmc.c ****   * @param  SDMMCx Pointer to SDMMC register base
 642:Drivers/STM32L4xx_HAL_Driver/Src/stm32l4xx_ll_sdmmc.c ****   * @retval HAL status
 643:Drivers/STM32L4xx_HAL_Driver/Src/stm32l4xx_ll_sdmmc.c ****   */
 644:Drivers/STM32L4xx_HAL_Driver/Src/stm32l4xx_ll_sdmmc.c **** uint32_t SDMMC_CmdWriteMultiBlock(SDMMC_TypeDef *SDMMCx, uint32_t WriteAdd)
 645:Drivers/STM32L4xx_HAL_Driver/Src/stm32l4xx_ll_sdmmc.c **** {
 999              		.loc 1 645 1
 1000              		.cfi_startproc
 1001              		@ args = 0, pretend = 0, frame = 32
 1002              		@ frame_needed = 1, uses_anonymous_args = 0
 1003 0000 80B5     		push	{r7, lr}
 1004              		.cfi_def_cfa_offset 8
 1005              		.cfi_offset 7, -8
 1006              		.cfi_offset 14, -4
 1007 0002 88B0     		sub	sp, sp, #32
 1008              		.cfi_def_cfa_offset 40
 1009 0004 00AF     		add	r7, sp, #0
 1010              		.cfi_def_cfa_register 7
 1011 0006 7860     		str	r0, [r7, #4]
 1012 0008 3960     		str	r1, [r7]
 646:Drivers/STM32L4xx_HAL_Driver/Src/stm32l4xx_ll_sdmmc.c ****   SDMMC_CmdInitTypeDef  sdmmc_cmdinit;
 647:Drivers/STM32L4xx_HAL_Driver/Src/stm32l4xx_ll_sdmmc.c ****   uint32_t errorstate;
 648:Drivers/STM32L4xx_HAL_Driver/Src/stm32l4xx_ll_sdmmc.c **** 
 649:Drivers/STM32L4xx_HAL_Driver/Src/stm32l4xx_ll_sdmmc.c ****   /* Set Block Size for Card */
 650:Drivers/STM32L4xx_HAL_Driver/Src/stm32l4xx_ll_sdmmc.c ****   sdmmc_cmdinit.Argument         = (uint32_t)WriteAdd;
 1013              		.loc 1 650 34
 1014 000a 3B68     		ldr	r3, [r7]
 1015 000c BB60     		str	r3, [r7, #8]
 651:Drivers/STM32L4xx_HAL_Driver/Src/stm32l4xx_ll_sdmmc.c ****   sdmmc_cmdinit.CmdIndex         = SDMMC_CMD_WRITE_MULT_BLOCK;
 1016              		.loc 1 651 34
 1017 000e 1923     		movs	r3, #25
 1018 0010 FB60     		str	r3, [r7, #12]
 652:Drivers/STM32L4xx_HAL_Driver/Src/stm32l4xx_ll_sdmmc.c ****   sdmmc_cmdinit.Response         = SDMMC_RESPONSE_SHORT;
 1019              		.loc 1 652 34
 1020 0012 4FF48073 		mov	r3, #256
 1021 0016 3B61     		str	r3, [r7, #16]
 653:Drivers/STM32L4xx_HAL_Driver/Src/stm32l4xx_ll_sdmmc.c ****   sdmmc_cmdinit.WaitForInterrupt = SDMMC_WAIT_NO;
 1022              		.loc 1 653 34
 1023 0018 0023     		movs	r3, #0
 1024 001a 7B61     		str	r3, [r7, #20]
ARM GAS  C:\Users\Morroway\AppData\Local\Temp\cc18sEAf.s 			page 30


 654:Drivers/STM32L4xx_HAL_Driver/Src/stm32l4xx_ll_sdmmc.c ****   sdmmc_cmdinit.CPSM             = SDMMC_CPSM_ENABLE;
 1025              		.loc 1 654 34
 1026 001c 4FF48053 		mov	r3, #4096
 1027 0020 BB61     		str	r3, [r7, #24]
 655:Drivers/STM32L4xx_HAL_Driver/Src/stm32l4xx_ll_sdmmc.c ****   (void)SDMMC_SendCommand(SDMMCx, &sdmmc_cmdinit);
 1028              		.loc 1 655 9
 1029 0022 07F10803 		add	r3, r7, #8
 1030 0026 1946     		mov	r1, r3
 1031 0028 7868     		ldr	r0, [r7, #4]
 1032 002a FFF7FEFF 		bl	SDMMC_SendCommand
 656:Drivers/STM32L4xx_HAL_Driver/Src/stm32l4xx_ll_sdmmc.c **** 
 657:Drivers/STM32L4xx_HAL_Driver/Src/stm32l4xx_ll_sdmmc.c ****   /* Check for error conditions */
 658:Drivers/STM32L4xx_HAL_Driver/Src/stm32l4xx_ll_sdmmc.c ****   errorstate = SDMMC_GetCmdResp1(SDMMCx, SDMMC_CMD_WRITE_MULT_BLOCK, SDMMC_CMDTIMEOUT);
 1033              		.loc 1 658 16
 1034 002e 41F28832 		movw	r2, #5000
 1035 0032 1921     		movs	r1, #25
 1036 0034 7868     		ldr	r0, [r7, #4]
 1037 0036 FFF7FEFF 		bl	SDMMC_GetCmdResp1
 1038 003a F861     		str	r0, [r7, #28]
 659:Drivers/STM32L4xx_HAL_Driver/Src/stm32l4xx_ll_sdmmc.c **** 
 660:Drivers/STM32L4xx_HAL_Driver/Src/stm32l4xx_ll_sdmmc.c ****   return errorstate;
 1039              		.loc 1 660 10
 1040 003c FB69     		ldr	r3, [r7, #28]
 661:Drivers/STM32L4xx_HAL_Driver/Src/stm32l4xx_ll_sdmmc.c **** }
 1041              		.loc 1 661 1
 1042 003e 1846     		mov	r0, r3
 1043 0040 2037     		adds	r7, r7, #32
 1044              		.cfi_def_cfa_offset 8
 1045 0042 BD46     		mov	sp, r7
 1046              		.cfi_def_cfa_register 13
 1047              		@ sp needed
 1048 0044 80BD     		pop	{r7, pc}
 1049              		.cfi_endproc
 1050              	.LFE339:
 1052              		.section	.text.SDMMC_CmdSDEraseStartAdd,"ax",%progbits
 1053              		.align	1
 1054              		.global	SDMMC_CmdSDEraseStartAdd
 1055              		.syntax unified
 1056              		.thumb
 1057              		.thumb_func
 1059              	SDMMC_CmdSDEraseStartAdd:
 1060              	.LFB340:
 662:Drivers/STM32L4xx_HAL_Driver/Src/stm32l4xx_ll_sdmmc.c **** 
 663:Drivers/STM32L4xx_HAL_Driver/Src/stm32l4xx_ll_sdmmc.c **** /**
 664:Drivers/STM32L4xx_HAL_Driver/Src/stm32l4xx_ll_sdmmc.c ****   * @brief  Send the Start Address Erase command for SD and check the response
 665:Drivers/STM32L4xx_HAL_Driver/Src/stm32l4xx_ll_sdmmc.c ****   * @param  SDMMCx Pointer to SDMMC register base
 666:Drivers/STM32L4xx_HAL_Driver/Src/stm32l4xx_ll_sdmmc.c ****   * @retval HAL status
 667:Drivers/STM32L4xx_HAL_Driver/Src/stm32l4xx_ll_sdmmc.c ****   */
 668:Drivers/STM32L4xx_HAL_Driver/Src/stm32l4xx_ll_sdmmc.c **** uint32_t SDMMC_CmdSDEraseStartAdd(SDMMC_TypeDef *SDMMCx, uint32_t StartAdd)
 669:Drivers/STM32L4xx_HAL_Driver/Src/stm32l4xx_ll_sdmmc.c **** {
 1061              		.loc 1 669 1
 1062              		.cfi_startproc
 1063              		@ args = 0, pretend = 0, frame = 32
 1064              		@ frame_needed = 1, uses_anonymous_args = 0
 1065 0000 80B5     		push	{r7, lr}
 1066              		.cfi_def_cfa_offset 8
 1067              		.cfi_offset 7, -8
ARM GAS  C:\Users\Morroway\AppData\Local\Temp\cc18sEAf.s 			page 31


 1068              		.cfi_offset 14, -4
 1069 0002 88B0     		sub	sp, sp, #32
 1070              		.cfi_def_cfa_offset 40
 1071 0004 00AF     		add	r7, sp, #0
 1072              		.cfi_def_cfa_register 7
 1073 0006 7860     		str	r0, [r7, #4]
 1074 0008 3960     		str	r1, [r7]
 670:Drivers/STM32L4xx_HAL_Driver/Src/stm32l4xx_ll_sdmmc.c ****   SDMMC_CmdInitTypeDef  sdmmc_cmdinit;
 671:Drivers/STM32L4xx_HAL_Driver/Src/stm32l4xx_ll_sdmmc.c ****   uint32_t errorstate;
 672:Drivers/STM32L4xx_HAL_Driver/Src/stm32l4xx_ll_sdmmc.c **** 
 673:Drivers/STM32L4xx_HAL_Driver/Src/stm32l4xx_ll_sdmmc.c ****   /* Set Block Size for Card */
 674:Drivers/STM32L4xx_HAL_Driver/Src/stm32l4xx_ll_sdmmc.c ****   sdmmc_cmdinit.Argument         = (uint32_t)StartAdd;
 1075              		.loc 1 674 34
 1076 000a 3B68     		ldr	r3, [r7]
 1077 000c BB60     		str	r3, [r7, #8]
 675:Drivers/STM32L4xx_HAL_Driver/Src/stm32l4xx_ll_sdmmc.c ****   sdmmc_cmdinit.CmdIndex         = SDMMC_CMD_SD_ERASE_GRP_START;
 1078              		.loc 1 675 34
 1079 000e 2023     		movs	r3, #32
 1080 0010 FB60     		str	r3, [r7, #12]
 676:Drivers/STM32L4xx_HAL_Driver/Src/stm32l4xx_ll_sdmmc.c ****   sdmmc_cmdinit.Response         = SDMMC_RESPONSE_SHORT;
 1081              		.loc 1 676 34
 1082 0012 4FF48073 		mov	r3, #256
 1083 0016 3B61     		str	r3, [r7, #16]
 677:Drivers/STM32L4xx_HAL_Driver/Src/stm32l4xx_ll_sdmmc.c ****   sdmmc_cmdinit.WaitForInterrupt = SDMMC_WAIT_NO;
 1084              		.loc 1 677 34
 1085 0018 0023     		movs	r3, #0
 1086 001a 7B61     		str	r3, [r7, #20]
 678:Drivers/STM32L4xx_HAL_Driver/Src/stm32l4xx_ll_sdmmc.c ****   sdmmc_cmdinit.CPSM             = SDMMC_CPSM_ENABLE;
 1087              		.loc 1 678 34
 1088 001c 4FF48053 		mov	r3, #4096
 1089 0020 BB61     		str	r3, [r7, #24]
 679:Drivers/STM32L4xx_HAL_Driver/Src/stm32l4xx_ll_sdmmc.c ****   (void)SDMMC_SendCommand(SDMMCx, &sdmmc_cmdinit);
 1090              		.loc 1 679 9
 1091 0022 07F10803 		add	r3, r7, #8
 1092 0026 1946     		mov	r1, r3
 1093 0028 7868     		ldr	r0, [r7, #4]
 1094 002a FFF7FEFF 		bl	SDMMC_SendCommand
 680:Drivers/STM32L4xx_HAL_Driver/Src/stm32l4xx_ll_sdmmc.c **** 
 681:Drivers/STM32L4xx_HAL_Driver/Src/stm32l4xx_ll_sdmmc.c ****   /* Check for error conditions */
 682:Drivers/STM32L4xx_HAL_Driver/Src/stm32l4xx_ll_sdmmc.c ****   errorstate = SDMMC_GetCmdResp1(SDMMCx, SDMMC_CMD_SD_ERASE_GRP_START, SDMMC_CMDTIMEOUT);
 1095              		.loc 1 682 16
 1096 002e 41F28832 		movw	r2, #5000
 1097 0032 2021     		movs	r1, #32
 1098 0034 7868     		ldr	r0, [r7, #4]
 1099 0036 FFF7FEFF 		bl	SDMMC_GetCmdResp1
 1100 003a F861     		str	r0, [r7, #28]
 683:Drivers/STM32L4xx_HAL_Driver/Src/stm32l4xx_ll_sdmmc.c **** 
 684:Drivers/STM32L4xx_HAL_Driver/Src/stm32l4xx_ll_sdmmc.c ****   return errorstate;
 1101              		.loc 1 684 10
 1102 003c FB69     		ldr	r3, [r7, #28]
 685:Drivers/STM32L4xx_HAL_Driver/Src/stm32l4xx_ll_sdmmc.c **** }
 1103              		.loc 1 685 1
 1104 003e 1846     		mov	r0, r3
 1105 0040 2037     		adds	r7, r7, #32
 1106              		.cfi_def_cfa_offset 8
 1107 0042 BD46     		mov	sp, r7
 1108              		.cfi_def_cfa_register 13
ARM GAS  C:\Users\Morroway\AppData\Local\Temp\cc18sEAf.s 			page 32


 1109              		@ sp needed
 1110 0044 80BD     		pop	{r7, pc}
 1111              		.cfi_endproc
 1112              	.LFE340:
 1114              		.section	.text.SDMMC_CmdSDEraseEndAdd,"ax",%progbits
 1115              		.align	1
 1116              		.global	SDMMC_CmdSDEraseEndAdd
 1117              		.syntax unified
 1118              		.thumb
 1119              		.thumb_func
 1121              	SDMMC_CmdSDEraseEndAdd:
 1122              	.LFB341:
 686:Drivers/STM32L4xx_HAL_Driver/Src/stm32l4xx_ll_sdmmc.c **** 
 687:Drivers/STM32L4xx_HAL_Driver/Src/stm32l4xx_ll_sdmmc.c **** /**
 688:Drivers/STM32L4xx_HAL_Driver/Src/stm32l4xx_ll_sdmmc.c ****   * @brief  Send the End Address Erase command for SD and check the response
 689:Drivers/STM32L4xx_HAL_Driver/Src/stm32l4xx_ll_sdmmc.c ****   * @param  SDMMCx Pointer to SDMMC register base
 690:Drivers/STM32L4xx_HAL_Driver/Src/stm32l4xx_ll_sdmmc.c ****   * @retval HAL status
 691:Drivers/STM32L4xx_HAL_Driver/Src/stm32l4xx_ll_sdmmc.c ****   */
 692:Drivers/STM32L4xx_HAL_Driver/Src/stm32l4xx_ll_sdmmc.c **** uint32_t SDMMC_CmdSDEraseEndAdd(SDMMC_TypeDef *SDMMCx, uint32_t EndAdd)
 693:Drivers/STM32L4xx_HAL_Driver/Src/stm32l4xx_ll_sdmmc.c **** {
 1123              		.loc 1 693 1
 1124              		.cfi_startproc
 1125              		@ args = 0, pretend = 0, frame = 32
 1126              		@ frame_needed = 1, uses_anonymous_args = 0
 1127 0000 80B5     		push	{r7, lr}
 1128              		.cfi_def_cfa_offset 8
 1129              		.cfi_offset 7, -8
 1130              		.cfi_offset 14, -4
 1131 0002 88B0     		sub	sp, sp, #32
 1132              		.cfi_def_cfa_offset 40
 1133 0004 00AF     		add	r7, sp, #0
 1134              		.cfi_def_cfa_register 7
 1135 0006 7860     		str	r0, [r7, #4]
 1136 0008 3960     		str	r1, [r7]
 694:Drivers/STM32L4xx_HAL_Driver/Src/stm32l4xx_ll_sdmmc.c ****   SDMMC_CmdInitTypeDef  sdmmc_cmdinit;
 695:Drivers/STM32L4xx_HAL_Driver/Src/stm32l4xx_ll_sdmmc.c ****   uint32_t errorstate;
 696:Drivers/STM32L4xx_HAL_Driver/Src/stm32l4xx_ll_sdmmc.c **** 
 697:Drivers/STM32L4xx_HAL_Driver/Src/stm32l4xx_ll_sdmmc.c ****   /* Set Block Size for Card */
 698:Drivers/STM32L4xx_HAL_Driver/Src/stm32l4xx_ll_sdmmc.c ****   sdmmc_cmdinit.Argument         = (uint32_t)EndAdd;
 1137              		.loc 1 698 34
 1138 000a 3B68     		ldr	r3, [r7]
 1139 000c BB60     		str	r3, [r7, #8]
 699:Drivers/STM32L4xx_HAL_Driver/Src/stm32l4xx_ll_sdmmc.c ****   sdmmc_cmdinit.CmdIndex         = SDMMC_CMD_SD_ERASE_GRP_END;
 1140              		.loc 1 699 34
 1141 000e 2123     		movs	r3, #33
 1142 0010 FB60     		str	r3, [r7, #12]
 700:Drivers/STM32L4xx_HAL_Driver/Src/stm32l4xx_ll_sdmmc.c ****   sdmmc_cmdinit.Response         = SDMMC_RESPONSE_SHORT;
 1143              		.loc 1 700 34
 1144 0012 4FF48073 		mov	r3, #256
 1145 0016 3B61     		str	r3, [r7, #16]
 701:Drivers/STM32L4xx_HAL_Driver/Src/stm32l4xx_ll_sdmmc.c ****   sdmmc_cmdinit.WaitForInterrupt = SDMMC_WAIT_NO;
 1146              		.loc 1 701 34
 1147 0018 0023     		movs	r3, #0
 1148 001a 7B61     		str	r3, [r7, #20]
 702:Drivers/STM32L4xx_HAL_Driver/Src/stm32l4xx_ll_sdmmc.c ****   sdmmc_cmdinit.CPSM             = SDMMC_CPSM_ENABLE;
 1149              		.loc 1 702 34
 1150 001c 4FF48053 		mov	r3, #4096
ARM GAS  C:\Users\Morroway\AppData\Local\Temp\cc18sEAf.s 			page 33


 1151 0020 BB61     		str	r3, [r7, #24]
 703:Drivers/STM32L4xx_HAL_Driver/Src/stm32l4xx_ll_sdmmc.c ****   (void)SDMMC_SendCommand(SDMMCx, &sdmmc_cmdinit);
 1152              		.loc 1 703 9
 1153 0022 07F10803 		add	r3, r7, #8
 1154 0026 1946     		mov	r1, r3
 1155 0028 7868     		ldr	r0, [r7, #4]
 1156 002a FFF7FEFF 		bl	SDMMC_SendCommand
 704:Drivers/STM32L4xx_HAL_Driver/Src/stm32l4xx_ll_sdmmc.c **** 
 705:Drivers/STM32L4xx_HAL_Driver/Src/stm32l4xx_ll_sdmmc.c ****   /* Check for error conditions */
 706:Drivers/STM32L4xx_HAL_Driver/Src/stm32l4xx_ll_sdmmc.c ****   errorstate = SDMMC_GetCmdResp1(SDMMCx, SDMMC_CMD_SD_ERASE_GRP_END, SDMMC_CMDTIMEOUT);
 1157              		.loc 1 706 16
 1158 002e 41F28832 		movw	r2, #5000
 1159 0032 2121     		movs	r1, #33
 1160 0034 7868     		ldr	r0, [r7, #4]
 1161 0036 FFF7FEFF 		bl	SDMMC_GetCmdResp1
 1162 003a F861     		str	r0, [r7, #28]
 707:Drivers/STM32L4xx_HAL_Driver/Src/stm32l4xx_ll_sdmmc.c **** 
 708:Drivers/STM32L4xx_HAL_Driver/Src/stm32l4xx_ll_sdmmc.c ****   return errorstate;
 1163              		.loc 1 708 10
 1164 003c FB69     		ldr	r3, [r7, #28]
 709:Drivers/STM32L4xx_HAL_Driver/Src/stm32l4xx_ll_sdmmc.c **** }
 1165              		.loc 1 709 1
 1166 003e 1846     		mov	r0, r3
 1167 0040 2037     		adds	r7, r7, #32
 1168              		.cfi_def_cfa_offset 8
 1169 0042 BD46     		mov	sp, r7
 1170              		.cfi_def_cfa_register 13
 1171              		@ sp needed
 1172 0044 80BD     		pop	{r7, pc}
 1173              		.cfi_endproc
 1174              	.LFE341:
 1176              		.section	.text.SDMMC_CmdEraseStartAdd,"ax",%progbits
 1177              		.align	1
 1178              		.global	SDMMC_CmdEraseStartAdd
 1179              		.syntax unified
 1180              		.thumb
 1181              		.thumb_func
 1183              	SDMMC_CmdEraseStartAdd:
 1184              	.LFB342:
 710:Drivers/STM32L4xx_HAL_Driver/Src/stm32l4xx_ll_sdmmc.c **** 
 711:Drivers/STM32L4xx_HAL_Driver/Src/stm32l4xx_ll_sdmmc.c **** /**
 712:Drivers/STM32L4xx_HAL_Driver/Src/stm32l4xx_ll_sdmmc.c ****   * @brief  Send the Start Address Erase command and check the response
 713:Drivers/STM32L4xx_HAL_Driver/Src/stm32l4xx_ll_sdmmc.c ****   * @param  SDMMCx Pointer to SDMMC register base
 714:Drivers/STM32L4xx_HAL_Driver/Src/stm32l4xx_ll_sdmmc.c ****   * @retval HAL status
 715:Drivers/STM32L4xx_HAL_Driver/Src/stm32l4xx_ll_sdmmc.c ****   */
 716:Drivers/STM32L4xx_HAL_Driver/Src/stm32l4xx_ll_sdmmc.c **** uint32_t SDMMC_CmdEraseStartAdd(SDMMC_TypeDef *SDMMCx, uint32_t StartAdd)
 717:Drivers/STM32L4xx_HAL_Driver/Src/stm32l4xx_ll_sdmmc.c **** {
 1185              		.loc 1 717 1
 1186              		.cfi_startproc
 1187              		@ args = 0, pretend = 0, frame = 32
 1188              		@ frame_needed = 1, uses_anonymous_args = 0
 1189 0000 80B5     		push	{r7, lr}
 1190              		.cfi_def_cfa_offset 8
 1191              		.cfi_offset 7, -8
 1192              		.cfi_offset 14, -4
 1193 0002 88B0     		sub	sp, sp, #32
 1194              		.cfi_def_cfa_offset 40
ARM GAS  C:\Users\Morroway\AppData\Local\Temp\cc18sEAf.s 			page 34


 1195 0004 00AF     		add	r7, sp, #0
 1196              		.cfi_def_cfa_register 7
 1197 0006 7860     		str	r0, [r7, #4]
 1198 0008 3960     		str	r1, [r7]
 718:Drivers/STM32L4xx_HAL_Driver/Src/stm32l4xx_ll_sdmmc.c ****   SDMMC_CmdInitTypeDef  sdmmc_cmdinit;
 719:Drivers/STM32L4xx_HAL_Driver/Src/stm32l4xx_ll_sdmmc.c ****   uint32_t errorstate;
 720:Drivers/STM32L4xx_HAL_Driver/Src/stm32l4xx_ll_sdmmc.c **** 
 721:Drivers/STM32L4xx_HAL_Driver/Src/stm32l4xx_ll_sdmmc.c ****   /* Set Block Size for Card */
 722:Drivers/STM32L4xx_HAL_Driver/Src/stm32l4xx_ll_sdmmc.c ****   sdmmc_cmdinit.Argument         = (uint32_t)StartAdd;
 1199              		.loc 1 722 34
 1200 000a 3B68     		ldr	r3, [r7]
 1201 000c BB60     		str	r3, [r7, #8]
 723:Drivers/STM32L4xx_HAL_Driver/Src/stm32l4xx_ll_sdmmc.c ****   sdmmc_cmdinit.CmdIndex         = SDMMC_CMD_ERASE_GRP_START;
 1202              		.loc 1 723 34
 1203 000e 2323     		movs	r3, #35
 1204 0010 FB60     		str	r3, [r7, #12]
 724:Drivers/STM32L4xx_HAL_Driver/Src/stm32l4xx_ll_sdmmc.c ****   sdmmc_cmdinit.Response         = SDMMC_RESPONSE_SHORT;
 1205              		.loc 1 724 34
 1206 0012 4FF48073 		mov	r3, #256
 1207 0016 3B61     		str	r3, [r7, #16]
 725:Drivers/STM32L4xx_HAL_Driver/Src/stm32l4xx_ll_sdmmc.c ****   sdmmc_cmdinit.WaitForInterrupt = SDMMC_WAIT_NO;
 1208              		.loc 1 725 34
 1209 0018 0023     		movs	r3, #0
 1210 001a 7B61     		str	r3, [r7, #20]
 726:Drivers/STM32L4xx_HAL_Driver/Src/stm32l4xx_ll_sdmmc.c ****   sdmmc_cmdinit.CPSM             = SDMMC_CPSM_ENABLE;
 1211              		.loc 1 726 34
 1212 001c 4FF48053 		mov	r3, #4096
 1213 0020 BB61     		str	r3, [r7, #24]
 727:Drivers/STM32L4xx_HAL_Driver/Src/stm32l4xx_ll_sdmmc.c ****   (void)SDMMC_SendCommand(SDMMCx, &sdmmc_cmdinit);
 1214              		.loc 1 727 9
 1215 0022 07F10803 		add	r3, r7, #8
 1216 0026 1946     		mov	r1, r3
 1217 0028 7868     		ldr	r0, [r7, #4]
 1218 002a FFF7FEFF 		bl	SDMMC_SendCommand
 728:Drivers/STM32L4xx_HAL_Driver/Src/stm32l4xx_ll_sdmmc.c **** 
 729:Drivers/STM32L4xx_HAL_Driver/Src/stm32l4xx_ll_sdmmc.c ****   /* Check for error conditions */
 730:Drivers/STM32L4xx_HAL_Driver/Src/stm32l4xx_ll_sdmmc.c ****   errorstate = SDMMC_GetCmdResp1(SDMMCx, SDMMC_CMD_ERASE_GRP_START, SDMMC_CMDTIMEOUT);
 1219              		.loc 1 730 16
 1220 002e 41F28832 		movw	r2, #5000
 1221 0032 2321     		movs	r1, #35
 1222 0034 7868     		ldr	r0, [r7, #4]
 1223 0036 FFF7FEFF 		bl	SDMMC_GetCmdResp1
 1224 003a F861     		str	r0, [r7, #28]
 731:Drivers/STM32L4xx_HAL_Driver/Src/stm32l4xx_ll_sdmmc.c **** 
 732:Drivers/STM32L4xx_HAL_Driver/Src/stm32l4xx_ll_sdmmc.c ****   return errorstate;
 1225              		.loc 1 732 10
 1226 003c FB69     		ldr	r3, [r7, #28]
 733:Drivers/STM32L4xx_HAL_Driver/Src/stm32l4xx_ll_sdmmc.c **** }
 1227              		.loc 1 733 1
 1228 003e 1846     		mov	r0, r3
 1229 0040 2037     		adds	r7, r7, #32
 1230              		.cfi_def_cfa_offset 8
 1231 0042 BD46     		mov	sp, r7
 1232              		.cfi_def_cfa_register 13
 1233              		@ sp needed
 1234 0044 80BD     		pop	{r7, pc}
 1235              		.cfi_endproc
ARM GAS  C:\Users\Morroway\AppData\Local\Temp\cc18sEAf.s 			page 35


 1236              	.LFE342:
 1238              		.section	.text.SDMMC_CmdEraseEndAdd,"ax",%progbits
 1239              		.align	1
 1240              		.global	SDMMC_CmdEraseEndAdd
 1241              		.syntax unified
 1242              		.thumb
 1243              		.thumb_func
 1245              	SDMMC_CmdEraseEndAdd:
 1246              	.LFB343:
 734:Drivers/STM32L4xx_HAL_Driver/Src/stm32l4xx_ll_sdmmc.c **** 
 735:Drivers/STM32L4xx_HAL_Driver/Src/stm32l4xx_ll_sdmmc.c **** /**
 736:Drivers/STM32L4xx_HAL_Driver/Src/stm32l4xx_ll_sdmmc.c ****   * @brief  Send the End Address Erase command and check the response
 737:Drivers/STM32L4xx_HAL_Driver/Src/stm32l4xx_ll_sdmmc.c ****   * @param  SDMMCx Pointer to SDMMC register base
 738:Drivers/STM32L4xx_HAL_Driver/Src/stm32l4xx_ll_sdmmc.c ****   * @retval HAL status
 739:Drivers/STM32L4xx_HAL_Driver/Src/stm32l4xx_ll_sdmmc.c ****   */
 740:Drivers/STM32L4xx_HAL_Driver/Src/stm32l4xx_ll_sdmmc.c **** uint32_t SDMMC_CmdEraseEndAdd(SDMMC_TypeDef *SDMMCx, uint32_t EndAdd)
 741:Drivers/STM32L4xx_HAL_Driver/Src/stm32l4xx_ll_sdmmc.c **** {
 1247              		.loc 1 741 1
 1248              		.cfi_startproc
 1249              		@ args = 0, pretend = 0, frame = 32
 1250              		@ frame_needed = 1, uses_anonymous_args = 0
 1251 0000 80B5     		push	{r7, lr}
 1252              		.cfi_def_cfa_offset 8
 1253              		.cfi_offset 7, -8
 1254              		.cfi_offset 14, -4
 1255 0002 88B0     		sub	sp, sp, #32
 1256              		.cfi_def_cfa_offset 40
 1257 0004 00AF     		add	r7, sp, #0
 1258              		.cfi_def_cfa_register 7
 1259 0006 7860     		str	r0, [r7, #4]
 1260 0008 3960     		str	r1, [r7]
 742:Drivers/STM32L4xx_HAL_Driver/Src/stm32l4xx_ll_sdmmc.c ****   SDMMC_CmdInitTypeDef  sdmmc_cmdinit;
 743:Drivers/STM32L4xx_HAL_Driver/Src/stm32l4xx_ll_sdmmc.c ****   uint32_t errorstate;
 744:Drivers/STM32L4xx_HAL_Driver/Src/stm32l4xx_ll_sdmmc.c **** 
 745:Drivers/STM32L4xx_HAL_Driver/Src/stm32l4xx_ll_sdmmc.c ****   /* Set Block Size for Card */
 746:Drivers/STM32L4xx_HAL_Driver/Src/stm32l4xx_ll_sdmmc.c ****   sdmmc_cmdinit.Argument         = (uint32_t)EndAdd;
 1261              		.loc 1 746 34
 1262 000a 3B68     		ldr	r3, [r7]
 1263 000c BB60     		str	r3, [r7, #8]
 747:Drivers/STM32L4xx_HAL_Driver/Src/stm32l4xx_ll_sdmmc.c ****   sdmmc_cmdinit.CmdIndex         = SDMMC_CMD_ERASE_GRP_END;
 1264              		.loc 1 747 34
 1265 000e 2423     		movs	r3, #36
 1266 0010 FB60     		str	r3, [r7, #12]
 748:Drivers/STM32L4xx_HAL_Driver/Src/stm32l4xx_ll_sdmmc.c ****   sdmmc_cmdinit.Response         = SDMMC_RESPONSE_SHORT;
 1267              		.loc 1 748 34
 1268 0012 4FF48073 		mov	r3, #256
 1269 0016 3B61     		str	r3, [r7, #16]
 749:Drivers/STM32L4xx_HAL_Driver/Src/stm32l4xx_ll_sdmmc.c ****   sdmmc_cmdinit.WaitForInterrupt = SDMMC_WAIT_NO;
 1270              		.loc 1 749 34
 1271 0018 0023     		movs	r3, #0
 1272 001a 7B61     		str	r3, [r7, #20]
 750:Drivers/STM32L4xx_HAL_Driver/Src/stm32l4xx_ll_sdmmc.c ****   sdmmc_cmdinit.CPSM             = SDMMC_CPSM_ENABLE;
 1273              		.loc 1 750 34
 1274 001c 4FF48053 		mov	r3, #4096
 1275 0020 BB61     		str	r3, [r7, #24]
 751:Drivers/STM32L4xx_HAL_Driver/Src/stm32l4xx_ll_sdmmc.c ****   (void)SDMMC_SendCommand(SDMMCx, &sdmmc_cmdinit);
 1276              		.loc 1 751 9
ARM GAS  C:\Users\Morroway\AppData\Local\Temp\cc18sEAf.s 			page 36


 1277 0022 07F10803 		add	r3, r7, #8
 1278 0026 1946     		mov	r1, r3
 1279 0028 7868     		ldr	r0, [r7, #4]
 1280 002a FFF7FEFF 		bl	SDMMC_SendCommand
 752:Drivers/STM32L4xx_HAL_Driver/Src/stm32l4xx_ll_sdmmc.c **** 
 753:Drivers/STM32L4xx_HAL_Driver/Src/stm32l4xx_ll_sdmmc.c ****   /* Check for error conditions */
 754:Drivers/STM32L4xx_HAL_Driver/Src/stm32l4xx_ll_sdmmc.c ****   errorstate = SDMMC_GetCmdResp1(SDMMCx, SDMMC_CMD_ERASE_GRP_END, SDMMC_CMDTIMEOUT);
 1281              		.loc 1 754 16
 1282 002e 41F28832 		movw	r2, #5000
 1283 0032 2421     		movs	r1, #36
 1284 0034 7868     		ldr	r0, [r7, #4]
 1285 0036 FFF7FEFF 		bl	SDMMC_GetCmdResp1
 1286 003a F861     		str	r0, [r7, #28]
 755:Drivers/STM32L4xx_HAL_Driver/Src/stm32l4xx_ll_sdmmc.c **** 
 756:Drivers/STM32L4xx_HAL_Driver/Src/stm32l4xx_ll_sdmmc.c ****   return errorstate;
 1287              		.loc 1 756 10
 1288 003c FB69     		ldr	r3, [r7, #28]
 757:Drivers/STM32L4xx_HAL_Driver/Src/stm32l4xx_ll_sdmmc.c **** }
 1289              		.loc 1 757 1
 1290 003e 1846     		mov	r0, r3
 1291 0040 2037     		adds	r7, r7, #32
 1292              		.cfi_def_cfa_offset 8
 1293 0042 BD46     		mov	sp, r7
 1294              		.cfi_def_cfa_register 13
 1295              		@ sp needed
 1296 0044 80BD     		pop	{r7, pc}
 1297              		.cfi_endproc
 1298              	.LFE343:
 1300              		.section	.text.SDMMC_CmdErase,"ax",%progbits
 1301              		.align	1
 1302              		.global	SDMMC_CmdErase
 1303              		.syntax unified
 1304              		.thumb
 1305              		.thumb_func
 1307              	SDMMC_CmdErase:
 1308              	.LFB344:
 758:Drivers/STM32L4xx_HAL_Driver/Src/stm32l4xx_ll_sdmmc.c **** 
 759:Drivers/STM32L4xx_HAL_Driver/Src/stm32l4xx_ll_sdmmc.c **** /**
 760:Drivers/STM32L4xx_HAL_Driver/Src/stm32l4xx_ll_sdmmc.c ****   * @brief  Send the Erase command and check the response
 761:Drivers/STM32L4xx_HAL_Driver/Src/stm32l4xx_ll_sdmmc.c ****   * @param  SDMMCx Pointer to SDMMC register base
 762:Drivers/STM32L4xx_HAL_Driver/Src/stm32l4xx_ll_sdmmc.c ****   * @param  EraseType Type of erase to be performed
 763:Drivers/STM32L4xx_HAL_Driver/Src/stm32l4xx_ll_sdmmc.c ****   * @retval HAL status
 764:Drivers/STM32L4xx_HAL_Driver/Src/stm32l4xx_ll_sdmmc.c ****   */
 765:Drivers/STM32L4xx_HAL_Driver/Src/stm32l4xx_ll_sdmmc.c **** uint32_t SDMMC_CmdErase(SDMMC_TypeDef *SDMMCx, uint32_t EraseType)
 766:Drivers/STM32L4xx_HAL_Driver/Src/stm32l4xx_ll_sdmmc.c **** {
 1309              		.loc 1 766 1
 1310              		.cfi_startproc
 1311              		@ args = 0, pretend = 0, frame = 32
 1312              		@ frame_needed = 1, uses_anonymous_args = 0
 1313 0000 80B5     		push	{r7, lr}
 1314              		.cfi_def_cfa_offset 8
 1315              		.cfi_offset 7, -8
 1316              		.cfi_offset 14, -4
 1317 0002 88B0     		sub	sp, sp, #32
 1318              		.cfi_def_cfa_offset 40
 1319 0004 00AF     		add	r7, sp, #0
 1320              		.cfi_def_cfa_register 7
ARM GAS  C:\Users\Morroway\AppData\Local\Temp\cc18sEAf.s 			page 37


 1321 0006 7860     		str	r0, [r7, #4]
 1322 0008 3960     		str	r1, [r7]
 767:Drivers/STM32L4xx_HAL_Driver/Src/stm32l4xx_ll_sdmmc.c ****   SDMMC_CmdInitTypeDef  sdmmc_cmdinit;
 768:Drivers/STM32L4xx_HAL_Driver/Src/stm32l4xx_ll_sdmmc.c ****   uint32_t errorstate;
 769:Drivers/STM32L4xx_HAL_Driver/Src/stm32l4xx_ll_sdmmc.c **** 
 770:Drivers/STM32L4xx_HAL_Driver/Src/stm32l4xx_ll_sdmmc.c ****   /* Set Block Size for Card */
 771:Drivers/STM32L4xx_HAL_Driver/Src/stm32l4xx_ll_sdmmc.c ****   sdmmc_cmdinit.Argument         = EraseType;
 1323              		.loc 1 771 34
 1324 000a 3B68     		ldr	r3, [r7]
 1325 000c BB60     		str	r3, [r7, #8]
 772:Drivers/STM32L4xx_HAL_Driver/Src/stm32l4xx_ll_sdmmc.c ****   sdmmc_cmdinit.CmdIndex         = SDMMC_CMD_ERASE;
 1326              		.loc 1 772 34
 1327 000e 2623     		movs	r3, #38
 1328 0010 FB60     		str	r3, [r7, #12]
 773:Drivers/STM32L4xx_HAL_Driver/Src/stm32l4xx_ll_sdmmc.c ****   sdmmc_cmdinit.Response         = SDMMC_RESPONSE_SHORT;
 1329              		.loc 1 773 34
 1330 0012 4FF48073 		mov	r3, #256
 1331 0016 3B61     		str	r3, [r7, #16]
 774:Drivers/STM32L4xx_HAL_Driver/Src/stm32l4xx_ll_sdmmc.c ****   sdmmc_cmdinit.WaitForInterrupt = SDMMC_WAIT_NO;
 1332              		.loc 1 774 34
 1333 0018 0023     		movs	r3, #0
 1334 001a 7B61     		str	r3, [r7, #20]
 775:Drivers/STM32L4xx_HAL_Driver/Src/stm32l4xx_ll_sdmmc.c ****   sdmmc_cmdinit.CPSM             = SDMMC_CPSM_ENABLE;
 1335              		.loc 1 775 34
 1336 001c 4FF48053 		mov	r3, #4096
 1337 0020 BB61     		str	r3, [r7, #24]
 776:Drivers/STM32L4xx_HAL_Driver/Src/stm32l4xx_ll_sdmmc.c ****   (void)SDMMC_SendCommand(SDMMCx, &sdmmc_cmdinit);
 1338              		.loc 1 776 9
 1339 0022 07F10803 		add	r3, r7, #8
 1340 0026 1946     		mov	r1, r3
 1341 0028 7868     		ldr	r0, [r7, #4]
 1342 002a FFF7FEFF 		bl	SDMMC_SendCommand
 777:Drivers/STM32L4xx_HAL_Driver/Src/stm32l4xx_ll_sdmmc.c **** 
 778:Drivers/STM32L4xx_HAL_Driver/Src/stm32l4xx_ll_sdmmc.c ****   /* Check for error conditions */
 779:Drivers/STM32L4xx_HAL_Driver/Src/stm32l4xx_ll_sdmmc.c ****   errorstate = SDMMC_GetCmdResp1(SDMMCx, SDMMC_CMD_ERASE, SDMMC_MAXERASETIMEOUT);
 1343              		.loc 1 779 16
 1344 002e 4FF21862 		movw	r2, #63000
 1345 0032 2621     		movs	r1, #38
 1346 0034 7868     		ldr	r0, [r7, #4]
 1347 0036 FFF7FEFF 		bl	SDMMC_GetCmdResp1
 1348 003a F861     		str	r0, [r7, #28]
 780:Drivers/STM32L4xx_HAL_Driver/Src/stm32l4xx_ll_sdmmc.c **** 
 781:Drivers/STM32L4xx_HAL_Driver/Src/stm32l4xx_ll_sdmmc.c ****   return errorstate;
 1349              		.loc 1 781 10
 1350 003c FB69     		ldr	r3, [r7, #28]
 782:Drivers/STM32L4xx_HAL_Driver/Src/stm32l4xx_ll_sdmmc.c **** }
 1351              		.loc 1 782 1
 1352 003e 1846     		mov	r0, r3
 1353 0040 2037     		adds	r7, r7, #32
 1354              		.cfi_def_cfa_offset 8
 1355 0042 BD46     		mov	sp, r7
 1356              		.cfi_def_cfa_register 13
 1357              		@ sp needed
 1358 0044 80BD     		pop	{r7, pc}
 1359              		.cfi_endproc
 1360              	.LFE344:
 1362              		.section	.text.SDMMC_CmdStopTransfer,"ax",%progbits
ARM GAS  C:\Users\Morroway\AppData\Local\Temp\cc18sEAf.s 			page 38


 1363              		.align	1
 1364              		.global	SDMMC_CmdStopTransfer
 1365              		.syntax unified
 1366              		.thumb
 1367              		.thumb_func
 1369              	SDMMC_CmdStopTransfer:
 1370              	.LFB345:
 783:Drivers/STM32L4xx_HAL_Driver/Src/stm32l4xx_ll_sdmmc.c **** 
 784:Drivers/STM32L4xx_HAL_Driver/Src/stm32l4xx_ll_sdmmc.c **** /**
 785:Drivers/STM32L4xx_HAL_Driver/Src/stm32l4xx_ll_sdmmc.c ****   * @brief  Send the Stop Transfer command and check the response.
 786:Drivers/STM32L4xx_HAL_Driver/Src/stm32l4xx_ll_sdmmc.c ****   * @param  SDMMCx Pointer to SDMMC register base
 787:Drivers/STM32L4xx_HAL_Driver/Src/stm32l4xx_ll_sdmmc.c ****   * @retval HAL status
 788:Drivers/STM32L4xx_HAL_Driver/Src/stm32l4xx_ll_sdmmc.c ****   */
 789:Drivers/STM32L4xx_HAL_Driver/Src/stm32l4xx_ll_sdmmc.c **** uint32_t SDMMC_CmdStopTransfer(SDMMC_TypeDef *SDMMCx)
 790:Drivers/STM32L4xx_HAL_Driver/Src/stm32l4xx_ll_sdmmc.c **** {
 1371              		.loc 1 790 1
 1372              		.cfi_startproc
 1373              		@ args = 0, pretend = 0, frame = 32
 1374              		@ frame_needed = 1, uses_anonymous_args = 0
 1375 0000 80B5     		push	{r7, lr}
 1376              		.cfi_def_cfa_offset 8
 1377              		.cfi_offset 7, -8
 1378              		.cfi_offset 14, -4
 1379 0002 88B0     		sub	sp, sp, #32
 1380              		.cfi_def_cfa_offset 40
 1381 0004 00AF     		add	r7, sp, #0
 1382              		.cfi_def_cfa_register 7
 1383 0006 7860     		str	r0, [r7, #4]
 791:Drivers/STM32L4xx_HAL_Driver/Src/stm32l4xx_ll_sdmmc.c ****   SDMMC_CmdInitTypeDef  sdmmc_cmdinit;
 792:Drivers/STM32L4xx_HAL_Driver/Src/stm32l4xx_ll_sdmmc.c ****   uint32_t errorstate;
 793:Drivers/STM32L4xx_HAL_Driver/Src/stm32l4xx_ll_sdmmc.c **** 
 794:Drivers/STM32L4xx_HAL_Driver/Src/stm32l4xx_ll_sdmmc.c ****   /* Send CMD12 STOP_TRANSMISSION  */
 795:Drivers/STM32L4xx_HAL_Driver/Src/stm32l4xx_ll_sdmmc.c ****   sdmmc_cmdinit.Argument         = 0U;
 1384              		.loc 1 795 34
 1385 0008 0023     		movs	r3, #0
 1386 000a BB60     		str	r3, [r7, #8]
 796:Drivers/STM32L4xx_HAL_Driver/Src/stm32l4xx_ll_sdmmc.c ****   sdmmc_cmdinit.CmdIndex         = SDMMC_CMD_STOP_TRANSMISSION;
 1387              		.loc 1 796 34
 1388 000c 0C23     		movs	r3, #12
 1389 000e FB60     		str	r3, [r7, #12]
 797:Drivers/STM32L4xx_HAL_Driver/Src/stm32l4xx_ll_sdmmc.c ****   sdmmc_cmdinit.Response         = SDMMC_RESPONSE_SHORT;
 1390              		.loc 1 797 34
 1391 0010 4FF48073 		mov	r3, #256
 1392 0014 3B61     		str	r3, [r7, #16]
 798:Drivers/STM32L4xx_HAL_Driver/Src/stm32l4xx_ll_sdmmc.c ****   sdmmc_cmdinit.WaitForInterrupt = SDMMC_WAIT_NO;
 1393              		.loc 1 798 34
 1394 0016 0023     		movs	r3, #0
 1395 0018 7B61     		str	r3, [r7, #20]
 799:Drivers/STM32L4xx_HAL_Driver/Src/stm32l4xx_ll_sdmmc.c ****   sdmmc_cmdinit.CPSM             = SDMMC_CPSM_ENABLE;
 1396              		.loc 1 799 34
 1397 001a 4FF48053 		mov	r3, #4096
 1398 001e BB61     		str	r3, [r7, #24]
 800:Drivers/STM32L4xx_HAL_Driver/Src/stm32l4xx_ll_sdmmc.c **** 
 801:Drivers/STM32L4xx_HAL_Driver/Src/stm32l4xx_ll_sdmmc.c **** #if defined(STM32L4P5xx) || defined(STM32L4Q5xx) || defined(STM32L4R5xx) || defined(STM32L4R7xx) ||
 802:Drivers/STM32L4xx_HAL_Driver/Src/stm32l4xx_ll_sdmmc.c ****   __SDMMC_CMDSTOP_ENABLE(SDMMCx);
 1399              		.loc 1 802 3
 1400 0020 7B68     		ldr	r3, [r7, #4]
ARM GAS  C:\Users\Morroway\AppData\Local\Temp\cc18sEAf.s 			page 39


 1401 0022 DB68     		ldr	r3, [r3, #12]
 1402 0024 43F08002 		orr	r2, r3, #128
 1403 0028 7B68     		ldr	r3, [r7, #4]
 1404 002a DA60     		str	r2, [r3, #12]
 803:Drivers/STM32L4xx_HAL_Driver/Src/stm32l4xx_ll_sdmmc.c ****   __SDMMC_CMDTRANS_DISABLE(SDMMCx);
 1405              		.loc 1 803 3
 1406 002c 7B68     		ldr	r3, [r7, #4]
 1407 002e DB68     		ldr	r3, [r3, #12]
 1408 0030 23F04002 		bic	r2, r3, #64
 1409 0034 7B68     		ldr	r3, [r7, #4]
 1410 0036 DA60     		str	r2, [r3, #12]
 804:Drivers/STM32L4xx_HAL_Driver/Src/stm32l4xx_ll_sdmmc.c **** #endif /* STM32L4P5xx || STM32L4Q5xx || STM32L4R5xx || STM32L4R7xx || STM32L4R9xx || STM32L4S5xx ||
 805:Drivers/STM32L4xx_HAL_Driver/Src/stm32l4xx_ll_sdmmc.c **** 
 806:Drivers/STM32L4xx_HAL_Driver/Src/stm32l4xx_ll_sdmmc.c ****   (void)SDMMC_SendCommand(SDMMCx, &sdmmc_cmdinit);
 1411              		.loc 1 806 9
 1412 0038 07F10803 		add	r3, r7, #8
 1413 003c 1946     		mov	r1, r3
 1414 003e 7868     		ldr	r0, [r7, #4]
 1415 0040 FFF7FEFF 		bl	SDMMC_SendCommand
 807:Drivers/STM32L4xx_HAL_Driver/Src/stm32l4xx_ll_sdmmc.c **** 
 808:Drivers/STM32L4xx_HAL_Driver/Src/stm32l4xx_ll_sdmmc.c ****   /* Check for error conditions */
 809:Drivers/STM32L4xx_HAL_Driver/Src/stm32l4xx_ll_sdmmc.c ****   errorstate = SDMMC_GetCmdResp1(SDMMCx, SDMMC_CMD_STOP_TRANSMISSION, SDMMC_STOPTRANSFERTIMEOUT);
 1416              		.loc 1 809 16
 1417 0044 084A     		ldr	r2, .L55
 1418 0046 0C21     		movs	r1, #12
 1419 0048 7868     		ldr	r0, [r7, #4]
 1420 004a FFF7FEFF 		bl	SDMMC_GetCmdResp1
 1421 004e F861     		str	r0, [r7, #28]
 810:Drivers/STM32L4xx_HAL_Driver/Src/stm32l4xx_ll_sdmmc.c **** 
 811:Drivers/STM32L4xx_HAL_Driver/Src/stm32l4xx_ll_sdmmc.c **** #if defined(STM32L4P5xx) || defined(STM32L4Q5xx) || defined(STM32L4R5xx) || defined(STM32L4R7xx) ||
 812:Drivers/STM32L4xx_HAL_Driver/Src/stm32l4xx_ll_sdmmc.c ****   __SDMMC_CMDSTOP_DISABLE(SDMMCx);
 1422              		.loc 1 812 3
 1423 0050 7B68     		ldr	r3, [r7, #4]
 1424 0052 DB68     		ldr	r3, [r3, #12]
 1425 0054 23F08002 		bic	r2, r3, #128
 1426 0058 7B68     		ldr	r3, [r7, #4]
 1427 005a DA60     		str	r2, [r3, #12]
 813:Drivers/STM32L4xx_HAL_Driver/Src/stm32l4xx_ll_sdmmc.c **** #endif /* STM32L4P5xx || STM32L4Q5xx || STM32L4R5xx || STM32L4R7xx || STM32L4R9xx || STM32L4S5xx ||
 814:Drivers/STM32L4xx_HAL_Driver/Src/stm32l4xx_ll_sdmmc.c **** 
 815:Drivers/STM32L4xx_HAL_Driver/Src/stm32l4xx_ll_sdmmc.c ****   return errorstate;
 1428              		.loc 1 815 10
 1429 005c FB69     		ldr	r3, [r7, #28]
 816:Drivers/STM32L4xx_HAL_Driver/Src/stm32l4xx_ll_sdmmc.c **** }
 1430              		.loc 1 816 1
 1431 005e 1846     		mov	r0, r3
 1432 0060 2037     		adds	r7, r7, #32
 1433              		.cfi_def_cfa_offset 8
 1434 0062 BD46     		mov	sp, r7
 1435              		.cfi_def_cfa_register 13
 1436              		@ sp needed
 1437 0064 80BD     		pop	{r7, pc}
 1438              	.L56:
 1439 0066 00BF     		.align	2
 1440              	.L55:
 1441 0068 00E1F505 		.word	100000000
 1442              		.cfi_endproc
 1443              	.LFE345:
ARM GAS  C:\Users\Morroway\AppData\Local\Temp\cc18sEAf.s 			page 40


 1445              		.section	.text.SDMMC_CmdSelDesel,"ax",%progbits
 1446              		.align	1
 1447              		.global	SDMMC_CmdSelDesel
 1448              		.syntax unified
 1449              		.thumb
 1450              		.thumb_func
 1452              	SDMMC_CmdSelDesel:
 1453              	.LFB346:
 817:Drivers/STM32L4xx_HAL_Driver/Src/stm32l4xx_ll_sdmmc.c **** 
 818:Drivers/STM32L4xx_HAL_Driver/Src/stm32l4xx_ll_sdmmc.c **** /**
 819:Drivers/STM32L4xx_HAL_Driver/Src/stm32l4xx_ll_sdmmc.c ****   * @brief  Send the Select Deselect command and check the response.
 820:Drivers/STM32L4xx_HAL_Driver/Src/stm32l4xx_ll_sdmmc.c ****   * @param  SDMMCx Pointer to SDMMC register base
 821:Drivers/STM32L4xx_HAL_Driver/Src/stm32l4xx_ll_sdmmc.c ****   * @param  addr Address of the card to be selected
 822:Drivers/STM32L4xx_HAL_Driver/Src/stm32l4xx_ll_sdmmc.c ****   * @retval HAL status
 823:Drivers/STM32L4xx_HAL_Driver/Src/stm32l4xx_ll_sdmmc.c ****   */
 824:Drivers/STM32L4xx_HAL_Driver/Src/stm32l4xx_ll_sdmmc.c **** uint32_t SDMMC_CmdSelDesel(SDMMC_TypeDef *SDMMCx, uint64_t Addr)
 825:Drivers/STM32L4xx_HAL_Driver/Src/stm32l4xx_ll_sdmmc.c **** {
 1454              		.loc 1 825 1
 1455              		.cfi_startproc
 1456              		@ args = 0, pretend = 0, frame = 40
 1457              		@ frame_needed = 1, uses_anonymous_args = 0
 1458 0000 80B5     		push	{r7, lr}
 1459              		.cfi_def_cfa_offset 8
 1460              		.cfi_offset 7, -8
 1461              		.cfi_offset 14, -4
 1462 0002 8AB0     		sub	sp, sp, #40
 1463              		.cfi_def_cfa_offset 48
 1464 0004 00AF     		add	r7, sp, #0
 1465              		.cfi_def_cfa_register 7
 1466 0006 F860     		str	r0, [r7, #12]
 1467 0008 C7E90023 		strd	r2, [r7]
 826:Drivers/STM32L4xx_HAL_Driver/Src/stm32l4xx_ll_sdmmc.c ****   SDMMC_CmdInitTypeDef  sdmmc_cmdinit;
 827:Drivers/STM32L4xx_HAL_Driver/Src/stm32l4xx_ll_sdmmc.c ****   uint32_t errorstate;
 828:Drivers/STM32L4xx_HAL_Driver/Src/stm32l4xx_ll_sdmmc.c **** 
 829:Drivers/STM32L4xx_HAL_Driver/Src/stm32l4xx_ll_sdmmc.c ****   /* Send CMD7 SDMMC_SEL_DESEL_CARD */
 830:Drivers/STM32L4xx_HAL_Driver/Src/stm32l4xx_ll_sdmmc.c ****   sdmmc_cmdinit.Argument         = (uint32_t)Addr;
 1468              		.loc 1 830 36
 1469 000c 3B68     		ldr	r3, [r7]
 1470              		.loc 1 830 34
 1471 000e 3B61     		str	r3, [r7, #16]
 831:Drivers/STM32L4xx_HAL_Driver/Src/stm32l4xx_ll_sdmmc.c ****   sdmmc_cmdinit.CmdIndex         = SDMMC_CMD_SEL_DESEL_CARD;
 1472              		.loc 1 831 34
 1473 0010 0723     		movs	r3, #7
 1474 0012 7B61     		str	r3, [r7, #20]
 832:Drivers/STM32L4xx_HAL_Driver/Src/stm32l4xx_ll_sdmmc.c ****   sdmmc_cmdinit.Response         = SDMMC_RESPONSE_SHORT;
 1475              		.loc 1 832 34
 1476 0014 4FF48073 		mov	r3, #256
 1477 0018 BB61     		str	r3, [r7, #24]
 833:Drivers/STM32L4xx_HAL_Driver/Src/stm32l4xx_ll_sdmmc.c ****   sdmmc_cmdinit.WaitForInterrupt = SDMMC_WAIT_NO;
 1478              		.loc 1 833 34
 1479 001a 0023     		movs	r3, #0
 1480 001c FB61     		str	r3, [r7, #28]
 834:Drivers/STM32L4xx_HAL_Driver/Src/stm32l4xx_ll_sdmmc.c ****   sdmmc_cmdinit.CPSM             = SDMMC_CPSM_ENABLE;
 1481              		.loc 1 834 34
 1482 001e 4FF48053 		mov	r3, #4096
 1483 0022 3B62     		str	r3, [r7, #32]
 835:Drivers/STM32L4xx_HAL_Driver/Src/stm32l4xx_ll_sdmmc.c ****   (void)SDMMC_SendCommand(SDMMCx, &sdmmc_cmdinit);
ARM GAS  C:\Users\Morroway\AppData\Local\Temp\cc18sEAf.s 			page 41


 1484              		.loc 1 835 9
 1485 0024 07F11003 		add	r3, r7, #16
 1486 0028 1946     		mov	r1, r3
 1487 002a F868     		ldr	r0, [r7, #12]
 1488 002c FFF7FEFF 		bl	SDMMC_SendCommand
 836:Drivers/STM32L4xx_HAL_Driver/Src/stm32l4xx_ll_sdmmc.c **** 
 837:Drivers/STM32L4xx_HAL_Driver/Src/stm32l4xx_ll_sdmmc.c ****   /* Check for error conditions */
 838:Drivers/STM32L4xx_HAL_Driver/Src/stm32l4xx_ll_sdmmc.c ****   errorstate = SDMMC_GetCmdResp1(SDMMCx, SDMMC_CMD_SEL_DESEL_CARD, SDMMC_CMDTIMEOUT);
 1489              		.loc 1 838 16
 1490 0030 41F28832 		movw	r2, #5000
 1491 0034 0721     		movs	r1, #7
 1492 0036 F868     		ldr	r0, [r7, #12]
 1493 0038 FFF7FEFF 		bl	SDMMC_GetCmdResp1
 1494 003c 7862     		str	r0, [r7, #36]
 839:Drivers/STM32L4xx_HAL_Driver/Src/stm32l4xx_ll_sdmmc.c **** 
 840:Drivers/STM32L4xx_HAL_Driver/Src/stm32l4xx_ll_sdmmc.c ****   return errorstate;
 1495              		.loc 1 840 10
 1496 003e 7B6A     		ldr	r3, [r7, #36]
 841:Drivers/STM32L4xx_HAL_Driver/Src/stm32l4xx_ll_sdmmc.c **** }
 1497              		.loc 1 841 1
 1498 0040 1846     		mov	r0, r3
 1499 0042 2837     		adds	r7, r7, #40
 1500              		.cfi_def_cfa_offset 8
 1501 0044 BD46     		mov	sp, r7
 1502              		.cfi_def_cfa_register 13
 1503              		@ sp needed
 1504 0046 80BD     		pop	{r7, pc}
 1505              		.cfi_endproc
 1506              	.LFE346:
 1508              		.section	.text.SDMMC_CmdGoIdleState,"ax",%progbits
 1509              		.align	1
 1510              		.global	SDMMC_CmdGoIdleState
 1511              		.syntax unified
 1512              		.thumb
 1513              		.thumb_func
 1515              	SDMMC_CmdGoIdleState:
 1516              	.LFB347:
 842:Drivers/STM32L4xx_HAL_Driver/Src/stm32l4xx_ll_sdmmc.c **** 
 843:Drivers/STM32L4xx_HAL_Driver/Src/stm32l4xx_ll_sdmmc.c **** /**
 844:Drivers/STM32L4xx_HAL_Driver/Src/stm32l4xx_ll_sdmmc.c ****   * @brief  Send the Go Idle State command and check the response.
 845:Drivers/STM32L4xx_HAL_Driver/Src/stm32l4xx_ll_sdmmc.c ****   * @param  SDMMCx Pointer to SDMMC register base
 846:Drivers/STM32L4xx_HAL_Driver/Src/stm32l4xx_ll_sdmmc.c ****   * @retval HAL status
 847:Drivers/STM32L4xx_HAL_Driver/Src/stm32l4xx_ll_sdmmc.c ****   */
 848:Drivers/STM32L4xx_HAL_Driver/Src/stm32l4xx_ll_sdmmc.c **** uint32_t SDMMC_CmdGoIdleState(SDMMC_TypeDef *SDMMCx)
 849:Drivers/STM32L4xx_HAL_Driver/Src/stm32l4xx_ll_sdmmc.c **** {
 1517              		.loc 1 849 1
 1518              		.cfi_startproc
 1519              		@ args = 0, pretend = 0, frame = 32
 1520              		@ frame_needed = 1, uses_anonymous_args = 0
 1521 0000 80B5     		push	{r7, lr}
 1522              		.cfi_def_cfa_offset 8
 1523              		.cfi_offset 7, -8
 1524              		.cfi_offset 14, -4
 1525 0002 88B0     		sub	sp, sp, #32
 1526              		.cfi_def_cfa_offset 40
 1527 0004 00AF     		add	r7, sp, #0
 1528              		.cfi_def_cfa_register 7
ARM GAS  C:\Users\Morroway\AppData\Local\Temp\cc18sEAf.s 			page 42


 1529 0006 7860     		str	r0, [r7, #4]
 850:Drivers/STM32L4xx_HAL_Driver/Src/stm32l4xx_ll_sdmmc.c ****   SDMMC_CmdInitTypeDef  sdmmc_cmdinit;
 851:Drivers/STM32L4xx_HAL_Driver/Src/stm32l4xx_ll_sdmmc.c ****   uint32_t errorstate;
 852:Drivers/STM32L4xx_HAL_Driver/Src/stm32l4xx_ll_sdmmc.c **** 
 853:Drivers/STM32L4xx_HAL_Driver/Src/stm32l4xx_ll_sdmmc.c ****   sdmmc_cmdinit.Argument         = 0U;
 1530              		.loc 1 853 34
 1531 0008 0023     		movs	r3, #0
 1532 000a BB60     		str	r3, [r7, #8]
 854:Drivers/STM32L4xx_HAL_Driver/Src/stm32l4xx_ll_sdmmc.c ****   sdmmc_cmdinit.CmdIndex         = SDMMC_CMD_GO_IDLE_STATE;
 1533              		.loc 1 854 34
 1534 000c 0023     		movs	r3, #0
 1535 000e FB60     		str	r3, [r7, #12]
 855:Drivers/STM32L4xx_HAL_Driver/Src/stm32l4xx_ll_sdmmc.c ****   sdmmc_cmdinit.Response         = SDMMC_RESPONSE_NO;
 1536              		.loc 1 855 34
 1537 0010 0023     		movs	r3, #0
 1538 0012 3B61     		str	r3, [r7, #16]
 856:Drivers/STM32L4xx_HAL_Driver/Src/stm32l4xx_ll_sdmmc.c ****   sdmmc_cmdinit.WaitForInterrupt = SDMMC_WAIT_NO;
 1539              		.loc 1 856 34
 1540 0014 0023     		movs	r3, #0
 1541 0016 7B61     		str	r3, [r7, #20]
 857:Drivers/STM32L4xx_HAL_Driver/Src/stm32l4xx_ll_sdmmc.c ****   sdmmc_cmdinit.CPSM             = SDMMC_CPSM_ENABLE;
 1542              		.loc 1 857 34
 1543 0018 4FF48053 		mov	r3, #4096
 1544 001c BB61     		str	r3, [r7, #24]
 858:Drivers/STM32L4xx_HAL_Driver/Src/stm32l4xx_ll_sdmmc.c ****   (void)SDMMC_SendCommand(SDMMCx, &sdmmc_cmdinit);
 1545              		.loc 1 858 9
 1546 001e 07F10803 		add	r3, r7, #8
 1547 0022 1946     		mov	r1, r3
 1548 0024 7868     		ldr	r0, [r7, #4]
 1549 0026 FFF7FEFF 		bl	SDMMC_SendCommand
 859:Drivers/STM32L4xx_HAL_Driver/Src/stm32l4xx_ll_sdmmc.c **** 
 860:Drivers/STM32L4xx_HAL_Driver/Src/stm32l4xx_ll_sdmmc.c ****   /* Check for error conditions */
 861:Drivers/STM32L4xx_HAL_Driver/Src/stm32l4xx_ll_sdmmc.c ****   errorstate = SDMMC_GetCmdError(SDMMCx);
 1550              		.loc 1 861 16
 1551 002a 7868     		ldr	r0, [r7, #4]
 1552 002c FFF7FEFF 		bl	SDMMC_GetCmdError
 1553 0030 F861     		str	r0, [r7, #28]
 862:Drivers/STM32L4xx_HAL_Driver/Src/stm32l4xx_ll_sdmmc.c **** 
 863:Drivers/STM32L4xx_HAL_Driver/Src/stm32l4xx_ll_sdmmc.c ****   return errorstate;
 1554              		.loc 1 863 10
 1555 0032 FB69     		ldr	r3, [r7, #28]
 864:Drivers/STM32L4xx_HAL_Driver/Src/stm32l4xx_ll_sdmmc.c **** }
 1556              		.loc 1 864 1
 1557 0034 1846     		mov	r0, r3
 1558 0036 2037     		adds	r7, r7, #32
 1559              		.cfi_def_cfa_offset 8
 1560 0038 BD46     		mov	sp, r7
 1561              		.cfi_def_cfa_register 13
 1562              		@ sp needed
 1563 003a 80BD     		pop	{r7, pc}
 1564              		.cfi_endproc
 1565              	.LFE347:
 1567              		.section	.text.SDMMC_CmdOperCond,"ax",%progbits
 1568              		.align	1
 1569              		.global	SDMMC_CmdOperCond
 1570              		.syntax unified
 1571              		.thumb
ARM GAS  C:\Users\Morroway\AppData\Local\Temp\cc18sEAf.s 			page 43


 1572              		.thumb_func
 1574              	SDMMC_CmdOperCond:
 1575              	.LFB348:
 865:Drivers/STM32L4xx_HAL_Driver/Src/stm32l4xx_ll_sdmmc.c **** 
 866:Drivers/STM32L4xx_HAL_Driver/Src/stm32l4xx_ll_sdmmc.c **** /**
 867:Drivers/STM32L4xx_HAL_Driver/Src/stm32l4xx_ll_sdmmc.c ****   * @brief  Send the Operating Condition command and check the response.
 868:Drivers/STM32L4xx_HAL_Driver/Src/stm32l4xx_ll_sdmmc.c ****   * @param  SDMMCx Pointer to SDMMC register base
 869:Drivers/STM32L4xx_HAL_Driver/Src/stm32l4xx_ll_sdmmc.c ****   * @retval HAL status
 870:Drivers/STM32L4xx_HAL_Driver/Src/stm32l4xx_ll_sdmmc.c ****   */
 871:Drivers/STM32L4xx_HAL_Driver/Src/stm32l4xx_ll_sdmmc.c **** uint32_t SDMMC_CmdOperCond(SDMMC_TypeDef *SDMMCx)
 872:Drivers/STM32L4xx_HAL_Driver/Src/stm32l4xx_ll_sdmmc.c **** {
 1576              		.loc 1 872 1
 1577              		.cfi_startproc
 1578              		@ args = 0, pretend = 0, frame = 32
 1579              		@ frame_needed = 1, uses_anonymous_args = 0
 1580 0000 80B5     		push	{r7, lr}
 1581              		.cfi_def_cfa_offset 8
 1582              		.cfi_offset 7, -8
 1583              		.cfi_offset 14, -4
 1584 0002 88B0     		sub	sp, sp, #32
 1585              		.cfi_def_cfa_offset 40
 1586 0004 00AF     		add	r7, sp, #0
 1587              		.cfi_def_cfa_register 7
 1588 0006 7860     		str	r0, [r7, #4]
 873:Drivers/STM32L4xx_HAL_Driver/Src/stm32l4xx_ll_sdmmc.c ****   SDMMC_CmdInitTypeDef  sdmmc_cmdinit;
 874:Drivers/STM32L4xx_HAL_Driver/Src/stm32l4xx_ll_sdmmc.c ****   uint32_t errorstate;
 875:Drivers/STM32L4xx_HAL_Driver/Src/stm32l4xx_ll_sdmmc.c **** 
 876:Drivers/STM32L4xx_HAL_Driver/Src/stm32l4xx_ll_sdmmc.c ****   /* Send CMD8 to verify SD card interface operating condition */
 877:Drivers/STM32L4xx_HAL_Driver/Src/stm32l4xx_ll_sdmmc.c ****   /* Argument: - [31:12]: Reserved (shall be set to '0')
 878:Drivers/STM32L4xx_HAL_Driver/Src/stm32l4xx_ll_sdmmc.c ****   - [11:8]: Supply Voltage (VHS) 0x1 (Range: 2.7-3.6 V)
 879:Drivers/STM32L4xx_HAL_Driver/Src/stm32l4xx_ll_sdmmc.c ****   - [7:0]: Check Pattern (recommended 0xAA) */
 880:Drivers/STM32L4xx_HAL_Driver/Src/stm32l4xx_ll_sdmmc.c ****   /* CMD Response: R7 */
 881:Drivers/STM32L4xx_HAL_Driver/Src/stm32l4xx_ll_sdmmc.c ****   sdmmc_cmdinit.Argument         = SDMMC_CHECK_PATTERN;
 1589              		.loc 1 881 34
 1590 0008 4FF4D573 		mov	r3, #426
 1591 000c BB60     		str	r3, [r7, #8]
 882:Drivers/STM32L4xx_HAL_Driver/Src/stm32l4xx_ll_sdmmc.c ****   sdmmc_cmdinit.CmdIndex         = SDMMC_CMD_HS_SEND_EXT_CSD;
 1592              		.loc 1 882 34
 1593 000e 0823     		movs	r3, #8
 1594 0010 FB60     		str	r3, [r7, #12]
 883:Drivers/STM32L4xx_HAL_Driver/Src/stm32l4xx_ll_sdmmc.c ****   sdmmc_cmdinit.Response         = SDMMC_RESPONSE_SHORT;
 1595              		.loc 1 883 34
 1596 0012 4FF48073 		mov	r3, #256
 1597 0016 3B61     		str	r3, [r7, #16]
 884:Drivers/STM32L4xx_HAL_Driver/Src/stm32l4xx_ll_sdmmc.c ****   sdmmc_cmdinit.WaitForInterrupt = SDMMC_WAIT_NO;
 1598              		.loc 1 884 34
 1599 0018 0023     		movs	r3, #0
 1600 001a 7B61     		str	r3, [r7, #20]
 885:Drivers/STM32L4xx_HAL_Driver/Src/stm32l4xx_ll_sdmmc.c ****   sdmmc_cmdinit.CPSM             = SDMMC_CPSM_ENABLE;
 1601              		.loc 1 885 34
 1602 001c 4FF48053 		mov	r3, #4096
 1603 0020 BB61     		str	r3, [r7, #24]
 886:Drivers/STM32L4xx_HAL_Driver/Src/stm32l4xx_ll_sdmmc.c ****   (void)SDMMC_SendCommand(SDMMCx, &sdmmc_cmdinit);
 1604              		.loc 1 886 9
 1605 0022 07F10803 		add	r3, r7, #8
 1606 0026 1946     		mov	r1, r3
 1607 0028 7868     		ldr	r0, [r7, #4]
ARM GAS  C:\Users\Morroway\AppData\Local\Temp\cc18sEAf.s 			page 44


 1608 002a FFF7FEFF 		bl	SDMMC_SendCommand
 887:Drivers/STM32L4xx_HAL_Driver/Src/stm32l4xx_ll_sdmmc.c **** 
 888:Drivers/STM32L4xx_HAL_Driver/Src/stm32l4xx_ll_sdmmc.c ****   /* Check for error conditions */
 889:Drivers/STM32L4xx_HAL_Driver/Src/stm32l4xx_ll_sdmmc.c ****   errorstate = SDMMC_GetCmdResp7(SDMMCx);
 1609              		.loc 1 889 16
 1610 002e 7868     		ldr	r0, [r7, #4]
 1611 0030 FFF7FEFF 		bl	SDMMC_GetCmdResp7
 1612 0034 F861     		str	r0, [r7, #28]
 890:Drivers/STM32L4xx_HAL_Driver/Src/stm32l4xx_ll_sdmmc.c **** 
 891:Drivers/STM32L4xx_HAL_Driver/Src/stm32l4xx_ll_sdmmc.c ****   return errorstate;
 1613              		.loc 1 891 10
 1614 0036 FB69     		ldr	r3, [r7, #28]
 892:Drivers/STM32L4xx_HAL_Driver/Src/stm32l4xx_ll_sdmmc.c **** }
 1615              		.loc 1 892 1
 1616 0038 1846     		mov	r0, r3
 1617 003a 2037     		adds	r7, r7, #32
 1618              		.cfi_def_cfa_offset 8
 1619 003c BD46     		mov	sp, r7
 1620              		.cfi_def_cfa_register 13
 1621              		@ sp needed
 1622 003e 80BD     		pop	{r7, pc}
 1623              		.cfi_endproc
 1624              	.LFE348:
 1626              		.section	.text.SDMMC_CmdAppCommand,"ax",%progbits
 1627              		.align	1
 1628              		.global	SDMMC_CmdAppCommand
 1629              		.syntax unified
 1630              		.thumb
 1631              		.thumb_func
 1633              	SDMMC_CmdAppCommand:
 1634              	.LFB349:
 893:Drivers/STM32L4xx_HAL_Driver/Src/stm32l4xx_ll_sdmmc.c **** 
 894:Drivers/STM32L4xx_HAL_Driver/Src/stm32l4xx_ll_sdmmc.c **** /**
 895:Drivers/STM32L4xx_HAL_Driver/Src/stm32l4xx_ll_sdmmc.c ****   * @brief  Send the Application command to verify that that the next command
 896:Drivers/STM32L4xx_HAL_Driver/Src/stm32l4xx_ll_sdmmc.c ****   *         is an application specific com-mand rather than a standard command
 897:Drivers/STM32L4xx_HAL_Driver/Src/stm32l4xx_ll_sdmmc.c ****   *         and check the response.
 898:Drivers/STM32L4xx_HAL_Driver/Src/stm32l4xx_ll_sdmmc.c ****   * @param  SDMMCx Pointer to SDMMC register base
 899:Drivers/STM32L4xx_HAL_Driver/Src/stm32l4xx_ll_sdmmc.c ****   * @param  Argument Command Argument
 900:Drivers/STM32L4xx_HAL_Driver/Src/stm32l4xx_ll_sdmmc.c ****   * @retval HAL status
 901:Drivers/STM32L4xx_HAL_Driver/Src/stm32l4xx_ll_sdmmc.c ****   */
 902:Drivers/STM32L4xx_HAL_Driver/Src/stm32l4xx_ll_sdmmc.c **** uint32_t SDMMC_CmdAppCommand(SDMMC_TypeDef *SDMMCx, uint32_t Argument)
 903:Drivers/STM32L4xx_HAL_Driver/Src/stm32l4xx_ll_sdmmc.c **** {
 1635              		.loc 1 903 1
 1636              		.cfi_startproc
 1637              		@ args = 0, pretend = 0, frame = 32
 1638              		@ frame_needed = 1, uses_anonymous_args = 0
 1639 0000 80B5     		push	{r7, lr}
 1640              		.cfi_def_cfa_offset 8
 1641              		.cfi_offset 7, -8
 1642              		.cfi_offset 14, -4
 1643 0002 88B0     		sub	sp, sp, #32
 1644              		.cfi_def_cfa_offset 40
 1645 0004 00AF     		add	r7, sp, #0
 1646              		.cfi_def_cfa_register 7
 1647 0006 7860     		str	r0, [r7, #4]
 1648 0008 3960     		str	r1, [r7]
 904:Drivers/STM32L4xx_HAL_Driver/Src/stm32l4xx_ll_sdmmc.c ****   SDMMC_CmdInitTypeDef  sdmmc_cmdinit;
ARM GAS  C:\Users\Morroway\AppData\Local\Temp\cc18sEAf.s 			page 45


 905:Drivers/STM32L4xx_HAL_Driver/Src/stm32l4xx_ll_sdmmc.c ****   uint32_t errorstate;
 906:Drivers/STM32L4xx_HAL_Driver/Src/stm32l4xx_ll_sdmmc.c **** 
 907:Drivers/STM32L4xx_HAL_Driver/Src/stm32l4xx_ll_sdmmc.c ****   sdmmc_cmdinit.Argument         = (uint32_t)Argument;
 1649              		.loc 1 907 34
 1650 000a 3B68     		ldr	r3, [r7]
 1651 000c BB60     		str	r3, [r7, #8]
 908:Drivers/STM32L4xx_HAL_Driver/Src/stm32l4xx_ll_sdmmc.c ****   sdmmc_cmdinit.CmdIndex         = SDMMC_CMD_APP_CMD;
 1652              		.loc 1 908 34
 1653 000e 3723     		movs	r3, #55
 1654 0010 FB60     		str	r3, [r7, #12]
 909:Drivers/STM32L4xx_HAL_Driver/Src/stm32l4xx_ll_sdmmc.c ****   sdmmc_cmdinit.Response         = SDMMC_RESPONSE_SHORT;
 1655              		.loc 1 909 34
 1656 0012 4FF48073 		mov	r3, #256
 1657 0016 3B61     		str	r3, [r7, #16]
 910:Drivers/STM32L4xx_HAL_Driver/Src/stm32l4xx_ll_sdmmc.c ****   sdmmc_cmdinit.WaitForInterrupt = SDMMC_WAIT_NO;
 1658              		.loc 1 910 34
 1659 0018 0023     		movs	r3, #0
 1660 001a 7B61     		str	r3, [r7, #20]
 911:Drivers/STM32L4xx_HAL_Driver/Src/stm32l4xx_ll_sdmmc.c ****   sdmmc_cmdinit.CPSM             = SDMMC_CPSM_ENABLE;
 1661              		.loc 1 911 34
 1662 001c 4FF48053 		mov	r3, #4096
 1663 0020 BB61     		str	r3, [r7, #24]
 912:Drivers/STM32L4xx_HAL_Driver/Src/stm32l4xx_ll_sdmmc.c ****   (void)SDMMC_SendCommand(SDMMCx, &sdmmc_cmdinit);
 1664              		.loc 1 912 9
 1665 0022 07F10803 		add	r3, r7, #8
 1666 0026 1946     		mov	r1, r3
 1667 0028 7868     		ldr	r0, [r7, #4]
 1668 002a FFF7FEFF 		bl	SDMMC_SendCommand
 913:Drivers/STM32L4xx_HAL_Driver/Src/stm32l4xx_ll_sdmmc.c **** 
 914:Drivers/STM32L4xx_HAL_Driver/Src/stm32l4xx_ll_sdmmc.c ****   /* Check for error conditions */
 915:Drivers/STM32L4xx_HAL_Driver/Src/stm32l4xx_ll_sdmmc.c ****   /* If there is a HAL_ERROR, it is a MMC card, else
 916:Drivers/STM32L4xx_HAL_Driver/Src/stm32l4xx_ll_sdmmc.c ****   it is a SD card: SD card 2.0 (voltage range mismatch)
 917:Drivers/STM32L4xx_HAL_Driver/Src/stm32l4xx_ll_sdmmc.c ****      or SD card 1.x */
 918:Drivers/STM32L4xx_HAL_Driver/Src/stm32l4xx_ll_sdmmc.c ****   errorstate = SDMMC_GetCmdResp1(SDMMCx, SDMMC_CMD_APP_CMD, SDMMC_CMDTIMEOUT);
 1669              		.loc 1 918 16
 1670 002e 41F28832 		movw	r2, #5000
 1671 0032 3721     		movs	r1, #55
 1672 0034 7868     		ldr	r0, [r7, #4]
 1673 0036 FFF7FEFF 		bl	SDMMC_GetCmdResp1
 1674 003a F861     		str	r0, [r7, #28]
 919:Drivers/STM32L4xx_HAL_Driver/Src/stm32l4xx_ll_sdmmc.c **** 
 920:Drivers/STM32L4xx_HAL_Driver/Src/stm32l4xx_ll_sdmmc.c ****   return errorstate;
 1675              		.loc 1 920 10
 1676 003c FB69     		ldr	r3, [r7, #28]
 921:Drivers/STM32L4xx_HAL_Driver/Src/stm32l4xx_ll_sdmmc.c **** }
 1677              		.loc 1 921 1
 1678 003e 1846     		mov	r0, r3
 1679 0040 2037     		adds	r7, r7, #32
 1680              		.cfi_def_cfa_offset 8
 1681 0042 BD46     		mov	sp, r7
 1682              		.cfi_def_cfa_register 13
 1683              		@ sp needed
 1684 0044 80BD     		pop	{r7, pc}
 1685              		.cfi_endproc
 1686              	.LFE349:
 1688              		.section	.text.SDMMC_CmdAppOperCommand,"ax",%progbits
 1689              		.align	1
ARM GAS  C:\Users\Morroway\AppData\Local\Temp\cc18sEAf.s 			page 46


 1690              		.global	SDMMC_CmdAppOperCommand
 1691              		.syntax unified
 1692              		.thumb
 1693              		.thumb_func
 1695              	SDMMC_CmdAppOperCommand:
 1696              	.LFB350:
 922:Drivers/STM32L4xx_HAL_Driver/Src/stm32l4xx_ll_sdmmc.c **** 
 923:Drivers/STM32L4xx_HAL_Driver/Src/stm32l4xx_ll_sdmmc.c **** /**
 924:Drivers/STM32L4xx_HAL_Driver/Src/stm32l4xx_ll_sdmmc.c ****   * @brief  Send the command asking the accessed card to send its operating
 925:Drivers/STM32L4xx_HAL_Driver/Src/stm32l4xx_ll_sdmmc.c ****   *         condition register (OCR)
 926:Drivers/STM32L4xx_HAL_Driver/Src/stm32l4xx_ll_sdmmc.c ****   * @param  SDMMCx Pointer to SDMMC register base
 927:Drivers/STM32L4xx_HAL_Driver/Src/stm32l4xx_ll_sdmmc.c ****   * @param  Argument Command Argument
 928:Drivers/STM32L4xx_HAL_Driver/Src/stm32l4xx_ll_sdmmc.c ****   * @retval HAL status
 929:Drivers/STM32L4xx_HAL_Driver/Src/stm32l4xx_ll_sdmmc.c ****   */
 930:Drivers/STM32L4xx_HAL_Driver/Src/stm32l4xx_ll_sdmmc.c **** uint32_t SDMMC_CmdAppOperCommand(SDMMC_TypeDef *SDMMCx, uint32_t Argument)
 931:Drivers/STM32L4xx_HAL_Driver/Src/stm32l4xx_ll_sdmmc.c **** {
 1697              		.loc 1 931 1
 1698              		.cfi_startproc
 1699              		@ args = 0, pretend = 0, frame = 32
 1700              		@ frame_needed = 1, uses_anonymous_args = 0
 1701 0000 80B5     		push	{r7, lr}
 1702              		.cfi_def_cfa_offset 8
 1703              		.cfi_offset 7, -8
 1704              		.cfi_offset 14, -4
 1705 0002 88B0     		sub	sp, sp, #32
 1706              		.cfi_def_cfa_offset 40
 1707 0004 00AF     		add	r7, sp, #0
 1708              		.cfi_def_cfa_register 7
 1709 0006 7860     		str	r0, [r7, #4]
 1710 0008 3960     		str	r1, [r7]
 932:Drivers/STM32L4xx_HAL_Driver/Src/stm32l4xx_ll_sdmmc.c ****   SDMMC_CmdInitTypeDef  sdmmc_cmdinit;
 933:Drivers/STM32L4xx_HAL_Driver/Src/stm32l4xx_ll_sdmmc.c ****   uint32_t errorstate;
 934:Drivers/STM32L4xx_HAL_Driver/Src/stm32l4xx_ll_sdmmc.c **** 
 935:Drivers/STM32L4xx_HAL_Driver/Src/stm32l4xx_ll_sdmmc.c **** #if defined(STM32L4P5xx) || defined(STM32L4Q5xx) || defined(STM32L4R5xx) || defined(STM32L4R7xx) ||
 936:Drivers/STM32L4xx_HAL_Driver/Src/stm32l4xx_ll_sdmmc.c ****   sdmmc_cmdinit.Argument         = Argument;
 1711              		.loc 1 936 34
 1712 000a 3B68     		ldr	r3, [r7]
 1713 000c BB60     		str	r3, [r7, #8]
 937:Drivers/STM32L4xx_HAL_Driver/Src/stm32l4xx_ll_sdmmc.c **** #else
 938:Drivers/STM32L4xx_HAL_Driver/Src/stm32l4xx_ll_sdmmc.c ****   sdmmc_cmdinit.Argument         = SDMMC_VOLTAGE_WINDOW_SD | Argument;
 939:Drivers/STM32L4xx_HAL_Driver/Src/stm32l4xx_ll_sdmmc.c **** #endif /* STM32L4P5xx || STM32L4Q5xx || STM32L4R5xx || STM32L4R7xx || STM32L4R9xx || STM32L4S5xx ||
 940:Drivers/STM32L4xx_HAL_Driver/Src/stm32l4xx_ll_sdmmc.c ****   sdmmc_cmdinit.CmdIndex         = SDMMC_CMD_SD_APP_OP_COND;
 1714              		.loc 1 940 34
 1715 000e 2923     		movs	r3, #41
 1716 0010 FB60     		str	r3, [r7, #12]
 941:Drivers/STM32L4xx_HAL_Driver/Src/stm32l4xx_ll_sdmmc.c ****   sdmmc_cmdinit.Response         = SDMMC_RESPONSE_SHORT;
 1717              		.loc 1 941 34
 1718 0012 4FF48073 		mov	r3, #256
 1719 0016 3B61     		str	r3, [r7, #16]
 942:Drivers/STM32L4xx_HAL_Driver/Src/stm32l4xx_ll_sdmmc.c ****   sdmmc_cmdinit.WaitForInterrupt = SDMMC_WAIT_NO;
 1720              		.loc 1 942 34
 1721 0018 0023     		movs	r3, #0
 1722 001a 7B61     		str	r3, [r7, #20]
 943:Drivers/STM32L4xx_HAL_Driver/Src/stm32l4xx_ll_sdmmc.c ****   sdmmc_cmdinit.CPSM             = SDMMC_CPSM_ENABLE;
 1723              		.loc 1 943 34
 1724 001c 4FF48053 		mov	r3, #4096
 1725 0020 BB61     		str	r3, [r7, #24]
ARM GAS  C:\Users\Morroway\AppData\Local\Temp\cc18sEAf.s 			page 47


 944:Drivers/STM32L4xx_HAL_Driver/Src/stm32l4xx_ll_sdmmc.c ****   (void)SDMMC_SendCommand(SDMMCx, &sdmmc_cmdinit);
 1726              		.loc 1 944 9
 1727 0022 07F10803 		add	r3, r7, #8
 1728 0026 1946     		mov	r1, r3
 1729 0028 7868     		ldr	r0, [r7, #4]
 1730 002a FFF7FEFF 		bl	SDMMC_SendCommand
 945:Drivers/STM32L4xx_HAL_Driver/Src/stm32l4xx_ll_sdmmc.c **** 
 946:Drivers/STM32L4xx_HAL_Driver/Src/stm32l4xx_ll_sdmmc.c ****   /* Check for error conditions */
 947:Drivers/STM32L4xx_HAL_Driver/Src/stm32l4xx_ll_sdmmc.c ****   errorstate = SDMMC_GetCmdResp3(SDMMCx);
 1731              		.loc 1 947 16
 1732 002e 7868     		ldr	r0, [r7, #4]
 1733 0030 FFF7FEFF 		bl	SDMMC_GetCmdResp3
 1734 0034 F861     		str	r0, [r7, #28]
 948:Drivers/STM32L4xx_HAL_Driver/Src/stm32l4xx_ll_sdmmc.c **** 
 949:Drivers/STM32L4xx_HAL_Driver/Src/stm32l4xx_ll_sdmmc.c ****   return errorstate;
 1735              		.loc 1 949 10
 1736 0036 FB69     		ldr	r3, [r7, #28]
 950:Drivers/STM32L4xx_HAL_Driver/Src/stm32l4xx_ll_sdmmc.c **** }
 1737              		.loc 1 950 1
 1738 0038 1846     		mov	r0, r3
 1739 003a 2037     		adds	r7, r7, #32
 1740              		.cfi_def_cfa_offset 8
 1741 003c BD46     		mov	sp, r7
 1742              		.cfi_def_cfa_register 13
 1743              		@ sp needed
 1744 003e 80BD     		pop	{r7, pc}
 1745              		.cfi_endproc
 1746              	.LFE350:
 1748              		.section	.text.SDMMC_CmdBusWidth,"ax",%progbits
 1749              		.align	1
 1750              		.global	SDMMC_CmdBusWidth
 1751              		.syntax unified
 1752              		.thumb
 1753              		.thumb_func
 1755              	SDMMC_CmdBusWidth:
 1756              	.LFB351:
 951:Drivers/STM32L4xx_HAL_Driver/Src/stm32l4xx_ll_sdmmc.c **** 
 952:Drivers/STM32L4xx_HAL_Driver/Src/stm32l4xx_ll_sdmmc.c **** /**
 953:Drivers/STM32L4xx_HAL_Driver/Src/stm32l4xx_ll_sdmmc.c ****   * @brief  Send the Bus Width command and check the response.
 954:Drivers/STM32L4xx_HAL_Driver/Src/stm32l4xx_ll_sdmmc.c ****   * @param  SDMMCx Pointer to SDMMC register base
 955:Drivers/STM32L4xx_HAL_Driver/Src/stm32l4xx_ll_sdmmc.c ****   * @param  BusWidth BusWidth
 956:Drivers/STM32L4xx_HAL_Driver/Src/stm32l4xx_ll_sdmmc.c ****   * @retval HAL status
 957:Drivers/STM32L4xx_HAL_Driver/Src/stm32l4xx_ll_sdmmc.c ****   */
 958:Drivers/STM32L4xx_HAL_Driver/Src/stm32l4xx_ll_sdmmc.c **** uint32_t SDMMC_CmdBusWidth(SDMMC_TypeDef *SDMMCx, uint32_t BusWidth)
 959:Drivers/STM32L4xx_HAL_Driver/Src/stm32l4xx_ll_sdmmc.c **** {
 1757              		.loc 1 959 1
 1758              		.cfi_startproc
 1759              		@ args = 0, pretend = 0, frame = 32
 1760              		@ frame_needed = 1, uses_anonymous_args = 0
 1761 0000 80B5     		push	{r7, lr}
 1762              		.cfi_def_cfa_offset 8
 1763              		.cfi_offset 7, -8
 1764              		.cfi_offset 14, -4
 1765 0002 88B0     		sub	sp, sp, #32
 1766              		.cfi_def_cfa_offset 40
 1767 0004 00AF     		add	r7, sp, #0
 1768              		.cfi_def_cfa_register 7
ARM GAS  C:\Users\Morroway\AppData\Local\Temp\cc18sEAf.s 			page 48


 1769 0006 7860     		str	r0, [r7, #4]
 1770 0008 3960     		str	r1, [r7]
 960:Drivers/STM32L4xx_HAL_Driver/Src/stm32l4xx_ll_sdmmc.c ****   SDMMC_CmdInitTypeDef  sdmmc_cmdinit;
 961:Drivers/STM32L4xx_HAL_Driver/Src/stm32l4xx_ll_sdmmc.c ****   uint32_t errorstate;
 962:Drivers/STM32L4xx_HAL_Driver/Src/stm32l4xx_ll_sdmmc.c **** 
 963:Drivers/STM32L4xx_HAL_Driver/Src/stm32l4xx_ll_sdmmc.c ****   sdmmc_cmdinit.Argument         = (uint32_t)BusWidth;
 1771              		.loc 1 963 34
 1772 000a 3B68     		ldr	r3, [r7]
 1773 000c BB60     		str	r3, [r7, #8]
 964:Drivers/STM32L4xx_HAL_Driver/Src/stm32l4xx_ll_sdmmc.c ****   sdmmc_cmdinit.CmdIndex         = SDMMC_CMD_APP_SD_SET_BUSWIDTH;
 1774              		.loc 1 964 34
 1775 000e 0623     		movs	r3, #6
 1776 0010 FB60     		str	r3, [r7, #12]
 965:Drivers/STM32L4xx_HAL_Driver/Src/stm32l4xx_ll_sdmmc.c ****   sdmmc_cmdinit.Response         = SDMMC_RESPONSE_SHORT;
 1777              		.loc 1 965 34
 1778 0012 4FF48073 		mov	r3, #256
 1779 0016 3B61     		str	r3, [r7, #16]
 966:Drivers/STM32L4xx_HAL_Driver/Src/stm32l4xx_ll_sdmmc.c ****   sdmmc_cmdinit.WaitForInterrupt = SDMMC_WAIT_NO;
 1780              		.loc 1 966 34
 1781 0018 0023     		movs	r3, #0
 1782 001a 7B61     		str	r3, [r7, #20]
 967:Drivers/STM32L4xx_HAL_Driver/Src/stm32l4xx_ll_sdmmc.c ****   sdmmc_cmdinit.CPSM             = SDMMC_CPSM_ENABLE;
 1783              		.loc 1 967 34
 1784 001c 4FF48053 		mov	r3, #4096
 1785 0020 BB61     		str	r3, [r7, #24]
 968:Drivers/STM32L4xx_HAL_Driver/Src/stm32l4xx_ll_sdmmc.c ****   (void)SDMMC_SendCommand(SDMMCx, &sdmmc_cmdinit);
 1786              		.loc 1 968 9
 1787 0022 07F10803 		add	r3, r7, #8
 1788 0026 1946     		mov	r1, r3
 1789 0028 7868     		ldr	r0, [r7, #4]
 1790 002a FFF7FEFF 		bl	SDMMC_SendCommand
 969:Drivers/STM32L4xx_HAL_Driver/Src/stm32l4xx_ll_sdmmc.c **** 
 970:Drivers/STM32L4xx_HAL_Driver/Src/stm32l4xx_ll_sdmmc.c ****   /* Check for error conditions */
 971:Drivers/STM32L4xx_HAL_Driver/Src/stm32l4xx_ll_sdmmc.c ****   errorstate = SDMMC_GetCmdResp1(SDMMCx, SDMMC_CMD_APP_SD_SET_BUSWIDTH, SDMMC_CMDTIMEOUT);
 1791              		.loc 1 971 16
 1792 002e 41F28832 		movw	r2, #5000
 1793 0032 0621     		movs	r1, #6
 1794 0034 7868     		ldr	r0, [r7, #4]
 1795 0036 FFF7FEFF 		bl	SDMMC_GetCmdResp1
 1796 003a F861     		str	r0, [r7, #28]
 972:Drivers/STM32L4xx_HAL_Driver/Src/stm32l4xx_ll_sdmmc.c **** 
 973:Drivers/STM32L4xx_HAL_Driver/Src/stm32l4xx_ll_sdmmc.c ****   return errorstate;
 1797              		.loc 1 973 10
 1798 003c FB69     		ldr	r3, [r7, #28]
 974:Drivers/STM32L4xx_HAL_Driver/Src/stm32l4xx_ll_sdmmc.c **** }
 1799              		.loc 1 974 1
 1800 003e 1846     		mov	r0, r3
 1801 0040 2037     		adds	r7, r7, #32
 1802              		.cfi_def_cfa_offset 8
 1803 0042 BD46     		mov	sp, r7
 1804              		.cfi_def_cfa_register 13
 1805              		@ sp needed
 1806 0044 80BD     		pop	{r7, pc}
 1807              		.cfi_endproc
 1808              	.LFE351:
 1810              		.section	.text.SDMMC_CmdSendSCR,"ax",%progbits
 1811              		.align	1
ARM GAS  C:\Users\Morroway\AppData\Local\Temp\cc18sEAf.s 			page 49


 1812              		.global	SDMMC_CmdSendSCR
 1813              		.syntax unified
 1814              		.thumb
 1815              		.thumb_func
 1817              	SDMMC_CmdSendSCR:
 1818              	.LFB352:
 975:Drivers/STM32L4xx_HAL_Driver/Src/stm32l4xx_ll_sdmmc.c **** 
 976:Drivers/STM32L4xx_HAL_Driver/Src/stm32l4xx_ll_sdmmc.c **** /**
 977:Drivers/STM32L4xx_HAL_Driver/Src/stm32l4xx_ll_sdmmc.c ****   * @brief  Send the Send SCR command and check the response.
 978:Drivers/STM32L4xx_HAL_Driver/Src/stm32l4xx_ll_sdmmc.c ****   * @param  SDMMCx Pointer to SDMMC register base
 979:Drivers/STM32L4xx_HAL_Driver/Src/stm32l4xx_ll_sdmmc.c ****   * @retval HAL status
 980:Drivers/STM32L4xx_HAL_Driver/Src/stm32l4xx_ll_sdmmc.c ****   */
 981:Drivers/STM32L4xx_HAL_Driver/Src/stm32l4xx_ll_sdmmc.c **** uint32_t SDMMC_CmdSendSCR(SDMMC_TypeDef *SDMMCx)
 982:Drivers/STM32L4xx_HAL_Driver/Src/stm32l4xx_ll_sdmmc.c **** {
 1819              		.loc 1 982 1
 1820              		.cfi_startproc
 1821              		@ args = 0, pretend = 0, frame = 32
 1822              		@ frame_needed = 1, uses_anonymous_args = 0
 1823 0000 80B5     		push	{r7, lr}
 1824              		.cfi_def_cfa_offset 8
 1825              		.cfi_offset 7, -8
 1826              		.cfi_offset 14, -4
 1827 0002 88B0     		sub	sp, sp, #32
 1828              		.cfi_def_cfa_offset 40
 1829 0004 00AF     		add	r7, sp, #0
 1830              		.cfi_def_cfa_register 7
 1831 0006 7860     		str	r0, [r7, #4]
 983:Drivers/STM32L4xx_HAL_Driver/Src/stm32l4xx_ll_sdmmc.c ****   SDMMC_CmdInitTypeDef  sdmmc_cmdinit;
 984:Drivers/STM32L4xx_HAL_Driver/Src/stm32l4xx_ll_sdmmc.c ****   uint32_t errorstate;
 985:Drivers/STM32L4xx_HAL_Driver/Src/stm32l4xx_ll_sdmmc.c **** 
 986:Drivers/STM32L4xx_HAL_Driver/Src/stm32l4xx_ll_sdmmc.c ****   /* Send CMD51 SD_APP_SEND_SCR */
 987:Drivers/STM32L4xx_HAL_Driver/Src/stm32l4xx_ll_sdmmc.c ****   sdmmc_cmdinit.Argument         = 0U;
 1832              		.loc 1 987 34
 1833 0008 0023     		movs	r3, #0
 1834 000a BB60     		str	r3, [r7, #8]
 988:Drivers/STM32L4xx_HAL_Driver/Src/stm32l4xx_ll_sdmmc.c ****   sdmmc_cmdinit.CmdIndex         = SDMMC_CMD_SD_APP_SEND_SCR;
 1835              		.loc 1 988 34
 1836 000c 3323     		movs	r3, #51
 1837 000e FB60     		str	r3, [r7, #12]
 989:Drivers/STM32L4xx_HAL_Driver/Src/stm32l4xx_ll_sdmmc.c ****   sdmmc_cmdinit.Response         = SDMMC_RESPONSE_SHORT;
 1838              		.loc 1 989 34
 1839 0010 4FF48073 		mov	r3, #256
 1840 0014 3B61     		str	r3, [r7, #16]
 990:Drivers/STM32L4xx_HAL_Driver/Src/stm32l4xx_ll_sdmmc.c ****   sdmmc_cmdinit.WaitForInterrupt = SDMMC_WAIT_NO;
 1841              		.loc 1 990 34
 1842 0016 0023     		movs	r3, #0
 1843 0018 7B61     		str	r3, [r7, #20]
 991:Drivers/STM32L4xx_HAL_Driver/Src/stm32l4xx_ll_sdmmc.c ****   sdmmc_cmdinit.CPSM             = SDMMC_CPSM_ENABLE;
 1844              		.loc 1 991 34
 1845 001a 4FF48053 		mov	r3, #4096
 1846 001e BB61     		str	r3, [r7, #24]
 992:Drivers/STM32L4xx_HAL_Driver/Src/stm32l4xx_ll_sdmmc.c ****   (void)SDMMC_SendCommand(SDMMCx, &sdmmc_cmdinit);
 1847              		.loc 1 992 9
 1848 0020 07F10803 		add	r3, r7, #8
 1849 0024 1946     		mov	r1, r3
 1850 0026 7868     		ldr	r0, [r7, #4]
 1851 0028 FFF7FEFF 		bl	SDMMC_SendCommand
ARM GAS  C:\Users\Morroway\AppData\Local\Temp\cc18sEAf.s 			page 50


 993:Drivers/STM32L4xx_HAL_Driver/Src/stm32l4xx_ll_sdmmc.c **** 
 994:Drivers/STM32L4xx_HAL_Driver/Src/stm32l4xx_ll_sdmmc.c ****   /* Check for error conditions */
 995:Drivers/STM32L4xx_HAL_Driver/Src/stm32l4xx_ll_sdmmc.c ****   errorstate = SDMMC_GetCmdResp1(SDMMCx, SDMMC_CMD_SD_APP_SEND_SCR, SDMMC_CMDTIMEOUT);
 1852              		.loc 1 995 16
 1853 002c 41F28832 		movw	r2, #5000
 1854 0030 3321     		movs	r1, #51
 1855 0032 7868     		ldr	r0, [r7, #4]
 1856 0034 FFF7FEFF 		bl	SDMMC_GetCmdResp1
 1857 0038 F861     		str	r0, [r7, #28]
 996:Drivers/STM32L4xx_HAL_Driver/Src/stm32l4xx_ll_sdmmc.c **** 
 997:Drivers/STM32L4xx_HAL_Driver/Src/stm32l4xx_ll_sdmmc.c ****   return errorstate;
 1858              		.loc 1 997 10
 1859 003a FB69     		ldr	r3, [r7, #28]
 998:Drivers/STM32L4xx_HAL_Driver/Src/stm32l4xx_ll_sdmmc.c **** }
 1860              		.loc 1 998 1
 1861 003c 1846     		mov	r0, r3
 1862 003e 2037     		adds	r7, r7, #32
 1863              		.cfi_def_cfa_offset 8
 1864 0040 BD46     		mov	sp, r7
 1865              		.cfi_def_cfa_register 13
 1866              		@ sp needed
 1867 0042 80BD     		pop	{r7, pc}
 1868              		.cfi_endproc
 1869              	.LFE352:
 1871              		.section	.text.SDMMC_CmdSendCID,"ax",%progbits
 1872              		.align	1
 1873              		.global	SDMMC_CmdSendCID
 1874              		.syntax unified
 1875              		.thumb
 1876              		.thumb_func
 1878              	SDMMC_CmdSendCID:
 1879              	.LFB353:
 999:Drivers/STM32L4xx_HAL_Driver/Src/stm32l4xx_ll_sdmmc.c **** 
1000:Drivers/STM32L4xx_HAL_Driver/Src/stm32l4xx_ll_sdmmc.c **** /**
1001:Drivers/STM32L4xx_HAL_Driver/Src/stm32l4xx_ll_sdmmc.c ****   * @brief  Send the Send CID command and check the response.
1002:Drivers/STM32L4xx_HAL_Driver/Src/stm32l4xx_ll_sdmmc.c ****   * @param  SDMMCx Pointer to SDMMC register base
1003:Drivers/STM32L4xx_HAL_Driver/Src/stm32l4xx_ll_sdmmc.c ****   * @retval HAL status
1004:Drivers/STM32L4xx_HAL_Driver/Src/stm32l4xx_ll_sdmmc.c ****   */
1005:Drivers/STM32L4xx_HAL_Driver/Src/stm32l4xx_ll_sdmmc.c **** uint32_t SDMMC_CmdSendCID(SDMMC_TypeDef *SDMMCx)
1006:Drivers/STM32L4xx_HAL_Driver/Src/stm32l4xx_ll_sdmmc.c **** {
 1880              		.loc 1 1006 1
 1881              		.cfi_startproc
 1882              		@ args = 0, pretend = 0, frame = 32
 1883              		@ frame_needed = 1, uses_anonymous_args = 0
 1884 0000 80B5     		push	{r7, lr}
 1885              		.cfi_def_cfa_offset 8
 1886              		.cfi_offset 7, -8
 1887              		.cfi_offset 14, -4
 1888 0002 88B0     		sub	sp, sp, #32
 1889              		.cfi_def_cfa_offset 40
 1890 0004 00AF     		add	r7, sp, #0
 1891              		.cfi_def_cfa_register 7
 1892 0006 7860     		str	r0, [r7, #4]
1007:Drivers/STM32L4xx_HAL_Driver/Src/stm32l4xx_ll_sdmmc.c ****   SDMMC_CmdInitTypeDef  sdmmc_cmdinit;
1008:Drivers/STM32L4xx_HAL_Driver/Src/stm32l4xx_ll_sdmmc.c ****   uint32_t errorstate;
1009:Drivers/STM32L4xx_HAL_Driver/Src/stm32l4xx_ll_sdmmc.c **** 
1010:Drivers/STM32L4xx_HAL_Driver/Src/stm32l4xx_ll_sdmmc.c ****   /* Send CMD2 ALL_SEND_CID */
ARM GAS  C:\Users\Morroway\AppData\Local\Temp\cc18sEAf.s 			page 51


1011:Drivers/STM32L4xx_HAL_Driver/Src/stm32l4xx_ll_sdmmc.c ****   sdmmc_cmdinit.Argument         = 0U;
 1893              		.loc 1 1011 34
 1894 0008 0023     		movs	r3, #0
 1895 000a BB60     		str	r3, [r7, #8]
1012:Drivers/STM32L4xx_HAL_Driver/Src/stm32l4xx_ll_sdmmc.c ****   sdmmc_cmdinit.CmdIndex         = SDMMC_CMD_ALL_SEND_CID;
 1896              		.loc 1 1012 34
 1897 000c 0223     		movs	r3, #2
 1898 000e FB60     		str	r3, [r7, #12]
1013:Drivers/STM32L4xx_HAL_Driver/Src/stm32l4xx_ll_sdmmc.c ****   sdmmc_cmdinit.Response         = SDMMC_RESPONSE_LONG;
 1899              		.loc 1 1013 34
 1900 0010 4FF44073 		mov	r3, #768
 1901 0014 3B61     		str	r3, [r7, #16]
1014:Drivers/STM32L4xx_HAL_Driver/Src/stm32l4xx_ll_sdmmc.c ****   sdmmc_cmdinit.WaitForInterrupt = SDMMC_WAIT_NO;
 1902              		.loc 1 1014 34
 1903 0016 0023     		movs	r3, #0
 1904 0018 7B61     		str	r3, [r7, #20]
1015:Drivers/STM32L4xx_HAL_Driver/Src/stm32l4xx_ll_sdmmc.c ****   sdmmc_cmdinit.CPSM             = SDMMC_CPSM_ENABLE;
 1905              		.loc 1 1015 34
 1906 001a 4FF48053 		mov	r3, #4096
 1907 001e BB61     		str	r3, [r7, #24]
1016:Drivers/STM32L4xx_HAL_Driver/Src/stm32l4xx_ll_sdmmc.c ****   (void)SDMMC_SendCommand(SDMMCx, &sdmmc_cmdinit);
 1908              		.loc 1 1016 9
 1909 0020 07F10803 		add	r3, r7, #8
 1910 0024 1946     		mov	r1, r3
 1911 0026 7868     		ldr	r0, [r7, #4]
 1912 0028 FFF7FEFF 		bl	SDMMC_SendCommand
1017:Drivers/STM32L4xx_HAL_Driver/Src/stm32l4xx_ll_sdmmc.c **** 
1018:Drivers/STM32L4xx_HAL_Driver/Src/stm32l4xx_ll_sdmmc.c ****   /* Check for error conditions */
1019:Drivers/STM32L4xx_HAL_Driver/Src/stm32l4xx_ll_sdmmc.c ****   errorstate = SDMMC_GetCmdResp2(SDMMCx);
 1913              		.loc 1 1019 16
 1914 002c 7868     		ldr	r0, [r7, #4]
 1915 002e FFF7FEFF 		bl	SDMMC_GetCmdResp2
 1916 0032 F861     		str	r0, [r7, #28]
1020:Drivers/STM32L4xx_HAL_Driver/Src/stm32l4xx_ll_sdmmc.c **** 
1021:Drivers/STM32L4xx_HAL_Driver/Src/stm32l4xx_ll_sdmmc.c ****   return errorstate;
 1917              		.loc 1 1021 10
 1918 0034 FB69     		ldr	r3, [r7, #28]
1022:Drivers/STM32L4xx_HAL_Driver/Src/stm32l4xx_ll_sdmmc.c **** }
 1919              		.loc 1 1022 1
 1920 0036 1846     		mov	r0, r3
 1921 0038 2037     		adds	r7, r7, #32
 1922              		.cfi_def_cfa_offset 8
 1923 003a BD46     		mov	sp, r7
 1924              		.cfi_def_cfa_register 13
 1925              		@ sp needed
 1926 003c 80BD     		pop	{r7, pc}
 1927              		.cfi_endproc
 1928              	.LFE353:
 1930              		.section	.text.SDMMC_CmdSendCSD,"ax",%progbits
 1931              		.align	1
 1932              		.global	SDMMC_CmdSendCSD
 1933              		.syntax unified
 1934              		.thumb
 1935              		.thumb_func
 1937              	SDMMC_CmdSendCSD:
 1938              	.LFB354:
1023:Drivers/STM32L4xx_HAL_Driver/Src/stm32l4xx_ll_sdmmc.c **** 
ARM GAS  C:\Users\Morroway\AppData\Local\Temp\cc18sEAf.s 			page 52


1024:Drivers/STM32L4xx_HAL_Driver/Src/stm32l4xx_ll_sdmmc.c **** /**
1025:Drivers/STM32L4xx_HAL_Driver/Src/stm32l4xx_ll_sdmmc.c ****   * @brief  Send the Send CSD command and check the response.
1026:Drivers/STM32L4xx_HAL_Driver/Src/stm32l4xx_ll_sdmmc.c ****   * @param  SDMMCx Pointer to SDMMC register base
1027:Drivers/STM32L4xx_HAL_Driver/Src/stm32l4xx_ll_sdmmc.c ****   * @param  Argument Command Argument
1028:Drivers/STM32L4xx_HAL_Driver/Src/stm32l4xx_ll_sdmmc.c ****   * @retval HAL status
1029:Drivers/STM32L4xx_HAL_Driver/Src/stm32l4xx_ll_sdmmc.c ****   */
1030:Drivers/STM32L4xx_HAL_Driver/Src/stm32l4xx_ll_sdmmc.c **** uint32_t SDMMC_CmdSendCSD(SDMMC_TypeDef *SDMMCx, uint32_t Argument)
1031:Drivers/STM32L4xx_HAL_Driver/Src/stm32l4xx_ll_sdmmc.c **** {
 1939              		.loc 1 1031 1
 1940              		.cfi_startproc
 1941              		@ args = 0, pretend = 0, frame = 32
 1942              		@ frame_needed = 1, uses_anonymous_args = 0
 1943 0000 80B5     		push	{r7, lr}
 1944              		.cfi_def_cfa_offset 8
 1945              		.cfi_offset 7, -8
 1946              		.cfi_offset 14, -4
 1947 0002 88B0     		sub	sp, sp, #32
 1948              		.cfi_def_cfa_offset 40
 1949 0004 00AF     		add	r7, sp, #0
 1950              		.cfi_def_cfa_register 7
 1951 0006 7860     		str	r0, [r7, #4]
 1952 0008 3960     		str	r1, [r7]
1032:Drivers/STM32L4xx_HAL_Driver/Src/stm32l4xx_ll_sdmmc.c ****   SDMMC_CmdInitTypeDef  sdmmc_cmdinit;
1033:Drivers/STM32L4xx_HAL_Driver/Src/stm32l4xx_ll_sdmmc.c ****   uint32_t errorstate;
1034:Drivers/STM32L4xx_HAL_Driver/Src/stm32l4xx_ll_sdmmc.c **** 
1035:Drivers/STM32L4xx_HAL_Driver/Src/stm32l4xx_ll_sdmmc.c ****   /* Send CMD9 SEND_CSD */
1036:Drivers/STM32L4xx_HAL_Driver/Src/stm32l4xx_ll_sdmmc.c ****   sdmmc_cmdinit.Argument         = Argument;
 1953              		.loc 1 1036 34
 1954 000a 3B68     		ldr	r3, [r7]
 1955 000c BB60     		str	r3, [r7, #8]
1037:Drivers/STM32L4xx_HAL_Driver/Src/stm32l4xx_ll_sdmmc.c ****   sdmmc_cmdinit.CmdIndex         = SDMMC_CMD_SEND_CSD;
 1956              		.loc 1 1037 34
 1957 000e 0923     		movs	r3, #9
 1958 0010 FB60     		str	r3, [r7, #12]
1038:Drivers/STM32L4xx_HAL_Driver/Src/stm32l4xx_ll_sdmmc.c ****   sdmmc_cmdinit.Response         = SDMMC_RESPONSE_LONG;
 1959              		.loc 1 1038 34
 1960 0012 4FF44073 		mov	r3, #768
 1961 0016 3B61     		str	r3, [r7, #16]
1039:Drivers/STM32L4xx_HAL_Driver/Src/stm32l4xx_ll_sdmmc.c ****   sdmmc_cmdinit.WaitForInterrupt = SDMMC_WAIT_NO;
 1962              		.loc 1 1039 34
 1963 0018 0023     		movs	r3, #0
 1964 001a 7B61     		str	r3, [r7, #20]
1040:Drivers/STM32L4xx_HAL_Driver/Src/stm32l4xx_ll_sdmmc.c ****   sdmmc_cmdinit.CPSM             = SDMMC_CPSM_ENABLE;
 1965              		.loc 1 1040 34
 1966 001c 4FF48053 		mov	r3, #4096
 1967 0020 BB61     		str	r3, [r7, #24]
1041:Drivers/STM32L4xx_HAL_Driver/Src/stm32l4xx_ll_sdmmc.c ****   (void)SDMMC_SendCommand(SDMMCx, &sdmmc_cmdinit);
 1968              		.loc 1 1041 9
 1969 0022 07F10803 		add	r3, r7, #8
 1970 0026 1946     		mov	r1, r3
 1971 0028 7868     		ldr	r0, [r7, #4]
 1972 002a FFF7FEFF 		bl	SDMMC_SendCommand
1042:Drivers/STM32L4xx_HAL_Driver/Src/stm32l4xx_ll_sdmmc.c **** 
1043:Drivers/STM32L4xx_HAL_Driver/Src/stm32l4xx_ll_sdmmc.c ****   /* Check for error conditions */
1044:Drivers/STM32L4xx_HAL_Driver/Src/stm32l4xx_ll_sdmmc.c ****   errorstate = SDMMC_GetCmdResp2(SDMMCx);
 1973              		.loc 1 1044 16
 1974 002e 7868     		ldr	r0, [r7, #4]
ARM GAS  C:\Users\Morroway\AppData\Local\Temp\cc18sEAf.s 			page 53


 1975 0030 FFF7FEFF 		bl	SDMMC_GetCmdResp2
 1976 0034 F861     		str	r0, [r7, #28]
1045:Drivers/STM32L4xx_HAL_Driver/Src/stm32l4xx_ll_sdmmc.c **** 
1046:Drivers/STM32L4xx_HAL_Driver/Src/stm32l4xx_ll_sdmmc.c ****   return errorstate;
 1977              		.loc 1 1046 10
 1978 0036 FB69     		ldr	r3, [r7, #28]
1047:Drivers/STM32L4xx_HAL_Driver/Src/stm32l4xx_ll_sdmmc.c **** }
 1979              		.loc 1 1047 1
 1980 0038 1846     		mov	r0, r3
 1981 003a 2037     		adds	r7, r7, #32
 1982              		.cfi_def_cfa_offset 8
 1983 003c BD46     		mov	sp, r7
 1984              		.cfi_def_cfa_register 13
 1985              		@ sp needed
 1986 003e 80BD     		pop	{r7, pc}
 1987              		.cfi_endproc
 1988              	.LFE354:
 1990              		.section	.text.SDMMC_CmdSetRelAdd,"ax",%progbits
 1991              		.align	1
 1992              		.global	SDMMC_CmdSetRelAdd
 1993              		.syntax unified
 1994              		.thumb
 1995              		.thumb_func
 1997              	SDMMC_CmdSetRelAdd:
 1998              	.LFB355:
1048:Drivers/STM32L4xx_HAL_Driver/Src/stm32l4xx_ll_sdmmc.c **** 
1049:Drivers/STM32L4xx_HAL_Driver/Src/stm32l4xx_ll_sdmmc.c **** /**
1050:Drivers/STM32L4xx_HAL_Driver/Src/stm32l4xx_ll_sdmmc.c ****   * @brief  Send the Send CSD command and check the response.
1051:Drivers/STM32L4xx_HAL_Driver/Src/stm32l4xx_ll_sdmmc.c ****   * @param  SDMMCx Pointer to SDMMC register base
1052:Drivers/STM32L4xx_HAL_Driver/Src/stm32l4xx_ll_sdmmc.c ****   * @param  pRCA Card RCA
1053:Drivers/STM32L4xx_HAL_Driver/Src/stm32l4xx_ll_sdmmc.c ****   * @retval HAL status
1054:Drivers/STM32L4xx_HAL_Driver/Src/stm32l4xx_ll_sdmmc.c ****   */
1055:Drivers/STM32L4xx_HAL_Driver/Src/stm32l4xx_ll_sdmmc.c **** uint32_t SDMMC_CmdSetRelAdd(SDMMC_TypeDef *SDMMCx, uint16_t *pRCA)
1056:Drivers/STM32L4xx_HAL_Driver/Src/stm32l4xx_ll_sdmmc.c **** {
 1999              		.loc 1 1056 1
 2000              		.cfi_startproc
 2001              		@ args = 0, pretend = 0, frame = 32
 2002              		@ frame_needed = 1, uses_anonymous_args = 0
 2003 0000 80B5     		push	{r7, lr}
 2004              		.cfi_def_cfa_offset 8
 2005              		.cfi_offset 7, -8
 2006              		.cfi_offset 14, -4
 2007 0002 88B0     		sub	sp, sp, #32
 2008              		.cfi_def_cfa_offset 40
 2009 0004 00AF     		add	r7, sp, #0
 2010              		.cfi_def_cfa_register 7
 2011 0006 7860     		str	r0, [r7, #4]
 2012 0008 3960     		str	r1, [r7]
1057:Drivers/STM32L4xx_HAL_Driver/Src/stm32l4xx_ll_sdmmc.c ****   SDMMC_CmdInitTypeDef  sdmmc_cmdinit;
1058:Drivers/STM32L4xx_HAL_Driver/Src/stm32l4xx_ll_sdmmc.c ****   uint32_t errorstate;
1059:Drivers/STM32L4xx_HAL_Driver/Src/stm32l4xx_ll_sdmmc.c **** 
1060:Drivers/STM32L4xx_HAL_Driver/Src/stm32l4xx_ll_sdmmc.c ****   /* Send CMD3 SD_CMD_SET_REL_ADDR */
1061:Drivers/STM32L4xx_HAL_Driver/Src/stm32l4xx_ll_sdmmc.c ****   sdmmc_cmdinit.Argument         = 0U;
 2013              		.loc 1 1061 34
 2014 000a 0023     		movs	r3, #0
 2015 000c BB60     		str	r3, [r7, #8]
1062:Drivers/STM32L4xx_HAL_Driver/Src/stm32l4xx_ll_sdmmc.c ****   sdmmc_cmdinit.CmdIndex         = SDMMC_CMD_SET_REL_ADDR;
ARM GAS  C:\Users\Morroway\AppData\Local\Temp\cc18sEAf.s 			page 54


 2016              		.loc 1 1062 34
 2017 000e 0323     		movs	r3, #3
 2018 0010 FB60     		str	r3, [r7, #12]
1063:Drivers/STM32L4xx_HAL_Driver/Src/stm32l4xx_ll_sdmmc.c ****   sdmmc_cmdinit.Response         = SDMMC_RESPONSE_SHORT;
 2019              		.loc 1 1063 34
 2020 0012 4FF48073 		mov	r3, #256
 2021 0016 3B61     		str	r3, [r7, #16]
1064:Drivers/STM32L4xx_HAL_Driver/Src/stm32l4xx_ll_sdmmc.c ****   sdmmc_cmdinit.WaitForInterrupt = SDMMC_WAIT_NO;
 2022              		.loc 1 1064 34
 2023 0018 0023     		movs	r3, #0
 2024 001a 7B61     		str	r3, [r7, #20]
1065:Drivers/STM32L4xx_HAL_Driver/Src/stm32l4xx_ll_sdmmc.c ****   sdmmc_cmdinit.CPSM             = SDMMC_CPSM_ENABLE;
 2025              		.loc 1 1065 34
 2026 001c 4FF48053 		mov	r3, #4096
 2027 0020 BB61     		str	r3, [r7, #24]
1066:Drivers/STM32L4xx_HAL_Driver/Src/stm32l4xx_ll_sdmmc.c ****   (void)SDMMC_SendCommand(SDMMCx, &sdmmc_cmdinit);
 2028              		.loc 1 1066 9
 2029 0022 07F10803 		add	r3, r7, #8
 2030 0026 1946     		mov	r1, r3
 2031 0028 7868     		ldr	r0, [r7, #4]
 2032 002a FFF7FEFF 		bl	SDMMC_SendCommand
1067:Drivers/STM32L4xx_HAL_Driver/Src/stm32l4xx_ll_sdmmc.c **** 
1068:Drivers/STM32L4xx_HAL_Driver/Src/stm32l4xx_ll_sdmmc.c ****   /* Check for error conditions */
1069:Drivers/STM32L4xx_HAL_Driver/Src/stm32l4xx_ll_sdmmc.c ****   errorstate = SDMMC_GetCmdResp6(SDMMCx, SDMMC_CMD_SET_REL_ADDR, pRCA);
 2033              		.loc 1 1069 16
 2034 002e 3A68     		ldr	r2, [r7]
 2035 0030 0321     		movs	r1, #3
 2036 0032 7868     		ldr	r0, [r7, #4]
 2037 0034 FFF7FEFF 		bl	SDMMC_GetCmdResp6
 2038 0038 F861     		str	r0, [r7, #28]
1070:Drivers/STM32L4xx_HAL_Driver/Src/stm32l4xx_ll_sdmmc.c **** 
1071:Drivers/STM32L4xx_HAL_Driver/Src/stm32l4xx_ll_sdmmc.c ****   return errorstate;
 2039              		.loc 1 1071 10
 2040 003a FB69     		ldr	r3, [r7, #28]
1072:Drivers/STM32L4xx_HAL_Driver/Src/stm32l4xx_ll_sdmmc.c **** }
 2041              		.loc 1 1072 1
 2042 003c 1846     		mov	r0, r3
 2043 003e 2037     		adds	r7, r7, #32
 2044              		.cfi_def_cfa_offset 8
 2045 0040 BD46     		mov	sp, r7
 2046              		.cfi_def_cfa_register 13
 2047              		@ sp needed
 2048 0042 80BD     		pop	{r7, pc}
 2049              		.cfi_endproc
 2050              	.LFE355:
 2052              		.section	.text.SDMMC_CmdSetRelAddMmc,"ax",%progbits
 2053              		.align	1
 2054              		.global	SDMMC_CmdSetRelAddMmc
 2055              		.syntax unified
 2056              		.thumb
 2057              		.thumb_func
 2059              	SDMMC_CmdSetRelAddMmc:
 2060              	.LFB356:
1073:Drivers/STM32L4xx_HAL_Driver/Src/stm32l4xx_ll_sdmmc.c **** 
1074:Drivers/STM32L4xx_HAL_Driver/Src/stm32l4xx_ll_sdmmc.c **** /**
1075:Drivers/STM32L4xx_HAL_Driver/Src/stm32l4xx_ll_sdmmc.c ****   * @brief  Send the Set Relative Address command to MMC card (not SD card).
1076:Drivers/STM32L4xx_HAL_Driver/Src/stm32l4xx_ll_sdmmc.c ****   * @param  SDMMCx Pointer to SDMMC register base
ARM GAS  C:\Users\Morroway\AppData\Local\Temp\cc18sEAf.s 			page 55


1077:Drivers/STM32L4xx_HAL_Driver/Src/stm32l4xx_ll_sdmmc.c ****   * @param  RCA Card RCA
1078:Drivers/STM32L4xx_HAL_Driver/Src/stm32l4xx_ll_sdmmc.c ****   * @retval HAL status
1079:Drivers/STM32L4xx_HAL_Driver/Src/stm32l4xx_ll_sdmmc.c ****   */
1080:Drivers/STM32L4xx_HAL_Driver/Src/stm32l4xx_ll_sdmmc.c **** uint32_t SDMMC_CmdSetRelAddMmc(SDMMC_TypeDef *SDMMCx, uint16_t RCA)
1081:Drivers/STM32L4xx_HAL_Driver/Src/stm32l4xx_ll_sdmmc.c **** {
 2061              		.loc 1 1081 1
 2062              		.cfi_startproc
 2063              		@ args = 0, pretend = 0, frame = 32
 2064              		@ frame_needed = 1, uses_anonymous_args = 0
 2065 0000 80B5     		push	{r7, lr}
 2066              		.cfi_def_cfa_offset 8
 2067              		.cfi_offset 7, -8
 2068              		.cfi_offset 14, -4
 2069 0002 88B0     		sub	sp, sp, #32
 2070              		.cfi_def_cfa_offset 40
 2071 0004 00AF     		add	r7, sp, #0
 2072              		.cfi_def_cfa_register 7
 2073 0006 7860     		str	r0, [r7, #4]
 2074 0008 0B46     		mov	r3, r1
 2075 000a 7B80     		strh	r3, [r7, #2]	@ movhi
1082:Drivers/STM32L4xx_HAL_Driver/Src/stm32l4xx_ll_sdmmc.c ****   SDMMC_CmdInitTypeDef  sdmmc_cmdinit;
1083:Drivers/STM32L4xx_HAL_Driver/Src/stm32l4xx_ll_sdmmc.c ****   uint32_t errorstate;
1084:Drivers/STM32L4xx_HAL_Driver/Src/stm32l4xx_ll_sdmmc.c **** 
1085:Drivers/STM32L4xx_HAL_Driver/Src/stm32l4xx_ll_sdmmc.c ****   /* Send CMD3 SD_CMD_SET_REL_ADDR */
1086:Drivers/STM32L4xx_HAL_Driver/Src/stm32l4xx_ll_sdmmc.c ****   sdmmc_cmdinit.Argument         = ((uint32_t)RCA << 16U);
 2076              		.loc 1 1086 37
 2077 000c 7B88     		ldrh	r3, [r7, #2]
 2078              		.loc 1 1086 51
 2079 000e 1B04     		lsls	r3, r3, #16
 2080              		.loc 1 1086 34
 2081 0010 BB60     		str	r3, [r7, #8]
1087:Drivers/STM32L4xx_HAL_Driver/Src/stm32l4xx_ll_sdmmc.c ****   sdmmc_cmdinit.CmdIndex         = SDMMC_CMD_SET_REL_ADDR;
 2082              		.loc 1 1087 34
 2083 0012 0323     		movs	r3, #3
 2084 0014 FB60     		str	r3, [r7, #12]
1088:Drivers/STM32L4xx_HAL_Driver/Src/stm32l4xx_ll_sdmmc.c ****   sdmmc_cmdinit.Response         = SDMMC_RESPONSE_SHORT;
 2085              		.loc 1 1088 34
 2086 0016 4FF48073 		mov	r3, #256
 2087 001a 3B61     		str	r3, [r7, #16]
1089:Drivers/STM32L4xx_HAL_Driver/Src/stm32l4xx_ll_sdmmc.c ****   sdmmc_cmdinit.WaitForInterrupt = SDMMC_WAIT_NO;
 2088              		.loc 1 1089 34
 2089 001c 0023     		movs	r3, #0
 2090 001e 7B61     		str	r3, [r7, #20]
1090:Drivers/STM32L4xx_HAL_Driver/Src/stm32l4xx_ll_sdmmc.c ****   sdmmc_cmdinit.CPSM             = SDMMC_CPSM_ENABLE;
 2091              		.loc 1 1090 34
 2092 0020 4FF48053 		mov	r3, #4096
 2093 0024 BB61     		str	r3, [r7, #24]
1091:Drivers/STM32L4xx_HAL_Driver/Src/stm32l4xx_ll_sdmmc.c ****   (void)SDMMC_SendCommand(SDMMCx, &sdmmc_cmdinit);
 2094              		.loc 1 1091 9
 2095 0026 07F10803 		add	r3, r7, #8
 2096 002a 1946     		mov	r1, r3
 2097 002c 7868     		ldr	r0, [r7, #4]
 2098 002e FFF7FEFF 		bl	SDMMC_SendCommand
1092:Drivers/STM32L4xx_HAL_Driver/Src/stm32l4xx_ll_sdmmc.c **** 
1093:Drivers/STM32L4xx_HAL_Driver/Src/stm32l4xx_ll_sdmmc.c ****   /* Check for error conditions */
1094:Drivers/STM32L4xx_HAL_Driver/Src/stm32l4xx_ll_sdmmc.c ****   errorstate = SDMMC_GetCmdResp1(SDMMCx, SDMMC_CMD_SET_REL_ADDR, SDMMC_CMDTIMEOUT);
 2099              		.loc 1 1094 16
ARM GAS  C:\Users\Morroway\AppData\Local\Temp\cc18sEAf.s 			page 56


 2100 0032 41F28832 		movw	r2, #5000
 2101 0036 0321     		movs	r1, #3
 2102 0038 7868     		ldr	r0, [r7, #4]
 2103 003a FFF7FEFF 		bl	SDMMC_GetCmdResp1
 2104 003e F861     		str	r0, [r7, #28]
1095:Drivers/STM32L4xx_HAL_Driver/Src/stm32l4xx_ll_sdmmc.c **** 
1096:Drivers/STM32L4xx_HAL_Driver/Src/stm32l4xx_ll_sdmmc.c ****   return errorstate;
 2105              		.loc 1 1096 10
 2106 0040 FB69     		ldr	r3, [r7, #28]
1097:Drivers/STM32L4xx_HAL_Driver/Src/stm32l4xx_ll_sdmmc.c **** }
 2107              		.loc 1 1097 1
 2108 0042 1846     		mov	r0, r3
 2109 0044 2037     		adds	r7, r7, #32
 2110              		.cfi_def_cfa_offset 8
 2111 0046 BD46     		mov	sp, r7
 2112              		.cfi_def_cfa_register 13
 2113              		@ sp needed
 2114 0048 80BD     		pop	{r7, pc}
 2115              		.cfi_endproc
 2116              	.LFE356:
 2118              		.section	.text.SDMMC_CmdSleepMmc,"ax",%progbits
 2119              		.align	1
 2120              		.global	SDMMC_CmdSleepMmc
 2121              		.syntax unified
 2122              		.thumb
 2123              		.thumb_func
 2125              	SDMMC_CmdSleepMmc:
 2126              	.LFB357:
1098:Drivers/STM32L4xx_HAL_Driver/Src/stm32l4xx_ll_sdmmc.c **** 
1099:Drivers/STM32L4xx_HAL_Driver/Src/stm32l4xx_ll_sdmmc.c **** /**
1100:Drivers/STM32L4xx_HAL_Driver/Src/stm32l4xx_ll_sdmmc.c ****   * @brief  Send the Sleep command to MMC card (not SD card).
1101:Drivers/STM32L4xx_HAL_Driver/Src/stm32l4xx_ll_sdmmc.c ****   * @param  SDMMCx Pointer to SDMMC register base
1102:Drivers/STM32L4xx_HAL_Driver/Src/stm32l4xx_ll_sdmmc.c ****   * @param  Argument Argument of the command (RCA and Sleep/Awake)
1103:Drivers/STM32L4xx_HAL_Driver/Src/stm32l4xx_ll_sdmmc.c ****   * @retval HAL status
1104:Drivers/STM32L4xx_HAL_Driver/Src/stm32l4xx_ll_sdmmc.c ****   */
1105:Drivers/STM32L4xx_HAL_Driver/Src/stm32l4xx_ll_sdmmc.c **** uint32_t SDMMC_CmdSleepMmc(SDMMC_TypeDef *SDMMCx, uint32_t Argument)
1106:Drivers/STM32L4xx_HAL_Driver/Src/stm32l4xx_ll_sdmmc.c **** {
 2127              		.loc 1 1106 1
 2128              		.cfi_startproc
 2129              		@ args = 0, pretend = 0, frame = 32
 2130              		@ frame_needed = 1, uses_anonymous_args = 0
 2131 0000 80B5     		push	{r7, lr}
 2132              		.cfi_def_cfa_offset 8
 2133              		.cfi_offset 7, -8
 2134              		.cfi_offset 14, -4
 2135 0002 88B0     		sub	sp, sp, #32
 2136              		.cfi_def_cfa_offset 40
 2137 0004 00AF     		add	r7, sp, #0
 2138              		.cfi_def_cfa_register 7
 2139 0006 7860     		str	r0, [r7, #4]
 2140 0008 3960     		str	r1, [r7]
1107:Drivers/STM32L4xx_HAL_Driver/Src/stm32l4xx_ll_sdmmc.c ****   SDMMC_CmdInitTypeDef  sdmmc_cmdinit;
1108:Drivers/STM32L4xx_HAL_Driver/Src/stm32l4xx_ll_sdmmc.c ****   uint32_t errorstate;
1109:Drivers/STM32L4xx_HAL_Driver/Src/stm32l4xx_ll_sdmmc.c **** 
1110:Drivers/STM32L4xx_HAL_Driver/Src/stm32l4xx_ll_sdmmc.c ****   /* Send CMD5 SDMMC_CMD_MMC_SLEEP_AWAKE */
1111:Drivers/STM32L4xx_HAL_Driver/Src/stm32l4xx_ll_sdmmc.c ****   sdmmc_cmdinit.Argument         = Argument;
 2141              		.loc 1 1111 34
ARM GAS  C:\Users\Morroway\AppData\Local\Temp\cc18sEAf.s 			page 57


 2142 000a 3B68     		ldr	r3, [r7]
 2143 000c BB60     		str	r3, [r7, #8]
1112:Drivers/STM32L4xx_HAL_Driver/Src/stm32l4xx_ll_sdmmc.c ****   sdmmc_cmdinit.CmdIndex         = SDMMC_CMD_MMC_SLEEP_AWAKE;
 2144              		.loc 1 1112 34
 2145 000e 0523     		movs	r3, #5
 2146 0010 FB60     		str	r3, [r7, #12]
1113:Drivers/STM32L4xx_HAL_Driver/Src/stm32l4xx_ll_sdmmc.c ****   sdmmc_cmdinit.Response         = SDMMC_RESPONSE_SHORT;
 2147              		.loc 1 1113 34
 2148 0012 4FF48073 		mov	r3, #256
 2149 0016 3B61     		str	r3, [r7, #16]
1114:Drivers/STM32L4xx_HAL_Driver/Src/stm32l4xx_ll_sdmmc.c ****   sdmmc_cmdinit.WaitForInterrupt = SDMMC_WAIT_NO;
 2150              		.loc 1 1114 34
 2151 0018 0023     		movs	r3, #0
 2152 001a 7B61     		str	r3, [r7, #20]
1115:Drivers/STM32L4xx_HAL_Driver/Src/stm32l4xx_ll_sdmmc.c ****   sdmmc_cmdinit.CPSM             = SDMMC_CPSM_ENABLE;
 2153              		.loc 1 1115 34
 2154 001c 4FF48053 		mov	r3, #4096
 2155 0020 BB61     		str	r3, [r7, #24]
1116:Drivers/STM32L4xx_HAL_Driver/Src/stm32l4xx_ll_sdmmc.c ****   (void)SDMMC_SendCommand(SDMMCx, &sdmmc_cmdinit);
 2156              		.loc 1 1116 9
 2157 0022 07F10803 		add	r3, r7, #8
 2158 0026 1946     		mov	r1, r3
 2159 0028 7868     		ldr	r0, [r7, #4]
 2160 002a FFF7FEFF 		bl	SDMMC_SendCommand
1117:Drivers/STM32L4xx_HAL_Driver/Src/stm32l4xx_ll_sdmmc.c **** 
1118:Drivers/STM32L4xx_HAL_Driver/Src/stm32l4xx_ll_sdmmc.c ****   /* Check for error conditions */
1119:Drivers/STM32L4xx_HAL_Driver/Src/stm32l4xx_ll_sdmmc.c ****   errorstate = SDMMC_GetCmdResp1(SDMMCx, SDMMC_CMD_MMC_SLEEP_AWAKE, SDMMC_CMDTIMEOUT);
 2161              		.loc 1 1119 16
 2162 002e 41F28832 		movw	r2, #5000
 2163 0032 0521     		movs	r1, #5
 2164 0034 7868     		ldr	r0, [r7, #4]
 2165 0036 FFF7FEFF 		bl	SDMMC_GetCmdResp1
 2166 003a F861     		str	r0, [r7, #28]
1120:Drivers/STM32L4xx_HAL_Driver/Src/stm32l4xx_ll_sdmmc.c **** 
1121:Drivers/STM32L4xx_HAL_Driver/Src/stm32l4xx_ll_sdmmc.c ****   return errorstate;
 2167              		.loc 1 1121 10
 2168 003c FB69     		ldr	r3, [r7, #28]
1122:Drivers/STM32L4xx_HAL_Driver/Src/stm32l4xx_ll_sdmmc.c **** }
 2169              		.loc 1 1122 1
 2170 003e 1846     		mov	r0, r3
 2171 0040 2037     		adds	r7, r7, #32
 2172              		.cfi_def_cfa_offset 8
 2173 0042 BD46     		mov	sp, r7
 2174              		.cfi_def_cfa_register 13
 2175              		@ sp needed
 2176 0044 80BD     		pop	{r7, pc}
 2177              		.cfi_endproc
 2178              	.LFE357:
 2180              		.section	.text.SDMMC_CmdSendStatus,"ax",%progbits
 2181              		.align	1
 2182              		.global	SDMMC_CmdSendStatus
 2183              		.syntax unified
 2184              		.thumb
 2185              		.thumb_func
 2187              	SDMMC_CmdSendStatus:
 2188              	.LFB358:
1123:Drivers/STM32L4xx_HAL_Driver/Src/stm32l4xx_ll_sdmmc.c **** 
ARM GAS  C:\Users\Morroway\AppData\Local\Temp\cc18sEAf.s 			page 58


1124:Drivers/STM32L4xx_HAL_Driver/Src/stm32l4xx_ll_sdmmc.c **** /**
1125:Drivers/STM32L4xx_HAL_Driver/Src/stm32l4xx_ll_sdmmc.c ****   * @brief  Send the Status command and check the response.
1126:Drivers/STM32L4xx_HAL_Driver/Src/stm32l4xx_ll_sdmmc.c ****   * @param  SDMMCx Pointer to SDMMC register base
1127:Drivers/STM32L4xx_HAL_Driver/Src/stm32l4xx_ll_sdmmc.c ****   * @param  Argument Command Argument
1128:Drivers/STM32L4xx_HAL_Driver/Src/stm32l4xx_ll_sdmmc.c ****   * @retval HAL status
1129:Drivers/STM32L4xx_HAL_Driver/Src/stm32l4xx_ll_sdmmc.c ****   */
1130:Drivers/STM32L4xx_HAL_Driver/Src/stm32l4xx_ll_sdmmc.c **** uint32_t SDMMC_CmdSendStatus(SDMMC_TypeDef *SDMMCx, uint32_t Argument)
1131:Drivers/STM32L4xx_HAL_Driver/Src/stm32l4xx_ll_sdmmc.c **** {
 2189              		.loc 1 1131 1
 2190              		.cfi_startproc
 2191              		@ args = 0, pretend = 0, frame = 32
 2192              		@ frame_needed = 1, uses_anonymous_args = 0
 2193 0000 80B5     		push	{r7, lr}
 2194              		.cfi_def_cfa_offset 8
 2195              		.cfi_offset 7, -8
 2196              		.cfi_offset 14, -4
 2197 0002 88B0     		sub	sp, sp, #32
 2198              		.cfi_def_cfa_offset 40
 2199 0004 00AF     		add	r7, sp, #0
 2200              		.cfi_def_cfa_register 7
 2201 0006 7860     		str	r0, [r7, #4]
 2202 0008 3960     		str	r1, [r7]
1132:Drivers/STM32L4xx_HAL_Driver/Src/stm32l4xx_ll_sdmmc.c ****   SDMMC_CmdInitTypeDef  sdmmc_cmdinit;
1133:Drivers/STM32L4xx_HAL_Driver/Src/stm32l4xx_ll_sdmmc.c ****   uint32_t errorstate;
1134:Drivers/STM32L4xx_HAL_Driver/Src/stm32l4xx_ll_sdmmc.c **** 
1135:Drivers/STM32L4xx_HAL_Driver/Src/stm32l4xx_ll_sdmmc.c ****   sdmmc_cmdinit.Argument         = Argument;
 2203              		.loc 1 1135 34
 2204 000a 3B68     		ldr	r3, [r7]
 2205 000c BB60     		str	r3, [r7, #8]
1136:Drivers/STM32L4xx_HAL_Driver/Src/stm32l4xx_ll_sdmmc.c ****   sdmmc_cmdinit.CmdIndex         = SDMMC_CMD_SEND_STATUS;
 2206              		.loc 1 1136 34
 2207 000e 0D23     		movs	r3, #13
 2208 0010 FB60     		str	r3, [r7, #12]
1137:Drivers/STM32L4xx_HAL_Driver/Src/stm32l4xx_ll_sdmmc.c ****   sdmmc_cmdinit.Response         = SDMMC_RESPONSE_SHORT;
 2209              		.loc 1 1137 34
 2210 0012 4FF48073 		mov	r3, #256
 2211 0016 3B61     		str	r3, [r7, #16]
1138:Drivers/STM32L4xx_HAL_Driver/Src/stm32l4xx_ll_sdmmc.c ****   sdmmc_cmdinit.WaitForInterrupt = SDMMC_WAIT_NO;
 2212              		.loc 1 1138 34
 2213 0018 0023     		movs	r3, #0
 2214 001a 7B61     		str	r3, [r7, #20]
1139:Drivers/STM32L4xx_HAL_Driver/Src/stm32l4xx_ll_sdmmc.c ****   sdmmc_cmdinit.CPSM             = SDMMC_CPSM_ENABLE;
 2215              		.loc 1 1139 34
 2216 001c 4FF48053 		mov	r3, #4096
 2217 0020 BB61     		str	r3, [r7, #24]
1140:Drivers/STM32L4xx_HAL_Driver/Src/stm32l4xx_ll_sdmmc.c ****   (void)SDMMC_SendCommand(SDMMCx, &sdmmc_cmdinit);
 2218              		.loc 1 1140 9
 2219 0022 07F10803 		add	r3, r7, #8
 2220 0026 1946     		mov	r1, r3
 2221 0028 7868     		ldr	r0, [r7, #4]
 2222 002a FFF7FEFF 		bl	SDMMC_SendCommand
1141:Drivers/STM32L4xx_HAL_Driver/Src/stm32l4xx_ll_sdmmc.c **** 
1142:Drivers/STM32L4xx_HAL_Driver/Src/stm32l4xx_ll_sdmmc.c ****   /* Check for error conditions */
1143:Drivers/STM32L4xx_HAL_Driver/Src/stm32l4xx_ll_sdmmc.c ****   errorstate = SDMMC_GetCmdResp1(SDMMCx, SDMMC_CMD_SEND_STATUS, SDMMC_CMDTIMEOUT);
 2223              		.loc 1 1143 16
 2224 002e 41F28832 		movw	r2, #5000
 2225 0032 0D21     		movs	r1, #13
ARM GAS  C:\Users\Morroway\AppData\Local\Temp\cc18sEAf.s 			page 59


 2226 0034 7868     		ldr	r0, [r7, #4]
 2227 0036 FFF7FEFF 		bl	SDMMC_GetCmdResp1
 2228 003a F861     		str	r0, [r7, #28]
1144:Drivers/STM32L4xx_HAL_Driver/Src/stm32l4xx_ll_sdmmc.c **** 
1145:Drivers/STM32L4xx_HAL_Driver/Src/stm32l4xx_ll_sdmmc.c ****   return errorstate;
 2229              		.loc 1 1145 10
 2230 003c FB69     		ldr	r3, [r7, #28]
1146:Drivers/STM32L4xx_HAL_Driver/Src/stm32l4xx_ll_sdmmc.c **** }
 2231              		.loc 1 1146 1
 2232 003e 1846     		mov	r0, r3
 2233 0040 2037     		adds	r7, r7, #32
 2234              		.cfi_def_cfa_offset 8
 2235 0042 BD46     		mov	sp, r7
 2236              		.cfi_def_cfa_register 13
 2237              		@ sp needed
 2238 0044 80BD     		pop	{r7, pc}
 2239              		.cfi_endproc
 2240              	.LFE358:
 2242              		.section	.text.SDMMC_CmdStatusRegister,"ax",%progbits
 2243              		.align	1
 2244              		.global	SDMMC_CmdStatusRegister
 2245              		.syntax unified
 2246              		.thumb
 2247              		.thumb_func
 2249              	SDMMC_CmdStatusRegister:
 2250              	.LFB359:
1147:Drivers/STM32L4xx_HAL_Driver/Src/stm32l4xx_ll_sdmmc.c **** 
1148:Drivers/STM32L4xx_HAL_Driver/Src/stm32l4xx_ll_sdmmc.c **** /**
1149:Drivers/STM32L4xx_HAL_Driver/Src/stm32l4xx_ll_sdmmc.c ****   * @brief  Send the Status register command and check the response.
1150:Drivers/STM32L4xx_HAL_Driver/Src/stm32l4xx_ll_sdmmc.c ****   * @param  SDMMCx Pointer to SDMMC register base
1151:Drivers/STM32L4xx_HAL_Driver/Src/stm32l4xx_ll_sdmmc.c ****   * @retval HAL status
1152:Drivers/STM32L4xx_HAL_Driver/Src/stm32l4xx_ll_sdmmc.c ****   */
1153:Drivers/STM32L4xx_HAL_Driver/Src/stm32l4xx_ll_sdmmc.c **** uint32_t SDMMC_CmdStatusRegister(SDMMC_TypeDef *SDMMCx)
1154:Drivers/STM32L4xx_HAL_Driver/Src/stm32l4xx_ll_sdmmc.c **** {
 2251              		.loc 1 1154 1
 2252              		.cfi_startproc
 2253              		@ args = 0, pretend = 0, frame = 32
 2254              		@ frame_needed = 1, uses_anonymous_args = 0
 2255 0000 80B5     		push	{r7, lr}
 2256              		.cfi_def_cfa_offset 8
 2257              		.cfi_offset 7, -8
 2258              		.cfi_offset 14, -4
 2259 0002 88B0     		sub	sp, sp, #32
 2260              		.cfi_def_cfa_offset 40
 2261 0004 00AF     		add	r7, sp, #0
 2262              		.cfi_def_cfa_register 7
 2263 0006 7860     		str	r0, [r7, #4]
1155:Drivers/STM32L4xx_HAL_Driver/Src/stm32l4xx_ll_sdmmc.c ****   SDMMC_CmdInitTypeDef  sdmmc_cmdinit;
1156:Drivers/STM32L4xx_HAL_Driver/Src/stm32l4xx_ll_sdmmc.c ****   uint32_t errorstate;
1157:Drivers/STM32L4xx_HAL_Driver/Src/stm32l4xx_ll_sdmmc.c **** 
1158:Drivers/STM32L4xx_HAL_Driver/Src/stm32l4xx_ll_sdmmc.c ****   sdmmc_cmdinit.Argument         = 0U;
 2264              		.loc 1 1158 34
 2265 0008 0023     		movs	r3, #0
 2266 000a BB60     		str	r3, [r7, #8]
1159:Drivers/STM32L4xx_HAL_Driver/Src/stm32l4xx_ll_sdmmc.c ****   sdmmc_cmdinit.CmdIndex         = SDMMC_CMD_SD_APP_STATUS;
 2267              		.loc 1 1159 34
 2268 000c 0D23     		movs	r3, #13
ARM GAS  C:\Users\Morroway\AppData\Local\Temp\cc18sEAf.s 			page 60


 2269 000e FB60     		str	r3, [r7, #12]
1160:Drivers/STM32L4xx_HAL_Driver/Src/stm32l4xx_ll_sdmmc.c ****   sdmmc_cmdinit.Response         = SDMMC_RESPONSE_SHORT;
 2270              		.loc 1 1160 34
 2271 0010 4FF48073 		mov	r3, #256
 2272 0014 3B61     		str	r3, [r7, #16]
1161:Drivers/STM32L4xx_HAL_Driver/Src/stm32l4xx_ll_sdmmc.c ****   sdmmc_cmdinit.WaitForInterrupt = SDMMC_WAIT_NO;
 2273              		.loc 1 1161 34
 2274 0016 0023     		movs	r3, #0
 2275 0018 7B61     		str	r3, [r7, #20]
1162:Drivers/STM32L4xx_HAL_Driver/Src/stm32l4xx_ll_sdmmc.c ****   sdmmc_cmdinit.CPSM             = SDMMC_CPSM_ENABLE;
 2276              		.loc 1 1162 34
 2277 001a 4FF48053 		mov	r3, #4096
 2278 001e BB61     		str	r3, [r7, #24]
1163:Drivers/STM32L4xx_HAL_Driver/Src/stm32l4xx_ll_sdmmc.c ****   (void)SDMMC_SendCommand(SDMMCx, &sdmmc_cmdinit);
 2279              		.loc 1 1163 9
 2280 0020 07F10803 		add	r3, r7, #8
 2281 0024 1946     		mov	r1, r3
 2282 0026 7868     		ldr	r0, [r7, #4]
 2283 0028 FFF7FEFF 		bl	SDMMC_SendCommand
1164:Drivers/STM32L4xx_HAL_Driver/Src/stm32l4xx_ll_sdmmc.c **** 
1165:Drivers/STM32L4xx_HAL_Driver/Src/stm32l4xx_ll_sdmmc.c ****   /* Check for error conditions */
1166:Drivers/STM32L4xx_HAL_Driver/Src/stm32l4xx_ll_sdmmc.c ****   errorstate = SDMMC_GetCmdResp1(SDMMCx, SDMMC_CMD_SD_APP_STATUS, SDMMC_CMDTIMEOUT);
 2284              		.loc 1 1166 16
 2285 002c 41F28832 		movw	r2, #5000
 2286 0030 0D21     		movs	r1, #13
 2287 0032 7868     		ldr	r0, [r7, #4]
 2288 0034 FFF7FEFF 		bl	SDMMC_GetCmdResp1
 2289 0038 F861     		str	r0, [r7, #28]
1167:Drivers/STM32L4xx_HAL_Driver/Src/stm32l4xx_ll_sdmmc.c **** 
1168:Drivers/STM32L4xx_HAL_Driver/Src/stm32l4xx_ll_sdmmc.c ****   return errorstate;
 2290              		.loc 1 1168 10
 2291 003a FB69     		ldr	r3, [r7, #28]
1169:Drivers/STM32L4xx_HAL_Driver/Src/stm32l4xx_ll_sdmmc.c **** }
 2292              		.loc 1 1169 1
 2293 003c 1846     		mov	r0, r3
 2294 003e 2037     		adds	r7, r7, #32
 2295              		.cfi_def_cfa_offset 8
 2296 0040 BD46     		mov	sp, r7
 2297              		.cfi_def_cfa_register 13
 2298              		@ sp needed
 2299 0042 80BD     		pop	{r7, pc}
 2300              		.cfi_endproc
 2301              	.LFE359:
 2303              		.section	.text.SDMMC_CmdOpCondition,"ax",%progbits
 2304              		.align	1
 2305              		.global	SDMMC_CmdOpCondition
 2306              		.syntax unified
 2307              		.thumb
 2308              		.thumb_func
 2310              	SDMMC_CmdOpCondition:
 2311              	.LFB360:
1170:Drivers/STM32L4xx_HAL_Driver/Src/stm32l4xx_ll_sdmmc.c **** 
1171:Drivers/STM32L4xx_HAL_Driver/Src/stm32l4xx_ll_sdmmc.c **** /**
1172:Drivers/STM32L4xx_HAL_Driver/Src/stm32l4xx_ll_sdmmc.c ****   * @brief  Sends host capacity support information and activates the card's
1173:Drivers/STM32L4xx_HAL_Driver/Src/stm32l4xx_ll_sdmmc.c ****   *         initialization process. Send SDMMC_CMD_SEND_OP_COND command
1174:Drivers/STM32L4xx_HAL_Driver/Src/stm32l4xx_ll_sdmmc.c ****   * @param  SDMMCx Pointer to SDMMC register base
1175:Drivers/STM32L4xx_HAL_Driver/Src/stm32l4xx_ll_sdmmc.c ****   * @parame Argument: Argument used for the command
ARM GAS  C:\Users\Morroway\AppData\Local\Temp\cc18sEAf.s 			page 61


1176:Drivers/STM32L4xx_HAL_Driver/Src/stm32l4xx_ll_sdmmc.c ****   * @retval HAL status
1177:Drivers/STM32L4xx_HAL_Driver/Src/stm32l4xx_ll_sdmmc.c ****   */
1178:Drivers/STM32L4xx_HAL_Driver/Src/stm32l4xx_ll_sdmmc.c **** uint32_t SDMMC_CmdOpCondition(SDMMC_TypeDef *SDMMCx, uint32_t Argument)
1179:Drivers/STM32L4xx_HAL_Driver/Src/stm32l4xx_ll_sdmmc.c **** {
 2312              		.loc 1 1179 1
 2313              		.cfi_startproc
 2314              		@ args = 0, pretend = 0, frame = 32
 2315              		@ frame_needed = 1, uses_anonymous_args = 0
 2316 0000 80B5     		push	{r7, lr}
 2317              		.cfi_def_cfa_offset 8
 2318              		.cfi_offset 7, -8
 2319              		.cfi_offset 14, -4
 2320 0002 88B0     		sub	sp, sp, #32
 2321              		.cfi_def_cfa_offset 40
 2322 0004 00AF     		add	r7, sp, #0
 2323              		.cfi_def_cfa_register 7
 2324 0006 7860     		str	r0, [r7, #4]
 2325 0008 3960     		str	r1, [r7]
1180:Drivers/STM32L4xx_HAL_Driver/Src/stm32l4xx_ll_sdmmc.c ****   SDMMC_CmdInitTypeDef  sdmmc_cmdinit;
1181:Drivers/STM32L4xx_HAL_Driver/Src/stm32l4xx_ll_sdmmc.c ****   uint32_t errorstate;
1182:Drivers/STM32L4xx_HAL_Driver/Src/stm32l4xx_ll_sdmmc.c **** 
1183:Drivers/STM32L4xx_HAL_Driver/Src/stm32l4xx_ll_sdmmc.c ****   sdmmc_cmdinit.Argument         = Argument;
 2326              		.loc 1 1183 34
 2327 000a 3B68     		ldr	r3, [r7]
 2328 000c BB60     		str	r3, [r7, #8]
1184:Drivers/STM32L4xx_HAL_Driver/Src/stm32l4xx_ll_sdmmc.c ****   sdmmc_cmdinit.CmdIndex         = SDMMC_CMD_SEND_OP_COND;
 2329              		.loc 1 1184 34
 2330 000e 0123     		movs	r3, #1
 2331 0010 FB60     		str	r3, [r7, #12]
1185:Drivers/STM32L4xx_HAL_Driver/Src/stm32l4xx_ll_sdmmc.c ****   sdmmc_cmdinit.Response         = SDMMC_RESPONSE_SHORT;
 2332              		.loc 1 1185 34
 2333 0012 4FF48073 		mov	r3, #256
 2334 0016 3B61     		str	r3, [r7, #16]
1186:Drivers/STM32L4xx_HAL_Driver/Src/stm32l4xx_ll_sdmmc.c ****   sdmmc_cmdinit.WaitForInterrupt = SDMMC_WAIT_NO;
 2335              		.loc 1 1186 34
 2336 0018 0023     		movs	r3, #0
 2337 001a 7B61     		str	r3, [r7, #20]
1187:Drivers/STM32L4xx_HAL_Driver/Src/stm32l4xx_ll_sdmmc.c ****   sdmmc_cmdinit.CPSM             = SDMMC_CPSM_ENABLE;
 2338              		.loc 1 1187 34
 2339 001c 4FF48053 		mov	r3, #4096
 2340 0020 BB61     		str	r3, [r7, #24]
1188:Drivers/STM32L4xx_HAL_Driver/Src/stm32l4xx_ll_sdmmc.c ****   (void)SDMMC_SendCommand(SDMMCx, &sdmmc_cmdinit);
 2341              		.loc 1 1188 9
 2342 0022 07F10803 		add	r3, r7, #8
 2343 0026 1946     		mov	r1, r3
 2344 0028 7868     		ldr	r0, [r7, #4]
 2345 002a FFF7FEFF 		bl	SDMMC_SendCommand
1189:Drivers/STM32L4xx_HAL_Driver/Src/stm32l4xx_ll_sdmmc.c **** 
1190:Drivers/STM32L4xx_HAL_Driver/Src/stm32l4xx_ll_sdmmc.c ****   /* Check for error conditions */
1191:Drivers/STM32L4xx_HAL_Driver/Src/stm32l4xx_ll_sdmmc.c ****   errorstate = SDMMC_GetCmdResp3(SDMMCx);
 2346              		.loc 1 1191 16
 2347 002e 7868     		ldr	r0, [r7, #4]
 2348 0030 FFF7FEFF 		bl	SDMMC_GetCmdResp3
 2349 0034 F861     		str	r0, [r7, #28]
1192:Drivers/STM32L4xx_HAL_Driver/Src/stm32l4xx_ll_sdmmc.c **** 
1193:Drivers/STM32L4xx_HAL_Driver/Src/stm32l4xx_ll_sdmmc.c ****   return errorstate;
 2350              		.loc 1 1193 10
ARM GAS  C:\Users\Morroway\AppData\Local\Temp\cc18sEAf.s 			page 62


 2351 0036 FB69     		ldr	r3, [r7, #28]
1194:Drivers/STM32L4xx_HAL_Driver/Src/stm32l4xx_ll_sdmmc.c **** }
 2352              		.loc 1 1194 1
 2353 0038 1846     		mov	r0, r3
 2354 003a 2037     		adds	r7, r7, #32
 2355              		.cfi_def_cfa_offset 8
 2356 003c BD46     		mov	sp, r7
 2357              		.cfi_def_cfa_register 13
 2358              		@ sp needed
 2359 003e 80BD     		pop	{r7, pc}
 2360              		.cfi_endproc
 2361              	.LFE360:
 2363              		.section	.text.SDMMC_CmdSwitch,"ax",%progbits
 2364              		.align	1
 2365              		.global	SDMMC_CmdSwitch
 2366              		.syntax unified
 2367              		.thumb
 2368              		.thumb_func
 2370              	SDMMC_CmdSwitch:
 2371              	.LFB361:
1195:Drivers/STM32L4xx_HAL_Driver/Src/stm32l4xx_ll_sdmmc.c **** 
1196:Drivers/STM32L4xx_HAL_Driver/Src/stm32l4xx_ll_sdmmc.c **** /**
1197:Drivers/STM32L4xx_HAL_Driver/Src/stm32l4xx_ll_sdmmc.c ****   * @brief  Checks switchable function and switch card function. SDMMC_CMD_HS_SWITCH command
1198:Drivers/STM32L4xx_HAL_Driver/Src/stm32l4xx_ll_sdmmc.c ****   * @param  SDMMCx Pointer to SDMMC register base
1199:Drivers/STM32L4xx_HAL_Driver/Src/stm32l4xx_ll_sdmmc.c ****   * @parame Argument: Argument used for the command
1200:Drivers/STM32L4xx_HAL_Driver/Src/stm32l4xx_ll_sdmmc.c ****   * @retval HAL status
1201:Drivers/STM32L4xx_HAL_Driver/Src/stm32l4xx_ll_sdmmc.c ****   */
1202:Drivers/STM32L4xx_HAL_Driver/Src/stm32l4xx_ll_sdmmc.c **** uint32_t SDMMC_CmdSwitch(SDMMC_TypeDef *SDMMCx, uint32_t Argument)
1203:Drivers/STM32L4xx_HAL_Driver/Src/stm32l4xx_ll_sdmmc.c **** {
 2372              		.loc 1 1203 1
 2373              		.cfi_startproc
 2374              		@ args = 0, pretend = 0, frame = 32
 2375              		@ frame_needed = 1, uses_anonymous_args = 0
 2376 0000 80B5     		push	{r7, lr}
 2377              		.cfi_def_cfa_offset 8
 2378              		.cfi_offset 7, -8
 2379              		.cfi_offset 14, -4
 2380 0002 88B0     		sub	sp, sp, #32
 2381              		.cfi_def_cfa_offset 40
 2382 0004 00AF     		add	r7, sp, #0
 2383              		.cfi_def_cfa_register 7
 2384 0006 7860     		str	r0, [r7, #4]
 2385 0008 3960     		str	r1, [r7]
1204:Drivers/STM32L4xx_HAL_Driver/Src/stm32l4xx_ll_sdmmc.c ****   SDMMC_CmdInitTypeDef  sdmmc_cmdinit;
1205:Drivers/STM32L4xx_HAL_Driver/Src/stm32l4xx_ll_sdmmc.c ****   uint32_t errorstate;
1206:Drivers/STM32L4xx_HAL_Driver/Src/stm32l4xx_ll_sdmmc.c **** 
1207:Drivers/STM32L4xx_HAL_Driver/Src/stm32l4xx_ll_sdmmc.c ****   /* Send CMD6 to activate SDR50 Mode and Power Limit 1.44W */
1208:Drivers/STM32L4xx_HAL_Driver/Src/stm32l4xx_ll_sdmmc.c ****   /* CMD Response: R1 */
1209:Drivers/STM32L4xx_HAL_Driver/Src/stm32l4xx_ll_sdmmc.c ****   sdmmc_cmdinit.Argument         = Argument; /* SDMMC_SDR25_SWITCH_PATTERN;*/
 2386              		.loc 1 1209 34
 2387 000a 3B68     		ldr	r3, [r7]
 2388 000c BB60     		str	r3, [r7, #8]
1210:Drivers/STM32L4xx_HAL_Driver/Src/stm32l4xx_ll_sdmmc.c ****   sdmmc_cmdinit.CmdIndex         = SDMMC_CMD_HS_SWITCH;
 2389              		.loc 1 1210 34
 2390 000e 0623     		movs	r3, #6
 2391 0010 FB60     		str	r3, [r7, #12]
1211:Drivers/STM32L4xx_HAL_Driver/Src/stm32l4xx_ll_sdmmc.c ****   sdmmc_cmdinit.Response         = SDMMC_RESPONSE_SHORT;
ARM GAS  C:\Users\Morroway\AppData\Local\Temp\cc18sEAf.s 			page 63


 2392              		.loc 1 1211 34
 2393 0012 4FF48073 		mov	r3, #256
 2394 0016 3B61     		str	r3, [r7, #16]
1212:Drivers/STM32L4xx_HAL_Driver/Src/stm32l4xx_ll_sdmmc.c ****   sdmmc_cmdinit.WaitForInterrupt = SDMMC_WAIT_NO;
 2395              		.loc 1 1212 34
 2396 0018 0023     		movs	r3, #0
 2397 001a 7B61     		str	r3, [r7, #20]
1213:Drivers/STM32L4xx_HAL_Driver/Src/stm32l4xx_ll_sdmmc.c ****   sdmmc_cmdinit.CPSM             = SDMMC_CPSM_ENABLE;
 2398              		.loc 1 1213 34
 2399 001c 4FF48053 		mov	r3, #4096
 2400 0020 BB61     		str	r3, [r7, #24]
1214:Drivers/STM32L4xx_HAL_Driver/Src/stm32l4xx_ll_sdmmc.c ****   (void)SDMMC_SendCommand(SDMMCx, &sdmmc_cmdinit);
 2401              		.loc 1 1214 9
 2402 0022 07F10803 		add	r3, r7, #8
 2403 0026 1946     		mov	r1, r3
 2404 0028 7868     		ldr	r0, [r7, #4]
 2405 002a FFF7FEFF 		bl	SDMMC_SendCommand
1215:Drivers/STM32L4xx_HAL_Driver/Src/stm32l4xx_ll_sdmmc.c **** 
1216:Drivers/STM32L4xx_HAL_Driver/Src/stm32l4xx_ll_sdmmc.c ****   /* Check for error conditions */
1217:Drivers/STM32L4xx_HAL_Driver/Src/stm32l4xx_ll_sdmmc.c ****   errorstate = SDMMC_GetCmdResp1(SDMMCx, SDMMC_CMD_HS_SWITCH, SDMMC_CMDTIMEOUT);
 2406              		.loc 1 1217 16
 2407 002e 41F28832 		movw	r2, #5000
 2408 0032 0621     		movs	r1, #6
 2409 0034 7868     		ldr	r0, [r7, #4]
 2410 0036 FFF7FEFF 		bl	SDMMC_GetCmdResp1
 2411 003a F861     		str	r0, [r7, #28]
1218:Drivers/STM32L4xx_HAL_Driver/Src/stm32l4xx_ll_sdmmc.c **** 
1219:Drivers/STM32L4xx_HAL_Driver/Src/stm32l4xx_ll_sdmmc.c ****   return errorstate;
 2412              		.loc 1 1219 10
 2413 003c FB69     		ldr	r3, [r7, #28]
1220:Drivers/STM32L4xx_HAL_Driver/Src/stm32l4xx_ll_sdmmc.c **** }
 2414              		.loc 1 1220 1
 2415 003e 1846     		mov	r0, r3
 2416 0040 2037     		adds	r7, r7, #32
 2417              		.cfi_def_cfa_offset 8
 2418 0042 BD46     		mov	sp, r7
 2419              		.cfi_def_cfa_register 13
 2420              		@ sp needed
 2421 0044 80BD     		pop	{r7, pc}
 2422              		.cfi_endproc
 2423              	.LFE361:
 2425              		.section	.text.SDMMC_CmdVoltageSwitch,"ax",%progbits
 2426              		.align	1
 2427              		.global	SDMMC_CmdVoltageSwitch
 2428              		.syntax unified
 2429              		.thumb
 2430              		.thumb_func
 2432              	SDMMC_CmdVoltageSwitch:
 2433              	.LFB362:
1221:Drivers/STM32L4xx_HAL_Driver/Src/stm32l4xx_ll_sdmmc.c **** 
1222:Drivers/STM32L4xx_HAL_Driver/Src/stm32l4xx_ll_sdmmc.c **** #if defined(STM32L4P5xx) || defined(STM32L4Q5xx) || defined(STM32L4R5xx) || defined(STM32L4R7xx) ||
1223:Drivers/STM32L4xx_HAL_Driver/Src/stm32l4xx_ll_sdmmc.c **** /**
1224:Drivers/STM32L4xx_HAL_Driver/Src/stm32l4xx_ll_sdmmc.c ****   * @brief  Send the command asking the accessed card to send its operating
1225:Drivers/STM32L4xx_HAL_Driver/Src/stm32l4xx_ll_sdmmc.c ****   *         condition register (OCR)
1226:Drivers/STM32L4xx_HAL_Driver/Src/stm32l4xx_ll_sdmmc.c ****   * @param  None
1227:Drivers/STM32L4xx_HAL_Driver/Src/stm32l4xx_ll_sdmmc.c ****   * @retval HAL status
1228:Drivers/STM32L4xx_HAL_Driver/Src/stm32l4xx_ll_sdmmc.c ****   */
ARM GAS  C:\Users\Morroway\AppData\Local\Temp\cc18sEAf.s 			page 64


1229:Drivers/STM32L4xx_HAL_Driver/Src/stm32l4xx_ll_sdmmc.c **** uint32_t SDMMC_CmdVoltageSwitch(SDMMC_TypeDef *SDMMCx)
1230:Drivers/STM32L4xx_HAL_Driver/Src/stm32l4xx_ll_sdmmc.c **** {
 2434              		.loc 1 1230 1
 2435              		.cfi_startproc
 2436              		@ args = 0, pretend = 0, frame = 32
 2437              		@ frame_needed = 1, uses_anonymous_args = 0
 2438 0000 80B5     		push	{r7, lr}
 2439              		.cfi_def_cfa_offset 8
 2440              		.cfi_offset 7, -8
 2441              		.cfi_offset 14, -4
 2442 0002 88B0     		sub	sp, sp, #32
 2443              		.cfi_def_cfa_offset 40
 2444 0004 00AF     		add	r7, sp, #0
 2445              		.cfi_def_cfa_register 7
 2446 0006 7860     		str	r0, [r7, #4]
1231:Drivers/STM32L4xx_HAL_Driver/Src/stm32l4xx_ll_sdmmc.c ****   SDMMC_CmdInitTypeDef  sdmmc_cmdinit;
1232:Drivers/STM32L4xx_HAL_Driver/Src/stm32l4xx_ll_sdmmc.c ****   uint32_t errorstate;
1233:Drivers/STM32L4xx_HAL_Driver/Src/stm32l4xx_ll_sdmmc.c **** 
1234:Drivers/STM32L4xx_HAL_Driver/Src/stm32l4xx_ll_sdmmc.c ****   sdmmc_cmdinit.Argument         = 0x00000000;
 2447              		.loc 1 1234 34
 2448 0008 0023     		movs	r3, #0
 2449 000a BB60     		str	r3, [r7, #8]
1235:Drivers/STM32L4xx_HAL_Driver/Src/stm32l4xx_ll_sdmmc.c ****   sdmmc_cmdinit.CmdIndex         = SDMMC_CMD_VOLTAGE_SWITCH;
 2450              		.loc 1 1235 34
 2451 000c 0B23     		movs	r3, #11
 2452 000e FB60     		str	r3, [r7, #12]
1236:Drivers/STM32L4xx_HAL_Driver/Src/stm32l4xx_ll_sdmmc.c ****   sdmmc_cmdinit.Response         = SDMMC_RESPONSE_SHORT;
 2453              		.loc 1 1236 34
 2454 0010 4FF48073 		mov	r3, #256
 2455 0014 3B61     		str	r3, [r7, #16]
1237:Drivers/STM32L4xx_HAL_Driver/Src/stm32l4xx_ll_sdmmc.c ****   sdmmc_cmdinit.WaitForInterrupt = SDMMC_WAIT_NO;
 2456              		.loc 1 1237 34
 2457 0016 0023     		movs	r3, #0
 2458 0018 7B61     		str	r3, [r7, #20]
1238:Drivers/STM32L4xx_HAL_Driver/Src/stm32l4xx_ll_sdmmc.c ****   sdmmc_cmdinit.CPSM             = SDMMC_CPSM_ENABLE;
 2459              		.loc 1 1238 34
 2460 001a 4FF48053 		mov	r3, #4096
 2461 001e BB61     		str	r3, [r7, #24]
1239:Drivers/STM32L4xx_HAL_Driver/Src/stm32l4xx_ll_sdmmc.c ****   (void)SDMMC_SendCommand(SDMMCx, &sdmmc_cmdinit);
 2462              		.loc 1 1239 9
 2463 0020 07F10803 		add	r3, r7, #8
 2464 0024 1946     		mov	r1, r3
 2465 0026 7868     		ldr	r0, [r7, #4]
 2466 0028 FFF7FEFF 		bl	SDMMC_SendCommand
1240:Drivers/STM32L4xx_HAL_Driver/Src/stm32l4xx_ll_sdmmc.c **** 
1241:Drivers/STM32L4xx_HAL_Driver/Src/stm32l4xx_ll_sdmmc.c ****   /* Check for error conditions */
1242:Drivers/STM32L4xx_HAL_Driver/Src/stm32l4xx_ll_sdmmc.c ****   errorstate = SDMMC_GetCmdResp1(SDMMCx, SDMMC_CMD_VOLTAGE_SWITCH, SDMMC_CMDTIMEOUT);
 2467              		.loc 1 1242 16
 2468 002c 41F28832 		movw	r2, #5000
 2469 0030 0B21     		movs	r1, #11
 2470 0032 7868     		ldr	r0, [r7, #4]
 2471 0034 FFF7FEFF 		bl	SDMMC_GetCmdResp1
 2472 0038 F861     		str	r0, [r7, #28]
1243:Drivers/STM32L4xx_HAL_Driver/Src/stm32l4xx_ll_sdmmc.c **** 
1244:Drivers/STM32L4xx_HAL_Driver/Src/stm32l4xx_ll_sdmmc.c ****   return errorstate;
 2473              		.loc 1 1244 10
 2474 003a FB69     		ldr	r3, [r7, #28]
ARM GAS  C:\Users\Morroway\AppData\Local\Temp\cc18sEAf.s 			page 65


1245:Drivers/STM32L4xx_HAL_Driver/Src/stm32l4xx_ll_sdmmc.c **** }
 2475              		.loc 1 1245 1
 2476 003c 1846     		mov	r0, r3
 2477 003e 2037     		adds	r7, r7, #32
 2478              		.cfi_def_cfa_offset 8
 2479 0040 BD46     		mov	sp, r7
 2480              		.cfi_def_cfa_register 13
 2481              		@ sp needed
 2482 0042 80BD     		pop	{r7, pc}
 2483              		.cfi_endproc
 2484              	.LFE362:
 2486              		.section	.text.SDMMC_CmdSendEXTCSD,"ax",%progbits
 2487              		.align	1
 2488              		.global	SDMMC_CmdSendEXTCSD
 2489              		.syntax unified
 2490              		.thumb
 2491              		.thumb_func
 2493              	SDMMC_CmdSendEXTCSD:
 2494              	.LFB363:
1246:Drivers/STM32L4xx_HAL_Driver/Src/stm32l4xx_ll_sdmmc.c **** #endif /* STM32L4R5xx || STM32L4R7xx || STM32L4R9xx || STM32L4S5xx || STM32L4S7xx || STM32L4S9xx */
1247:Drivers/STM32L4xx_HAL_Driver/Src/stm32l4xx_ll_sdmmc.c **** 
1248:Drivers/STM32L4xx_HAL_Driver/Src/stm32l4xx_ll_sdmmc.c **** /**
1249:Drivers/STM32L4xx_HAL_Driver/Src/stm32l4xx_ll_sdmmc.c ****   * @brief  Send the Send EXT_CSD command and check the response.
1250:Drivers/STM32L4xx_HAL_Driver/Src/stm32l4xx_ll_sdmmc.c ****   * @param  SDMMCx Pointer to SDMMC register base
1251:Drivers/STM32L4xx_HAL_Driver/Src/stm32l4xx_ll_sdmmc.c ****   * @param  Argument Command Argument
1252:Drivers/STM32L4xx_HAL_Driver/Src/stm32l4xx_ll_sdmmc.c ****   * @retval HAL status
1253:Drivers/STM32L4xx_HAL_Driver/Src/stm32l4xx_ll_sdmmc.c ****   */
1254:Drivers/STM32L4xx_HAL_Driver/Src/stm32l4xx_ll_sdmmc.c **** uint32_t SDMMC_CmdSendEXTCSD(SDMMC_TypeDef *SDMMCx, uint32_t Argument)
1255:Drivers/STM32L4xx_HAL_Driver/Src/stm32l4xx_ll_sdmmc.c **** {
 2495              		.loc 1 1255 1
 2496              		.cfi_startproc
 2497              		@ args = 0, pretend = 0, frame = 32
 2498              		@ frame_needed = 1, uses_anonymous_args = 0
 2499 0000 80B5     		push	{r7, lr}
 2500              		.cfi_def_cfa_offset 8
 2501              		.cfi_offset 7, -8
 2502              		.cfi_offset 14, -4
 2503 0002 88B0     		sub	sp, sp, #32
 2504              		.cfi_def_cfa_offset 40
 2505 0004 00AF     		add	r7, sp, #0
 2506              		.cfi_def_cfa_register 7
 2507 0006 7860     		str	r0, [r7, #4]
 2508 0008 3960     		str	r1, [r7]
1256:Drivers/STM32L4xx_HAL_Driver/Src/stm32l4xx_ll_sdmmc.c ****   SDMMC_CmdInitTypeDef  sdmmc_cmdinit;
1257:Drivers/STM32L4xx_HAL_Driver/Src/stm32l4xx_ll_sdmmc.c ****   uint32_t errorstate;
1258:Drivers/STM32L4xx_HAL_Driver/Src/stm32l4xx_ll_sdmmc.c **** 
1259:Drivers/STM32L4xx_HAL_Driver/Src/stm32l4xx_ll_sdmmc.c ****   /* Send CMD9 SEND_CSD */
1260:Drivers/STM32L4xx_HAL_Driver/Src/stm32l4xx_ll_sdmmc.c ****   sdmmc_cmdinit.Argument         = Argument;
 2509              		.loc 1 1260 34
 2510 000a 3B68     		ldr	r3, [r7]
 2511 000c BB60     		str	r3, [r7, #8]
1261:Drivers/STM32L4xx_HAL_Driver/Src/stm32l4xx_ll_sdmmc.c ****   sdmmc_cmdinit.CmdIndex         = SDMMC_CMD_HS_SEND_EXT_CSD;
 2512              		.loc 1 1261 34
 2513 000e 0823     		movs	r3, #8
 2514 0010 FB60     		str	r3, [r7, #12]
1262:Drivers/STM32L4xx_HAL_Driver/Src/stm32l4xx_ll_sdmmc.c ****   sdmmc_cmdinit.Response         = SDMMC_RESPONSE_SHORT;
 2515              		.loc 1 1262 34
ARM GAS  C:\Users\Morroway\AppData\Local\Temp\cc18sEAf.s 			page 66


 2516 0012 4FF48073 		mov	r3, #256
 2517 0016 3B61     		str	r3, [r7, #16]
1263:Drivers/STM32L4xx_HAL_Driver/Src/stm32l4xx_ll_sdmmc.c ****   sdmmc_cmdinit.WaitForInterrupt = SDMMC_WAIT_NO;
 2518              		.loc 1 1263 34
 2519 0018 0023     		movs	r3, #0
 2520 001a 7B61     		str	r3, [r7, #20]
1264:Drivers/STM32L4xx_HAL_Driver/Src/stm32l4xx_ll_sdmmc.c ****   sdmmc_cmdinit.CPSM             = SDMMC_CPSM_ENABLE;
 2521              		.loc 1 1264 34
 2522 001c 4FF48053 		mov	r3, #4096
 2523 0020 BB61     		str	r3, [r7, #24]
1265:Drivers/STM32L4xx_HAL_Driver/Src/stm32l4xx_ll_sdmmc.c ****   (void)SDMMC_SendCommand(SDMMCx, &sdmmc_cmdinit);
 2524              		.loc 1 1265 9
 2525 0022 07F10803 		add	r3, r7, #8
 2526 0026 1946     		mov	r1, r3
 2527 0028 7868     		ldr	r0, [r7, #4]
 2528 002a FFF7FEFF 		bl	SDMMC_SendCommand
1266:Drivers/STM32L4xx_HAL_Driver/Src/stm32l4xx_ll_sdmmc.c **** 
1267:Drivers/STM32L4xx_HAL_Driver/Src/stm32l4xx_ll_sdmmc.c ****   /* Check for error conditions */
1268:Drivers/STM32L4xx_HAL_Driver/Src/stm32l4xx_ll_sdmmc.c ****   errorstate = SDMMC_GetCmdResp1(SDMMCx, SDMMC_CMD_HS_SEND_EXT_CSD,SDMMC_CMDTIMEOUT);
 2529              		.loc 1 1268 16
 2530 002e 41F28832 		movw	r2, #5000
 2531 0032 0821     		movs	r1, #8
 2532 0034 7868     		ldr	r0, [r7, #4]
 2533 0036 FFF7FEFF 		bl	SDMMC_GetCmdResp1
 2534 003a F861     		str	r0, [r7, #28]
1269:Drivers/STM32L4xx_HAL_Driver/Src/stm32l4xx_ll_sdmmc.c **** 
1270:Drivers/STM32L4xx_HAL_Driver/Src/stm32l4xx_ll_sdmmc.c ****   return errorstate;
 2535              		.loc 1 1270 10
 2536 003c FB69     		ldr	r3, [r7, #28]
1271:Drivers/STM32L4xx_HAL_Driver/Src/stm32l4xx_ll_sdmmc.c **** }
 2537              		.loc 1 1271 1
 2538 003e 1846     		mov	r0, r3
 2539 0040 2037     		adds	r7, r7, #32
 2540              		.cfi_def_cfa_offset 8
 2541 0042 BD46     		mov	sp, r7
 2542              		.cfi_def_cfa_register 13
 2543              		@ sp needed
 2544 0044 80BD     		pop	{r7, pc}
 2545              		.cfi_endproc
 2546              	.LFE363:
 2548              		.section	.text.SDMMC_GetCmdResp1,"ax",%progbits
 2549              		.align	1
 2550              		.global	SDMMC_GetCmdResp1
 2551              		.syntax unified
 2552              		.thumb
 2553              		.thumb_func
 2555              	SDMMC_GetCmdResp1:
 2556              	.LFB364:
1272:Drivers/STM32L4xx_HAL_Driver/Src/stm32l4xx_ll_sdmmc.c **** 
1273:Drivers/STM32L4xx_HAL_Driver/Src/stm32l4xx_ll_sdmmc.c **** /**
1274:Drivers/STM32L4xx_HAL_Driver/Src/stm32l4xx_ll_sdmmc.c ****   * @}
1275:Drivers/STM32L4xx_HAL_Driver/Src/stm32l4xx_ll_sdmmc.c ****   */
1276:Drivers/STM32L4xx_HAL_Driver/Src/stm32l4xx_ll_sdmmc.c **** 
1277:Drivers/STM32L4xx_HAL_Driver/Src/stm32l4xx_ll_sdmmc.c **** /** @defgroup HAL_SDMMC_LL_Group5 Responses management functions
1278:Drivers/STM32L4xx_HAL_Driver/Src/stm32l4xx_ll_sdmmc.c ****  *  @brief   Responses functions
1279:Drivers/STM32L4xx_HAL_Driver/Src/stm32l4xx_ll_sdmmc.c ****  *
1280:Drivers/STM32L4xx_HAL_Driver/Src/stm32l4xx_ll_sdmmc.c **** @verbatim
ARM GAS  C:\Users\Morroway\AppData\Local\Temp\cc18sEAf.s 			page 67


1281:Drivers/STM32L4xx_HAL_Driver/Src/stm32l4xx_ll_sdmmc.c ****  ===============================================================================
1282:Drivers/STM32L4xx_HAL_Driver/Src/stm32l4xx_ll_sdmmc.c ****                    ##### Responses management functions #####
1283:Drivers/STM32L4xx_HAL_Driver/Src/stm32l4xx_ll_sdmmc.c ****  ===============================================================================
1284:Drivers/STM32L4xx_HAL_Driver/Src/stm32l4xx_ll_sdmmc.c ****     [..]
1285:Drivers/STM32L4xx_HAL_Driver/Src/stm32l4xx_ll_sdmmc.c ****     This subsection provides a set of functions allowing to manage the needed responses.
1286:Drivers/STM32L4xx_HAL_Driver/Src/stm32l4xx_ll_sdmmc.c **** 
1287:Drivers/STM32L4xx_HAL_Driver/Src/stm32l4xx_ll_sdmmc.c **** @endverbatim
1288:Drivers/STM32L4xx_HAL_Driver/Src/stm32l4xx_ll_sdmmc.c ****   * @{
1289:Drivers/STM32L4xx_HAL_Driver/Src/stm32l4xx_ll_sdmmc.c ****   */
1290:Drivers/STM32L4xx_HAL_Driver/Src/stm32l4xx_ll_sdmmc.c **** /**
1291:Drivers/STM32L4xx_HAL_Driver/Src/stm32l4xx_ll_sdmmc.c ****   * @brief  Checks for error conditions for R1 response.
1292:Drivers/STM32L4xx_HAL_Driver/Src/stm32l4xx_ll_sdmmc.c ****   * @param  hsd SD handle
1293:Drivers/STM32L4xx_HAL_Driver/Src/stm32l4xx_ll_sdmmc.c ****   * @param  SD_CMD The sent command index
1294:Drivers/STM32L4xx_HAL_Driver/Src/stm32l4xx_ll_sdmmc.c ****   * @retval SD Card error state
1295:Drivers/STM32L4xx_HAL_Driver/Src/stm32l4xx_ll_sdmmc.c ****   */
1296:Drivers/STM32L4xx_HAL_Driver/Src/stm32l4xx_ll_sdmmc.c **** uint32_t SDMMC_GetCmdResp1(SDMMC_TypeDef *SDMMCx, uint8_t SD_CMD, uint32_t Timeout)
1297:Drivers/STM32L4xx_HAL_Driver/Src/stm32l4xx_ll_sdmmc.c **** {
 2557              		.loc 1 1297 1
 2558              		.cfi_startproc
 2559              		@ args = 0, pretend = 0, frame = 32
 2560              		@ frame_needed = 1, uses_anonymous_args = 0
 2561 0000 80B5     		push	{r7, lr}
 2562              		.cfi_def_cfa_offset 8
 2563              		.cfi_offset 7, -8
 2564              		.cfi_offset 14, -4
 2565 0002 88B0     		sub	sp, sp, #32
 2566              		.cfi_def_cfa_offset 40
 2567 0004 00AF     		add	r7, sp, #0
 2568              		.cfi_def_cfa_register 7
 2569 0006 F860     		str	r0, [r7, #12]
 2570 0008 0B46     		mov	r3, r1
 2571 000a 7A60     		str	r2, [r7, #4]
 2572 000c FB72     		strb	r3, [r7, #11]
1298:Drivers/STM32L4xx_HAL_Driver/Src/stm32l4xx_ll_sdmmc.c ****   uint32_t response_r1;
1299:Drivers/STM32L4xx_HAL_Driver/Src/stm32l4xx_ll_sdmmc.c ****   uint32_t sta_reg;
1300:Drivers/STM32L4xx_HAL_Driver/Src/stm32l4xx_ll_sdmmc.c **** 
1301:Drivers/STM32L4xx_HAL_Driver/Src/stm32l4xx_ll_sdmmc.c ****   /* 8 is the number of required instructions cycles for the below loop statement.
1302:Drivers/STM32L4xx_HAL_Driver/Src/stm32l4xx_ll_sdmmc.c ****   The Timeout is expressed in ms */
1303:Drivers/STM32L4xx_HAL_Driver/Src/stm32l4xx_ll_sdmmc.c ****   uint32_t count = Timeout * (SystemCoreClock / 8U /1000U);
 2573              		.loc 1 1303 52
 2574 000e 704B     		ldr	r3, .L119
 2575 0010 1B68     		ldr	r3, [r3]
 2576 0012 704A     		ldr	r2, .L119+4
 2577 0014 A2FB0323 		umull	r2, r3, r2, r3
 2578 0018 5A0A     		lsrs	r2, r3, #9
 2579              		.loc 1 1303 12
 2580 001a 7B68     		ldr	r3, [r7, #4]
 2581 001c 02FB03F3 		mul	r3, r2, r3
 2582 0020 FB61     		str	r3, [r7, #28]
 2583              	.L96:
1304:Drivers/STM32L4xx_HAL_Driver/Src/stm32l4xx_ll_sdmmc.c **** 
1305:Drivers/STM32L4xx_HAL_Driver/Src/stm32l4xx_ll_sdmmc.c ****   do
1306:Drivers/STM32L4xx_HAL_Driver/Src/stm32l4xx_ll_sdmmc.c ****   {
1307:Drivers/STM32L4xx_HAL_Driver/Src/stm32l4xx_ll_sdmmc.c ****     if (count-- == 0U)
 2584              		.loc 1 1307 14
 2585 0022 FB69     		ldr	r3, [r7, #28]
 2586 0024 5A1E     		subs	r2, r3, #1
ARM GAS  C:\Users\Morroway\AppData\Local\Temp\cc18sEAf.s 			page 68


 2587 0026 FA61     		str	r2, [r7, #28]
 2588              		.loc 1 1307 8
 2589 0028 002B     		cmp	r3, #0
 2590 002a 02D1     		bne	.L94
1308:Drivers/STM32L4xx_HAL_Driver/Src/stm32l4xx_ll_sdmmc.c ****     {
1309:Drivers/STM32L4xx_HAL_Driver/Src/stm32l4xx_ll_sdmmc.c ****       return SDMMC_ERROR_TIMEOUT;
 2591              		.loc 1 1309 14
 2592 002c 4FF00043 		mov	r3, #-2147483648
 2593 0030 C9E0     		b	.L95
 2594              	.L94:
1310:Drivers/STM32L4xx_HAL_Driver/Src/stm32l4xx_ll_sdmmc.c ****     }
1311:Drivers/STM32L4xx_HAL_Driver/Src/stm32l4xx_ll_sdmmc.c ****     sta_reg = SDMMCx->STA;
 2595              		.loc 1 1311 13
 2596 0032 FB68     		ldr	r3, [r7, #12]
 2597 0034 5B6B     		ldr	r3, [r3, #52]
 2598 0036 BB61     		str	r3, [r7, #24]
1312:Drivers/STM32L4xx_HAL_Driver/Src/stm32l4xx_ll_sdmmc.c **** #if defined(STM32L4P5xx) || defined(STM32L4Q5xx) || defined(STM32L4R5xx) || defined(STM32L4R7xx) ||
1313:Drivers/STM32L4xx_HAL_Driver/Src/stm32l4xx_ll_sdmmc.c ****   }while(((sta_reg & (SDMMC_FLAG_CCRCFAIL | SDMMC_FLAG_CMDREND | SDMMC_FLAG_CTIMEOUT | SDMMC_FLAG_B
 2599              		.loc 1 1313 20
 2600 0038 BA69     		ldr	r2, [r7, #24]
 2601 003a 674B     		ldr	r3, .L119+8
 2602 003c 1340     		ands	r3, r3, r2
 2603              		.loc 1 1313 118
 2604 003e 002B     		cmp	r3, #0
 2605 0040 EFD0     		beq	.L96
1314:Drivers/STM32L4xx_HAL_Driver/Src/stm32l4xx_ll_sdmmc.c ****          ((sta_reg & SDMMC_FLAG_CMDACT) != 0U ));
 2606              		.loc 1 1314 20 discriminator 1
 2607 0042 BB69     		ldr	r3, [r7, #24]
 2608 0044 03F40053 		and	r3, r3, #8192
1313:Drivers/STM32L4xx_HAL_Driver/Src/stm32l4xx_ll_sdmmc.c ****          ((sta_reg & SDMMC_FLAG_CMDACT) != 0U ));
 2609              		.loc 1 1313 118 discriminator 1
 2610 0048 002B     		cmp	r3, #0
 2611 004a EAD1     		bne	.L96
1315:Drivers/STM32L4xx_HAL_Driver/Src/stm32l4xx_ll_sdmmc.c **** #else
1316:Drivers/STM32L4xx_HAL_Driver/Src/stm32l4xx_ll_sdmmc.c ****   }while(((sta_reg & (SDMMC_FLAG_CCRCFAIL | SDMMC_FLAG_CMDREND | SDMMC_FLAG_CTIMEOUT)) == 0U) ||
1317:Drivers/STM32L4xx_HAL_Driver/Src/stm32l4xx_ll_sdmmc.c ****          ((sta_reg & SDMMC_FLAG_CMDACT) != 0U ));
1318:Drivers/STM32L4xx_HAL_Driver/Src/stm32l4xx_ll_sdmmc.c **** #endif /* STM32L4P5xx || STM32L4Q5xx || STM32L4R5xx || STM32L4R7xx || STM32L4R9xx || STM32L4S5xx ||
1319:Drivers/STM32L4xx_HAL_Driver/Src/stm32l4xx_ll_sdmmc.c **** 
1320:Drivers/STM32L4xx_HAL_Driver/Src/stm32l4xx_ll_sdmmc.c ****   if(__SDMMC_GET_FLAG(SDMMCx, SDMMC_FLAG_CTIMEOUT))
 2612              		.loc 1 1320 6
 2613 004c FB68     		ldr	r3, [r7, #12]
 2614 004e 5B6B     		ldr	r3, [r3, #52]
 2615 0050 03F00403 		and	r3, r3, #4
 2616              		.loc 1 1320 5
 2617 0054 002B     		cmp	r3, #0
 2618 0056 04D0     		beq	.L97
1321:Drivers/STM32L4xx_HAL_Driver/Src/stm32l4xx_ll_sdmmc.c ****   {
1322:Drivers/STM32L4xx_HAL_Driver/Src/stm32l4xx_ll_sdmmc.c ****     __SDMMC_CLEAR_FLAG(SDMMCx, SDMMC_FLAG_CTIMEOUT);
 2619              		.loc 1 1322 5
 2620 0058 FB68     		ldr	r3, [r7, #12]
 2621 005a 0422     		movs	r2, #4
 2622 005c 9A63     		str	r2, [r3, #56]
1323:Drivers/STM32L4xx_HAL_Driver/Src/stm32l4xx_ll_sdmmc.c **** 
1324:Drivers/STM32L4xx_HAL_Driver/Src/stm32l4xx_ll_sdmmc.c ****     return SDMMC_ERROR_CMD_RSP_TIMEOUT;
 2623              		.loc 1 1324 12
 2624 005e 0423     		movs	r3, #4
 2625 0060 B1E0     		b	.L95
ARM GAS  C:\Users\Morroway\AppData\Local\Temp\cc18sEAf.s 			page 69


 2626              	.L97:
1325:Drivers/STM32L4xx_HAL_Driver/Src/stm32l4xx_ll_sdmmc.c ****   }
1326:Drivers/STM32L4xx_HAL_Driver/Src/stm32l4xx_ll_sdmmc.c ****   else if(__SDMMC_GET_FLAG(SDMMCx, SDMMC_FLAG_CCRCFAIL))
 2627              		.loc 1 1326 11
 2628 0062 FB68     		ldr	r3, [r7, #12]
 2629 0064 5B6B     		ldr	r3, [r3, #52]
 2630 0066 03F00103 		and	r3, r3, #1
 2631              		.loc 1 1326 10
 2632 006a 002B     		cmp	r3, #0
 2633 006c 04D0     		beq	.L98
1327:Drivers/STM32L4xx_HAL_Driver/Src/stm32l4xx_ll_sdmmc.c ****   {
1328:Drivers/STM32L4xx_HAL_Driver/Src/stm32l4xx_ll_sdmmc.c ****     __SDMMC_CLEAR_FLAG(SDMMCx, SDMMC_FLAG_CCRCFAIL);
 2634              		.loc 1 1328 5
 2635 006e FB68     		ldr	r3, [r7, #12]
 2636 0070 0122     		movs	r2, #1
 2637 0072 9A63     		str	r2, [r3, #56]
1329:Drivers/STM32L4xx_HAL_Driver/Src/stm32l4xx_ll_sdmmc.c **** 
1330:Drivers/STM32L4xx_HAL_Driver/Src/stm32l4xx_ll_sdmmc.c ****     return SDMMC_ERROR_CMD_CRC_FAIL;
 2638              		.loc 1 1330 12
 2639 0074 0123     		movs	r3, #1
 2640 0076 A6E0     		b	.L95
 2641              	.L98:
1331:Drivers/STM32L4xx_HAL_Driver/Src/stm32l4xx_ll_sdmmc.c ****   }
1332:Drivers/STM32L4xx_HAL_Driver/Src/stm32l4xx_ll_sdmmc.c ****   else
1333:Drivers/STM32L4xx_HAL_Driver/Src/stm32l4xx_ll_sdmmc.c ****   {
1334:Drivers/STM32L4xx_HAL_Driver/Src/stm32l4xx_ll_sdmmc.c ****     /* Nothing to do */
1335:Drivers/STM32L4xx_HAL_Driver/Src/stm32l4xx_ll_sdmmc.c ****   }
1336:Drivers/STM32L4xx_HAL_Driver/Src/stm32l4xx_ll_sdmmc.c **** 
1337:Drivers/STM32L4xx_HAL_Driver/Src/stm32l4xx_ll_sdmmc.c ****   /* Clear all the static flags */
1338:Drivers/STM32L4xx_HAL_Driver/Src/stm32l4xx_ll_sdmmc.c ****   __SDMMC_CLEAR_FLAG(SDMMCx, SDMMC_STATIC_CMD_FLAGS);
 2642              		.loc 1 1338 3
 2643 0078 FB68     		ldr	r3, [r7, #12]
 2644 007a 584A     		ldr	r2, .L119+12
 2645 007c 9A63     		str	r2, [r3, #56]
1339:Drivers/STM32L4xx_HAL_Driver/Src/stm32l4xx_ll_sdmmc.c **** 
1340:Drivers/STM32L4xx_HAL_Driver/Src/stm32l4xx_ll_sdmmc.c ****   /* Check response received is of desired command */
1341:Drivers/STM32L4xx_HAL_Driver/Src/stm32l4xx_ll_sdmmc.c ****   if(SDMMC_GetCommandResponse(SDMMCx) != SD_CMD)
 2646              		.loc 1 1341 6
 2647 007e F868     		ldr	r0, [r7, #12]
 2648 0080 FFF7FEFF 		bl	SDMMC_GetCommandResponse
 2649 0084 0346     		mov	r3, r0
 2650 0086 1A46     		mov	r2, r3
 2651              		.loc 1 1341 5
 2652 0088 FB7A     		ldrb	r3, [r7, #11]	@ zero_extendqisi2
 2653 008a 9342     		cmp	r3, r2
 2654 008c 01D0     		beq	.L99
1342:Drivers/STM32L4xx_HAL_Driver/Src/stm32l4xx_ll_sdmmc.c ****   {
1343:Drivers/STM32L4xx_HAL_Driver/Src/stm32l4xx_ll_sdmmc.c ****     return SDMMC_ERROR_CMD_CRC_FAIL;
 2655              		.loc 1 1343 12
 2656 008e 0123     		movs	r3, #1
 2657 0090 99E0     		b	.L95
 2658              	.L99:
1344:Drivers/STM32L4xx_HAL_Driver/Src/stm32l4xx_ll_sdmmc.c ****   }
1345:Drivers/STM32L4xx_HAL_Driver/Src/stm32l4xx_ll_sdmmc.c **** 
1346:Drivers/STM32L4xx_HAL_Driver/Src/stm32l4xx_ll_sdmmc.c ****   /* We have received response, retrieve it for analysis  */
1347:Drivers/STM32L4xx_HAL_Driver/Src/stm32l4xx_ll_sdmmc.c ****   response_r1 = SDMMC_GetResponse(SDMMCx, SDMMC_RESP1);
 2659              		.loc 1 1347 17
ARM GAS  C:\Users\Morroway\AppData\Local\Temp\cc18sEAf.s 			page 70


 2660 0092 0021     		movs	r1, #0
 2661 0094 F868     		ldr	r0, [r7, #12]
 2662 0096 FFF7FEFF 		bl	SDMMC_GetResponse
 2663 009a 7861     		str	r0, [r7, #20]
1348:Drivers/STM32L4xx_HAL_Driver/Src/stm32l4xx_ll_sdmmc.c **** 
1349:Drivers/STM32L4xx_HAL_Driver/Src/stm32l4xx_ll_sdmmc.c ****   if((response_r1 & SDMMC_OCR_ERRORBITS) == SDMMC_ALLZERO)
 2664              		.loc 1 1349 19
 2665 009c 7A69     		ldr	r2, [r7, #20]
 2666 009e 504B     		ldr	r3, .L119+16
 2667 00a0 1340     		ands	r3, r3, r2
 2668              		.loc 1 1349 5
 2669 00a2 002B     		cmp	r3, #0
 2670 00a4 01D1     		bne	.L100
1350:Drivers/STM32L4xx_HAL_Driver/Src/stm32l4xx_ll_sdmmc.c ****   {
1351:Drivers/STM32L4xx_HAL_Driver/Src/stm32l4xx_ll_sdmmc.c ****     return SDMMC_ERROR_NONE;
 2671              		.loc 1 1351 12
 2672 00a6 0023     		movs	r3, #0
 2673 00a8 8DE0     		b	.L95
 2674              	.L100:
1352:Drivers/STM32L4xx_HAL_Driver/Src/stm32l4xx_ll_sdmmc.c ****   }
1353:Drivers/STM32L4xx_HAL_Driver/Src/stm32l4xx_ll_sdmmc.c ****   else if((response_r1 & SDMMC_OCR_ADDR_OUT_OF_RANGE) == SDMMC_OCR_ADDR_OUT_OF_RANGE)
 2675              		.loc 1 1353 55
 2676 00aa 7B69     		ldr	r3, [r7, #20]
 2677              		.loc 1 1353 10
 2678 00ac 002B     		cmp	r3, #0
 2679 00ae 02DA     		bge	.L101
1354:Drivers/STM32L4xx_HAL_Driver/Src/stm32l4xx_ll_sdmmc.c ****   {
1355:Drivers/STM32L4xx_HAL_Driver/Src/stm32l4xx_ll_sdmmc.c ****     return SDMMC_ERROR_ADDR_OUT_OF_RANGE;
 2680              		.loc 1 1355 12
 2681 00b0 4FF00073 		mov	r3, #33554432
 2682 00b4 87E0     		b	.L95
 2683              	.L101:
1356:Drivers/STM32L4xx_HAL_Driver/Src/stm32l4xx_ll_sdmmc.c ****   }
1357:Drivers/STM32L4xx_HAL_Driver/Src/stm32l4xx_ll_sdmmc.c ****   else if((response_r1 & SDMMC_OCR_ADDR_MISALIGNED) == SDMMC_OCR_ADDR_MISALIGNED)
 2684              		.loc 1 1357 24
 2685 00b6 7B69     		ldr	r3, [r7, #20]
 2686 00b8 03F08043 		and	r3, r3, #1073741824
 2687              		.loc 1 1357 10
 2688 00bc 002B     		cmp	r3, #0
 2689 00be 01D0     		beq	.L102
1358:Drivers/STM32L4xx_HAL_Driver/Src/stm32l4xx_ll_sdmmc.c ****   {
1359:Drivers/STM32L4xx_HAL_Driver/Src/stm32l4xx_ll_sdmmc.c ****     return SDMMC_ERROR_ADDR_MISALIGNED;
 2690              		.loc 1 1359 12
 2691 00c0 4023     		movs	r3, #64
 2692 00c2 80E0     		b	.L95
 2693              	.L102:
1360:Drivers/STM32L4xx_HAL_Driver/Src/stm32l4xx_ll_sdmmc.c ****   }
1361:Drivers/STM32L4xx_HAL_Driver/Src/stm32l4xx_ll_sdmmc.c ****   else if((response_r1 & SDMMC_OCR_BLOCK_LEN_ERR) == SDMMC_OCR_BLOCK_LEN_ERR)
 2694              		.loc 1 1361 24
 2695 00c4 7B69     		ldr	r3, [r7, #20]
 2696 00c6 03F00053 		and	r3, r3, #536870912
 2697              		.loc 1 1361 10
 2698 00ca 002B     		cmp	r3, #0
 2699 00cc 01D0     		beq	.L103
1362:Drivers/STM32L4xx_HAL_Driver/Src/stm32l4xx_ll_sdmmc.c ****   {
1363:Drivers/STM32L4xx_HAL_Driver/Src/stm32l4xx_ll_sdmmc.c ****     return SDMMC_ERROR_BLOCK_LEN_ERR;
 2700              		.loc 1 1363 12
ARM GAS  C:\Users\Morroway\AppData\Local\Temp\cc18sEAf.s 			page 71


 2701 00ce 8023     		movs	r3, #128
 2702 00d0 79E0     		b	.L95
 2703              	.L103:
1364:Drivers/STM32L4xx_HAL_Driver/Src/stm32l4xx_ll_sdmmc.c ****   }
1365:Drivers/STM32L4xx_HAL_Driver/Src/stm32l4xx_ll_sdmmc.c ****   else if((response_r1 & SDMMC_OCR_ERASE_SEQ_ERR) == SDMMC_OCR_ERASE_SEQ_ERR)
 2704              		.loc 1 1365 24
 2705 00d2 7B69     		ldr	r3, [r7, #20]
 2706 00d4 03F08053 		and	r3, r3, #268435456
 2707              		.loc 1 1365 10
 2708 00d8 002B     		cmp	r3, #0
 2709 00da 02D0     		beq	.L104
1366:Drivers/STM32L4xx_HAL_Driver/Src/stm32l4xx_ll_sdmmc.c ****   {
1367:Drivers/STM32L4xx_HAL_Driver/Src/stm32l4xx_ll_sdmmc.c ****     return SDMMC_ERROR_ERASE_SEQ_ERR;
 2710              		.loc 1 1367 12
 2711 00dc 4FF48073 		mov	r3, #256
 2712 00e0 71E0     		b	.L95
 2713              	.L104:
1368:Drivers/STM32L4xx_HAL_Driver/Src/stm32l4xx_ll_sdmmc.c ****   }
1369:Drivers/STM32L4xx_HAL_Driver/Src/stm32l4xx_ll_sdmmc.c ****   else if((response_r1 & SDMMC_OCR_BAD_ERASE_PARAM) == SDMMC_OCR_BAD_ERASE_PARAM)
 2714              		.loc 1 1369 24
 2715 00e2 7B69     		ldr	r3, [r7, #20]
 2716 00e4 03F00063 		and	r3, r3, #134217728
 2717              		.loc 1 1369 10
 2718 00e8 002B     		cmp	r3, #0
 2719 00ea 02D0     		beq	.L105
1370:Drivers/STM32L4xx_HAL_Driver/Src/stm32l4xx_ll_sdmmc.c ****   {
1371:Drivers/STM32L4xx_HAL_Driver/Src/stm32l4xx_ll_sdmmc.c ****     return SDMMC_ERROR_BAD_ERASE_PARAM;
 2720              		.loc 1 1371 12
 2721 00ec 4FF40073 		mov	r3, #512
 2722 00f0 69E0     		b	.L95
 2723              	.L105:
1372:Drivers/STM32L4xx_HAL_Driver/Src/stm32l4xx_ll_sdmmc.c ****   }
1373:Drivers/STM32L4xx_HAL_Driver/Src/stm32l4xx_ll_sdmmc.c ****   else if((response_r1 & SDMMC_OCR_WRITE_PROT_VIOLATION) == SDMMC_OCR_WRITE_PROT_VIOLATION)
 2724              		.loc 1 1373 24
 2725 00f2 7B69     		ldr	r3, [r7, #20]
 2726 00f4 03F08063 		and	r3, r3, #67108864
 2727              		.loc 1 1373 10
 2728 00f8 002B     		cmp	r3, #0
 2729 00fa 02D0     		beq	.L106
1374:Drivers/STM32L4xx_HAL_Driver/Src/stm32l4xx_ll_sdmmc.c ****   {
1375:Drivers/STM32L4xx_HAL_Driver/Src/stm32l4xx_ll_sdmmc.c ****     return SDMMC_ERROR_WRITE_PROT_VIOLATION;
 2730              		.loc 1 1375 12
 2731 00fc 4FF48063 		mov	r3, #1024
 2732 0100 61E0     		b	.L95
 2733              	.L106:
1376:Drivers/STM32L4xx_HAL_Driver/Src/stm32l4xx_ll_sdmmc.c ****   }
1377:Drivers/STM32L4xx_HAL_Driver/Src/stm32l4xx_ll_sdmmc.c ****   else if((response_r1 & SDMMC_OCR_LOCK_UNLOCK_FAILED) == SDMMC_OCR_LOCK_UNLOCK_FAILED)
 2734              		.loc 1 1377 24
 2735 0102 7B69     		ldr	r3, [r7, #20]
 2736 0104 03F08073 		and	r3, r3, #16777216
 2737              		.loc 1 1377 10
 2738 0108 002B     		cmp	r3, #0
 2739 010a 02D0     		beq	.L107
1378:Drivers/STM32L4xx_HAL_Driver/Src/stm32l4xx_ll_sdmmc.c ****   {
1379:Drivers/STM32L4xx_HAL_Driver/Src/stm32l4xx_ll_sdmmc.c ****     return SDMMC_ERROR_LOCK_UNLOCK_FAILED;
 2740              		.loc 1 1379 12
 2741 010c 4FF40063 		mov	r3, #2048
ARM GAS  C:\Users\Morroway\AppData\Local\Temp\cc18sEAf.s 			page 72


 2742 0110 59E0     		b	.L95
 2743              	.L107:
1380:Drivers/STM32L4xx_HAL_Driver/Src/stm32l4xx_ll_sdmmc.c ****   }
1381:Drivers/STM32L4xx_HAL_Driver/Src/stm32l4xx_ll_sdmmc.c ****   else if((response_r1 & SDMMC_OCR_COM_CRC_FAILED) == SDMMC_OCR_COM_CRC_FAILED)
 2744              		.loc 1 1381 24
 2745 0112 7B69     		ldr	r3, [r7, #20]
 2746 0114 03F40003 		and	r3, r3, #8388608
 2747              		.loc 1 1381 10
 2748 0118 002B     		cmp	r3, #0
 2749 011a 02D0     		beq	.L108
1382:Drivers/STM32L4xx_HAL_Driver/Src/stm32l4xx_ll_sdmmc.c ****   {
1383:Drivers/STM32L4xx_HAL_Driver/Src/stm32l4xx_ll_sdmmc.c ****     return SDMMC_ERROR_COM_CRC_FAILED;
 2750              		.loc 1 1383 12
 2751 011c 4FF48053 		mov	r3, #4096
 2752 0120 51E0     		b	.L95
 2753              	.L108:
1384:Drivers/STM32L4xx_HAL_Driver/Src/stm32l4xx_ll_sdmmc.c ****   }
1385:Drivers/STM32L4xx_HAL_Driver/Src/stm32l4xx_ll_sdmmc.c ****   else if((response_r1 & SDMMC_OCR_ILLEGAL_CMD) == SDMMC_OCR_ILLEGAL_CMD)
 2754              		.loc 1 1385 24
 2755 0122 7B69     		ldr	r3, [r7, #20]
 2756 0124 03F48003 		and	r3, r3, #4194304
 2757              		.loc 1 1385 10
 2758 0128 002B     		cmp	r3, #0
 2759 012a 02D0     		beq	.L109
1386:Drivers/STM32L4xx_HAL_Driver/Src/stm32l4xx_ll_sdmmc.c ****   {
1387:Drivers/STM32L4xx_HAL_Driver/Src/stm32l4xx_ll_sdmmc.c ****     return SDMMC_ERROR_ILLEGAL_CMD;
 2760              		.loc 1 1387 12
 2761 012c 4FF40053 		mov	r3, #8192
 2762 0130 49E0     		b	.L95
 2763              	.L109:
1388:Drivers/STM32L4xx_HAL_Driver/Src/stm32l4xx_ll_sdmmc.c ****   }
1389:Drivers/STM32L4xx_HAL_Driver/Src/stm32l4xx_ll_sdmmc.c ****   else if((response_r1 & SDMMC_OCR_CARD_ECC_FAILED) == SDMMC_OCR_CARD_ECC_FAILED)
 2764              		.loc 1 1389 24
 2765 0132 7B69     		ldr	r3, [r7, #20]
 2766 0134 03F40013 		and	r3, r3, #2097152
 2767              		.loc 1 1389 10
 2768 0138 002B     		cmp	r3, #0
 2769 013a 02D0     		beq	.L110
1390:Drivers/STM32L4xx_HAL_Driver/Src/stm32l4xx_ll_sdmmc.c ****   {
1391:Drivers/STM32L4xx_HAL_Driver/Src/stm32l4xx_ll_sdmmc.c ****     return SDMMC_ERROR_CARD_ECC_FAILED;
 2770              		.loc 1 1391 12
 2771 013c 4FF48043 		mov	r3, #16384
 2772 0140 41E0     		b	.L95
 2773              	.L110:
1392:Drivers/STM32L4xx_HAL_Driver/Src/stm32l4xx_ll_sdmmc.c ****   }
1393:Drivers/STM32L4xx_HAL_Driver/Src/stm32l4xx_ll_sdmmc.c ****   else if((response_r1 & SDMMC_OCR_CC_ERROR) == SDMMC_OCR_CC_ERROR)
 2774              		.loc 1 1393 24
 2775 0142 7B69     		ldr	r3, [r7, #20]
 2776 0144 03F48013 		and	r3, r3, #1048576
 2777              		.loc 1 1393 10
 2778 0148 002B     		cmp	r3, #0
 2779 014a 02D0     		beq	.L111
1394:Drivers/STM32L4xx_HAL_Driver/Src/stm32l4xx_ll_sdmmc.c ****   {
1395:Drivers/STM32L4xx_HAL_Driver/Src/stm32l4xx_ll_sdmmc.c ****     return SDMMC_ERROR_CC_ERR;
 2780              		.loc 1 1395 12
 2781 014c 4FF40043 		mov	r3, #32768
 2782 0150 39E0     		b	.L95
ARM GAS  C:\Users\Morroway\AppData\Local\Temp\cc18sEAf.s 			page 73


 2783              	.L111:
1396:Drivers/STM32L4xx_HAL_Driver/Src/stm32l4xx_ll_sdmmc.c ****   }
1397:Drivers/STM32L4xx_HAL_Driver/Src/stm32l4xx_ll_sdmmc.c ****   else if((response_r1 & SDMMC_OCR_STREAM_READ_UNDERRUN) == SDMMC_OCR_STREAM_READ_UNDERRUN)
 2784              		.loc 1 1397 24
 2785 0152 7B69     		ldr	r3, [r7, #20]
 2786 0154 03F48023 		and	r3, r3, #262144
 2787              		.loc 1 1397 10
 2788 0158 002B     		cmp	r3, #0
 2789 015a 02D0     		beq	.L112
1398:Drivers/STM32L4xx_HAL_Driver/Src/stm32l4xx_ll_sdmmc.c ****   {
1399:Drivers/STM32L4xx_HAL_Driver/Src/stm32l4xx_ll_sdmmc.c ****     return SDMMC_ERROR_STREAM_READ_UNDERRUN;
 2790              		.loc 1 1399 12
 2791 015c 4FF40033 		mov	r3, #131072
 2792 0160 31E0     		b	.L95
 2793              	.L112:
1400:Drivers/STM32L4xx_HAL_Driver/Src/stm32l4xx_ll_sdmmc.c ****   }
1401:Drivers/STM32L4xx_HAL_Driver/Src/stm32l4xx_ll_sdmmc.c ****   else if((response_r1 & SDMMC_OCR_STREAM_WRITE_OVERRUN) == SDMMC_OCR_STREAM_WRITE_OVERRUN)
 2794              		.loc 1 1401 24
 2795 0162 7B69     		ldr	r3, [r7, #20]
 2796 0164 03F40033 		and	r3, r3, #131072
 2797              		.loc 1 1401 10
 2798 0168 002B     		cmp	r3, #0
 2799 016a 02D0     		beq	.L113
1402:Drivers/STM32L4xx_HAL_Driver/Src/stm32l4xx_ll_sdmmc.c ****   {
1403:Drivers/STM32L4xx_HAL_Driver/Src/stm32l4xx_ll_sdmmc.c ****     return SDMMC_ERROR_STREAM_WRITE_OVERRUN;
 2800              		.loc 1 1403 12
 2801 016c 4FF48023 		mov	r3, #262144
 2802 0170 29E0     		b	.L95
 2803              	.L113:
1404:Drivers/STM32L4xx_HAL_Driver/Src/stm32l4xx_ll_sdmmc.c ****   }
1405:Drivers/STM32L4xx_HAL_Driver/Src/stm32l4xx_ll_sdmmc.c ****   else if((response_r1 & SDMMC_OCR_CID_CSD_OVERWRITE) == SDMMC_OCR_CID_CSD_OVERWRITE)
 2804              		.loc 1 1405 24
 2805 0172 7B69     		ldr	r3, [r7, #20]
 2806 0174 03F48033 		and	r3, r3, #65536
 2807              		.loc 1 1405 10
 2808 0178 002B     		cmp	r3, #0
 2809 017a 02D0     		beq	.L114
1406:Drivers/STM32L4xx_HAL_Driver/Src/stm32l4xx_ll_sdmmc.c ****   {
1407:Drivers/STM32L4xx_HAL_Driver/Src/stm32l4xx_ll_sdmmc.c ****     return SDMMC_ERROR_CID_CSD_OVERWRITE;
 2810              		.loc 1 1407 12
 2811 017c 4FF40023 		mov	r3, #524288
 2812 0180 21E0     		b	.L95
 2813              	.L114:
1408:Drivers/STM32L4xx_HAL_Driver/Src/stm32l4xx_ll_sdmmc.c ****   }
1409:Drivers/STM32L4xx_HAL_Driver/Src/stm32l4xx_ll_sdmmc.c ****   else if((response_r1 & SDMMC_OCR_WP_ERASE_SKIP) == SDMMC_OCR_WP_ERASE_SKIP)
 2814              		.loc 1 1409 24
 2815 0182 7B69     		ldr	r3, [r7, #20]
 2816 0184 03F40043 		and	r3, r3, #32768
 2817              		.loc 1 1409 10
 2818 0188 002B     		cmp	r3, #0
 2819 018a 02D0     		beq	.L115
1410:Drivers/STM32L4xx_HAL_Driver/Src/stm32l4xx_ll_sdmmc.c ****   {
1411:Drivers/STM32L4xx_HAL_Driver/Src/stm32l4xx_ll_sdmmc.c ****     return SDMMC_ERROR_WP_ERASE_SKIP;
 2820              		.loc 1 1411 12
 2821 018c 4FF48013 		mov	r3, #1048576
 2822 0190 19E0     		b	.L95
 2823              	.L115:
ARM GAS  C:\Users\Morroway\AppData\Local\Temp\cc18sEAf.s 			page 74


1412:Drivers/STM32L4xx_HAL_Driver/Src/stm32l4xx_ll_sdmmc.c ****   }
1413:Drivers/STM32L4xx_HAL_Driver/Src/stm32l4xx_ll_sdmmc.c ****   else if((response_r1 & SDMMC_OCR_CARD_ECC_DISABLED) == SDMMC_OCR_CARD_ECC_DISABLED)
 2824              		.loc 1 1413 24
 2825 0192 7B69     		ldr	r3, [r7, #20]
 2826 0194 03F48043 		and	r3, r3, #16384
 2827              		.loc 1 1413 10
 2828 0198 002B     		cmp	r3, #0
 2829 019a 02D0     		beq	.L116
1414:Drivers/STM32L4xx_HAL_Driver/Src/stm32l4xx_ll_sdmmc.c ****   {
1415:Drivers/STM32L4xx_HAL_Driver/Src/stm32l4xx_ll_sdmmc.c ****     return SDMMC_ERROR_CARD_ECC_DISABLED;
 2830              		.loc 1 1415 12
 2831 019c 4FF40013 		mov	r3, #2097152
 2832 01a0 11E0     		b	.L95
 2833              	.L116:
1416:Drivers/STM32L4xx_HAL_Driver/Src/stm32l4xx_ll_sdmmc.c ****   }
1417:Drivers/STM32L4xx_HAL_Driver/Src/stm32l4xx_ll_sdmmc.c ****   else if((response_r1 & SDMMC_OCR_ERASE_RESET) == SDMMC_OCR_ERASE_RESET)
 2834              		.loc 1 1417 24
 2835 01a2 7B69     		ldr	r3, [r7, #20]
 2836 01a4 03F40053 		and	r3, r3, #8192
 2837              		.loc 1 1417 10
 2838 01a8 002B     		cmp	r3, #0
 2839 01aa 02D0     		beq	.L117
1418:Drivers/STM32L4xx_HAL_Driver/Src/stm32l4xx_ll_sdmmc.c ****   {
1419:Drivers/STM32L4xx_HAL_Driver/Src/stm32l4xx_ll_sdmmc.c ****     return SDMMC_ERROR_ERASE_RESET;
 2840              		.loc 1 1419 12
 2841 01ac 4FF48003 		mov	r3, #4194304
 2842 01b0 09E0     		b	.L95
 2843              	.L117:
1420:Drivers/STM32L4xx_HAL_Driver/Src/stm32l4xx_ll_sdmmc.c ****   }
1421:Drivers/STM32L4xx_HAL_Driver/Src/stm32l4xx_ll_sdmmc.c ****   else if((response_r1 & SDMMC_OCR_AKE_SEQ_ERROR) == SDMMC_OCR_AKE_SEQ_ERROR)
 2844              		.loc 1 1421 24
 2845 01b2 7B69     		ldr	r3, [r7, #20]
 2846 01b4 03F00803 		and	r3, r3, #8
 2847              		.loc 1 1421 10
 2848 01b8 002B     		cmp	r3, #0
 2849 01ba 02D0     		beq	.L118
1422:Drivers/STM32L4xx_HAL_Driver/Src/stm32l4xx_ll_sdmmc.c ****   {
1423:Drivers/STM32L4xx_HAL_Driver/Src/stm32l4xx_ll_sdmmc.c ****     return SDMMC_ERROR_AKE_SEQ_ERR;
 2850              		.loc 1 1423 12
 2851 01bc 4FF40003 		mov	r3, #8388608
 2852 01c0 01E0     		b	.L95
 2853              	.L118:
1424:Drivers/STM32L4xx_HAL_Driver/Src/stm32l4xx_ll_sdmmc.c ****   }
1425:Drivers/STM32L4xx_HAL_Driver/Src/stm32l4xx_ll_sdmmc.c ****   else
1426:Drivers/STM32L4xx_HAL_Driver/Src/stm32l4xx_ll_sdmmc.c ****   {
1427:Drivers/STM32L4xx_HAL_Driver/Src/stm32l4xx_ll_sdmmc.c ****     return SDMMC_ERROR_GENERAL_UNKNOWN_ERR;
 2854              		.loc 1 1427 12
 2855 01c2 4FF48033 		mov	r3, #65536
 2856              	.L95:
1428:Drivers/STM32L4xx_HAL_Driver/Src/stm32l4xx_ll_sdmmc.c ****   }
1429:Drivers/STM32L4xx_HAL_Driver/Src/stm32l4xx_ll_sdmmc.c **** }
 2857              		.loc 1 1429 1
 2858 01c6 1846     		mov	r0, r3
 2859 01c8 2037     		adds	r7, r7, #32
 2860              		.cfi_def_cfa_offset 8
 2861 01ca BD46     		mov	sp, r7
 2862              		.cfi_def_cfa_register 13
ARM GAS  C:\Users\Morroway\AppData\Local\Temp\cc18sEAf.s 			page 75


 2863              		@ sp needed
 2864 01cc 80BD     		pop	{r7, pc}
 2865              	.L120:
 2866 01ce 00BF     		.align	2
 2867              	.L119:
 2868 01d0 00000000 		.word	SystemCoreClock
 2869 01d4 D34D6210 		.word	274877907
 2870 01d8 45002000 		.word	2097221
 2871 01dc C5002000 		.word	2097349
 2872 01e0 08E0FFFD 		.word	-33562616
 2873              		.cfi_endproc
 2874              	.LFE364:
 2876              		.section	.text.SDMMC_GetCmdResp2,"ax",%progbits
 2877              		.align	1
 2878              		.global	SDMMC_GetCmdResp2
 2879              		.syntax unified
 2880              		.thumb
 2881              		.thumb_func
 2883              	SDMMC_GetCmdResp2:
 2884              	.LFB365:
1430:Drivers/STM32L4xx_HAL_Driver/Src/stm32l4xx_ll_sdmmc.c **** 
1431:Drivers/STM32L4xx_HAL_Driver/Src/stm32l4xx_ll_sdmmc.c **** /**
1432:Drivers/STM32L4xx_HAL_Driver/Src/stm32l4xx_ll_sdmmc.c ****   * @brief  Checks for error conditions for R2 (CID or CSD) response.
1433:Drivers/STM32L4xx_HAL_Driver/Src/stm32l4xx_ll_sdmmc.c ****   * @param  hsd SD handle
1434:Drivers/STM32L4xx_HAL_Driver/Src/stm32l4xx_ll_sdmmc.c ****   * @retval SD Card error state
1435:Drivers/STM32L4xx_HAL_Driver/Src/stm32l4xx_ll_sdmmc.c ****   */
1436:Drivers/STM32L4xx_HAL_Driver/Src/stm32l4xx_ll_sdmmc.c **** uint32_t SDMMC_GetCmdResp2(SDMMC_TypeDef *SDMMCx)
1437:Drivers/STM32L4xx_HAL_Driver/Src/stm32l4xx_ll_sdmmc.c **** {
 2885              		.loc 1 1437 1
 2886              		.cfi_startproc
 2887              		@ args = 0, pretend = 0, frame = 16
 2888              		@ frame_needed = 1, uses_anonymous_args = 0
 2889              		@ link register save eliminated.
 2890 0000 80B4     		push	{r7}
 2891              		.cfi_def_cfa_offset 4
 2892              		.cfi_offset 7, -4
 2893 0002 85B0     		sub	sp, sp, #20
 2894              		.cfi_def_cfa_offset 24
 2895 0004 00AF     		add	r7, sp, #0
 2896              		.cfi_def_cfa_register 7
 2897 0006 7860     		str	r0, [r7, #4]
1438:Drivers/STM32L4xx_HAL_Driver/Src/stm32l4xx_ll_sdmmc.c ****   uint32_t sta_reg;
1439:Drivers/STM32L4xx_HAL_Driver/Src/stm32l4xx_ll_sdmmc.c ****   /* 8 is the number of required instructions cycles for the below loop statement.
1440:Drivers/STM32L4xx_HAL_Driver/Src/stm32l4xx_ll_sdmmc.c ****   The SDMMC_CMDTIMEOUT is expressed in ms */
1441:Drivers/STM32L4xx_HAL_Driver/Src/stm32l4xx_ll_sdmmc.c ****   uint32_t count = SDMMC_CMDTIMEOUT * (SystemCoreClock / 8U /1000U);
 2898              		.loc 1 1441 61
 2899 0008 1F4B     		ldr	r3, .L127
 2900 000a 1B68     		ldr	r3, [r3]
 2901 000c 1F4A     		ldr	r2, .L127+4
 2902 000e A2FB0323 		umull	r2, r3, r2, r3
 2903 0012 5B0A     		lsrs	r3, r3, #9
 2904              		.loc 1 1441 12
 2905 0014 41F28832 		movw	r2, #5000
 2906 0018 02FB03F3 		mul	r3, r2, r3
 2907 001c FB60     		str	r3, [r7, #12]
 2908              	.L124:
1442:Drivers/STM32L4xx_HAL_Driver/Src/stm32l4xx_ll_sdmmc.c **** 
ARM GAS  C:\Users\Morroway\AppData\Local\Temp\cc18sEAf.s 			page 76


1443:Drivers/STM32L4xx_HAL_Driver/Src/stm32l4xx_ll_sdmmc.c ****   do
1444:Drivers/STM32L4xx_HAL_Driver/Src/stm32l4xx_ll_sdmmc.c ****   {
1445:Drivers/STM32L4xx_HAL_Driver/Src/stm32l4xx_ll_sdmmc.c ****     if (count-- == 0U)
 2909              		.loc 1 1445 14
 2910 001e FB68     		ldr	r3, [r7, #12]
 2911 0020 5A1E     		subs	r2, r3, #1
 2912 0022 FA60     		str	r2, [r7, #12]
 2913              		.loc 1 1445 8
 2914 0024 002B     		cmp	r3, #0
 2915 0026 02D1     		bne	.L122
1446:Drivers/STM32L4xx_HAL_Driver/Src/stm32l4xx_ll_sdmmc.c ****     {
1447:Drivers/STM32L4xx_HAL_Driver/Src/stm32l4xx_ll_sdmmc.c ****       return SDMMC_ERROR_TIMEOUT;
 2916              		.loc 1 1447 14
 2917 0028 4FF00043 		mov	r3, #-2147483648
 2918 002c 26E0     		b	.L123
 2919              	.L122:
1448:Drivers/STM32L4xx_HAL_Driver/Src/stm32l4xx_ll_sdmmc.c ****     }
1449:Drivers/STM32L4xx_HAL_Driver/Src/stm32l4xx_ll_sdmmc.c ****     sta_reg = SDMMCx->STA;
 2920              		.loc 1 1449 13
 2921 002e 7B68     		ldr	r3, [r7, #4]
 2922 0030 5B6B     		ldr	r3, [r3, #52]
 2923 0032 BB60     		str	r3, [r7, #8]
1450:Drivers/STM32L4xx_HAL_Driver/Src/stm32l4xx_ll_sdmmc.c ****   }while(((sta_reg & (SDMMC_FLAG_CCRCFAIL | SDMMC_FLAG_CMDREND | SDMMC_FLAG_CTIMEOUT)) == 0U) ||
 2924              		.loc 1 1450 20
 2925 0034 BB68     		ldr	r3, [r7, #8]
 2926 0036 03F04503 		and	r3, r3, #69
 2927              		.loc 1 1450 95
 2928 003a 002B     		cmp	r3, #0
 2929 003c EFD0     		beq	.L124
1451:Drivers/STM32L4xx_HAL_Driver/Src/stm32l4xx_ll_sdmmc.c ****          ((sta_reg & SDMMC_FLAG_CMDACT) != 0U ));
 2930              		.loc 1 1451 20 discriminator 1
 2931 003e BB68     		ldr	r3, [r7, #8]
 2932 0040 03F40053 		and	r3, r3, #8192
1450:Drivers/STM32L4xx_HAL_Driver/Src/stm32l4xx_ll_sdmmc.c ****   }while(((sta_reg & (SDMMC_FLAG_CCRCFAIL | SDMMC_FLAG_CMDREND | SDMMC_FLAG_CTIMEOUT)) == 0U) ||
 2933              		.loc 1 1450 95 discriminator 1
 2934 0044 002B     		cmp	r3, #0
 2935 0046 EAD1     		bne	.L124
1452:Drivers/STM32L4xx_HAL_Driver/Src/stm32l4xx_ll_sdmmc.c **** 
1453:Drivers/STM32L4xx_HAL_Driver/Src/stm32l4xx_ll_sdmmc.c ****   if (__SDMMC_GET_FLAG(SDMMCx, SDMMC_FLAG_CTIMEOUT))
 2936              		.loc 1 1453 7
 2937 0048 7B68     		ldr	r3, [r7, #4]
 2938 004a 5B6B     		ldr	r3, [r3, #52]
 2939 004c 03F00403 		and	r3, r3, #4
 2940              		.loc 1 1453 6
 2941 0050 002B     		cmp	r3, #0
 2942 0052 04D0     		beq	.L125
1454:Drivers/STM32L4xx_HAL_Driver/Src/stm32l4xx_ll_sdmmc.c ****   {
1455:Drivers/STM32L4xx_HAL_Driver/Src/stm32l4xx_ll_sdmmc.c ****     __SDMMC_CLEAR_FLAG(SDMMCx, SDMMC_FLAG_CTIMEOUT);
 2943              		.loc 1 1455 5
 2944 0054 7B68     		ldr	r3, [r7, #4]
 2945 0056 0422     		movs	r2, #4
 2946 0058 9A63     		str	r2, [r3, #56]
1456:Drivers/STM32L4xx_HAL_Driver/Src/stm32l4xx_ll_sdmmc.c **** 
1457:Drivers/STM32L4xx_HAL_Driver/Src/stm32l4xx_ll_sdmmc.c ****     return SDMMC_ERROR_CMD_RSP_TIMEOUT;
 2947              		.loc 1 1457 12
 2948 005a 0423     		movs	r3, #4
 2949 005c 0EE0     		b	.L123
ARM GAS  C:\Users\Morroway\AppData\Local\Temp\cc18sEAf.s 			page 77


 2950              	.L125:
1458:Drivers/STM32L4xx_HAL_Driver/Src/stm32l4xx_ll_sdmmc.c ****   }
1459:Drivers/STM32L4xx_HAL_Driver/Src/stm32l4xx_ll_sdmmc.c ****   else if (__SDMMC_GET_FLAG(SDMMCx, SDMMC_FLAG_CCRCFAIL))
 2951              		.loc 1 1459 12
 2952 005e 7B68     		ldr	r3, [r7, #4]
 2953 0060 5B6B     		ldr	r3, [r3, #52]
 2954 0062 03F00103 		and	r3, r3, #1
 2955              		.loc 1 1459 11
 2956 0066 002B     		cmp	r3, #0
 2957 0068 04D0     		beq	.L126
1460:Drivers/STM32L4xx_HAL_Driver/Src/stm32l4xx_ll_sdmmc.c ****   {
1461:Drivers/STM32L4xx_HAL_Driver/Src/stm32l4xx_ll_sdmmc.c ****     __SDMMC_CLEAR_FLAG(SDMMCx, SDMMC_FLAG_CCRCFAIL);
 2958              		.loc 1 1461 5
 2959 006a 7B68     		ldr	r3, [r7, #4]
 2960 006c 0122     		movs	r2, #1
 2961 006e 9A63     		str	r2, [r3, #56]
1462:Drivers/STM32L4xx_HAL_Driver/Src/stm32l4xx_ll_sdmmc.c **** 
1463:Drivers/STM32L4xx_HAL_Driver/Src/stm32l4xx_ll_sdmmc.c ****     return SDMMC_ERROR_CMD_CRC_FAIL;
 2962              		.loc 1 1463 12
 2963 0070 0123     		movs	r3, #1
 2964 0072 03E0     		b	.L123
 2965              	.L126:
1464:Drivers/STM32L4xx_HAL_Driver/Src/stm32l4xx_ll_sdmmc.c ****   }
1465:Drivers/STM32L4xx_HAL_Driver/Src/stm32l4xx_ll_sdmmc.c ****   else
1466:Drivers/STM32L4xx_HAL_Driver/Src/stm32l4xx_ll_sdmmc.c ****   {
1467:Drivers/STM32L4xx_HAL_Driver/Src/stm32l4xx_ll_sdmmc.c ****     /* No error flag set */
1468:Drivers/STM32L4xx_HAL_Driver/Src/stm32l4xx_ll_sdmmc.c ****     /* Clear all the static flags */
1469:Drivers/STM32L4xx_HAL_Driver/Src/stm32l4xx_ll_sdmmc.c ****     __SDMMC_CLEAR_FLAG(SDMMCx, SDMMC_STATIC_CMD_FLAGS);
 2966              		.loc 1 1469 5
 2967 0074 7B68     		ldr	r3, [r7, #4]
 2968 0076 064A     		ldr	r2, .L127+8
 2969 0078 9A63     		str	r2, [r3, #56]
1470:Drivers/STM32L4xx_HAL_Driver/Src/stm32l4xx_ll_sdmmc.c ****   }
1471:Drivers/STM32L4xx_HAL_Driver/Src/stm32l4xx_ll_sdmmc.c **** 
1472:Drivers/STM32L4xx_HAL_Driver/Src/stm32l4xx_ll_sdmmc.c ****   return SDMMC_ERROR_NONE;
 2970              		.loc 1 1472 10
 2971 007a 0023     		movs	r3, #0
 2972              	.L123:
1473:Drivers/STM32L4xx_HAL_Driver/Src/stm32l4xx_ll_sdmmc.c **** }
 2973              		.loc 1 1473 1
 2974 007c 1846     		mov	r0, r3
 2975 007e 1437     		adds	r7, r7, #20
 2976              		.cfi_def_cfa_offset 4
 2977 0080 BD46     		mov	sp, r7
 2978              		.cfi_def_cfa_register 13
 2979              		@ sp needed
 2980 0082 5DF8047B 		ldr	r7, [sp], #4
 2981              		.cfi_restore 7
 2982              		.cfi_def_cfa_offset 0
 2983 0086 7047     		bx	lr
 2984              	.L128:
 2985              		.align	2
 2986              	.L127:
 2987 0088 00000000 		.word	SystemCoreClock
 2988 008c D34D6210 		.word	274877907
 2989 0090 C5002000 		.word	2097349
 2990              		.cfi_endproc
ARM GAS  C:\Users\Morroway\AppData\Local\Temp\cc18sEAf.s 			page 78


 2991              	.LFE365:
 2993              		.section	.text.SDMMC_GetCmdResp3,"ax",%progbits
 2994              		.align	1
 2995              		.global	SDMMC_GetCmdResp3
 2996              		.syntax unified
 2997              		.thumb
 2998              		.thumb_func
 3000              	SDMMC_GetCmdResp3:
 3001              	.LFB366:
1474:Drivers/STM32L4xx_HAL_Driver/Src/stm32l4xx_ll_sdmmc.c **** 
1475:Drivers/STM32L4xx_HAL_Driver/Src/stm32l4xx_ll_sdmmc.c **** /**
1476:Drivers/STM32L4xx_HAL_Driver/Src/stm32l4xx_ll_sdmmc.c ****   * @brief  Checks for error conditions for R3 (OCR) response.
1477:Drivers/STM32L4xx_HAL_Driver/Src/stm32l4xx_ll_sdmmc.c ****   * @param  hsd SD handle
1478:Drivers/STM32L4xx_HAL_Driver/Src/stm32l4xx_ll_sdmmc.c ****   * @retval SD Card error state
1479:Drivers/STM32L4xx_HAL_Driver/Src/stm32l4xx_ll_sdmmc.c ****   */
1480:Drivers/STM32L4xx_HAL_Driver/Src/stm32l4xx_ll_sdmmc.c **** uint32_t SDMMC_GetCmdResp3(SDMMC_TypeDef *SDMMCx)
1481:Drivers/STM32L4xx_HAL_Driver/Src/stm32l4xx_ll_sdmmc.c **** {
 3002              		.loc 1 1481 1
 3003              		.cfi_startproc
 3004              		@ args = 0, pretend = 0, frame = 16
 3005              		@ frame_needed = 1, uses_anonymous_args = 0
 3006              		@ link register save eliminated.
 3007 0000 80B4     		push	{r7}
 3008              		.cfi_def_cfa_offset 4
 3009              		.cfi_offset 7, -4
 3010 0002 85B0     		sub	sp, sp, #20
 3011              		.cfi_def_cfa_offset 24
 3012 0004 00AF     		add	r7, sp, #0
 3013              		.cfi_def_cfa_register 7
 3014 0006 7860     		str	r0, [r7, #4]
1482:Drivers/STM32L4xx_HAL_Driver/Src/stm32l4xx_ll_sdmmc.c ****   uint32_t sta_reg;
1483:Drivers/STM32L4xx_HAL_Driver/Src/stm32l4xx_ll_sdmmc.c ****   /* 8 is the number of required instructions cycles for the below loop statement.
1484:Drivers/STM32L4xx_HAL_Driver/Src/stm32l4xx_ll_sdmmc.c ****   The SDMMC_CMDTIMEOUT is expressed in ms */
1485:Drivers/STM32L4xx_HAL_Driver/Src/stm32l4xx_ll_sdmmc.c ****   uint32_t count = SDMMC_CMDTIMEOUT * (SystemCoreClock / 8U /1000U);
 3015              		.loc 1 1485 61
 3016 0008 1A4B     		ldr	r3, .L134
 3017 000a 1B68     		ldr	r3, [r3]
 3018 000c 1A4A     		ldr	r2, .L134+4
 3019 000e A2FB0323 		umull	r2, r3, r2, r3
 3020 0012 5B0A     		lsrs	r3, r3, #9
 3021              		.loc 1 1485 12
 3022 0014 41F28832 		movw	r2, #5000
 3023 0018 02FB03F3 		mul	r3, r2, r3
 3024 001c FB60     		str	r3, [r7, #12]
 3025              	.L132:
1486:Drivers/STM32L4xx_HAL_Driver/Src/stm32l4xx_ll_sdmmc.c **** 
1487:Drivers/STM32L4xx_HAL_Driver/Src/stm32l4xx_ll_sdmmc.c ****   do
1488:Drivers/STM32L4xx_HAL_Driver/Src/stm32l4xx_ll_sdmmc.c ****   {
1489:Drivers/STM32L4xx_HAL_Driver/Src/stm32l4xx_ll_sdmmc.c ****     if (count-- == 0U)
 3026              		.loc 1 1489 14
 3027 001e FB68     		ldr	r3, [r7, #12]
 3028 0020 5A1E     		subs	r2, r3, #1
 3029 0022 FA60     		str	r2, [r7, #12]
 3030              		.loc 1 1489 8
 3031 0024 002B     		cmp	r3, #0
 3032 0026 02D1     		bne	.L130
1490:Drivers/STM32L4xx_HAL_Driver/Src/stm32l4xx_ll_sdmmc.c ****     {
ARM GAS  C:\Users\Morroway\AppData\Local\Temp\cc18sEAf.s 			page 79


1491:Drivers/STM32L4xx_HAL_Driver/Src/stm32l4xx_ll_sdmmc.c ****       return SDMMC_ERROR_TIMEOUT;
 3033              		.loc 1 1491 14
 3034 0028 4FF00043 		mov	r3, #-2147483648
 3035 002c 1BE0     		b	.L131
 3036              	.L130:
1492:Drivers/STM32L4xx_HAL_Driver/Src/stm32l4xx_ll_sdmmc.c ****     }
1493:Drivers/STM32L4xx_HAL_Driver/Src/stm32l4xx_ll_sdmmc.c ****     sta_reg = SDMMCx->STA;
 3037              		.loc 1 1493 13
 3038 002e 7B68     		ldr	r3, [r7, #4]
 3039 0030 5B6B     		ldr	r3, [r3, #52]
 3040 0032 BB60     		str	r3, [r7, #8]
1494:Drivers/STM32L4xx_HAL_Driver/Src/stm32l4xx_ll_sdmmc.c ****   }while(((sta_reg & (SDMMC_FLAG_CCRCFAIL | SDMMC_FLAG_CMDREND | SDMMC_FLAG_CTIMEOUT)) == 0U) ||
 3041              		.loc 1 1494 20
 3042 0034 BB68     		ldr	r3, [r7, #8]
 3043 0036 03F04503 		and	r3, r3, #69
 3044              		.loc 1 1494 95
 3045 003a 002B     		cmp	r3, #0
 3046 003c EFD0     		beq	.L132
1495:Drivers/STM32L4xx_HAL_Driver/Src/stm32l4xx_ll_sdmmc.c ****          ((sta_reg & SDMMC_FLAG_CMDACT) != 0U ));
 3047              		.loc 1 1495 20 discriminator 1
 3048 003e BB68     		ldr	r3, [r7, #8]
 3049 0040 03F40053 		and	r3, r3, #8192
1494:Drivers/STM32L4xx_HAL_Driver/Src/stm32l4xx_ll_sdmmc.c ****   }while(((sta_reg & (SDMMC_FLAG_CCRCFAIL | SDMMC_FLAG_CMDREND | SDMMC_FLAG_CTIMEOUT)) == 0U) ||
 3050              		.loc 1 1494 95 discriminator 1
 3051 0044 002B     		cmp	r3, #0
 3052 0046 EAD1     		bne	.L132
1496:Drivers/STM32L4xx_HAL_Driver/Src/stm32l4xx_ll_sdmmc.c **** 
1497:Drivers/STM32L4xx_HAL_Driver/Src/stm32l4xx_ll_sdmmc.c ****   if(__SDMMC_GET_FLAG(SDMMCx, SDMMC_FLAG_CTIMEOUT))
 3053              		.loc 1 1497 6
 3054 0048 7B68     		ldr	r3, [r7, #4]
 3055 004a 5B6B     		ldr	r3, [r3, #52]
 3056 004c 03F00403 		and	r3, r3, #4
 3057              		.loc 1 1497 5
 3058 0050 002B     		cmp	r3, #0
 3059 0052 04D0     		beq	.L133
1498:Drivers/STM32L4xx_HAL_Driver/Src/stm32l4xx_ll_sdmmc.c ****   {
1499:Drivers/STM32L4xx_HAL_Driver/Src/stm32l4xx_ll_sdmmc.c ****     __SDMMC_CLEAR_FLAG(SDMMCx, SDMMC_FLAG_CTIMEOUT);
 3060              		.loc 1 1499 5
 3061 0054 7B68     		ldr	r3, [r7, #4]
 3062 0056 0422     		movs	r2, #4
 3063 0058 9A63     		str	r2, [r3, #56]
1500:Drivers/STM32L4xx_HAL_Driver/Src/stm32l4xx_ll_sdmmc.c **** 
1501:Drivers/STM32L4xx_HAL_Driver/Src/stm32l4xx_ll_sdmmc.c ****     return SDMMC_ERROR_CMD_RSP_TIMEOUT;
 3064              		.loc 1 1501 12
 3065 005a 0423     		movs	r3, #4
 3066 005c 03E0     		b	.L131
 3067              	.L133:
1502:Drivers/STM32L4xx_HAL_Driver/Src/stm32l4xx_ll_sdmmc.c ****   }
1503:Drivers/STM32L4xx_HAL_Driver/Src/stm32l4xx_ll_sdmmc.c ****   else
1504:Drivers/STM32L4xx_HAL_Driver/Src/stm32l4xx_ll_sdmmc.c ****   {
1505:Drivers/STM32L4xx_HAL_Driver/Src/stm32l4xx_ll_sdmmc.c ****     /* Clear all the static flags */
1506:Drivers/STM32L4xx_HAL_Driver/Src/stm32l4xx_ll_sdmmc.c ****     __SDMMC_CLEAR_FLAG(SDMMCx, SDMMC_STATIC_CMD_FLAGS);
 3068              		.loc 1 1506 5
 3069 005e 7B68     		ldr	r3, [r7, #4]
 3070 0060 064A     		ldr	r2, .L134+8
 3071 0062 9A63     		str	r2, [r3, #56]
1507:Drivers/STM32L4xx_HAL_Driver/Src/stm32l4xx_ll_sdmmc.c ****   }
ARM GAS  C:\Users\Morroway\AppData\Local\Temp\cc18sEAf.s 			page 80


1508:Drivers/STM32L4xx_HAL_Driver/Src/stm32l4xx_ll_sdmmc.c **** 
1509:Drivers/STM32L4xx_HAL_Driver/Src/stm32l4xx_ll_sdmmc.c ****   return SDMMC_ERROR_NONE;
 3072              		.loc 1 1509 10
 3073 0064 0023     		movs	r3, #0
 3074              	.L131:
1510:Drivers/STM32L4xx_HAL_Driver/Src/stm32l4xx_ll_sdmmc.c **** }
 3075              		.loc 1 1510 1
 3076 0066 1846     		mov	r0, r3
 3077 0068 1437     		adds	r7, r7, #20
 3078              		.cfi_def_cfa_offset 4
 3079 006a BD46     		mov	sp, r7
 3080              		.cfi_def_cfa_register 13
 3081              		@ sp needed
 3082 006c 5DF8047B 		ldr	r7, [sp], #4
 3083              		.cfi_restore 7
 3084              		.cfi_def_cfa_offset 0
 3085 0070 7047     		bx	lr
 3086              	.L135:
 3087 0072 00BF     		.align	2
 3088              	.L134:
 3089 0074 00000000 		.word	SystemCoreClock
 3090 0078 D34D6210 		.word	274877907
 3091 007c C5002000 		.word	2097349
 3092              		.cfi_endproc
 3093              	.LFE366:
 3095              		.section	.text.SDMMC_GetCmdResp6,"ax",%progbits
 3096              		.align	1
 3097              		.global	SDMMC_GetCmdResp6
 3098              		.syntax unified
 3099              		.thumb
 3100              		.thumb_func
 3102              	SDMMC_GetCmdResp6:
 3103              	.LFB367:
1511:Drivers/STM32L4xx_HAL_Driver/Src/stm32l4xx_ll_sdmmc.c **** 
1512:Drivers/STM32L4xx_HAL_Driver/Src/stm32l4xx_ll_sdmmc.c **** /**
1513:Drivers/STM32L4xx_HAL_Driver/Src/stm32l4xx_ll_sdmmc.c ****   * @brief  Checks for error conditions for R6 (RCA) response.
1514:Drivers/STM32L4xx_HAL_Driver/Src/stm32l4xx_ll_sdmmc.c ****   * @param  hsd SD handle
1515:Drivers/STM32L4xx_HAL_Driver/Src/stm32l4xx_ll_sdmmc.c ****   * @param  SD_CMD The sent command index
1516:Drivers/STM32L4xx_HAL_Driver/Src/stm32l4xx_ll_sdmmc.c ****   * @param  pRCA Pointer to the variable that will contain the SD card relative
1517:Drivers/STM32L4xx_HAL_Driver/Src/stm32l4xx_ll_sdmmc.c ****   *         address RCA
1518:Drivers/STM32L4xx_HAL_Driver/Src/stm32l4xx_ll_sdmmc.c ****   * @retval SD Card error state
1519:Drivers/STM32L4xx_HAL_Driver/Src/stm32l4xx_ll_sdmmc.c ****   */
1520:Drivers/STM32L4xx_HAL_Driver/Src/stm32l4xx_ll_sdmmc.c **** uint32_t SDMMC_GetCmdResp6(SDMMC_TypeDef *SDMMCx, uint8_t SD_CMD, uint16_t *pRCA)
1521:Drivers/STM32L4xx_HAL_Driver/Src/stm32l4xx_ll_sdmmc.c **** {
 3104              		.loc 1 1521 1
 3105              		.cfi_startproc
 3106              		@ args = 0, pretend = 0, frame = 32
 3107              		@ frame_needed = 1, uses_anonymous_args = 0
 3108 0000 80B5     		push	{r7, lr}
 3109              		.cfi_def_cfa_offset 8
 3110              		.cfi_offset 7, -8
 3111              		.cfi_offset 14, -4
 3112 0002 88B0     		sub	sp, sp, #32
 3113              		.cfi_def_cfa_offset 40
 3114 0004 00AF     		add	r7, sp, #0
 3115              		.cfi_def_cfa_register 7
 3116 0006 F860     		str	r0, [r7, #12]
ARM GAS  C:\Users\Morroway\AppData\Local\Temp\cc18sEAf.s 			page 81


 3117 0008 0B46     		mov	r3, r1
 3118 000a 7A60     		str	r2, [r7, #4]
 3119 000c FB72     		strb	r3, [r7, #11]
1522:Drivers/STM32L4xx_HAL_Driver/Src/stm32l4xx_ll_sdmmc.c ****   uint32_t response_r1;
1523:Drivers/STM32L4xx_HAL_Driver/Src/stm32l4xx_ll_sdmmc.c ****   uint32_t sta_reg;
1524:Drivers/STM32L4xx_HAL_Driver/Src/stm32l4xx_ll_sdmmc.c **** 
1525:Drivers/STM32L4xx_HAL_Driver/Src/stm32l4xx_ll_sdmmc.c ****   /* 8 is the number of required instructions cycles for the below loop statement.
1526:Drivers/STM32L4xx_HAL_Driver/Src/stm32l4xx_ll_sdmmc.c ****   The SDMMC_CMDTIMEOUT is expressed in ms */
1527:Drivers/STM32L4xx_HAL_Driver/Src/stm32l4xx_ll_sdmmc.c ****   uint32_t count = SDMMC_CMDTIMEOUT * (SystemCoreClock / 8U /1000U);
 3120              		.loc 1 1527 61
 3121 000e 354B     		ldr	r3, .L146
 3122 0010 1B68     		ldr	r3, [r3]
 3123 0012 354A     		ldr	r2, .L146+4
 3124 0014 A2FB0323 		umull	r2, r3, r2, r3
 3125 0018 5B0A     		lsrs	r3, r3, #9
 3126              		.loc 1 1527 12
 3127 001a 41F28832 		movw	r2, #5000
 3128 001e 02FB03F3 		mul	r3, r2, r3
 3129 0022 FB61     		str	r3, [r7, #28]
 3130              	.L139:
1528:Drivers/STM32L4xx_HAL_Driver/Src/stm32l4xx_ll_sdmmc.c **** 
1529:Drivers/STM32L4xx_HAL_Driver/Src/stm32l4xx_ll_sdmmc.c ****   do
1530:Drivers/STM32L4xx_HAL_Driver/Src/stm32l4xx_ll_sdmmc.c ****   {
1531:Drivers/STM32L4xx_HAL_Driver/Src/stm32l4xx_ll_sdmmc.c ****     if (count-- == 0U)
 3131              		.loc 1 1531 14
 3132 0024 FB69     		ldr	r3, [r7, #28]
 3133 0026 5A1E     		subs	r2, r3, #1
 3134 0028 FA61     		str	r2, [r7, #28]
 3135              		.loc 1 1531 8
 3136 002a 002B     		cmp	r3, #0
 3137 002c 02D1     		bne	.L137
1532:Drivers/STM32L4xx_HAL_Driver/Src/stm32l4xx_ll_sdmmc.c ****     {
1533:Drivers/STM32L4xx_HAL_Driver/Src/stm32l4xx_ll_sdmmc.c ****       return SDMMC_ERROR_TIMEOUT;
 3138              		.loc 1 1533 14
 3139 002e 4FF00043 		mov	r3, #-2147483648
 3140 0032 52E0     		b	.L138
 3141              	.L137:
1534:Drivers/STM32L4xx_HAL_Driver/Src/stm32l4xx_ll_sdmmc.c ****     }
1535:Drivers/STM32L4xx_HAL_Driver/Src/stm32l4xx_ll_sdmmc.c ****     sta_reg = SDMMCx->STA;
 3142              		.loc 1 1535 13
 3143 0034 FB68     		ldr	r3, [r7, #12]
 3144 0036 5B6B     		ldr	r3, [r3, #52]
 3145 0038 BB61     		str	r3, [r7, #24]
1536:Drivers/STM32L4xx_HAL_Driver/Src/stm32l4xx_ll_sdmmc.c ****   }while(((sta_reg & (SDMMC_FLAG_CCRCFAIL | SDMMC_FLAG_CMDREND | SDMMC_FLAG_CTIMEOUT)) == 0U) ||
 3146              		.loc 1 1536 20
 3147 003a BB69     		ldr	r3, [r7, #24]
 3148 003c 03F04503 		and	r3, r3, #69
 3149              		.loc 1 1536 95
 3150 0040 002B     		cmp	r3, #0
 3151 0042 EFD0     		beq	.L139
1537:Drivers/STM32L4xx_HAL_Driver/Src/stm32l4xx_ll_sdmmc.c ****          ((sta_reg & SDMMC_FLAG_CMDACT) != 0U ));
 3152              		.loc 1 1537 20 discriminator 1
 3153 0044 BB69     		ldr	r3, [r7, #24]
 3154 0046 03F40053 		and	r3, r3, #8192
1536:Drivers/STM32L4xx_HAL_Driver/Src/stm32l4xx_ll_sdmmc.c ****   }while(((sta_reg & (SDMMC_FLAG_CCRCFAIL | SDMMC_FLAG_CMDREND | SDMMC_FLAG_CTIMEOUT)) == 0U) ||
 3155              		.loc 1 1536 95 discriminator 1
 3156 004a 002B     		cmp	r3, #0
ARM GAS  C:\Users\Morroway\AppData\Local\Temp\cc18sEAf.s 			page 82


 3157 004c EAD1     		bne	.L139
1538:Drivers/STM32L4xx_HAL_Driver/Src/stm32l4xx_ll_sdmmc.c **** 
1539:Drivers/STM32L4xx_HAL_Driver/Src/stm32l4xx_ll_sdmmc.c ****   if(__SDMMC_GET_FLAG(SDMMCx, SDMMC_FLAG_CTIMEOUT))
 3158              		.loc 1 1539 6
 3159 004e FB68     		ldr	r3, [r7, #12]
 3160 0050 5B6B     		ldr	r3, [r3, #52]
 3161 0052 03F00403 		and	r3, r3, #4
 3162              		.loc 1 1539 5
 3163 0056 002B     		cmp	r3, #0
 3164 0058 04D0     		beq	.L140
1540:Drivers/STM32L4xx_HAL_Driver/Src/stm32l4xx_ll_sdmmc.c ****   {
1541:Drivers/STM32L4xx_HAL_Driver/Src/stm32l4xx_ll_sdmmc.c ****     __SDMMC_CLEAR_FLAG(SDMMCx, SDMMC_FLAG_CTIMEOUT);
 3165              		.loc 1 1541 5
 3166 005a FB68     		ldr	r3, [r7, #12]
 3167 005c 0422     		movs	r2, #4
 3168 005e 9A63     		str	r2, [r3, #56]
1542:Drivers/STM32L4xx_HAL_Driver/Src/stm32l4xx_ll_sdmmc.c **** 
1543:Drivers/STM32L4xx_HAL_Driver/Src/stm32l4xx_ll_sdmmc.c ****     return SDMMC_ERROR_CMD_RSP_TIMEOUT;
 3169              		.loc 1 1543 12
 3170 0060 0423     		movs	r3, #4
 3171 0062 3AE0     		b	.L138
 3172              	.L140:
1544:Drivers/STM32L4xx_HAL_Driver/Src/stm32l4xx_ll_sdmmc.c ****   }
1545:Drivers/STM32L4xx_HAL_Driver/Src/stm32l4xx_ll_sdmmc.c ****   else if(__SDMMC_GET_FLAG(SDMMCx, SDMMC_FLAG_CCRCFAIL))
 3173              		.loc 1 1545 11
 3174 0064 FB68     		ldr	r3, [r7, #12]
 3175 0066 5B6B     		ldr	r3, [r3, #52]
 3176 0068 03F00103 		and	r3, r3, #1
 3177              		.loc 1 1545 10
 3178 006c 002B     		cmp	r3, #0
 3179 006e 04D0     		beq	.L141
1546:Drivers/STM32L4xx_HAL_Driver/Src/stm32l4xx_ll_sdmmc.c ****   {
1547:Drivers/STM32L4xx_HAL_Driver/Src/stm32l4xx_ll_sdmmc.c ****     __SDMMC_CLEAR_FLAG(SDMMCx, SDMMC_FLAG_CCRCFAIL);
 3180              		.loc 1 1547 5
 3181 0070 FB68     		ldr	r3, [r7, #12]
 3182 0072 0122     		movs	r2, #1
 3183 0074 9A63     		str	r2, [r3, #56]
1548:Drivers/STM32L4xx_HAL_Driver/Src/stm32l4xx_ll_sdmmc.c **** 
1549:Drivers/STM32L4xx_HAL_Driver/Src/stm32l4xx_ll_sdmmc.c ****     return SDMMC_ERROR_CMD_CRC_FAIL;
 3184              		.loc 1 1549 12
 3185 0076 0123     		movs	r3, #1
 3186 0078 2FE0     		b	.L138
 3187              	.L141:
1550:Drivers/STM32L4xx_HAL_Driver/Src/stm32l4xx_ll_sdmmc.c ****   }
1551:Drivers/STM32L4xx_HAL_Driver/Src/stm32l4xx_ll_sdmmc.c ****   else
1552:Drivers/STM32L4xx_HAL_Driver/Src/stm32l4xx_ll_sdmmc.c ****   {
1553:Drivers/STM32L4xx_HAL_Driver/Src/stm32l4xx_ll_sdmmc.c ****     /* Nothing to do */
1554:Drivers/STM32L4xx_HAL_Driver/Src/stm32l4xx_ll_sdmmc.c ****   }
1555:Drivers/STM32L4xx_HAL_Driver/Src/stm32l4xx_ll_sdmmc.c **** 
1556:Drivers/STM32L4xx_HAL_Driver/Src/stm32l4xx_ll_sdmmc.c ****   /* Check response received is of desired command */
1557:Drivers/STM32L4xx_HAL_Driver/Src/stm32l4xx_ll_sdmmc.c ****   if(SDMMC_GetCommandResponse(SDMMCx) != SD_CMD)
 3188              		.loc 1 1557 6
 3189 007a F868     		ldr	r0, [r7, #12]
 3190 007c FFF7FEFF 		bl	SDMMC_GetCommandResponse
 3191 0080 0346     		mov	r3, r0
 3192 0082 1A46     		mov	r2, r3
 3193              		.loc 1 1557 5
ARM GAS  C:\Users\Morroway\AppData\Local\Temp\cc18sEAf.s 			page 83


 3194 0084 FB7A     		ldrb	r3, [r7, #11]	@ zero_extendqisi2
 3195 0086 9342     		cmp	r3, r2
 3196 0088 01D0     		beq	.L142
1558:Drivers/STM32L4xx_HAL_Driver/Src/stm32l4xx_ll_sdmmc.c ****   {
1559:Drivers/STM32L4xx_HAL_Driver/Src/stm32l4xx_ll_sdmmc.c ****     return SDMMC_ERROR_CMD_CRC_FAIL;
 3197              		.loc 1 1559 12
 3198 008a 0123     		movs	r3, #1
 3199 008c 25E0     		b	.L138
 3200              	.L142:
1560:Drivers/STM32L4xx_HAL_Driver/Src/stm32l4xx_ll_sdmmc.c ****   }
1561:Drivers/STM32L4xx_HAL_Driver/Src/stm32l4xx_ll_sdmmc.c **** 
1562:Drivers/STM32L4xx_HAL_Driver/Src/stm32l4xx_ll_sdmmc.c ****   /* Clear all the static flags */
1563:Drivers/STM32L4xx_HAL_Driver/Src/stm32l4xx_ll_sdmmc.c ****   __SDMMC_CLEAR_FLAG(SDMMCx, SDMMC_STATIC_CMD_FLAGS);
 3201              		.loc 1 1563 3
 3202 008e FB68     		ldr	r3, [r7, #12]
 3203 0090 164A     		ldr	r2, .L146+8
 3204 0092 9A63     		str	r2, [r3, #56]
1564:Drivers/STM32L4xx_HAL_Driver/Src/stm32l4xx_ll_sdmmc.c **** 
1565:Drivers/STM32L4xx_HAL_Driver/Src/stm32l4xx_ll_sdmmc.c ****   /* We have received response, retrieve it.  */
1566:Drivers/STM32L4xx_HAL_Driver/Src/stm32l4xx_ll_sdmmc.c ****   response_r1 = SDMMC_GetResponse(SDMMCx, SDMMC_RESP1);
 3205              		.loc 1 1566 17
 3206 0094 0021     		movs	r1, #0
 3207 0096 F868     		ldr	r0, [r7, #12]
 3208 0098 FFF7FEFF 		bl	SDMMC_GetResponse
 3209 009c 7861     		str	r0, [r7, #20]
1567:Drivers/STM32L4xx_HAL_Driver/Src/stm32l4xx_ll_sdmmc.c **** 
1568:Drivers/STM32L4xx_HAL_Driver/Src/stm32l4xx_ll_sdmmc.c ****   if((response_r1 & (SDMMC_R6_GENERAL_UNKNOWN_ERROR | SDMMC_R6_ILLEGAL_CMD | SDMMC_R6_COM_CRC_FAILE
 3210              		.loc 1 1568 19
 3211 009e 7B69     		ldr	r3, [r7, #20]
 3212 00a0 03F46043 		and	r3, r3, #57344
 3213              		.loc 1 1568 5
 3214 00a4 002B     		cmp	r3, #0
 3215 00a6 06D1     		bne	.L143
1569:Drivers/STM32L4xx_HAL_Driver/Src/stm32l4xx_ll_sdmmc.c ****   {
1570:Drivers/STM32L4xx_HAL_Driver/Src/stm32l4xx_ll_sdmmc.c ****     *pRCA = (uint16_t) (response_r1 >> 16);
 3216              		.loc 1 1570 37
 3217 00a8 7B69     		ldr	r3, [r7, #20]
 3218 00aa 1B0C     		lsrs	r3, r3, #16
 3219              		.loc 1 1570 13
 3220 00ac 9AB2     		uxth	r2, r3
 3221              		.loc 1 1570 11
 3222 00ae 7B68     		ldr	r3, [r7, #4]
 3223 00b0 1A80     		strh	r2, [r3]	@ movhi
1571:Drivers/STM32L4xx_HAL_Driver/Src/stm32l4xx_ll_sdmmc.c **** 
1572:Drivers/STM32L4xx_HAL_Driver/Src/stm32l4xx_ll_sdmmc.c ****     return SDMMC_ERROR_NONE;
 3224              		.loc 1 1572 12
 3225 00b2 0023     		movs	r3, #0
 3226 00b4 11E0     		b	.L138
 3227              	.L143:
1573:Drivers/STM32L4xx_HAL_Driver/Src/stm32l4xx_ll_sdmmc.c ****   }
1574:Drivers/STM32L4xx_HAL_Driver/Src/stm32l4xx_ll_sdmmc.c ****   else if((response_r1 & SDMMC_R6_ILLEGAL_CMD) == SDMMC_R6_ILLEGAL_CMD)
 3228              		.loc 1 1574 24
 3229 00b6 7B69     		ldr	r3, [r7, #20]
 3230 00b8 03F48043 		and	r3, r3, #16384
 3231              		.loc 1 1574 10
 3232 00bc 002B     		cmp	r3, #0
 3233 00be 02D0     		beq	.L144
ARM GAS  C:\Users\Morroway\AppData\Local\Temp\cc18sEAf.s 			page 84


1575:Drivers/STM32L4xx_HAL_Driver/Src/stm32l4xx_ll_sdmmc.c ****   {
1576:Drivers/STM32L4xx_HAL_Driver/Src/stm32l4xx_ll_sdmmc.c ****     return SDMMC_ERROR_ILLEGAL_CMD;
 3234              		.loc 1 1576 12
 3235 00c0 4FF40053 		mov	r3, #8192
 3236 00c4 09E0     		b	.L138
 3237              	.L144:
1577:Drivers/STM32L4xx_HAL_Driver/Src/stm32l4xx_ll_sdmmc.c ****   }
1578:Drivers/STM32L4xx_HAL_Driver/Src/stm32l4xx_ll_sdmmc.c ****   else if((response_r1 & SDMMC_R6_COM_CRC_FAILED) == SDMMC_R6_COM_CRC_FAILED)
 3238              		.loc 1 1578 24
 3239 00c6 7B69     		ldr	r3, [r7, #20]
 3240 00c8 03F40043 		and	r3, r3, #32768
 3241              		.loc 1 1578 10
 3242 00cc 002B     		cmp	r3, #0
 3243 00ce 02D0     		beq	.L145
1579:Drivers/STM32L4xx_HAL_Driver/Src/stm32l4xx_ll_sdmmc.c ****   {
1580:Drivers/STM32L4xx_HAL_Driver/Src/stm32l4xx_ll_sdmmc.c ****     return SDMMC_ERROR_COM_CRC_FAILED;
 3244              		.loc 1 1580 12
 3245 00d0 4FF48053 		mov	r3, #4096
 3246 00d4 01E0     		b	.L138
 3247              	.L145:
1581:Drivers/STM32L4xx_HAL_Driver/Src/stm32l4xx_ll_sdmmc.c ****   }
1582:Drivers/STM32L4xx_HAL_Driver/Src/stm32l4xx_ll_sdmmc.c ****   else
1583:Drivers/STM32L4xx_HAL_Driver/Src/stm32l4xx_ll_sdmmc.c ****   {
1584:Drivers/STM32L4xx_HAL_Driver/Src/stm32l4xx_ll_sdmmc.c ****     return SDMMC_ERROR_GENERAL_UNKNOWN_ERR;
 3248              		.loc 1 1584 12
 3249 00d6 4FF48033 		mov	r3, #65536
 3250              	.L138:
1585:Drivers/STM32L4xx_HAL_Driver/Src/stm32l4xx_ll_sdmmc.c ****   }
1586:Drivers/STM32L4xx_HAL_Driver/Src/stm32l4xx_ll_sdmmc.c **** }
 3251              		.loc 1 1586 1
 3252 00da 1846     		mov	r0, r3
 3253 00dc 2037     		adds	r7, r7, #32
 3254              		.cfi_def_cfa_offset 8
 3255 00de BD46     		mov	sp, r7
 3256              		.cfi_def_cfa_register 13
 3257              		@ sp needed
 3258 00e0 80BD     		pop	{r7, pc}
 3259              	.L147:
 3260 00e2 00BF     		.align	2
 3261              	.L146:
 3262 00e4 00000000 		.word	SystemCoreClock
 3263 00e8 D34D6210 		.word	274877907
 3264 00ec C5002000 		.word	2097349
 3265              		.cfi_endproc
 3266              	.LFE367:
 3268              		.section	.text.SDMMC_GetCmdResp7,"ax",%progbits
 3269              		.align	1
 3270              		.global	SDMMC_GetCmdResp7
 3271              		.syntax unified
 3272              		.thumb
 3273              		.thumb_func
 3275              	SDMMC_GetCmdResp7:
 3276              	.LFB368:
1587:Drivers/STM32L4xx_HAL_Driver/Src/stm32l4xx_ll_sdmmc.c **** 
1588:Drivers/STM32L4xx_HAL_Driver/Src/stm32l4xx_ll_sdmmc.c **** /**
1589:Drivers/STM32L4xx_HAL_Driver/Src/stm32l4xx_ll_sdmmc.c ****   * @brief  Checks for error conditions for R7 response.
1590:Drivers/STM32L4xx_HAL_Driver/Src/stm32l4xx_ll_sdmmc.c ****   * @param  hsd SD handle
ARM GAS  C:\Users\Morroway\AppData\Local\Temp\cc18sEAf.s 			page 85


1591:Drivers/STM32L4xx_HAL_Driver/Src/stm32l4xx_ll_sdmmc.c ****   * @retval SD Card error state
1592:Drivers/STM32L4xx_HAL_Driver/Src/stm32l4xx_ll_sdmmc.c ****   */
1593:Drivers/STM32L4xx_HAL_Driver/Src/stm32l4xx_ll_sdmmc.c **** uint32_t SDMMC_GetCmdResp7(SDMMC_TypeDef *SDMMCx)
1594:Drivers/STM32L4xx_HAL_Driver/Src/stm32l4xx_ll_sdmmc.c **** {
 3277              		.loc 1 1594 1
 3278              		.cfi_startproc
 3279              		@ args = 0, pretend = 0, frame = 16
 3280              		@ frame_needed = 1, uses_anonymous_args = 0
 3281              		@ link register save eliminated.
 3282 0000 80B4     		push	{r7}
 3283              		.cfi_def_cfa_offset 4
 3284              		.cfi_offset 7, -4
 3285 0002 85B0     		sub	sp, sp, #20
 3286              		.cfi_def_cfa_offset 24
 3287 0004 00AF     		add	r7, sp, #0
 3288              		.cfi_def_cfa_register 7
 3289 0006 7860     		str	r0, [r7, #4]
1595:Drivers/STM32L4xx_HAL_Driver/Src/stm32l4xx_ll_sdmmc.c ****   uint32_t sta_reg;
1596:Drivers/STM32L4xx_HAL_Driver/Src/stm32l4xx_ll_sdmmc.c ****   /* 8 is the number of required instructions cycles for the below loop statement.
1597:Drivers/STM32L4xx_HAL_Driver/Src/stm32l4xx_ll_sdmmc.c ****   The SDMMC_CMDTIMEOUT is expressed in ms */
1598:Drivers/STM32L4xx_HAL_Driver/Src/stm32l4xx_ll_sdmmc.c ****   uint32_t count = SDMMC_CMDTIMEOUT * (SystemCoreClock / 8U /1000U);
 3290              		.loc 1 1598 61
 3291 0008 224B     		ldr	r3, .L155
 3292 000a 1B68     		ldr	r3, [r3]
 3293 000c 224A     		ldr	r2, .L155+4
 3294 000e A2FB0323 		umull	r2, r3, r2, r3
 3295 0012 5B0A     		lsrs	r3, r3, #9
 3296              		.loc 1 1598 12
 3297 0014 41F28832 		movw	r2, #5000
 3298 0018 02FB03F3 		mul	r3, r2, r3
 3299 001c FB60     		str	r3, [r7, #12]
 3300              	.L151:
1599:Drivers/STM32L4xx_HAL_Driver/Src/stm32l4xx_ll_sdmmc.c **** 
1600:Drivers/STM32L4xx_HAL_Driver/Src/stm32l4xx_ll_sdmmc.c ****   do
1601:Drivers/STM32L4xx_HAL_Driver/Src/stm32l4xx_ll_sdmmc.c ****   {
1602:Drivers/STM32L4xx_HAL_Driver/Src/stm32l4xx_ll_sdmmc.c ****     if (count-- == 0U)
 3301              		.loc 1 1602 14
 3302 001e FB68     		ldr	r3, [r7, #12]
 3303 0020 5A1E     		subs	r2, r3, #1
 3304 0022 FA60     		str	r2, [r7, #12]
 3305              		.loc 1 1602 8
 3306 0024 002B     		cmp	r3, #0
 3307 0026 02D1     		bne	.L149
1603:Drivers/STM32L4xx_HAL_Driver/Src/stm32l4xx_ll_sdmmc.c ****     {
1604:Drivers/STM32L4xx_HAL_Driver/Src/stm32l4xx_ll_sdmmc.c ****       return SDMMC_ERROR_TIMEOUT;
 3308              		.loc 1 1604 14
 3309 0028 4FF00043 		mov	r3, #-2147483648
 3310 002c 2CE0     		b	.L150
 3311              	.L149:
1605:Drivers/STM32L4xx_HAL_Driver/Src/stm32l4xx_ll_sdmmc.c ****     }
1606:Drivers/STM32L4xx_HAL_Driver/Src/stm32l4xx_ll_sdmmc.c ****     sta_reg = SDMMCx->STA;
 3312              		.loc 1 1606 13
 3313 002e 7B68     		ldr	r3, [r7, #4]
 3314 0030 5B6B     		ldr	r3, [r3, #52]
 3315 0032 BB60     		str	r3, [r7, #8]
1607:Drivers/STM32L4xx_HAL_Driver/Src/stm32l4xx_ll_sdmmc.c ****   }while(((sta_reg & (SDMMC_FLAG_CCRCFAIL | SDMMC_FLAG_CMDREND | SDMMC_FLAG_CTIMEOUT)) == 0U) ||
 3316              		.loc 1 1607 20
ARM GAS  C:\Users\Morroway\AppData\Local\Temp\cc18sEAf.s 			page 86


 3317 0034 BB68     		ldr	r3, [r7, #8]
 3318 0036 03F04503 		and	r3, r3, #69
 3319              		.loc 1 1607 95
 3320 003a 002B     		cmp	r3, #0
 3321 003c EFD0     		beq	.L151
1608:Drivers/STM32L4xx_HAL_Driver/Src/stm32l4xx_ll_sdmmc.c ****          ((sta_reg & SDMMC_FLAG_CMDACT) != 0U ));
 3322              		.loc 1 1608 20 discriminator 1
 3323 003e BB68     		ldr	r3, [r7, #8]
 3324 0040 03F40053 		and	r3, r3, #8192
1607:Drivers/STM32L4xx_HAL_Driver/Src/stm32l4xx_ll_sdmmc.c ****   }while(((sta_reg & (SDMMC_FLAG_CCRCFAIL | SDMMC_FLAG_CMDREND | SDMMC_FLAG_CTIMEOUT)) == 0U) ||
 3325              		.loc 1 1607 95 discriminator 1
 3326 0044 002B     		cmp	r3, #0
 3327 0046 EAD1     		bne	.L151
1609:Drivers/STM32L4xx_HAL_Driver/Src/stm32l4xx_ll_sdmmc.c **** 
1610:Drivers/STM32L4xx_HAL_Driver/Src/stm32l4xx_ll_sdmmc.c ****   if(__SDMMC_GET_FLAG(SDMMCx, SDMMC_FLAG_CTIMEOUT))
 3328              		.loc 1 1610 6
 3329 0048 7B68     		ldr	r3, [r7, #4]
 3330 004a 5B6B     		ldr	r3, [r3, #52]
 3331 004c 03F00403 		and	r3, r3, #4
 3332              		.loc 1 1610 5
 3333 0050 002B     		cmp	r3, #0
 3334 0052 04D0     		beq	.L152
1611:Drivers/STM32L4xx_HAL_Driver/Src/stm32l4xx_ll_sdmmc.c ****   {
1612:Drivers/STM32L4xx_HAL_Driver/Src/stm32l4xx_ll_sdmmc.c ****     /* Card is SD V2.0 compliant */
1613:Drivers/STM32L4xx_HAL_Driver/Src/stm32l4xx_ll_sdmmc.c ****     __SDMMC_CLEAR_FLAG(SDMMCx, SDMMC_FLAG_CTIMEOUT);
 3335              		.loc 1 1613 5
 3336 0054 7B68     		ldr	r3, [r7, #4]
 3337 0056 0422     		movs	r2, #4
 3338 0058 9A63     		str	r2, [r3, #56]
1614:Drivers/STM32L4xx_HAL_Driver/Src/stm32l4xx_ll_sdmmc.c **** 
1615:Drivers/STM32L4xx_HAL_Driver/Src/stm32l4xx_ll_sdmmc.c ****     return SDMMC_ERROR_CMD_RSP_TIMEOUT;
 3339              		.loc 1 1615 12
 3340 005a 0423     		movs	r3, #4
 3341 005c 14E0     		b	.L150
 3342              	.L152:
1616:Drivers/STM32L4xx_HAL_Driver/Src/stm32l4xx_ll_sdmmc.c ****   }
1617:Drivers/STM32L4xx_HAL_Driver/Src/stm32l4xx_ll_sdmmc.c **** 
1618:Drivers/STM32L4xx_HAL_Driver/Src/stm32l4xx_ll_sdmmc.c ****   else if(__SDMMC_GET_FLAG(SDMMCx, SDMMC_FLAG_CCRCFAIL))
 3343              		.loc 1 1618 11
 3344 005e 7B68     		ldr	r3, [r7, #4]
 3345 0060 5B6B     		ldr	r3, [r3, #52]
 3346 0062 03F00103 		and	r3, r3, #1
 3347              		.loc 1 1618 10
 3348 0066 002B     		cmp	r3, #0
 3349 0068 04D0     		beq	.L153
1619:Drivers/STM32L4xx_HAL_Driver/Src/stm32l4xx_ll_sdmmc.c ****   {
1620:Drivers/STM32L4xx_HAL_Driver/Src/stm32l4xx_ll_sdmmc.c ****     /* Card is SD V2.0 compliant */
1621:Drivers/STM32L4xx_HAL_Driver/Src/stm32l4xx_ll_sdmmc.c ****     __SDMMC_CLEAR_FLAG(SDMMCx, SDMMC_FLAG_CCRCFAIL);
 3350              		.loc 1 1621 5
 3351 006a 7B68     		ldr	r3, [r7, #4]
 3352 006c 0122     		movs	r2, #1
 3353 006e 9A63     		str	r2, [r3, #56]
1622:Drivers/STM32L4xx_HAL_Driver/Src/stm32l4xx_ll_sdmmc.c **** 
1623:Drivers/STM32L4xx_HAL_Driver/Src/stm32l4xx_ll_sdmmc.c ****     return SDMMC_ERROR_CMD_CRC_FAIL;
 3354              		.loc 1 1623 12
 3355 0070 0123     		movs	r3, #1
 3356 0072 09E0     		b	.L150
ARM GAS  C:\Users\Morroway\AppData\Local\Temp\cc18sEAf.s 			page 87


 3357              	.L153:
1624:Drivers/STM32L4xx_HAL_Driver/Src/stm32l4xx_ll_sdmmc.c ****   }
1625:Drivers/STM32L4xx_HAL_Driver/Src/stm32l4xx_ll_sdmmc.c ****   else
1626:Drivers/STM32L4xx_HAL_Driver/Src/stm32l4xx_ll_sdmmc.c ****   {
1627:Drivers/STM32L4xx_HAL_Driver/Src/stm32l4xx_ll_sdmmc.c ****     /* Nothing to do */
1628:Drivers/STM32L4xx_HAL_Driver/Src/stm32l4xx_ll_sdmmc.c ****   }
1629:Drivers/STM32L4xx_HAL_Driver/Src/stm32l4xx_ll_sdmmc.c **** 
1630:Drivers/STM32L4xx_HAL_Driver/Src/stm32l4xx_ll_sdmmc.c ****   if(__SDMMC_GET_FLAG(SDMMCx, SDMMC_FLAG_CMDREND))
 3358              		.loc 1 1630 6
 3359 0074 7B68     		ldr	r3, [r7, #4]
 3360 0076 5B6B     		ldr	r3, [r3, #52]
 3361 0078 03F04003 		and	r3, r3, #64
 3362              		.loc 1 1630 5
 3363 007c 002B     		cmp	r3, #0
 3364 007e 02D0     		beq	.L154
1631:Drivers/STM32L4xx_HAL_Driver/Src/stm32l4xx_ll_sdmmc.c ****   {
1632:Drivers/STM32L4xx_HAL_Driver/Src/stm32l4xx_ll_sdmmc.c ****     /* Card is SD V2.0 compliant */
1633:Drivers/STM32L4xx_HAL_Driver/Src/stm32l4xx_ll_sdmmc.c ****     __SDMMC_CLEAR_FLAG(SDMMCx, SDMMC_FLAG_CMDREND);
 3365              		.loc 1 1633 5
 3366 0080 7B68     		ldr	r3, [r7, #4]
 3367 0082 4022     		movs	r2, #64
 3368 0084 9A63     		str	r2, [r3, #56]
 3369              	.L154:
1634:Drivers/STM32L4xx_HAL_Driver/Src/stm32l4xx_ll_sdmmc.c ****   }
1635:Drivers/STM32L4xx_HAL_Driver/Src/stm32l4xx_ll_sdmmc.c **** 
1636:Drivers/STM32L4xx_HAL_Driver/Src/stm32l4xx_ll_sdmmc.c ****   return SDMMC_ERROR_NONE;
 3370              		.loc 1 1636 10
 3371 0086 0023     		movs	r3, #0
 3372              	.L150:
1637:Drivers/STM32L4xx_HAL_Driver/Src/stm32l4xx_ll_sdmmc.c **** 
1638:Drivers/STM32L4xx_HAL_Driver/Src/stm32l4xx_ll_sdmmc.c **** }
 3373              		.loc 1 1638 1
 3374 0088 1846     		mov	r0, r3
 3375 008a 1437     		adds	r7, r7, #20
 3376              		.cfi_def_cfa_offset 4
 3377 008c BD46     		mov	sp, r7
 3378              		.cfi_def_cfa_register 13
 3379              		@ sp needed
 3380 008e 5DF8047B 		ldr	r7, [sp], #4
 3381              		.cfi_restore 7
 3382              		.cfi_def_cfa_offset 0
 3383 0092 7047     		bx	lr
 3384              	.L156:
 3385              		.align	2
 3386              	.L155:
 3387 0094 00000000 		.word	SystemCoreClock
 3388 0098 D34D6210 		.word	274877907
 3389              		.cfi_endproc
 3390              	.LFE368:
 3392              		.section	.text.SDMMC_GetCmdError,"ax",%progbits
 3393              		.align	1
 3394              		.syntax unified
 3395              		.thumb
 3396              		.thumb_func
 3398              	SDMMC_GetCmdError:
 3399              	.LFB369:
1639:Drivers/STM32L4xx_HAL_Driver/Src/stm32l4xx_ll_sdmmc.c **** /**
ARM GAS  C:\Users\Morroway\AppData\Local\Temp\cc18sEAf.s 			page 88


1640:Drivers/STM32L4xx_HAL_Driver/Src/stm32l4xx_ll_sdmmc.c ****   * @}
1641:Drivers/STM32L4xx_HAL_Driver/Src/stm32l4xx_ll_sdmmc.c ****   */
1642:Drivers/STM32L4xx_HAL_Driver/Src/stm32l4xx_ll_sdmmc.c **** 
1643:Drivers/STM32L4xx_HAL_Driver/Src/stm32l4xx_ll_sdmmc.c **** 
1644:Drivers/STM32L4xx_HAL_Driver/Src/stm32l4xx_ll_sdmmc.c **** /* Private function ----------------------------------------------------------*/
1645:Drivers/STM32L4xx_HAL_Driver/Src/stm32l4xx_ll_sdmmc.c **** /** @addtogroup SD_Private_Functions
1646:Drivers/STM32L4xx_HAL_Driver/Src/stm32l4xx_ll_sdmmc.c ****   * @{
1647:Drivers/STM32L4xx_HAL_Driver/Src/stm32l4xx_ll_sdmmc.c ****   */
1648:Drivers/STM32L4xx_HAL_Driver/Src/stm32l4xx_ll_sdmmc.c **** 
1649:Drivers/STM32L4xx_HAL_Driver/Src/stm32l4xx_ll_sdmmc.c **** /**
1650:Drivers/STM32L4xx_HAL_Driver/Src/stm32l4xx_ll_sdmmc.c ****   * @brief  Checks for error conditions for CMD0.
1651:Drivers/STM32L4xx_HAL_Driver/Src/stm32l4xx_ll_sdmmc.c ****   * @param  hsd SD handle
1652:Drivers/STM32L4xx_HAL_Driver/Src/stm32l4xx_ll_sdmmc.c ****   * @retval SD Card error state
1653:Drivers/STM32L4xx_HAL_Driver/Src/stm32l4xx_ll_sdmmc.c ****   */
1654:Drivers/STM32L4xx_HAL_Driver/Src/stm32l4xx_ll_sdmmc.c **** static uint32_t SDMMC_GetCmdError(SDMMC_TypeDef *SDMMCx)
1655:Drivers/STM32L4xx_HAL_Driver/Src/stm32l4xx_ll_sdmmc.c **** {
 3400              		.loc 1 1655 1
 3401              		.cfi_startproc
 3402              		@ args = 0, pretend = 0, frame = 16
 3403              		@ frame_needed = 1, uses_anonymous_args = 0
 3404              		@ link register save eliminated.
 3405 0000 80B4     		push	{r7}
 3406              		.cfi_def_cfa_offset 4
 3407              		.cfi_offset 7, -4
 3408 0002 85B0     		sub	sp, sp, #20
 3409              		.cfi_def_cfa_offset 24
 3410 0004 00AF     		add	r7, sp, #0
 3411              		.cfi_def_cfa_register 7
 3412 0006 7860     		str	r0, [r7, #4]
1656:Drivers/STM32L4xx_HAL_Driver/Src/stm32l4xx_ll_sdmmc.c ****   /* 8 is the number of required instructions cycles for the below loop statement.
1657:Drivers/STM32L4xx_HAL_Driver/Src/stm32l4xx_ll_sdmmc.c ****   The SDMMC_CMDTIMEOUT is expressed in ms */
1658:Drivers/STM32L4xx_HAL_Driver/Src/stm32l4xx_ll_sdmmc.c ****   uint32_t count = SDMMC_CMDTIMEOUT * (SystemCoreClock / 8U /1000U);
 3413              		.loc 1 1658 61
 3414 0008 114B     		ldr	r3, .L161
 3415 000a 1B68     		ldr	r3, [r3]
 3416 000c 114A     		ldr	r2, .L161+4
 3417 000e A2FB0323 		umull	r2, r3, r2, r3
 3418 0012 5B0A     		lsrs	r3, r3, #9
 3419              		.loc 1 1658 12
 3420 0014 41F28832 		movw	r2, #5000
 3421 0018 02FB03F3 		mul	r3, r2, r3
 3422 001c FB60     		str	r3, [r7, #12]
 3423              	.L160:
1659:Drivers/STM32L4xx_HAL_Driver/Src/stm32l4xx_ll_sdmmc.c **** 
1660:Drivers/STM32L4xx_HAL_Driver/Src/stm32l4xx_ll_sdmmc.c ****   do
1661:Drivers/STM32L4xx_HAL_Driver/Src/stm32l4xx_ll_sdmmc.c ****   {
1662:Drivers/STM32L4xx_HAL_Driver/Src/stm32l4xx_ll_sdmmc.c ****     if (count-- == 0U)
 3424              		.loc 1 1662 14
 3425 001e FB68     		ldr	r3, [r7, #12]
 3426 0020 5A1E     		subs	r2, r3, #1
 3427 0022 FA60     		str	r2, [r7, #12]
 3428              		.loc 1 1662 8
 3429 0024 002B     		cmp	r3, #0
 3430 0026 02D1     		bne	.L158
1663:Drivers/STM32L4xx_HAL_Driver/Src/stm32l4xx_ll_sdmmc.c ****     {
1664:Drivers/STM32L4xx_HAL_Driver/Src/stm32l4xx_ll_sdmmc.c ****       return SDMMC_ERROR_TIMEOUT;
 3431              		.loc 1 1664 14
ARM GAS  C:\Users\Morroway\AppData\Local\Temp\cc18sEAf.s 			page 89


 3432 0028 4FF00043 		mov	r3, #-2147483648
 3433 002c 09E0     		b	.L159
 3434              	.L158:
1665:Drivers/STM32L4xx_HAL_Driver/Src/stm32l4xx_ll_sdmmc.c ****     }
1666:Drivers/STM32L4xx_HAL_Driver/Src/stm32l4xx_ll_sdmmc.c **** 
1667:Drivers/STM32L4xx_HAL_Driver/Src/stm32l4xx_ll_sdmmc.c ****   }while(!__SDMMC_GET_FLAG(SDMMCx, SDMMC_FLAG_CMDSENT));
 3435              		.loc 1 1667 11
 3436 002e 7B68     		ldr	r3, [r7, #4]
 3437 0030 5B6B     		ldr	r3, [r3, #52]
 3438 0032 03F08003 		and	r3, r3, #128
 3439              		.loc 1 1667 10
 3440 0036 002B     		cmp	r3, #0
 3441 0038 F1D0     		beq	.L160
1668:Drivers/STM32L4xx_HAL_Driver/Src/stm32l4xx_ll_sdmmc.c **** 
1669:Drivers/STM32L4xx_HAL_Driver/Src/stm32l4xx_ll_sdmmc.c ****   /* Clear all the static flags */
1670:Drivers/STM32L4xx_HAL_Driver/Src/stm32l4xx_ll_sdmmc.c ****   __SDMMC_CLEAR_FLAG(SDMMCx, SDMMC_STATIC_CMD_FLAGS);
 3442              		.loc 1 1670 3
 3443 003a 7B68     		ldr	r3, [r7, #4]
 3444 003c 064A     		ldr	r2, .L161+8
 3445 003e 9A63     		str	r2, [r3, #56]
1671:Drivers/STM32L4xx_HAL_Driver/Src/stm32l4xx_ll_sdmmc.c **** 
1672:Drivers/STM32L4xx_HAL_Driver/Src/stm32l4xx_ll_sdmmc.c ****   return SDMMC_ERROR_NONE;
 3446              		.loc 1 1672 10
 3447 0040 0023     		movs	r3, #0
 3448              	.L159:
1673:Drivers/STM32L4xx_HAL_Driver/Src/stm32l4xx_ll_sdmmc.c **** }
 3449              		.loc 1 1673 1
 3450 0042 1846     		mov	r0, r3
 3451 0044 1437     		adds	r7, r7, #20
 3452              		.cfi_def_cfa_offset 4
 3453 0046 BD46     		mov	sp, r7
 3454              		.cfi_def_cfa_register 13
 3455              		@ sp needed
 3456 0048 5DF8047B 		ldr	r7, [sp], #4
 3457              		.cfi_restore 7
 3458              		.cfi_def_cfa_offset 0
 3459 004c 7047     		bx	lr
 3460              	.L162:
 3461 004e 00BF     		.align	2
 3462              	.L161:
 3463 0050 00000000 		.word	SystemCoreClock
 3464 0054 D34D6210 		.word	274877907
 3465 0058 C5002000 		.word	2097349
 3466              		.cfi_endproc
 3467              	.LFE369:
 3469              		.text
 3470              	.Letext0:
 3471              		.file 2 "c:\\users\\morroway\\appdata\\roaming\\code\\user\\globalstorage\\bmd.stm32-for-vscode\\@
 3472              		.file 3 "c:\\users\\morroway\\appdata\\roaming\\code\\user\\globalstorage\\bmd.stm32-for-vscode\\@
 3473              		.file 4 "Drivers/CMSIS/Device/ST/STM32L4xx/Include/stm32l4p5xx.h"
 3474              		.file 5 "Drivers/STM32L4xx_HAL_Driver/Inc/stm32l4xx_hal_def.h"
 3475              		.file 6 "Drivers/STM32L4xx_HAL_Driver/Inc/stm32l4xx_ll_sdmmc.h"
 3476              		.file 7 "Drivers/CMSIS/Device/ST/STM32L4xx/Include/system_stm32l4xx.h"
 3477              		.file 8 "Drivers/STM32L4xx_HAL_Driver/Inc/stm32l4xx_hal.h"
ARM GAS  C:\Users\Morroway\AppData\Local\Temp\cc18sEAf.s 			page 90


DEFINED SYMBOLS
                            *ABS*:0000000000000000 stm32l4xx_ll_sdmmc.c
C:\Users\Morroway\AppData\Local\Temp\cc18sEAf.s:20     .text.SDMMC_Init:0000000000000000 $t
C:\Users\Morroway\AppData\Local\Temp\cc18sEAf.s:26     .text.SDMMC_Init:0000000000000000 SDMMC_Init
C:\Users\Morroway\AppData\Local\Temp\cc18sEAf.s:98     .text.SDMMC_Init:0000000000000050 $d
C:\Users\Morroway\AppData\Local\Temp\cc18sEAf.s:103    .text.SDMMC_ReadFIFO:0000000000000000 $t
C:\Users\Morroway\AppData\Local\Temp\cc18sEAf.s:109    .text.SDMMC_ReadFIFO:0000000000000000 SDMMC_ReadFIFO
C:\Users\Morroway\AppData\Local\Temp\cc18sEAf.s:142    .text.SDMMC_WriteFIFO:0000000000000000 $t
C:\Users\Morroway\AppData\Local\Temp\cc18sEAf.s:148    .text.SDMMC_WriteFIFO:0000000000000000 SDMMC_WriteFIFO
C:\Users\Morroway\AppData\Local\Temp\cc18sEAf.s:187    .text.SDMMC_PowerState_ON:0000000000000000 $t
C:\Users\Morroway\AppData\Local\Temp\cc18sEAf.s:193    .text.SDMMC_PowerState_ON:0000000000000000 SDMMC_PowerState_ON
C:\Users\Morroway\AppData\Local\Temp\cc18sEAf.s:231    .text.SDMMC_PowerState_Cycle:0000000000000000 $t
C:\Users\Morroway\AppData\Local\Temp\cc18sEAf.s:237    .text.SDMMC_PowerState_Cycle:0000000000000000 SDMMC_PowerState_Cycle
C:\Users\Morroway\AppData\Local\Temp\cc18sEAf.s:275    .text.SDMMC_PowerState_OFF:0000000000000000 $t
C:\Users\Morroway\AppData\Local\Temp\cc18sEAf.s:281    .text.SDMMC_PowerState_OFF:0000000000000000 SDMMC_PowerState_OFF
C:\Users\Morroway\AppData\Local\Temp\cc18sEAf.s:319    .text.SDMMC_GetPowerState:0000000000000000 $t
C:\Users\Morroway\AppData\Local\Temp\cc18sEAf.s:325    .text.SDMMC_GetPowerState:0000000000000000 SDMMC_GetPowerState
C:\Users\Morroway\AppData\Local\Temp\cc18sEAf.s:360    .text.SDMMC_SendCommand:0000000000000000 $t
C:\Users\Morroway\AppData\Local\Temp\cc18sEAf.s:366    .text.SDMMC_SendCommand:0000000000000000 SDMMC_SendCommand
C:\Users\Morroway\AppData\Local\Temp\cc18sEAf.s:438    .text.SDMMC_SendCommand:0000000000000050 $d
C:\Users\Morroway\AppData\Local\Temp\cc18sEAf.s:443    .text.SDMMC_GetCommandResponse:0000000000000000 $t
C:\Users\Morroway\AppData\Local\Temp\cc18sEAf.s:449    .text.SDMMC_GetCommandResponse:0000000000000000 SDMMC_GetCommandResponse
C:\Users\Morroway\AppData\Local\Temp\cc18sEAf.s:484    .text.SDMMC_GetResponse:0000000000000000 $t
C:\Users\Morroway\AppData\Local\Temp\cc18sEAf.s:490    .text.SDMMC_GetResponse:0000000000000000 SDMMC_GetResponse
C:\Users\Morroway\AppData\Local\Temp\cc18sEAf.s:534    .text.SDMMC_ConfigData:0000000000000000 $t
C:\Users\Morroway\AppData\Local\Temp\cc18sEAf.s:540    .text.SDMMC_ConfigData:0000000000000000 SDMMC_ConfigData
C:\Users\Morroway\AppData\Local\Temp\cc18sEAf.s:618    .text.SDMMC_GetDataCounter:0000000000000000 $t
C:\Users\Morroway\AppData\Local\Temp\cc18sEAf.s:624    .text.SDMMC_GetDataCounter:0000000000000000 SDMMC_GetDataCounter
C:\Users\Morroway\AppData\Local\Temp\cc18sEAf.s:657    .text.SDMMC_GetFIFOCount:0000000000000000 $t
C:\Users\Morroway\AppData\Local\Temp\cc18sEAf.s:663    .text.SDMMC_GetFIFOCount:0000000000000000 SDMMC_GetFIFOCount
C:\Users\Morroway\AppData\Local\Temp\cc18sEAf.s:696    .text.SDMMC_SetSDMMCReadWaitMode:0000000000000000 $t
C:\Users\Morroway\AppData\Local\Temp\cc18sEAf.s:702    .text.SDMMC_SetSDMMCReadWaitMode:0000000000000000 SDMMC_SetSDMMCReadWaitMode
C:\Users\Morroway\AppData\Local\Temp\cc18sEAf.s:743    .text.SDMMC_CmdBlockLength:0000000000000000 $t
C:\Users\Morroway\AppData\Local\Temp\cc18sEAf.s:749    .text.SDMMC_CmdBlockLength:0000000000000000 SDMMC_CmdBlockLength
C:\Users\Morroway\AppData\Local\Temp\cc18sEAf.s:2555   .text.SDMMC_GetCmdResp1:0000000000000000 SDMMC_GetCmdResp1
C:\Users\Morroway\AppData\Local\Temp\cc18sEAf.s:805    .text.SDMMC_CmdReadSingleBlock:0000000000000000 $t
C:\Users\Morroway\AppData\Local\Temp\cc18sEAf.s:811    .text.SDMMC_CmdReadSingleBlock:0000000000000000 SDMMC_CmdReadSingleBlock
C:\Users\Morroway\AppData\Local\Temp\cc18sEAf.s:867    .text.SDMMC_CmdReadMultiBlock:0000000000000000 $t
C:\Users\Morroway\AppData\Local\Temp\cc18sEAf.s:873    .text.SDMMC_CmdReadMultiBlock:0000000000000000 SDMMC_CmdReadMultiBlock
C:\Users\Morroway\AppData\Local\Temp\cc18sEAf.s:929    .text.SDMMC_CmdWriteSingleBlock:0000000000000000 $t
C:\Users\Morroway\AppData\Local\Temp\cc18sEAf.s:935    .text.SDMMC_CmdWriteSingleBlock:0000000000000000 SDMMC_CmdWriteSingleBlock
C:\Users\Morroway\AppData\Local\Temp\cc18sEAf.s:991    .text.SDMMC_CmdWriteMultiBlock:0000000000000000 $t
C:\Users\Morroway\AppData\Local\Temp\cc18sEAf.s:997    .text.SDMMC_CmdWriteMultiBlock:0000000000000000 SDMMC_CmdWriteMultiBlock
C:\Users\Morroway\AppData\Local\Temp\cc18sEAf.s:1053   .text.SDMMC_CmdSDEraseStartAdd:0000000000000000 $t
C:\Users\Morroway\AppData\Local\Temp\cc18sEAf.s:1059   .text.SDMMC_CmdSDEraseStartAdd:0000000000000000 SDMMC_CmdSDEraseStartAdd
C:\Users\Morroway\AppData\Local\Temp\cc18sEAf.s:1115   .text.SDMMC_CmdSDEraseEndAdd:0000000000000000 $t
C:\Users\Morroway\AppData\Local\Temp\cc18sEAf.s:1121   .text.SDMMC_CmdSDEraseEndAdd:0000000000000000 SDMMC_CmdSDEraseEndAdd
C:\Users\Morroway\AppData\Local\Temp\cc18sEAf.s:1177   .text.SDMMC_CmdEraseStartAdd:0000000000000000 $t
C:\Users\Morroway\AppData\Local\Temp\cc18sEAf.s:1183   .text.SDMMC_CmdEraseStartAdd:0000000000000000 SDMMC_CmdEraseStartAdd
C:\Users\Morroway\AppData\Local\Temp\cc18sEAf.s:1239   .text.SDMMC_CmdEraseEndAdd:0000000000000000 $t
C:\Users\Morroway\AppData\Local\Temp\cc18sEAf.s:1245   .text.SDMMC_CmdEraseEndAdd:0000000000000000 SDMMC_CmdEraseEndAdd
C:\Users\Morroway\AppData\Local\Temp\cc18sEAf.s:1301   .text.SDMMC_CmdErase:0000000000000000 $t
C:\Users\Morroway\AppData\Local\Temp\cc18sEAf.s:1307   .text.SDMMC_CmdErase:0000000000000000 SDMMC_CmdErase
C:\Users\Morroway\AppData\Local\Temp\cc18sEAf.s:1363   .text.SDMMC_CmdStopTransfer:0000000000000000 $t
C:\Users\Morroway\AppData\Local\Temp\cc18sEAf.s:1369   .text.SDMMC_CmdStopTransfer:0000000000000000 SDMMC_CmdStopTransfer
C:\Users\Morroway\AppData\Local\Temp\cc18sEAf.s:1441   .text.SDMMC_CmdStopTransfer:0000000000000068 $d
C:\Users\Morroway\AppData\Local\Temp\cc18sEAf.s:1446   .text.SDMMC_CmdSelDesel:0000000000000000 $t
ARM GAS  C:\Users\Morroway\AppData\Local\Temp\cc18sEAf.s 			page 91


C:\Users\Morroway\AppData\Local\Temp\cc18sEAf.s:1452   .text.SDMMC_CmdSelDesel:0000000000000000 SDMMC_CmdSelDesel
C:\Users\Morroway\AppData\Local\Temp\cc18sEAf.s:1509   .text.SDMMC_CmdGoIdleState:0000000000000000 $t
C:\Users\Morroway\AppData\Local\Temp\cc18sEAf.s:1515   .text.SDMMC_CmdGoIdleState:0000000000000000 SDMMC_CmdGoIdleState
C:\Users\Morroway\AppData\Local\Temp\cc18sEAf.s:3398   .text.SDMMC_GetCmdError:0000000000000000 SDMMC_GetCmdError
C:\Users\Morroway\AppData\Local\Temp\cc18sEAf.s:1568   .text.SDMMC_CmdOperCond:0000000000000000 $t
C:\Users\Morroway\AppData\Local\Temp\cc18sEAf.s:1574   .text.SDMMC_CmdOperCond:0000000000000000 SDMMC_CmdOperCond
C:\Users\Morroway\AppData\Local\Temp\cc18sEAf.s:3275   .text.SDMMC_GetCmdResp7:0000000000000000 SDMMC_GetCmdResp7
C:\Users\Morroway\AppData\Local\Temp\cc18sEAf.s:1627   .text.SDMMC_CmdAppCommand:0000000000000000 $t
C:\Users\Morroway\AppData\Local\Temp\cc18sEAf.s:1633   .text.SDMMC_CmdAppCommand:0000000000000000 SDMMC_CmdAppCommand
C:\Users\Morroway\AppData\Local\Temp\cc18sEAf.s:1689   .text.SDMMC_CmdAppOperCommand:0000000000000000 $t
C:\Users\Morroway\AppData\Local\Temp\cc18sEAf.s:1695   .text.SDMMC_CmdAppOperCommand:0000000000000000 SDMMC_CmdAppOperCommand
C:\Users\Morroway\AppData\Local\Temp\cc18sEAf.s:3000   .text.SDMMC_GetCmdResp3:0000000000000000 SDMMC_GetCmdResp3
C:\Users\Morroway\AppData\Local\Temp\cc18sEAf.s:1749   .text.SDMMC_CmdBusWidth:0000000000000000 $t
C:\Users\Morroway\AppData\Local\Temp\cc18sEAf.s:1755   .text.SDMMC_CmdBusWidth:0000000000000000 SDMMC_CmdBusWidth
C:\Users\Morroway\AppData\Local\Temp\cc18sEAf.s:1811   .text.SDMMC_CmdSendSCR:0000000000000000 $t
C:\Users\Morroway\AppData\Local\Temp\cc18sEAf.s:1817   .text.SDMMC_CmdSendSCR:0000000000000000 SDMMC_CmdSendSCR
C:\Users\Morroway\AppData\Local\Temp\cc18sEAf.s:1872   .text.SDMMC_CmdSendCID:0000000000000000 $t
C:\Users\Morroway\AppData\Local\Temp\cc18sEAf.s:1878   .text.SDMMC_CmdSendCID:0000000000000000 SDMMC_CmdSendCID
C:\Users\Morroway\AppData\Local\Temp\cc18sEAf.s:2883   .text.SDMMC_GetCmdResp2:0000000000000000 SDMMC_GetCmdResp2
C:\Users\Morroway\AppData\Local\Temp\cc18sEAf.s:1931   .text.SDMMC_CmdSendCSD:0000000000000000 $t
C:\Users\Morroway\AppData\Local\Temp\cc18sEAf.s:1937   .text.SDMMC_CmdSendCSD:0000000000000000 SDMMC_CmdSendCSD
C:\Users\Morroway\AppData\Local\Temp\cc18sEAf.s:1991   .text.SDMMC_CmdSetRelAdd:0000000000000000 $t
C:\Users\Morroway\AppData\Local\Temp\cc18sEAf.s:1997   .text.SDMMC_CmdSetRelAdd:0000000000000000 SDMMC_CmdSetRelAdd
C:\Users\Morroway\AppData\Local\Temp\cc18sEAf.s:3102   .text.SDMMC_GetCmdResp6:0000000000000000 SDMMC_GetCmdResp6
C:\Users\Morroway\AppData\Local\Temp\cc18sEAf.s:2053   .text.SDMMC_CmdSetRelAddMmc:0000000000000000 $t
C:\Users\Morroway\AppData\Local\Temp\cc18sEAf.s:2059   .text.SDMMC_CmdSetRelAddMmc:0000000000000000 SDMMC_CmdSetRelAddMmc
C:\Users\Morroway\AppData\Local\Temp\cc18sEAf.s:2119   .text.SDMMC_CmdSleepMmc:0000000000000000 $t
C:\Users\Morroway\AppData\Local\Temp\cc18sEAf.s:2125   .text.SDMMC_CmdSleepMmc:0000000000000000 SDMMC_CmdSleepMmc
C:\Users\Morroway\AppData\Local\Temp\cc18sEAf.s:2181   .text.SDMMC_CmdSendStatus:0000000000000000 $t
C:\Users\Morroway\AppData\Local\Temp\cc18sEAf.s:2187   .text.SDMMC_CmdSendStatus:0000000000000000 SDMMC_CmdSendStatus
C:\Users\Morroway\AppData\Local\Temp\cc18sEAf.s:2243   .text.SDMMC_CmdStatusRegister:0000000000000000 $t
C:\Users\Morroway\AppData\Local\Temp\cc18sEAf.s:2249   .text.SDMMC_CmdStatusRegister:0000000000000000 SDMMC_CmdStatusRegister
C:\Users\Morroway\AppData\Local\Temp\cc18sEAf.s:2304   .text.SDMMC_CmdOpCondition:0000000000000000 $t
C:\Users\Morroway\AppData\Local\Temp\cc18sEAf.s:2310   .text.SDMMC_CmdOpCondition:0000000000000000 SDMMC_CmdOpCondition
C:\Users\Morroway\AppData\Local\Temp\cc18sEAf.s:2364   .text.SDMMC_CmdSwitch:0000000000000000 $t
C:\Users\Morroway\AppData\Local\Temp\cc18sEAf.s:2370   .text.SDMMC_CmdSwitch:0000000000000000 SDMMC_CmdSwitch
C:\Users\Morroway\AppData\Local\Temp\cc18sEAf.s:2426   .text.SDMMC_CmdVoltageSwitch:0000000000000000 $t
C:\Users\Morroway\AppData\Local\Temp\cc18sEAf.s:2432   .text.SDMMC_CmdVoltageSwitch:0000000000000000 SDMMC_CmdVoltageSwitch
C:\Users\Morroway\AppData\Local\Temp\cc18sEAf.s:2487   .text.SDMMC_CmdSendEXTCSD:0000000000000000 $t
C:\Users\Morroway\AppData\Local\Temp\cc18sEAf.s:2493   .text.SDMMC_CmdSendEXTCSD:0000000000000000 SDMMC_CmdSendEXTCSD
C:\Users\Morroway\AppData\Local\Temp\cc18sEAf.s:2549   .text.SDMMC_GetCmdResp1:0000000000000000 $t
C:\Users\Morroway\AppData\Local\Temp\cc18sEAf.s:2868   .text.SDMMC_GetCmdResp1:00000000000001d0 $d
C:\Users\Morroway\AppData\Local\Temp\cc18sEAf.s:2877   .text.SDMMC_GetCmdResp2:0000000000000000 $t
C:\Users\Morroway\AppData\Local\Temp\cc18sEAf.s:2987   .text.SDMMC_GetCmdResp2:0000000000000088 $d
C:\Users\Morroway\AppData\Local\Temp\cc18sEAf.s:2994   .text.SDMMC_GetCmdResp3:0000000000000000 $t
C:\Users\Morroway\AppData\Local\Temp\cc18sEAf.s:3089   .text.SDMMC_GetCmdResp3:0000000000000074 $d
C:\Users\Morroway\AppData\Local\Temp\cc18sEAf.s:3096   .text.SDMMC_GetCmdResp6:0000000000000000 $t
C:\Users\Morroway\AppData\Local\Temp\cc18sEAf.s:3262   .text.SDMMC_GetCmdResp6:00000000000000e4 $d
C:\Users\Morroway\AppData\Local\Temp\cc18sEAf.s:3269   .text.SDMMC_GetCmdResp7:0000000000000000 $t
C:\Users\Morroway\AppData\Local\Temp\cc18sEAf.s:3387   .text.SDMMC_GetCmdResp7:0000000000000094 $d
C:\Users\Morroway\AppData\Local\Temp\cc18sEAf.s:3393   .text.SDMMC_GetCmdError:0000000000000000 $t
C:\Users\Morroway\AppData\Local\Temp\cc18sEAf.s:3463   .text.SDMMC_GetCmdError:0000000000000050 $d

UNDEFINED SYMBOLS
HAL_Delay
SystemCoreClock
