ARM GAS  C:\Users\Morroway\AppData\Local\Temp\ccxQAUQ3.s 			page 1


   1              		.cpu cortex-m4
   2              		.arch armv7e-m
   3              		.fpu fpv4-sp-d16
   4              		.eabi_attribute 27, 1
   5              		.eabi_attribute 28, 1
   6              		.eabi_attribute 20, 1
   7              		.eabi_attribute 21, 1
   8              		.eabi_attribute 23, 3
   9              		.eabi_attribute 24, 1
  10              		.eabi_attribute 25, 1
  11              		.eabi_attribute 26, 1
  12              		.eabi_attribute 30, 6
  13              		.eabi_attribute 34, 1
  14              		.eabi_attribute 18, 4
  15              		.file	"stm32l4xx_hal_ospi.c"
  16              		.text
  17              	.Ltext0:
  18              		.cfi_sections	.debug_frame
  19              		.section	.text.HAL_OSPI_Init,"ax",%progbits
  20              		.align	1
  21              		.global	HAL_OSPI_Init
  22              		.syntax unified
  23              		.thumb
  24              		.thumb_func
  26              	HAL_OSPI_Init:
  27              	.LFB321:
  28              		.file 1 "Drivers/STM32L4xx_HAL_Driver/Src/stm32l4xx_hal_ospi.c"
   1:Drivers/STM32L4xx_HAL_Driver/Src/stm32l4xx_hal_ospi.c **** /**
   2:Drivers/STM32L4xx_HAL_Driver/Src/stm32l4xx_hal_ospi.c ****   ******************************************************************************
   3:Drivers/STM32L4xx_HAL_Driver/Src/stm32l4xx_hal_ospi.c ****   * @file    stm32l4xx_hal_ospi.c
   4:Drivers/STM32L4xx_HAL_Driver/Src/stm32l4xx_hal_ospi.c ****   * @author  MCD Application Team
   5:Drivers/STM32L4xx_HAL_Driver/Src/stm32l4xx_hal_ospi.c ****   * @brief   OSPI HAL module driver.
   6:Drivers/STM32L4xx_HAL_Driver/Src/stm32l4xx_hal_ospi.c ****              This file provides firmware functions to manage the following
   7:Drivers/STM32L4xx_HAL_Driver/Src/stm32l4xx_hal_ospi.c ****              functionalities of the OctoSPI interface (OSPI).
   8:Drivers/STM32L4xx_HAL_Driver/Src/stm32l4xx_hal_ospi.c ****               + Initialization and de-initialization functions
   9:Drivers/STM32L4xx_HAL_Driver/Src/stm32l4xx_hal_ospi.c ****               + Hyperbus configuration
  10:Drivers/STM32L4xx_HAL_Driver/Src/stm32l4xx_hal_ospi.c ****               + Indirect functional mode management
  11:Drivers/STM32L4xx_HAL_Driver/Src/stm32l4xx_hal_ospi.c ****               + Memory-mapped functional mode management
  12:Drivers/STM32L4xx_HAL_Driver/Src/stm32l4xx_hal_ospi.c ****               + Auto-polling functional mode management
  13:Drivers/STM32L4xx_HAL_Driver/Src/stm32l4xx_hal_ospi.c ****               + Interrupts and flags management
  14:Drivers/STM32L4xx_HAL_Driver/Src/stm32l4xx_hal_ospi.c ****               + DMA channel configuration for indirect functional mode
  15:Drivers/STM32L4xx_HAL_Driver/Src/stm32l4xx_hal_ospi.c ****               + Errors management and abort functionality
  16:Drivers/STM32L4xx_HAL_Driver/Src/stm32l4xx_hal_ospi.c ****               + IO manager configuration
  17:Drivers/STM32L4xx_HAL_Driver/Src/stm32l4xx_hal_ospi.c **** 
  18:Drivers/STM32L4xx_HAL_Driver/Src/stm32l4xx_hal_ospi.c ****   ******************************************************************************
  19:Drivers/STM32L4xx_HAL_Driver/Src/stm32l4xx_hal_ospi.c ****   * @attention
  20:Drivers/STM32L4xx_HAL_Driver/Src/stm32l4xx_hal_ospi.c ****   *
  21:Drivers/STM32L4xx_HAL_Driver/Src/stm32l4xx_hal_ospi.c ****   * Copyright (c) 2017 STMicroelectronics.
  22:Drivers/STM32L4xx_HAL_Driver/Src/stm32l4xx_hal_ospi.c ****   * All rights reserved.
  23:Drivers/STM32L4xx_HAL_Driver/Src/stm32l4xx_hal_ospi.c ****   *
  24:Drivers/STM32L4xx_HAL_Driver/Src/stm32l4xx_hal_ospi.c ****   * This software is licensed under terms that can be found in the LICENSE file
  25:Drivers/STM32L4xx_HAL_Driver/Src/stm32l4xx_hal_ospi.c ****   * in the root directory of this software component.
  26:Drivers/STM32L4xx_HAL_Driver/Src/stm32l4xx_hal_ospi.c ****   * If no LICENSE file comes with this software, it is provided AS-IS.
  27:Drivers/STM32L4xx_HAL_Driver/Src/stm32l4xx_hal_ospi.c ****   *
  28:Drivers/STM32L4xx_HAL_Driver/Src/stm32l4xx_hal_ospi.c ****   ******************************************************************************
  29:Drivers/STM32L4xx_HAL_Driver/Src/stm32l4xx_hal_ospi.c ****   @verbatim
  30:Drivers/STM32L4xx_HAL_Driver/Src/stm32l4xx_hal_ospi.c ****  ===============================================================================
ARM GAS  C:\Users\Morroway\AppData\Local\Temp\ccxQAUQ3.s 			page 2


  31:Drivers/STM32L4xx_HAL_Driver/Src/stm32l4xx_hal_ospi.c ****                         ##### How to use this driver #####
  32:Drivers/STM32L4xx_HAL_Driver/Src/stm32l4xx_hal_ospi.c ****  ===============================================================================
  33:Drivers/STM32L4xx_HAL_Driver/Src/stm32l4xx_hal_ospi.c ****   [..]
  34:Drivers/STM32L4xx_HAL_Driver/Src/stm32l4xx_hal_ospi.c ****     *** Initialization ***
  35:Drivers/STM32L4xx_HAL_Driver/Src/stm32l4xx_hal_ospi.c ****     ======================
  36:Drivers/STM32L4xx_HAL_Driver/Src/stm32l4xx_hal_ospi.c ****     [..]
  37:Drivers/STM32L4xx_HAL_Driver/Src/stm32l4xx_hal_ospi.c ****      As prerequisite, fill in the HAL_OSPI_MspInit() :
  38:Drivers/STM32L4xx_HAL_Driver/Src/stm32l4xx_hal_ospi.c ****      (+) Enable OctoSPI and OctoSPIM clocks interface with __HAL_RCC_OSPIx_CLK_ENABLE().
  39:Drivers/STM32L4xx_HAL_Driver/Src/stm32l4xx_hal_ospi.c ****      (+) Reset OctoSPI Peripheral with __HAL_RCC_OSPIx_FORCE_RESET() and __HAL_RCC_OSPIx_RELEASE_RE
  40:Drivers/STM32L4xx_HAL_Driver/Src/stm32l4xx_hal_ospi.c ****      (+) Enable the clocks for the OctoSPI GPIOS with __HAL_RCC_GPIOx_CLK_ENABLE().
  41:Drivers/STM32L4xx_HAL_Driver/Src/stm32l4xx_hal_ospi.c ****      (+) Configure these OctoSPI pins in alternate mode using HAL_GPIO_Init().
  42:Drivers/STM32L4xx_HAL_Driver/Src/stm32l4xx_hal_ospi.c ****      (+) If interrupt or DMA mode is used, enable and configure OctoSPI global
  43:Drivers/STM32L4xx_HAL_Driver/Src/stm32l4xx_hal_ospi.c ****          interrupt with HAL_NVIC_SetPriority() and HAL_NVIC_EnableIRQ().
  44:Drivers/STM32L4xx_HAL_Driver/Src/stm32l4xx_hal_ospi.c ****      (+) If DMA mode is used, enable the clocks for the OctoSPI DMA channel
  45:Drivers/STM32L4xx_HAL_Driver/Src/stm32l4xx_hal_ospi.c ****          with __HAL_RCC_DMAx_CLK_ENABLE(), configure DMA with HAL_DMA_Init(),
  46:Drivers/STM32L4xx_HAL_Driver/Src/stm32l4xx_hal_ospi.c ****          link it with OctoSPI handle using __HAL_LINKDMA(), enable and configure
  47:Drivers/STM32L4xx_HAL_Driver/Src/stm32l4xx_hal_ospi.c ****          DMA channel global interrupt with HAL_NVIC_SetPriority() and HAL_NVIC_EnableIRQ().
  48:Drivers/STM32L4xx_HAL_Driver/Src/stm32l4xx_hal_ospi.c ****     [..]
  49:Drivers/STM32L4xx_HAL_Driver/Src/stm32l4xx_hal_ospi.c ****      Configure the fifo threshold, the dual-quad mode, the memory type, the
  50:Drivers/STM32L4xx_HAL_Driver/Src/stm32l4xx_hal_ospi.c ****      device size, the CS high time, the free running clock, the clock mode,
  51:Drivers/STM32L4xx_HAL_Driver/Src/stm32l4xx_hal_ospi.c ****      the wrap size, the clock prescaler, the sample shifting, the hold delay
  52:Drivers/STM32L4xx_HAL_Driver/Src/stm32l4xx_hal_ospi.c ****      and the CS boundary using the HAL_OSPI_Init() function.
  53:Drivers/STM32L4xx_HAL_Driver/Src/stm32l4xx_hal_ospi.c ****     [..]
  54:Drivers/STM32L4xx_HAL_Driver/Src/stm32l4xx_hal_ospi.c ****      When using Hyperbus, configure the RW recovery time, the access time,
  55:Drivers/STM32L4xx_HAL_Driver/Src/stm32l4xx_hal_ospi.c ****      the write latency and the latency mode unsing the HAL_OSPI_HyperbusCfg()
  56:Drivers/STM32L4xx_HAL_Driver/Src/stm32l4xx_hal_ospi.c ****      function.
  57:Drivers/STM32L4xx_HAL_Driver/Src/stm32l4xx_hal_ospi.c **** 
  58:Drivers/STM32L4xx_HAL_Driver/Src/stm32l4xx_hal_ospi.c ****     *** Indirect functional mode ***
  59:Drivers/STM32L4xx_HAL_Driver/Src/stm32l4xx_hal_ospi.c ****     ================================
  60:Drivers/STM32L4xx_HAL_Driver/Src/stm32l4xx_hal_ospi.c ****     [..]
  61:Drivers/STM32L4xx_HAL_Driver/Src/stm32l4xx_hal_ospi.c ****      In regular mode, configure the command sequence using the HAL_OSPI_Command()
  62:Drivers/STM32L4xx_HAL_Driver/Src/stm32l4xx_hal_ospi.c ****      or HAL_OSPI_Command_IT() functions :
  63:Drivers/STM32L4xx_HAL_Driver/Src/stm32l4xx_hal_ospi.c ****      (+) Instruction phase : the mode used and if present the size, the instruction
  64:Drivers/STM32L4xx_HAL_Driver/Src/stm32l4xx_hal_ospi.c ****          opcode and the DTR mode.
  65:Drivers/STM32L4xx_HAL_Driver/Src/stm32l4xx_hal_ospi.c ****      (+) Address phase : the mode used and if present the size, the address
  66:Drivers/STM32L4xx_HAL_Driver/Src/stm32l4xx_hal_ospi.c ****          value and the DTR mode.
  67:Drivers/STM32L4xx_HAL_Driver/Src/stm32l4xx_hal_ospi.c ****      (+) Alternate-bytes phase : the mode used and if present the size, the
  68:Drivers/STM32L4xx_HAL_Driver/Src/stm32l4xx_hal_ospi.c ****          alternate bytes values and the DTR mode.
  69:Drivers/STM32L4xx_HAL_Driver/Src/stm32l4xx_hal_ospi.c ****      (+) Dummy-cycles phase : the number of dummy cycles (mode used is same as data phase).
  70:Drivers/STM32L4xx_HAL_Driver/Src/stm32l4xx_hal_ospi.c ****      (+) Data phase : the mode used and if present the number of bytes and the DTR mode.
  71:Drivers/STM32L4xx_HAL_Driver/Src/stm32l4xx_hal_ospi.c ****      (+) Data strobe (DQS) mode : the activation (or not) of this mode
  72:Drivers/STM32L4xx_HAL_Driver/Src/stm32l4xx_hal_ospi.c ****      (+) Sending Instruction Only Once (SIOO) mode : the activation (or not) of this mode.
  73:Drivers/STM32L4xx_HAL_Driver/Src/stm32l4xx_hal_ospi.c ****      (+) Flash identifier : in dual-quad mode, indicates which flash is concerned
  74:Drivers/STM32L4xx_HAL_Driver/Src/stm32l4xx_hal_ospi.c ****      (+) Operation type : always common configuration
  75:Drivers/STM32L4xx_HAL_Driver/Src/stm32l4xx_hal_ospi.c ****     [..]
  76:Drivers/STM32L4xx_HAL_Driver/Src/stm32l4xx_hal_ospi.c ****      In Hyperbus mode, configure the command sequence using the HAL_OSPI_HyperbusCmd()
  77:Drivers/STM32L4xx_HAL_Driver/Src/stm32l4xx_hal_ospi.c ****      function :
  78:Drivers/STM32L4xx_HAL_Driver/Src/stm32l4xx_hal_ospi.c ****      (+) Address space : indicate if the access will be done in register or memory
  79:Drivers/STM32L4xx_HAL_Driver/Src/stm32l4xx_hal_ospi.c ****      (+) Address size
  80:Drivers/STM32L4xx_HAL_Driver/Src/stm32l4xx_hal_ospi.c ****      (+) Number of data
  81:Drivers/STM32L4xx_HAL_Driver/Src/stm32l4xx_hal_ospi.c ****      (+) Data strobe (DQS) mode : the activation (or not) of this mode
  82:Drivers/STM32L4xx_HAL_Driver/Src/stm32l4xx_hal_ospi.c ****     [..]
  83:Drivers/STM32L4xx_HAL_Driver/Src/stm32l4xx_hal_ospi.c ****      If no data is required for the command (only for regular mode, not for
  84:Drivers/STM32L4xx_HAL_Driver/Src/stm32l4xx_hal_ospi.c ****      Hyperbus mode), it is sent directly to the memory :
  85:Drivers/STM32L4xx_HAL_Driver/Src/stm32l4xx_hal_ospi.c ****      (+) In polling mode, the output of the function is done when the transfer is complete.
  86:Drivers/STM32L4xx_HAL_Driver/Src/stm32l4xx_hal_ospi.c ****      (+) In interrupt mode, HAL_OSPI_CmdCpltCallback() will be called when the transfer is complete
  87:Drivers/STM32L4xx_HAL_Driver/Src/stm32l4xx_hal_ospi.c ****     [..]
ARM GAS  C:\Users\Morroway\AppData\Local\Temp\ccxQAUQ3.s 			page 3


  88:Drivers/STM32L4xx_HAL_Driver/Src/stm32l4xx_hal_ospi.c ****      For the indirect write mode, use HAL_OSPI_Transmit(), HAL_OSPI_Transmit_DMA() or
  89:Drivers/STM32L4xx_HAL_Driver/Src/stm32l4xx_hal_ospi.c ****      HAL_OSPI_Transmit_IT() after the command configuration :
  90:Drivers/STM32L4xx_HAL_Driver/Src/stm32l4xx_hal_ospi.c ****      (+) In polling mode, the output of the function is done when the transfer is complete.
  91:Drivers/STM32L4xx_HAL_Driver/Src/stm32l4xx_hal_ospi.c ****      (+) In interrupt mode, HAL_OSPI_FifoThresholdCallback() will be called when the fifo threshold
  92:Drivers/STM32L4xx_HAL_Driver/Src/stm32l4xx_hal_ospi.c ****          is reached and HAL_OSPI_TxCpltCallback() will be called when the transfer is complete.
  93:Drivers/STM32L4xx_HAL_Driver/Src/stm32l4xx_hal_ospi.c ****      (+) In DMA mode, HAL_OSPI_TxHalfCpltCallback() will be called at the half transfer and
  94:Drivers/STM32L4xx_HAL_Driver/Src/stm32l4xx_hal_ospi.c ****          HAL_OSPI_TxCpltCallback() will be called when the transfer is complete.
  95:Drivers/STM32L4xx_HAL_Driver/Src/stm32l4xx_hal_ospi.c ****     [..]
  96:Drivers/STM32L4xx_HAL_Driver/Src/stm32l4xx_hal_ospi.c ****      For the indirect read mode, use HAL_OSPI_Receive(), HAL_OSPI_Receive_DMA() or
  97:Drivers/STM32L4xx_HAL_Driver/Src/stm32l4xx_hal_ospi.c ****      HAL_OSPI_Receive_IT() after the command configuration :
  98:Drivers/STM32L4xx_HAL_Driver/Src/stm32l4xx_hal_ospi.c ****      (+) In polling mode, the output of the function is done when the transfer is complete.
  99:Drivers/STM32L4xx_HAL_Driver/Src/stm32l4xx_hal_ospi.c ****      (+) In interrupt mode, HAL_OSPI_FifoThresholdCallback() will be called when the fifo threshold
 100:Drivers/STM32L4xx_HAL_Driver/Src/stm32l4xx_hal_ospi.c ****          is reached and HAL_OSPI_RxCpltCallback() will be called when the transfer is complete.
 101:Drivers/STM32L4xx_HAL_Driver/Src/stm32l4xx_hal_ospi.c ****      (+) In DMA mode, HAL_OSPI_RxHalfCpltCallback() will be called at the half transfer and
 102:Drivers/STM32L4xx_HAL_Driver/Src/stm32l4xx_hal_ospi.c ****          HAL_OSPI_RxCpltCallback() will be called when the transfer is complete.
 103:Drivers/STM32L4xx_HAL_Driver/Src/stm32l4xx_hal_ospi.c **** 
 104:Drivers/STM32L4xx_HAL_Driver/Src/stm32l4xx_hal_ospi.c ****     *** Auto-polling functional mode ***
 105:Drivers/STM32L4xx_HAL_Driver/Src/stm32l4xx_hal_ospi.c ****     ====================================
 106:Drivers/STM32L4xx_HAL_Driver/Src/stm32l4xx_hal_ospi.c ****     [..]
 107:Drivers/STM32L4xx_HAL_Driver/Src/stm32l4xx_hal_ospi.c ****      Configure the command sequence by the same way than the indirect mode
 108:Drivers/STM32L4xx_HAL_Driver/Src/stm32l4xx_hal_ospi.c ****     [..]
 109:Drivers/STM32L4xx_HAL_Driver/Src/stm32l4xx_hal_ospi.c ****      Configure the auto-polling functional mode using the HAL_OSPI_AutoPolling()
 110:Drivers/STM32L4xx_HAL_Driver/Src/stm32l4xx_hal_ospi.c ****      or HAL_OSPI_AutoPolling_IT() functions :
 111:Drivers/STM32L4xx_HAL_Driver/Src/stm32l4xx_hal_ospi.c ****      (+) The size of the status bytes, the match value, the mask used, the match mode (OR/AND),
 112:Drivers/STM32L4xx_HAL_Driver/Src/stm32l4xx_hal_ospi.c ****          the polling interval and the automatic stop activation.
 113:Drivers/STM32L4xx_HAL_Driver/Src/stm32l4xx_hal_ospi.c ****     [..]
 114:Drivers/STM32L4xx_HAL_Driver/Src/stm32l4xx_hal_ospi.c ****      After the configuration :
 115:Drivers/STM32L4xx_HAL_Driver/Src/stm32l4xx_hal_ospi.c ****      (+) In polling mode, the output of the function is done when the status match is reached. The
 116:Drivers/STM32L4xx_HAL_Driver/Src/stm32l4xx_hal_ospi.c ****          automatic stop is activated to avoid an infinite loop.
 117:Drivers/STM32L4xx_HAL_Driver/Src/stm32l4xx_hal_ospi.c ****      (+) In interrupt mode, HAL_OSPI_StatusMatchCallback() will be called each time the status matc
 118:Drivers/STM32L4xx_HAL_Driver/Src/stm32l4xx_hal_ospi.c **** 
 119:Drivers/STM32L4xx_HAL_Driver/Src/stm32l4xx_hal_ospi.c ****     *** Memory-mapped functional mode ***
 120:Drivers/STM32L4xx_HAL_Driver/Src/stm32l4xx_hal_ospi.c ****     =====================================
 121:Drivers/STM32L4xx_HAL_Driver/Src/stm32l4xx_hal_ospi.c ****     [..]
 122:Drivers/STM32L4xx_HAL_Driver/Src/stm32l4xx_hal_ospi.c ****      Configure the command sequence by the same way than the indirect mode except
 123:Drivers/STM32L4xx_HAL_Driver/Src/stm32l4xx_hal_ospi.c ****      for the operation type in regular mode :
 124:Drivers/STM32L4xx_HAL_Driver/Src/stm32l4xx_hal_ospi.c ****      (+) Operation type equals to read configuration : the command configuration
 125:Drivers/STM32L4xx_HAL_Driver/Src/stm32l4xx_hal_ospi.c ****          applies to read access in memory-mapped mode
 126:Drivers/STM32L4xx_HAL_Driver/Src/stm32l4xx_hal_ospi.c ****      (+) Operation type equals to write configuration : the command configuration
 127:Drivers/STM32L4xx_HAL_Driver/Src/stm32l4xx_hal_ospi.c ****          applies to write access in memory-mapped mode
 128:Drivers/STM32L4xx_HAL_Driver/Src/stm32l4xx_hal_ospi.c ****      (+) Both read and write configuration should be performed before activating
 129:Drivers/STM32L4xx_HAL_Driver/Src/stm32l4xx_hal_ospi.c ****          memory-mapped mode
 130:Drivers/STM32L4xx_HAL_Driver/Src/stm32l4xx_hal_ospi.c ****     [..]
 131:Drivers/STM32L4xx_HAL_Driver/Src/stm32l4xx_hal_ospi.c ****      Configure the memory-mapped functional mode using the HAL_OSPI_MemoryMapped()
 132:Drivers/STM32L4xx_HAL_Driver/Src/stm32l4xx_hal_ospi.c ****      functions :
 133:Drivers/STM32L4xx_HAL_Driver/Src/stm32l4xx_hal_ospi.c ****      (+) The timeout activation and the timeout period.
 134:Drivers/STM32L4xx_HAL_Driver/Src/stm32l4xx_hal_ospi.c ****     [..]
 135:Drivers/STM32L4xx_HAL_Driver/Src/stm32l4xx_hal_ospi.c ****      After the configuration, the OctoSPI will be used as soon as an access on the AHB is done on
 136:Drivers/STM32L4xx_HAL_Driver/Src/stm32l4xx_hal_ospi.c ****      the address range. HAL_OSPI_TimeOutCallback() will be called when the timeout expires.
 137:Drivers/STM32L4xx_HAL_Driver/Src/stm32l4xx_hal_ospi.c **** 
 138:Drivers/STM32L4xx_HAL_Driver/Src/stm32l4xx_hal_ospi.c ****     *** Errors management and abort functionality ***
 139:Drivers/STM32L4xx_HAL_Driver/Src/stm32l4xx_hal_ospi.c ****     =================================================
 140:Drivers/STM32L4xx_HAL_Driver/Src/stm32l4xx_hal_ospi.c ****     [..]
 141:Drivers/STM32L4xx_HAL_Driver/Src/stm32l4xx_hal_ospi.c ****      HAL_OSPI_GetError() function gives the error raised during the last operation.
 142:Drivers/STM32L4xx_HAL_Driver/Src/stm32l4xx_hal_ospi.c ****     [..]
 143:Drivers/STM32L4xx_HAL_Driver/Src/stm32l4xx_hal_ospi.c ****      HAL_OSPI_Abort() and HAL_OSPI_AbortIT() functions aborts any on-going operation and
 144:Drivers/STM32L4xx_HAL_Driver/Src/stm32l4xx_hal_ospi.c ****      flushes the fifo :
ARM GAS  C:\Users\Morroway\AppData\Local\Temp\ccxQAUQ3.s 			page 4


 145:Drivers/STM32L4xx_HAL_Driver/Src/stm32l4xx_hal_ospi.c ****      (+) In polling mode, the output of the function is done when the transfer
 146:Drivers/STM32L4xx_HAL_Driver/Src/stm32l4xx_hal_ospi.c ****          complete bit is set and the busy bit cleared.
 147:Drivers/STM32L4xx_HAL_Driver/Src/stm32l4xx_hal_ospi.c ****      (+) In interrupt mode, HAL_OSPI_AbortCpltCallback() will be called when
 148:Drivers/STM32L4xx_HAL_Driver/Src/stm32l4xx_hal_ospi.c ****          the transfer complete bit is set.
 149:Drivers/STM32L4xx_HAL_Driver/Src/stm32l4xx_hal_ospi.c **** 
 150:Drivers/STM32L4xx_HAL_Driver/Src/stm32l4xx_hal_ospi.c ****     *** Control functions ***
 151:Drivers/STM32L4xx_HAL_Driver/Src/stm32l4xx_hal_ospi.c ****     =========================
 152:Drivers/STM32L4xx_HAL_Driver/Src/stm32l4xx_hal_ospi.c ****     [..]
 153:Drivers/STM32L4xx_HAL_Driver/Src/stm32l4xx_hal_ospi.c ****      HAL_OSPI_GetState() function gives the current state of the HAL OctoSPI driver.
 154:Drivers/STM32L4xx_HAL_Driver/Src/stm32l4xx_hal_ospi.c ****     [..]
 155:Drivers/STM32L4xx_HAL_Driver/Src/stm32l4xx_hal_ospi.c ****      HAL_OSPI_SetTimeout() function configures the timeout value used in the driver.
 156:Drivers/STM32L4xx_HAL_Driver/Src/stm32l4xx_hal_ospi.c ****     [..]
 157:Drivers/STM32L4xx_HAL_Driver/Src/stm32l4xx_hal_ospi.c ****      HAL_OSPI_SetFifoThreshold() function configures the threshold on the Fifo of the OSPI Peripher
 158:Drivers/STM32L4xx_HAL_Driver/Src/stm32l4xx_hal_ospi.c ****     [..]
 159:Drivers/STM32L4xx_HAL_Driver/Src/stm32l4xx_hal_ospi.c ****      HAL_OSPI_GetFifoThreshold() function gives the current of the Fifo's threshold
 160:Drivers/STM32L4xx_HAL_Driver/Src/stm32l4xx_hal_ospi.c **** 
 161:Drivers/STM32L4xx_HAL_Driver/Src/stm32l4xx_hal_ospi.c ****     *** IO manager configuration functions ***
 162:Drivers/STM32L4xx_HAL_Driver/Src/stm32l4xx_hal_ospi.c ****     ==========================================
 163:Drivers/STM32L4xx_HAL_Driver/Src/stm32l4xx_hal_ospi.c ****     [..]
 164:Drivers/STM32L4xx_HAL_Driver/Src/stm32l4xx_hal_ospi.c ****      HAL_OSPIM_Config() function configures the IO manager for the OctoSPI instance.
 165:Drivers/STM32L4xx_HAL_Driver/Src/stm32l4xx_hal_ospi.c **** 
 166:Drivers/STM32L4xx_HAL_Driver/Src/stm32l4xx_hal_ospi.c ****     *** Callback registration ***
 167:Drivers/STM32L4xx_HAL_Driver/Src/stm32l4xx_hal_ospi.c ****     =============================================
 168:Drivers/STM32L4xx_HAL_Driver/Src/stm32l4xx_hal_ospi.c ****     [..]
 169:Drivers/STM32L4xx_HAL_Driver/Src/stm32l4xx_hal_ospi.c ****      The compilation define  USE_HAL_OSPI_REGISTER_CALLBACKS when set to 1
 170:Drivers/STM32L4xx_HAL_Driver/Src/stm32l4xx_hal_ospi.c ****      allows the user to configure dynamically the driver callbacks.
 171:Drivers/STM32L4xx_HAL_Driver/Src/stm32l4xx_hal_ospi.c **** 
 172:Drivers/STM32L4xx_HAL_Driver/Src/stm32l4xx_hal_ospi.c ****     [..]
 173:Drivers/STM32L4xx_HAL_Driver/Src/stm32l4xx_hal_ospi.c ****      Use function HAL_OSPI_RegisterCallback() to register a user callback,
 174:Drivers/STM32L4xx_HAL_Driver/Src/stm32l4xx_hal_ospi.c ****      it allows to register following callbacks:
 175:Drivers/STM32L4xx_HAL_Driver/Src/stm32l4xx_hal_ospi.c ****      (+) ErrorCallback : callback when error occurs.
 176:Drivers/STM32L4xx_HAL_Driver/Src/stm32l4xx_hal_ospi.c ****      (+) AbortCpltCallback : callback when abort is completed.
 177:Drivers/STM32L4xx_HAL_Driver/Src/stm32l4xx_hal_ospi.c ****      (+) FifoThresholdCallback : callback when the fifo threshold is reached.
 178:Drivers/STM32L4xx_HAL_Driver/Src/stm32l4xx_hal_ospi.c ****      (+) CmdCpltCallback : callback when a command without data is completed.
 179:Drivers/STM32L4xx_HAL_Driver/Src/stm32l4xx_hal_ospi.c ****      (+) RxCpltCallback : callback when a reception transfer is completed.
 180:Drivers/STM32L4xx_HAL_Driver/Src/stm32l4xx_hal_ospi.c ****      (+) TxCpltCallback : callback when a transmission transfer is completed.
 181:Drivers/STM32L4xx_HAL_Driver/Src/stm32l4xx_hal_ospi.c ****      (+) RxHalfCpltCallback : callback when half of the reception transfer is completed.
 182:Drivers/STM32L4xx_HAL_Driver/Src/stm32l4xx_hal_ospi.c ****      (+) TxHalfCpltCallback : callback when half of the transmission transfer is completed.
 183:Drivers/STM32L4xx_HAL_Driver/Src/stm32l4xx_hal_ospi.c ****      (+) StatusMatchCallback : callback when a status match occurs.
 184:Drivers/STM32L4xx_HAL_Driver/Src/stm32l4xx_hal_ospi.c ****      (+) TimeOutCallback : callback when the timeout perioed expires.
 185:Drivers/STM32L4xx_HAL_Driver/Src/stm32l4xx_hal_ospi.c ****      (+) MspInitCallback    : OSPI MspInit.
 186:Drivers/STM32L4xx_HAL_Driver/Src/stm32l4xx_hal_ospi.c ****      (+) MspDeInitCallback  : OSPI MspDeInit.
 187:Drivers/STM32L4xx_HAL_Driver/Src/stm32l4xx_hal_ospi.c ****     [..]
 188:Drivers/STM32L4xx_HAL_Driver/Src/stm32l4xx_hal_ospi.c ****      This function takes as parameters the HAL peripheral handle, the Callback ID
 189:Drivers/STM32L4xx_HAL_Driver/Src/stm32l4xx_hal_ospi.c ****      and a pointer to the user callback function.
 190:Drivers/STM32L4xx_HAL_Driver/Src/stm32l4xx_hal_ospi.c **** 
 191:Drivers/STM32L4xx_HAL_Driver/Src/stm32l4xx_hal_ospi.c ****     [..]
 192:Drivers/STM32L4xx_HAL_Driver/Src/stm32l4xx_hal_ospi.c ****      Use function HAL_OSPI_UnRegisterCallback() to reset a callback to the default
 193:Drivers/STM32L4xx_HAL_Driver/Src/stm32l4xx_hal_ospi.c ****      weak (surcharged) function. It allows to reset following callbacks:
 194:Drivers/STM32L4xx_HAL_Driver/Src/stm32l4xx_hal_ospi.c ****      (+) ErrorCallback : callback when error occurs.
 195:Drivers/STM32L4xx_HAL_Driver/Src/stm32l4xx_hal_ospi.c ****      (+) AbortCpltCallback : callback when abort is completed.
 196:Drivers/STM32L4xx_HAL_Driver/Src/stm32l4xx_hal_ospi.c ****      (+) FifoThresholdCallback : callback when the fifo threshold is reached.
 197:Drivers/STM32L4xx_HAL_Driver/Src/stm32l4xx_hal_ospi.c ****      (+) CmdCpltCallback : callback when a command without data is completed.
 198:Drivers/STM32L4xx_HAL_Driver/Src/stm32l4xx_hal_ospi.c ****      (+) RxCpltCallback : callback when a reception transfer is completed.
 199:Drivers/STM32L4xx_HAL_Driver/Src/stm32l4xx_hal_ospi.c ****      (+) TxCpltCallback : callback when a transmission transfer is completed.
 200:Drivers/STM32L4xx_HAL_Driver/Src/stm32l4xx_hal_ospi.c ****      (+) RxHalfCpltCallback : callback when half of the reception transfer is completed.
 201:Drivers/STM32L4xx_HAL_Driver/Src/stm32l4xx_hal_ospi.c ****      (+) TxHalfCpltCallback : callback when half of the transmission transfer is completed.
ARM GAS  C:\Users\Morroway\AppData\Local\Temp\ccxQAUQ3.s 			page 5


 202:Drivers/STM32L4xx_HAL_Driver/Src/stm32l4xx_hal_ospi.c ****      (+) StatusMatchCallback : callback when a status match occurs.
 203:Drivers/STM32L4xx_HAL_Driver/Src/stm32l4xx_hal_ospi.c ****      (+) TimeOutCallback : callback when the timeout perioed expires.
 204:Drivers/STM32L4xx_HAL_Driver/Src/stm32l4xx_hal_ospi.c ****      (+) MspInitCallback    : OSPI MspInit.
 205:Drivers/STM32L4xx_HAL_Driver/Src/stm32l4xx_hal_ospi.c ****      (+) MspDeInitCallback  : OSPI MspDeInit.
 206:Drivers/STM32L4xx_HAL_Driver/Src/stm32l4xx_hal_ospi.c ****     [..]
 207:Drivers/STM32L4xx_HAL_Driver/Src/stm32l4xx_hal_ospi.c ****      This function) takes as parameters the HAL peripheral handle and the Callback ID.
 208:Drivers/STM32L4xx_HAL_Driver/Src/stm32l4xx_hal_ospi.c **** 
 209:Drivers/STM32L4xx_HAL_Driver/Src/stm32l4xx_hal_ospi.c ****     [..]
 210:Drivers/STM32L4xx_HAL_Driver/Src/stm32l4xx_hal_ospi.c ****      By default, after the HAL_OSPI_Init() and if the state is HAL_OSPI_STATE_RESET
 211:Drivers/STM32L4xx_HAL_Driver/Src/stm32l4xx_hal_ospi.c ****      all callbacks are reset to the corresponding legacy weak (surcharged) functions.
 212:Drivers/STM32L4xx_HAL_Driver/Src/stm32l4xx_hal_ospi.c ****      Exception done for MspInit and MspDeInit callbacks that are respectively
 213:Drivers/STM32L4xx_HAL_Driver/Src/stm32l4xx_hal_ospi.c ****      reset to the legacy weak (surcharged) functions in the HAL_OSPI_Init()
 214:Drivers/STM32L4xx_HAL_Driver/Src/stm32l4xx_hal_ospi.c ****      and HAL_OSPI_DeInit() only when these callbacks are null (not registered beforehand).
 215:Drivers/STM32L4xx_HAL_Driver/Src/stm32l4xx_hal_ospi.c ****      If not, MspInit or MspDeInit are not null, the HAL_OSPI_Init() and HAL_OSPI_DeInit()
 216:Drivers/STM32L4xx_HAL_Driver/Src/stm32l4xx_hal_ospi.c ****      keep and use the user MspInit/MspDeInit callbacks (registered beforehand)
 217:Drivers/STM32L4xx_HAL_Driver/Src/stm32l4xx_hal_ospi.c **** 
 218:Drivers/STM32L4xx_HAL_Driver/Src/stm32l4xx_hal_ospi.c ****     [..]
 219:Drivers/STM32L4xx_HAL_Driver/Src/stm32l4xx_hal_ospi.c ****      Callbacks can be registered/unregistered in READY state only.
 220:Drivers/STM32L4xx_HAL_Driver/Src/stm32l4xx_hal_ospi.c ****      Exception done for MspInit/MspDeInit callbacks that can be registered/unregistered
 221:Drivers/STM32L4xx_HAL_Driver/Src/stm32l4xx_hal_ospi.c ****      in READY or RESET state, thus registered (user) MspInit/DeInit callbacks can be used
 222:Drivers/STM32L4xx_HAL_Driver/Src/stm32l4xx_hal_ospi.c ****      during the Init/DeInit.
 223:Drivers/STM32L4xx_HAL_Driver/Src/stm32l4xx_hal_ospi.c ****      In that case first register the MspInit/MspDeInit user callbacks
 224:Drivers/STM32L4xx_HAL_Driver/Src/stm32l4xx_hal_ospi.c ****      using HAL_OSPI_RegisterCallback() before calling HAL_OSPI_DeInit()
 225:Drivers/STM32L4xx_HAL_Driver/Src/stm32l4xx_hal_ospi.c ****      or HAL_OSPI_Init() function.
 226:Drivers/STM32L4xx_HAL_Driver/Src/stm32l4xx_hal_ospi.c **** 
 227:Drivers/STM32L4xx_HAL_Driver/Src/stm32l4xx_hal_ospi.c ****     [..]
 228:Drivers/STM32L4xx_HAL_Driver/Src/stm32l4xx_hal_ospi.c ****      When The compilation define USE_HAL_OSPI_REGISTER_CALLBACKS is set to 0 or
 229:Drivers/STM32L4xx_HAL_Driver/Src/stm32l4xx_hal_ospi.c ****      not defined, the callback registering feature is not available
 230:Drivers/STM32L4xx_HAL_Driver/Src/stm32l4xx_hal_ospi.c ****      and weak (surcharged) callbacks are used.
 231:Drivers/STM32L4xx_HAL_Driver/Src/stm32l4xx_hal_ospi.c **** 
 232:Drivers/STM32L4xx_HAL_Driver/Src/stm32l4xx_hal_ospi.c ****   @endverbatim
 233:Drivers/STM32L4xx_HAL_Driver/Src/stm32l4xx_hal_ospi.c ****   ******************************************************************************
 234:Drivers/STM32L4xx_HAL_Driver/Src/stm32l4xx_hal_ospi.c ****   */
 235:Drivers/STM32L4xx_HAL_Driver/Src/stm32l4xx_hal_ospi.c **** 
 236:Drivers/STM32L4xx_HAL_Driver/Src/stm32l4xx_hal_ospi.c **** /* Includes ------------------------------------------------------------------*/
 237:Drivers/STM32L4xx_HAL_Driver/Src/stm32l4xx_hal_ospi.c **** #include "stm32l4xx_hal.h"
 238:Drivers/STM32L4xx_HAL_Driver/Src/stm32l4xx_hal_ospi.c **** 
 239:Drivers/STM32L4xx_HAL_Driver/Src/stm32l4xx_hal_ospi.c **** #if defined(OCTOSPI) || defined(OCTOSPI1) || defined(OCTOSPI2)
 240:Drivers/STM32L4xx_HAL_Driver/Src/stm32l4xx_hal_ospi.c **** 
 241:Drivers/STM32L4xx_HAL_Driver/Src/stm32l4xx_hal_ospi.c **** /** @addtogroup STM32L4xx_HAL_Driver
 242:Drivers/STM32L4xx_HAL_Driver/Src/stm32l4xx_hal_ospi.c ****   * @{
 243:Drivers/STM32L4xx_HAL_Driver/Src/stm32l4xx_hal_ospi.c ****   */
 244:Drivers/STM32L4xx_HAL_Driver/Src/stm32l4xx_hal_ospi.c **** 
 245:Drivers/STM32L4xx_HAL_Driver/Src/stm32l4xx_hal_ospi.c **** /** @defgroup OSPI OSPI
 246:Drivers/STM32L4xx_HAL_Driver/Src/stm32l4xx_hal_ospi.c ****   * @brief OSPI HAL module driver
 247:Drivers/STM32L4xx_HAL_Driver/Src/stm32l4xx_hal_ospi.c ****   * @{
 248:Drivers/STM32L4xx_HAL_Driver/Src/stm32l4xx_hal_ospi.c ****   */
 249:Drivers/STM32L4xx_HAL_Driver/Src/stm32l4xx_hal_ospi.c **** 
 250:Drivers/STM32L4xx_HAL_Driver/Src/stm32l4xx_hal_ospi.c **** #ifdef HAL_OSPI_MODULE_ENABLED
 251:Drivers/STM32L4xx_HAL_Driver/Src/stm32l4xx_hal_ospi.c **** 
 252:Drivers/STM32L4xx_HAL_Driver/Src/stm32l4xx_hal_ospi.c **** /**
 253:Drivers/STM32L4xx_HAL_Driver/Src/stm32l4xx_hal_ospi.c ****   @cond 0
 254:Drivers/STM32L4xx_HAL_Driver/Src/stm32l4xx_hal_ospi.c ****   */
 255:Drivers/STM32L4xx_HAL_Driver/Src/stm32l4xx_hal_ospi.c **** /* Private typedef -----------------------------------------------------------*/
 256:Drivers/STM32L4xx_HAL_Driver/Src/stm32l4xx_hal_ospi.c **** 
 257:Drivers/STM32L4xx_HAL_Driver/Src/stm32l4xx_hal_ospi.c **** /* Private define ------------------------------------------------------------*/
 258:Drivers/STM32L4xx_HAL_Driver/Src/stm32l4xx_hal_ospi.c **** #define OSPI_FUNCTIONAL_MODE_INDIRECT_WRITE ((uint32_t)0x00000000)         /*!< Indirect write mode
ARM GAS  C:\Users\Morroway\AppData\Local\Temp\ccxQAUQ3.s 			page 6


 259:Drivers/STM32L4xx_HAL_Driver/Src/stm32l4xx_hal_ospi.c **** #define OSPI_FUNCTIONAL_MODE_INDIRECT_READ  ((uint32_t)OCTOSPI_CR_FMODE_0) /*!< Indirect read mode 
 260:Drivers/STM32L4xx_HAL_Driver/Src/stm32l4xx_hal_ospi.c **** #define OSPI_FUNCTIONAL_MODE_AUTO_POLLING   ((uint32_t)OCTOSPI_CR_FMODE_1) /*!< Automatic polling m
 261:Drivers/STM32L4xx_HAL_Driver/Src/stm32l4xx_hal_ospi.c **** #define OSPI_FUNCTIONAL_MODE_MEMORY_MAPPED  ((uint32_t)OCTOSPI_CR_FMODE)   /*!< Memory-mapped mode 
 262:Drivers/STM32L4xx_HAL_Driver/Src/stm32l4xx_hal_ospi.c **** 
 263:Drivers/STM32L4xx_HAL_Driver/Src/stm32l4xx_hal_ospi.c **** #define OSPI_CFG_STATE_MASK  0x00000004U
 264:Drivers/STM32L4xx_HAL_Driver/Src/stm32l4xx_hal_ospi.c **** #define OSPI_BUSY_STATE_MASK 0x00000008U
 265:Drivers/STM32L4xx_HAL_Driver/Src/stm32l4xx_hal_ospi.c **** 
 266:Drivers/STM32L4xx_HAL_Driver/Src/stm32l4xx_hal_ospi.c **** #define OSPI_NB_INSTANCE   2U
 267:Drivers/STM32L4xx_HAL_Driver/Src/stm32l4xx_hal_ospi.c **** #define OSPI_IOM_NB_PORTS  2U
 268:Drivers/STM32L4xx_HAL_Driver/Src/stm32l4xx_hal_ospi.c **** #define OSPI_IOM_PORT_MASK 0x1U
 269:Drivers/STM32L4xx_HAL_Driver/Src/stm32l4xx_hal_ospi.c **** 
 270:Drivers/STM32L4xx_HAL_Driver/Src/stm32l4xx_hal_ospi.c **** /* Private macro -------------------------------------------------------------*/
 271:Drivers/STM32L4xx_HAL_Driver/Src/stm32l4xx_hal_ospi.c **** #define IS_OSPI_FUNCTIONAL_MODE(MODE) (((MODE) == OSPI_FUNCTIONAL_MODE_INDIRECT_WRITE) || \
 272:Drivers/STM32L4xx_HAL_Driver/Src/stm32l4xx_hal_ospi.c ****                                        ((MODE) == OSPI_FUNCTIONAL_MODE_INDIRECT_READ)  || \
 273:Drivers/STM32L4xx_HAL_Driver/Src/stm32l4xx_hal_ospi.c ****                                        ((MODE) == OSPI_FUNCTIONAL_MODE_AUTO_POLLING)   || \
 274:Drivers/STM32L4xx_HAL_Driver/Src/stm32l4xx_hal_ospi.c ****                                        ((MODE) == OSPI_FUNCTIONAL_MODE_MEMORY_MAPPED))
 275:Drivers/STM32L4xx_HAL_Driver/Src/stm32l4xx_hal_ospi.c **** 
 276:Drivers/STM32L4xx_HAL_Driver/Src/stm32l4xx_hal_ospi.c **** /* Private variables ---------------------------------------------------------*/
 277:Drivers/STM32L4xx_HAL_Driver/Src/stm32l4xx_hal_ospi.c **** 
 278:Drivers/STM32L4xx_HAL_Driver/Src/stm32l4xx_hal_ospi.c **** /* Private function prototypes -----------------------------------------------*/
 279:Drivers/STM32L4xx_HAL_Driver/Src/stm32l4xx_hal_ospi.c **** static void              OSPI_DMACplt                  (DMA_HandleTypeDef *hdma);
 280:Drivers/STM32L4xx_HAL_Driver/Src/stm32l4xx_hal_ospi.c **** static void              OSPI_DMAHalfCplt              (DMA_HandleTypeDef *hdma);
 281:Drivers/STM32L4xx_HAL_Driver/Src/stm32l4xx_hal_ospi.c **** static void              OSPI_DMAError                 (DMA_HandleTypeDef *hdma);
 282:Drivers/STM32L4xx_HAL_Driver/Src/stm32l4xx_hal_ospi.c **** static void              OSPI_DMAAbortCplt             (DMA_HandleTypeDef *hdma);
 283:Drivers/STM32L4xx_HAL_Driver/Src/stm32l4xx_hal_ospi.c **** static HAL_StatusTypeDef OSPI_WaitFlagStateUntilTimeout(OSPI_HandleTypeDef *hospi, uint32_t Flag, F
 284:Drivers/STM32L4xx_HAL_Driver/Src/stm32l4xx_hal_ospi.c ****                                                         uint32_t Tickstart, uint32_t Timeout);
 285:Drivers/STM32L4xx_HAL_Driver/Src/stm32l4xx_hal_ospi.c **** static HAL_StatusTypeDef OSPI_ConfigCmd                (OSPI_HandleTypeDef *hospi, OSPI_RegularCmdT
 286:Drivers/STM32L4xx_HAL_Driver/Src/stm32l4xx_hal_ospi.c **** static HAL_StatusTypeDef OSPIM_GetConfig               (uint8_t instance_nb, OSPIM_CfgTypeDef *cfg)
 287:Drivers/STM32L4xx_HAL_Driver/Src/stm32l4xx_hal_ospi.c **** /**
 288:Drivers/STM32L4xx_HAL_Driver/Src/stm32l4xx_hal_ospi.c ****   @endcond
 289:Drivers/STM32L4xx_HAL_Driver/Src/stm32l4xx_hal_ospi.c ****   */
 290:Drivers/STM32L4xx_HAL_Driver/Src/stm32l4xx_hal_ospi.c **** 
 291:Drivers/STM32L4xx_HAL_Driver/Src/stm32l4xx_hal_ospi.c **** /* Exported functions --------------------------------------------------------*/
 292:Drivers/STM32L4xx_HAL_Driver/Src/stm32l4xx_hal_ospi.c **** 
 293:Drivers/STM32L4xx_HAL_Driver/Src/stm32l4xx_hal_ospi.c **** /** @defgroup OSPI_Exported_Functions OSPI Exported Functions
 294:Drivers/STM32L4xx_HAL_Driver/Src/stm32l4xx_hal_ospi.c ****   * @{
 295:Drivers/STM32L4xx_HAL_Driver/Src/stm32l4xx_hal_ospi.c ****   */
 296:Drivers/STM32L4xx_HAL_Driver/Src/stm32l4xx_hal_ospi.c **** 
 297:Drivers/STM32L4xx_HAL_Driver/Src/stm32l4xx_hal_ospi.c **** /** @defgroup OSPI_Exported_Functions_Group1 Initialization/de-initialization functions
 298:Drivers/STM32L4xx_HAL_Driver/Src/stm32l4xx_hal_ospi.c ****   * @brief    Initialization and Configuration functions
 299:Drivers/STM32L4xx_HAL_Driver/Src/stm32l4xx_hal_ospi.c ****   *
 300:Drivers/STM32L4xx_HAL_Driver/Src/stm32l4xx_hal_ospi.c **** @verbatim
 301:Drivers/STM32L4xx_HAL_Driver/Src/stm32l4xx_hal_ospi.c **** ===============================================================================
 302:Drivers/STM32L4xx_HAL_Driver/Src/stm32l4xx_hal_ospi.c ****             ##### Initialization and Configuration functions #####
 303:Drivers/STM32L4xx_HAL_Driver/Src/stm32l4xx_hal_ospi.c ****  ===============================================================================
 304:Drivers/STM32L4xx_HAL_Driver/Src/stm32l4xx_hal_ospi.c ****     [..]
 305:Drivers/STM32L4xx_HAL_Driver/Src/stm32l4xx_hal_ospi.c ****     This subsection provides a set of functions allowing to :
 306:Drivers/STM32L4xx_HAL_Driver/Src/stm32l4xx_hal_ospi.c ****       (+) Initialize the OctoSPI.
 307:Drivers/STM32L4xx_HAL_Driver/Src/stm32l4xx_hal_ospi.c ****       (+) De-initialize the OctoSPI.
 308:Drivers/STM32L4xx_HAL_Driver/Src/stm32l4xx_hal_ospi.c **** 
 309:Drivers/STM32L4xx_HAL_Driver/Src/stm32l4xx_hal_ospi.c **** @endverbatim
 310:Drivers/STM32L4xx_HAL_Driver/Src/stm32l4xx_hal_ospi.c ****   * @{
 311:Drivers/STM32L4xx_HAL_Driver/Src/stm32l4xx_hal_ospi.c ****   */
 312:Drivers/STM32L4xx_HAL_Driver/Src/stm32l4xx_hal_ospi.c **** 
 313:Drivers/STM32L4xx_HAL_Driver/Src/stm32l4xx_hal_ospi.c **** /**
 314:Drivers/STM32L4xx_HAL_Driver/Src/stm32l4xx_hal_ospi.c ****   * @brief  Initialize the OSPI mode according to the specified parameters
 315:Drivers/STM32L4xx_HAL_Driver/Src/stm32l4xx_hal_ospi.c ****   *         in the OSPI_InitTypeDef and initialize the associated handle.
ARM GAS  C:\Users\Morroway\AppData\Local\Temp\ccxQAUQ3.s 			page 7


 316:Drivers/STM32L4xx_HAL_Driver/Src/stm32l4xx_hal_ospi.c ****   * @param  hospi : OSPI handle
 317:Drivers/STM32L4xx_HAL_Driver/Src/stm32l4xx_hal_ospi.c ****   * @retval HAL status
 318:Drivers/STM32L4xx_HAL_Driver/Src/stm32l4xx_hal_ospi.c ****   */
 319:Drivers/STM32L4xx_HAL_Driver/Src/stm32l4xx_hal_ospi.c **** HAL_StatusTypeDef HAL_OSPI_Init (OSPI_HandleTypeDef *hospi)
 320:Drivers/STM32L4xx_HAL_Driver/Src/stm32l4xx_hal_ospi.c **** {
  29              		.loc 1 320 1
  30              		.cfi_startproc
  31              		@ args = 0, pretend = 0, frame = 16
  32              		@ frame_needed = 1, uses_anonymous_args = 0
  33 0000 80B5     		push	{r7, lr}
  34              		.cfi_def_cfa_offset 8
  35              		.cfi_offset 7, -8
  36              		.cfi_offset 14, -4
  37 0002 86B0     		sub	sp, sp, #24
  38              		.cfi_def_cfa_offset 32
  39 0004 02AF     		add	r7, sp, #8
  40              		.cfi_def_cfa 7, 24
  41 0006 7860     		str	r0, [r7, #4]
 321:Drivers/STM32L4xx_HAL_Driver/Src/stm32l4xx_hal_ospi.c ****   HAL_StatusTypeDef status = HAL_OK;
  42              		.loc 1 321 21
  43 0008 0023     		movs	r3, #0
  44 000a FB73     		strb	r3, [r7, #15]
 322:Drivers/STM32L4xx_HAL_Driver/Src/stm32l4xx_hal_ospi.c ****   uint32_t tickstart = HAL_GetTick();
  45              		.loc 1 322 24
  46 000c FFF7FEFF 		bl	HAL_GetTick
  47 0010 B860     		str	r0, [r7, #8]
 323:Drivers/STM32L4xx_HAL_Driver/Src/stm32l4xx_hal_ospi.c **** 
 324:Drivers/STM32L4xx_HAL_Driver/Src/stm32l4xx_hal_ospi.c ****   /* Check the OSPI handle allocation */
 325:Drivers/STM32L4xx_HAL_Driver/Src/stm32l4xx_hal_ospi.c ****   if (hospi == NULL)
  48              		.loc 1 325 6
  49 0012 7B68     		ldr	r3, [r7, #4]
  50 0014 002B     		cmp	r3, #0
  51 0016 02D1     		bne	.L2
 326:Drivers/STM32L4xx_HAL_Driver/Src/stm32l4xx_hal_ospi.c ****   {
 327:Drivers/STM32L4xx_HAL_Driver/Src/stm32l4xx_hal_ospi.c ****     status = HAL_ERROR;
  52              		.loc 1 327 12
  53 0018 0123     		movs	r3, #1
  54 001a FB73     		strb	r3, [r7, #15]
  55 001c 9AE0     		b	.L3
  56              	.L2:
 328:Drivers/STM32L4xx_HAL_Driver/Src/stm32l4xx_hal_ospi.c ****     /* No error code can be set set as the handler is null */
 329:Drivers/STM32L4xx_HAL_Driver/Src/stm32l4xx_hal_ospi.c ****   }
 330:Drivers/STM32L4xx_HAL_Driver/Src/stm32l4xx_hal_ospi.c ****   else
 331:Drivers/STM32L4xx_HAL_Driver/Src/stm32l4xx_hal_ospi.c ****   {
 332:Drivers/STM32L4xx_HAL_Driver/Src/stm32l4xx_hal_ospi.c ****     /* Check the parameters of the initialization structure */
 333:Drivers/STM32L4xx_HAL_Driver/Src/stm32l4xx_hal_ospi.c ****     assert_param(IS_OSPI_FIFO_THRESHOLD (hospi->Init.FifoThreshold));
 334:Drivers/STM32L4xx_HAL_Driver/Src/stm32l4xx_hal_ospi.c ****     assert_param(IS_OSPI_DUALQUAD_MODE  (hospi->Init.DualQuad));
 335:Drivers/STM32L4xx_HAL_Driver/Src/stm32l4xx_hal_ospi.c ****     assert_param(IS_OSPI_MEMORY_TYPE    (hospi->Init.MemoryType));
 336:Drivers/STM32L4xx_HAL_Driver/Src/stm32l4xx_hal_ospi.c ****     assert_param(IS_OSPI_DEVICE_SIZE    (hospi->Init.DeviceSize));
 337:Drivers/STM32L4xx_HAL_Driver/Src/stm32l4xx_hal_ospi.c ****     assert_param(IS_OSPI_CS_HIGH_TIME   (hospi->Init.ChipSelectHighTime));
 338:Drivers/STM32L4xx_HAL_Driver/Src/stm32l4xx_hal_ospi.c ****     assert_param(IS_OSPI_FREE_RUN_CLK   (hospi->Init.FreeRunningClock));
 339:Drivers/STM32L4xx_HAL_Driver/Src/stm32l4xx_hal_ospi.c ****     assert_param(IS_OSPI_CLOCK_MODE     (hospi->Init.ClockMode));
 340:Drivers/STM32L4xx_HAL_Driver/Src/stm32l4xx_hal_ospi.c ****     assert_param(IS_OSPI_CLK_PRESCALER  (hospi->Init.ClockPrescaler));
 341:Drivers/STM32L4xx_HAL_Driver/Src/stm32l4xx_hal_ospi.c ****     assert_param(IS_OSPI_SAMPLE_SHIFTING(hospi->Init.SampleShifting));
 342:Drivers/STM32L4xx_HAL_Driver/Src/stm32l4xx_hal_ospi.c ****     assert_param(IS_OSPI_DHQC           (hospi->Init.DelayHoldQuarterCycle));
 343:Drivers/STM32L4xx_HAL_Driver/Src/stm32l4xx_hal_ospi.c ****     assert_param(IS_OSPI_CS_BOUNDARY    (hospi->Init.ChipSelectBoundary));
 344:Drivers/STM32L4xx_HAL_Driver/Src/stm32l4xx_hal_ospi.c ****     assert_param(IS_OSPI_DLYBYP         (hospi->Init.DelayBlockBypass));
ARM GAS  C:\Users\Morroway\AppData\Local\Temp\ccxQAUQ3.s 			page 8


 345:Drivers/STM32L4xx_HAL_Driver/Src/stm32l4xx_hal_ospi.c **** #if   defined (OCTOSPI_DCR3_MAXTRAN)
 346:Drivers/STM32L4xx_HAL_Driver/Src/stm32l4xx_hal_ospi.c ****     assert_param(IS_OSPI_MAXTRAN        (hospi->Init.MaxTran));
 347:Drivers/STM32L4xx_HAL_Driver/Src/stm32l4xx_hal_ospi.c **** #endif
 348:Drivers/STM32L4xx_HAL_Driver/Src/stm32l4xx_hal_ospi.c **** 
 349:Drivers/STM32L4xx_HAL_Driver/Src/stm32l4xx_hal_ospi.c ****     /* Initialize error code */
 350:Drivers/STM32L4xx_HAL_Driver/Src/stm32l4xx_hal_ospi.c ****     hospi->ErrorCode = HAL_OSPI_ERROR_NONE;
  57              		.loc 1 350 22
  58 001e 7B68     		ldr	r3, [r7, #4]
  59 0020 0022     		movs	r2, #0
  60 0022 1A65     		str	r2, [r3, #80]
 351:Drivers/STM32L4xx_HAL_Driver/Src/stm32l4xx_hal_ospi.c **** 
 352:Drivers/STM32L4xx_HAL_Driver/Src/stm32l4xx_hal_ospi.c ****     /* Check if the state is the reset state */
 353:Drivers/STM32L4xx_HAL_Driver/Src/stm32l4xx_hal_ospi.c ****     if (hospi->State == HAL_OSPI_STATE_RESET)
  61              		.loc 1 353 14
  62 0024 7B68     		ldr	r3, [r7, #4]
  63 0026 DB6C     		ldr	r3, [r3, #76]
  64              		.loc 1 353 8
  65 0028 002B     		cmp	r3, #0
  66 002a 40F09380 		bne	.L3
 354:Drivers/STM32L4xx_HAL_Driver/Src/stm32l4xx_hal_ospi.c ****     {
 355:Drivers/STM32L4xx_HAL_Driver/Src/stm32l4xx_hal_ospi.c **** #if defined (USE_HAL_OSPI_REGISTER_CALLBACKS) && (USE_HAL_OSPI_REGISTER_CALLBACKS == 1U)
 356:Drivers/STM32L4xx_HAL_Driver/Src/stm32l4xx_hal_ospi.c ****       /* Reset Callback pointers in HAL_OSPI_STATE_RESET only */
 357:Drivers/STM32L4xx_HAL_Driver/Src/stm32l4xx_hal_ospi.c ****       hospi->ErrorCallback         = HAL_OSPI_ErrorCallback;
 358:Drivers/STM32L4xx_HAL_Driver/Src/stm32l4xx_hal_ospi.c ****       hospi->AbortCpltCallback     = HAL_OSPI_AbortCpltCallback;
 359:Drivers/STM32L4xx_HAL_Driver/Src/stm32l4xx_hal_ospi.c ****       hospi->FifoThresholdCallback = HAL_OSPI_FifoThresholdCallback;
 360:Drivers/STM32L4xx_HAL_Driver/Src/stm32l4xx_hal_ospi.c ****       hospi->CmdCpltCallback       = HAL_OSPI_CmdCpltCallback;
 361:Drivers/STM32L4xx_HAL_Driver/Src/stm32l4xx_hal_ospi.c ****       hospi->RxCpltCallback        = HAL_OSPI_RxCpltCallback;
 362:Drivers/STM32L4xx_HAL_Driver/Src/stm32l4xx_hal_ospi.c ****       hospi->TxCpltCallback        = HAL_OSPI_TxCpltCallback;
 363:Drivers/STM32L4xx_HAL_Driver/Src/stm32l4xx_hal_ospi.c ****       hospi->RxHalfCpltCallback    = HAL_OSPI_RxHalfCpltCallback;
 364:Drivers/STM32L4xx_HAL_Driver/Src/stm32l4xx_hal_ospi.c ****       hospi->TxHalfCpltCallback    = HAL_OSPI_TxHalfCpltCallback;
 365:Drivers/STM32L4xx_HAL_Driver/Src/stm32l4xx_hal_ospi.c ****       hospi->StatusMatchCallback   = HAL_OSPI_StatusMatchCallback;
 366:Drivers/STM32L4xx_HAL_Driver/Src/stm32l4xx_hal_ospi.c ****       hospi->TimeOutCallback       = HAL_OSPI_TimeOutCallback;
 367:Drivers/STM32L4xx_HAL_Driver/Src/stm32l4xx_hal_ospi.c **** 
 368:Drivers/STM32L4xx_HAL_Driver/Src/stm32l4xx_hal_ospi.c ****       if(hospi->MspInitCallback == NULL)
 369:Drivers/STM32L4xx_HAL_Driver/Src/stm32l4xx_hal_ospi.c ****       {
 370:Drivers/STM32L4xx_HAL_Driver/Src/stm32l4xx_hal_ospi.c ****         hospi->MspInitCallback = HAL_OSPI_MspInit;
 371:Drivers/STM32L4xx_HAL_Driver/Src/stm32l4xx_hal_ospi.c ****       }
 372:Drivers/STM32L4xx_HAL_Driver/Src/stm32l4xx_hal_ospi.c **** 
 373:Drivers/STM32L4xx_HAL_Driver/Src/stm32l4xx_hal_ospi.c ****       /* Init the low level hardware */
 374:Drivers/STM32L4xx_HAL_Driver/Src/stm32l4xx_hal_ospi.c ****       hospi->MspInitCallback(hospi);
 375:Drivers/STM32L4xx_HAL_Driver/Src/stm32l4xx_hal_ospi.c **** #else
 376:Drivers/STM32L4xx_HAL_Driver/Src/stm32l4xx_hal_ospi.c ****       /* Initialization of the low level hardware */
 377:Drivers/STM32L4xx_HAL_Driver/Src/stm32l4xx_hal_ospi.c ****       HAL_OSPI_MspInit(hospi);
  67              		.loc 1 377 7
  68 002e 7868     		ldr	r0, [r7, #4]
  69 0030 FFF7FEFF 		bl	HAL_OSPI_MspInit
 378:Drivers/STM32L4xx_HAL_Driver/Src/stm32l4xx_hal_ospi.c **** #endif /* defined (USE_HAL_OSPI_REGISTER_CALLBACKS) && (USE_HAL_OSPI_REGISTER_CALLBACKS == 1U) */
 379:Drivers/STM32L4xx_HAL_Driver/Src/stm32l4xx_hal_ospi.c **** 
 380:Drivers/STM32L4xx_HAL_Driver/Src/stm32l4xx_hal_ospi.c ****       /* Configure the default timeout for the OSPI memory access */
 381:Drivers/STM32L4xx_HAL_Driver/Src/stm32l4xx_hal_ospi.c ****       (void)HAL_OSPI_SetTimeout(hospi, HAL_OSPI_TIMEOUT_DEFAULT_VALUE);
  70              		.loc 1 381 13
  71 0034 41F28831 		movw	r1, #5000
  72 0038 7868     		ldr	r0, [r7, #4]
  73 003a FFF7FEFF 		bl	HAL_OSPI_SetTimeout
 382:Drivers/STM32L4xx_HAL_Driver/Src/stm32l4xx_hal_ospi.c **** 
 383:Drivers/STM32L4xx_HAL_Driver/Src/stm32l4xx_hal_ospi.c ****       /* Configure memory type, device size, chip select high time, delay block bypass,
 384:Drivers/STM32L4xx_HAL_Driver/Src/stm32l4xx_hal_ospi.c ****          free running clock, clock mode */
ARM GAS  C:\Users\Morroway\AppData\Local\Temp\ccxQAUQ3.s 			page 9


 385:Drivers/STM32L4xx_HAL_Driver/Src/stm32l4xx_hal_ospi.c ****       MODIFY_REG(hospi->Instance->DCR1,
  74              		.loc 1 385 7
  75 003e 7B68     		ldr	r3, [r7, #4]
  76 0040 1B68     		ldr	r3, [r3]
  77 0042 9A68     		ldr	r2, [r3, #8]
  78 0044 464B     		ldr	r3, .L7
  79 0046 1340     		ands	r3, r3, r2
  80 0048 7A68     		ldr	r2, [r7, #4]
  81 004a D168     		ldr	r1, [r2, #12]
  82 004c 7A68     		ldr	r2, [r7, #4]
  83 004e 1269     		ldr	r2, [r2, #16]
  84 0050 013A     		subs	r2, r2, #1
  85 0052 1204     		lsls	r2, r2, #16
  86 0054 1143     		orrs	r1, r1, r2
  87 0056 7A68     		ldr	r2, [r7, #4]
  88 0058 5269     		ldr	r2, [r2, #20]
  89 005a 013A     		subs	r2, r2, #1
  90 005c 1202     		lsls	r2, r2, #8
  91 005e 1143     		orrs	r1, r1, r2
  92 0060 7A68     		ldr	r2, [r7, #4]
  93 0062 126B     		ldr	r2, [r2, #48]
  94 0064 1143     		orrs	r1, r1, r2
  95 0066 7A68     		ldr	r2, [r7, #4]
  96 0068 D269     		ldr	r2, [r2, #28]
  97 006a 1143     		orrs	r1, r1, r2
  98 006c 7A68     		ldr	r2, [r7, #4]
  99 006e 1268     		ldr	r2, [r2]
 100 0070 0B43     		orrs	r3, r3, r1
 101 0072 9360     		str	r3, [r2, #8]
 386:Drivers/STM32L4xx_HAL_Driver/Src/stm32l4xx_hal_ospi.c ****                  (OCTOSPI_DCR1_MTYP | OCTOSPI_DCR1_DEVSIZE | OCTOSPI_DCR1_CSHT | OCTOSPI_DCR1_DLYBY
 387:Drivers/STM32L4xx_HAL_Driver/Src/stm32l4xx_hal_ospi.c ****                   OCTOSPI_DCR1_FRCK | OCTOSPI_DCR1_CKMODE),
 388:Drivers/STM32L4xx_HAL_Driver/Src/stm32l4xx_hal_ospi.c ****                  (hospi->Init.MemoryType | ((hospi->Init.DeviceSize - 1U) << OCTOSPI_DCR1_DEVSIZE_P
 389:Drivers/STM32L4xx_HAL_Driver/Src/stm32l4xx_hal_ospi.c ****                   ((hospi->Init.ChipSelectHighTime - 1U) << OCTOSPI_DCR1_CSHT_Pos) |
 390:Drivers/STM32L4xx_HAL_Driver/Src/stm32l4xx_hal_ospi.c ****                   hospi->Init.DelayBlockBypass | hospi->Init.ClockMode));
 391:Drivers/STM32L4xx_HAL_Driver/Src/stm32l4xx_hal_ospi.c **** 
 392:Drivers/STM32L4xx_HAL_Driver/Src/stm32l4xx_hal_ospi.c **** #if   defined (OCTOSPI_DCR3_MAXTRAN)
 393:Drivers/STM32L4xx_HAL_Driver/Src/stm32l4xx_hal_ospi.c ****       /* Configure chip select boundary and maximum transfer */
 394:Drivers/STM32L4xx_HAL_Driver/Src/stm32l4xx_hal_ospi.c ****       hospi->Instance->DCR3 = ((hospi->Init.ChipSelectBoundary << OCTOSPI_DCR3_CSBOUND_Pos) |
 102              		.loc 1 394 44
 103 0074 7B68     		ldr	r3, [r7, #4]
 104 0076 DB6A     		ldr	r3, [r3, #44]
 105              		.loc 1 394 64
 106 0078 1904     		lsls	r1, r3, #16
 395:Drivers/STM32L4xx_HAL_Driver/Src/stm32l4xx_hal_ospi.c ****                                (hospi->Init.MaxTran << OCTOSPI_DCR3_MAXTRAN_Pos));
 107              		.loc 1 395 53
 108 007a 7B68     		ldr	r3, [r7, #4]
 109 007c 5A6B     		ldr	r2, [r3, #52]
 394:Drivers/STM32L4xx_HAL_Driver/Src/stm32l4xx_hal_ospi.c ****                                (hospi->Init.MaxTran << OCTOSPI_DCR3_MAXTRAN_Pos));
 110              		.loc 1 394 12
 111 007e 7B68     		ldr	r3, [r7, #4]
 112 0080 1B68     		ldr	r3, [r3]
 394:Drivers/STM32L4xx_HAL_Driver/Src/stm32l4xx_hal_ospi.c ****                                (hospi->Init.MaxTran << OCTOSPI_DCR3_MAXTRAN_Pos));
 113              		.loc 1 394 93
 114 0082 0A43     		orrs	r2, r2, r1
 394:Drivers/STM32L4xx_HAL_Driver/Src/stm32l4xx_hal_ospi.c ****                                (hospi->Init.MaxTran << OCTOSPI_DCR3_MAXTRAN_Pos));
 115              		.loc 1 394 29
 116 0084 1A61     		str	r2, [r3, #16]
ARM GAS  C:\Users\Morroway\AppData\Local\Temp\ccxQAUQ3.s 			page 10


 396:Drivers/STM32L4xx_HAL_Driver/Src/stm32l4xx_hal_ospi.c **** #else
 397:Drivers/STM32L4xx_HAL_Driver/Src/stm32l4xx_hal_ospi.c ****       /* Configure chip select boundary */
 398:Drivers/STM32L4xx_HAL_Driver/Src/stm32l4xx_hal_ospi.c ****       hospi->Instance->DCR3 = (hospi->Init.ChipSelectBoundary << OCTOSPI_DCR3_CSBOUND_Pos);
 399:Drivers/STM32L4xx_HAL_Driver/Src/stm32l4xx_hal_ospi.c **** #endif
 400:Drivers/STM32L4xx_HAL_Driver/Src/stm32l4xx_hal_ospi.c **** 
 401:Drivers/STM32L4xx_HAL_Driver/Src/stm32l4xx_hal_ospi.c **** #if   defined (OCTOSPI_DCR4_REFRESH)
 402:Drivers/STM32L4xx_HAL_Driver/Src/stm32l4xx_hal_ospi.c ****       /* Configure refresh */
 403:Drivers/STM32L4xx_HAL_Driver/Src/stm32l4xx_hal_ospi.c ****       hospi->Instance->DCR4 = hospi->Init.Refresh;
 117              		.loc 1 403 12
 118 0086 7B68     		ldr	r3, [r7, #4]
 119 0088 1B68     		ldr	r3, [r3]
 120              		.loc 1 403 42
 121 008a 7A68     		ldr	r2, [r7, #4]
 122 008c 926B     		ldr	r2, [r2, #56]
 123              		.loc 1 403 29
 124 008e 5A61     		str	r2, [r3, #20]
 404:Drivers/STM32L4xx_HAL_Driver/Src/stm32l4xx_hal_ospi.c **** #endif
 405:Drivers/STM32L4xx_HAL_Driver/Src/stm32l4xx_hal_ospi.c **** 
 406:Drivers/STM32L4xx_HAL_Driver/Src/stm32l4xx_hal_ospi.c ****       /* Configure FIFO threshold */
 407:Drivers/STM32L4xx_HAL_Driver/Src/stm32l4xx_hal_ospi.c ****       MODIFY_REG(hospi->Instance->CR, OCTOSPI_CR_FTHRES, ((hospi->Init.FifoThreshold - 1U) << OCTOS
 125              		.loc 1 407 7
 126 0090 7B68     		ldr	r3, [r7, #4]
 127 0092 1B68     		ldr	r3, [r3]
 128 0094 1B68     		ldr	r3, [r3]
 129 0096 23F4F851 		bic	r1, r3, #7936
 130 009a 7B68     		ldr	r3, [r7, #4]
 131 009c 5B68     		ldr	r3, [r3, #4]
 132 009e 013B     		subs	r3, r3, #1
 133 00a0 1A02     		lsls	r2, r3, #8
 134 00a2 7B68     		ldr	r3, [r7, #4]
 135 00a4 1B68     		ldr	r3, [r3]
 136 00a6 0A43     		orrs	r2, r2, r1
 137 00a8 1A60     		str	r2, [r3]
 408:Drivers/STM32L4xx_HAL_Driver/Src/stm32l4xx_hal_ospi.c **** 
 409:Drivers/STM32L4xx_HAL_Driver/Src/stm32l4xx_hal_ospi.c ****       /* Wait till busy flag is reset */
 410:Drivers/STM32L4xx_HAL_Driver/Src/stm32l4xx_hal_ospi.c ****       status = OSPI_WaitFlagStateUntilTimeout(hospi, HAL_OSPI_FLAG_BUSY, RESET, tickstart, hospi->T
 138              		.loc 1 410 16
 139 00aa 7B68     		ldr	r3, [r7, #4]
 140 00ac 5B6D     		ldr	r3, [r3, #84]
 141 00ae 0093     		str	r3, [sp]
 142 00b0 BB68     		ldr	r3, [r7, #8]
 143 00b2 0022     		movs	r2, #0
 144 00b4 2021     		movs	r1, #32
 145 00b6 7868     		ldr	r0, [r7, #4]
 146 00b8 FFF7FEFF 		bl	OSPI_WaitFlagStateUntilTimeout
 147 00bc 0346     		mov	r3, r0
 148 00be FB73     		strb	r3, [r7, #15]
 411:Drivers/STM32L4xx_HAL_Driver/Src/stm32l4xx_hal_ospi.c **** 
 412:Drivers/STM32L4xx_HAL_Driver/Src/stm32l4xx_hal_ospi.c ****       if (status == HAL_OK)
 149              		.loc 1 412 10
 150 00c0 FB7B     		ldrb	r3, [r7, #15]	@ zero_extendqisi2
 151 00c2 002B     		cmp	r3, #0
 152 00c4 46D1     		bne	.L3
 413:Drivers/STM32L4xx_HAL_Driver/Src/stm32l4xx_hal_ospi.c ****       {
 414:Drivers/STM32L4xx_HAL_Driver/Src/stm32l4xx_hal_ospi.c ****         /* Configure clock prescaler */
 415:Drivers/STM32L4xx_HAL_Driver/Src/stm32l4xx_hal_ospi.c ****         MODIFY_REG(hospi->Instance->DCR2, OCTOSPI_DCR2_PRESCALER,
 153              		.loc 1 415 9
ARM GAS  C:\Users\Morroway\AppData\Local\Temp\ccxQAUQ3.s 			page 11


 154 00c6 7B68     		ldr	r3, [r7, #4]
 155 00c8 1B68     		ldr	r3, [r3]
 156 00ca DB68     		ldr	r3, [r3, #12]
 157 00cc 23F0FF01 		bic	r1, r3, #255
 158 00d0 7B68     		ldr	r3, [r7, #4]
 159 00d2 1B6A     		ldr	r3, [r3, #32]
 160 00d4 5A1E     		subs	r2, r3, #1
 161 00d6 7B68     		ldr	r3, [r7, #4]
 162 00d8 1B68     		ldr	r3, [r3]
 163 00da 0A43     		orrs	r2, r2, r1
 164 00dc DA60     		str	r2, [r3, #12]
 416:Drivers/STM32L4xx_HAL_Driver/Src/stm32l4xx_hal_ospi.c ****                   ((hospi->Init.ClockPrescaler - 1U) << OCTOSPI_DCR2_PRESCALER_Pos));
 417:Drivers/STM32L4xx_HAL_Driver/Src/stm32l4xx_hal_ospi.c **** 
 418:Drivers/STM32L4xx_HAL_Driver/Src/stm32l4xx_hal_ospi.c ****         /* Configure Dual Quad mode */
 419:Drivers/STM32L4xx_HAL_Driver/Src/stm32l4xx_hal_ospi.c ****         MODIFY_REG(hospi->Instance->CR, OCTOSPI_CR_DQM, hospi->Init.DualQuad);
 165              		.loc 1 419 9
 166 00de 7B68     		ldr	r3, [r7, #4]
 167 00e0 1B68     		ldr	r3, [r3]
 168 00e2 1B68     		ldr	r3, [r3]
 169 00e4 23F04001 		bic	r1, r3, #64
 170 00e8 7B68     		ldr	r3, [r7, #4]
 171 00ea 9A68     		ldr	r2, [r3, #8]
 172 00ec 7B68     		ldr	r3, [r7, #4]
 173 00ee 1B68     		ldr	r3, [r3]
 174 00f0 0A43     		orrs	r2, r2, r1
 175 00f2 1A60     		str	r2, [r3]
 420:Drivers/STM32L4xx_HAL_Driver/Src/stm32l4xx_hal_ospi.c **** 
 421:Drivers/STM32L4xx_HAL_Driver/Src/stm32l4xx_hal_ospi.c ****         /* Configure sample shifting and delay hold quarter cycle */
 422:Drivers/STM32L4xx_HAL_Driver/Src/stm32l4xx_hal_ospi.c ****         MODIFY_REG(hospi->Instance->TCR, (OCTOSPI_TCR_SSHIFT | OCTOSPI_TCR_DHQC),
 176              		.loc 1 422 9
 177 00f4 7B68     		ldr	r3, [r7, #4]
 178 00f6 1B68     		ldr	r3, [r3]
 179 00f8 D3F80831 		ldr	r3, [r3, #264]
 180 00fc 23F0A041 		bic	r1, r3, #1342177280
 181 0100 7B68     		ldr	r3, [r7, #4]
 182 0102 5A6A     		ldr	r2, [r3, #36]
 183 0104 7B68     		ldr	r3, [r7, #4]
 184 0106 9B6A     		ldr	r3, [r3, #40]
 185 0108 1A43     		orrs	r2, r2, r3
 186 010a 7B68     		ldr	r3, [r7, #4]
 187 010c 1B68     		ldr	r3, [r3]
 188 010e 0A43     		orrs	r2, r2, r1
 189 0110 C3F80821 		str	r2, [r3, #264]
 423:Drivers/STM32L4xx_HAL_Driver/Src/stm32l4xx_hal_ospi.c ****                   (hospi->Init.SampleShifting | hospi->Init.DelayHoldQuarterCycle));
 424:Drivers/STM32L4xx_HAL_Driver/Src/stm32l4xx_hal_ospi.c **** 
 425:Drivers/STM32L4xx_HAL_Driver/Src/stm32l4xx_hal_ospi.c ****         /* Enable OctoSPI */
 426:Drivers/STM32L4xx_HAL_Driver/Src/stm32l4xx_hal_ospi.c ****         __HAL_OSPI_ENABLE(hospi);
 190              		.loc 1 426 9
 191 0114 7B68     		ldr	r3, [r7, #4]
 192 0116 1B68     		ldr	r3, [r3]
 193 0118 1A68     		ldr	r2, [r3]
 194 011a 7B68     		ldr	r3, [r7, #4]
 195 011c 1B68     		ldr	r3, [r3]
 196 011e 42F00102 		orr	r2, r2, #1
 197 0122 1A60     		str	r2, [r3]
 427:Drivers/STM32L4xx_HAL_Driver/Src/stm32l4xx_hal_ospi.c **** 
 428:Drivers/STM32L4xx_HAL_Driver/Src/stm32l4xx_hal_ospi.c ****         /* Enable free running clock if needed : must be done after OSPI enable */
ARM GAS  C:\Users\Morroway\AppData\Local\Temp\ccxQAUQ3.s 			page 12


 429:Drivers/STM32L4xx_HAL_Driver/Src/stm32l4xx_hal_ospi.c ****         if (hospi->Init.FreeRunningClock == HAL_OSPI_FREERUNCLK_ENABLE)
 198              		.loc 1 429 24
 199 0124 7B68     		ldr	r3, [r7, #4]
 200 0126 9B69     		ldr	r3, [r3, #24]
 201              		.loc 1 429 12
 202 0128 022B     		cmp	r3, #2
 203 012a 07D1     		bne	.L4
 430:Drivers/STM32L4xx_HAL_Driver/Src/stm32l4xx_hal_ospi.c ****         {
 431:Drivers/STM32L4xx_HAL_Driver/Src/stm32l4xx_hal_ospi.c ****           SET_BIT(hospi->Instance->DCR1, OCTOSPI_DCR1_FRCK);
 204              		.loc 1 431 11
 205 012c 7B68     		ldr	r3, [r7, #4]
 206 012e 1B68     		ldr	r3, [r3]
 207 0130 9A68     		ldr	r2, [r3, #8]
 208 0132 7B68     		ldr	r3, [r7, #4]
 209 0134 1B68     		ldr	r3, [r3]
 210 0136 42F00202 		orr	r2, r2, #2
 211 013a 9A60     		str	r2, [r3, #8]
 212              	.L4:
 432:Drivers/STM32L4xx_HAL_Driver/Src/stm32l4xx_hal_ospi.c ****         }
 433:Drivers/STM32L4xx_HAL_Driver/Src/stm32l4xx_hal_ospi.c **** 
 434:Drivers/STM32L4xx_HAL_Driver/Src/stm32l4xx_hal_ospi.c ****         /* Initialize the OSPI state */
 435:Drivers/STM32L4xx_HAL_Driver/Src/stm32l4xx_hal_ospi.c ****         if (hospi->Init.MemoryType == HAL_OSPI_MEMTYPE_HYPERBUS)
 213              		.loc 1 435 24
 214 013c 7B68     		ldr	r3, [r7, #4]
 215 013e DB68     		ldr	r3, [r3, #12]
 216              		.loc 1 435 12
 217 0140 B3F1806F 		cmp	r3, #67108864
 218 0144 03D1     		bne	.L5
 436:Drivers/STM32L4xx_HAL_Driver/Src/stm32l4xx_hal_ospi.c ****         {
 437:Drivers/STM32L4xx_HAL_Driver/Src/stm32l4xx_hal_ospi.c ****           hospi->State = HAL_OSPI_STATE_HYPERBUS_INIT;
 219              		.loc 1 437 24
 220 0146 7B68     		ldr	r3, [r7, #4]
 221 0148 0122     		movs	r2, #1
 222 014a DA64     		str	r2, [r3, #76]
 223 014c 02E0     		b	.L3
 224              	.L5:
 438:Drivers/STM32L4xx_HAL_Driver/Src/stm32l4xx_hal_ospi.c ****         }
 439:Drivers/STM32L4xx_HAL_Driver/Src/stm32l4xx_hal_ospi.c ****         else
 440:Drivers/STM32L4xx_HAL_Driver/Src/stm32l4xx_hal_ospi.c ****         {
 441:Drivers/STM32L4xx_HAL_Driver/Src/stm32l4xx_hal_ospi.c ****           hospi->State = HAL_OSPI_STATE_READY;
 225              		.loc 1 441 24
 226 014e 7B68     		ldr	r3, [r7, #4]
 227 0150 0222     		movs	r2, #2
 228 0152 DA64     		str	r2, [r3, #76]
 229              	.L3:
 442:Drivers/STM32L4xx_HAL_Driver/Src/stm32l4xx_hal_ospi.c ****         }
 443:Drivers/STM32L4xx_HAL_Driver/Src/stm32l4xx_hal_ospi.c ****       }
 444:Drivers/STM32L4xx_HAL_Driver/Src/stm32l4xx_hal_ospi.c ****     }
 445:Drivers/STM32L4xx_HAL_Driver/Src/stm32l4xx_hal_ospi.c ****   }
 446:Drivers/STM32L4xx_HAL_Driver/Src/stm32l4xx_hal_ospi.c **** 
 447:Drivers/STM32L4xx_HAL_Driver/Src/stm32l4xx_hal_ospi.c ****   /* Return function status */
 448:Drivers/STM32L4xx_HAL_Driver/Src/stm32l4xx_hal_ospi.c ****   return status;
 230              		.loc 1 448 10
 231 0154 FB7B     		ldrb	r3, [r7, #15]	@ zero_extendqisi2
 449:Drivers/STM32L4xx_HAL_Driver/Src/stm32l4xx_hal_ospi.c **** }
 232              		.loc 1 449 1
 233 0156 1846     		mov	r0, r3
ARM GAS  C:\Users\Morroway\AppData\Local\Temp\ccxQAUQ3.s 			page 13


 234 0158 1037     		adds	r7, r7, #16
 235              		.cfi_def_cfa_offset 8
 236 015a BD46     		mov	sp, r7
 237              		.cfi_def_cfa_register 13
 238              		@ sp needed
 239 015c 80BD     		pop	{r7, pc}
 240              	.L8:
 241 015e 00BF     		.align	2
 242              	.L7:
 243 0160 F4C0E0F8 		.word	-119488268
 244              		.cfi_endproc
 245              	.LFE321:
 247              		.section	.text.HAL_OSPI_MspInit,"ax",%progbits
 248              		.align	1
 249              		.weak	HAL_OSPI_MspInit
 250              		.syntax unified
 251              		.thumb
 252              		.thumb_func
 254              	HAL_OSPI_MspInit:
 255              	.LFB322:
 450:Drivers/STM32L4xx_HAL_Driver/Src/stm32l4xx_hal_ospi.c **** 
 451:Drivers/STM32L4xx_HAL_Driver/Src/stm32l4xx_hal_ospi.c **** /**
 452:Drivers/STM32L4xx_HAL_Driver/Src/stm32l4xx_hal_ospi.c ****   * @brief  Initialize the OSPI MSP.
 453:Drivers/STM32L4xx_HAL_Driver/Src/stm32l4xx_hal_ospi.c ****   * @param  hospi : OSPI handle
 454:Drivers/STM32L4xx_HAL_Driver/Src/stm32l4xx_hal_ospi.c ****   * @retval None
 455:Drivers/STM32L4xx_HAL_Driver/Src/stm32l4xx_hal_ospi.c ****   */
 456:Drivers/STM32L4xx_HAL_Driver/Src/stm32l4xx_hal_ospi.c **** __weak void HAL_OSPI_MspInit(OSPI_HandleTypeDef *hospi)
 457:Drivers/STM32L4xx_HAL_Driver/Src/stm32l4xx_hal_ospi.c **** {
 256              		.loc 1 457 1
 257              		.cfi_startproc
 258              		@ args = 0, pretend = 0, frame = 8
 259              		@ frame_needed = 1, uses_anonymous_args = 0
 260              		@ link register save eliminated.
 261 0000 80B4     		push	{r7}
 262              		.cfi_def_cfa_offset 4
 263              		.cfi_offset 7, -4
 264 0002 83B0     		sub	sp, sp, #12
 265              		.cfi_def_cfa_offset 16
 266 0004 00AF     		add	r7, sp, #0
 267              		.cfi_def_cfa_register 7
 268 0006 7860     		str	r0, [r7, #4]
 458:Drivers/STM32L4xx_HAL_Driver/Src/stm32l4xx_hal_ospi.c ****   /* Prevent unused argument(s) compilation warning */
 459:Drivers/STM32L4xx_HAL_Driver/Src/stm32l4xx_hal_ospi.c ****   UNUSED(hospi);
 460:Drivers/STM32L4xx_HAL_Driver/Src/stm32l4xx_hal_ospi.c **** 
 461:Drivers/STM32L4xx_HAL_Driver/Src/stm32l4xx_hal_ospi.c ****   /* NOTE : This function should not be modified, when the callback is needed,
 462:Drivers/STM32L4xx_HAL_Driver/Src/stm32l4xx_hal_ospi.c ****             the HAL_OSPI_MspInit can be implemented in the user file
 463:Drivers/STM32L4xx_HAL_Driver/Src/stm32l4xx_hal_ospi.c ****    */
 464:Drivers/STM32L4xx_HAL_Driver/Src/stm32l4xx_hal_ospi.c **** }
 269              		.loc 1 464 1
 270 0008 00BF     		nop
 271 000a 0C37     		adds	r7, r7, #12
 272              		.cfi_def_cfa_offset 4
 273 000c BD46     		mov	sp, r7
 274              		.cfi_def_cfa_register 13
 275              		@ sp needed
 276 000e 5DF8047B 		ldr	r7, [sp], #4
 277              		.cfi_restore 7
ARM GAS  C:\Users\Morroway\AppData\Local\Temp\ccxQAUQ3.s 			page 14


 278              		.cfi_def_cfa_offset 0
 279 0012 7047     		bx	lr
 280              		.cfi_endproc
 281              	.LFE322:
 283              		.section	.text.HAL_OSPI_DeInit,"ax",%progbits
 284              		.align	1
 285              		.global	HAL_OSPI_DeInit
 286              		.syntax unified
 287              		.thumb
 288              		.thumb_func
 290              	HAL_OSPI_DeInit:
 291              	.LFB323:
 465:Drivers/STM32L4xx_HAL_Driver/Src/stm32l4xx_hal_ospi.c **** 
 466:Drivers/STM32L4xx_HAL_Driver/Src/stm32l4xx_hal_ospi.c **** /**
 467:Drivers/STM32L4xx_HAL_Driver/Src/stm32l4xx_hal_ospi.c ****   * @brief  De-Initialize the OSPI peripheral.
 468:Drivers/STM32L4xx_HAL_Driver/Src/stm32l4xx_hal_ospi.c ****   * @param  hospi : OSPI handle
 469:Drivers/STM32L4xx_HAL_Driver/Src/stm32l4xx_hal_ospi.c ****   * @retval HAL status
 470:Drivers/STM32L4xx_HAL_Driver/Src/stm32l4xx_hal_ospi.c ****   */
 471:Drivers/STM32L4xx_HAL_Driver/Src/stm32l4xx_hal_ospi.c **** HAL_StatusTypeDef HAL_OSPI_DeInit(OSPI_HandleTypeDef *hospi)
 472:Drivers/STM32L4xx_HAL_Driver/Src/stm32l4xx_hal_ospi.c **** {
 292              		.loc 1 472 1
 293              		.cfi_startproc
 294              		@ args = 0, pretend = 0, frame = 16
 295              		@ frame_needed = 1, uses_anonymous_args = 0
 296 0000 80B5     		push	{r7, lr}
 297              		.cfi_def_cfa_offset 8
 298              		.cfi_offset 7, -8
 299              		.cfi_offset 14, -4
 300 0002 84B0     		sub	sp, sp, #16
 301              		.cfi_def_cfa_offset 24
 302 0004 00AF     		add	r7, sp, #0
 303              		.cfi_def_cfa_register 7
 304 0006 7860     		str	r0, [r7, #4]
 473:Drivers/STM32L4xx_HAL_Driver/Src/stm32l4xx_hal_ospi.c ****   HAL_StatusTypeDef status = HAL_OK;
 305              		.loc 1 473 21
 306 0008 0023     		movs	r3, #0
 307 000a FB73     		strb	r3, [r7, #15]
 474:Drivers/STM32L4xx_HAL_Driver/Src/stm32l4xx_hal_ospi.c **** 
 475:Drivers/STM32L4xx_HAL_Driver/Src/stm32l4xx_hal_ospi.c ****   /* Check the OSPI handle allocation */
 476:Drivers/STM32L4xx_HAL_Driver/Src/stm32l4xx_hal_ospi.c ****   if (hospi == NULL)
 308              		.loc 1 476 6
 309 000c 7B68     		ldr	r3, [r7, #4]
 310 000e 002B     		cmp	r3, #0
 311 0010 02D1     		bne	.L11
 477:Drivers/STM32L4xx_HAL_Driver/Src/stm32l4xx_hal_ospi.c ****   {
 478:Drivers/STM32L4xx_HAL_Driver/Src/stm32l4xx_hal_ospi.c ****     status = HAL_ERROR;
 312              		.loc 1 478 12
 313 0012 0123     		movs	r3, #1
 314 0014 FB73     		strb	r3, [r7, #15]
 315 0016 15E0     		b	.L12
 316              	.L11:
 479:Drivers/STM32L4xx_HAL_Driver/Src/stm32l4xx_hal_ospi.c ****     /* No error code can be set set as the handler is null */
 480:Drivers/STM32L4xx_HAL_Driver/Src/stm32l4xx_hal_ospi.c ****   }
 481:Drivers/STM32L4xx_HAL_Driver/Src/stm32l4xx_hal_ospi.c ****   else
 482:Drivers/STM32L4xx_HAL_Driver/Src/stm32l4xx_hal_ospi.c ****   {
 483:Drivers/STM32L4xx_HAL_Driver/Src/stm32l4xx_hal_ospi.c ****      /* Disable OctoSPI */
 484:Drivers/STM32L4xx_HAL_Driver/Src/stm32l4xx_hal_ospi.c ****      __HAL_OSPI_DISABLE(hospi);
ARM GAS  C:\Users\Morroway\AppData\Local\Temp\ccxQAUQ3.s 			page 15


 317              		.loc 1 484 6
 318 0018 7B68     		ldr	r3, [r7, #4]
 319 001a 1B68     		ldr	r3, [r3]
 320 001c 1A68     		ldr	r2, [r3]
 321 001e 7B68     		ldr	r3, [r7, #4]
 322 0020 1B68     		ldr	r3, [r3]
 323 0022 22F00102 		bic	r2, r2, #1
 324 0026 1A60     		str	r2, [r3]
 485:Drivers/STM32L4xx_HAL_Driver/Src/stm32l4xx_hal_ospi.c **** 
 486:Drivers/STM32L4xx_HAL_Driver/Src/stm32l4xx_hal_ospi.c ****      /* Disable free running clock if needed : must be done after OSPI disable */
 487:Drivers/STM32L4xx_HAL_Driver/Src/stm32l4xx_hal_ospi.c ****      CLEAR_BIT(hospi->Instance->DCR1, OCTOSPI_DCR1_FRCK);
 325              		.loc 1 487 6
 326 0028 7B68     		ldr	r3, [r7, #4]
 327 002a 1B68     		ldr	r3, [r3]
 328 002c 9A68     		ldr	r2, [r3, #8]
 329 002e 7B68     		ldr	r3, [r7, #4]
 330 0030 1B68     		ldr	r3, [r3]
 331 0032 22F00202 		bic	r2, r2, #2
 332 0036 9A60     		str	r2, [r3, #8]
 488:Drivers/STM32L4xx_HAL_Driver/Src/stm32l4xx_hal_ospi.c **** 
 489:Drivers/STM32L4xx_HAL_Driver/Src/stm32l4xx_hal_ospi.c **** #if defined (USE_HAL_OSPI_REGISTER_CALLBACKS) && (USE_HAL_OSPI_REGISTER_CALLBACKS == 1U)
 490:Drivers/STM32L4xx_HAL_Driver/Src/stm32l4xx_hal_ospi.c ****      if(hospi->MspDeInitCallback == NULL)
 491:Drivers/STM32L4xx_HAL_Driver/Src/stm32l4xx_hal_ospi.c ****      {
 492:Drivers/STM32L4xx_HAL_Driver/Src/stm32l4xx_hal_ospi.c ****        hospi->MspDeInitCallback = HAL_OSPI_MspDeInit;
 493:Drivers/STM32L4xx_HAL_Driver/Src/stm32l4xx_hal_ospi.c ****      }
 494:Drivers/STM32L4xx_HAL_Driver/Src/stm32l4xx_hal_ospi.c **** 
 495:Drivers/STM32L4xx_HAL_Driver/Src/stm32l4xx_hal_ospi.c ****      /* DeInit the low level hardware */
 496:Drivers/STM32L4xx_HAL_Driver/Src/stm32l4xx_hal_ospi.c ****      hospi->MspDeInitCallback(hospi);
 497:Drivers/STM32L4xx_HAL_Driver/Src/stm32l4xx_hal_ospi.c **** #else
 498:Drivers/STM32L4xx_HAL_Driver/Src/stm32l4xx_hal_ospi.c ****      /* De-initialize the low-level hardware */
 499:Drivers/STM32L4xx_HAL_Driver/Src/stm32l4xx_hal_ospi.c ****      HAL_OSPI_MspDeInit(hospi);
 333              		.loc 1 499 6
 334 0038 7868     		ldr	r0, [r7, #4]
 335 003a FFF7FEFF 		bl	HAL_OSPI_MspDeInit
 500:Drivers/STM32L4xx_HAL_Driver/Src/stm32l4xx_hal_ospi.c **** #endif /* (USE_HAL_OSPI_REGISTER_CALLBACKS) && (USE_HAL_OSPI_REGISTER_CALLBACKS == 1U) */
 501:Drivers/STM32L4xx_HAL_Driver/Src/stm32l4xx_hal_ospi.c **** 
 502:Drivers/STM32L4xx_HAL_Driver/Src/stm32l4xx_hal_ospi.c ****      /* Reset the driver state */
 503:Drivers/STM32L4xx_HAL_Driver/Src/stm32l4xx_hal_ospi.c ****      hospi->State = HAL_OSPI_STATE_RESET;
 336              		.loc 1 503 19
 337 003e 7B68     		ldr	r3, [r7, #4]
 338 0040 0022     		movs	r2, #0
 339 0042 DA64     		str	r2, [r3, #76]
 340              	.L12:
 504:Drivers/STM32L4xx_HAL_Driver/Src/stm32l4xx_hal_ospi.c ****   }
 505:Drivers/STM32L4xx_HAL_Driver/Src/stm32l4xx_hal_ospi.c **** 
 506:Drivers/STM32L4xx_HAL_Driver/Src/stm32l4xx_hal_ospi.c ****   return status;
 341              		.loc 1 506 10
 342 0044 FB7B     		ldrb	r3, [r7, #15]	@ zero_extendqisi2
 507:Drivers/STM32L4xx_HAL_Driver/Src/stm32l4xx_hal_ospi.c **** }
 343              		.loc 1 507 1
 344 0046 1846     		mov	r0, r3
 345 0048 1037     		adds	r7, r7, #16
 346              		.cfi_def_cfa_offset 8
 347 004a BD46     		mov	sp, r7
 348              		.cfi_def_cfa_register 13
 349              		@ sp needed
 350 004c 80BD     		pop	{r7, pc}
ARM GAS  C:\Users\Morroway\AppData\Local\Temp\ccxQAUQ3.s 			page 16


 351              		.cfi_endproc
 352              	.LFE323:
 354              		.section	.text.HAL_OSPI_MspDeInit,"ax",%progbits
 355              		.align	1
 356              		.weak	HAL_OSPI_MspDeInit
 357              		.syntax unified
 358              		.thumb
 359              		.thumb_func
 361              	HAL_OSPI_MspDeInit:
 362              	.LFB324:
 508:Drivers/STM32L4xx_HAL_Driver/Src/stm32l4xx_hal_ospi.c **** 
 509:Drivers/STM32L4xx_HAL_Driver/Src/stm32l4xx_hal_ospi.c **** /**
 510:Drivers/STM32L4xx_HAL_Driver/Src/stm32l4xx_hal_ospi.c ****   * @brief  DeInitialize the OSPI MSP.
 511:Drivers/STM32L4xx_HAL_Driver/Src/stm32l4xx_hal_ospi.c ****   * @param  hospi : OSPI handle
 512:Drivers/STM32L4xx_HAL_Driver/Src/stm32l4xx_hal_ospi.c ****   * @retval None
 513:Drivers/STM32L4xx_HAL_Driver/Src/stm32l4xx_hal_ospi.c ****   */
 514:Drivers/STM32L4xx_HAL_Driver/Src/stm32l4xx_hal_ospi.c **** __weak void HAL_OSPI_MspDeInit(OSPI_HandleTypeDef *hospi)
 515:Drivers/STM32L4xx_HAL_Driver/Src/stm32l4xx_hal_ospi.c **** {
 363              		.loc 1 515 1
 364              		.cfi_startproc
 365              		@ args = 0, pretend = 0, frame = 8
 366              		@ frame_needed = 1, uses_anonymous_args = 0
 367              		@ link register save eliminated.
 368 0000 80B4     		push	{r7}
 369              		.cfi_def_cfa_offset 4
 370              		.cfi_offset 7, -4
 371 0002 83B0     		sub	sp, sp, #12
 372              		.cfi_def_cfa_offset 16
 373 0004 00AF     		add	r7, sp, #0
 374              		.cfi_def_cfa_register 7
 375 0006 7860     		str	r0, [r7, #4]
 516:Drivers/STM32L4xx_HAL_Driver/Src/stm32l4xx_hal_ospi.c ****   /* Prevent unused argument(s) compilation warning */
 517:Drivers/STM32L4xx_HAL_Driver/Src/stm32l4xx_hal_ospi.c ****   UNUSED(hospi);
 518:Drivers/STM32L4xx_HAL_Driver/Src/stm32l4xx_hal_ospi.c **** 
 519:Drivers/STM32L4xx_HAL_Driver/Src/stm32l4xx_hal_ospi.c ****   /* NOTE : This function should not be modified, when the callback is needed,
 520:Drivers/STM32L4xx_HAL_Driver/Src/stm32l4xx_hal_ospi.c ****             the HAL_OSPI_MspDeInit can be implemented in the user file
 521:Drivers/STM32L4xx_HAL_Driver/Src/stm32l4xx_hal_ospi.c ****    */
 522:Drivers/STM32L4xx_HAL_Driver/Src/stm32l4xx_hal_ospi.c **** }
 376              		.loc 1 522 1
 377 0008 00BF     		nop
 378 000a 0C37     		adds	r7, r7, #12
 379              		.cfi_def_cfa_offset 4
 380 000c BD46     		mov	sp, r7
 381              		.cfi_def_cfa_register 13
 382              		@ sp needed
 383 000e 5DF8047B 		ldr	r7, [sp], #4
 384              		.cfi_restore 7
 385              		.cfi_def_cfa_offset 0
 386 0012 7047     		bx	lr
 387              		.cfi_endproc
 388              	.LFE324:
 390              		.section	.text.HAL_OSPI_IRQHandler,"ax",%progbits
 391              		.align	1
 392              		.global	HAL_OSPI_IRQHandler
 393              		.syntax unified
 394              		.thumb
 395              		.thumb_func
ARM GAS  C:\Users\Morroway\AppData\Local\Temp\ccxQAUQ3.s 			page 17


 397              	HAL_OSPI_IRQHandler:
 398              	.LFB325:
 523:Drivers/STM32L4xx_HAL_Driver/Src/stm32l4xx_hal_ospi.c **** 
 524:Drivers/STM32L4xx_HAL_Driver/Src/stm32l4xx_hal_ospi.c **** /**
 525:Drivers/STM32L4xx_HAL_Driver/Src/stm32l4xx_hal_ospi.c ****   * @}
 526:Drivers/STM32L4xx_HAL_Driver/Src/stm32l4xx_hal_ospi.c ****   */
 527:Drivers/STM32L4xx_HAL_Driver/Src/stm32l4xx_hal_ospi.c **** 
 528:Drivers/STM32L4xx_HAL_Driver/Src/stm32l4xx_hal_ospi.c **** /** @defgroup OSPI_Exported_Functions_Group2 Input and Output operation functions
 529:Drivers/STM32L4xx_HAL_Driver/Src/stm32l4xx_hal_ospi.c ****   *  @brief OSPI Transmit/Receive functions
 530:Drivers/STM32L4xx_HAL_Driver/Src/stm32l4xx_hal_ospi.c ****   *
 531:Drivers/STM32L4xx_HAL_Driver/Src/stm32l4xx_hal_ospi.c **** @verbatim
 532:Drivers/STM32L4xx_HAL_Driver/Src/stm32l4xx_hal_ospi.c ****  ===============================================================================
 533:Drivers/STM32L4xx_HAL_Driver/Src/stm32l4xx_hal_ospi.c ****                       ##### IO operation functions #####
 534:Drivers/STM32L4xx_HAL_Driver/Src/stm32l4xx_hal_ospi.c ****  ===============================================================================
 535:Drivers/STM32L4xx_HAL_Driver/Src/stm32l4xx_hal_ospi.c ****     [..]
 536:Drivers/STM32L4xx_HAL_Driver/Src/stm32l4xx_hal_ospi.c ****     This subsection provides a set of functions allowing to :
 537:Drivers/STM32L4xx_HAL_Driver/Src/stm32l4xx_hal_ospi.c ****       (+) Handle the interrupts.
 538:Drivers/STM32L4xx_HAL_Driver/Src/stm32l4xx_hal_ospi.c ****       (+) Handle the command sequence (regular and Hyperbus).
 539:Drivers/STM32L4xx_HAL_Driver/Src/stm32l4xx_hal_ospi.c ****       (+) Handle the Hyperbus configuration.
 540:Drivers/STM32L4xx_HAL_Driver/Src/stm32l4xx_hal_ospi.c ****       (+) Transmit data in blocking, interrupt or DMA mode.
 541:Drivers/STM32L4xx_HAL_Driver/Src/stm32l4xx_hal_ospi.c ****       (+) Receive data in blocking, interrupt or DMA mode.
 542:Drivers/STM32L4xx_HAL_Driver/Src/stm32l4xx_hal_ospi.c ****       (+) Manage the auto-polling functional mode.
 543:Drivers/STM32L4xx_HAL_Driver/Src/stm32l4xx_hal_ospi.c ****       (+) Manage the memory-mapped functional mode.
 544:Drivers/STM32L4xx_HAL_Driver/Src/stm32l4xx_hal_ospi.c **** 
 545:Drivers/STM32L4xx_HAL_Driver/Src/stm32l4xx_hal_ospi.c **** @endverbatim
 546:Drivers/STM32L4xx_HAL_Driver/Src/stm32l4xx_hal_ospi.c ****   * @{
 547:Drivers/STM32L4xx_HAL_Driver/Src/stm32l4xx_hal_ospi.c ****   */
 548:Drivers/STM32L4xx_HAL_Driver/Src/stm32l4xx_hal_ospi.c **** 
 549:Drivers/STM32L4xx_HAL_Driver/Src/stm32l4xx_hal_ospi.c **** /**
 550:Drivers/STM32L4xx_HAL_Driver/Src/stm32l4xx_hal_ospi.c ****   * @brief  Handle OSPI interrupt request.
 551:Drivers/STM32L4xx_HAL_Driver/Src/stm32l4xx_hal_ospi.c ****   * @param  hospi : OSPI handle
 552:Drivers/STM32L4xx_HAL_Driver/Src/stm32l4xx_hal_ospi.c ****   * @retval None
 553:Drivers/STM32L4xx_HAL_Driver/Src/stm32l4xx_hal_ospi.c ****   */
 554:Drivers/STM32L4xx_HAL_Driver/Src/stm32l4xx_hal_ospi.c **** void HAL_OSPI_IRQHandler(OSPI_HandleTypeDef *hospi)
 555:Drivers/STM32L4xx_HAL_Driver/Src/stm32l4xx_hal_ospi.c **** {
 399              		.loc 1 555 1
 400              		.cfi_startproc
 401              		@ args = 0, pretend = 0, frame = 24
 402              		@ frame_needed = 1, uses_anonymous_args = 0
 403 0000 80B5     		push	{r7, lr}
 404              		.cfi_def_cfa_offset 8
 405              		.cfi_offset 7, -8
 406              		.cfi_offset 14, -4
 407 0002 86B0     		sub	sp, sp, #24
 408              		.cfi_def_cfa_offset 32
 409 0004 00AF     		add	r7, sp, #0
 410              		.cfi_def_cfa_register 7
 411 0006 7860     		str	r0, [r7, #4]
 556:Drivers/STM32L4xx_HAL_Driver/Src/stm32l4xx_hal_ospi.c ****   __IO uint32_t *data_reg = &hospi->Instance->DR;
 412              		.loc 1 556 35
 413 0008 7B68     		ldr	r3, [r7, #4]
 414 000a 1B68     		ldr	r3, [r3]
 415              		.loc 1 556 18
 416 000c 5033     		adds	r3, r3, #80
 417 000e 7B61     		str	r3, [r7, #20]
 557:Drivers/STM32L4xx_HAL_Driver/Src/stm32l4xx_hal_ospi.c ****   uint32_t flag           = hospi->Instance->SR;
 418              		.loc 1 557 34
ARM GAS  C:\Users\Morroway\AppData\Local\Temp\ccxQAUQ3.s 			page 18


 419 0010 7B68     		ldr	r3, [r7, #4]
 420 0012 1B68     		ldr	r3, [r3]
 421              		.loc 1 557 12
 422 0014 1B6A     		ldr	r3, [r3, #32]
 423 0016 3B61     		str	r3, [r7, #16]
 558:Drivers/STM32L4xx_HAL_Driver/Src/stm32l4xx_hal_ospi.c ****   uint32_t itsource       = hospi->Instance->CR;
 424              		.loc 1 558 34
 425 0018 7B68     		ldr	r3, [r7, #4]
 426 001a 1B68     		ldr	r3, [r3]
 427              		.loc 1 558 12
 428 001c 1B68     		ldr	r3, [r3]
 429 001e FB60     		str	r3, [r7, #12]
 559:Drivers/STM32L4xx_HAL_Driver/Src/stm32l4xx_hal_ospi.c ****   uint32_t currentstate   = hospi->State;
 430              		.loc 1 559 12
 431 0020 7B68     		ldr	r3, [r7, #4]
 432 0022 DB6C     		ldr	r3, [r3, #76]
 433 0024 BB60     		str	r3, [r7, #8]
 560:Drivers/STM32L4xx_HAL_Driver/Src/stm32l4xx_hal_ospi.c **** 
 561:Drivers/STM32L4xx_HAL_Driver/Src/stm32l4xx_hal_ospi.c ****   /* OctoSPI fifo threshold interrupt occurred -------------------------------*/
 562:Drivers/STM32L4xx_HAL_Driver/Src/stm32l4xx_hal_ospi.c ****   if (((flag & HAL_OSPI_FLAG_FT) != 0U) && ((itsource & HAL_OSPI_IT_FT) != 0U))
 434              		.loc 1 562 14
 435 0026 3B69     		ldr	r3, [r7, #16]
 436 0028 03F00403 		and	r3, r3, #4
 437              		.loc 1 562 6
 438 002c 002B     		cmp	r3, #0
 439 002e 3AD0     		beq	.L16
 440              		.loc 1 562 55 discriminator 1
 441 0030 FB68     		ldr	r3, [r7, #12]
 442 0032 03F48023 		and	r3, r3, #262144
 443              		.loc 1 562 41 discriminator 1
 444 0036 002B     		cmp	r3, #0
 445 0038 35D0     		beq	.L16
 563:Drivers/STM32L4xx_HAL_Driver/Src/stm32l4xx_hal_ospi.c ****   {
 564:Drivers/STM32L4xx_HAL_Driver/Src/stm32l4xx_hal_ospi.c ****     if (currentstate == HAL_OSPI_STATE_BUSY_TX)
 446              		.loc 1 564 8
 447 003a BB68     		ldr	r3, [r7, #8]
 448 003c 182B     		cmp	r3, #24
 449 003e 0FD1     		bne	.L17
 565:Drivers/STM32L4xx_HAL_Driver/Src/stm32l4xx_hal_ospi.c ****     {
 566:Drivers/STM32L4xx_HAL_Driver/Src/stm32l4xx_hal_ospi.c ****       /* Write a data in the fifo */
 567:Drivers/STM32L4xx_HAL_Driver/Src/stm32l4xx_hal_ospi.c ****       *((__IO uint8_t *)data_reg) = *hospi->pBuffPtr;
 450              		.loc 1 567 43
 451 0040 7B68     		ldr	r3, [r7, #4]
 452 0042 DB6B     		ldr	r3, [r3, #60]
 453              		.loc 1 567 37
 454 0044 1A78     		ldrb	r2, [r3]	@ zero_extendqisi2
 455              		.loc 1 567 35
 456 0046 7B69     		ldr	r3, [r7, #20]
 457 0048 1A70     		strb	r2, [r3]
 568:Drivers/STM32L4xx_HAL_Driver/Src/stm32l4xx_hal_ospi.c ****       hospi->pBuffPtr++;
 458              		.loc 1 568 12
 459 004a 7B68     		ldr	r3, [r7, #4]
 460 004c DB6B     		ldr	r3, [r3, #60]
 461              		.loc 1 568 22
 462 004e 5A1C     		adds	r2, r3, #1
 463 0050 7B68     		ldr	r3, [r7, #4]
 464 0052 DA63     		str	r2, [r3, #60]
ARM GAS  C:\Users\Morroway\AppData\Local\Temp\ccxQAUQ3.s 			page 19


 569:Drivers/STM32L4xx_HAL_Driver/Src/stm32l4xx_hal_ospi.c ****       hospi->XferCount--;
 465              		.loc 1 569 12
 466 0054 7B68     		ldr	r3, [r7, #4]
 467 0056 5B6C     		ldr	r3, [r3, #68]
 468              		.loc 1 569 23
 469 0058 5A1E     		subs	r2, r3, #1
 470 005a 7B68     		ldr	r3, [r7, #4]
 471 005c 5A64     		str	r2, [r3, #68]
 472 005e 12E0     		b	.L18
 473              	.L17:
 570:Drivers/STM32L4xx_HAL_Driver/Src/stm32l4xx_hal_ospi.c ****     }
 571:Drivers/STM32L4xx_HAL_Driver/Src/stm32l4xx_hal_ospi.c ****     else if (currentstate == HAL_OSPI_STATE_BUSY_RX)
 474              		.loc 1 571 13
 475 0060 BB68     		ldr	r3, [r7, #8]
 476 0062 282B     		cmp	r3, #40
 477 0064 0FD1     		bne	.L18
 572:Drivers/STM32L4xx_HAL_Driver/Src/stm32l4xx_hal_ospi.c ****     {
 573:Drivers/STM32L4xx_HAL_Driver/Src/stm32l4xx_hal_ospi.c ****       /* Read a data from the fifo */
 574:Drivers/STM32L4xx_HAL_Driver/Src/stm32l4xx_hal_ospi.c ****       *hospi->pBuffPtr = *((__IO uint8_t *)data_reg);
 478              		.loc 1 574 13
 479 0066 7B68     		ldr	r3, [r7, #4]
 480 0068 DB6B     		ldr	r3, [r3, #60]
 481              		.loc 1 574 26
 482 006a 7A69     		ldr	r2, [r7, #20]
 483 006c 1278     		ldrb	r2, [r2]
 484 006e D2B2     		uxtb	r2, r2
 485              		.loc 1 574 24
 486 0070 1A70     		strb	r2, [r3]
 575:Drivers/STM32L4xx_HAL_Driver/Src/stm32l4xx_hal_ospi.c ****       hospi->pBuffPtr++;
 487              		.loc 1 575 12
 488 0072 7B68     		ldr	r3, [r7, #4]
 489 0074 DB6B     		ldr	r3, [r3, #60]
 490              		.loc 1 575 22
 491 0076 5A1C     		adds	r2, r3, #1
 492 0078 7B68     		ldr	r3, [r7, #4]
 493 007a DA63     		str	r2, [r3, #60]
 576:Drivers/STM32L4xx_HAL_Driver/Src/stm32l4xx_hal_ospi.c ****       hospi->XferCount--;
 494              		.loc 1 576 12
 495 007c 7B68     		ldr	r3, [r7, #4]
 496 007e 5B6C     		ldr	r3, [r3, #68]
 497              		.loc 1 576 23
 498 0080 5A1E     		subs	r2, r3, #1
 499 0082 7B68     		ldr	r3, [r7, #4]
 500 0084 5A64     		str	r2, [r3, #68]
 501              	.L18:
 577:Drivers/STM32L4xx_HAL_Driver/Src/stm32l4xx_hal_ospi.c ****     }
 578:Drivers/STM32L4xx_HAL_Driver/Src/stm32l4xx_hal_ospi.c ****     else
 579:Drivers/STM32L4xx_HAL_Driver/Src/stm32l4xx_hal_ospi.c ****     {
 580:Drivers/STM32L4xx_HAL_Driver/Src/stm32l4xx_hal_ospi.c ****       /* Nothing to do */
 581:Drivers/STM32L4xx_HAL_Driver/Src/stm32l4xx_hal_ospi.c ****     }
 582:Drivers/STM32L4xx_HAL_Driver/Src/stm32l4xx_hal_ospi.c **** 
 583:Drivers/STM32L4xx_HAL_Driver/Src/stm32l4xx_hal_ospi.c ****     if (hospi->XferCount == 0U)
 502              		.loc 1 583 14
 503 0086 7B68     		ldr	r3, [r7, #4]
 504 0088 5B6C     		ldr	r3, [r3, #68]
 505              		.loc 1 583 8
 506 008a 002B     		cmp	r3, #0
ARM GAS  C:\Users\Morroway\AppData\Local\Temp\ccxQAUQ3.s 			page 20


 507 008c 07D1     		bne	.L19
 584:Drivers/STM32L4xx_HAL_Driver/Src/stm32l4xx_hal_ospi.c ****     {
 585:Drivers/STM32L4xx_HAL_Driver/Src/stm32l4xx_hal_ospi.c ****       /* All data have been received or transmitted for the transfer */
 586:Drivers/STM32L4xx_HAL_Driver/Src/stm32l4xx_hal_ospi.c ****       /* Disable fifo threshold interrupt */
 587:Drivers/STM32L4xx_HAL_Driver/Src/stm32l4xx_hal_ospi.c ****       __HAL_OSPI_DISABLE_IT(hospi, HAL_OSPI_IT_FT);
 508              		.loc 1 587 7
 509 008e 7B68     		ldr	r3, [r7, #4]
 510 0090 1B68     		ldr	r3, [r3]
 511 0092 1A68     		ldr	r2, [r3]
 512 0094 7B68     		ldr	r3, [r7, #4]
 513 0096 1B68     		ldr	r3, [r3]
 514 0098 22F48022 		bic	r2, r2, #262144
 515 009c 1A60     		str	r2, [r3]
 516              	.L19:
 588:Drivers/STM32L4xx_HAL_Driver/Src/stm32l4xx_hal_ospi.c ****     }
 589:Drivers/STM32L4xx_HAL_Driver/Src/stm32l4xx_hal_ospi.c **** 
 590:Drivers/STM32L4xx_HAL_Driver/Src/stm32l4xx_hal_ospi.c ****     /* Fifo threshold callback */
 591:Drivers/STM32L4xx_HAL_Driver/Src/stm32l4xx_hal_ospi.c **** #if defined (USE_HAL_OSPI_REGISTER_CALLBACKS) && (USE_HAL_OSPI_REGISTER_CALLBACKS == 1U)
 592:Drivers/STM32L4xx_HAL_Driver/Src/stm32l4xx_hal_ospi.c ****     hospi->FifoThresholdCallback(hospi);
 593:Drivers/STM32L4xx_HAL_Driver/Src/stm32l4xx_hal_ospi.c **** #else
 594:Drivers/STM32L4xx_HAL_Driver/Src/stm32l4xx_hal_ospi.c ****     HAL_OSPI_FifoThresholdCallback(hospi);
 517              		.loc 1 594 5
 518 009e 7868     		ldr	r0, [r7, #4]
 519 00a0 FFF7FEFF 		bl	HAL_OSPI_FifoThresholdCallback
 520 00a4 E7E0     		b	.L20
 521              	.L16:
 595:Drivers/STM32L4xx_HAL_Driver/Src/stm32l4xx_hal_ospi.c **** #endif /* (USE_HAL_OSPI_REGISTER_CALLBACKS) && (USE_HAL_OSPI_REGISTER_CALLBACKS == 1U)*/
 596:Drivers/STM32L4xx_HAL_Driver/Src/stm32l4xx_hal_ospi.c ****   }
 597:Drivers/STM32L4xx_HAL_Driver/Src/stm32l4xx_hal_ospi.c ****   /* OctoSPI transfer complete interrupt occurred ----------------------------*/
 598:Drivers/STM32L4xx_HAL_Driver/Src/stm32l4xx_hal_ospi.c ****   else if (((flag & HAL_OSPI_FLAG_TC) != 0U) && ((itsource & HAL_OSPI_IT_TC) != 0U))
 522              		.loc 1 598 19
 523 00a6 3B69     		ldr	r3, [r7, #16]
 524 00a8 03F00203 		and	r3, r3, #2
 525              		.loc 1 598 11
 526 00ac 002B     		cmp	r3, #0
 527 00ae 67D0     		beq	.L21
 528              		.loc 1 598 60 discriminator 1
 529 00b0 FB68     		ldr	r3, [r7, #12]
 530 00b2 03F40033 		and	r3, r3, #131072
 531              		.loc 1 598 46 discriminator 1
 532 00b6 002B     		cmp	r3, #0
 533 00b8 62D0     		beq	.L21
 599:Drivers/STM32L4xx_HAL_Driver/Src/stm32l4xx_hal_ospi.c ****   {
 600:Drivers/STM32L4xx_HAL_Driver/Src/stm32l4xx_hal_ospi.c ****     if (currentstate == HAL_OSPI_STATE_BUSY_RX)
 534              		.loc 1 600 8
 535 00ba BB68     		ldr	r3, [r7, #8]
 536 00bc 282B     		cmp	r3, #40
 537 00be 31D1     		bne	.L22
 601:Drivers/STM32L4xx_HAL_Driver/Src/stm32l4xx_hal_ospi.c ****     {
 602:Drivers/STM32L4xx_HAL_Driver/Src/stm32l4xx_hal_ospi.c ****       if ((hospi->XferCount > 0U) && ((flag & OCTOSPI_SR_FLEVEL) != 0U))
 538              		.loc 1 602 17
 539 00c0 7B68     		ldr	r3, [r7, #4]
 540 00c2 5B6C     		ldr	r3, [r3, #68]
 541              		.loc 1 602 10
 542 00c4 002B     		cmp	r3, #0
 543 00c6 15D0     		beq	.L23
 544              		.loc 1 602 45 discriminator 1
ARM GAS  C:\Users\Morroway\AppData\Local\Temp\ccxQAUQ3.s 			page 21


 545 00c8 3B69     		ldr	r3, [r7, #16]
 546 00ca 03F47C53 		and	r3, r3, #16128
 547              		.loc 1 602 35 discriminator 1
 548 00ce 002B     		cmp	r3, #0
 549 00d0 10D0     		beq	.L23
 603:Drivers/STM32L4xx_HAL_Driver/Src/stm32l4xx_hal_ospi.c ****       {
 604:Drivers/STM32L4xx_HAL_Driver/Src/stm32l4xx_hal_ospi.c ****         /* Read the last data received in the fifo */
 605:Drivers/STM32L4xx_HAL_Driver/Src/stm32l4xx_hal_ospi.c ****         *hospi->pBuffPtr = *((__IO uint8_t *)data_reg);
 550              		.loc 1 605 15
 551 00d2 7B68     		ldr	r3, [r7, #4]
 552 00d4 DB6B     		ldr	r3, [r3, #60]
 553              		.loc 1 605 28
 554 00d6 7A69     		ldr	r2, [r7, #20]
 555 00d8 1278     		ldrb	r2, [r2]
 556 00da D2B2     		uxtb	r2, r2
 557              		.loc 1 605 26
 558 00dc 1A70     		strb	r2, [r3]
 606:Drivers/STM32L4xx_HAL_Driver/Src/stm32l4xx_hal_ospi.c ****         hospi->pBuffPtr++;
 559              		.loc 1 606 14
 560 00de 7B68     		ldr	r3, [r7, #4]
 561 00e0 DB6B     		ldr	r3, [r3, #60]
 562              		.loc 1 606 24
 563 00e2 5A1C     		adds	r2, r3, #1
 564 00e4 7B68     		ldr	r3, [r7, #4]
 565 00e6 DA63     		str	r2, [r3, #60]
 607:Drivers/STM32L4xx_HAL_Driver/Src/stm32l4xx_hal_ospi.c ****         hospi->XferCount--;
 566              		.loc 1 607 14
 567 00e8 7B68     		ldr	r3, [r7, #4]
 568 00ea 5B6C     		ldr	r3, [r3, #68]
 569              		.loc 1 607 25
 570 00ec 5A1E     		subs	r2, r3, #1
 571 00ee 7B68     		ldr	r3, [r7, #4]
 572 00f0 5A64     		str	r2, [r3, #68]
 600:Drivers/STM32L4xx_HAL_Driver/Src/stm32l4xx_hal_ospi.c ****     {
 573              		.loc 1 600 8
 574 00f2 BDE0     		b	.L34
 575              	.L23:
 608:Drivers/STM32L4xx_HAL_Driver/Src/stm32l4xx_hal_ospi.c ****       }
 609:Drivers/STM32L4xx_HAL_Driver/Src/stm32l4xx_hal_ospi.c ****       else if(hospi->XferCount == 0U)
 576              		.loc 1 609 20
 577 00f4 7B68     		ldr	r3, [r7, #4]
 578 00f6 5B6C     		ldr	r3, [r3, #68]
 579              		.loc 1 609 14
 580 00f8 002B     		cmp	r3, #0
 581 00fa 40F0B980 		bne	.L34
 610:Drivers/STM32L4xx_HAL_Driver/Src/stm32l4xx_hal_ospi.c ****       {
 611:Drivers/STM32L4xx_HAL_Driver/Src/stm32l4xx_hal_ospi.c ****         /* Clear flag */
 612:Drivers/STM32L4xx_HAL_Driver/Src/stm32l4xx_hal_ospi.c ****         hospi->Instance->FCR = HAL_OSPI_FLAG_TC;
 582              		.loc 1 612 14
 583 00fe 7B68     		ldr	r3, [r7, #4]
 584 0100 1B68     		ldr	r3, [r3]
 585              		.loc 1 612 30
 586 0102 0222     		movs	r2, #2
 587 0104 5A62     		str	r2, [r3, #36]
 613:Drivers/STM32L4xx_HAL_Driver/Src/stm32l4xx_hal_ospi.c **** 
 614:Drivers/STM32L4xx_HAL_Driver/Src/stm32l4xx_hal_ospi.c ****         /* Disable the interrupts */
 615:Drivers/STM32L4xx_HAL_Driver/Src/stm32l4xx_hal_ospi.c ****         __HAL_OSPI_DISABLE_IT(hospi, HAL_OSPI_IT_TC | HAL_OSPI_IT_FT | HAL_OSPI_IT_TE);
ARM GAS  C:\Users\Morroway\AppData\Local\Temp\ccxQAUQ3.s 			page 22


 588              		.loc 1 615 9
 589 0106 7B68     		ldr	r3, [r7, #4]
 590 0108 1B68     		ldr	r3, [r3]
 591 010a 1A68     		ldr	r2, [r3]
 592 010c 7B68     		ldr	r3, [r7, #4]
 593 010e 1B68     		ldr	r3, [r3]
 594 0110 22F4E022 		bic	r2, r2, #458752
 595 0114 1A60     		str	r2, [r3]
 616:Drivers/STM32L4xx_HAL_Driver/Src/stm32l4xx_hal_ospi.c **** 
 617:Drivers/STM32L4xx_HAL_Driver/Src/stm32l4xx_hal_ospi.c ****         /* Update state */
 618:Drivers/STM32L4xx_HAL_Driver/Src/stm32l4xx_hal_ospi.c ****         hospi->State = HAL_OSPI_STATE_READY;
 596              		.loc 1 618 22
 597 0116 7B68     		ldr	r3, [r7, #4]
 598 0118 0222     		movs	r2, #2
 599 011a DA64     		str	r2, [r3, #76]
 619:Drivers/STM32L4xx_HAL_Driver/Src/stm32l4xx_hal_ospi.c **** 
 620:Drivers/STM32L4xx_HAL_Driver/Src/stm32l4xx_hal_ospi.c ****         /* RX complete callback */
 621:Drivers/STM32L4xx_HAL_Driver/Src/stm32l4xx_hal_ospi.c **** #if defined (USE_HAL_OSPI_REGISTER_CALLBACKS) && (USE_HAL_OSPI_REGISTER_CALLBACKS == 1U)
 622:Drivers/STM32L4xx_HAL_Driver/Src/stm32l4xx_hal_ospi.c ****         hospi->RxCpltCallback(hospi);
 623:Drivers/STM32L4xx_HAL_Driver/Src/stm32l4xx_hal_ospi.c **** #else
 624:Drivers/STM32L4xx_HAL_Driver/Src/stm32l4xx_hal_ospi.c ****         HAL_OSPI_RxCpltCallback(hospi);
 600              		.loc 1 624 9
 601 011c 7868     		ldr	r0, [r7, #4]
 602 011e FFF7FEFF 		bl	HAL_OSPI_RxCpltCallback
 600:Drivers/STM32L4xx_HAL_Driver/Src/stm32l4xx_hal_ospi.c ****     {
 603              		.loc 1 600 8
 604 0122 A5E0     		b	.L34
 605              	.L22:
 625:Drivers/STM32L4xx_HAL_Driver/Src/stm32l4xx_hal_ospi.c **** #endif /* (USE_HAL_OSPI_REGISTER_CALLBACKS) && (USE_HAL_OSPI_REGISTER_CALLBACKS == 1U) */
 626:Drivers/STM32L4xx_HAL_Driver/Src/stm32l4xx_hal_ospi.c ****       }
 627:Drivers/STM32L4xx_HAL_Driver/Src/stm32l4xx_hal_ospi.c ****       else
 628:Drivers/STM32L4xx_HAL_Driver/Src/stm32l4xx_hal_ospi.c ****       {
 629:Drivers/STM32L4xx_HAL_Driver/Src/stm32l4xx_hal_ospi.c ****         /* Nothing to do */
 630:Drivers/STM32L4xx_HAL_Driver/Src/stm32l4xx_hal_ospi.c ****       }
 631:Drivers/STM32L4xx_HAL_Driver/Src/stm32l4xx_hal_ospi.c ****     }
 632:Drivers/STM32L4xx_HAL_Driver/Src/stm32l4xx_hal_ospi.c ****     else
 633:Drivers/STM32L4xx_HAL_Driver/Src/stm32l4xx_hal_ospi.c ****     {
 634:Drivers/STM32L4xx_HAL_Driver/Src/stm32l4xx_hal_ospi.c ****       /* Clear flag */
 635:Drivers/STM32L4xx_HAL_Driver/Src/stm32l4xx_hal_ospi.c ****       hospi->Instance->FCR = HAL_OSPI_FLAG_TC;
 606              		.loc 1 635 12
 607 0124 7B68     		ldr	r3, [r7, #4]
 608 0126 1B68     		ldr	r3, [r3]
 609              		.loc 1 635 28
 610 0128 0222     		movs	r2, #2
 611 012a 5A62     		str	r2, [r3, #36]
 636:Drivers/STM32L4xx_HAL_Driver/Src/stm32l4xx_hal_ospi.c **** 
 637:Drivers/STM32L4xx_HAL_Driver/Src/stm32l4xx_hal_ospi.c ****       /* Disable the interrupts */
 638:Drivers/STM32L4xx_HAL_Driver/Src/stm32l4xx_hal_ospi.c ****       __HAL_OSPI_DISABLE_IT(hospi, HAL_OSPI_IT_TC | HAL_OSPI_IT_FT | HAL_OSPI_IT_TE);
 612              		.loc 1 638 7
 613 012c 7B68     		ldr	r3, [r7, #4]
 614 012e 1B68     		ldr	r3, [r3]
 615 0130 1A68     		ldr	r2, [r3]
 616 0132 7B68     		ldr	r3, [r7, #4]
 617 0134 1B68     		ldr	r3, [r3]
 618 0136 22F4E022 		bic	r2, r2, #458752
 619 013a 1A60     		str	r2, [r3]
 639:Drivers/STM32L4xx_HAL_Driver/Src/stm32l4xx_hal_ospi.c **** 
ARM GAS  C:\Users\Morroway\AppData\Local\Temp\ccxQAUQ3.s 			page 23


 640:Drivers/STM32L4xx_HAL_Driver/Src/stm32l4xx_hal_ospi.c ****       /* Update state */
 641:Drivers/STM32L4xx_HAL_Driver/Src/stm32l4xx_hal_ospi.c ****       hospi->State = HAL_OSPI_STATE_READY;
 620              		.loc 1 641 20
 621 013c 7B68     		ldr	r3, [r7, #4]
 622 013e 0222     		movs	r2, #2
 623 0140 DA64     		str	r2, [r3, #76]
 642:Drivers/STM32L4xx_HAL_Driver/Src/stm32l4xx_hal_ospi.c **** 
 643:Drivers/STM32L4xx_HAL_Driver/Src/stm32l4xx_hal_ospi.c ****       if (currentstate == HAL_OSPI_STATE_BUSY_TX)
 624              		.loc 1 643 10
 625 0142 BB68     		ldr	r3, [r7, #8]
 626 0144 182B     		cmp	r3, #24
 627 0146 03D1     		bne	.L26
 644:Drivers/STM32L4xx_HAL_Driver/Src/stm32l4xx_hal_ospi.c ****       {
 645:Drivers/STM32L4xx_HAL_Driver/Src/stm32l4xx_hal_ospi.c ****         /* TX complete callback */
 646:Drivers/STM32L4xx_HAL_Driver/Src/stm32l4xx_hal_ospi.c **** #if defined (USE_HAL_OSPI_REGISTER_CALLBACKS) && (USE_HAL_OSPI_REGISTER_CALLBACKS == 1U)
 647:Drivers/STM32L4xx_HAL_Driver/Src/stm32l4xx_hal_ospi.c ****         hospi->TxCpltCallback(hospi);
 648:Drivers/STM32L4xx_HAL_Driver/Src/stm32l4xx_hal_ospi.c **** #else
 649:Drivers/STM32L4xx_HAL_Driver/Src/stm32l4xx_hal_ospi.c ****         HAL_OSPI_TxCpltCallback(hospi);
 628              		.loc 1 649 9
 629 0148 7868     		ldr	r0, [r7, #4]
 630 014a FFF7FEFF 		bl	HAL_OSPI_TxCpltCallback
 600:Drivers/STM32L4xx_HAL_Driver/Src/stm32l4xx_hal_ospi.c ****     {
 631              		.loc 1 600 8
 632 014e 8FE0     		b	.L34
 633              	.L26:
 650:Drivers/STM32L4xx_HAL_Driver/Src/stm32l4xx_hal_ospi.c **** #endif /* defined (USE_HAL_OSPI_REGISTER_CALLBACKS) && (USE_HAL_OSPI_REGISTER_CALLBACKS == 1U) */
 651:Drivers/STM32L4xx_HAL_Driver/Src/stm32l4xx_hal_ospi.c ****       }
 652:Drivers/STM32L4xx_HAL_Driver/Src/stm32l4xx_hal_ospi.c ****       else if (currentstate == HAL_OSPI_STATE_BUSY_CMD)
 634              		.loc 1 652 15
 635 0150 BB68     		ldr	r3, [r7, #8]
 636 0152 082B     		cmp	r3, #8
 637 0154 03D1     		bne	.L27
 653:Drivers/STM32L4xx_HAL_Driver/Src/stm32l4xx_hal_ospi.c ****       {
 654:Drivers/STM32L4xx_HAL_Driver/Src/stm32l4xx_hal_ospi.c ****         /* Command complete callback */
 655:Drivers/STM32L4xx_HAL_Driver/Src/stm32l4xx_hal_ospi.c **** #if defined (USE_HAL_OSPI_REGISTER_CALLBACKS) && (USE_HAL_OSPI_REGISTER_CALLBACKS == 1U)
 656:Drivers/STM32L4xx_HAL_Driver/Src/stm32l4xx_hal_ospi.c ****         hospi->CmdCpltCallback(hospi);
 657:Drivers/STM32L4xx_HAL_Driver/Src/stm32l4xx_hal_ospi.c **** #else
 658:Drivers/STM32L4xx_HAL_Driver/Src/stm32l4xx_hal_ospi.c ****         HAL_OSPI_CmdCpltCallback(hospi);
 638              		.loc 1 658 9
 639 0156 7868     		ldr	r0, [r7, #4]
 640 0158 FFF7FEFF 		bl	HAL_OSPI_CmdCpltCallback
 600:Drivers/STM32L4xx_HAL_Driver/Src/stm32l4xx_hal_ospi.c ****     {
 641              		.loc 1 600 8
 642 015c 88E0     		b	.L34
 643              	.L27:
 659:Drivers/STM32L4xx_HAL_Driver/Src/stm32l4xx_hal_ospi.c **** #endif /* (USE_HAL_OSPI_REGISTER_CALLBACKS) && (USE_HAL_OSPI_REGISTER_CALLBACKS == 1U) */
 660:Drivers/STM32L4xx_HAL_Driver/Src/stm32l4xx_hal_ospi.c ****       }
 661:Drivers/STM32L4xx_HAL_Driver/Src/stm32l4xx_hal_ospi.c ****       else if (currentstate == HAL_OSPI_STATE_ABORT)
 644              		.loc 1 661 15
 645 015e BB68     		ldr	r3, [r7, #8]
 646 0160 B3F5807F 		cmp	r3, #256
 647 0164 40F08480 		bne	.L34
 662:Drivers/STM32L4xx_HAL_Driver/Src/stm32l4xx_hal_ospi.c ****       {
 663:Drivers/STM32L4xx_HAL_Driver/Src/stm32l4xx_hal_ospi.c ****         if (hospi->ErrorCode == HAL_OSPI_ERROR_NONE)
 648              		.loc 1 663 18
 649 0168 7B68     		ldr	r3, [r7, #4]
 650 016a 1B6D     		ldr	r3, [r3, #80]
ARM GAS  C:\Users\Morroway\AppData\Local\Temp\ccxQAUQ3.s 			page 24


 651              		.loc 1 663 12
 652 016c 002B     		cmp	r3, #0
 653 016e 03D1     		bne	.L28
 664:Drivers/STM32L4xx_HAL_Driver/Src/stm32l4xx_hal_ospi.c ****         {
 665:Drivers/STM32L4xx_HAL_Driver/Src/stm32l4xx_hal_ospi.c ****           /* Abort called by the user */
 666:Drivers/STM32L4xx_HAL_Driver/Src/stm32l4xx_hal_ospi.c ****           /* Abort complete callback */
 667:Drivers/STM32L4xx_HAL_Driver/Src/stm32l4xx_hal_ospi.c **** #if defined (USE_HAL_OSPI_REGISTER_CALLBACKS) && (USE_HAL_OSPI_REGISTER_CALLBACKS == 1U)
 668:Drivers/STM32L4xx_HAL_Driver/Src/stm32l4xx_hal_ospi.c ****           hospi->AbortCpltCallback(hospi);
 669:Drivers/STM32L4xx_HAL_Driver/Src/stm32l4xx_hal_ospi.c **** #else
 670:Drivers/STM32L4xx_HAL_Driver/Src/stm32l4xx_hal_ospi.c ****           HAL_OSPI_AbortCpltCallback(hospi);
 654              		.loc 1 670 11
 655 0170 7868     		ldr	r0, [r7, #4]
 656 0172 FFF7FEFF 		bl	HAL_OSPI_AbortCpltCallback
 600:Drivers/STM32L4xx_HAL_Driver/Src/stm32l4xx_hal_ospi.c ****     {
 657              		.loc 1 600 8
 658 0176 7BE0     		b	.L34
 659              	.L28:
 671:Drivers/STM32L4xx_HAL_Driver/Src/stm32l4xx_hal_ospi.c **** #endif /* defined (USE_HAL_OSPI_REGISTER_CALLBACKS) && (USE_HAL_OSPI_REGISTER_CALLBACKS == 1U)*/
 672:Drivers/STM32L4xx_HAL_Driver/Src/stm32l4xx_hal_ospi.c ****         }
 673:Drivers/STM32L4xx_HAL_Driver/Src/stm32l4xx_hal_ospi.c ****         else
 674:Drivers/STM32L4xx_HAL_Driver/Src/stm32l4xx_hal_ospi.c ****         {
 675:Drivers/STM32L4xx_HAL_Driver/Src/stm32l4xx_hal_ospi.c ****           /* Abort due to an error (eg : DMA error) */
 676:Drivers/STM32L4xx_HAL_Driver/Src/stm32l4xx_hal_ospi.c ****           /* Error callback */
 677:Drivers/STM32L4xx_HAL_Driver/Src/stm32l4xx_hal_ospi.c **** #if defined (USE_HAL_OSPI_REGISTER_CALLBACKS) && (USE_HAL_OSPI_REGISTER_CALLBACKS == 1U)
 678:Drivers/STM32L4xx_HAL_Driver/Src/stm32l4xx_hal_ospi.c ****           hospi->ErrorCallback(hospi);
 679:Drivers/STM32L4xx_HAL_Driver/Src/stm32l4xx_hal_ospi.c **** #else
 680:Drivers/STM32L4xx_HAL_Driver/Src/stm32l4xx_hal_ospi.c ****           HAL_OSPI_ErrorCallback(hospi);
 660              		.loc 1 680 11
 661 0178 7868     		ldr	r0, [r7, #4]
 662 017a FFF7FEFF 		bl	HAL_OSPI_ErrorCallback
 600:Drivers/STM32L4xx_HAL_Driver/Src/stm32l4xx_hal_ospi.c ****     {
 663              		.loc 1 600 8
 664 017e 77E0     		b	.L34
 665              	.L21:
 681:Drivers/STM32L4xx_HAL_Driver/Src/stm32l4xx_hal_ospi.c **** #endif /* (USE_HAL_OSPI_REGISTER_CALLBACKS) && (USE_HAL_OSPI_REGISTER_CALLBACKS == 1U) */
 682:Drivers/STM32L4xx_HAL_Driver/Src/stm32l4xx_hal_ospi.c ****         }
 683:Drivers/STM32L4xx_HAL_Driver/Src/stm32l4xx_hal_ospi.c ****       }
 684:Drivers/STM32L4xx_HAL_Driver/Src/stm32l4xx_hal_ospi.c ****       else
 685:Drivers/STM32L4xx_HAL_Driver/Src/stm32l4xx_hal_ospi.c ****       {
 686:Drivers/STM32L4xx_HAL_Driver/Src/stm32l4xx_hal_ospi.c ****         /* Nothing to do */
 687:Drivers/STM32L4xx_HAL_Driver/Src/stm32l4xx_hal_ospi.c ****       }
 688:Drivers/STM32L4xx_HAL_Driver/Src/stm32l4xx_hal_ospi.c ****     }
 689:Drivers/STM32L4xx_HAL_Driver/Src/stm32l4xx_hal_ospi.c ****   }
 690:Drivers/STM32L4xx_HAL_Driver/Src/stm32l4xx_hal_ospi.c ****   /* OctoSPI status match interrupt occurred ---------------------------------*/
 691:Drivers/STM32L4xx_HAL_Driver/Src/stm32l4xx_hal_ospi.c ****   else if (((flag & HAL_OSPI_FLAG_SM) != 0U) && ((itsource & HAL_OSPI_IT_SM) != 0U))
 666              		.loc 1 691 19
 667 0180 3B69     		ldr	r3, [r7, #16]
 668 0182 03F00803 		and	r3, r3, #8
 669              		.loc 1 691 11
 670 0186 002B     		cmp	r3, #0
 671 0188 1ED0     		beq	.L29
 672              		.loc 1 691 60 discriminator 1
 673 018a FB68     		ldr	r3, [r7, #12]
 674 018c 03F40023 		and	r3, r3, #524288
 675              		.loc 1 691 46 discriminator 1
 676 0190 002B     		cmp	r3, #0
 677 0192 19D0     		beq	.L29
ARM GAS  C:\Users\Morroway\AppData\Local\Temp\ccxQAUQ3.s 			page 25


 692:Drivers/STM32L4xx_HAL_Driver/Src/stm32l4xx_hal_ospi.c ****   {
 693:Drivers/STM32L4xx_HAL_Driver/Src/stm32l4xx_hal_ospi.c ****     /* Clear flag */
 694:Drivers/STM32L4xx_HAL_Driver/Src/stm32l4xx_hal_ospi.c ****     hospi->Instance->FCR = HAL_OSPI_FLAG_SM;
 678              		.loc 1 694 10
 679 0194 7B68     		ldr	r3, [r7, #4]
 680 0196 1B68     		ldr	r3, [r3]
 681              		.loc 1 694 26
 682 0198 0822     		movs	r2, #8
 683 019a 5A62     		str	r2, [r3, #36]
 695:Drivers/STM32L4xx_HAL_Driver/Src/stm32l4xx_hal_ospi.c **** 
 696:Drivers/STM32L4xx_HAL_Driver/Src/stm32l4xx_hal_ospi.c ****     /* Check if automatic poll mode stop is activated */
 697:Drivers/STM32L4xx_HAL_Driver/Src/stm32l4xx_hal_ospi.c ****     if ((hospi->Instance->CR & OCTOSPI_CR_APMS) != 0U)
 684              		.loc 1 697 15
 685 019c 7B68     		ldr	r3, [r7, #4]
 686 019e 1B68     		ldr	r3, [r3]
 687              		.loc 1 697 25
 688 01a0 1B68     		ldr	r3, [r3]
 689              		.loc 1 697 30
 690 01a2 03F48003 		and	r3, r3, #4194304
 691              		.loc 1 697 8
 692 01a6 002B     		cmp	r3, #0
 693 01a8 0AD0     		beq	.L30
 698:Drivers/STM32L4xx_HAL_Driver/Src/stm32l4xx_hal_ospi.c ****     {
 699:Drivers/STM32L4xx_HAL_Driver/Src/stm32l4xx_hal_ospi.c ****       /* Disable the interrupts */
 700:Drivers/STM32L4xx_HAL_Driver/Src/stm32l4xx_hal_ospi.c ****       __HAL_OSPI_DISABLE_IT(hospi, HAL_OSPI_IT_SM | HAL_OSPI_IT_TE);
 694              		.loc 1 700 7
 695 01aa 7B68     		ldr	r3, [r7, #4]
 696 01ac 1B68     		ldr	r3, [r3]
 697 01ae 1A68     		ldr	r2, [r3]
 698 01b0 7B68     		ldr	r3, [r7, #4]
 699 01b2 1B68     		ldr	r3, [r3]
 700 01b4 22F41022 		bic	r2, r2, #589824
 701 01b8 1A60     		str	r2, [r3]
 701:Drivers/STM32L4xx_HAL_Driver/Src/stm32l4xx_hal_ospi.c **** 
 702:Drivers/STM32L4xx_HAL_Driver/Src/stm32l4xx_hal_ospi.c ****       /* Update state */
 703:Drivers/STM32L4xx_HAL_Driver/Src/stm32l4xx_hal_ospi.c ****       hospi->State = HAL_OSPI_STATE_READY;
 702              		.loc 1 703 20
 703 01ba 7B68     		ldr	r3, [r7, #4]
 704 01bc 0222     		movs	r2, #2
 705 01be DA64     		str	r2, [r3, #76]
 706              	.L30:
 704:Drivers/STM32L4xx_HAL_Driver/Src/stm32l4xx_hal_ospi.c ****     }
 705:Drivers/STM32L4xx_HAL_Driver/Src/stm32l4xx_hal_ospi.c **** 
 706:Drivers/STM32L4xx_HAL_Driver/Src/stm32l4xx_hal_ospi.c ****     /* Status match callback */
 707:Drivers/STM32L4xx_HAL_Driver/Src/stm32l4xx_hal_ospi.c **** #if defined (USE_HAL_OSPI_REGISTER_CALLBACKS) && (USE_HAL_OSPI_REGISTER_CALLBACKS == 1U)
 708:Drivers/STM32L4xx_HAL_Driver/Src/stm32l4xx_hal_ospi.c ****     hospi->StatusMatchCallback(hospi);
 709:Drivers/STM32L4xx_HAL_Driver/Src/stm32l4xx_hal_ospi.c **** #else
 710:Drivers/STM32L4xx_HAL_Driver/Src/stm32l4xx_hal_ospi.c ****     HAL_OSPI_StatusMatchCallback(hospi);
 707              		.loc 1 710 5
 708 01c0 7868     		ldr	r0, [r7, #4]
 709 01c2 FFF7FEFF 		bl	HAL_OSPI_StatusMatchCallback
 710 01c6 56E0     		b	.L20
 711              	.L29:
 711:Drivers/STM32L4xx_HAL_Driver/Src/stm32l4xx_hal_ospi.c **** #endif /* (USE_HAL_OSPI_REGISTER_CALLBACKS) && (USE_HAL_OSPI_REGISTER_CALLBACKS == 1U) */
 712:Drivers/STM32L4xx_HAL_Driver/Src/stm32l4xx_hal_ospi.c ****   }
 713:Drivers/STM32L4xx_HAL_Driver/Src/stm32l4xx_hal_ospi.c ****   /* OctoSPI transfer error interrupt occurred -------------------------------*/
 714:Drivers/STM32L4xx_HAL_Driver/Src/stm32l4xx_hal_ospi.c ****   else if (((flag & HAL_OSPI_FLAG_TE) != 0U) && ((itsource & HAL_OSPI_IT_TE) != 0U))
ARM GAS  C:\Users\Morroway\AppData\Local\Temp\ccxQAUQ3.s 			page 26


 712              		.loc 1 714 19
 713 01c8 3B69     		ldr	r3, [r7, #16]
 714 01ca 03F00103 		and	r3, r3, #1
 715              		.loc 1 714 11
 716 01ce 002B     		cmp	r3, #0
 717 01d0 3CD0     		beq	.L31
 718              		.loc 1 714 60 discriminator 1
 719 01d2 FB68     		ldr	r3, [r7, #12]
 720 01d4 03F48033 		and	r3, r3, #65536
 721              		.loc 1 714 46 discriminator 1
 722 01d8 002B     		cmp	r3, #0
 723 01da 37D0     		beq	.L31
 715:Drivers/STM32L4xx_HAL_Driver/Src/stm32l4xx_hal_ospi.c ****   {
 716:Drivers/STM32L4xx_HAL_Driver/Src/stm32l4xx_hal_ospi.c ****     /* Clear flag */
 717:Drivers/STM32L4xx_HAL_Driver/Src/stm32l4xx_hal_ospi.c ****     hospi->Instance->FCR = HAL_OSPI_FLAG_TE;
 724              		.loc 1 717 10
 725 01dc 7B68     		ldr	r3, [r7, #4]
 726 01de 1B68     		ldr	r3, [r3]
 727              		.loc 1 717 26
 728 01e0 0122     		movs	r2, #1
 729 01e2 5A62     		str	r2, [r3, #36]
 718:Drivers/STM32L4xx_HAL_Driver/Src/stm32l4xx_hal_ospi.c **** 
 719:Drivers/STM32L4xx_HAL_Driver/Src/stm32l4xx_hal_ospi.c ****     /* Disable all interrupts */
 720:Drivers/STM32L4xx_HAL_Driver/Src/stm32l4xx_hal_ospi.c ****     __HAL_OSPI_DISABLE_IT(hospi, (HAL_OSPI_IT_TO | HAL_OSPI_IT_SM | HAL_OSPI_IT_FT | HAL_OSPI_IT_TC
 730              		.loc 1 720 5
 731 01e4 7B68     		ldr	r3, [r7, #4]
 732 01e6 1B68     		ldr	r3, [r3]
 733 01e8 1A68     		ldr	r2, [r3]
 734 01ea 7B68     		ldr	r3, [r7, #4]
 735 01ec 1B68     		ldr	r3, [r3]
 736 01ee 22F4F812 		bic	r2, r2, #2031616
 737 01f2 1A60     		str	r2, [r3]
 721:Drivers/STM32L4xx_HAL_Driver/Src/stm32l4xx_hal_ospi.c **** 
 722:Drivers/STM32L4xx_HAL_Driver/Src/stm32l4xx_hal_ospi.c ****     /* Set error code */
 723:Drivers/STM32L4xx_HAL_Driver/Src/stm32l4xx_hal_ospi.c ****     hospi->ErrorCode = HAL_OSPI_ERROR_TRANSFER;
 738              		.loc 1 723 22
 739 01f4 7B68     		ldr	r3, [r7, #4]
 740 01f6 0222     		movs	r2, #2
 741 01f8 1A65     		str	r2, [r3, #80]
 724:Drivers/STM32L4xx_HAL_Driver/Src/stm32l4xx_hal_ospi.c **** 
 725:Drivers/STM32L4xx_HAL_Driver/Src/stm32l4xx_hal_ospi.c ****     /* Check if the DMA is enabled */
 726:Drivers/STM32L4xx_HAL_Driver/Src/stm32l4xx_hal_ospi.c ****     if ((hospi->Instance->CR & OCTOSPI_CR_DMAEN) != 0U)
 742              		.loc 1 726 15
 743 01fa 7B68     		ldr	r3, [r7, #4]
 744 01fc 1B68     		ldr	r3, [r3]
 745              		.loc 1 726 25
 746 01fe 1B68     		ldr	r3, [r3]
 747              		.loc 1 726 30
 748 0200 03F00403 		and	r3, r3, #4
 749              		.loc 1 726 8
 750 0204 002B     		cmp	r3, #0
 751 0206 1AD0     		beq	.L32
 727:Drivers/STM32L4xx_HAL_Driver/Src/stm32l4xx_hal_ospi.c ****     {
 728:Drivers/STM32L4xx_HAL_Driver/Src/stm32l4xx_hal_ospi.c ****       /* Disable the DMA transfer on the OctoSPI side */
 729:Drivers/STM32L4xx_HAL_Driver/Src/stm32l4xx_hal_ospi.c ****       CLEAR_BIT(hospi->Instance->CR, OCTOSPI_CR_DMAEN);
 752              		.loc 1 729 7
 753 0208 7B68     		ldr	r3, [r7, #4]
ARM GAS  C:\Users\Morroway\AppData\Local\Temp\ccxQAUQ3.s 			page 27


 754 020a 1B68     		ldr	r3, [r3]
 755 020c 1A68     		ldr	r2, [r3]
 756 020e 7B68     		ldr	r3, [r7, #4]
 757 0210 1B68     		ldr	r3, [r3]
 758 0212 22F00402 		bic	r2, r2, #4
 759 0216 1A60     		str	r2, [r3]
 730:Drivers/STM32L4xx_HAL_Driver/Src/stm32l4xx_hal_ospi.c **** 
 731:Drivers/STM32L4xx_HAL_Driver/Src/stm32l4xx_hal_ospi.c ****       /* Disable the DMA transfer on the DMA side */
 732:Drivers/STM32L4xx_HAL_Driver/Src/stm32l4xx_hal_ospi.c ****       hospi->hdma->XferAbortCallback = OSPI_DMAAbortCplt;
 760              		.loc 1 732 12
 761 0218 7B68     		ldr	r3, [r7, #4]
 762 021a 9B6C     		ldr	r3, [r3, #72]
 763              		.loc 1 732 38
 764 021c 184A     		ldr	r2, .L37
 765 021e 9A63     		str	r2, [r3, #56]
 733:Drivers/STM32L4xx_HAL_Driver/Src/stm32l4xx_hal_ospi.c ****       if (HAL_DMA_Abort_IT(hospi->hdma) != HAL_OK)
 766              		.loc 1 733 11
 767 0220 7B68     		ldr	r3, [r7, #4]
 768 0222 9B6C     		ldr	r3, [r3, #72]
 769 0224 1846     		mov	r0, r3
 770 0226 FFF7FEFF 		bl	HAL_DMA_Abort_IT
 771 022a 0346     		mov	r3, r0
 772              		.loc 1 733 10
 773 022c 002B     		cmp	r3, #0
 774 022e 21D0     		beq	.L35
 734:Drivers/STM32L4xx_HAL_Driver/Src/stm32l4xx_hal_ospi.c ****       {
 735:Drivers/STM32L4xx_HAL_Driver/Src/stm32l4xx_hal_ospi.c ****         /* Update state */
 736:Drivers/STM32L4xx_HAL_Driver/Src/stm32l4xx_hal_ospi.c ****         hospi->State = HAL_OSPI_STATE_READY;
 775              		.loc 1 736 22
 776 0230 7B68     		ldr	r3, [r7, #4]
 777 0232 0222     		movs	r2, #2
 778 0234 DA64     		str	r2, [r3, #76]
 737:Drivers/STM32L4xx_HAL_Driver/Src/stm32l4xx_hal_ospi.c **** 
 738:Drivers/STM32L4xx_HAL_Driver/Src/stm32l4xx_hal_ospi.c ****         /* Error callback */
 739:Drivers/STM32L4xx_HAL_Driver/Src/stm32l4xx_hal_ospi.c **** #if defined (USE_HAL_OSPI_REGISTER_CALLBACKS) && (USE_HAL_OSPI_REGISTER_CALLBACKS == 1U)
 740:Drivers/STM32L4xx_HAL_Driver/Src/stm32l4xx_hal_ospi.c ****         hospi->ErrorCallback(hospi);
 741:Drivers/STM32L4xx_HAL_Driver/Src/stm32l4xx_hal_ospi.c **** #else
 742:Drivers/STM32L4xx_HAL_Driver/Src/stm32l4xx_hal_ospi.c ****         HAL_OSPI_ErrorCallback(hospi);
 779              		.loc 1 742 9
 780 0236 7868     		ldr	r0, [r7, #4]
 781 0238 FFF7FEFF 		bl	HAL_OSPI_ErrorCallback
 726:Drivers/STM32L4xx_HAL_Driver/Src/stm32l4xx_hal_ospi.c ****     {
 782              		.loc 1 726 8
 783 023c 1AE0     		b	.L35
 784              	.L32:
 743:Drivers/STM32L4xx_HAL_Driver/Src/stm32l4xx_hal_ospi.c **** #endif /* (USE_HAL_OSPI_REGISTER_CALLBACKS) && (USE_HAL_OSPI_REGISTER_CALLBACKS == 1U)*/
 744:Drivers/STM32L4xx_HAL_Driver/Src/stm32l4xx_hal_ospi.c ****       }
 745:Drivers/STM32L4xx_HAL_Driver/Src/stm32l4xx_hal_ospi.c ****     }
 746:Drivers/STM32L4xx_HAL_Driver/Src/stm32l4xx_hal_ospi.c ****     else
 747:Drivers/STM32L4xx_HAL_Driver/Src/stm32l4xx_hal_ospi.c ****     {
 748:Drivers/STM32L4xx_HAL_Driver/Src/stm32l4xx_hal_ospi.c ****       /* Update state */
 749:Drivers/STM32L4xx_HAL_Driver/Src/stm32l4xx_hal_ospi.c ****       hospi->State = HAL_OSPI_STATE_READY;
 785              		.loc 1 749 20
 786 023e 7B68     		ldr	r3, [r7, #4]
 787 0240 0222     		movs	r2, #2
 788 0242 DA64     		str	r2, [r3, #76]
 750:Drivers/STM32L4xx_HAL_Driver/Src/stm32l4xx_hal_ospi.c **** 
ARM GAS  C:\Users\Morroway\AppData\Local\Temp\ccxQAUQ3.s 			page 28


 751:Drivers/STM32L4xx_HAL_Driver/Src/stm32l4xx_hal_ospi.c ****       /* Error callback */
 752:Drivers/STM32L4xx_HAL_Driver/Src/stm32l4xx_hal_ospi.c **** #if defined (USE_HAL_OSPI_REGISTER_CALLBACKS) && (USE_HAL_OSPI_REGISTER_CALLBACKS == 1U)
 753:Drivers/STM32L4xx_HAL_Driver/Src/stm32l4xx_hal_ospi.c ****       hospi->ErrorCallback(hospi);
 754:Drivers/STM32L4xx_HAL_Driver/Src/stm32l4xx_hal_ospi.c **** #else
 755:Drivers/STM32L4xx_HAL_Driver/Src/stm32l4xx_hal_ospi.c ****       HAL_OSPI_ErrorCallback(hospi);
 789              		.loc 1 755 7
 790 0244 7868     		ldr	r0, [r7, #4]
 791 0246 FFF7FEFF 		bl	HAL_OSPI_ErrorCallback
 726:Drivers/STM32L4xx_HAL_Driver/Src/stm32l4xx_hal_ospi.c ****     {
 792              		.loc 1 726 8
 793 024a 13E0     		b	.L35
 794              	.L31:
 756:Drivers/STM32L4xx_HAL_Driver/Src/stm32l4xx_hal_ospi.c **** #endif /* (USE_HAL_OSPI_REGISTER_CALLBACKS) && (USE_HAL_OSPI_REGISTER_CALLBACKS == 1U) */
 757:Drivers/STM32L4xx_HAL_Driver/Src/stm32l4xx_hal_ospi.c ****     }
 758:Drivers/STM32L4xx_HAL_Driver/Src/stm32l4xx_hal_ospi.c ****   }
 759:Drivers/STM32L4xx_HAL_Driver/Src/stm32l4xx_hal_ospi.c ****   /* OctoSPI timeout interrupt occurred --------------------------------------*/
 760:Drivers/STM32L4xx_HAL_Driver/Src/stm32l4xx_hal_ospi.c ****   else if (((flag & HAL_OSPI_FLAG_TO) != 0U) && ((itsource & HAL_OSPI_IT_TO) != 0U))
 795              		.loc 1 760 19
 796 024c 3B69     		ldr	r3, [r7, #16]
 797 024e 03F01003 		and	r3, r3, #16
 798              		.loc 1 760 11
 799 0252 002B     		cmp	r3, #0
 800 0254 0FD0     		beq	.L36
 801              		.loc 1 760 60 discriminator 1
 802 0256 FB68     		ldr	r3, [r7, #12]
 803 0258 03F48013 		and	r3, r3, #1048576
 804              		.loc 1 760 46 discriminator 1
 805 025c 002B     		cmp	r3, #0
 806 025e 0AD0     		beq	.L36
 761:Drivers/STM32L4xx_HAL_Driver/Src/stm32l4xx_hal_ospi.c ****   {
 762:Drivers/STM32L4xx_HAL_Driver/Src/stm32l4xx_hal_ospi.c ****     /* Clear flag */
 763:Drivers/STM32L4xx_HAL_Driver/Src/stm32l4xx_hal_ospi.c ****     hospi->Instance->FCR = HAL_OSPI_FLAG_TO;
 807              		.loc 1 763 10
 808 0260 7B68     		ldr	r3, [r7, #4]
 809 0262 1B68     		ldr	r3, [r3]
 810              		.loc 1 763 26
 811 0264 1022     		movs	r2, #16
 812 0266 5A62     		str	r2, [r3, #36]
 764:Drivers/STM32L4xx_HAL_Driver/Src/stm32l4xx_hal_ospi.c **** 
 765:Drivers/STM32L4xx_HAL_Driver/Src/stm32l4xx_hal_ospi.c ****     /* Timeout callback */
 766:Drivers/STM32L4xx_HAL_Driver/Src/stm32l4xx_hal_ospi.c **** #if defined (USE_HAL_OSPI_REGISTER_CALLBACKS) && (USE_HAL_OSPI_REGISTER_CALLBACKS == 1U)
 767:Drivers/STM32L4xx_HAL_Driver/Src/stm32l4xx_hal_ospi.c ****     hospi->TimeOutCallback(hospi);
 768:Drivers/STM32L4xx_HAL_Driver/Src/stm32l4xx_hal_ospi.c **** #else
 769:Drivers/STM32L4xx_HAL_Driver/Src/stm32l4xx_hal_ospi.c ****     HAL_OSPI_TimeOutCallback(hospi);
 813              		.loc 1 769 5
 814 0268 7868     		ldr	r0, [r7, #4]
 815 026a FFF7FEFF 		bl	HAL_OSPI_TimeOutCallback
 770:Drivers/STM32L4xx_HAL_Driver/Src/stm32l4xx_hal_ospi.c **** #endif /* (USE_HAL_OSPI_REGISTER_CALLBACKS) && (USE_HAL_OSPI_REGISTER_CALLBACKS == 1U) */
 771:Drivers/STM32L4xx_HAL_Driver/Src/stm32l4xx_hal_ospi.c ****   }
 772:Drivers/STM32L4xx_HAL_Driver/Src/stm32l4xx_hal_ospi.c ****   else
 773:Drivers/STM32L4xx_HAL_Driver/Src/stm32l4xx_hal_ospi.c ****   {
 774:Drivers/STM32L4xx_HAL_Driver/Src/stm32l4xx_hal_ospi.c ****     /* Nothing to do */
 775:Drivers/STM32L4xx_HAL_Driver/Src/stm32l4xx_hal_ospi.c ****   }
 776:Drivers/STM32L4xx_HAL_Driver/Src/stm32l4xx_hal_ospi.c **** }
 816              		.loc 1 776 1
 817 026e 02E0     		b	.L36
 818              	.L34:
ARM GAS  C:\Users\Morroway\AppData\Local\Temp\ccxQAUQ3.s 			page 29


 600:Drivers/STM32L4xx_HAL_Driver/Src/stm32l4xx_hal_ospi.c ****     {
 819              		.loc 1 600 8
 820 0270 00BF     		nop
 821 0272 00E0     		b	.L36
 822              	.L35:
 726:Drivers/STM32L4xx_HAL_Driver/Src/stm32l4xx_hal_ospi.c ****     {
 823              		.loc 1 726 8
 824 0274 00BF     		nop
 825              	.L20:
 826              	.L36:
 827              		.loc 1 776 1
 828 0276 00BF     		nop
 829 0278 1837     		adds	r7, r7, #24
 830              		.cfi_def_cfa_offset 8
 831 027a BD46     		mov	sp, r7
 832              		.cfi_def_cfa_register 13
 833              		@ sp needed
 834 027c 80BD     		pop	{r7, pc}
 835              	.L38:
 836 027e 00BF     		.align	2
 837              	.L37:
 838 0280 00000000 		.word	OSPI_DMAAbortCplt
 839              		.cfi_endproc
 840              	.LFE325:
 842              		.section	.text.HAL_OSPI_Command,"ax",%progbits
 843              		.align	1
 844              		.global	HAL_OSPI_Command
 845              		.syntax unified
 846              		.thumb
 847              		.thumb_func
 849              	HAL_OSPI_Command:
 850              	.LFB326:
 777:Drivers/STM32L4xx_HAL_Driver/Src/stm32l4xx_hal_ospi.c **** 
 778:Drivers/STM32L4xx_HAL_Driver/Src/stm32l4xx_hal_ospi.c **** /**
 779:Drivers/STM32L4xx_HAL_Driver/Src/stm32l4xx_hal_ospi.c ****   * @brief  Set the command configuration.
 780:Drivers/STM32L4xx_HAL_Driver/Src/stm32l4xx_hal_ospi.c ****   * @param  hospi   : OSPI handle
 781:Drivers/STM32L4xx_HAL_Driver/Src/stm32l4xx_hal_ospi.c ****   * @param  cmd     : structure that contains the command configuration information
 782:Drivers/STM32L4xx_HAL_Driver/Src/stm32l4xx_hal_ospi.c ****   * @param  Timeout : Timeout duration
 783:Drivers/STM32L4xx_HAL_Driver/Src/stm32l4xx_hal_ospi.c ****   * @retval HAL status
 784:Drivers/STM32L4xx_HAL_Driver/Src/stm32l4xx_hal_ospi.c ****   */
 785:Drivers/STM32L4xx_HAL_Driver/Src/stm32l4xx_hal_ospi.c **** HAL_StatusTypeDef HAL_OSPI_Command(OSPI_HandleTypeDef *hospi, OSPI_RegularCmdTypeDef *cmd, uint32_t
 786:Drivers/STM32L4xx_HAL_Driver/Src/stm32l4xx_hal_ospi.c **** {
 851              		.loc 1 786 1
 852              		.cfi_startproc
 853              		@ args = 0, pretend = 0, frame = 32
 854              		@ frame_needed = 1, uses_anonymous_args = 0
 855 0000 80B5     		push	{r7, lr}
 856              		.cfi_def_cfa_offset 8
 857              		.cfi_offset 7, -8
 858              		.cfi_offset 14, -4
 859 0002 8AB0     		sub	sp, sp, #40
 860              		.cfi_def_cfa_offset 48
 861 0004 02AF     		add	r7, sp, #8
 862              		.cfi_def_cfa 7, 40
 863 0006 F860     		str	r0, [r7, #12]
 864 0008 B960     		str	r1, [r7, #8]
 865 000a 7A60     		str	r2, [r7, #4]
ARM GAS  C:\Users\Morroway\AppData\Local\Temp\ccxQAUQ3.s 			page 30


 787:Drivers/STM32L4xx_HAL_Driver/Src/stm32l4xx_hal_ospi.c ****   HAL_StatusTypeDef status;
 788:Drivers/STM32L4xx_HAL_Driver/Src/stm32l4xx_hal_ospi.c ****   uint32_t state;
 789:Drivers/STM32L4xx_HAL_Driver/Src/stm32l4xx_hal_ospi.c ****   uint32_t tickstart = HAL_GetTick();
 866              		.loc 1 789 24
 867 000c FFF7FEFF 		bl	HAL_GetTick
 868 0010 B861     		str	r0, [r7, #24]
 790:Drivers/STM32L4xx_HAL_Driver/Src/stm32l4xx_hal_ospi.c **** 
 791:Drivers/STM32L4xx_HAL_Driver/Src/stm32l4xx_hal_ospi.c ****   /* Check the parameters of the command structure */
 792:Drivers/STM32L4xx_HAL_Driver/Src/stm32l4xx_hal_ospi.c ****   assert_param(IS_OSPI_OPERATION_TYPE(cmd->OperationType));
 793:Drivers/STM32L4xx_HAL_Driver/Src/stm32l4xx_hal_ospi.c **** 
 794:Drivers/STM32L4xx_HAL_Driver/Src/stm32l4xx_hal_ospi.c ****   if (hospi->Init.DualQuad == HAL_OSPI_DUALQUAD_DISABLE)
 795:Drivers/STM32L4xx_HAL_Driver/Src/stm32l4xx_hal_ospi.c ****   {
 796:Drivers/STM32L4xx_HAL_Driver/Src/stm32l4xx_hal_ospi.c ****     assert_param(IS_OSPI_FLASH_ID(cmd->FlashId));
 797:Drivers/STM32L4xx_HAL_Driver/Src/stm32l4xx_hal_ospi.c ****   }
 798:Drivers/STM32L4xx_HAL_Driver/Src/stm32l4xx_hal_ospi.c **** 
 799:Drivers/STM32L4xx_HAL_Driver/Src/stm32l4xx_hal_ospi.c ****   assert_param(IS_OSPI_INSTRUCTION_MODE(cmd->InstructionMode));
 800:Drivers/STM32L4xx_HAL_Driver/Src/stm32l4xx_hal_ospi.c ****   if (cmd->InstructionMode != HAL_OSPI_INSTRUCTION_NONE)
 801:Drivers/STM32L4xx_HAL_Driver/Src/stm32l4xx_hal_ospi.c ****   {
 802:Drivers/STM32L4xx_HAL_Driver/Src/stm32l4xx_hal_ospi.c ****     assert_param(IS_OSPI_INSTRUCTION_SIZE    (cmd->InstructionSize));
 803:Drivers/STM32L4xx_HAL_Driver/Src/stm32l4xx_hal_ospi.c ****     assert_param(IS_OSPI_INSTRUCTION_DTR_MODE(cmd->InstructionDtrMode));
 804:Drivers/STM32L4xx_HAL_Driver/Src/stm32l4xx_hal_ospi.c ****   }
 805:Drivers/STM32L4xx_HAL_Driver/Src/stm32l4xx_hal_ospi.c **** 
 806:Drivers/STM32L4xx_HAL_Driver/Src/stm32l4xx_hal_ospi.c ****   assert_param(IS_OSPI_ADDRESS_MODE(cmd->AddressMode));
 807:Drivers/STM32L4xx_HAL_Driver/Src/stm32l4xx_hal_ospi.c ****   if (cmd->AddressMode != HAL_OSPI_ADDRESS_NONE)
 808:Drivers/STM32L4xx_HAL_Driver/Src/stm32l4xx_hal_ospi.c ****   {
 809:Drivers/STM32L4xx_HAL_Driver/Src/stm32l4xx_hal_ospi.c ****     assert_param(IS_OSPI_ADDRESS_SIZE    (cmd->AddressSize));
 810:Drivers/STM32L4xx_HAL_Driver/Src/stm32l4xx_hal_ospi.c ****     assert_param(IS_OSPI_ADDRESS_DTR_MODE(cmd->AddressDtrMode));
 811:Drivers/STM32L4xx_HAL_Driver/Src/stm32l4xx_hal_ospi.c ****   }
 812:Drivers/STM32L4xx_HAL_Driver/Src/stm32l4xx_hal_ospi.c **** 
 813:Drivers/STM32L4xx_HAL_Driver/Src/stm32l4xx_hal_ospi.c ****   assert_param(IS_OSPI_ALT_BYTES_MODE(cmd->AlternateBytesMode));
 814:Drivers/STM32L4xx_HAL_Driver/Src/stm32l4xx_hal_ospi.c ****   if (cmd->AlternateBytesMode != HAL_OSPI_ALTERNATE_BYTES_NONE)
 815:Drivers/STM32L4xx_HAL_Driver/Src/stm32l4xx_hal_ospi.c ****   {
 816:Drivers/STM32L4xx_HAL_Driver/Src/stm32l4xx_hal_ospi.c ****     assert_param(IS_OSPI_ALT_BYTES_SIZE    (cmd->AlternateBytesSize));
 817:Drivers/STM32L4xx_HAL_Driver/Src/stm32l4xx_hal_ospi.c ****     assert_param(IS_OSPI_ALT_BYTES_DTR_MODE(cmd->AlternateBytesDtrMode));
 818:Drivers/STM32L4xx_HAL_Driver/Src/stm32l4xx_hal_ospi.c ****   }
 819:Drivers/STM32L4xx_HAL_Driver/Src/stm32l4xx_hal_ospi.c **** 
 820:Drivers/STM32L4xx_HAL_Driver/Src/stm32l4xx_hal_ospi.c ****   assert_param(IS_OSPI_DATA_MODE(cmd->DataMode));
 821:Drivers/STM32L4xx_HAL_Driver/Src/stm32l4xx_hal_ospi.c ****   if (cmd->DataMode != HAL_OSPI_DATA_NONE)
 869              		.loc 1 821 10
 870 0012 BB68     		ldr	r3, [r7, #8]
 871 0014 9B6B     		ldr	r3, [r3, #56]
 872              		.loc 1 821 6
 873 0016 002B     		cmp	r3, #0
 822:Drivers/STM32L4xx_HAL_Driver/Src/stm32l4xx_hal_ospi.c ****   {
 823:Drivers/STM32L4xx_HAL_Driver/Src/stm32l4xx_hal_ospi.c ****     if (cmd->OperationType == HAL_OSPI_OPTYPE_COMMON_CFG)
 824:Drivers/STM32L4xx_HAL_Driver/Src/stm32l4xx_hal_ospi.c ****     {
 825:Drivers/STM32L4xx_HAL_Driver/Src/stm32l4xx_hal_ospi.c ****       assert_param(IS_OSPI_NUMBER_DATA  (cmd->NbData));
 826:Drivers/STM32L4xx_HAL_Driver/Src/stm32l4xx_hal_ospi.c ****     }
 827:Drivers/STM32L4xx_HAL_Driver/Src/stm32l4xx_hal_ospi.c ****     assert_param(IS_OSPI_DATA_DTR_MODE(cmd->DataDtrMode));
 828:Drivers/STM32L4xx_HAL_Driver/Src/stm32l4xx_hal_ospi.c ****     assert_param(IS_OSPI_DUMMY_CYCLES (cmd->DummyCycles));
 829:Drivers/STM32L4xx_HAL_Driver/Src/stm32l4xx_hal_ospi.c ****   }
 830:Drivers/STM32L4xx_HAL_Driver/Src/stm32l4xx_hal_ospi.c **** 
 831:Drivers/STM32L4xx_HAL_Driver/Src/stm32l4xx_hal_ospi.c ****   assert_param(IS_OSPI_DQS_MODE (cmd->DQSMode));
 832:Drivers/STM32L4xx_HAL_Driver/Src/stm32l4xx_hal_ospi.c ****   assert_param(IS_OSPI_SIOO_MODE(cmd->SIOOMode));
 833:Drivers/STM32L4xx_HAL_Driver/Src/stm32l4xx_hal_ospi.c **** 
 834:Drivers/STM32L4xx_HAL_Driver/Src/stm32l4xx_hal_ospi.c ****   /* Check the state of the driver */
 835:Drivers/STM32L4xx_HAL_Driver/Src/stm32l4xx_hal_ospi.c ****   state = hospi->State;
ARM GAS  C:\Users\Morroway\AppData\Local\Temp\ccxQAUQ3.s 			page 31


 874              		.loc 1 835 9
 875 0018 FB68     		ldr	r3, [r7, #12]
 876 001a DB6C     		ldr	r3, [r3, #76]
 877 001c 7B61     		str	r3, [r7, #20]
 836:Drivers/STM32L4xx_HAL_Driver/Src/stm32l4xx_hal_ospi.c ****   if (((state == HAL_OSPI_STATE_READY)         && (hospi->Init.MemoryType != HAL_OSPI_MEMTYPE_HYPER
 878              		.loc 1 836 6
 879 001e 7B69     		ldr	r3, [r7, #20]
 880 0020 022B     		cmp	r3, #2
 881 0022 04D1     		bne	.L41
 882              		.loc 1 836 63 discriminator 1
 883 0024 FB68     		ldr	r3, [r7, #12]
 884 0026 DB68     		ldr	r3, [r3, #12]
 885              		.loc 1 836 48 discriminator 1
 886 0028 B3F1806F 		cmp	r3, #67108864
 887 002c 0DD1     		bne	.L42
 888              	.L41:
 889              		.loc 1 836 106 discriminator 3
 890 002e 7B69     		ldr	r3, [r7, #20]
 891 0030 142B     		cmp	r3, #20
 892 0032 03D1     		bne	.L43
 837:Drivers/STM32L4xx_HAL_Driver/Src/stm32l4xx_hal_ospi.c ****       ((state == HAL_OSPI_STATE_READ_CMD_CFG)  && (cmd->OperationType == HAL_OSPI_OPTYPE_WRITE_CFG)
 893              		.loc 1 837 55
 894 0034 BB68     		ldr	r3, [r7, #8]
 895 0036 1B68     		ldr	r3, [r3]
 896              		.loc 1 837 48
 897 0038 022B     		cmp	r3, #2
 898 003a 06D0     		beq	.L42
 899              	.L43:
 900              		.loc 1 837 106 discriminator 1
 901 003c 7B69     		ldr	r3, [r7, #20]
 902 003e 242B     		cmp	r3, #36
 903 0040 53D1     		bne	.L44
 838:Drivers/STM32L4xx_HAL_Driver/Src/stm32l4xx_hal_ospi.c ****       ((state == HAL_OSPI_STATE_WRITE_CMD_CFG) && (cmd->OperationType == HAL_OSPI_OPTYPE_READ_CFG))
 904              		.loc 1 838 55
 905 0042 BB68     		ldr	r3, [r7, #8]
 906 0044 1B68     		ldr	r3, [r3]
 907              		.loc 1 838 48
 908 0046 012B     		cmp	r3, #1
 909 0048 4FD1     		bne	.L44
 910              	.L42:
 839:Drivers/STM32L4xx_HAL_Driver/Src/stm32l4xx_hal_ospi.c ****   {
 840:Drivers/STM32L4xx_HAL_Driver/Src/stm32l4xx_hal_ospi.c ****     /* Wait till busy flag is reset */
 841:Drivers/STM32L4xx_HAL_Driver/Src/stm32l4xx_hal_ospi.c ****     status = OSPI_WaitFlagStateUntilTimeout(hospi, HAL_OSPI_FLAG_BUSY, RESET, tickstart, Timeout);
 911              		.loc 1 841 14
 912 004a 7B68     		ldr	r3, [r7, #4]
 913 004c 0093     		str	r3, [sp]
 914 004e BB69     		ldr	r3, [r7, #24]
 915 0050 0022     		movs	r2, #0
 916 0052 2021     		movs	r1, #32
 917 0054 F868     		ldr	r0, [r7, #12]
 918 0056 FFF7FEFF 		bl	OSPI_WaitFlagStateUntilTimeout
 919 005a 0346     		mov	r3, r0
 920 005c FB77     		strb	r3, [r7, #31]
 842:Drivers/STM32L4xx_HAL_Driver/Src/stm32l4xx_hal_ospi.c **** 
 843:Drivers/STM32L4xx_HAL_Driver/Src/stm32l4xx_hal_ospi.c ****     if (status == HAL_OK)
 921              		.loc 1 843 8
 922 005e FB7F     		ldrb	r3, [r7, #31]	@ zero_extendqisi2
ARM GAS  C:\Users\Morroway\AppData\Local\Temp\ccxQAUQ3.s 			page 32


 923 0060 002B     		cmp	r3, #0
 924 0062 48D1     		bne	.L53
 844:Drivers/STM32L4xx_HAL_Driver/Src/stm32l4xx_hal_ospi.c ****     {
 845:Drivers/STM32L4xx_HAL_Driver/Src/stm32l4xx_hal_ospi.c ****       /* Initialize error code */
 846:Drivers/STM32L4xx_HAL_Driver/Src/stm32l4xx_hal_ospi.c ****       hospi->ErrorCode = HAL_OSPI_ERROR_NONE;
 925              		.loc 1 846 24
 926 0064 FB68     		ldr	r3, [r7, #12]
 927 0066 0022     		movs	r2, #0
 928 0068 1A65     		str	r2, [r3, #80]
 847:Drivers/STM32L4xx_HAL_Driver/Src/stm32l4xx_hal_ospi.c **** 
 848:Drivers/STM32L4xx_HAL_Driver/Src/stm32l4xx_hal_ospi.c ****       /* Configure the registers */
 849:Drivers/STM32L4xx_HAL_Driver/Src/stm32l4xx_hal_ospi.c ****       status = OSPI_ConfigCmd(hospi, cmd);
 929              		.loc 1 849 16
 930 006a B968     		ldr	r1, [r7, #8]
 931 006c F868     		ldr	r0, [r7, #12]
 932 006e FFF7FEFF 		bl	OSPI_ConfigCmd
 933 0072 0346     		mov	r3, r0
 934 0074 FB77     		strb	r3, [r7, #31]
 850:Drivers/STM32L4xx_HAL_Driver/Src/stm32l4xx_hal_ospi.c **** 
 851:Drivers/STM32L4xx_HAL_Driver/Src/stm32l4xx_hal_ospi.c ****       if (status == HAL_OK)
 935              		.loc 1 851 10
 936 0076 FB7F     		ldrb	r3, [r7, #31]	@ zero_extendqisi2
 937 0078 002B     		cmp	r3, #0
 938 007a 3CD1     		bne	.L53
 852:Drivers/STM32L4xx_HAL_Driver/Src/stm32l4xx_hal_ospi.c ****       {
 853:Drivers/STM32L4xx_HAL_Driver/Src/stm32l4xx_hal_ospi.c ****         if (cmd->DataMode == HAL_OSPI_DATA_NONE)
 939              		.loc 1 853 16
 940 007c BB68     		ldr	r3, [r7, #8]
 941 007e 9B6B     		ldr	r3, [r3, #56]
 942              		.loc 1 853 12
 943 0080 002B     		cmp	r3, #0
 944 0082 0ED1     		bne	.L46
 854:Drivers/STM32L4xx_HAL_Driver/Src/stm32l4xx_hal_ospi.c ****         {
 855:Drivers/STM32L4xx_HAL_Driver/Src/stm32l4xx_hal_ospi.c ****           /* When there is no data phase, the transfer start as soon as the configuration is done
 856:Drivers/STM32L4xx_HAL_Driver/Src/stm32l4xx_hal_ospi.c ****              so wait until TC flag is set to go back in idle state */
 857:Drivers/STM32L4xx_HAL_Driver/Src/stm32l4xx_hal_ospi.c ****           status = OSPI_WaitFlagStateUntilTimeout(hospi, HAL_OSPI_FLAG_TC, SET, tickstart, Timeout)
 945              		.loc 1 857 20
 946 0084 7B68     		ldr	r3, [r7, #4]
 947 0086 0093     		str	r3, [sp]
 948 0088 BB69     		ldr	r3, [r7, #24]
 949 008a 0122     		movs	r2, #1
 950 008c 0221     		movs	r1, #2
 951 008e F868     		ldr	r0, [r7, #12]
 952 0090 FFF7FEFF 		bl	OSPI_WaitFlagStateUntilTimeout
 953 0094 0346     		mov	r3, r0
 954 0096 FB77     		strb	r3, [r7, #31]
 858:Drivers/STM32L4xx_HAL_Driver/Src/stm32l4xx_hal_ospi.c **** 
 859:Drivers/STM32L4xx_HAL_Driver/Src/stm32l4xx_hal_ospi.c ****           __HAL_OSPI_CLEAR_FLAG(hospi, HAL_OSPI_FLAG_TC);
 955              		.loc 1 859 11
 956 0098 FB68     		ldr	r3, [r7, #12]
 957 009a 1B68     		ldr	r3, [r3]
 958 009c 0222     		movs	r2, #2
 959 009e 5A62     		str	r2, [r3, #36]
 843:Drivers/STM32L4xx_HAL_Driver/Src/stm32l4xx_hal_ospi.c ****     {
 960              		.loc 1 843 8
 961 00a0 29E0     		b	.L53
 962              	.L46:
ARM GAS  C:\Users\Morroway\AppData\Local\Temp\ccxQAUQ3.s 			page 33


 860:Drivers/STM32L4xx_HAL_Driver/Src/stm32l4xx_hal_ospi.c ****         }
 861:Drivers/STM32L4xx_HAL_Driver/Src/stm32l4xx_hal_ospi.c ****         else
 862:Drivers/STM32L4xx_HAL_Driver/Src/stm32l4xx_hal_ospi.c ****         {
 863:Drivers/STM32L4xx_HAL_Driver/Src/stm32l4xx_hal_ospi.c ****           /* Update the state */
 864:Drivers/STM32L4xx_HAL_Driver/Src/stm32l4xx_hal_ospi.c ****           if (cmd->OperationType == HAL_OSPI_OPTYPE_COMMON_CFG)
 963              		.loc 1 864 18
 964 00a2 BB68     		ldr	r3, [r7, #8]
 965 00a4 1B68     		ldr	r3, [r3]
 966              		.loc 1 864 14
 967 00a6 002B     		cmp	r3, #0
 968 00a8 03D1     		bne	.L47
 865:Drivers/STM32L4xx_HAL_Driver/Src/stm32l4xx_hal_ospi.c ****           {
 866:Drivers/STM32L4xx_HAL_Driver/Src/stm32l4xx_hal_ospi.c ****             hospi->State = HAL_OSPI_STATE_CMD_CFG;
 969              		.loc 1 866 26
 970 00aa FB68     		ldr	r3, [r7, #12]
 971 00ac 0422     		movs	r2, #4
 972 00ae DA64     		str	r2, [r3, #76]
 843:Drivers/STM32L4xx_HAL_Driver/Src/stm32l4xx_hal_ospi.c ****     {
 973              		.loc 1 843 8
 974 00b0 21E0     		b	.L53
 975              	.L47:
 867:Drivers/STM32L4xx_HAL_Driver/Src/stm32l4xx_hal_ospi.c ****           }
 868:Drivers/STM32L4xx_HAL_Driver/Src/stm32l4xx_hal_ospi.c ****           else if (cmd->OperationType == HAL_OSPI_OPTYPE_READ_CFG)
 976              		.loc 1 868 23
 977 00b2 BB68     		ldr	r3, [r7, #8]
 978 00b4 1B68     		ldr	r3, [r3]
 979              		.loc 1 868 19
 980 00b6 012B     		cmp	r3, #1
 981 00b8 0BD1     		bne	.L48
 869:Drivers/STM32L4xx_HAL_Driver/Src/stm32l4xx_hal_ospi.c ****           {
 870:Drivers/STM32L4xx_HAL_Driver/Src/stm32l4xx_hal_ospi.c ****             if (hospi->State == HAL_OSPI_STATE_WRITE_CMD_CFG)
 982              		.loc 1 870 22
 983 00ba FB68     		ldr	r3, [r7, #12]
 984 00bc DB6C     		ldr	r3, [r3, #76]
 985              		.loc 1 870 16
 986 00be 242B     		cmp	r3, #36
 987 00c0 03D1     		bne	.L49
 871:Drivers/STM32L4xx_HAL_Driver/Src/stm32l4xx_hal_ospi.c ****             {
 872:Drivers/STM32L4xx_HAL_Driver/Src/stm32l4xx_hal_ospi.c ****               hospi->State = HAL_OSPI_STATE_CMD_CFG;
 988              		.loc 1 872 28
 989 00c2 FB68     		ldr	r3, [r7, #12]
 990 00c4 0422     		movs	r2, #4
 991 00c6 DA64     		str	r2, [r3, #76]
 843:Drivers/STM32L4xx_HAL_Driver/Src/stm32l4xx_hal_ospi.c ****     {
 992              		.loc 1 843 8
 993 00c8 15E0     		b	.L53
 994              	.L49:
 873:Drivers/STM32L4xx_HAL_Driver/Src/stm32l4xx_hal_ospi.c ****             }
 874:Drivers/STM32L4xx_HAL_Driver/Src/stm32l4xx_hal_ospi.c ****             else
 875:Drivers/STM32L4xx_HAL_Driver/Src/stm32l4xx_hal_ospi.c ****             {
 876:Drivers/STM32L4xx_HAL_Driver/Src/stm32l4xx_hal_ospi.c ****               hospi->State = HAL_OSPI_STATE_READ_CMD_CFG;
 995              		.loc 1 876 28
 996 00ca FB68     		ldr	r3, [r7, #12]
 997 00cc 1422     		movs	r2, #20
 998 00ce DA64     		str	r2, [r3, #76]
 843:Drivers/STM32L4xx_HAL_Driver/Src/stm32l4xx_hal_ospi.c ****     {
 999              		.loc 1 843 8
ARM GAS  C:\Users\Morroway\AppData\Local\Temp\ccxQAUQ3.s 			page 34


 1000 00d0 11E0     		b	.L53
 1001              	.L48:
 877:Drivers/STM32L4xx_HAL_Driver/Src/stm32l4xx_hal_ospi.c ****             }
 878:Drivers/STM32L4xx_HAL_Driver/Src/stm32l4xx_hal_ospi.c ****           }
 879:Drivers/STM32L4xx_HAL_Driver/Src/stm32l4xx_hal_ospi.c ****           else
 880:Drivers/STM32L4xx_HAL_Driver/Src/stm32l4xx_hal_ospi.c ****           {
 881:Drivers/STM32L4xx_HAL_Driver/Src/stm32l4xx_hal_ospi.c ****             if (hospi->State == HAL_OSPI_STATE_READ_CMD_CFG)
 1002              		.loc 1 881 22
 1003 00d2 FB68     		ldr	r3, [r7, #12]
 1004 00d4 DB6C     		ldr	r3, [r3, #76]
 1005              		.loc 1 881 16
 1006 00d6 142B     		cmp	r3, #20
 1007 00d8 03D1     		bne	.L50
 882:Drivers/STM32L4xx_HAL_Driver/Src/stm32l4xx_hal_ospi.c ****             {
 883:Drivers/STM32L4xx_HAL_Driver/Src/stm32l4xx_hal_ospi.c ****               hospi->State = HAL_OSPI_STATE_CMD_CFG;
 1008              		.loc 1 883 28
 1009 00da FB68     		ldr	r3, [r7, #12]
 1010 00dc 0422     		movs	r2, #4
 1011 00de DA64     		str	r2, [r3, #76]
 843:Drivers/STM32L4xx_HAL_Driver/Src/stm32l4xx_hal_ospi.c ****     {
 1012              		.loc 1 843 8
 1013 00e0 09E0     		b	.L53
 1014              	.L50:
 884:Drivers/STM32L4xx_HAL_Driver/Src/stm32l4xx_hal_ospi.c ****             }
 885:Drivers/STM32L4xx_HAL_Driver/Src/stm32l4xx_hal_ospi.c ****             else
 886:Drivers/STM32L4xx_HAL_Driver/Src/stm32l4xx_hal_ospi.c ****             {
 887:Drivers/STM32L4xx_HAL_Driver/Src/stm32l4xx_hal_ospi.c ****               hospi->State = HAL_OSPI_STATE_WRITE_CMD_CFG;
 1015              		.loc 1 887 28
 1016 00e2 FB68     		ldr	r3, [r7, #12]
 1017 00e4 2422     		movs	r2, #36
 1018 00e6 DA64     		str	r2, [r3, #76]
 843:Drivers/STM32L4xx_HAL_Driver/Src/stm32l4xx_hal_ospi.c ****     {
 1019              		.loc 1 843 8
 1020 00e8 05E0     		b	.L53
 1021              	.L44:
 888:Drivers/STM32L4xx_HAL_Driver/Src/stm32l4xx_hal_ospi.c ****             }
 889:Drivers/STM32L4xx_HAL_Driver/Src/stm32l4xx_hal_ospi.c ****           }
 890:Drivers/STM32L4xx_HAL_Driver/Src/stm32l4xx_hal_ospi.c ****         }
 891:Drivers/STM32L4xx_HAL_Driver/Src/stm32l4xx_hal_ospi.c ****       }
 892:Drivers/STM32L4xx_HAL_Driver/Src/stm32l4xx_hal_ospi.c ****     }
 893:Drivers/STM32L4xx_HAL_Driver/Src/stm32l4xx_hal_ospi.c ****   }
 894:Drivers/STM32L4xx_HAL_Driver/Src/stm32l4xx_hal_ospi.c ****   else
 895:Drivers/STM32L4xx_HAL_Driver/Src/stm32l4xx_hal_ospi.c ****   {
 896:Drivers/STM32L4xx_HAL_Driver/Src/stm32l4xx_hal_ospi.c ****     status = HAL_ERROR;
 1022              		.loc 1 896 12
 1023 00ea 0123     		movs	r3, #1
 1024 00ec FB77     		strb	r3, [r7, #31]
 897:Drivers/STM32L4xx_HAL_Driver/Src/stm32l4xx_hal_ospi.c ****     hospi->ErrorCode = HAL_OSPI_ERROR_INVALID_SEQUENCE;
 1025              		.loc 1 897 22
 1026 00ee FB68     		ldr	r3, [r7, #12]
 1027 00f0 1022     		movs	r2, #16
 1028 00f2 1A65     		str	r2, [r3, #80]
 1029 00f4 00E0     		b	.L51
 1030              	.L53:
 843:Drivers/STM32L4xx_HAL_Driver/Src/stm32l4xx_hal_ospi.c ****     {
 1031              		.loc 1 843 8
 1032 00f6 00BF     		nop
ARM GAS  C:\Users\Morroway\AppData\Local\Temp\ccxQAUQ3.s 			page 35


 1033              	.L51:
 898:Drivers/STM32L4xx_HAL_Driver/Src/stm32l4xx_hal_ospi.c ****   }
 899:Drivers/STM32L4xx_HAL_Driver/Src/stm32l4xx_hal_ospi.c **** 
 900:Drivers/STM32L4xx_HAL_Driver/Src/stm32l4xx_hal_ospi.c ****   /* Return function status */
 901:Drivers/STM32L4xx_HAL_Driver/Src/stm32l4xx_hal_ospi.c ****   return status;
 1034              		.loc 1 901 10
 1035 00f8 FB7F     		ldrb	r3, [r7, #31]	@ zero_extendqisi2
 902:Drivers/STM32L4xx_HAL_Driver/Src/stm32l4xx_hal_ospi.c **** }
 1036              		.loc 1 902 1
 1037 00fa 1846     		mov	r0, r3
 1038 00fc 2037     		adds	r7, r7, #32
 1039              		.cfi_def_cfa_offset 8
 1040 00fe BD46     		mov	sp, r7
 1041              		.cfi_def_cfa_register 13
 1042              		@ sp needed
 1043 0100 80BD     		pop	{r7, pc}
 1044              		.cfi_endproc
 1045              	.LFE326:
 1047              		.section	.text.HAL_OSPI_Command_IT,"ax",%progbits
 1048              		.align	1
 1049              		.global	HAL_OSPI_Command_IT
 1050              		.syntax unified
 1051              		.thumb
 1052              		.thumb_func
 1054              	HAL_OSPI_Command_IT:
 1055              	.LFB327:
 903:Drivers/STM32L4xx_HAL_Driver/Src/stm32l4xx_hal_ospi.c **** 
 904:Drivers/STM32L4xx_HAL_Driver/Src/stm32l4xx_hal_ospi.c **** /**
 905:Drivers/STM32L4xx_HAL_Driver/Src/stm32l4xx_hal_ospi.c ****   * @brief  Set the command configuration in interrupt mode.
 906:Drivers/STM32L4xx_HAL_Driver/Src/stm32l4xx_hal_ospi.c ****   * @param  hospi : OSPI handle
 907:Drivers/STM32L4xx_HAL_Driver/Src/stm32l4xx_hal_ospi.c ****   * @param  cmd   : structure that contains the command configuration information
 908:Drivers/STM32L4xx_HAL_Driver/Src/stm32l4xx_hal_ospi.c ****   * @note   This function is used only in Indirect Read or Write Modes
 909:Drivers/STM32L4xx_HAL_Driver/Src/stm32l4xx_hal_ospi.c ****   * @retval HAL status
 910:Drivers/STM32L4xx_HAL_Driver/Src/stm32l4xx_hal_ospi.c ****   */
 911:Drivers/STM32L4xx_HAL_Driver/Src/stm32l4xx_hal_ospi.c **** HAL_StatusTypeDef HAL_OSPI_Command_IT(OSPI_HandleTypeDef *hospi, OSPI_RegularCmdTypeDef *cmd)
 912:Drivers/STM32L4xx_HAL_Driver/Src/stm32l4xx_hal_ospi.c **** {
 1056              		.loc 1 912 1
 1057              		.cfi_startproc
 1058              		@ args = 0, pretend = 0, frame = 16
 1059              		@ frame_needed = 1, uses_anonymous_args = 0
 1060 0000 80B5     		push	{r7, lr}
 1061              		.cfi_def_cfa_offset 8
 1062              		.cfi_offset 7, -8
 1063              		.cfi_offset 14, -4
 1064 0002 86B0     		sub	sp, sp, #24
 1065              		.cfi_def_cfa_offset 32
 1066 0004 02AF     		add	r7, sp, #8
 1067              		.cfi_def_cfa 7, 24
 1068 0006 7860     		str	r0, [r7, #4]
 1069 0008 3960     		str	r1, [r7]
 913:Drivers/STM32L4xx_HAL_Driver/Src/stm32l4xx_hal_ospi.c ****   HAL_StatusTypeDef status;
 914:Drivers/STM32L4xx_HAL_Driver/Src/stm32l4xx_hal_ospi.c ****   uint32_t tickstart = HAL_GetTick();
 1070              		.loc 1 914 24
 1071 000a FFF7FEFF 		bl	HAL_GetTick
 1072 000e B860     		str	r0, [r7, #8]
 915:Drivers/STM32L4xx_HAL_Driver/Src/stm32l4xx_hal_ospi.c **** 
 916:Drivers/STM32L4xx_HAL_Driver/Src/stm32l4xx_hal_ospi.c ****   /* Check the parameters of the command structure */
ARM GAS  C:\Users\Morroway\AppData\Local\Temp\ccxQAUQ3.s 			page 36


 917:Drivers/STM32L4xx_HAL_Driver/Src/stm32l4xx_hal_ospi.c ****   assert_param(IS_OSPI_OPERATION_TYPE(cmd->OperationType));
 918:Drivers/STM32L4xx_HAL_Driver/Src/stm32l4xx_hal_ospi.c **** 
 919:Drivers/STM32L4xx_HAL_Driver/Src/stm32l4xx_hal_ospi.c ****   if (hospi->Init.DualQuad == HAL_OSPI_DUALQUAD_DISABLE)
 920:Drivers/STM32L4xx_HAL_Driver/Src/stm32l4xx_hal_ospi.c ****   {
 921:Drivers/STM32L4xx_HAL_Driver/Src/stm32l4xx_hal_ospi.c ****     assert_param(IS_OSPI_FLASH_ID(cmd->FlashId));
 922:Drivers/STM32L4xx_HAL_Driver/Src/stm32l4xx_hal_ospi.c ****   }
 923:Drivers/STM32L4xx_HAL_Driver/Src/stm32l4xx_hal_ospi.c **** 
 924:Drivers/STM32L4xx_HAL_Driver/Src/stm32l4xx_hal_ospi.c ****   assert_param(IS_OSPI_INSTRUCTION_MODE(cmd->InstructionMode));
 925:Drivers/STM32L4xx_HAL_Driver/Src/stm32l4xx_hal_ospi.c ****   if (cmd->InstructionMode != HAL_OSPI_INSTRUCTION_NONE)
 926:Drivers/STM32L4xx_HAL_Driver/Src/stm32l4xx_hal_ospi.c ****   {
 927:Drivers/STM32L4xx_HAL_Driver/Src/stm32l4xx_hal_ospi.c ****     assert_param(IS_OSPI_INSTRUCTION_SIZE    (cmd->InstructionSize));
 928:Drivers/STM32L4xx_HAL_Driver/Src/stm32l4xx_hal_ospi.c ****     assert_param(IS_OSPI_INSTRUCTION_DTR_MODE(cmd->InstructionDtrMode));
 929:Drivers/STM32L4xx_HAL_Driver/Src/stm32l4xx_hal_ospi.c ****   }
 930:Drivers/STM32L4xx_HAL_Driver/Src/stm32l4xx_hal_ospi.c **** 
 931:Drivers/STM32L4xx_HAL_Driver/Src/stm32l4xx_hal_ospi.c ****   assert_param(IS_OSPI_ADDRESS_MODE(cmd->AddressMode));
 932:Drivers/STM32L4xx_HAL_Driver/Src/stm32l4xx_hal_ospi.c ****   if (cmd->AddressMode != HAL_OSPI_ADDRESS_NONE)
 933:Drivers/STM32L4xx_HAL_Driver/Src/stm32l4xx_hal_ospi.c ****   {
 934:Drivers/STM32L4xx_HAL_Driver/Src/stm32l4xx_hal_ospi.c ****     assert_param(IS_OSPI_ADDRESS_SIZE    (cmd->AddressSize));
 935:Drivers/STM32L4xx_HAL_Driver/Src/stm32l4xx_hal_ospi.c ****     assert_param(IS_OSPI_ADDRESS_DTR_MODE(cmd->AddressDtrMode));
 936:Drivers/STM32L4xx_HAL_Driver/Src/stm32l4xx_hal_ospi.c ****   }
 937:Drivers/STM32L4xx_HAL_Driver/Src/stm32l4xx_hal_ospi.c **** 
 938:Drivers/STM32L4xx_HAL_Driver/Src/stm32l4xx_hal_ospi.c ****   assert_param(IS_OSPI_ALT_BYTES_MODE(cmd->AlternateBytesMode));
 939:Drivers/STM32L4xx_HAL_Driver/Src/stm32l4xx_hal_ospi.c ****   if (cmd->AlternateBytesMode != HAL_OSPI_ALTERNATE_BYTES_NONE)
 940:Drivers/STM32L4xx_HAL_Driver/Src/stm32l4xx_hal_ospi.c ****   {
 941:Drivers/STM32L4xx_HAL_Driver/Src/stm32l4xx_hal_ospi.c ****     assert_param(IS_OSPI_ALT_BYTES_SIZE    (cmd->AlternateBytesSize));
 942:Drivers/STM32L4xx_HAL_Driver/Src/stm32l4xx_hal_ospi.c ****     assert_param(IS_OSPI_ALT_BYTES_DTR_MODE(cmd->AlternateBytesDtrMode));
 943:Drivers/STM32L4xx_HAL_Driver/Src/stm32l4xx_hal_ospi.c ****   }
 944:Drivers/STM32L4xx_HAL_Driver/Src/stm32l4xx_hal_ospi.c **** 
 945:Drivers/STM32L4xx_HAL_Driver/Src/stm32l4xx_hal_ospi.c ****   assert_param(IS_OSPI_DATA_MODE(cmd->DataMode));
 946:Drivers/STM32L4xx_HAL_Driver/Src/stm32l4xx_hal_ospi.c ****   if (cmd->DataMode != HAL_OSPI_DATA_NONE)
 947:Drivers/STM32L4xx_HAL_Driver/Src/stm32l4xx_hal_ospi.c ****   {
 948:Drivers/STM32L4xx_HAL_Driver/Src/stm32l4xx_hal_ospi.c ****     assert_param(IS_OSPI_NUMBER_DATA  (cmd->NbData));
 949:Drivers/STM32L4xx_HAL_Driver/Src/stm32l4xx_hal_ospi.c ****     assert_param(IS_OSPI_DATA_DTR_MODE(cmd->DataDtrMode));
 950:Drivers/STM32L4xx_HAL_Driver/Src/stm32l4xx_hal_ospi.c ****     assert_param(IS_OSPI_DUMMY_CYCLES (cmd->DummyCycles));
 951:Drivers/STM32L4xx_HAL_Driver/Src/stm32l4xx_hal_ospi.c ****   }
 952:Drivers/STM32L4xx_HAL_Driver/Src/stm32l4xx_hal_ospi.c **** 
 953:Drivers/STM32L4xx_HAL_Driver/Src/stm32l4xx_hal_ospi.c ****   assert_param(IS_OSPI_DQS_MODE (cmd->DQSMode));
 954:Drivers/STM32L4xx_HAL_Driver/Src/stm32l4xx_hal_ospi.c ****   assert_param(IS_OSPI_SIOO_MODE(cmd->SIOOMode));
 955:Drivers/STM32L4xx_HAL_Driver/Src/stm32l4xx_hal_ospi.c **** 
 956:Drivers/STM32L4xx_HAL_Driver/Src/stm32l4xx_hal_ospi.c ****   /* Check the state of the driver */
 957:Drivers/STM32L4xx_HAL_Driver/Src/stm32l4xx_hal_ospi.c ****   if ((hospi->State  == HAL_OSPI_STATE_READY) && (cmd->OperationType     == HAL_OSPI_OPTYPE_COMMON_
 1073              		.loc 1 957 13
 1074 0010 7B68     		ldr	r3, [r7, #4]
 1075 0012 DB6C     		ldr	r3, [r3, #76]
 1076              		.loc 1 957 6
 1077 0014 022B     		cmp	r3, #2
 1078 0016 36D1     		bne	.L55
 1079              		.loc 1 957 54 discriminator 1
 1080 0018 3B68     		ldr	r3, [r7]
 1081 001a 1B68     		ldr	r3, [r3]
 1082              		.loc 1 957 47 discriminator 1
 1083 001c 002B     		cmp	r3, #0
 1084 001e 32D1     		bne	.L55
 958:Drivers/STM32L4xx_HAL_Driver/Src/stm32l4xx_hal_ospi.c ****       (cmd->DataMode == HAL_OSPI_DATA_NONE)   && (hospi->Init.MemoryType != HAL_OSPI_MEMTYPE_HYPERB
 1085              		.loc 1 958 11 discriminator 2
 1086 0020 3B68     		ldr	r3, [r7]
 1087 0022 9B6B     		ldr	r3, [r3, #56]
ARM GAS  C:\Users\Morroway\AppData\Local\Temp\ccxQAUQ3.s 			page 37


 957:Drivers/STM32L4xx_HAL_Driver/Src/stm32l4xx_hal_ospi.c ****       (cmd->DataMode == HAL_OSPI_DATA_NONE)   && (hospi->Init.MemoryType != HAL_OSPI_MEMTYPE_HYPERB
 1088              		.loc 1 957 105 discriminator 2
 1089 0024 002B     		cmp	r3, #0
 1090 0026 2ED1     		bne	.L55
 1091              		.loc 1 958 62
 1092 0028 7B68     		ldr	r3, [r7, #4]
 1093 002a DB68     		ldr	r3, [r3, #12]
 1094              		.loc 1 958 47
 1095 002c B3F1806F 		cmp	r3, #67108864
 1096 0030 29D0     		beq	.L55
 959:Drivers/STM32L4xx_HAL_Driver/Src/stm32l4xx_hal_ospi.c ****   {
 960:Drivers/STM32L4xx_HAL_Driver/Src/stm32l4xx_hal_ospi.c ****     /* Wait till busy flag is reset */
 961:Drivers/STM32L4xx_HAL_Driver/Src/stm32l4xx_hal_ospi.c ****     status = OSPI_WaitFlagStateUntilTimeout(hospi, HAL_OSPI_FLAG_BUSY, RESET, tickstart, hospi->Tim
 1097              		.loc 1 961 14
 1098 0032 7B68     		ldr	r3, [r7, #4]
 1099 0034 5B6D     		ldr	r3, [r3, #84]
 1100 0036 0093     		str	r3, [sp]
 1101 0038 BB68     		ldr	r3, [r7, #8]
 1102 003a 0022     		movs	r2, #0
 1103 003c 2021     		movs	r1, #32
 1104 003e 7868     		ldr	r0, [r7, #4]
 1105 0040 FFF7FEFF 		bl	OSPI_WaitFlagStateUntilTimeout
 1106 0044 0346     		mov	r3, r0
 1107 0046 FB73     		strb	r3, [r7, #15]
 962:Drivers/STM32L4xx_HAL_Driver/Src/stm32l4xx_hal_ospi.c **** 
 963:Drivers/STM32L4xx_HAL_Driver/Src/stm32l4xx_hal_ospi.c ****     if (status == HAL_OK)
 1108              		.loc 1 963 8
 1109 0048 FB7B     		ldrb	r3, [r7, #15]	@ zero_extendqisi2
 1110 004a 002B     		cmp	r3, #0
 1111 004c 21D1     		bne	.L59
 964:Drivers/STM32L4xx_HAL_Driver/Src/stm32l4xx_hal_ospi.c ****     {
 965:Drivers/STM32L4xx_HAL_Driver/Src/stm32l4xx_hal_ospi.c ****       /* Initialize error code */
 966:Drivers/STM32L4xx_HAL_Driver/Src/stm32l4xx_hal_ospi.c ****       hospi->ErrorCode = HAL_OSPI_ERROR_NONE;
 1112              		.loc 1 966 24
 1113 004e 7B68     		ldr	r3, [r7, #4]
 1114 0050 0022     		movs	r2, #0
 1115 0052 1A65     		str	r2, [r3, #80]
 967:Drivers/STM32L4xx_HAL_Driver/Src/stm32l4xx_hal_ospi.c **** 
 968:Drivers/STM32L4xx_HAL_Driver/Src/stm32l4xx_hal_ospi.c ****       /* Clear flags related to interrupt */
 969:Drivers/STM32L4xx_HAL_Driver/Src/stm32l4xx_hal_ospi.c ****       __HAL_OSPI_CLEAR_FLAG(hospi, HAL_OSPI_FLAG_TE | HAL_OSPI_FLAG_TC);
 1116              		.loc 1 969 7
 1117 0054 7B68     		ldr	r3, [r7, #4]
 1118 0056 1B68     		ldr	r3, [r3]
 1119 0058 0322     		movs	r2, #3
 1120 005a 5A62     		str	r2, [r3, #36]
 970:Drivers/STM32L4xx_HAL_Driver/Src/stm32l4xx_hal_ospi.c **** 
 971:Drivers/STM32L4xx_HAL_Driver/Src/stm32l4xx_hal_ospi.c ****       /* Configure the registers */
 972:Drivers/STM32L4xx_HAL_Driver/Src/stm32l4xx_hal_ospi.c ****       status = OSPI_ConfigCmd(hospi, cmd);
 1121              		.loc 1 972 16
 1122 005c 3968     		ldr	r1, [r7]
 1123 005e 7868     		ldr	r0, [r7, #4]
 1124 0060 FFF7FEFF 		bl	OSPI_ConfigCmd
 1125 0064 0346     		mov	r3, r0
 1126 0066 FB73     		strb	r3, [r7, #15]
 973:Drivers/STM32L4xx_HAL_Driver/Src/stm32l4xx_hal_ospi.c **** 
 974:Drivers/STM32L4xx_HAL_Driver/Src/stm32l4xx_hal_ospi.c ****       if (status == HAL_OK)
 1127              		.loc 1 974 10
ARM GAS  C:\Users\Morroway\AppData\Local\Temp\ccxQAUQ3.s 			page 38


 1128 0068 FB7B     		ldrb	r3, [r7, #15]	@ zero_extendqisi2
 1129 006a 002B     		cmp	r3, #0
 1130 006c 11D1     		bne	.L59
 975:Drivers/STM32L4xx_HAL_Driver/Src/stm32l4xx_hal_ospi.c ****       {
 976:Drivers/STM32L4xx_HAL_Driver/Src/stm32l4xx_hal_ospi.c ****         /* Update the state */
 977:Drivers/STM32L4xx_HAL_Driver/Src/stm32l4xx_hal_ospi.c ****           hospi->State = HAL_OSPI_STATE_BUSY_CMD;
 1131              		.loc 1 977 24
 1132 006e 7B68     		ldr	r3, [r7, #4]
 1133 0070 0822     		movs	r2, #8
 1134 0072 DA64     		str	r2, [r3, #76]
 978:Drivers/STM32L4xx_HAL_Driver/Src/stm32l4xx_hal_ospi.c **** 
 979:Drivers/STM32L4xx_HAL_Driver/Src/stm32l4xx_hal_ospi.c ****         /* Enable the transfer complete and transfer error interrupts */
 980:Drivers/STM32L4xx_HAL_Driver/Src/stm32l4xx_hal_ospi.c ****         __HAL_OSPI_ENABLE_IT(hospi, HAL_OSPI_IT_TC | HAL_OSPI_IT_TE);
 1135              		.loc 1 980 9
 1136 0074 7B68     		ldr	r3, [r7, #4]
 1137 0076 1B68     		ldr	r3, [r3]
 1138 0078 1A68     		ldr	r2, [r3]
 1139 007a 7B68     		ldr	r3, [r7, #4]
 1140 007c 1B68     		ldr	r3, [r3]
 1141 007e 42F44032 		orr	r2, r2, #196608
 1142 0082 1A60     		str	r2, [r3]
 963:Drivers/STM32L4xx_HAL_Driver/Src/stm32l4xx_hal_ospi.c ****     {
 1143              		.loc 1 963 8
 1144 0084 05E0     		b	.L59
 1145              	.L55:
 981:Drivers/STM32L4xx_HAL_Driver/Src/stm32l4xx_hal_ospi.c ****       }
 982:Drivers/STM32L4xx_HAL_Driver/Src/stm32l4xx_hal_ospi.c ****     }
 983:Drivers/STM32L4xx_HAL_Driver/Src/stm32l4xx_hal_ospi.c ****   }
 984:Drivers/STM32L4xx_HAL_Driver/Src/stm32l4xx_hal_ospi.c ****   else
 985:Drivers/STM32L4xx_HAL_Driver/Src/stm32l4xx_hal_ospi.c ****   {
 986:Drivers/STM32L4xx_HAL_Driver/Src/stm32l4xx_hal_ospi.c ****     status = HAL_ERROR;
 1146              		.loc 1 986 12
 1147 0086 0123     		movs	r3, #1
 1148 0088 FB73     		strb	r3, [r7, #15]
 987:Drivers/STM32L4xx_HAL_Driver/Src/stm32l4xx_hal_ospi.c ****     hospi->ErrorCode = HAL_OSPI_ERROR_INVALID_SEQUENCE;
 1149              		.loc 1 987 22
 1150 008a 7B68     		ldr	r3, [r7, #4]
 1151 008c 1022     		movs	r2, #16
 1152 008e 1A65     		str	r2, [r3, #80]
 1153 0090 00E0     		b	.L57
 1154              	.L59:
 963:Drivers/STM32L4xx_HAL_Driver/Src/stm32l4xx_hal_ospi.c ****     {
 1155              		.loc 1 963 8
 1156 0092 00BF     		nop
 1157              	.L57:
 988:Drivers/STM32L4xx_HAL_Driver/Src/stm32l4xx_hal_ospi.c ****   }
 989:Drivers/STM32L4xx_HAL_Driver/Src/stm32l4xx_hal_ospi.c **** 
 990:Drivers/STM32L4xx_HAL_Driver/Src/stm32l4xx_hal_ospi.c ****   /* Return function status */
 991:Drivers/STM32L4xx_HAL_Driver/Src/stm32l4xx_hal_ospi.c ****   return status;
 1158              		.loc 1 991 10
 1159 0094 FB7B     		ldrb	r3, [r7, #15]	@ zero_extendqisi2
 992:Drivers/STM32L4xx_HAL_Driver/Src/stm32l4xx_hal_ospi.c **** }
 1160              		.loc 1 992 1
 1161 0096 1846     		mov	r0, r3
 1162 0098 1037     		adds	r7, r7, #16
 1163              		.cfi_def_cfa_offset 8
 1164 009a BD46     		mov	sp, r7
ARM GAS  C:\Users\Morroway\AppData\Local\Temp\ccxQAUQ3.s 			page 39


 1165              		.cfi_def_cfa_register 13
 1166              		@ sp needed
 1167 009c 80BD     		pop	{r7, pc}
 1168              		.cfi_endproc
 1169              	.LFE327:
 1171              		.section	.text.HAL_OSPI_HyperbusCfg,"ax",%progbits
 1172              		.align	1
 1173              		.global	HAL_OSPI_HyperbusCfg
 1174              		.syntax unified
 1175              		.thumb
 1176              		.thumb_func
 1178              	HAL_OSPI_HyperbusCfg:
 1179              	.LFB328:
 993:Drivers/STM32L4xx_HAL_Driver/Src/stm32l4xx_hal_ospi.c **** 
 994:Drivers/STM32L4xx_HAL_Driver/Src/stm32l4xx_hal_ospi.c **** /**
 995:Drivers/STM32L4xx_HAL_Driver/Src/stm32l4xx_hal_ospi.c ****   * @brief  Configure the Hyperbus parameters.
 996:Drivers/STM32L4xx_HAL_Driver/Src/stm32l4xx_hal_ospi.c ****   * @param  hospi   : OSPI handle
 997:Drivers/STM32L4xx_HAL_Driver/Src/stm32l4xx_hal_ospi.c ****   * @param  cfg     : Structure containing the Hyperbus configuration
 998:Drivers/STM32L4xx_HAL_Driver/Src/stm32l4xx_hal_ospi.c ****   * @param  Timeout : Timeout duration
 999:Drivers/STM32L4xx_HAL_Driver/Src/stm32l4xx_hal_ospi.c ****   * @retval HAL status
1000:Drivers/STM32L4xx_HAL_Driver/Src/stm32l4xx_hal_ospi.c ****   */
1001:Drivers/STM32L4xx_HAL_Driver/Src/stm32l4xx_hal_ospi.c **** HAL_StatusTypeDef HAL_OSPI_HyperbusCfg(OSPI_HandleTypeDef *hospi, OSPI_HyperbusCfgTypeDef *cfg, uin
1002:Drivers/STM32L4xx_HAL_Driver/Src/stm32l4xx_hal_ospi.c **** {
 1180              		.loc 1 1002 1
 1181              		.cfi_startproc
 1182              		@ args = 0, pretend = 0, frame = 32
 1183              		@ frame_needed = 1, uses_anonymous_args = 0
 1184 0000 80B5     		push	{r7, lr}
 1185              		.cfi_def_cfa_offset 8
 1186              		.cfi_offset 7, -8
 1187              		.cfi_offset 14, -4
 1188 0002 8AB0     		sub	sp, sp, #40
 1189              		.cfi_def_cfa_offset 48
 1190 0004 02AF     		add	r7, sp, #8
 1191              		.cfi_def_cfa 7, 40
 1192 0006 F860     		str	r0, [r7, #12]
 1193 0008 B960     		str	r1, [r7, #8]
 1194 000a 7A60     		str	r2, [r7, #4]
1003:Drivers/STM32L4xx_HAL_Driver/Src/stm32l4xx_hal_ospi.c ****   HAL_StatusTypeDef status;
1004:Drivers/STM32L4xx_HAL_Driver/Src/stm32l4xx_hal_ospi.c ****   uint32_t state;
1005:Drivers/STM32L4xx_HAL_Driver/Src/stm32l4xx_hal_ospi.c ****   uint32_t tickstart = HAL_GetTick();
 1195              		.loc 1 1005 24
 1196 000c FFF7FEFF 		bl	HAL_GetTick
 1197 0010 B861     		str	r0, [r7, #24]
1006:Drivers/STM32L4xx_HAL_Driver/Src/stm32l4xx_hal_ospi.c **** 
1007:Drivers/STM32L4xx_HAL_Driver/Src/stm32l4xx_hal_ospi.c ****   /* Check the parameters of the hyperbus configuration structure */
1008:Drivers/STM32L4xx_HAL_Driver/Src/stm32l4xx_hal_ospi.c ****   assert_param(IS_OSPI_RW_RECOVERY_TIME  (cfg->RWRecoveryTime));
1009:Drivers/STM32L4xx_HAL_Driver/Src/stm32l4xx_hal_ospi.c ****   assert_param(IS_OSPI_ACCESS_TIME       (cfg->AccessTime));
1010:Drivers/STM32L4xx_HAL_Driver/Src/stm32l4xx_hal_ospi.c ****   assert_param(IS_OSPI_WRITE_ZERO_LATENCY(cfg->WriteZeroLatency));
1011:Drivers/STM32L4xx_HAL_Driver/Src/stm32l4xx_hal_ospi.c ****   assert_param(IS_OSPI_LATENCY_MODE      (cfg->LatencyMode));
1012:Drivers/STM32L4xx_HAL_Driver/Src/stm32l4xx_hal_ospi.c **** 
1013:Drivers/STM32L4xx_HAL_Driver/Src/stm32l4xx_hal_ospi.c ****   /* Check the state of the driver */
1014:Drivers/STM32L4xx_HAL_Driver/Src/stm32l4xx_hal_ospi.c ****   state = hospi->State;
 1198              		.loc 1 1014 9
 1199 0012 FB68     		ldr	r3, [r7, #12]
 1200 0014 DB6C     		ldr	r3, [r3, #76]
 1201 0016 7B61     		str	r3, [r7, #20]
ARM GAS  C:\Users\Morroway\AppData\Local\Temp\ccxQAUQ3.s 			page 40


1015:Drivers/STM32L4xx_HAL_Driver/Src/stm32l4xx_hal_ospi.c ****   if ((state == HAL_OSPI_STATE_HYPERBUS_INIT) || (state == HAL_OSPI_STATE_READY))
 1202              		.loc 1 1015 6
 1203 0018 7B69     		ldr	r3, [r7, #20]
 1204 001a 012B     		cmp	r3, #1
 1205 001c 02D0     		beq	.L61
 1206              		.loc 1 1015 47 discriminator 1
 1207 001e 7B69     		ldr	r3, [r7, #20]
 1208 0020 022B     		cmp	r3, #2
 1209 0022 22D1     		bne	.L62
 1210              	.L61:
1016:Drivers/STM32L4xx_HAL_Driver/Src/stm32l4xx_hal_ospi.c ****   {
1017:Drivers/STM32L4xx_HAL_Driver/Src/stm32l4xx_hal_ospi.c ****     /* Wait till busy flag is reset */
1018:Drivers/STM32L4xx_HAL_Driver/Src/stm32l4xx_hal_ospi.c ****     status = OSPI_WaitFlagStateUntilTimeout(hospi, HAL_OSPI_FLAG_BUSY, RESET, tickstart, Timeout);
 1211              		.loc 1 1018 14
 1212 0024 7B68     		ldr	r3, [r7, #4]
 1213 0026 0093     		str	r3, [sp]
 1214 0028 BB69     		ldr	r3, [r7, #24]
 1215 002a 0022     		movs	r2, #0
 1216 002c 2021     		movs	r1, #32
 1217 002e F868     		ldr	r0, [r7, #12]
 1218 0030 FFF7FEFF 		bl	OSPI_WaitFlagStateUntilTimeout
 1219 0034 0346     		mov	r3, r0
 1220 0036 FB77     		strb	r3, [r7, #31]
1019:Drivers/STM32L4xx_HAL_Driver/Src/stm32l4xx_hal_ospi.c **** 
1020:Drivers/STM32L4xx_HAL_Driver/Src/stm32l4xx_hal_ospi.c ****     if (status == HAL_OK)
 1221              		.loc 1 1020 8
 1222 0038 FB7F     		ldrb	r3, [r7, #31]	@ zero_extendqisi2
 1223 003a 002B     		cmp	r3, #0
 1224 003c 1AD1     		bne	.L64
1021:Drivers/STM32L4xx_HAL_Driver/Src/stm32l4xx_hal_ospi.c ****     {
1022:Drivers/STM32L4xx_HAL_Driver/Src/stm32l4xx_hal_ospi.c ****       /* Configure Hyperbus configuration Latency register */
1023:Drivers/STM32L4xx_HAL_Driver/Src/stm32l4xx_hal_ospi.c ****       WRITE_REG(hospi->Instance->HLCR, ((cfg->RWRecoveryTime << OCTOSPI_HLCR_TRWR_Pos) |
 1225              		.loc 1 1023 7
 1226 003e BB68     		ldr	r3, [r7, #8]
 1227 0040 1B68     		ldr	r3, [r3]
 1228 0042 1A04     		lsls	r2, r3, #16
 1229 0044 BB68     		ldr	r3, [r7, #8]
 1230 0046 5B68     		ldr	r3, [r3, #4]
 1231 0048 1B02     		lsls	r3, r3, #8
 1232 004a 1A43     		orrs	r2, r2, r3
 1233 004c BB68     		ldr	r3, [r7, #8]
 1234 004e 9B68     		ldr	r3, [r3, #8]
 1235 0050 42EA0301 		orr	r1, r2, r3
 1236 0054 BB68     		ldr	r3, [r7, #8]
 1237 0056 DA68     		ldr	r2, [r3, #12]
 1238 0058 FB68     		ldr	r3, [r7, #12]
 1239 005a 1B68     		ldr	r3, [r3]
 1240 005c 0A43     		orrs	r2, r2, r1
 1241 005e C3F80022 		str	r2, [r3, #512]
1024:Drivers/STM32L4xx_HAL_Driver/Src/stm32l4xx_hal_ospi.c ****                                         (cfg->AccessTime << OCTOSPI_HLCR_TACC_Pos)     |
1025:Drivers/STM32L4xx_HAL_Driver/Src/stm32l4xx_hal_ospi.c ****                                         cfg->WriteZeroLatency | cfg->LatencyMode));
1026:Drivers/STM32L4xx_HAL_Driver/Src/stm32l4xx_hal_ospi.c **** 
1027:Drivers/STM32L4xx_HAL_Driver/Src/stm32l4xx_hal_ospi.c ****       /* Update the state */
1028:Drivers/STM32L4xx_HAL_Driver/Src/stm32l4xx_hal_ospi.c ****       hospi->State = HAL_OSPI_STATE_READY;
 1242              		.loc 1 1028 20
 1243 0062 FB68     		ldr	r3, [r7, #12]
 1244 0064 0222     		movs	r2, #2
ARM GAS  C:\Users\Morroway\AppData\Local\Temp\ccxQAUQ3.s 			page 41


 1245 0066 DA64     		str	r2, [r3, #76]
1020:Drivers/STM32L4xx_HAL_Driver/Src/stm32l4xx_hal_ospi.c ****     {
 1246              		.loc 1 1020 8
 1247 0068 04E0     		b	.L64
 1248              	.L62:
1029:Drivers/STM32L4xx_HAL_Driver/Src/stm32l4xx_hal_ospi.c ****     }
1030:Drivers/STM32L4xx_HAL_Driver/Src/stm32l4xx_hal_ospi.c ****   }
1031:Drivers/STM32L4xx_HAL_Driver/Src/stm32l4xx_hal_ospi.c ****   else
1032:Drivers/STM32L4xx_HAL_Driver/Src/stm32l4xx_hal_ospi.c ****   {
1033:Drivers/STM32L4xx_HAL_Driver/Src/stm32l4xx_hal_ospi.c ****     status = HAL_ERROR;
 1249              		.loc 1 1033 12
 1250 006a 0123     		movs	r3, #1
 1251 006c FB77     		strb	r3, [r7, #31]
1034:Drivers/STM32L4xx_HAL_Driver/Src/stm32l4xx_hal_ospi.c ****     hospi->ErrorCode = HAL_OSPI_ERROR_INVALID_SEQUENCE;
 1252              		.loc 1 1034 22
 1253 006e FB68     		ldr	r3, [r7, #12]
 1254 0070 1022     		movs	r2, #16
 1255 0072 1A65     		str	r2, [r3, #80]
 1256              	.L64:
1035:Drivers/STM32L4xx_HAL_Driver/Src/stm32l4xx_hal_ospi.c ****   }
1036:Drivers/STM32L4xx_HAL_Driver/Src/stm32l4xx_hal_ospi.c **** 
1037:Drivers/STM32L4xx_HAL_Driver/Src/stm32l4xx_hal_ospi.c ****   /* Return function status */
1038:Drivers/STM32L4xx_HAL_Driver/Src/stm32l4xx_hal_ospi.c ****   return status;
 1257              		.loc 1 1038 10
 1258 0074 FB7F     		ldrb	r3, [r7, #31]	@ zero_extendqisi2
1039:Drivers/STM32L4xx_HAL_Driver/Src/stm32l4xx_hal_ospi.c **** }
 1259              		.loc 1 1039 1
 1260 0076 1846     		mov	r0, r3
 1261 0078 2037     		adds	r7, r7, #32
 1262              		.cfi_def_cfa_offset 8
 1263 007a BD46     		mov	sp, r7
 1264              		.cfi_def_cfa_register 13
 1265              		@ sp needed
 1266 007c 80BD     		pop	{r7, pc}
 1267              		.cfi_endproc
 1268              	.LFE328:
 1270              		.section	.text.HAL_OSPI_HyperbusCmd,"ax",%progbits
 1271              		.align	1
 1272              		.global	HAL_OSPI_HyperbusCmd
 1273              		.syntax unified
 1274              		.thumb
 1275              		.thumb_func
 1277              	HAL_OSPI_HyperbusCmd:
 1278              	.LFB329:
1040:Drivers/STM32L4xx_HAL_Driver/Src/stm32l4xx_hal_ospi.c **** 
1041:Drivers/STM32L4xx_HAL_Driver/Src/stm32l4xx_hal_ospi.c **** /**
1042:Drivers/STM32L4xx_HAL_Driver/Src/stm32l4xx_hal_ospi.c ****   * @brief  Set the Hyperbus command configuration.
1043:Drivers/STM32L4xx_HAL_Driver/Src/stm32l4xx_hal_ospi.c ****   * @param  hospi   : OSPI handle
1044:Drivers/STM32L4xx_HAL_Driver/Src/stm32l4xx_hal_ospi.c ****   * @param  cmd     : Structure containing the Hyperbus command
1045:Drivers/STM32L4xx_HAL_Driver/Src/stm32l4xx_hal_ospi.c ****   * @param  Timeout : Timeout duration
1046:Drivers/STM32L4xx_HAL_Driver/Src/stm32l4xx_hal_ospi.c ****   * @retval HAL status
1047:Drivers/STM32L4xx_HAL_Driver/Src/stm32l4xx_hal_ospi.c ****   */
1048:Drivers/STM32L4xx_HAL_Driver/Src/stm32l4xx_hal_ospi.c **** HAL_StatusTypeDef HAL_OSPI_HyperbusCmd(OSPI_HandleTypeDef *hospi, OSPI_HyperbusCmdTypeDef *cmd, uin
1049:Drivers/STM32L4xx_HAL_Driver/Src/stm32l4xx_hal_ospi.c **** {
 1279              		.loc 1 1049 1
 1280              		.cfi_startproc
 1281              		@ args = 0, pretend = 0, frame = 24
ARM GAS  C:\Users\Morroway\AppData\Local\Temp\ccxQAUQ3.s 			page 42


 1282              		@ frame_needed = 1, uses_anonymous_args = 0
 1283 0000 80B5     		push	{r7, lr}
 1284              		.cfi_def_cfa_offset 8
 1285              		.cfi_offset 7, -8
 1286              		.cfi_offset 14, -4
 1287 0002 88B0     		sub	sp, sp, #32
 1288              		.cfi_def_cfa_offset 40
 1289 0004 02AF     		add	r7, sp, #8
 1290              		.cfi_def_cfa 7, 32
 1291 0006 F860     		str	r0, [r7, #12]
 1292 0008 B960     		str	r1, [r7, #8]
 1293 000a 7A60     		str	r2, [r7, #4]
1050:Drivers/STM32L4xx_HAL_Driver/Src/stm32l4xx_hal_ospi.c ****   HAL_StatusTypeDef status;
1051:Drivers/STM32L4xx_HAL_Driver/Src/stm32l4xx_hal_ospi.c ****   uint32_t tickstart = HAL_GetTick();
 1294              		.loc 1 1051 24
 1295 000c FFF7FEFF 		bl	HAL_GetTick
 1296 0010 3861     		str	r0, [r7, #16]
1052:Drivers/STM32L4xx_HAL_Driver/Src/stm32l4xx_hal_ospi.c **** 
1053:Drivers/STM32L4xx_HAL_Driver/Src/stm32l4xx_hal_ospi.c ****   /* Check the parameters of the hyperbus command structure */
1054:Drivers/STM32L4xx_HAL_Driver/Src/stm32l4xx_hal_ospi.c ****   assert_param(IS_OSPI_ADDRESS_SPACE(cmd->AddressSpace));
1055:Drivers/STM32L4xx_HAL_Driver/Src/stm32l4xx_hal_ospi.c ****   assert_param(IS_OSPI_ADDRESS_SIZE (cmd->AddressSize));
1056:Drivers/STM32L4xx_HAL_Driver/Src/stm32l4xx_hal_ospi.c ****   assert_param(IS_OSPI_NUMBER_DATA  (cmd->NbData));
1057:Drivers/STM32L4xx_HAL_Driver/Src/stm32l4xx_hal_ospi.c ****   assert_param(IS_OSPI_DQS_MODE     (cmd->DQSMode));
1058:Drivers/STM32L4xx_HAL_Driver/Src/stm32l4xx_hal_ospi.c **** 
1059:Drivers/STM32L4xx_HAL_Driver/Src/stm32l4xx_hal_ospi.c ****   /* Check the state of the driver */
1060:Drivers/STM32L4xx_HAL_Driver/Src/stm32l4xx_hal_ospi.c ****   if ((hospi->State == HAL_OSPI_STATE_READY) && (hospi->Init.MemoryType == HAL_OSPI_MEMTYPE_HYPERBU
 1297              		.loc 1 1060 13
 1298 0012 FB68     		ldr	r3, [r7, #12]
 1299 0014 DB6C     		ldr	r3, [r3, #76]
 1300              		.loc 1 1060 6
 1301 0016 022B     		cmp	r3, #2
 1302 0018 49D1     		bne	.L67
 1303              		.loc 1 1060 61 discriminator 1
 1304 001a FB68     		ldr	r3, [r7, #12]
 1305 001c DB68     		ldr	r3, [r3, #12]
 1306              		.loc 1 1060 46 discriminator 1
 1307 001e B3F1806F 		cmp	r3, #67108864
 1308 0022 44D1     		bne	.L67
1061:Drivers/STM32L4xx_HAL_Driver/Src/stm32l4xx_hal_ospi.c ****   {
1062:Drivers/STM32L4xx_HAL_Driver/Src/stm32l4xx_hal_ospi.c ****     /* Wait till busy flag is reset */
1063:Drivers/STM32L4xx_HAL_Driver/Src/stm32l4xx_hal_ospi.c ****     status = OSPI_WaitFlagStateUntilTimeout(hospi, HAL_OSPI_FLAG_BUSY, RESET, tickstart, Timeout);
 1309              		.loc 1 1063 14
 1310 0024 7B68     		ldr	r3, [r7, #4]
 1311 0026 0093     		str	r3, [sp]
 1312 0028 3B69     		ldr	r3, [r7, #16]
 1313 002a 0022     		movs	r2, #0
 1314 002c 2021     		movs	r1, #32
 1315 002e F868     		ldr	r0, [r7, #12]
 1316 0030 FFF7FEFF 		bl	OSPI_WaitFlagStateUntilTimeout
 1317 0034 0346     		mov	r3, r0
 1318 0036 FB75     		strb	r3, [r7, #23]
1064:Drivers/STM32L4xx_HAL_Driver/Src/stm32l4xx_hal_ospi.c **** 
1065:Drivers/STM32L4xx_HAL_Driver/Src/stm32l4xx_hal_ospi.c ****     if (status == HAL_OK)
 1319              		.loc 1 1065 8
 1320 0038 FB7D     		ldrb	r3, [r7, #23]	@ zero_extendqisi2
 1321 003a 002B     		cmp	r3, #0
 1322 003c 3CD1     		bne	.L69
ARM GAS  C:\Users\Morroway\AppData\Local\Temp\ccxQAUQ3.s 			page 43


1066:Drivers/STM32L4xx_HAL_Driver/Src/stm32l4xx_hal_ospi.c ****     {
1067:Drivers/STM32L4xx_HAL_Driver/Src/stm32l4xx_hal_ospi.c ****       /* Re-initialize the value of the functional mode */
1068:Drivers/STM32L4xx_HAL_Driver/Src/stm32l4xx_hal_ospi.c ****       MODIFY_REG(hospi->Instance->CR, OCTOSPI_CR_FMODE, 0U);
 1323              		.loc 1 1068 7
 1324 003e FB68     		ldr	r3, [r7, #12]
 1325 0040 1B68     		ldr	r3, [r3]
 1326 0042 1A68     		ldr	r2, [r3]
 1327 0044 FB68     		ldr	r3, [r7, #12]
 1328 0046 1B68     		ldr	r3, [r3]
 1329 0048 22F04052 		bic	r2, r2, #805306368
 1330 004c 1A60     		str	r2, [r3]
1069:Drivers/STM32L4xx_HAL_Driver/Src/stm32l4xx_hal_ospi.c **** 
1070:Drivers/STM32L4xx_HAL_Driver/Src/stm32l4xx_hal_ospi.c ****       /* Configure the address space in the DCR1 register */
1071:Drivers/STM32L4xx_HAL_Driver/Src/stm32l4xx_hal_ospi.c ****       MODIFY_REG(hospi->Instance->DCR1, OCTOSPI_DCR1_MTYP_0, cmd->AddressSpace);
 1331              		.loc 1 1071 7
 1332 004e FB68     		ldr	r3, [r7, #12]
 1333 0050 1B68     		ldr	r3, [r3]
 1334 0052 9B68     		ldr	r3, [r3, #8]
 1335 0054 23F08071 		bic	r1, r3, #16777216
 1336 0058 BB68     		ldr	r3, [r7, #8]
 1337 005a 1A68     		ldr	r2, [r3]
 1338 005c FB68     		ldr	r3, [r7, #12]
 1339 005e 1B68     		ldr	r3, [r3]
 1340 0060 0A43     		orrs	r2, r2, r1
 1341 0062 9A60     		str	r2, [r3, #8]
1072:Drivers/STM32L4xx_HAL_Driver/Src/stm32l4xx_hal_ospi.c **** 
1073:Drivers/STM32L4xx_HAL_Driver/Src/stm32l4xx_hal_ospi.c ****       /* Configure the CCR and WCCR registers with the address size and the following configuration
1074:Drivers/STM32L4xx_HAL_Driver/Src/stm32l4xx_hal_ospi.c ****          - DQS signal enabled (used as RWDS)
1075:Drivers/STM32L4xx_HAL_Driver/Src/stm32l4xx_hal_ospi.c ****          - DTR mode enabled on address and data
1076:Drivers/STM32L4xx_HAL_Driver/Src/stm32l4xx_hal_ospi.c ****          - address and data on 8 lines */
1077:Drivers/STM32L4xx_HAL_Driver/Src/stm32l4xx_hal_ospi.c ****       WRITE_REG(hospi->Instance->CCR, (cmd->DQSMode | OCTOSPI_CCR_DDTR | OCTOSPI_CCR_DMODE_2 |
 1342              		.loc 1 1077 7
 1343 0064 BB68     		ldr	r3, [r7, #8]
 1344 0066 1A69     		ldr	r2, [r3, #16]
 1345 0068 BB68     		ldr	r3, [r7, #8]
 1346 006a 9B68     		ldr	r3, [r3, #8]
 1347 006c 1A43     		orrs	r2, r2, r3
 1348 006e FB68     		ldr	r3, [r7, #12]
 1349 0070 1B68     		ldr	r3, [r3]
 1350 0072 42F00C22 		orr	r2, r2, #201329664
 1351 0076 C3F80021 		str	r2, [r3, #256]
1078:Drivers/STM32L4xx_HAL_Driver/Src/stm32l4xx_hal_ospi.c ****                                        cmd->AddressSize | OCTOSPI_CCR_ADDTR | OCTOSPI_CCR_ADMODE_2)
1079:Drivers/STM32L4xx_HAL_Driver/Src/stm32l4xx_hal_ospi.c ****       WRITE_REG(hospi->Instance->WCCR, (cmd->DQSMode | OCTOSPI_WCCR_DDTR | OCTOSPI_WCCR_DMODE_2 |
 1352              		.loc 1 1079 7
 1353 007a BB68     		ldr	r3, [r7, #8]
 1354 007c 1A69     		ldr	r2, [r3, #16]
 1355 007e BB68     		ldr	r3, [r7, #8]
 1356 0080 9B68     		ldr	r3, [r3, #8]
 1357 0082 1A43     		orrs	r2, r2, r3
 1358 0084 FB68     		ldr	r3, [r7, #12]
 1359 0086 1B68     		ldr	r3, [r3]
 1360 0088 42F00C22 		orr	r2, r2, #201329664
 1361 008c C3F88021 		str	r2, [r3, #384]
1080:Drivers/STM32L4xx_HAL_Driver/Src/stm32l4xx_hal_ospi.c ****                                         cmd->AddressSize | OCTOSPI_WCCR_ADDTR | OCTOSPI_WCCR_ADMODE
1081:Drivers/STM32L4xx_HAL_Driver/Src/stm32l4xx_hal_ospi.c **** 
1082:Drivers/STM32L4xx_HAL_Driver/Src/stm32l4xx_hal_ospi.c ****       /* Configure the DLR register with the number of data */
1083:Drivers/STM32L4xx_HAL_Driver/Src/stm32l4xx_hal_ospi.c ****       WRITE_REG(hospi->Instance->DLR, (cmd->NbData - 1U));
ARM GAS  C:\Users\Morroway\AppData\Local\Temp\ccxQAUQ3.s 			page 44


 1362              		.loc 1 1083 7
 1363 0090 BB68     		ldr	r3, [r7, #8]
 1364 0092 DA68     		ldr	r2, [r3, #12]
 1365 0094 FB68     		ldr	r3, [r7, #12]
 1366 0096 1B68     		ldr	r3, [r3]
 1367 0098 013A     		subs	r2, r2, #1
 1368 009a 1A64     		str	r2, [r3, #64]
1084:Drivers/STM32L4xx_HAL_Driver/Src/stm32l4xx_hal_ospi.c **** 
1085:Drivers/STM32L4xx_HAL_Driver/Src/stm32l4xx_hal_ospi.c ****       /* Configure the AR register with the address value */
1086:Drivers/STM32L4xx_HAL_Driver/Src/stm32l4xx_hal_ospi.c ****       WRITE_REG(hospi->Instance->AR, cmd->Address);
 1369              		.loc 1 1086 7
 1370 009c FB68     		ldr	r3, [r7, #12]
 1371 009e 1B68     		ldr	r3, [r3]
 1372 00a0 BA68     		ldr	r2, [r7, #8]
 1373 00a2 5268     		ldr	r2, [r2, #4]
 1374 00a4 9A64     		str	r2, [r3, #72]
1087:Drivers/STM32L4xx_HAL_Driver/Src/stm32l4xx_hal_ospi.c **** 
1088:Drivers/STM32L4xx_HAL_Driver/Src/stm32l4xx_hal_ospi.c ****       /* Update the state */
1089:Drivers/STM32L4xx_HAL_Driver/Src/stm32l4xx_hal_ospi.c ****       hospi->State = HAL_OSPI_STATE_CMD_CFG;
 1375              		.loc 1 1089 20
 1376 00a6 FB68     		ldr	r3, [r7, #12]
 1377 00a8 0422     		movs	r2, #4
 1378 00aa DA64     		str	r2, [r3, #76]
1065:Drivers/STM32L4xx_HAL_Driver/Src/stm32l4xx_hal_ospi.c ****     {
 1379              		.loc 1 1065 8
 1380 00ac 04E0     		b	.L69
 1381              	.L67:
1090:Drivers/STM32L4xx_HAL_Driver/Src/stm32l4xx_hal_ospi.c ****     }
1091:Drivers/STM32L4xx_HAL_Driver/Src/stm32l4xx_hal_ospi.c ****   }
1092:Drivers/STM32L4xx_HAL_Driver/Src/stm32l4xx_hal_ospi.c ****   else
1093:Drivers/STM32L4xx_HAL_Driver/Src/stm32l4xx_hal_ospi.c ****   {
1094:Drivers/STM32L4xx_HAL_Driver/Src/stm32l4xx_hal_ospi.c ****     status = HAL_ERROR;
 1382              		.loc 1 1094 12
 1383 00ae 0123     		movs	r3, #1
 1384 00b0 FB75     		strb	r3, [r7, #23]
1095:Drivers/STM32L4xx_HAL_Driver/Src/stm32l4xx_hal_ospi.c ****     hospi->ErrorCode = HAL_OSPI_ERROR_INVALID_SEQUENCE;
 1385              		.loc 1 1095 22
 1386 00b2 FB68     		ldr	r3, [r7, #12]
 1387 00b4 1022     		movs	r2, #16
 1388 00b6 1A65     		str	r2, [r3, #80]
 1389              	.L69:
1096:Drivers/STM32L4xx_HAL_Driver/Src/stm32l4xx_hal_ospi.c ****   }
1097:Drivers/STM32L4xx_HAL_Driver/Src/stm32l4xx_hal_ospi.c **** 
1098:Drivers/STM32L4xx_HAL_Driver/Src/stm32l4xx_hal_ospi.c ****   /* Return function status */
1099:Drivers/STM32L4xx_HAL_Driver/Src/stm32l4xx_hal_ospi.c ****   return status;
 1390              		.loc 1 1099 10
 1391 00b8 FB7D     		ldrb	r3, [r7, #23]	@ zero_extendqisi2
1100:Drivers/STM32L4xx_HAL_Driver/Src/stm32l4xx_hal_ospi.c **** }
 1392              		.loc 1 1100 1
 1393 00ba 1846     		mov	r0, r3
 1394 00bc 1837     		adds	r7, r7, #24
 1395              		.cfi_def_cfa_offset 8
 1396 00be BD46     		mov	sp, r7
 1397              		.cfi_def_cfa_register 13
 1398              		@ sp needed
 1399 00c0 80BD     		pop	{r7, pc}
 1400              		.cfi_endproc
ARM GAS  C:\Users\Morroway\AppData\Local\Temp\ccxQAUQ3.s 			page 45


 1401              	.LFE329:
 1403              		.section	.text.HAL_OSPI_Transmit,"ax",%progbits
 1404              		.align	1
 1405              		.global	HAL_OSPI_Transmit
 1406              		.syntax unified
 1407              		.thumb
 1408              		.thumb_func
 1410              	HAL_OSPI_Transmit:
 1411              	.LFB330:
1101:Drivers/STM32L4xx_HAL_Driver/Src/stm32l4xx_hal_ospi.c **** 
1102:Drivers/STM32L4xx_HAL_Driver/Src/stm32l4xx_hal_ospi.c **** /**
1103:Drivers/STM32L4xx_HAL_Driver/Src/stm32l4xx_hal_ospi.c ****   * @brief  Transmit an amount of data in blocking mode.
1104:Drivers/STM32L4xx_HAL_Driver/Src/stm32l4xx_hal_ospi.c ****   * @param  hospi   : OSPI handle
1105:Drivers/STM32L4xx_HAL_Driver/Src/stm32l4xx_hal_ospi.c ****   * @param  pData   : pointer to data buffer
1106:Drivers/STM32L4xx_HAL_Driver/Src/stm32l4xx_hal_ospi.c ****   * @param  Timeout : Timeout duration
1107:Drivers/STM32L4xx_HAL_Driver/Src/stm32l4xx_hal_ospi.c ****   * @note   This function is used only in Indirect Write Mode
1108:Drivers/STM32L4xx_HAL_Driver/Src/stm32l4xx_hal_ospi.c ****   * @retval HAL status
1109:Drivers/STM32L4xx_HAL_Driver/Src/stm32l4xx_hal_ospi.c ****   */
1110:Drivers/STM32L4xx_HAL_Driver/Src/stm32l4xx_hal_ospi.c **** HAL_StatusTypeDef HAL_OSPI_Transmit(OSPI_HandleTypeDef *hospi, uint8_t *pData, uint32_t Timeout)
1111:Drivers/STM32L4xx_HAL_Driver/Src/stm32l4xx_hal_ospi.c **** {
 1412              		.loc 1 1111 1
 1413              		.cfi_startproc
 1414              		@ args = 0, pretend = 0, frame = 32
 1415              		@ frame_needed = 1, uses_anonymous_args = 0
 1416 0000 80B5     		push	{r7, lr}
 1417              		.cfi_def_cfa_offset 8
 1418              		.cfi_offset 7, -8
 1419              		.cfi_offset 14, -4
 1420 0002 8AB0     		sub	sp, sp, #40
 1421              		.cfi_def_cfa_offset 48
 1422 0004 02AF     		add	r7, sp, #8
 1423              		.cfi_def_cfa 7, 40
 1424 0006 F860     		str	r0, [r7, #12]
 1425 0008 B960     		str	r1, [r7, #8]
 1426 000a 7A60     		str	r2, [r7, #4]
1112:Drivers/STM32L4xx_HAL_Driver/Src/stm32l4xx_hal_ospi.c ****   HAL_StatusTypeDef status;
1113:Drivers/STM32L4xx_HAL_Driver/Src/stm32l4xx_hal_ospi.c ****   uint32_t tickstart = HAL_GetTick();
 1427              		.loc 1 1113 24
 1428 000c FFF7FEFF 		bl	HAL_GetTick
 1429 0010 B861     		str	r0, [r7, #24]
1114:Drivers/STM32L4xx_HAL_Driver/Src/stm32l4xx_hal_ospi.c ****   __IO uint32_t *data_reg = &hospi->Instance->DR;
 1430              		.loc 1 1114 35
 1431 0012 FB68     		ldr	r3, [r7, #12]
 1432 0014 1B68     		ldr	r3, [r3]
 1433              		.loc 1 1114 18
 1434 0016 5033     		adds	r3, r3, #80
 1435 0018 7B61     		str	r3, [r7, #20]
1115:Drivers/STM32L4xx_HAL_Driver/Src/stm32l4xx_hal_ospi.c **** 
1116:Drivers/STM32L4xx_HAL_Driver/Src/stm32l4xx_hal_ospi.c ****   /* Check the data pointer allocation */
1117:Drivers/STM32L4xx_HAL_Driver/Src/stm32l4xx_hal_ospi.c ****   if (pData == NULL)
 1436              		.loc 1 1117 6
 1437 001a BB68     		ldr	r3, [r7, #8]
 1438 001c 002B     		cmp	r3, #0
 1439 001e 05D1     		bne	.L72
1118:Drivers/STM32L4xx_HAL_Driver/Src/stm32l4xx_hal_ospi.c ****   {
1119:Drivers/STM32L4xx_HAL_Driver/Src/stm32l4xx_hal_ospi.c ****     status = HAL_ERROR;
 1440              		.loc 1 1119 12
ARM GAS  C:\Users\Morroway\AppData\Local\Temp\ccxQAUQ3.s 			page 46


 1441 0020 0123     		movs	r3, #1
 1442 0022 FB77     		strb	r3, [r7, #31]
1120:Drivers/STM32L4xx_HAL_Driver/Src/stm32l4xx_hal_ospi.c ****     hospi->ErrorCode = HAL_OSPI_ERROR_INVALID_PARAM;
 1443              		.loc 1 1120 22
 1444 0024 FB68     		ldr	r3, [r7, #12]
 1445 0026 0822     		movs	r2, #8
 1446 0028 1A65     		str	r2, [r3, #80]
 1447 002a 57E0     		b	.L73
 1448              	.L72:
1121:Drivers/STM32L4xx_HAL_Driver/Src/stm32l4xx_hal_ospi.c ****   }
1122:Drivers/STM32L4xx_HAL_Driver/Src/stm32l4xx_hal_ospi.c ****   else
1123:Drivers/STM32L4xx_HAL_Driver/Src/stm32l4xx_hal_ospi.c ****   {
1124:Drivers/STM32L4xx_HAL_Driver/Src/stm32l4xx_hal_ospi.c ****     /* Check the state */
1125:Drivers/STM32L4xx_HAL_Driver/Src/stm32l4xx_hal_ospi.c ****     if (hospi->State == HAL_OSPI_STATE_CMD_CFG)
 1449              		.loc 1 1125 14
 1450 002c FB68     		ldr	r3, [r7, #12]
 1451 002e DB6C     		ldr	r3, [r3, #76]
 1452              		.loc 1 1125 8
 1453 0030 042B     		cmp	r3, #4
 1454 0032 4ED1     		bne	.L74
1126:Drivers/STM32L4xx_HAL_Driver/Src/stm32l4xx_hal_ospi.c ****     {
1127:Drivers/STM32L4xx_HAL_Driver/Src/stm32l4xx_hal_ospi.c ****       /* Configure counters and size */
1128:Drivers/STM32L4xx_HAL_Driver/Src/stm32l4xx_hal_ospi.c ****       hospi->XferCount = READ_REG(hospi->Instance->DLR) + 1U;
 1455              		.loc 1 1128 26
 1456 0034 FB68     		ldr	r3, [r7, #12]
 1457 0036 1B68     		ldr	r3, [r3]
 1458 0038 1B6C     		ldr	r3, [r3, #64]
 1459              		.loc 1 1128 57
 1460 003a 5A1C     		adds	r2, r3, #1
 1461              		.loc 1 1128 24
 1462 003c FB68     		ldr	r3, [r7, #12]
 1463 003e 5A64     		str	r2, [r3, #68]
1129:Drivers/STM32L4xx_HAL_Driver/Src/stm32l4xx_hal_ospi.c ****       hospi->XferSize  = hospi->XferCount;
 1464              		.loc 1 1129 31
 1465 0040 FB68     		ldr	r3, [r7, #12]
 1466 0042 5A6C     		ldr	r2, [r3, #68]
 1467              		.loc 1 1129 24
 1468 0044 FB68     		ldr	r3, [r7, #12]
 1469 0046 1A64     		str	r2, [r3, #64]
1130:Drivers/STM32L4xx_HAL_Driver/Src/stm32l4xx_hal_ospi.c ****       hospi->pBuffPtr  = pData;
 1470              		.loc 1 1130 24
 1471 0048 FB68     		ldr	r3, [r7, #12]
 1472 004a BA68     		ldr	r2, [r7, #8]
 1473 004c DA63     		str	r2, [r3, #60]
1131:Drivers/STM32L4xx_HAL_Driver/Src/stm32l4xx_hal_ospi.c **** 
1132:Drivers/STM32L4xx_HAL_Driver/Src/stm32l4xx_hal_ospi.c ****       /* Configure CR register with functional mode as indirect write */
1133:Drivers/STM32L4xx_HAL_Driver/Src/stm32l4xx_hal_ospi.c ****       MODIFY_REG(hospi->Instance->CR, OCTOSPI_CR_FMODE, OSPI_FUNCTIONAL_MODE_INDIRECT_WRITE);
 1474              		.loc 1 1133 7
 1475 004e FB68     		ldr	r3, [r7, #12]
 1476 0050 1B68     		ldr	r3, [r3]
 1477 0052 1A68     		ldr	r2, [r3]
 1478 0054 FB68     		ldr	r3, [r7, #12]
 1479 0056 1B68     		ldr	r3, [r3]
 1480 0058 22F04052 		bic	r2, r2, #805306368
 1481 005c 1A60     		str	r2, [r3]
 1482              	.L77:
1134:Drivers/STM32L4xx_HAL_Driver/Src/stm32l4xx_hal_ospi.c **** 
ARM GAS  C:\Users\Morroway\AppData\Local\Temp\ccxQAUQ3.s 			page 47


1135:Drivers/STM32L4xx_HAL_Driver/Src/stm32l4xx_hal_ospi.c ****       do
1136:Drivers/STM32L4xx_HAL_Driver/Src/stm32l4xx_hal_ospi.c ****       {
1137:Drivers/STM32L4xx_HAL_Driver/Src/stm32l4xx_hal_ospi.c ****         /* Wait till fifo threshold flag is set to send data */
1138:Drivers/STM32L4xx_HAL_Driver/Src/stm32l4xx_hal_ospi.c ****         status = OSPI_WaitFlagStateUntilTimeout(hospi, HAL_OSPI_FLAG_FT, SET, tickstart, Timeout);
 1483              		.loc 1 1138 18
 1484 005e 7B68     		ldr	r3, [r7, #4]
 1485 0060 0093     		str	r3, [sp]
 1486 0062 BB69     		ldr	r3, [r7, #24]
 1487 0064 0122     		movs	r2, #1
 1488 0066 0421     		movs	r1, #4
 1489 0068 F868     		ldr	r0, [r7, #12]
 1490 006a FFF7FEFF 		bl	OSPI_WaitFlagStateUntilTimeout
 1491 006e 0346     		mov	r3, r0
 1492 0070 FB77     		strb	r3, [r7, #31]
1139:Drivers/STM32L4xx_HAL_Driver/Src/stm32l4xx_hal_ospi.c **** 
1140:Drivers/STM32L4xx_HAL_Driver/Src/stm32l4xx_hal_ospi.c ****         if (status != HAL_OK)
 1493              		.loc 1 1140 12
 1494 0072 FB7F     		ldrb	r3, [r7, #31]	@ zero_extendqisi2
 1495 0074 002B     		cmp	r3, #0
 1496 0076 13D1     		bne	.L79
1141:Drivers/STM32L4xx_HAL_Driver/Src/stm32l4xx_hal_ospi.c ****         {
1142:Drivers/STM32L4xx_HAL_Driver/Src/stm32l4xx_hal_ospi.c ****           break;
1143:Drivers/STM32L4xx_HAL_Driver/Src/stm32l4xx_hal_ospi.c ****         }
1144:Drivers/STM32L4xx_HAL_Driver/Src/stm32l4xx_hal_ospi.c **** 
1145:Drivers/STM32L4xx_HAL_Driver/Src/stm32l4xx_hal_ospi.c ****         *((__IO uint8_t *)data_reg) = *hospi->pBuffPtr;
 1497              		.loc 1 1145 45
 1498 0078 FB68     		ldr	r3, [r7, #12]
 1499 007a DB6B     		ldr	r3, [r3, #60]
 1500              		.loc 1 1145 39
 1501 007c 1A78     		ldrb	r2, [r3]	@ zero_extendqisi2
 1502              		.loc 1 1145 37
 1503 007e 7B69     		ldr	r3, [r7, #20]
 1504 0080 1A70     		strb	r2, [r3]
1146:Drivers/STM32L4xx_HAL_Driver/Src/stm32l4xx_hal_ospi.c ****         hospi->pBuffPtr++;
 1505              		.loc 1 1146 14
 1506 0082 FB68     		ldr	r3, [r7, #12]
 1507 0084 DB6B     		ldr	r3, [r3, #60]
 1508              		.loc 1 1146 24
 1509 0086 5A1C     		adds	r2, r3, #1
 1510 0088 FB68     		ldr	r3, [r7, #12]
 1511 008a DA63     		str	r2, [r3, #60]
1147:Drivers/STM32L4xx_HAL_Driver/Src/stm32l4xx_hal_ospi.c ****         hospi->XferCount--;
 1512              		.loc 1 1147 14
 1513 008c FB68     		ldr	r3, [r7, #12]
 1514 008e 5B6C     		ldr	r3, [r3, #68]
 1515              		.loc 1 1147 25
 1516 0090 5A1E     		subs	r2, r3, #1
 1517 0092 FB68     		ldr	r3, [r7, #12]
 1518 0094 5A64     		str	r2, [r3, #68]
1148:Drivers/STM32L4xx_HAL_Driver/Src/stm32l4xx_hal_ospi.c ****       } while (hospi->XferCount > 0U);
 1519              		.loc 1 1148 21
 1520 0096 FB68     		ldr	r3, [r7, #12]
 1521 0098 5B6C     		ldr	r3, [r3, #68]
 1522              		.loc 1 1148 33
 1523 009a 002B     		cmp	r3, #0
 1524 009c DFD1     		bne	.L77
 1525 009e 00E0     		b	.L76
ARM GAS  C:\Users\Morroway\AppData\Local\Temp\ccxQAUQ3.s 			page 48


 1526              	.L79:
1142:Drivers/STM32L4xx_HAL_Driver/Src/stm32l4xx_hal_ospi.c ****         }
 1527              		.loc 1 1142 11
 1528 00a0 00BF     		nop
 1529              	.L76:
1149:Drivers/STM32L4xx_HAL_Driver/Src/stm32l4xx_hal_ospi.c **** 
1150:Drivers/STM32L4xx_HAL_Driver/Src/stm32l4xx_hal_ospi.c ****       if (status == HAL_OK)
 1530              		.loc 1 1150 10
 1531 00a2 FB7F     		ldrb	r3, [r7, #31]	@ zero_extendqisi2
 1532 00a4 002B     		cmp	r3, #0
 1533 00a6 19D1     		bne	.L73
1151:Drivers/STM32L4xx_HAL_Driver/Src/stm32l4xx_hal_ospi.c ****       {
1152:Drivers/STM32L4xx_HAL_Driver/Src/stm32l4xx_hal_ospi.c ****         /* Wait till transfer complete flag is set to go back in idle state */
1153:Drivers/STM32L4xx_HAL_Driver/Src/stm32l4xx_hal_ospi.c ****         status = OSPI_WaitFlagStateUntilTimeout(hospi, HAL_OSPI_FLAG_TC, SET, tickstart, Timeout);
 1534              		.loc 1 1153 18
 1535 00a8 7B68     		ldr	r3, [r7, #4]
 1536 00aa 0093     		str	r3, [sp]
 1537 00ac BB69     		ldr	r3, [r7, #24]
 1538 00ae 0122     		movs	r2, #1
 1539 00b0 0221     		movs	r1, #2
 1540 00b2 F868     		ldr	r0, [r7, #12]
 1541 00b4 FFF7FEFF 		bl	OSPI_WaitFlagStateUntilTimeout
 1542 00b8 0346     		mov	r3, r0
 1543 00ba FB77     		strb	r3, [r7, #31]
1154:Drivers/STM32L4xx_HAL_Driver/Src/stm32l4xx_hal_ospi.c **** 
1155:Drivers/STM32L4xx_HAL_Driver/Src/stm32l4xx_hal_ospi.c ****         if (status == HAL_OK)
 1544              		.loc 1 1155 12
 1545 00bc FB7F     		ldrb	r3, [r7, #31]	@ zero_extendqisi2
 1546 00be 002B     		cmp	r3, #0
 1547 00c0 0CD1     		bne	.L73
1156:Drivers/STM32L4xx_HAL_Driver/Src/stm32l4xx_hal_ospi.c ****         {
1157:Drivers/STM32L4xx_HAL_Driver/Src/stm32l4xx_hal_ospi.c ****           /* Clear transfer complete flag */
1158:Drivers/STM32L4xx_HAL_Driver/Src/stm32l4xx_hal_ospi.c ****           __HAL_OSPI_CLEAR_FLAG(hospi, HAL_OSPI_FLAG_TC);
 1548              		.loc 1 1158 11
 1549 00c2 FB68     		ldr	r3, [r7, #12]
 1550 00c4 1B68     		ldr	r3, [r3]
 1551 00c6 0222     		movs	r2, #2
 1552 00c8 5A62     		str	r2, [r3, #36]
1159:Drivers/STM32L4xx_HAL_Driver/Src/stm32l4xx_hal_ospi.c **** 
1160:Drivers/STM32L4xx_HAL_Driver/Src/stm32l4xx_hal_ospi.c ****           /* Update state */
1161:Drivers/STM32L4xx_HAL_Driver/Src/stm32l4xx_hal_ospi.c ****           hospi->State = HAL_OSPI_STATE_READY;
 1553              		.loc 1 1161 24
 1554 00ca FB68     		ldr	r3, [r7, #12]
 1555 00cc 0222     		movs	r2, #2
 1556 00ce DA64     		str	r2, [r3, #76]
 1557 00d0 04E0     		b	.L73
 1558              	.L74:
1162:Drivers/STM32L4xx_HAL_Driver/Src/stm32l4xx_hal_ospi.c ****         }
1163:Drivers/STM32L4xx_HAL_Driver/Src/stm32l4xx_hal_ospi.c ****       }
1164:Drivers/STM32L4xx_HAL_Driver/Src/stm32l4xx_hal_ospi.c ****     }
1165:Drivers/STM32L4xx_HAL_Driver/Src/stm32l4xx_hal_ospi.c ****     else
1166:Drivers/STM32L4xx_HAL_Driver/Src/stm32l4xx_hal_ospi.c ****     {
1167:Drivers/STM32L4xx_HAL_Driver/Src/stm32l4xx_hal_ospi.c ****       status = HAL_ERROR;
 1559              		.loc 1 1167 14
 1560 00d2 0123     		movs	r3, #1
 1561 00d4 FB77     		strb	r3, [r7, #31]
1168:Drivers/STM32L4xx_HAL_Driver/Src/stm32l4xx_hal_ospi.c ****       hospi->ErrorCode = HAL_OSPI_ERROR_INVALID_SEQUENCE;
ARM GAS  C:\Users\Morroway\AppData\Local\Temp\ccxQAUQ3.s 			page 49


 1562              		.loc 1 1168 24
 1563 00d6 FB68     		ldr	r3, [r7, #12]
 1564 00d8 1022     		movs	r2, #16
 1565 00da 1A65     		str	r2, [r3, #80]
 1566              	.L73:
1169:Drivers/STM32L4xx_HAL_Driver/Src/stm32l4xx_hal_ospi.c ****     }
1170:Drivers/STM32L4xx_HAL_Driver/Src/stm32l4xx_hal_ospi.c ****   }
1171:Drivers/STM32L4xx_HAL_Driver/Src/stm32l4xx_hal_ospi.c **** 
1172:Drivers/STM32L4xx_HAL_Driver/Src/stm32l4xx_hal_ospi.c ****   /* Return function status */
1173:Drivers/STM32L4xx_HAL_Driver/Src/stm32l4xx_hal_ospi.c ****   return status;
 1567              		.loc 1 1173 10
 1568 00dc FB7F     		ldrb	r3, [r7, #31]	@ zero_extendqisi2
1174:Drivers/STM32L4xx_HAL_Driver/Src/stm32l4xx_hal_ospi.c **** }
 1569              		.loc 1 1174 1
 1570 00de 1846     		mov	r0, r3
 1571 00e0 2037     		adds	r7, r7, #32
 1572              		.cfi_def_cfa_offset 8
 1573 00e2 BD46     		mov	sp, r7
 1574              		.cfi_def_cfa_register 13
 1575              		@ sp needed
 1576 00e4 80BD     		pop	{r7, pc}
 1577              		.cfi_endproc
 1578              	.LFE330:
 1580              		.section	.text.HAL_OSPI_Receive,"ax",%progbits
 1581              		.align	1
 1582              		.global	HAL_OSPI_Receive
 1583              		.syntax unified
 1584              		.thumb
 1585              		.thumb_func
 1587              	HAL_OSPI_Receive:
 1588              	.LFB331:
1175:Drivers/STM32L4xx_HAL_Driver/Src/stm32l4xx_hal_ospi.c **** 
1176:Drivers/STM32L4xx_HAL_Driver/Src/stm32l4xx_hal_ospi.c **** /**
1177:Drivers/STM32L4xx_HAL_Driver/Src/stm32l4xx_hal_ospi.c ****   * @brief  Receive an amount of data in blocking mode.
1178:Drivers/STM32L4xx_HAL_Driver/Src/stm32l4xx_hal_ospi.c ****   * @param  hospi   : OSPI handle
1179:Drivers/STM32L4xx_HAL_Driver/Src/stm32l4xx_hal_ospi.c ****   * @param  pData   : pointer to data buffer
1180:Drivers/STM32L4xx_HAL_Driver/Src/stm32l4xx_hal_ospi.c ****   * @param  Timeout : Timeout duration
1181:Drivers/STM32L4xx_HAL_Driver/Src/stm32l4xx_hal_ospi.c ****   * @note   This function is used only in Indirect Read Mode
1182:Drivers/STM32L4xx_HAL_Driver/Src/stm32l4xx_hal_ospi.c ****   * @retval HAL status
1183:Drivers/STM32L4xx_HAL_Driver/Src/stm32l4xx_hal_ospi.c ****   */
1184:Drivers/STM32L4xx_HAL_Driver/Src/stm32l4xx_hal_ospi.c **** HAL_StatusTypeDef HAL_OSPI_Receive(OSPI_HandleTypeDef *hospi, uint8_t *pData, uint32_t Timeout)
1185:Drivers/STM32L4xx_HAL_Driver/Src/stm32l4xx_hal_ospi.c **** {
 1589              		.loc 1 1185 1
 1590              		.cfi_startproc
 1591              		@ args = 0, pretend = 0, frame = 40
 1592              		@ frame_needed = 1, uses_anonymous_args = 0
 1593 0000 80B5     		push	{r7, lr}
 1594              		.cfi_def_cfa_offset 8
 1595              		.cfi_offset 7, -8
 1596              		.cfi_offset 14, -4
 1597 0002 8CB0     		sub	sp, sp, #48
 1598              		.cfi_def_cfa_offset 56
 1599 0004 02AF     		add	r7, sp, #8
 1600              		.cfi_def_cfa 7, 48
 1601 0006 F860     		str	r0, [r7, #12]
 1602 0008 B960     		str	r1, [r7, #8]
 1603 000a 7A60     		str	r2, [r7, #4]
ARM GAS  C:\Users\Morroway\AppData\Local\Temp\ccxQAUQ3.s 			page 50


1186:Drivers/STM32L4xx_HAL_Driver/Src/stm32l4xx_hal_ospi.c ****   HAL_StatusTypeDef status;
1187:Drivers/STM32L4xx_HAL_Driver/Src/stm32l4xx_hal_ospi.c ****   uint32_t tickstart = HAL_GetTick();
 1604              		.loc 1 1187 24
 1605 000c FFF7FEFF 		bl	HAL_GetTick
 1606 0010 3862     		str	r0, [r7, #32]
1188:Drivers/STM32L4xx_HAL_Driver/Src/stm32l4xx_hal_ospi.c ****   __IO uint32_t *data_reg = &hospi->Instance->DR;
 1607              		.loc 1 1188 35
 1608 0012 FB68     		ldr	r3, [r7, #12]
 1609 0014 1B68     		ldr	r3, [r3]
 1610              		.loc 1 1188 18
 1611 0016 5033     		adds	r3, r3, #80
 1612 0018 FB61     		str	r3, [r7, #28]
1189:Drivers/STM32L4xx_HAL_Driver/Src/stm32l4xx_hal_ospi.c ****   uint32_t addr_reg = hospi->Instance->AR;
 1613              		.loc 1 1189 28
 1614 001a FB68     		ldr	r3, [r7, #12]
 1615 001c 1B68     		ldr	r3, [r3]
 1616              		.loc 1 1189 12
 1617 001e 9B6C     		ldr	r3, [r3, #72]
 1618 0020 BB61     		str	r3, [r7, #24]
1190:Drivers/STM32L4xx_HAL_Driver/Src/stm32l4xx_hal_ospi.c ****   uint32_t ir_reg = hospi->Instance->IR;
 1619              		.loc 1 1190 26
 1620 0022 FB68     		ldr	r3, [r7, #12]
 1621 0024 1B68     		ldr	r3, [r3]
 1622              		.loc 1 1190 12
 1623 0026 D3F81031 		ldr	r3, [r3, #272]
 1624 002a 7B61     		str	r3, [r7, #20]
1191:Drivers/STM32L4xx_HAL_Driver/Src/stm32l4xx_hal_ospi.c **** 
1192:Drivers/STM32L4xx_HAL_Driver/Src/stm32l4xx_hal_ospi.c ****   /* Check the data pointer allocation */
1193:Drivers/STM32L4xx_HAL_Driver/Src/stm32l4xx_hal_ospi.c ****   if (pData == NULL)
 1625              		.loc 1 1193 6
 1626 002c BB68     		ldr	r3, [r7, #8]
 1627 002e 002B     		cmp	r3, #0
 1628 0030 06D1     		bne	.L81
1194:Drivers/STM32L4xx_HAL_Driver/Src/stm32l4xx_hal_ospi.c ****   {
1195:Drivers/STM32L4xx_HAL_Driver/Src/stm32l4xx_hal_ospi.c ****     status = HAL_ERROR;
 1629              		.loc 1 1195 12
 1630 0032 0123     		movs	r3, #1
 1631 0034 87F82730 		strb	r3, [r7, #39]
1196:Drivers/STM32L4xx_HAL_Driver/Src/stm32l4xx_hal_ospi.c ****     hospi->ErrorCode = HAL_OSPI_ERROR_INVALID_PARAM;
 1632              		.loc 1 1196 22
 1633 0038 FB68     		ldr	r3, [r7, #12]
 1634 003a 0822     		movs	r2, #8
 1635 003c 1A65     		str	r2, [r3, #80]
 1636 003e 7CE0     		b	.L82
 1637              	.L81:
1197:Drivers/STM32L4xx_HAL_Driver/Src/stm32l4xx_hal_ospi.c ****   }
1198:Drivers/STM32L4xx_HAL_Driver/Src/stm32l4xx_hal_ospi.c ****   else
1199:Drivers/STM32L4xx_HAL_Driver/Src/stm32l4xx_hal_ospi.c ****   {
1200:Drivers/STM32L4xx_HAL_Driver/Src/stm32l4xx_hal_ospi.c ****     /* Check the state */
1201:Drivers/STM32L4xx_HAL_Driver/Src/stm32l4xx_hal_ospi.c ****     if (hospi->State == HAL_OSPI_STATE_CMD_CFG)
 1638              		.loc 1 1201 14
 1639 0040 FB68     		ldr	r3, [r7, #12]
 1640 0042 DB6C     		ldr	r3, [r3, #76]
 1641              		.loc 1 1201 8
 1642 0044 042B     		cmp	r3, #4
 1643 0046 72D1     		bne	.L83
1202:Drivers/STM32L4xx_HAL_Driver/Src/stm32l4xx_hal_ospi.c ****     {
ARM GAS  C:\Users\Morroway\AppData\Local\Temp\ccxQAUQ3.s 			page 51


1203:Drivers/STM32L4xx_HAL_Driver/Src/stm32l4xx_hal_ospi.c ****       /* Configure counters and size */
1204:Drivers/STM32L4xx_HAL_Driver/Src/stm32l4xx_hal_ospi.c ****       hospi->XferCount = READ_REG(hospi->Instance->DLR) + 1U;
 1644              		.loc 1 1204 26
 1645 0048 FB68     		ldr	r3, [r7, #12]
 1646 004a 1B68     		ldr	r3, [r3]
 1647 004c 1B6C     		ldr	r3, [r3, #64]
 1648              		.loc 1 1204 57
 1649 004e 5A1C     		adds	r2, r3, #1
 1650              		.loc 1 1204 24
 1651 0050 FB68     		ldr	r3, [r7, #12]
 1652 0052 5A64     		str	r2, [r3, #68]
1205:Drivers/STM32L4xx_HAL_Driver/Src/stm32l4xx_hal_ospi.c ****       hospi->XferSize  = hospi->XferCount;
 1653              		.loc 1 1205 31
 1654 0054 FB68     		ldr	r3, [r7, #12]
 1655 0056 5A6C     		ldr	r2, [r3, #68]
 1656              		.loc 1 1205 24
 1657 0058 FB68     		ldr	r3, [r7, #12]
 1658 005a 1A64     		str	r2, [r3, #64]
1206:Drivers/STM32L4xx_HAL_Driver/Src/stm32l4xx_hal_ospi.c ****       hospi->pBuffPtr  = pData;
 1659              		.loc 1 1206 24
 1660 005c FB68     		ldr	r3, [r7, #12]
 1661 005e BA68     		ldr	r2, [r7, #8]
 1662 0060 DA63     		str	r2, [r3, #60]
1207:Drivers/STM32L4xx_HAL_Driver/Src/stm32l4xx_hal_ospi.c **** 
1208:Drivers/STM32L4xx_HAL_Driver/Src/stm32l4xx_hal_ospi.c ****       /* Configure CR register with functional mode as indirect read */
1209:Drivers/STM32L4xx_HAL_Driver/Src/stm32l4xx_hal_ospi.c ****       MODIFY_REG(hospi->Instance->CR, OCTOSPI_CR_FMODE, OSPI_FUNCTIONAL_MODE_INDIRECT_READ);
 1663              		.loc 1 1209 7
 1664 0062 FB68     		ldr	r3, [r7, #12]
 1665 0064 1B68     		ldr	r3, [r3]
 1666 0066 1B68     		ldr	r3, [r3]
 1667 0068 23F04052 		bic	r2, r3, #805306368
 1668 006c FB68     		ldr	r3, [r7, #12]
 1669 006e 1B68     		ldr	r3, [r3]
 1670 0070 42F08052 		orr	r2, r2, #268435456
 1671 0074 1A60     		str	r2, [r3]
1210:Drivers/STM32L4xx_HAL_Driver/Src/stm32l4xx_hal_ospi.c **** 
1211:Drivers/STM32L4xx_HAL_Driver/Src/stm32l4xx_hal_ospi.c ****       /* Trig the transfer by re-writing address or instruction register */
1212:Drivers/STM32L4xx_HAL_Driver/Src/stm32l4xx_hal_ospi.c ****       if (hospi->Init.MemoryType == HAL_OSPI_MEMTYPE_HYPERBUS)
 1672              		.loc 1 1212 22
 1673 0076 FB68     		ldr	r3, [r7, #12]
 1674 0078 DB68     		ldr	r3, [r3, #12]
 1675              		.loc 1 1212 10
 1676 007a B3F1806F 		cmp	r3, #67108864
 1677 007e 04D1     		bne	.L84
1213:Drivers/STM32L4xx_HAL_Driver/Src/stm32l4xx_hal_ospi.c ****       {
1214:Drivers/STM32L4xx_HAL_Driver/Src/stm32l4xx_hal_ospi.c ****         WRITE_REG(hospi->Instance->AR, addr_reg);
 1678              		.loc 1 1214 9
 1679 0080 FB68     		ldr	r3, [r7, #12]
 1680 0082 1B68     		ldr	r3, [r3]
 1681 0084 BA69     		ldr	r2, [r7, #24]
 1682 0086 9A64     		str	r2, [r3, #72]
 1683 0088 11E0     		b	.L89
 1684              	.L84:
1215:Drivers/STM32L4xx_HAL_Driver/Src/stm32l4xx_hal_ospi.c ****       }
1216:Drivers/STM32L4xx_HAL_Driver/Src/stm32l4xx_hal_ospi.c ****       else
1217:Drivers/STM32L4xx_HAL_Driver/Src/stm32l4xx_hal_ospi.c ****       {
1218:Drivers/STM32L4xx_HAL_Driver/Src/stm32l4xx_hal_ospi.c ****         if (READ_BIT(hospi->Instance->CCR, OCTOSPI_CCR_ADMODE) != HAL_OSPI_ADDRESS_NONE)
ARM GAS  C:\Users\Morroway\AppData\Local\Temp\ccxQAUQ3.s 			page 52


 1685              		.loc 1 1218 13
 1686 008a FB68     		ldr	r3, [r7, #12]
 1687 008c 1B68     		ldr	r3, [r3]
 1688 008e D3F80031 		ldr	r3, [r3, #256]
 1689 0092 03F4E063 		and	r3, r3, #1792
 1690              		.loc 1 1218 12
 1691 0096 002B     		cmp	r3, #0
 1692 0098 04D0     		beq	.L86
1219:Drivers/STM32L4xx_HAL_Driver/Src/stm32l4xx_hal_ospi.c ****         {
1220:Drivers/STM32L4xx_HAL_Driver/Src/stm32l4xx_hal_ospi.c ****           WRITE_REG(hospi->Instance->AR, addr_reg);
 1693              		.loc 1 1220 11
 1694 009a FB68     		ldr	r3, [r7, #12]
 1695 009c 1B68     		ldr	r3, [r3]
 1696 009e BA69     		ldr	r2, [r7, #24]
 1697 00a0 9A64     		str	r2, [r3, #72]
 1698 00a2 04E0     		b	.L89
 1699              	.L86:
1221:Drivers/STM32L4xx_HAL_Driver/Src/stm32l4xx_hal_ospi.c ****         }
1222:Drivers/STM32L4xx_HAL_Driver/Src/stm32l4xx_hal_ospi.c ****         else
1223:Drivers/STM32L4xx_HAL_Driver/Src/stm32l4xx_hal_ospi.c ****         {
1224:Drivers/STM32L4xx_HAL_Driver/Src/stm32l4xx_hal_ospi.c ****           WRITE_REG(hospi->Instance->IR, ir_reg);
 1700              		.loc 1 1224 11
 1701 00a4 FB68     		ldr	r3, [r7, #12]
 1702 00a6 1B68     		ldr	r3, [r3]
 1703 00a8 7A69     		ldr	r2, [r7, #20]
 1704 00aa C3F81021 		str	r2, [r3, #272]
 1705              	.L89:
1225:Drivers/STM32L4xx_HAL_Driver/Src/stm32l4xx_hal_ospi.c ****         }
1226:Drivers/STM32L4xx_HAL_Driver/Src/stm32l4xx_hal_ospi.c ****       }
1227:Drivers/STM32L4xx_HAL_Driver/Src/stm32l4xx_hal_ospi.c **** 
1228:Drivers/STM32L4xx_HAL_Driver/Src/stm32l4xx_hal_ospi.c ****       do
1229:Drivers/STM32L4xx_HAL_Driver/Src/stm32l4xx_hal_ospi.c ****       {
1230:Drivers/STM32L4xx_HAL_Driver/Src/stm32l4xx_hal_ospi.c ****         /* Wait till fifo threshold or transfer complete flags are set to read received data */
1231:Drivers/STM32L4xx_HAL_Driver/Src/stm32l4xx_hal_ospi.c ****         status = OSPI_WaitFlagStateUntilTimeout(hospi, (HAL_OSPI_FLAG_FT | HAL_OSPI_FLAG_TC), SET, 
 1706              		.loc 1 1231 18
 1707 00ae 7B68     		ldr	r3, [r7, #4]
 1708 00b0 0093     		str	r3, [sp]
 1709 00b2 3B6A     		ldr	r3, [r7, #32]
 1710 00b4 0122     		movs	r2, #1
 1711 00b6 0621     		movs	r1, #6
 1712 00b8 F868     		ldr	r0, [r7, #12]
 1713 00ba FFF7FEFF 		bl	OSPI_WaitFlagStateUntilTimeout
 1714 00be 0346     		mov	r3, r0
 1715 00c0 87F82730 		strb	r3, [r7, #39]
1232:Drivers/STM32L4xx_HAL_Driver/Src/stm32l4xx_hal_ospi.c **** 
1233:Drivers/STM32L4xx_HAL_Driver/Src/stm32l4xx_hal_ospi.c ****         if (status != HAL_OK)
 1716              		.loc 1 1233 12
 1717 00c4 97F82730 		ldrb	r3, [r7, #39]	@ zero_extendqisi2
 1718 00c8 002B     		cmp	r3, #0
 1719 00ca 14D1     		bne	.L91
1234:Drivers/STM32L4xx_HAL_Driver/Src/stm32l4xx_hal_ospi.c ****         {
1235:Drivers/STM32L4xx_HAL_Driver/Src/stm32l4xx_hal_ospi.c ****           break;
1236:Drivers/STM32L4xx_HAL_Driver/Src/stm32l4xx_hal_ospi.c ****         }
1237:Drivers/STM32L4xx_HAL_Driver/Src/stm32l4xx_hal_ospi.c **** 
1238:Drivers/STM32L4xx_HAL_Driver/Src/stm32l4xx_hal_ospi.c ****         *hospi->pBuffPtr = *((__IO uint8_t *)data_reg);
 1720              		.loc 1 1238 15
 1721 00cc FB68     		ldr	r3, [r7, #12]
ARM GAS  C:\Users\Morroway\AppData\Local\Temp\ccxQAUQ3.s 			page 53


 1722 00ce DB6B     		ldr	r3, [r3, #60]
 1723              		.loc 1 1238 28
 1724 00d0 FA69     		ldr	r2, [r7, #28]
 1725 00d2 1278     		ldrb	r2, [r2]
 1726 00d4 D2B2     		uxtb	r2, r2
 1727              		.loc 1 1238 26
 1728 00d6 1A70     		strb	r2, [r3]
1239:Drivers/STM32L4xx_HAL_Driver/Src/stm32l4xx_hal_ospi.c ****         hospi->pBuffPtr++;
 1729              		.loc 1 1239 14
 1730 00d8 FB68     		ldr	r3, [r7, #12]
 1731 00da DB6B     		ldr	r3, [r3, #60]
 1732              		.loc 1 1239 24
 1733 00dc 5A1C     		adds	r2, r3, #1
 1734 00de FB68     		ldr	r3, [r7, #12]
 1735 00e0 DA63     		str	r2, [r3, #60]
1240:Drivers/STM32L4xx_HAL_Driver/Src/stm32l4xx_hal_ospi.c ****         hospi->XferCount--;
 1736              		.loc 1 1240 14
 1737 00e2 FB68     		ldr	r3, [r7, #12]
 1738 00e4 5B6C     		ldr	r3, [r3, #68]
 1739              		.loc 1 1240 25
 1740 00e6 5A1E     		subs	r2, r3, #1
 1741 00e8 FB68     		ldr	r3, [r7, #12]
 1742 00ea 5A64     		str	r2, [r3, #68]
1241:Drivers/STM32L4xx_HAL_Driver/Src/stm32l4xx_hal_ospi.c ****       } while(hospi->XferCount > 0U);
 1743              		.loc 1 1241 20
 1744 00ec FB68     		ldr	r3, [r7, #12]
 1745 00ee 5B6C     		ldr	r3, [r3, #68]
 1746              		.loc 1 1241 32
 1747 00f0 002B     		cmp	r3, #0
 1748 00f2 DCD1     		bne	.L89
 1749 00f4 00E0     		b	.L88
 1750              	.L91:
1235:Drivers/STM32L4xx_HAL_Driver/Src/stm32l4xx_hal_ospi.c ****         }
 1751              		.loc 1 1235 11
 1752 00f6 00BF     		nop
 1753              	.L88:
1242:Drivers/STM32L4xx_HAL_Driver/Src/stm32l4xx_hal_ospi.c **** 
1243:Drivers/STM32L4xx_HAL_Driver/Src/stm32l4xx_hal_ospi.c ****       if (status == HAL_OK)
 1754              		.loc 1 1243 10
 1755 00f8 97F82730 		ldrb	r3, [r7, #39]	@ zero_extendqisi2
 1756 00fc 002B     		cmp	r3, #0
 1757 00fe 1CD1     		bne	.L82
1244:Drivers/STM32L4xx_HAL_Driver/Src/stm32l4xx_hal_ospi.c ****       {
1245:Drivers/STM32L4xx_HAL_Driver/Src/stm32l4xx_hal_ospi.c ****         /* Wait till transfer complete flag is set to go back in idle state */
1246:Drivers/STM32L4xx_HAL_Driver/Src/stm32l4xx_hal_ospi.c ****         status = OSPI_WaitFlagStateUntilTimeout(hospi, HAL_OSPI_FLAG_TC, SET, tickstart, Timeout);
 1758              		.loc 1 1246 18
 1759 0100 7B68     		ldr	r3, [r7, #4]
 1760 0102 0093     		str	r3, [sp]
 1761 0104 3B6A     		ldr	r3, [r7, #32]
 1762 0106 0122     		movs	r2, #1
 1763 0108 0221     		movs	r1, #2
 1764 010a F868     		ldr	r0, [r7, #12]
 1765 010c FFF7FEFF 		bl	OSPI_WaitFlagStateUntilTimeout
 1766 0110 0346     		mov	r3, r0
 1767 0112 87F82730 		strb	r3, [r7, #39]
1247:Drivers/STM32L4xx_HAL_Driver/Src/stm32l4xx_hal_ospi.c **** 
1248:Drivers/STM32L4xx_HAL_Driver/Src/stm32l4xx_hal_ospi.c ****         if (status == HAL_OK)
ARM GAS  C:\Users\Morroway\AppData\Local\Temp\ccxQAUQ3.s 			page 54


 1768              		.loc 1 1248 12
 1769 0116 97F82730 		ldrb	r3, [r7, #39]	@ zero_extendqisi2
 1770 011a 002B     		cmp	r3, #0
 1771 011c 0DD1     		bne	.L82
1249:Drivers/STM32L4xx_HAL_Driver/Src/stm32l4xx_hal_ospi.c ****         {
1250:Drivers/STM32L4xx_HAL_Driver/Src/stm32l4xx_hal_ospi.c ****           /* Clear transfer complete flag */
1251:Drivers/STM32L4xx_HAL_Driver/Src/stm32l4xx_hal_ospi.c ****           __HAL_OSPI_CLEAR_FLAG(hospi, HAL_OSPI_FLAG_TC);
 1772              		.loc 1 1251 11
 1773 011e FB68     		ldr	r3, [r7, #12]
 1774 0120 1B68     		ldr	r3, [r3]
 1775 0122 0222     		movs	r2, #2
 1776 0124 5A62     		str	r2, [r3, #36]
1252:Drivers/STM32L4xx_HAL_Driver/Src/stm32l4xx_hal_ospi.c **** 
1253:Drivers/STM32L4xx_HAL_Driver/Src/stm32l4xx_hal_ospi.c ****           /* Update state */
1254:Drivers/STM32L4xx_HAL_Driver/Src/stm32l4xx_hal_ospi.c ****           hospi->State = HAL_OSPI_STATE_READY;
 1777              		.loc 1 1254 24
 1778 0126 FB68     		ldr	r3, [r7, #12]
 1779 0128 0222     		movs	r2, #2
 1780 012a DA64     		str	r2, [r3, #76]
 1781 012c 05E0     		b	.L82
 1782              	.L83:
1255:Drivers/STM32L4xx_HAL_Driver/Src/stm32l4xx_hal_ospi.c ****         }
1256:Drivers/STM32L4xx_HAL_Driver/Src/stm32l4xx_hal_ospi.c ****       }
1257:Drivers/STM32L4xx_HAL_Driver/Src/stm32l4xx_hal_ospi.c ****     }
1258:Drivers/STM32L4xx_HAL_Driver/Src/stm32l4xx_hal_ospi.c ****     else
1259:Drivers/STM32L4xx_HAL_Driver/Src/stm32l4xx_hal_ospi.c ****     {
1260:Drivers/STM32L4xx_HAL_Driver/Src/stm32l4xx_hal_ospi.c ****       status = HAL_ERROR;
 1783              		.loc 1 1260 14
 1784 012e 0123     		movs	r3, #1
 1785 0130 87F82730 		strb	r3, [r7, #39]
1261:Drivers/STM32L4xx_HAL_Driver/Src/stm32l4xx_hal_ospi.c ****       hospi->ErrorCode = HAL_OSPI_ERROR_INVALID_SEQUENCE;
 1786              		.loc 1 1261 24
 1787 0134 FB68     		ldr	r3, [r7, #12]
 1788 0136 1022     		movs	r2, #16
 1789 0138 1A65     		str	r2, [r3, #80]
 1790              	.L82:
1262:Drivers/STM32L4xx_HAL_Driver/Src/stm32l4xx_hal_ospi.c ****     }
1263:Drivers/STM32L4xx_HAL_Driver/Src/stm32l4xx_hal_ospi.c ****   }
1264:Drivers/STM32L4xx_HAL_Driver/Src/stm32l4xx_hal_ospi.c **** 
1265:Drivers/STM32L4xx_HAL_Driver/Src/stm32l4xx_hal_ospi.c ****   /* Return function status */
1266:Drivers/STM32L4xx_HAL_Driver/Src/stm32l4xx_hal_ospi.c ****   return status;
 1791              		.loc 1 1266 10
 1792 013a 97F82730 		ldrb	r3, [r7, #39]	@ zero_extendqisi2
1267:Drivers/STM32L4xx_HAL_Driver/Src/stm32l4xx_hal_ospi.c **** }
 1793              		.loc 1 1267 1
 1794 013e 1846     		mov	r0, r3
 1795 0140 2837     		adds	r7, r7, #40
 1796              		.cfi_def_cfa_offset 8
 1797 0142 BD46     		mov	sp, r7
 1798              		.cfi_def_cfa_register 13
 1799              		@ sp needed
 1800 0144 80BD     		pop	{r7, pc}
 1801              		.cfi_endproc
 1802              	.LFE331:
 1804              		.section	.text.HAL_OSPI_Transmit_IT,"ax",%progbits
 1805              		.align	1
 1806              		.global	HAL_OSPI_Transmit_IT
ARM GAS  C:\Users\Morroway\AppData\Local\Temp\ccxQAUQ3.s 			page 55


 1807              		.syntax unified
 1808              		.thumb
 1809              		.thumb_func
 1811              	HAL_OSPI_Transmit_IT:
 1812              	.LFB332:
1268:Drivers/STM32L4xx_HAL_Driver/Src/stm32l4xx_hal_ospi.c **** 
1269:Drivers/STM32L4xx_HAL_Driver/Src/stm32l4xx_hal_ospi.c **** /**
1270:Drivers/STM32L4xx_HAL_Driver/Src/stm32l4xx_hal_ospi.c ****   * @brief  Send an amount of data in non-blocking mode with interrupt.
1271:Drivers/STM32L4xx_HAL_Driver/Src/stm32l4xx_hal_ospi.c ****   * @param  hospi : OSPI handle
1272:Drivers/STM32L4xx_HAL_Driver/Src/stm32l4xx_hal_ospi.c ****   * @param  pData : pointer to data buffer
1273:Drivers/STM32L4xx_HAL_Driver/Src/stm32l4xx_hal_ospi.c ****   * @note   This function is used only in Indirect Write Mode
1274:Drivers/STM32L4xx_HAL_Driver/Src/stm32l4xx_hal_ospi.c ****   * @retval HAL status
1275:Drivers/STM32L4xx_HAL_Driver/Src/stm32l4xx_hal_ospi.c ****   */
1276:Drivers/STM32L4xx_HAL_Driver/Src/stm32l4xx_hal_ospi.c **** HAL_StatusTypeDef HAL_OSPI_Transmit_IT(OSPI_HandleTypeDef *hospi, uint8_t *pData)
1277:Drivers/STM32L4xx_HAL_Driver/Src/stm32l4xx_hal_ospi.c **** {
 1813              		.loc 1 1277 1
 1814              		.cfi_startproc
 1815              		@ args = 0, pretend = 0, frame = 16
 1816              		@ frame_needed = 1, uses_anonymous_args = 0
 1817              		@ link register save eliminated.
 1818 0000 80B4     		push	{r7}
 1819              		.cfi_def_cfa_offset 4
 1820              		.cfi_offset 7, -4
 1821 0002 85B0     		sub	sp, sp, #20
 1822              		.cfi_def_cfa_offset 24
 1823 0004 00AF     		add	r7, sp, #0
 1824              		.cfi_def_cfa_register 7
 1825 0006 7860     		str	r0, [r7, #4]
 1826 0008 3960     		str	r1, [r7]
1278:Drivers/STM32L4xx_HAL_Driver/Src/stm32l4xx_hal_ospi.c ****   HAL_StatusTypeDef status = HAL_OK;
 1827              		.loc 1 1278 21
 1828 000a 0023     		movs	r3, #0
 1829 000c FB73     		strb	r3, [r7, #15]
1279:Drivers/STM32L4xx_HAL_Driver/Src/stm32l4xx_hal_ospi.c **** 
1280:Drivers/STM32L4xx_HAL_Driver/Src/stm32l4xx_hal_ospi.c ****   /* Check the data pointer allocation */
1281:Drivers/STM32L4xx_HAL_Driver/Src/stm32l4xx_hal_ospi.c ****   if (pData == NULL)
 1830              		.loc 1 1281 6
 1831 000e 3B68     		ldr	r3, [r7]
 1832 0010 002B     		cmp	r3, #0
 1833 0012 05D1     		bne	.L93
1282:Drivers/STM32L4xx_HAL_Driver/Src/stm32l4xx_hal_ospi.c ****   {
1283:Drivers/STM32L4xx_HAL_Driver/Src/stm32l4xx_hal_ospi.c ****     status = HAL_ERROR;
 1834              		.loc 1 1283 12
 1835 0014 0123     		movs	r3, #1
 1836 0016 FB73     		strb	r3, [r7, #15]
1284:Drivers/STM32L4xx_HAL_Driver/Src/stm32l4xx_hal_ospi.c ****     hospi->ErrorCode = HAL_OSPI_ERROR_INVALID_PARAM;
 1837              		.loc 1 1284 22
 1838 0018 7B68     		ldr	r3, [r7, #4]
 1839 001a 0822     		movs	r2, #8
 1840 001c 1A65     		str	r2, [r3, #80]
 1841 001e 2DE0     		b	.L94
 1842              	.L93:
1285:Drivers/STM32L4xx_HAL_Driver/Src/stm32l4xx_hal_ospi.c ****   }
1286:Drivers/STM32L4xx_HAL_Driver/Src/stm32l4xx_hal_ospi.c ****   else
1287:Drivers/STM32L4xx_HAL_Driver/Src/stm32l4xx_hal_ospi.c ****   {
1288:Drivers/STM32L4xx_HAL_Driver/Src/stm32l4xx_hal_ospi.c ****     /* Check the state */
1289:Drivers/STM32L4xx_HAL_Driver/Src/stm32l4xx_hal_ospi.c ****     if (hospi->State == HAL_OSPI_STATE_CMD_CFG)
ARM GAS  C:\Users\Morroway\AppData\Local\Temp\ccxQAUQ3.s 			page 56


 1843              		.loc 1 1289 14
 1844 0020 7B68     		ldr	r3, [r7, #4]
 1845 0022 DB6C     		ldr	r3, [r3, #76]
 1846              		.loc 1 1289 8
 1847 0024 042B     		cmp	r3, #4
 1848 0026 24D1     		bne	.L95
1290:Drivers/STM32L4xx_HAL_Driver/Src/stm32l4xx_hal_ospi.c ****     {
1291:Drivers/STM32L4xx_HAL_Driver/Src/stm32l4xx_hal_ospi.c ****       /* Configure counters and size */
1292:Drivers/STM32L4xx_HAL_Driver/Src/stm32l4xx_hal_ospi.c ****       hospi->XferCount = READ_REG(hospi->Instance->DLR) + 1U;
 1849              		.loc 1 1292 26
 1850 0028 7B68     		ldr	r3, [r7, #4]
 1851 002a 1B68     		ldr	r3, [r3]
 1852 002c 1B6C     		ldr	r3, [r3, #64]
 1853              		.loc 1 1292 57
 1854 002e 5A1C     		adds	r2, r3, #1
 1855              		.loc 1 1292 24
 1856 0030 7B68     		ldr	r3, [r7, #4]
 1857 0032 5A64     		str	r2, [r3, #68]
1293:Drivers/STM32L4xx_HAL_Driver/Src/stm32l4xx_hal_ospi.c ****       hospi->XferSize  = hospi->XferCount;
 1858              		.loc 1 1293 31
 1859 0034 7B68     		ldr	r3, [r7, #4]
 1860 0036 5A6C     		ldr	r2, [r3, #68]
 1861              		.loc 1 1293 24
 1862 0038 7B68     		ldr	r3, [r7, #4]
 1863 003a 1A64     		str	r2, [r3, #64]
1294:Drivers/STM32L4xx_HAL_Driver/Src/stm32l4xx_hal_ospi.c ****       hospi->pBuffPtr  = pData;
 1864              		.loc 1 1294 24
 1865 003c 7B68     		ldr	r3, [r7, #4]
 1866 003e 3A68     		ldr	r2, [r7]
 1867 0040 DA63     		str	r2, [r3, #60]
1295:Drivers/STM32L4xx_HAL_Driver/Src/stm32l4xx_hal_ospi.c **** 
1296:Drivers/STM32L4xx_HAL_Driver/Src/stm32l4xx_hal_ospi.c ****       /* Configure CR register with functional mode as indirect write */
1297:Drivers/STM32L4xx_HAL_Driver/Src/stm32l4xx_hal_ospi.c ****       MODIFY_REG(hospi->Instance->CR, OCTOSPI_CR_FMODE, OSPI_FUNCTIONAL_MODE_INDIRECT_WRITE);
 1868              		.loc 1 1297 7
 1869 0042 7B68     		ldr	r3, [r7, #4]
 1870 0044 1B68     		ldr	r3, [r3]
 1871 0046 1A68     		ldr	r2, [r3]
 1872 0048 7B68     		ldr	r3, [r7, #4]
 1873 004a 1B68     		ldr	r3, [r3]
 1874 004c 22F04052 		bic	r2, r2, #805306368
 1875 0050 1A60     		str	r2, [r3]
1298:Drivers/STM32L4xx_HAL_Driver/Src/stm32l4xx_hal_ospi.c **** 
1299:Drivers/STM32L4xx_HAL_Driver/Src/stm32l4xx_hal_ospi.c ****       /* Clear flags related to interrupt */
1300:Drivers/STM32L4xx_HAL_Driver/Src/stm32l4xx_hal_ospi.c ****       __HAL_OSPI_CLEAR_FLAG(hospi, HAL_OSPI_FLAG_TE | HAL_OSPI_FLAG_TC);
 1876              		.loc 1 1300 7
 1877 0052 7B68     		ldr	r3, [r7, #4]
 1878 0054 1B68     		ldr	r3, [r3]
 1879 0056 0322     		movs	r2, #3
 1880 0058 5A62     		str	r2, [r3, #36]
1301:Drivers/STM32L4xx_HAL_Driver/Src/stm32l4xx_hal_ospi.c **** 
1302:Drivers/STM32L4xx_HAL_Driver/Src/stm32l4xx_hal_ospi.c ****       /* Update the state */
1303:Drivers/STM32L4xx_HAL_Driver/Src/stm32l4xx_hal_ospi.c ****       hospi->State = HAL_OSPI_STATE_BUSY_TX;
 1881              		.loc 1 1303 20
 1882 005a 7B68     		ldr	r3, [r7, #4]
 1883 005c 1822     		movs	r2, #24
 1884 005e DA64     		str	r2, [r3, #76]
1304:Drivers/STM32L4xx_HAL_Driver/Src/stm32l4xx_hal_ospi.c **** 
ARM GAS  C:\Users\Morroway\AppData\Local\Temp\ccxQAUQ3.s 			page 57


1305:Drivers/STM32L4xx_HAL_Driver/Src/stm32l4xx_hal_ospi.c ****       /* Enable the transfer complete, fifo threshold and transfer error interrupts */
1306:Drivers/STM32L4xx_HAL_Driver/Src/stm32l4xx_hal_ospi.c ****       __HAL_OSPI_ENABLE_IT(hospi, HAL_OSPI_IT_TC | HAL_OSPI_IT_FT | HAL_OSPI_IT_TE);
 1885              		.loc 1 1306 7
 1886 0060 7B68     		ldr	r3, [r7, #4]
 1887 0062 1B68     		ldr	r3, [r3]
 1888 0064 1A68     		ldr	r2, [r3]
 1889 0066 7B68     		ldr	r3, [r7, #4]
 1890 0068 1B68     		ldr	r3, [r3]
 1891 006a 42F4E022 		orr	r2, r2, #458752
 1892 006e 1A60     		str	r2, [r3]
 1893 0070 04E0     		b	.L94
 1894              	.L95:
1307:Drivers/STM32L4xx_HAL_Driver/Src/stm32l4xx_hal_ospi.c ****     }
1308:Drivers/STM32L4xx_HAL_Driver/Src/stm32l4xx_hal_ospi.c ****     else
1309:Drivers/STM32L4xx_HAL_Driver/Src/stm32l4xx_hal_ospi.c ****     {
1310:Drivers/STM32L4xx_HAL_Driver/Src/stm32l4xx_hal_ospi.c ****       status = HAL_ERROR;
 1895              		.loc 1 1310 14
 1896 0072 0123     		movs	r3, #1
 1897 0074 FB73     		strb	r3, [r7, #15]
1311:Drivers/STM32L4xx_HAL_Driver/Src/stm32l4xx_hal_ospi.c ****       hospi->ErrorCode = HAL_OSPI_ERROR_INVALID_SEQUENCE;
 1898              		.loc 1 1311 24
 1899 0076 7B68     		ldr	r3, [r7, #4]
 1900 0078 1022     		movs	r2, #16
 1901 007a 1A65     		str	r2, [r3, #80]
 1902              	.L94:
1312:Drivers/STM32L4xx_HAL_Driver/Src/stm32l4xx_hal_ospi.c ****     }
1313:Drivers/STM32L4xx_HAL_Driver/Src/stm32l4xx_hal_ospi.c ****   }
1314:Drivers/STM32L4xx_HAL_Driver/Src/stm32l4xx_hal_ospi.c **** 
1315:Drivers/STM32L4xx_HAL_Driver/Src/stm32l4xx_hal_ospi.c ****   /* Return function status */
1316:Drivers/STM32L4xx_HAL_Driver/Src/stm32l4xx_hal_ospi.c ****   return status;
 1903              		.loc 1 1316 10
 1904 007c FB7B     		ldrb	r3, [r7, #15]	@ zero_extendqisi2
1317:Drivers/STM32L4xx_HAL_Driver/Src/stm32l4xx_hal_ospi.c **** }
 1905              		.loc 1 1317 1
 1906 007e 1846     		mov	r0, r3
 1907 0080 1437     		adds	r7, r7, #20
 1908              		.cfi_def_cfa_offset 4
 1909 0082 BD46     		mov	sp, r7
 1910              		.cfi_def_cfa_register 13
 1911              		@ sp needed
 1912 0084 5DF8047B 		ldr	r7, [sp], #4
 1913              		.cfi_restore 7
 1914              		.cfi_def_cfa_offset 0
 1915 0088 7047     		bx	lr
 1916              		.cfi_endproc
 1917              	.LFE332:
 1919              		.section	.text.HAL_OSPI_Receive_IT,"ax",%progbits
 1920              		.align	1
 1921              		.global	HAL_OSPI_Receive_IT
 1922              		.syntax unified
 1923              		.thumb
 1924              		.thumb_func
 1926              	HAL_OSPI_Receive_IT:
 1927              	.LFB333:
1318:Drivers/STM32L4xx_HAL_Driver/Src/stm32l4xx_hal_ospi.c **** 
1319:Drivers/STM32L4xx_HAL_Driver/Src/stm32l4xx_hal_ospi.c **** /**
1320:Drivers/STM32L4xx_HAL_Driver/Src/stm32l4xx_hal_ospi.c ****   * @brief  Receive an amount of data in non-blocking mode with interrupt.
ARM GAS  C:\Users\Morroway\AppData\Local\Temp\ccxQAUQ3.s 			page 58


1321:Drivers/STM32L4xx_HAL_Driver/Src/stm32l4xx_hal_ospi.c ****   * @param  hospi : OSPI handle
1322:Drivers/STM32L4xx_HAL_Driver/Src/stm32l4xx_hal_ospi.c ****   * @param  pData : pointer to data buffer
1323:Drivers/STM32L4xx_HAL_Driver/Src/stm32l4xx_hal_ospi.c ****   * @note   This function is used only in Indirect Read Mode
1324:Drivers/STM32L4xx_HAL_Driver/Src/stm32l4xx_hal_ospi.c ****   * @retval HAL status
1325:Drivers/STM32L4xx_HAL_Driver/Src/stm32l4xx_hal_ospi.c ****   */
1326:Drivers/STM32L4xx_HAL_Driver/Src/stm32l4xx_hal_ospi.c **** HAL_StatusTypeDef HAL_OSPI_Receive_IT(OSPI_HandleTypeDef *hospi, uint8_t *pData)
1327:Drivers/STM32L4xx_HAL_Driver/Src/stm32l4xx_hal_ospi.c **** {
 1928              		.loc 1 1327 1
 1929              		.cfi_startproc
 1930              		@ args = 0, pretend = 0, frame = 24
 1931              		@ frame_needed = 1, uses_anonymous_args = 0
 1932              		@ link register save eliminated.
 1933 0000 80B4     		push	{r7}
 1934              		.cfi_def_cfa_offset 4
 1935              		.cfi_offset 7, -4
 1936 0002 87B0     		sub	sp, sp, #28
 1937              		.cfi_def_cfa_offset 32
 1938 0004 00AF     		add	r7, sp, #0
 1939              		.cfi_def_cfa_register 7
 1940 0006 7860     		str	r0, [r7, #4]
 1941 0008 3960     		str	r1, [r7]
1328:Drivers/STM32L4xx_HAL_Driver/Src/stm32l4xx_hal_ospi.c ****   HAL_StatusTypeDef status = HAL_OK;
 1942              		.loc 1 1328 21
 1943 000a 0023     		movs	r3, #0
 1944 000c FB75     		strb	r3, [r7, #23]
1329:Drivers/STM32L4xx_HAL_Driver/Src/stm32l4xx_hal_ospi.c ****   uint32_t addr_reg = hospi->Instance->AR;
 1945              		.loc 1 1329 28
 1946 000e 7B68     		ldr	r3, [r7, #4]
 1947 0010 1B68     		ldr	r3, [r3]
 1948              		.loc 1 1329 12
 1949 0012 9B6C     		ldr	r3, [r3, #72]
 1950 0014 3B61     		str	r3, [r7, #16]
1330:Drivers/STM32L4xx_HAL_Driver/Src/stm32l4xx_hal_ospi.c ****   uint32_t ir_reg = hospi->Instance->IR;
 1951              		.loc 1 1330 26
 1952 0016 7B68     		ldr	r3, [r7, #4]
 1953 0018 1B68     		ldr	r3, [r3]
 1954              		.loc 1 1330 12
 1955 001a D3F81031 		ldr	r3, [r3, #272]
 1956 001e FB60     		str	r3, [r7, #12]
1331:Drivers/STM32L4xx_HAL_Driver/Src/stm32l4xx_hal_ospi.c **** 
1332:Drivers/STM32L4xx_HAL_Driver/Src/stm32l4xx_hal_ospi.c ****   /* Check the data pointer allocation */
1333:Drivers/STM32L4xx_HAL_Driver/Src/stm32l4xx_hal_ospi.c ****   if (pData == NULL)
 1957              		.loc 1 1333 6
 1958 0020 3B68     		ldr	r3, [r7]
 1959 0022 002B     		cmp	r3, #0
 1960 0024 05D1     		bne	.L98
1334:Drivers/STM32L4xx_HAL_Driver/Src/stm32l4xx_hal_ospi.c ****   {
1335:Drivers/STM32L4xx_HAL_Driver/Src/stm32l4xx_hal_ospi.c ****     status = HAL_ERROR;
 1961              		.loc 1 1335 12
 1962 0026 0123     		movs	r3, #1
 1963 0028 FB75     		strb	r3, [r7, #23]
1336:Drivers/STM32L4xx_HAL_Driver/Src/stm32l4xx_hal_ospi.c ****     hospi->ErrorCode = HAL_OSPI_ERROR_INVALID_PARAM;
 1964              		.loc 1 1336 22
 1965 002a 7B68     		ldr	r3, [r7, #4]
 1966 002c 0822     		movs	r2, #8
 1967 002e 1A65     		str	r2, [r3, #80]
 1968 0030 4BE0     		b	.L99
ARM GAS  C:\Users\Morroway\AppData\Local\Temp\ccxQAUQ3.s 			page 59


 1969              	.L98:
1337:Drivers/STM32L4xx_HAL_Driver/Src/stm32l4xx_hal_ospi.c ****   }
1338:Drivers/STM32L4xx_HAL_Driver/Src/stm32l4xx_hal_ospi.c ****   else
1339:Drivers/STM32L4xx_HAL_Driver/Src/stm32l4xx_hal_ospi.c ****   {
1340:Drivers/STM32L4xx_HAL_Driver/Src/stm32l4xx_hal_ospi.c ****     /* Check the state */
1341:Drivers/STM32L4xx_HAL_Driver/Src/stm32l4xx_hal_ospi.c ****     if (hospi->State == HAL_OSPI_STATE_CMD_CFG)
 1970              		.loc 1 1341 14
 1971 0032 7B68     		ldr	r3, [r7, #4]
 1972 0034 DB6C     		ldr	r3, [r3, #76]
 1973              		.loc 1 1341 8
 1974 0036 042B     		cmp	r3, #4
 1975 0038 42D1     		bne	.L100
1342:Drivers/STM32L4xx_HAL_Driver/Src/stm32l4xx_hal_ospi.c ****     {
1343:Drivers/STM32L4xx_HAL_Driver/Src/stm32l4xx_hal_ospi.c ****       /* Configure counters and size */
1344:Drivers/STM32L4xx_HAL_Driver/Src/stm32l4xx_hal_ospi.c ****       hospi->XferCount = READ_REG(hospi->Instance->DLR) + 1U;
 1976              		.loc 1 1344 26
 1977 003a 7B68     		ldr	r3, [r7, #4]
 1978 003c 1B68     		ldr	r3, [r3]
 1979 003e 1B6C     		ldr	r3, [r3, #64]
 1980              		.loc 1 1344 57
 1981 0040 5A1C     		adds	r2, r3, #1
 1982              		.loc 1 1344 24
 1983 0042 7B68     		ldr	r3, [r7, #4]
 1984 0044 5A64     		str	r2, [r3, #68]
1345:Drivers/STM32L4xx_HAL_Driver/Src/stm32l4xx_hal_ospi.c ****       hospi->XferSize  = hospi->XferCount;
 1985              		.loc 1 1345 31
 1986 0046 7B68     		ldr	r3, [r7, #4]
 1987 0048 5A6C     		ldr	r2, [r3, #68]
 1988              		.loc 1 1345 24
 1989 004a 7B68     		ldr	r3, [r7, #4]
 1990 004c 1A64     		str	r2, [r3, #64]
1346:Drivers/STM32L4xx_HAL_Driver/Src/stm32l4xx_hal_ospi.c ****       hospi->pBuffPtr  = pData;
 1991              		.loc 1 1346 24
 1992 004e 7B68     		ldr	r3, [r7, #4]
 1993 0050 3A68     		ldr	r2, [r7]
 1994 0052 DA63     		str	r2, [r3, #60]
1347:Drivers/STM32L4xx_HAL_Driver/Src/stm32l4xx_hal_ospi.c **** 
1348:Drivers/STM32L4xx_HAL_Driver/Src/stm32l4xx_hal_ospi.c ****       /* Configure CR register with functional mode as indirect read */
1349:Drivers/STM32L4xx_HAL_Driver/Src/stm32l4xx_hal_ospi.c ****       MODIFY_REG(hospi->Instance->CR, OCTOSPI_CR_FMODE, OSPI_FUNCTIONAL_MODE_INDIRECT_READ);
 1995              		.loc 1 1349 7
 1996 0054 7B68     		ldr	r3, [r7, #4]
 1997 0056 1B68     		ldr	r3, [r3]
 1998 0058 1B68     		ldr	r3, [r3]
 1999 005a 23F04052 		bic	r2, r3, #805306368
 2000 005e 7B68     		ldr	r3, [r7, #4]
 2001 0060 1B68     		ldr	r3, [r3]
 2002 0062 42F08052 		orr	r2, r2, #268435456
 2003 0066 1A60     		str	r2, [r3]
1350:Drivers/STM32L4xx_HAL_Driver/Src/stm32l4xx_hal_ospi.c **** 
1351:Drivers/STM32L4xx_HAL_Driver/Src/stm32l4xx_hal_ospi.c ****       /* Clear flags related to interrupt */
1352:Drivers/STM32L4xx_HAL_Driver/Src/stm32l4xx_hal_ospi.c ****       __HAL_OSPI_CLEAR_FLAG(hospi, HAL_OSPI_FLAG_TE | HAL_OSPI_FLAG_TC);
 2004              		.loc 1 1352 7
 2005 0068 7B68     		ldr	r3, [r7, #4]
 2006 006a 1B68     		ldr	r3, [r3]
 2007 006c 0322     		movs	r2, #3
 2008 006e 5A62     		str	r2, [r3, #36]
1353:Drivers/STM32L4xx_HAL_Driver/Src/stm32l4xx_hal_ospi.c **** 
ARM GAS  C:\Users\Morroway\AppData\Local\Temp\ccxQAUQ3.s 			page 60


1354:Drivers/STM32L4xx_HAL_Driver/Src/stm32l4xx_hal_ospi.c ****       /* Update the state */
1355:Drivers/STM32L4xx_HAL_Driver/Src/stm32l4xx_hal_ospi.c ****       hospi->State = HAL_OSPI_STATE_BUSY_RX;
 2009              		.loc 1 1355 20
 2010 0070 7B68     		ldr	r3, [r7, #4]
 2011 0072 2822     		movs	r2, #40
 2012 0074 DA64     		str	r2, [r3, #76]
1356:Drivers/STM32L4xx_HAL_Driver/Src/stm32l4xx_hal_ospi.c **** 
1357:Drivers/STM32L4xx_HAL_Driver/Src/stm32l4xx_hal_ospi.c ****       /* Enable the transfer complete, fifo threshold and transfer error interrupts */
1358:Drivers/STM32L4xx_HAL_Driver/Src/stm32l4xx_hal_ospi.c ****       __HAL_OSPI_ENABLE_IT(hospi, HAL_OSPI_IT_TC | HAL_OSPI_IT_FT | HAL_OSPI_IT_TE);
 2013              		.loc 1 1358 7
 2014 0076 7B68     		ldr	r3, [r7, #4]
 2015 0078 1B68     		ldr	r3, [r3]
 2016 007a 1A68     		ldr	r2, [r3]
 2017 007c 7B68     		ldr	r3, [r7, #4]
 2018 007e 1B68     		ldr	r3, [r3]
 2019 0080 42F4E022 		orr	r2, r2, #458752
 2020 0084 1A60     		str	r2, [r3]
1359:Drivers/STM32L4xx_HAL_Driver/Src/stm32l4xx_hal_ospi.c **** 
1360:Drivers/STM32L4xx_HAL_Driver/Src/stm32l4xx_hal_ospi.c ****       /* Trig the transfer by re-writing address or instruction register */
1361:Drivers/STM32L4xx_HAL_Driver/Src/stm32l4xx_hal_ospi.c ****       if (hospi->Init.MemoryType == HAL_OSPI_MEMTYPE_HYPERBUS)
 2021              		.loc 1 1361 22
 2022 0086 7B68     		ldr	r3, [r7, #4]
 2023 0088 DB68     		ldr	r3, [r3, #12]
 2024              		.loc 1 1361 10
 2025 008a B3F1806F 		cmp	r3, #67108864
 2026 008e 04D1     		bne	.L101
1362:Drivers/STM32L4xx_HAL_Driver/Src/stm32l4xx_hal_ospi.c ****       {
1363:Drivers/STM32L4xx_HAL_Driver/Src/stm32l4xx_hal_ospi.c ****         WRITE_REG(hospi->Instance->AR, addr_reg);
 2027              		.loc 1 1363 9
 2028 0090 7B68     		ldr	r3, [r7, #4]
 2029 0092 1B68     		ldr	r3, [r3]
 2030 0094 3A69     		ldr	r2, [r7, #16]
 2031 0096 9A64     		str	r2, [r3, #72]
 2032 0098 17E0     		b	.L99
 2033              	.L101:
1364:Drivers/STM32L4xx_HAL_Driver/Src/stm32l4xx_hal_ospi.c ****       }
1365:Drivers/STM32L4xx_HAL_Driver/Src/stm32l4xx_hal_ospi.c ****       else
1366:Drivers/STM32L4xx_HAL_Driver/Src/stm32l4xx_hal_ospi.c ****       {
1367:Drivers/STM32L4xx_HAL_Driver/Src/stm32l4xx_hal_ospi.c ****         if (READ_BIT(hospi->Instance->CCR, OCTOSPI_CCR_ADMODE) != HAL_OSPI_ADDRESS_NONE)
 2034              		.loc 1 1367 13
 2035 009a 7B68     		ldr	r3, [r7, #4]
 2036 009c 1B68     		ldr	r3, [r3]
 2037 009e D3F80031 		ldr	r3, [r3, #256]
 2038 00a2 03F4E063 		and	r3, r3, #1792
 2039              		.loc 1 1367 12
 2040 00a6 002B     		cmp	r3, #0
 2041 00a8 04D0     		beq	.L102
1368:Drivers/STM32L4xx_HAL_Driver/Src/stm32l4xx_hal_ospi.c ****         {
1369:Drivers/STM32L4xx_HAL_Driver/Src/stm32l4xx_hal_ospi.c ****           WRITE_REG(hospi->Instance->AR, addr_reg);
 2042              		.loc 1 1369 11
 2043 00aa 7B68     		ldr	r3, [r7, #4]
 2044 00ac 1B68     		ldr	r3, [r3]
 2045 00ae 3A69     		ldr	r2, [r7, #16]
 2046 00b0 9A64     		str	r2, [r3, #72]
 2047 00b2 0AE0     		b	.L99
 2048              	.L102:
1370:Drivers/STM32L4xx_HAL_Driver/Src/stm32l4xx_hal_ospi.c ****         }
ARM GAS  C:\Users\Morroway\AppData\Local\Temp\ccxQAUQ3.s 			page 61


1371:Drivers/STM32L4xx_HAL_Driver/Src/stm32l4xx_hal_ospi.c ****         else
1372:Drivers/STM32L4xx_HAL_Driver/Src/stm32l4xx_hal_ospi.c ****         {
1373:Drivers/STM32L4xx_HAL_Driver/Src/stm32l4xx_hal_ospi.c ****           WRITE_REG(hospi->Instance->IR, ir_reg);
 2049              		.loc 1 1373 11
 2050 00b4 7B68     		ldr	r3, [r7, #4]
 2051 00b6 1B68     		ldr	r3, [r3]
 2052 00b8 FA68     		ldr	r2, [r7, #12]
 2053 00ba C3F81021 		str	r2, [r3, #272]
 2054 00be 04E0     		b	.L99
 2055              	.L100:
1374:Drivers/STM32L4xx_HAL_Driver/Src/stm32l4xx_hal_ospi.c ****         }
1375:Drivers/STM32L4xx_HAL_Driver/Src/stm32l4xx_hal_ospi.c ****       }
1376:Drivers/STM32L4xx_HAL_Driver/Src/stm32l4xx_hal_ospi.c ****     }
1377:Drivers/STM32L4xx_HAL_Driver/Src/stm32l4xx_hal_ospi.c ****     else
1378:Drivers/STM32L4xx_HAL_Driver/Src/stm32l4xx_hal_ospi.c ****     {
1379:Drivers/STM32L4xx_HAL_Driver/Src/stm32l4xx_hal_ospi.c ****       status = HAL_ERROR;
 2056              		.loc 1 1379 14
 2057 00c0 0123     		movs	r3, #1
 2058 00c2 FB75     		strb	r3, [r7, #23]
1380:Drivers/STM32L4xx_HAL_Driver/Src/stm32l4xx_hal_ospi.c ****       hospi->ErrorCode = HAL_OSPI_ERROR_INVALID_SEQUENCE;
 2059              		.loc 1 1380 24
 2060 00c4 7B68     		ldr	r3, [r7, #4]
 2061 00c6 1022     		movs	r2, #16
 2062 00c8 1A65     		str	r2, [r3, #80]
 2063              	.L99:
1381:Drivers/STM32L4xx_HAL_Driver/Src/stm32l4xx_hal_ospi.c ****     }
1382:Drivers/STM32L4xx_HAL_Driver/Src/stm32l4xx_hal_ospi.c ****   }
1383:Drivers/STM32L4xx_HAL_Driver/Src/stm32l4xx_hal_ospi.c **** 
1384:Drivers/STM32L4xx_HAL_Driver/Src/stm32l4xx_hal_ospi.c ****   /* Return function status */
1385:Drivers/STM32L4xx_HAL_Driver/Src/stm32l4xx_hal_ospi.c ****   return status;
 2064              		.loc 1 1385 10
 2065 00ca FB7D     		ldrb	r3, [r7, #23]	@ zero_extendqisi2
1386:Drivers/STM32L4xx_HAL_Driver/Src/stm32l4xx_hal_ospi.c **** }
 2066              		.loc 1 1386 1
 2067 00cc 1846     		mov	r0, r3
 2068 00ce 1C37     		adds	r7, r7, #28
 2069              		.cfi_def_cfa_offset 4
 2070 00d0 BD46     		mov	sp, r7
 2071              		.cfi_def_cfa_register 13
 2072              		@ sp needed
 2073 00d2 5DF8047B 		ldr	r7, [sp], #4
 2074              		.cfi_restore 7
 2075              		.cfi_def_cfa_offset 0
 2076 00d6 7047     		bx	lr
 2077              		.cfi_endproc
 2078              	.LFE333:
 2080              		.section	.text.HAL_OSPI_Transmit_DMA,"ax",%progbits
 2081              		.align	1
 2082              		.global	HAL_OSPI_Transmit_DMA
 2083              		.syntax unified
 2084              		.thumb
 2085              		.thumb_func
 2087              	HAL_OSPI_Transmit_DMA:
 2088              	.LFB334:
1387:Drivers/STM32L4xx_HAL_Driver/Src/stm32l4xx_hal_ospi.c **** 
1388:Drivers/STM32L4xx_HAL_Driver/Src/stm32l4xx_hal_ospi.c **** /**
1389:Drivers/STM32L4xx_HAL_Driver/Src/stm32l4xx_hal_ospi.c ****   * @brief  Send an amount of data in non-blocking mode with DMA.
ARM GAS  C:\Users\Morroway\AppData\Local\Temp\ccxQAUQ3.s 			page 62


1390:Drivers/STM32L4xx_HAL_Driver/Src/stm32l4xx_hal_ospi.c ****   * @param  hospi : OSPI handle
1391:Drivers/STM32L4xx_HAL_Driver/Src/stm32l4xx_hal_ospi.c ****   * @param  pData : pointer to data buffer
1392:Drivers/STM32L4xx_HAL_Driver/Src/stm32l4xx_hal_ospi.c ****   * @note   This function is used only in Indirect Write Mode
1393:Drivers/STM32L4xx_HAL_Driver/Src/stm32l4xx_hal_ospi.c ****   * @note   If DMA peripheral access is configured as halfword, the number
1394:Drivers/STM32L4xx_HAL_Driver/Src/stm32l4xx_hal_ospi.c ****   *         of data and the fifo threshold should be aligned on halfword
1395:Drivers/STM32L4xx_HAL_Driver/Src/stm32l4xx_hal_ospi.c ****   * @note   If DMA peripheral access is configured as word, the number
1396:Drivers/STM32L4xx_HAL_Driver/Src/stm32l4xx_hal_ospi.c ****   *         of data and the fifo threshold should be aligned on word
1397:Drivers/STM32L4xx_HAL_Driver/Src/stm32l4xx_hal_ospi.c ****   * @retval HAL status
1398:Drivers/STM32L4xx_HAL_Driver/Src/stm32l4xx_hal_ospi.c ****   */
1399:Drivers/STM32L4xx_HAL_Driver/Src/stm32l4xx_hal_ospi.c **** HAL_StatusTypeDef HAL_OSPI_Transmit_DMA(OSPI_HandleTypeDef *hospi, uint8_t *pData)
1400:Drivers/STM32L4xx_HAL_Driver/Src/stm32l4xx_hal_ospi.c **** {
 2089              		.loc 1 1400 1
 2090              		.cfi_startproc
 2091              		@ args = 0, pretend = 0, frame = 16
 2092              		@ frame_needed = 1, uses_anonymous_args = 0
 2093 0000 80B5     		push	{r7, lr}
 2094              		.cfi_def_cfa_offset 8
 2095              		.cfi_offset 7, -8
 2096              		.cfi_offset 14, -4
 2097 0002 84B0     		sub	sp, sp, #16
 2098              		.cfi_def_cfa_offset 24
 2099 0004 00AF     		add	r7, sp, #0
 2100              		.cfi_def_cfa_register 7
 2101 0006 7860     		str	r0, [r7, #4]
 2102 0008 3960     		str	r1, [r7]
1401:Drivers/STM32L4xx_HAL_Driver/Src/stm32l4xx_hal_ospi.c ****   HAL_StatusTypeDef status = HAL_OK;
 2103              		.loc 1 1401 21
 2104 000a 0023     		movs	r3, #0
 2105 000c FB73     		strb	r3, [r7, #15]
1402:Drivers/STM32L4xx_HAL_Driver/Src/stm32l4xx_hal_ospi.c ****   uint32_t data_size = hospi->Instance->DLR + 1U;
 2106              		.loc 1 1402 29
 2107 000e 7B68     		ldr	r3, [r7, #4]
 2108 0010 1B68     		ldr	r3, [r3]
 2109              		.loc 1 1402 39
 2110 0012 1B6C     		ldr	r3, [r3, #64]
 2111              		.loc 1 1402 12
 2112 0014 0133     		adds	r3, r3, #1
 2113 0016 BB60     		str	r3, [r7, #8]
1403:Drivers/STM32L4xx_HAL_Driver/Src/stm32l4xx_hal_ospi.c **** 
1404:Drivers/STM32L4xx_HAL_Driver/Src/stm32l4xx_hal_ospi.c ****   /* Check the data pointer allocation */
1405:Drivers/STM32L4xx_HAL_Driver/Src/stm32l4xx_hal_ospi.c ****   if (pData == NULL)
 2114              		.loc 1 1405 6
 2115 0018 3B68     		ldr	r3, [r7]
 2116 001a 002B     		cmp	r3, #0
 2117 001c 05D1     		bne	.L105
1406:Drivers/STM32L4xx_HAL_Driver/Src/stm32l4xx_hal_ospi.c ****   {
1407:Drivers/STM32L4xx_HAL_Driver/Src/stm32l4xx_hal_ospi.c ****     status = HAL_ERROR;
 2118              		.loc 1 1407 12
 2119 001e 0123     		movs	r3, #1
 2120 0020 FB73     		strb	r3, [r7, #15]
1408:Drivers/STM32L4xx_HAL_Driver/Src/stm32l4xx_hal_ospi.c ****     hospi->ErrorCode = HAL_OSPI_ERROR_INVALID_PARAM;
 2121              		.loc 1 1408 22
 2122 0022 7B68     		ldr	r3, [r7, #4]
 2123 0024 0822     		movs	r2, #8
 2124 0026 1A65     		str	r2, [r3, #80]
 2125 0028 ACE0     		b	.L106
 2126              	.L105:
ARM GAS  C:\Users\Morroway\AppData\Local\Temp\ccxQAUQ3.s 			page 63


1409:Drivers/STM32L4xx_HAL_Driver/Src/stm32l4xx_hal_ospi.c ****   }
1410:Drivers/STM32L4xx_HAL_Driver/Src/stm32l4xx_hal_ospi.c ****   else
1411:Drivers/STM32L4xx_HAL_Driver/Src/stm32l4xx_hal_ospi.c ****   {
1412:Drivers/STM32L4xx_HAL_Driver/Src/stm32l4xx_hal_ospi.c ****     /* Check the state */
1413:Drivers/STM32L4xx_HAL_Driver/Src/stm32l4xx_hal_ospi.c ****     if (hospi->State == HAL_OSPI_STATE_CMD_CFG)
 2127              		.loc 1 1413 14
 2128 002a 7B68     		ldr	r3, [r7, #4]
 2129 002c DB6C     		ldr	r3, [r3, #76]
 2130              		.loc 1 1413 8
 2131 002e 042B     		cmp	r3, #4
 2132 0030 40F0A380 		bne	.L107
1414:Drivers/STM32L4xx_HAL_Driver/Src/stm32l4xx_hal_ospi.c ****     {
1415:Drivers/STM32L4xx_HAL_Driver/Src/stm32l4xx_hal_ospi.c ****       /* Configure counters and size */
1416:Drivers/STM32L4xx_HAL_Driver/Src/stm32l4xx_hal_ospi.c ****       if (hospi->hdma->Init.PeriphDataAlignment == DMA_PDATAALIGN_BYTE)
 2133              		.loc 1 1416 16
 2134 0034 7B68     		ldr	r3, [r7, #4]
 2135 0036 9B6C     		ldr	r3, [r3, #72]
 2136              		.loc 1 1416 28
 2137 0038 5B69     		ldr	r3, [r3, #20]
 2138              		.loc 1 1416 10
 2139 003a 002B     		cmp	r3, #0
 2140 003c 03D1     		bne	.L108
1417:Drivers/STM32L4xx_HAL_Driver/Src/stm32l4xx_hal_ospi.c ****       {
1418:Drivers/STM32L4xx_HAL_Driver/Src/stm32l4xx_hal_ospi.c ****         hospi->XferCount = data_size;
 2141              		.loc 1 1418 26
 2142 003e 7B68     		ldr	r3, [r7, #4]
 2143 0040 BA68     		ldr	r2, [r7, #8]
 2144 0042 5A64     		str	r2, [r3, #68]
 2145 0044 36E0     		b	.L109
 2146              	.L108:
1419:Drivers/STM32L4xx_HAL_Driver/Src/stm32l4xx_hal_ospi.c ****       }
1420:Drivers/STM32L4xx_HAL_Driver/Src/stm32l4xx_hal_ospi.c ****       else if (hospi->hdma->Init.PeriphDataAlignment == DMA_PDATAALIGN_HALFWORD)
 2147              		.loc 1 1420 21
 2148 0046 7B68     		ldr	r3, [r7, #4]
 2149 0048 9B6C     		ldr	r3, [r3, #72]
 2150              		.loc 1 1420 33
 2151 004a 5B69     		ldr	r3, [r3, #20]
 2152              		.loc 1 1420 15
 2153 004c B3F5807F 		cmp	r3, #256
 2154 0050 15D1     		bne	.L110
1421:Drivers/STM32L4xx_HAL_Driver/Src/stm32l4xx_hal_ospi.c ****       {
1422:Drivers/STM32L4xx_HAL_Driver/Src/stm32l4xx_hal_ospi.c ****         if (((data_size % 2U) != 0U) || ((hospi->Init.FifoThreshold % 2U) != 0U))
 2155              		.loc 1 1422 25
 2156 0052 BB68     		ldr	r3, [r7, #8]
 2157 0054 03F00103 		and	r3, r3, #1
 2158              		.loc 1 1422 12
 2159 0058 002B     		cmp	r3, #0
 2160 005a 05D1     		bne	.L111
 2161              		.loc 1 1422 54 discriminator 1
 2162 005c 7B68     		ldr	r3, [r7, #4]
 2163 005e 5B68     		ldr	r3, [r3, #4]
 2164              		.loc 1 1422 69 discriminator 1
 2165 0060 03F00103 		and	r3, r3, #1
 2166              		.loc 1 1422 38 discriminator 1
 2167 0064 002B     		cmp	r3, #0
 2168 0066 05D0     		beq	.L112
 2169              	.L111:
ARM GAS  C:\Users\Morroway\AppData\Local\Temp\ccxQAUQ3.s 			page 64


1423:Drivers/STM32L4xx_HAL_Driver/Src/stm32l4xx_hal_ospi.c ****         {
1424:Drivers/STM32L4xx_HAL_Driver/Src/stm32l4xx_hal_ospi.c ****           /* The number of data or the fifo threshold is not aligned on halfword
1425:Drivers/STM32L4xx_HAL_Driver/Src/stm32l4xx_hal_ospi.c ****           => no transfer possible with DMA peripheral access configured as halfword */
1426:Drivers/STM32L4xx_HAL_Driver/Src/stm32l4xx_hal_ospi.c ****           hospi->ErrorCode = HAL_OSPI_ERROR_INVALID_PARAM;
 2170              		.loc 1 1426 28
 2171 0068 7B68     		ldr	r3, [r7, #4]
 2172 006a 0822     		movs	r2, #8
 2173 006c 1A65     		str	r2, [r3, #80]
1427:Drivers/STM32L4xx_HAL_Driver/Src/stm32l4xx_hal_ospi.c ****           status = HAL_ERROR;
 2174              		.loc 1 1427 18
 2175 006e 0123     		movs	r3, #1
 2176 0070 FB73     		strb	r3, [r7, #15]
 2177 0072 1FE0     		b	.L109
 2178              	.L112:
1428:Drivers/STM32L4xx_HAL_Driver/Src/stm32l4xx_hal_ospi.c ****         }
1429:Drivers/STM32L4xx_HAL_Driver/Src/stm32l4xx_hal_ospi.c ****         else
1430:Drivers/STM32L4xx_HAL_Driver/Src/stm32l4xx_hal_ospi.c ****         {
1431:Drivers/STM32L4xx_HAL_Driver/Src/stm32l4xx_hal_ospi.c ****           hospi->XferCount = (data_size >> 1);
 2179              		.loc 1 1431 41
 2180 0074 BB68     		ldr	r3, [r7, #8]
 2181 0076 5A08     		lsrs	r2, r3, #1
 2182              		.loc 1 1431 28
 2183 0078 7B68     		ldr	r3, [r7, #4]
 2184 007a 5A64     		str	r2, [r3, #68]
 2185 007c 1AE0     		b	.L109
 2186              	.L110:
1432:Drivers/STM32L4xx_HAL_Driver/Src/stm32l4xx_hal_ospi.c ****         }
1433:Drivers/STM32L4xx_HAL_Driver/Src/stm32l4xx_hal_ospi.c ****       }
1434:Drivers/STM32L4xx_HAL_Driver/Src/stm32l4xx_hal_ospi.c ****       else if (hospi->hdma->Init.PeriphDataAlignment == DMA_PDATAALIGN_WORD)
 2187              		.loc 1 1434 21
 2188 007e 7B68     		ldr	r3, [r7, #4]
 2189 0080 9B6C     		ldr	r3, [r3, #72]
 2190              		.loc 1 1434 33
 2191 0082 5B69     		ldr	r3, [r3, #20]
 2192              		.loc 1 1434 15
 2193 0084 B3F5007F 		cmp	r3, #512
 2194 0088 14D1     		bne	.L109
1435:Drivers/STM32L4xx_HAL_Driver/Src/stm32l4xx_hal_ospi.c ****       {
1436:Drivers/STM32L4xx_HAL_Driver/Src/stm32l4xx_hal_ospi.c ****         if (((data_size % 4U) != 0U) || ((hospi->Init.FifoThreshold % 4U) != 0U))
 2195              		.loc 1 1436 25
 2196 008a BB68     		ldr	r3, [r7, #8]
 2197 008c 03F00303 		and	r3, r3, #3
 2198              		.loc 1 1436 12
 2199 0090 002B     		cmp	r3, #0
 2200 0092 05D1     		bne	.L114
 2201              		.loc 1 1436 54 discriminator 1
 2202 0094 7B68     		ldr	r3, [r7, #4]
 2203 0096 5B68     		ldr	r3, [r3, #4]
 2204              		.loc 1 1436 69 discriminator 1
 2205 0098 03F00303 		and	r3, r3, #3
 2206              		.loc 1 1436 38 discriminator 1
 2207 009c 002B     		cmp	r3, #0
 2208 009e 05D0     		beq	.L115
 2209              	.L114:
1437:Drivers/STM32L4xx_HAL_Driver/Src/stm32l4xx_hal_ospi.c ****         {
1438:Drivers/STM32L4xx_HAL_Driver/Src/stm32l4xx_hal_ospi.c ****           /* The number of data or the fifo threshold is not aligned on word
1439:Drivers/STM32L4xx_HAL_Driver/Src/stm32l4xx_hal_ospi.c ****           => no transfer possible with DMA peripheral access configured as word */
ARM GAS  C:\Users\Morroway\AppData\Local\Temp\ccxQAUQ3.s 			page 65


1440:Drivers/STM32L4xx_HAL_Driver/Src/stm32l4xx_hal_ospi.c ****           hospi->ErrorCode = HAL_OSPI_ERROR_INVALID_PARAM;
 2210              		.loc 1 1440 28
 2211 00a0 7B68     		ldr	r3, [r7, #4]
 2212 00a2 0822     		movs	r2, #8
 2213 00a4 1A65     		str	r2, [r3, #80]
1441:Drivers/STM32L4xx_HAL_Driver/Src/stm32l4xx_hal_ospi.c ****           status = HAL_ERROR;
 2214              		.loc 1 1441 18
 2215 00a6 0123     		movs	r3, #1
 2216 00a8 FB73     		strb	r3, [r7, #15]
 2217 00aa 03E0     		b	.L109
 2218              	.L115:
1442:Drivers/STM32L4xx_HAL_Driver/Src/stm32l4xx_hal_ospi.c ****         }
1443:Drivers/STM32L4xx_HAL_Driver/Src/stm32l4xx_hal_ospi.c ****         else
1444:Drivers/STM32L4xx_HAL_Driver/Src/stm32l4xx_hal_ospi.c ****         {
1445:Drivers/STM32L4xx_HAL_Driver/Src/stm32l4xx_hal_ospi.c ****           hospi->XferCount = (data_size >> 2);
 2219              		.loc 1 1445 41
 2220 00ac BB68     		ldr	r3, [r7, #8]
 2221 00ae 9A08     		lsrs	r2, r3, #2
 2222              		.loc 1 1445 28
 2223 00b0 7B68     		ldr	r3, [r7, #4]
 2224 00b2 5A64     		str	r2, [r3, #68]
 2225              	.L109:
1446:Drivers/STM32L4xx_HAL_Driver/Src/stm32l4xx_hal_ospi.c ****         }
1447:Drivers/STM32L4xx_HAL_Driver/Src/stm32l4xx_hal_ospi.c ****       }
1448:Drivers/STM32L4xx_HAL_Driver/Src/stm32l4xx_hal_ospi.c ****       else
1449:Drivers/STM32L4xx_HAL_Driver/Src/stm32l4xx_hal_ospi.c ****       {
1450:Drivers/STM32L4xx_HAL_Driver/Src/stm32l4xx_hal_ospi.c ****         /* Nothing to do */
1451:Drivers/STM32L4xx_HAL_Driver/Src/stm32l4xx_hal_ospi.c ****       }
1452:Drivers/STM32L4xx_HAL_Driver/Src/stm32l4xx_hal_ospi.c **** 
1453:Drivers/STM32L4xx_HAL_Driver/Src/stm32l4xx_hal_ospi.c ****       if (status == HAL_OK)
 2226              		.loc 1 1453 10
 2227 00b4 FB7B     		ldrb	r3, [r7, #15]	@ zero_extendqisi2
 2228 00b6 002B     		cmp	r3, #0
 2229 00b8 64D1     		bne	.L106
1454:Drivers/STM32L4xx_HAL_Driver/Src/stm32l4xx_hal_ospi.c ****       {
1455:Drivers/STM32L4xx_HAL_Driver/Src/stm32l4xx_hal_ospi.c ****         hospi->XferSize = hospi->XferCount;
 2230              		.loc 1 1455 32
 2231 00ba 7B68     		ldr	r3, [r7, #4]
 2232 00bc 5A6C     		ldr	r2, [r3, #68]
 2233              		.loc 1 1455 25
 2234 00be 7B68     		ldr	r3, [r7, #4]
 2235 00c0 1A64     		str	r2, [r3, #64]
1456:Drivers/STM32L4xx_HAL_Driver/Src/stm32l4xx_hal_ospi.c ****         hospi->pBuffPtr = pData;
 2236              		.loc 1 1456 25
 2237 00c2 7B68     		ldr	r3, [r7, #4]
 2238 00c4 3A68     		ldr	r2, [r7]
 2239 00c6 DA63     		str	r2, [r3, #60]
1457:Drivers/STM32L4xx_HAL_Driver/Src/stm32l4xx_hal_ospi.c **** 
1458:Drivers/STM32L4xx_HAL_Driver/Src/stm32l4xx_hal_ospi.c ****         /* Configure CR register with functional mode as indirect write */
1459:Drivers/STM32L4xx_HAL_Driver/Src/stm32l4xx_hal_ospi.c ****         MODIFY_REG(hospi->Instance->CR, OCTOSPI_CR_FMODE, OSPI_FUNCTIONAL_MODE_INDIRECT_WRITE);
 2240              		.loc 1 1459 9
 2241 00c8 7B68     		ldr	r3, [r7, #4]
 2242 00ca 1B68     		ldr	r3, [r3]
 2243 00cc 1A68     		ldr	r2, [r3]
 2244 00ce 7B68     		ldr	r3, [r7, #4]
 2245 00d0 1B68     		ldr	r3, [r3]
 2246 00d2 22F04052 		bic	r2, r2, #805306368
ARM GAS  C:\Users\Morroway\AppData\Local\Temp\ccxQAUQ3.s 			page 66


 2247 00d6 1A60     		str	r2, [r3]
1460:Drivers/STM32L4xx_HAL_Driver/Src/stm32l4xx_hal_ospi.c **** 
1461:Drivers/STM32L4xx_HAL_Driver/Src/stm32l4xx_hal_ospi.c ****         /* Clear flags related to interrupt */
1462:Drivers/STM32L4xx_HAL_Driver/Src/stm32l4xx_hal_ospi.c ****         __HAL_OSPI_CLEAR_FLAG(hospi, HAL_OSPI_FLAG_TE | HAL_OSPI_FLAG_TC);
 2248              		.loc 1 1462 9
 2249 00d8 7B68     		ldr	r3, [r7, #4]
 2250 00da 1B68     		ldr	r3, [r3]
 2251 00dc 0322     		movs	r2, #3
 2252 00de 5A62     		str	r2, [r3, #36]
1463:Drivers/STM32L4xx_HAL_Driver/Src/stm32l4xx_hal_ospi.c **** 
1464:Drivers/STM32L4xx_HAL_Driver/Src/stm32l4xx_hal_ospi.c ****         /* Update the state */
1465:Drivers/STM32L4xx_HAL_Driver/Src/stm32l4xx_hal_ospi.c ****         hospi->State = HAL_OSPI_STATE_BUSY_TX;
 2253              		.loc 1 1465 22
 2254 00e0 7B68     		ldr	r3, [r7, #4]
 2255 00e2 1822     		movs	r2, #24
 2256 00e4 DA64     		str	r2, [r3, #76]
1466:Drivers/STM32L4xx_HAL_Driver/Src/stm32l4xx_hal_ospi.c **** 
1467:Drivers/STM32L4xx_HAL_Driver/Src/stm32l4xx_hal_ospi.c ****         /* Set the DMA transfer complete callback */
1468:Drivers/STM32L4xx_HAL_Driver/Src/stm32l4xx_hal_ospi.c ****         hospi->hdma->XferCpltCallback = OSPI_DMACplt;
 2257              		.loc 1 1468 14
 2258 00e6 7B68     		ldr	r3, [r7, #4]
 2259 00e8 9B6C     		ldr	r3, [r3, #72]
 2260              		.loc 1 1468 39
 2261 00ea 294A     		ldr	r2, .L119
 2262 00ec DA62     		str	r2, [r3, #44]
1469:Drivers/STM32L4xx_HAL_Driver/Src/stm32l4xx_hal_ospi.c **** 
1470:Drivers/STM32L4xx_HAL_Driver/Src/stm32l4xx_hal_ospi.c ****         /* Set the DMA Half transfer complete callback */
1471:Drivers/STM32L4xx_HAL_Driver/Src/stm32l4xx_hal_ospi.c ****         hospi->hdma->XferHalfCpltCallback = OSPI_DMAHalfCplt;
 2263              		.loc 1 1471 14
 2264 00ee 7B68     		ldr	r3, [r7, #4]
 2265 00f0 9B6C     		ldr	r3, [r3, #72]
 2266              		.loc 1 1471 43
 2267 00f2 284A     		ldr	r2, .L119+4
 2268 00f4 1A63     		str	r2, [r3, #48]
1472:Drivers/STM32L4xx_HAL_Driver/Src/stm32l4xx_hal_ospi.c **** 
1473:Drivers/STM32L4xx_HAL_Driver/Src/stm32l4xx_hal_ospi.c ****         /* Set the DMA error callback */
1474:Drivers/STM32L4xx_HAL_Driver/Src/stm32l4xx_hal_ospi.c ****         hospi->hdma->XferErrorCallback = OSPI_DMAError;
 2269              		.loc 1 1474 14
 2270 00f6 7B68     		ldr	r3, [r7, #4]
 2271 00f8 9B6C     		ldr	r3, [r3, #72]
 2272              		.loc 1 1474 40
 2273 00fa 274A     		ldr	r2, .L119+8
 2274 00fc 5A63     		str	r2, [r3, #52]
1475:Drivers/STM32L4xx_HAL_Driver/Src/stm32l4xx_hal_ospi.c **** 
1476:Drivers/STM32L4xx_HAL_Driver/Src/stm32l4xx_hal_ospi.c ****         /* Clear the DMA abort callback */
1477:Drivers/STM32L4xx_HAL_Driver/Src/stm32l4xx_hal_ospi.c ****         hospi->hdma->XferAbortCallback = NULL;
 2275              		.loc 1 1477 14
 2276 00fe 7B68     		ldr	r3, [r7, #4]
 2277 0100 9B6C     		ldr	r3, [r3, #72]
 2278              		.loc 1 1477 40
 2279 0102 0022     		movs	r2, #0
 2280 0104 9A63     		str	r2, [r3, #56]
1478:Drivers/STM32L4xx_HAL_Driver/Src/stm32l4xx_hal_ospi.c **** 
1479:Drivers/STM32L4xx_HAL_Driver/Src/stm32l4xx_hal_ospi.c ****         /* Configure the direction of the DMA */
1480:Drivers/STM32L4xx_HAL_Driver/Src/stm32l4xx_hal_ospi.c ****         hospi->hdma->Init.Direction = DMA_MEMORY_TO_PERIPH;
 2281              		.loc 1 1480 14
 2282 0106 7B68     		ldr	r3, [r7, #4]
ARM GAS  C:\Users\Morroway\AppData\Local\Temp\ccxQAUQ3.s 			page 67


 2283 0108 9B6C     		ldr	r3, [r3, #72]
 2284              		.loc 1 1480 37
 2285 010a 1022     		movs	r2, #16
 2286 010c 9A60     		str	r2, [r3, #8]
1481:Drivers/STM32L4xx_HAL_Driver/Src/stm32l4xx_hal_ospi.c ****         MODIFY_REG(hospi->hdma->Instance->CCR, DMA_CCR_DIR, hospi->hdma->Init.Direction);
 2287              		.loc 1 1481 9
 2288 010e 7B68     		ldr	r3, [r7, #4]
 2289 0110 9B6C     		ldr	r3, [r3, #72]
 2290 0112 1B68     		ldr	r3, [r3]
 2291 0114 1B68     		ldr	r3, [r3]
 2292 0116 23F01001 		bic	r1, r3, #16
 2293 011a 7B68     		ldr	r3, [r7, #4]
 2294 011c 9B6C     		ldr	r3, [r3, #72]
 2295 011e 9A68     		ldr	r2, [r3, #8]
 2296 0120 7B68     		ldr	r3, [r7, #4]
 2297 0122 9B6C     		ldr	r3, [r3, #72]
 2298 0124 1B68     		ldr	r3, [r3]
 2299 0126 0A43     		orrs	r2, r2, r1
 2300 0128 1A60     		str	r2, [r3]
1482:Drivers/STM32L4xx_HAL_Driver/Src/stm32l4xx_hal_ospi.c **** 
1483:Drivers/STM32L4xx_HAL_Driver/Src/stm32l4xx_hal_ospi.c ****             /* Enable the transmit DMA Channel */
1484:Drivers/STM32L4xx_HAL_Driver/Src/stm32l4xx_hal_ospi.c ****             if (HAL_DMA_Start_IT(hospi->hdma, (uint32_t)pData, (uint32_t)&hospi->Instance->DR, hosp
 2301              		.loc 1 1484 17
 2302 012a 7B68     		ldr	r3, [r7, #4]
 2303 012c 986C     		ldr	r0, [r3, #72]
 2304 012e 3968     		ldr	r1, [r7]
 2305              		.loc 1 1484 80
 2306 0130 7B68     		ldr	r3, [r7, #4]
 2307 0132 1B68     		ldr	r3, [r3]
 2308              		.loc 1 1484 74
 2309 0134 5033     		adds	r3, r3, #80
 2310              		.loc 1 1484 17
 2311 0136 1A46     		mov	r2, r3
 2312              		.loc 1 1484 101
 2313 0138 7B68     		ldr	r3, [r7, #4]
 2314 013a 1B6C     		ldr	r3, [r3, #64]
 2315              		.loc 1 1484 17
 2316 013c FFF7FEFF 		bl	HAL_DMA_Start_IT
 2317 0140 0346     		mov	r3, r0
 2318              		.loc 1 1484 16
 2319 0142 002B     		cmp	r3, #0
 2320 0144 10D1     		bne	.L117
1485:Drivers/STM32L4xx_HAL_Driver/Src/stm32l4xx_hal_ospi.c ****             {
1486:Drivers/STM32L4xx_HAL_Driver/Src/stm32l4xx_hal_ospi.c ****               /* Enable the transfer error interrupt */
1487:Drivers/STM32L4xx_HAL_Driver/Src/stm32l4xx_hal_ospi.c ****               __HAL_OSPI_ENABLE_IT(hospi, HAL_OSPI_IT_TE);
 2321              		.loc 1 1487 15
 2322 0146 7B68     		ldr	r3, [r7, #4]
 2323 0148 1B68     		ldr	r3, [r3]
 2324 014a 1A68     		ldr	r2, [r3]
 2325 014c 7B68     		ldr	r3, [r7, #4]
 2326 014e 1B68     		ldr	r3, [r3]
 2327 0150 42F48032 		orr	r2, r2, #65536
 2328 0154 1A60     		str	r2, [r3]
1488:Drivers/STM32L4xx_HAL_Driver/Src/stm32l4xx_hal_ospi.c **** 
1489:Drivers/STM32L4xx_HAL_Driver/Src/stm32l4xx_hal_ospi.c ****               /* Enable the DMA transfer by setting the DMAEN bit  */
1490:Drivers/STM32L4xx_HAL_Driver/Src/stm32l4xx_hal_ospi.c ****               SET_BIT(hospi->Instance->CR, OCTOSPI_CR_DMAEN);
 2329              		.loc 1 1490 15
ARM GAS  C:\Users\Morroway\AppData\Local\Temp\ccxQAUQ3.s 			page 68


 2330 0156 7B68     		ldr	r3, [r7, #4]
 2331 0158 1B68     		ldr	r3, [r3]
 2332 015a 1A68     		ldr	r2, [r3]
 2333 015c 7B68     		ldr	r3, [r7, #4]
 2334 015e 1B68     		ldr	r3, [r3]
 2335 0160 42F00402 		orr	r2, r2, #4
 2336 0164 1A60     		str	r2, [r3]
 2337 0166 0DE0     		b	.L106
 2338              	.L117:
1491:Drivers/STM32L4xx_HAL_Driver/Src/stm32l4xx_hal_ospi.c ****             }
1492:Drivers/STM32L4xx_HAL_Driver/Src/stm32l4xx_hal_ospi.c ****             else
1493:Drivers/STM32L4xx_HAL_Driver/Src/stm32l4xx_hal_ospi.c ****             {
1494:Drivers/STM32L4xx_HAL_Driver/Src/stm32l4xx_hal_ospi.c ****               status = HAL_ERROR;
 2339              		.loc 1 1494 22
 2340 0168 0123     		movs	r3, #1
 2341 016a FB73     		strb	r3, [r7, #15]
1495:Drivers/STM32L4xx_HAL_Driver/Src/stm32l4xx_hal_ospi.c ****               hospi->ErrorCode = HAL_OSPI_ERROR_DMA;
 2342              		.loc 1 1495 32
 2343 016c 7B68     		ldr	r3, [r7, #4]
 2344 016e 0422     		movs	r2, #4
 2345 0170 1A65     		str	r2, [r3, #80]
1496:Drivers/STM32L4xx_HAL_Driver/Src/stm32l4xx_hal_ospi.c ****               hospi->State = HAL_OSPI_STATE_READY;
 2346              		.loc 1 1496 28
 2347 0172 7B68     		ldr	r3, [r7, #4]
 2348 0174 0222     		movs	r2, #2
 2349 0176 DA64     		str	r2, [r3, #76]
 2350 0178 04E0     		b	.L106
 2351              	.L107:
1497:Drivers/STM32L4xx_HAL_Driver/Src/stm32l4xx_hal_ospi.c ****             }
1498:Drivers/STM32L4xx_HAL_Driver/Src/stm32l4xx_hal_ospi.c ****       }
1499:Drivers/STM32L4xx_HAL_Driver/Src/stm32l4xx_hal_ospi.c ****     }
1500:Drivers/STM32L4xx_HAL_Driver/Src/stm32l4xx_hal_ospi.c ****     else
1501:Drivers/STM32L4xx_HAL_Driver/Src/stm32l4xx_hal_ospi.c ****     {
1502:Drivers/STM32L4xx_HAL_Driver/Src/stm32l4xx_hal_ospi.c ****       status = HAL_ERROR;
 2352              		.loc 1 1502 14
 2353 017a 0123     		movs	r3, #1
 2354 017c FB73     		strb	r3, [r7, #15]
1503:Drivers/STM32L4xx_HAL_Driver/Src/stm32l4xx_hal_ospi.c ****       hospi->ErrorCode = HAL_OSPI_ERROR_INVALID_SEQUENCE;
 2355              		.loc 1 1503 24
 2356 017e 7B68     		ldr	r3, [r7, #4]
 2357 0180 1022     		movs	r2, #16
 2358 0182 1A65     		str	r2, [r3, #80]
 2359              	.L106:
1504:Drivers/STM32L4xx_HAL_Driver/Src/stm32l4xx_hal_ospi.c ****     }
1505:Drivers/STM32L4xx_HAL_Driver/Src/stm32l4xx_hal_ospi.c ****   }
1506:Drivers/STM32L4xx_HAL_Driver/Src/stm32l4xx_hal_ospi.c **** 
1507:Drivers/STM32L4xx_HAL_Driver/Src/stm32l4xx_hal_ospi.c ****   /* Return function status */
1508:Drivers/STM32L4xx_HAL_Driver/Src/stm32l4xx_hal_ospi.c ****   return status;
 2360              		.loc 1 1508 10
 2361 0184 FB7B     		ldrb	r3, [r7, #15]	@ zero_extendqisi2
1509:Drivers/STM32L4xx_HAL_Driver/Src/stm32l4xx_hal_ospi.c **** }
 2362              		.loc 1 1509 1
 2363 0186 1846     		mov	r0, r3
 2364 0188 1037     		adds	r7, r7, #16
 2365              		.cfi_def_cfa_offset 8
 2366 018a BD46     		mov	sp, r7
 2367              		.cfi_def_cfa_register 13
ARM GAS  C:\Users\Morroway\AppData\Local\Temp\ccxQAUQ3.s 			page 69


 2368              		@ sp needed
 2369 018c 80BD     		pop	{r7, pc}
 2370              	.L120:
 2371 018e 00BF     		.align	2
 2372              	.L119:
 2373 0190 00000000 		.word	OSPI_DMACplt
 2374 0194 00000000 		.word	OSPI_DMAHalfCplt
 2375 0198 00000000 		.word	OSPI_DMAError
 2376              		.cfi_endproc
 2377              	.LFE334:
 2379              		.section	.text.HAL_OSPI_Receive_DMA,"ax",%progbits
 2380              		.align	1
 2381              		.global	HAL_OSPI_Receive_DMA
 2382              		.syntax unified
 2383              		.thumb
 2384              		.thumb_func
 2386              	HAL_OSPI_Receive_DMA:
 2387              	.LFB335:
1510:Drivers/STM32L4xx_HAL_Driver/Src/stm32l4xx_hal_ospi.c **** 
1511:Drivers/STM32L4xx_HAL_Driver/Src/stm32l4xx_hal_ospi.c **** /**
1512:Drivers/STM32L4xx_HAL_Driver/Src/stm32l4xx_hal_ospi.c ****   * @brief  Receive an amount of data in non-blocking mode with DMA.
1513:Drivers/STM32L4xx_HAL_Driver/Src/stm32l4xx_hal_ospi.c ****   * @param  hospi : OSPI handle
1514:Drivers/STM32L4xx_HAL_Driver/Src/stm32l4xx_hal_ospi.c ****   * @param  pData : pointer to data buffer.
1515:Drivers/STM32L4xx_HAL_Driver/Src/stm32l4xx_hal_ospi.c ****   * @note   This function is used only in Indirect Read Mode
1516:Drivers/STM32L4xx_HAL_Driver/Src/stm32l4xx_hal_ospi.c ****   * @note   If DMA peripheral access is configured as halfword, the number
1517:Drivers/STM32L4xx_HAL_Driver/Src/stm32l4xx_hal_ospi.c ****   *         of data and the fifo threshold should be aligned on halfword
1518:Drivers/STM32L4xx_HAL_Driver/Src/stm32l4xx_hal_ospi.c ****   * @note   If DMA peripheral access is configured as word, the number
1519:Drivers/STM32L4xx_HAL_Driver/Src/stm32l4xx_hal_ospi.c ****   *         of data and the fifo threshold should be aligned on word
1520:Drivers/STM32L4xx_HAL_Driver/Src/stm32l4xx_hal_ospi.c ****   * @retval HAL status
1521:Drivers/STM32L4xx_HAL_Driver/Src/stm32l4xx_hal_ospi.c ****   */
1522:Drivers/STM32L4xx_HAL_Driver/Src/stm32l4xx_hal_ospi.c **** HAL_StatusTypeDef HAL_OSPI_Receive_DMA(OSPI_HandleTypeDef *hospi, uint8_t *pData)
1523:Drivers/STM32L4xx_HAL_Driver/Src/stm32l4xx_hal_ospi.c **** {
 2388              		.loc 1 1523 1
 2389              		.cfi_startproc
 2390              		@ args = 0, pretend = 0, frame = 24
 2391              		@ frame_needed = 1, uses_anonymous_args = 0
 2392 0000 80B5     		push	{r7, lr}
 2393              		.cfi_def_cfa_offset 8
 2394              		.cfi_offset 7, -8
 2395              		.cfi_offset 14, -4
 2396 0002 86B0     		sub	sp, sp, #24
 2397              		.cfi_def_cfa_offset 32
 2398 0004 00AF     		add	r7, sp, #0
 2399              		.cfi_def_cfa_register 7
 2400 0006 7860     		str	r0, [r7, #4]
 2401 0008 3960     		str	r1, [r7]
1524:Drivers/STM32L4xx_HAL_Driver/Src/stm32l4xx_hal_ospi.c ****   HAL_StatusTypeDef status = HAL_OK;
 2402              		.loc 1 1524 21
 2403 000a 0023     		movs	r3, #0
 2404 000c FB75     		strb	r3, [r7, #23]
1525:Drivers/STM32L4xx_HAL_Driver/Src/stm32l4xx_hal_ospi.c ****   uint32_t data_size = hospi->Instance->DLR + 1U;
 2405              		.loc 1 1525 29
 2406 000e 7B68     		ldr	r3, [r7, #4]
 2407 0010 1B68     		ldr	r3, [r3]
 2408              		.loc 1 1525 39
 2409 0012 1B6C     		ldr	r3, [r3, #64]
 2410              		.loc 1 1525 12
ARM GAS  C:\Users\Morroway\AppData\Local\Temp\ccxQAUQ3.s 			page 70


 2411 0014 0133     		adds	r3, r3, #1
 2412 0016 3B61     		str	r3, [r7, #16]
1526:Drivers/STM32L4xx_HAL_Driver/Src/stm32l4xx_hal_ospi.c ****   uint32_t addr_reg = hospi->Instance->AR;
 2413              		.loc 1 1526 28
 2414 0018 7B68     		ldr	r3, [r7, #4]
 2415 001a 1B68     		ldr	r3, [r3]
 2416              		.loc 1 1526 12
 2417 001c 9B6C     		ldr	r3, [r3, #72]
 2418 001e FB60     		str	r3, [r7, #12]
1527:Drivers/STM32L4xx_HAL_Driver/Src/stm32l4xx_hal_ospi.c ****   uint32_t ir_reg = hospi->Instance->IR;
 2419              		.loc 1 1527 26
 2420 0020 7B68     		ldr	r3, [r7, #4]
 2421 0022 1B68     		ldr	r3, [r3]
 2422              		.loc 1 1527 12
 2423 0024 D3F81031 		ldr	r3, [r3, #272]
 2424 0028 BB60     		str	r3, [r7, #8]
1528:Drivers/STM32L4xx_HAL_Driver/Src/stm32l4xx_hal_ospi.c ****   /* Check the data pointer allocation */
1529:Drivers/STM32L4xx_HAL_Driver/Src/stm32l4xx_hal_ospi.c ****   if (pData == NULL)
 2425              		.loc 1 1529 6
 2426 002a 3B68     		ldr	r3, [r7]
 2427 002c 002B     		cmp	r3, #0
 2428 002e 05D1     		bne	.L122
1530:Drivers/STM32L4xx_HAL_Driver/Src/stm32l4xx_hal_ospi.c ****   {
