ARM GAS  C:\Users\Morroway\AppData\Local\Temp\ccOmimY8.s 			page 1


   1              		.cpu cortex-m4
   2              		.arch armv7e-m
   3              		.fpu fpv4-sp-d16
   4              		.eabi_attribute 27, 1
   5              		.eabi_attribute 28, 1
   6              		.eabi_attribute 20, 1
   7              		.eabi_attribute 21, 1
   8              		.eabi_attribute 23, 3
   9              		.eabi_attribute 24, 1
  10              		.eabi_attribute 25, 1
  11              		.eabi_attribute 26, 1
  12              		.eabi_attribute 30, 6
  13              		.eabi_attribute 34, 1
  14              		.eabi_attribute 18, 4
  15              		.file	"stm32l4xx_hal_rcc_ex.c"
  16              		.text
  17              	.Ltext0:
  18              		.cfi_sections	.debug_frame
  19              		.section	.text.HAL_RCCEx_PeriphCLKConfig,"ax",%progbits
  20              		.align	1
  21              		.global	HAL_RCCEx_PeriphCLKConfig
  22              		.syntax unified
  23              		.thumb
  24              		.thumb_func
  26              	HAL_RCCEx_PeriphCLKConfig:
  27              	.LFB321:
  28              		.file 1 "Drivers/STM32L4xx_HAL_Driver/Src/stm32l4xx_hal_rcc_ex.c"
   1:Drivers/STM32L4xx_HAL_Driver/Src/stm32l4xx_hal_rcc_ex.c **** /**
   2:Drivers/STM32L4xx_HAL_Driver/Src/stm32l4xx_hal_rcc_ex.c ****   ******************************************************************************
   3:Drivers/STM32L4xx_HAL_Driver/Src/stm32l4xx_hal_rcc_ex.c ****   * @file    stm32l4xx_hal_rcc_ex.c
   4:Drivers/STM32L4xx_HAL_Driver/Src/stm32l4xx_hal_rcc_ex.c ****   * @author  MCD Application Team
   5:Drivers/STM32L4xx_HAL_Driver/Src/stm32l4xx_hal_rcc_ex.c ****   * @brief   Extended RCC HAL module driver.
   6:Drivers/STM32L4xx_HAL_Driver/Src/stm32l4xx_hal_rcc_ex.c ****   *          This file provides firmware functions to manage the following
   7:Drivers/STM32L4xx_HAL_Driver/Src/stm32l4xx_hal_rcc_ex.c ****   *          functionalities RCC extended peripheral:
   8:Drivers/STM32L4xx_HAL_Driver/Src/stm32l4xx_hal_rcc_ex.c ****   *           + Extended Peripheral Control functions
   9:Drivers/STM32L4xx_HAL_Driver/Src/stm32l4xx_hal_rcc_ex.c ****   *           + Extended Clock management functions
  10:Drivers/STM32L4xx_HAL_Driver/Src/stm32l4xx_hal_rcc_ex.c ****   *           + Extended Clock Recovery System Control functions
  11:Drivers/STM32L4xx_HAL_Driver/Src/stm32l4xx_hal_rcc_ex.c ****   *
  12:Drivers/STM32L4xx_HAL_Driver/Src/stm32l4xx_hal_rcc_ex.c ****   ******************************************************************************
  13:Drivers/STM32L4xx_HAL_Driver/Src/stm32l4xx_hal_rcc_ex.c ****   * @attention
  14:Drivers/STM32L4xx_HAL_Driver/Src/stm32l4xx_hal_rcc_ex.c ****   *
  15:Drivers/STM32L4xx_HAL_Driver/Src/stm32l4xx_hal_rcc_ex.c ****   * Copyright (c) 2017 STMicroelectronics.
  16:Drivers/STM32L4xx_HAL_Driver/Src/stm32l4xx_hal_rcc_ex.c ****   * All rights reserved.
  17:Drivers/STM32L4xx_HAL_Driver/Src/stm32l4xx_hal_rcc_ex.c ****   *
  18:Drivers/STM32L4xx_HAL_Driver/Src/stm32l4xx_hal_rcc_ex.c ****   * This software is licensed under terms that can be found in the LICENSE file in
  19:Drivers/STM32L4xx_HAL_Driver/Src/stm32l4xx_hal_rcc_ex.c ****   * the root directory of this software component.
  20:Drivers/STM32L4xx_HAL_Driver/Src/stm32l4xx_hal_rcc_ex.c ****   * If no LICENSE file comes with this software, it is provided AS-IS.
  21:Drivers/STM32L4xx_HAL_Driver/Src/stm32l4xx_hal_rcc_ex.c ****   ******************************************************************************
  22:Drivers/STM32L4xx_HAL_Driver/Src/stm32l4xx_hal_rcc_ex.c ****   */
  23:Drivers/STM32L4xx_HAL_Driver/Src/stm32l4xx_hal_rcc_ex.c **** 
  24:Drivers/STM32L4xx_HAL_Driver/Src/stm32l4xx_hal_rcc_ex.c **** /* Includes ------------------------------------------------------------------*/
  25:Drivers/STM32L4xx_HAL_Driver/Src/stm32l4xx_hal_rcc_ex.c **** #include "stm32l4xx_hal.h"
  26:Drivers/STM32L4xx_HAL_Driver/Src/stm32l4xx_hal_rcc_ex.c **** 
  27:Drivers/STM32L4xx_HAL_Driver/Src/stm32l4xx_hal_rcc_ex.c **** /** @addtogroup STM32L4xx_HAL_Driver
  28:Drivers/STM32L4xx_HAL_Driver/Src/stm32l4xx_hal_rcc_ex.c ****   * @{
  29:Drivers/STM32L4xx_HAL_Driver/Src/stm32l4xx_hal_rcc_ex.c ****   */
  30:Drivers/STM32L4xx_HAL_Driver/Src/stm32l4xx_hal_rcc_ex.c **** 
ARM GAS  C:\Users\Morroway\AppData\Local\Temp\ccOmimY8.s 			page 2


  31:Drivers/STM32L4xx_HAL_Driver/Src/stm32l4xx_hal_rcc_ex.c **** /** @defgroup RCCEx RCCEx
  32:Drivers/STM32L4xx_HAL_Driver/Src/stm32l4xx_hal_rcc_ex.c ****   * @brief RCC Extended HAL module driver
  33:Drivers/STM32L4xx_HAL_Driver/Src/stm32l4xx_hal_rcc_ex.c ****   * @{
  34:Drivers/STM32L4xx_HAL_Driver/Src/stm32l4xx_hal_rcc_ex.c ****   */
  35:Drivers/STM32L4xx_HAL_Driver/Src/stm32l4xx_hal_rcc_ex.c **** 
  36:Drivers/STM32L4xx_HAL_Driver/Src/stm32l4xx_hal_rcc_ex.c **** #ifdef HAL_RCC_MODULE_ENABLED
  37:Drivers/STM32L4xx_HAL_Driver/Src/stm32l4xx_hal_rcc_ex.c **** 
  38:Drivers/STM32L4xx_HAL_Driver/Src/stm32l4xx_hal_rcc_ex.c **** /* Private typedef -----------------------------------------------------------*/
  39:Drivers/STM32L4xx_HAL_Driver/Src/stm32l4xx_hal_rcc_ex.c **** /* Private defines -----------------------------------------------------------*/
  40:Drivers/STM32L4xx_HAL_Driver/Src/stm32l4xx_hal_rcc_ex.c **** /** @defgroup RCCEx_Private_Constants RCCEx Private Constants
  41:Drivers/STM32L4xx_HAL_Driver/Src/stm32l4xx_hal_rcc_ex.c ****  * @{
  42:Drivers/STM32L4xx_HAL_Driver/Src/stm32l4xx_hal_rcc_ex.c ****  */
  43:Drivers/STM32L4xx_HAL_Driver/Src/stm32l4xx_hal_rcc_ex.c **** #define PLLSAI1_TIMEOUT_VALUE     2U    /* 2 ms (minimum Tick + 1) */
  44:Drivers/STM32L4xx_HAL_Driver/Src/stm32l4xx_hal_rcc_ex.c **** #define PLLSAI2_TIMEOUT_VALUE     2U    /* 2 ms (minimum Tick + 1) */
  45:Drivers/STM32L4xx_HAL_Driver/Src/stm32l4xx_hal_rcc_ex.c **** #define PLL_TIMEOUT_VALUE         2U    /* 2 ms (minimum Tick + 1) */
  46:Drivers/STM32L4xx_HAL_Driver/Src/stm32l4xx_hal_rcc_ex.c **** 
  47:Drivers/STM32L4xx_HAL_Driver/Src/stm32l4xx_hal_rcc_ex.c **** #define DIVIDER_P_UPDATE          0U
  48:Drivers/STM32L4xx_HAL_Driver/Src/stm32l4xx_hal_rcc_ex.c **** #define DIVIDER_Q_UPDATE          1U
  49:Drivers/STM32L4xx_HAL_Driver/Src/stm32l4xx_hal_rcc_ex.c **** #define DIVIDER_R_UPDATE          2U
  50:Drivers/STM32L4xx_HAL_Driver/Src/stm32l4xx_hal_rcc_ex.c **** 
  51:Drivers/STM32L4xx_HAL_Driver/Src/stm32l4xx_hal_rcc_ex.c **** #define __LSCO_CLK_ENABLE()       __HAL_RCC_GPIOA_CLK_ENABLE()
  52:Drivers/STM32L4xx_HAL_Driver/Src/stm32l4xx_hal_rcc_ex.c **** #define LSCO_GPIO_PORT            GPIOA
  53:Drivers/STM32L4xx_HAL_Driver/Src/stm32l4xx_hal_rcc_ex.c **** #define LSCO_PIN                  GPIO_PIN_2
  54:Drivers/STM32L4xx_HAL_Driver/Src/stm32l4xx_hal_rcc_ex.c **** /**
  55:Drivers/STM32L4xx_HAL_Driver/Src/stm32l4xx_hal_rcc_ex.c ****   * @}
  56:Drivers/STM32L4xx_HAL_Driver/Src/stm32l4xx_hal_rcc_ex.c ****   */
  57:Drivers/STM32L4xx_HAL_Driver/Src/stm32l4xx_hal_rcc_ex.c **** 
  58:Drivers/STM32L4xx_HAL_Driver/Src/stm32l4xx_hal_rcc_ex.c **** /* Private macros ------------------------------------------------------------*/
  59:Drivers/STM32L4xx_HAL_Driver/Src/stm32l4xx_hal_rcc_ex.c **** /* Private variables ---------------------------------------------------------*/
  60:Drivers/STM32L4xx_HAL_Driver/Src/stm32l4xx_hal_rcc_ex.c **** /* Private function prototypes -----------------------------------------------*/
  61:Drivers/STM32L4xx_HAL_Driver/Src/stm32l4xx_hal_rcc_ex.c **** /** @defgroup RCCEx_Private_Functions RCCEx Private Functions
  62:Drivers/STM32L4xx_HAL_Driver/Src/stm32l4xx_hal_rcc_ex.c ****  * @{
  63:Drivers/STM32L4xx_HAL_Driver/Src/stm32l4xx_hal_rcc_ex.c ****  */
  64:Drivers/STM32L4xx_HAL_Driver/Src/stm32l4xx_hal_rcc_ex.c **** #if defined(RCC_PLLSAI1_SUPPORT)
  65:Drivers/STM32L4xx_HAL_Driver/Src/stm32l4xx_hal_rcc_ex.c **** 
  66:Drivers/STM32L4xx_HAL_Driver/Src/stm32l4xx_hal_rcc_ex.c **** static HAL_StatusTypeDef RCCEx_PLLSAI1_Config(RCC_PLLSAI1InitTypeDef *PllSai1, uint32_t Divider);
  67:Drivers/STM32L4xx_HAL_Driver/Src/stm32l4xx_hal_rcc_ex.c **** 
  68:Drivers/STM32L4xx_HAL_Driver/Src/stm32l4xx_hal_rcc_ex.c **** #endif /* RCC_PLLSAI1_SUPPORT */
  69:Drivers/STM32L4xx_HAL_Driver/Src/stm32l4xx_hal_rcc_ex.c **** 
  70:Drivers/STM32L4xx_HAL_Driver/Src/stm32l4xx_hal_rcc_ex.c **** #if defined(RCC_PLLSAI2_SUPPORT)
  71:Drivers/STM32L4xx_HAL_Driver/Src/stm32l4xx_hal_rcc_ex.c **** 
  72:Drivers/STM32L4xx_HAL_Driver/Src/stm32l4xx_hal_rcc_ex.c **** static HAL_StatusTypeDef RCCEx_PLLSAI2_Config(RCC_PLLSAI2InitTypeDef *PllSai2, uint32_t Divider);
  73:Drivers/STM32L4xx_HAL_Driver/Src/stm32l4xx_hal_rcc_ex.c **** 
  74:Drivers/STM32L4xx_HAL_Driver/Src/stm32l4xx_hal_rcc_ex.c **** #endif /* RCC_PLLSAI2_SUPPORT */
  75:Drivers/STM32L4xx_HAL_Driver/Src/stm32l4xx_hal_rcc_ex.c **** 
  76:Drivers/STM32L4xx_HAL_Driver/Src/stm32l4xx_hal_rcc_ex.c **** #if defined(SAI1)
  77:Drivers/STM32L4xx_HAL_Driver/Src/stm32l4xx_hal_rcc_ex.c **** 
  78:Drivers/STM32L4xx_HAL_Driver/Src/stm32l4xx_hal_rcc_ex.c **** static uint32_t RCCEx_GetSAIxPeriphCLKFreq(uint32_t PeriphClk, uint32_t InputFrequency);
  79:Drivers/STM32L4xx_HAL_Driver/Src/stm32l4xx_hal_rcc_ex.c **** 
  80:Drivers/STM32L4xx_HAL_Driver/Src/stm32l4xx_hal_rcc_ex.c **** #endif /* SAI1 */
  81:Drivers/STM32L4xx_HAL_Driver/Src/stm32l4xx_hal_rcc_ex.c **** /**
  82:Drivers/STM32L4xx_HAL_Driver/Src/stm32l4xx_hal_rcc_ex.c ****   * @}
  83:Drivers/STM32L4xx_HAL_Driver/Src/stm32l4xx_hal_rcc_ex.c ****   */
  84:Drivers/STM32L4xx_HAL_Driver/Src/stm32l4xx_hal_rcc_ex.c **** 
  85:Drivers/STM32L4xx_HAL_Driver/Src/stm32l4xx_hal_rcc_ex.c **** /* Exported functions --------------------------------------------------------*/
  86:Drivers/STM32L4xx_HAL_Driver/Src/stm32l4xx_hal_rcc_ex.c **** 
  87:Drivers/STM32L4xx_HAL_Driver/Src/stm32l4xx_hal_rcc_ex.c **** /** @defgroup RCCEx_Exported_Functions RCCEx Exported Functions
ARM GAS  C:\Users\Morroway\AppData\Local\Temp\ccOmimY8.s 			page 3


  88:Drivers/STM32L4xx_HAL_Driver/Src/stm32l4xx_hal_rcc_ex.c ****   * @{
  89:Drivers/STM32L4xx_HAL_Driver/Src/stm32l4xx_hal_rcc_ex.c ****   */
  90:Drivers/STM32L4xx_HAL_Driver/Src/stm32l4xx_hal_rcc_ex.c **** 
  91:Drivers/STM32L4xx_HAL_Driver/Src/stm32l4xx_hal_rcc_ex.c **** /** @defgroup RCCEx_Exported_Functions_Group1 Extended Peripheral Control functions
  92:Drivers/STM32L4xx_HAL_Driver/Src/stm32l4xx_hal_rcc_ex.c ****  *  @brief  Extended Peripheral Control functions
  93:Drivers/STM32L4xx_HAL_Driver/Src/stm32l4xx_hal_rcc_ex.c ****  *
  94:Drivers/STM32L4xx_HAL_Driver/Src/stm32l4xx_hal_rcc_ex.c **** @verbatim
  95:Drivers/STM32L4xx_HAL_Driver/Src/stm32l4xx_hal_rcc_ex.c ****  ===============================================================================
  96:Drivers/STM32L4xx_HAL_Driver/Src/stm32l4xx_hal_rcc_ex.c ****                 ##### Extended Peripheral Control functions  #####
  97:Drivers/STM32L4xx_HAL_Driver/Src/stm32l4xx_hal_rcc_ex.c ****  ===============================================================================
  98:Drivers/STM32L4xx_HAL_Driver/Src/stm32l4xx_hal_rcc_ex.c ****     [..]
  99:Drivers/STM32L4xx_HAL_Driver/Src/stm32l4xx_hal_rcc_ex.c ****     This subsection provides a set of functions allowing to control the RCC Clocks
 100:Drivers/STM32L4xx_HAL_Driver/Src/stm32l4xx_hal_rcc_ex.c ****     frequencies.
 101:Drivers/STM32L4xx_HAL_Driver/Src/stm32l4xx_hal_rcc_ex.c ****     [..]
 102:Drivers/STM32L4xx_HAL_Driver/Src/stm32l4xx_hal_rcc_ex.c ****     (@) Important note: Care must be taken when HAL_RCCEx_PeriphCLKConfig() is used to
 103:Drivers/STM32L4xx_HAL_Driver/Src/stm32l4xx_hal_rcc_ex.c ****         select the RTC clock source; in this case the Backup domain will be reset in
 104:Drivers/STM32L4xx_HAL_Driver/Src/stm32l4xx_hal_rcc_ex.c ****         order to modify the RTC Clock source, as consequence RTC registers (including
 105:Drivers/STM32L4xx_HAL_Driver/Src/stm32l4xx_hal_rcc_ex.c ****         the backup registers) are set to their reset values.
 106:Drivers/STM32L4xx_HAL_Driver/Src/stm32l4xx_hal_rcc_ex.c **** 
 107:Drivers/STM32L4xx_HAL_Driver/Src/stm32l4xx_hal_rcc_ex.c **** @endverbatim
 108:Drivers/STM32L4xx_HAL_Driver/Src/stm32l4xx_hal_rcc_ex.c ****   * @{
 109:Drivers/STM32L4xx_HAL_Driver/Src/stm32l4xx_hal_rcc_ex.c ****   */
 110:Drivers/STM32L4xx_HAL_Driver/Src/stm32l4xx_hal_rcc_ex.c **** /**
 111:Drivers/STM32L4xx_HAL_Driver/Src/stm32l4xx_hal_rcc_ex.c ****   * @brief  Initialize the RCC extended peripherals clocks according to the specified
 112:Drivers/STM32L4xx_HAL_Driver/Src/stm32l4xx_hal_rcc_ex.c ****   *         parameters in the RCC_PeriphCLKInitTypeDef.
 113:Drivers/STM32L4xx_HAL_Driver/Src/stm32l4xx_hal_rcc_ex.c ****   * @param  PeriphClkInit  pointer to an RCC_PeriphCLKInitTypeDef structure that
 114:Drivers/STM32L4xx_HAL_Driver/Src/stm32l4xx_hal_rcc_ex.c ****   *         contains a field PeriphClockSelection which can be a combination of the following value
 115:Drivers/STM32L4xx_HAL_Driver/Src/stm32l4xx_hal_rcc_ex.c ****   *            @arg @ref RCC_PERIPHCLK_RTC  RTC peripheral clock
 116:Drivers/STM32L4xx_HAL_Driver/Src/stm32l4xx_hal_rcc_ex.c ****   *            @arg @ref RCC_PERIPHCLK_ADC  ADC peripheral clock
 117:Drivers/STM32L4xx_HAL_Driver/Src/stm32l4xx_hal_rcc_ex.c ****   @if STM32L462xx
 118:Drivers/STM32L4xx_HAL_Driver/Src/stm32l4xx_hal_rcc_ex.c ****   *            @arg @ref RCC_PERIPHCLK_DFSDM1  DFSDM1 peripheral clock (only for devices with DFSDM
 119:Drivers/STM32L4xx_HAL_Driver/Src/stm32l4xx_hal_rcc_ex.c ****   @endif
 120:Drivers/STM32L4xx_HAL_Driver/Src/stm32l4xx_hal_rcc_ex.c ****   @if STM32L486xx
 121:Drivers/STM32L4xx_HAL_Driver/Src/stm32l4xx_hal_rcc_ex.c ****   *            @arg @ref RCC_PERIPHCLK_DFSDM1  DFSDM1 peripheral clock (only for devices with DFSDM
 122:Drivers/STM32L4xx_HAL_Driver/Src/stm32l4xx_hal_rcc_ex.c ****   @endif
 123:Drivers/STM32L4xx_HAL_Driver/Src/stm32l4xx_hal_rcc_ex.c ****   @if STM32L4A6xx
 124:Drivers/STM32L4xx_HAL_Driver/Src/stm32l4xx_hal_rcc_ex.c ****   *            @arg @ref RCC_PERIPHCLK_DFSDM1  DFSDM1 peripheral clock (only for devices with DFSDM
 125:Drivers/STM32L4xx_HAL_Driver/Src/stm32l4xx_hal_rcc_ex.c ****   @endif
 126:Drivers/STM32L4xx_HAL_Driver/Src/stm32l4xx_hal_rcc_ex.c ****   *            @arg @ref RCC_PERIPHCLK_I2C1  I2C1 peripheral clock
 127:Drivers/STM32L4xx_HAL_Driver/Src/stm32l4xx_hal_rcc_ex.c ****   *            @arg @ref RCC_PERIPHCLK_I2C2  I2C2 peripheral clock
 128:Drivers/STM32L4xx_HAL_Driver/Src/stm32l4xx_hal_rcc_ex.c ****   *            @arg @ref RCC_PERIPHCLK_I2C3  I2C3 peripheral clock
 129:Drivers/STM32L4xx_HAL_Driver/Src/stm32l4xx_hal_rcc_ex.c ****   @if STM32L462xx
 130:Drivers/STM32L4xx_HAL_Driver/Src/stm32l4xx_hal_rcc_ex.c ****   *            @arg @ref RCC_PERIPHCLK_I2C4  I2C4 peripheral clock (only for devices with I2C4)
 131:Drivers/STM32L4xx_HAL_Driver/Src/stm32l4xx_hal_rcc_ex.c ****   @endif
 132:Drivers/STM32L4xx_HAL_Driver/Src/stm32l4xx_hal_rcc_ex.c ****   @if STM32L4A6xx
 133:Drivers/STM32L4xx_HAL_Driver/Src/stm32l4xx_hal_rcc_ex.c ****   *            @arg @ref RCC_PERIPHCLK_I2C4  I2C4 peripheral clock (only for devices with I2C4)
 134:Drivers/STM32L4xx_HAL_Driver/Src/stm32l4xx_hal_rcc_ex.c ****   @endif
 135:Drivers/STM32L4xx_HAL_Driver/Src/stm32l4xx_hal_rcc_ex.c ****   @if STM32L4S9xx
 136:Drivers/STM32L4xx_HAL_Driver/Src/stm32l4xx_hal_rcc_ex.c ****   *            @arg @ref RCC_PERIPHCLK_I2C4  I2C4 peripheral clock (only for devices with I2C4)
 137:Drivers/STM32L4xx_HAL_Driver/Src/stm32l4xx_hal_rcc_ex.c ****   @endif
 138:Drivers/STM32L4xx_HAL_Driver/Src/stm32l4xx_hal_rcc_ex.c ****   *            @arg @ref RCC_PERIPHCLK_LPTIM1  LPTIM1 peripheral clock
 139:Drivers/STM32L4xx_HAL_Driver/Src/stm32l4xx_hal_rcc_ex.c ****   *            @arg @ref RCC_PERIPHCLK_LPTIM2  LPTIM2 peripheral clock
 140:Drivers/STM32L4xx_HAL_Driver/Src/stm32l4xx_hal_rcc_ex.c ****   *            @arg @ref RCC_PERIPHCLK_LPUART1  LPUART1 peripheral clock
 141:Drivers/STM32L4xx_HAL_Driver/Src/stm32l4xx_hal_rcc_ex.c ****   *            @arg @ref RCC_PERIPHCLK_RNG  RNG peripheral clock
 142:Drivers/STM32L4xx_HAL_Driver/Src/stm32l4xx_hal_rcc_ex.c ****   *            @arg @ref RCC_PERIPHCLK_SAI1  SAI1 peripheral clock (only for devices with SAI1)
 143:Drivers/STM32L4xx_HAL_Driver/Src/stm32l4xx_hal_rcc_ex.c ****   @if STM32L486xx
 144:Drivers/STM32L4xx_HAL_Driver/Src/stm32l4xx_hal_rcc_ex.c ****   *            @arg @ref RCC_PERIPHCLK_SAI2  SAI2 peripheral clock (only for devices with SAI2)
ARM GAS  C:\Users\Morroway\AppData\Local\Temp\ccOmimY8.s 			page 4


 145:Drivers/STM32L4xx_HAL_Driver/Src/stm32l4xx_hal_rcc_ex.c ****   @endif
 146:Drivers/STM32L4xx_HAL_Driver/Src/stm32l4xx_hal_rcc_ex.c ****   @if STM32L4A6xx
 147:Drivers/STM32L4xx_HAL_Driver/Src/stm32l4xx_hal_rcc_ex.c ****   *            @arg @ref RCC_PERIPHCLK_SAI2  SAI2 peripheral clock (only for devices with SAI2)
 148:Drivers/STM32L4xx_HAL_Driver/Src/stm32l4xx_hal_rcc_ex.c ****   @endif
 149:Drivers/STM32L4xx_HAL_Driver/Src/stm32l4xx_hal_rcc_ex.c ****   @if STM32L4S9xx
 150:Drivers/STM32L4xx_HAL_Driver/Src/stm32l4xx_hal_rcc_ex.c ****   *            @arg @ref RCC_PERIPHCLK_SAI2  SAI2 peripheral clock (only for devices with SAI2)
 151:Drivers/STM32L4xx_HAL_Driver/Src/stm32l4xx_hal_rcc_ex.c ****   @endif
 152:Drivers/STM32L4xx_HAL_Driver/Src/stm32l4xx_hal_rcc_ex.c ****   *            @arg @ref RCC_PERIPHCLK_SDMMC1  SDMMC1 peripheral clock
 153:Drivers/STM32L4xx_HAL_Driver/Src/stm32l4xx_hal_rcc_ex.c ****   @if STM32L443xx
 154:Drivers/STM32L4xx_HAL_Driver/Src/stm32l4xx_hal_rcc_ex.c ****   *            @arg @ref RCC_PERIPHCLK_SWPMI1  SWPMI1 peripheral clock (only for devices with SWPMI
 155:Drivers/STM32L4xx_HAL_Driver/Src/stm32l4xx_hal_rcc_ex.c ****   @endif
 156:Drivers/STM32L4xx_HAL_Driver/Src/stm32l4xx_hal_rcc_ex.c ****   @if STM32L486xx
 157:Drivers/STM32L4xx_HAL_Driver/Src/stm32l4xx_hal_rcc_ex.c ****   *            @arg @ref RCC_PERIPHCLK_SWPMI1  SWPMI1 peripheral clock (only for devices with SWPMI
 158:Drivers/STM32L4xx_HAL_Driver/Src/stm32l4xx_hal_rcc_ex.c ****   @endif
 159:Drivers/STM32L4xx_HAL_Driver/Src/stm32l4xx_hal_rcc_ex.c ****   @if STM32L4A6xx
 160:Drivers/STM32L4xx_HAL_Driver/Src/stm32l4xx_hal_rcc_ex.c ****   *            @arg @ref RCC_PERIPHCLK_SWPMI1  SWPMI1 peripheral clock (only for devices with SWPMI
 161:Drivers/STM32L4xx_HAL_Driver/Src/stm32l4xx_hal_rcc_ex.c ****   @endif
 162:Drivers/STM32L4xx_HAL_Driver/Src/stm32l4xx_hal_rcc_ex.c ****   *            @arg @ref RCC_PERIPHCLK_USART1  USART1 peripheral clock
 163:Drivers/STM32L4xx_HAL_Driver/Src/stm32l4xx_hal_rcc_ex.c ****   *            @arg @ref RCC_PERIPHCLK_USART2  USART1 peripheral clock
 164:Drivers/STM32L4xx_HAL_Driver/Src/stm32l4xx_hal_rcc_ex.c ****   *            @arg @ref RCC_PERIPHCLK_USART3  USART1 peripheral clock
 165:Drivers/STM32L4xx_HAL_Driver/Src/stm32l4xx_hal_rcc_ex.c ****   @if STM32L462xx
 166:Drivers/STM32L4xx_HAL_Driver/Src/stm32l4xx_hal_rcc_ex.c ****   *            @arg @ref RCC_PERIPHCLK_UART4  USART1 peripheral clock (only for devices with UART4)
 167:Drivers/STM32L4xx_HAL_Driver/Src/stm32l4xx_hal_rcc_ex.c ****   @endif
 168:Drivers/STM32L4xx_HAL_Driver/Src/stm32l4xx_hal_rcc_ex.c ****   @if STM32L486xx
 169:Drivers/STM32L4xx_HAL_Driver/Src/stm32l4xx_hal_rcc_ex.c ****   *            @arg @ref RCC_PERIPHCLK_UART4  USART1 peripheral clock (only for devices with UART4)
 170:Drivers/STM32L4xx_HAL_Driver/Src/stm32l4xx_hal_rcc_ex.c ****   *            @arg @ref RCC_PERIPHCLK_UART5  USART1 peripheral clock (only for devices with UART5)
 171:Drivers/STM32L4xx_HAL_Driver/Src/stm32l4xx_hal_rcc_ex.c ****   *            @arg @ref RCC_PERIPHCLK_USB  USB peripheral clock (only for devices with USB)
 172:Drivers/STM32L4xx_HAL_Driver/Src/stm32l4xx_hal_rcc_ex.c ****   @endif
 173:Drivers/STM32L4xx_HAL_Driver/Src/stm32l4xx_hal_rcc_ex.c ****   @if STM32L4A6xx
 174:Drivers/STM32L4xx_HAL_Driver/Src/stm32l4xx_hal_rcc_ex.c ****   *            @arg @ref RCC_PERIPHCLK_UART4  USART1 peripheral clock (only for devices with UART4)
 175:Drivers/STM32L4xx_HAL_Driver/Src/stm32l4xx_hal_rcc_ex.c ****   *            @arg @ref RCC_PERIPHCLK_UART5  USART1 peripheral clock (only for devices with UART5)
 176:Drivers/STM32L4xx_HAL_Driver/Src/stm32l4xx_hal_rcc_ex.c ****   *            @arg @ref RCC_PERIPHCLK_USB  USB peripheral clock (only for devices with USB)
 177:Drivers/STM32L4xx_HAL_Driver/Src/stm32l4xx_hal_rcc_ex.c ****   @endif
 178:Drivers/STM32L4xx_HAL_Driver/Src/stm32l4xx_hal_rcc_ex.c ****   @if STM32L4S9xx
 179:Drivers/STM32L4xx_HAL_Driver/Src/stm32l4xx_hal_rcc_ex.c ****   *            @arg @ref RCC_PERIPHCLK_UART4  USART1 peripheral clock (only for devices with UART4)
 180:Drivers/STM32L4xx_HAL_Driver/Src/stm32l4xx_hal_rcc_ex.c ****   *            @arg @ref RCC_PERIPHCLK_UART5  USART1 peripheral clock (only for devices with UART5)
 181:Drivers/STM32L4xx_HAL_Driver/Src/stm32l4xx_hal_rcc_ex.c ****   *            @arg @ref RCC_PERIPHCLK_USB  USB peripheral clock (only for devices with USB)
 182:Drivers/STM32L4xx_HAL_Driver/Src/stm32l4xx_hal_rcc_ex.c ****   *            @arg @ref RCC_PERIPHCLK_DFSDM1  DFSDM1 peripheral kernel clock (only for devices wit
 183:Drivers/STM32L4xx_HAL_Driver/Src/stm32l4xx_hal_rcc_ex.c ****   *            @arg @ref RCC_PERIPHCLK_DFSDM1AUDIO  DFSDM1 peripheral audio clock (only for devices
 184:Drivers/STM32L4xx_HAL_Driver/Src/stm32l4xx_hal_rcc_ex.c ****   *            @arg @ref RCC_PERIPHCLK_LTDC  LTDC peripheral clock (only for devices with LTDC)
 185:Drivers/STM32L4xx_HAL_Driver/Src/stm32l4xx_hal_rcc_ex.c ****   *            @arg @ref RCC_PERIPHCLK_DSI  DSI peripheral clock (only for devices with DSI)
 186:Drivers/STM32L4xx_HAL_Driver/Src/stm32l4xx_hal_rcc_ex.c ****   *            @arg @ref RCC_PERIPHCLK_OSPI  OctoSPI peripheral clock (only for devices with OctoSP
 187:Drivers/STM32L4xx_HAL_Driver/Src/stm32l4xx_hal_rcc_ex.c ****   @endif
 188:Drivers/STM32L4xx_HAL_Driver/Src/stm32l4xx_hal_rcc_ex.c ****   *
 189:Drivers/STM32L4xx_HAL_Driver/Src/stm32l4xx_hal_rcc_ex.c ****   * @note   Care must be taken when HAL_RCCEx_PeriphCLKConfig() is used to select
 190:Drivers/STM32L4xx_HAL_Driver/Src/stm32l4xx_hal_rcc_ex.c ****   *         the RTC clock source: in this case the access to Backup domain is enabled.
 191:Drivers/STM32L4xx_HAL_Driver/Src/stm32l4xx_hal_rcc_ex.c ****   *
 192:Drivers/STM32L4xx_HAL_Driver/Src/stm32l4xx_hal_rcc_ex.c ****   * @retval HAL status
 193:Drivers/STM32L4xx_HAL_Driver/Src/stm32l4xx_hal_rcc_ex.c ****   */
 194:Drivers/STM32L4xx_HAL_Driver/Src/stm32l4xx_hal_rcc_ex.c **** HAL_StatusTypeDef HAL_RCCEx_PeriphCLKConfig(RCC_PeriphCLKInitTypeDef  *PeriphClkInit)
 195:Drivers/STM32L4xx_HAL_Driver/Src/stm32l4xx_hal_rcc_ex.c **** {
  29              		.loc 1 195 1
  30              		.cfi_startproc
  31              		@ args = 0, pretend = 0, frame = 24
  32              		@ frame_needed = 1, uses_anonymous_args = 0
  33 0000 80B5     		push	{r7, lr}
  34              		.cfi_def_cfa_offset 8
ARM GAS  C:\Users\Morroway\AppData\Local\Temp\ccOmimY8.s 			page 5


  35              		.cfi_offset 7, -8
  36              		.cfi_offset 14, -4
  37 0002 86B0     		sub	sp, sp, #24
  38              		.cfi_def_cfa_offset 32
  39 0004 00AF     		add	r7, sp, #0
  40              		.cfi_def_cfa_register 7
  41 0006 7860     		str	r0, [r7, #4]
 196:Drivers/STM32L4xx_HAL_Driver/Src/stm32l4xx_hal_rcc_ex.c ****   uint32_t tmpregister, tickstart;     /* no init needed */
 197:Drivers/STM32L4xx_HAL_Driver/Src/stm32l4xx_hal_rcc_ex.c ****   HAL_StatusTypeDef ret = HAL_OK;      /* Intermediate status */
  42              		.loc 1 197 21
  43 0008 0023     		movs	r3, #0
  44 000a FB74     		strb	r3, [r7, #19]
 198:Drivers/STM32L4xx_HAL_Driver/Src/stm32l4xx_hal_rcc_ex.c ****   HAL_StatusTypeDef status = HAL_OK;   /* Final status */
  45              		.loc 1 198 21
  46 000c 0023     		movs	r3, #0
  47 000e BB74     		strb	r3, [r7, #18]
 199:Drivers/STM32L4xx_HAL_Driver/Src/stm32l4xx_hal_rcc_ex.c **** 
 200:Drivers/STM32L4xx_HAL_Driver/Src/stm32l4xx_hal_rcc_ex.c ****   /* Check the parameters */
 201:Drivers/STM32L4xx_HAL_Driver/Src/stm32l4xx_hal_rcc_ex.c ****   assert_param(IS_RCC_PERIPHCLOCK(PeriphClkInit->PeriphClockSelection));
 202:Drivers/STM32L4xx_HAL_Driver/Src/stm32l4xx_hal_rcc_ex.c **** 
 203:Drivers/STM32L4xx_HAL_Driver/Src/stm32l4xx_hal_rcc_ex.c **** #if defined(SAI1)
 204:Drivers/STM32L4xx_HAL_Driver/Src/stm32l4xx_hal_rcc_ex.c **** 
 205:Drivers/STM32L4xx_HAL_Driver/Src/stm32l4xx_hal_rcc_ex.c ****   /*-------------------------- SAI1 clock source configuration ---------------------*/
 206:Drivers/STM32L4xx_HAL_Driver/Src/stm32l4xx_hal_rcc_ex.c ****   if((((PeriphClkInit->PeriphClockSelection) & RCC_PERIPHCLK_SAI1) == RCC_PERIPHCLK_SAI1))
  48              		.loc 1 206 22
  49 0010 7B68     		ldr	r3, [r7, #4]
  50 0012 1B68     		ldr	r3, [r3]
  51              		.loc 1 206 46
  52 0014 03F40063 		and	r3, r3, #2048
  53              		.loc 1 206 5
  54 0018 002B     		cmp	r3, #0
  55 001a 40D0     		beq	.L2
 207:Drivers/STM32L4xx_HAL_Driver/Src/stm32l4xx_hal_rcc_ex.c ****   {
 208:Drivers/STM32L4xx_HAL_Driver/Src/stm32l4xx_hal_rcc_ex.c ****     /* Check the parameters */
 209:Drivers/STM32L4xx_HAL_Driver/Src/stm32l4xx_hal_rcc_ex.c ****     assert_param(IS_RCC_SAI1CLK(PeriphClkInit->Sai1ClockSelection));
 210:Drivers/STM32L4xx_HAL_Driver/Src/stm32l4xx_hal_rcc_ex.c **** 
 211:Drivers/STM32L4xx_HAL_Driver/Src/stm32l4xx_hal_rcc_ex.c ****     switch(PeriphClkInit->Sai1ClockSelection)
  56              		.loc 1 211 25
  57 001c 7B68     		ldr	r3, [r7, #4]
  58 001e DB6E     		ldr	r3, [r3, #108]
  59              		.loc 1 211 5
  60 0020 802B     		cmp	r3, #128
  61 0022 2AD0     		beq	.L63
  62 0024 802B     		cmp	r3, #128
  63 0026 25D8     		bhi	.L4
  64 0028 602B     		cmp	r3, #96
  65 002a 26D0     		beq	.L63
  66 002c 602B     		cmp	r3, #96
  67 002e 21D8     		bhi	.L4
  68 0030 402B     		cmp	r3, #64
  69 0032 06D0     		beq	.L5
  70 0034 402B     		cmp	r3, #64
  71 0036 1DD8     		bhi	.L4
  72 0038 002B     		cmp	r3, #0
  73 003a 09D0     		beq	.L6
  74 003c 202B     		cmp	r3, #32
  75 003e 10D0     		beq	.L7
ARM GAS  C:\Users\Morroway\AppData\Local\Temp\ccOmimY8.s 			page 6


  76 0040 18E0     		b	.L4
  77              	.L5:
 212:Drivers/STM32L4xx_HAL_Driver/Src/stm32l4xx_hal_rcc_ex.c ****     {
 213:Drivers/STM32L4xx_HAL_Driver/Src/stm32l4xx_hal_rcc_ex.c ****     case RCC_SAI1CLKSOURCE_PLL:      /* PLL is used as clock source for SAI1*/
 214:Drivers/STM32L4xx_HAL_Driver/Src/stm32l4xx_hal_rcc_ex.c ****       /* Enable SAI Clock output generated from System PLL . */
 215:Drivers/STM32L4xx_HAL_Driver/Src/stm32l4xx_hal_rcc_ex.c **** #if defined(RCC_PLLSAI2_SUPPORT)
 216:Drivers/STM32L4xx_HAL_Driver/Src/stm32l4xx_hal_rcc_ex.c ****       __HAL_RCC_PLLCLKOUT_ENABLE(RCC_PLL_SAI3CLK);
  78              		.loc 1 216 7
  79 0042 894B     		ldr	r3, .L65
  80 0044 DB68     		ldr	r3, [r3, #12]
  81 0046 884A     		ldr	r2, .L65
  82 0048 43F48033 		orr	r3, r3, #65536
  83 004c D360     		str	r3, [r2, #12]
 217:Drivers/STM32L4xx_HAL_Driver/Src/stm32l4xx_hal_rcc_ex.c **** #else
 218:Drivers/STM32L4xx_HAL_Driver/Src/stm32l4xx_hal_rcc_ex.c ****       __HAL_RCC_PLLCLKOUT_ENABLE(RCC_PLL_SAI2CLK);
 219:Drivers/STM32L4xx_HAL_Driver/Src/stm32l4xx_hal_rcc_ex.c **** #endif /* RCC_PLLSAI2_SUPPORT */
 220:Drivers/STM32L4xx_HAL_Driver/Src/stm32l4xx_hal_rcc_ex.c ****       /* SAI1 clock source config set later after clock selection check */
 221:Drivers/STM32L4xx_HAL_Driver/Src/stm32l4xx_hal_rcc_ex.c ****       break;
  84              		.loc 1 221 7
  85 004e 15E0     		b	.L8
  86              	.L6:
 222:Drivers/STM32L4xx_HAL_Driver/Src/stm32l4xx_hal_rcc_ex.c **** 
 223:Drivers/STM32L4xx_HAL_Driver/Src/stm32l4xx_hal_rcc_ex.c ****     case RCC_SAI1CLKSOURCE_PLLSAI1:  /* PLLSAI1 is used as clock source for SAI1*/
 224:Drivers/STM32L4xx_HAL_Driver/Src/stm32l4xx_hal_rcc_ex.c ****       /* PLLSAI1 input clock, parameters M, N & P configuration and clock output (PLLSAI1ClockOut) 
 225:Drivers/STM32L4xx_HAL_Driver/Src/stm32l4xx_hal_rcc_ex.c ****       ret = RCCEx_PLLSAI1_Config(&(PeriphClkInit->PLLSAI1), DIVIDER_P_UPDATE);
  87              		.loc 1 225 13
  88 0050 7B68     		ldr	r3, [r7, #4]
  89 0052 0433     		adds	r3, r3, #4
  90 0054 0021     		movs	r1, #0
  91 0056 1846     		mov	r0, r3
  92 0058 FFF7FEFF 		bl	RCCEx_PLLSAI1_Config
  93 005c 0346     		mov	r3, r0
  94 005e FB74     		strb	r3, [r7, #19]
 226:Drivers/STM32L4xx_HAL_Driver/Src/stm32l4xx_hal_rcc_ex.c ****       /* SAI1 clock source config set later after clock selection check */
 227:Drivers/STM32L4xx_HAL_Driver/Src/stm32l4xx_hal_rcc_ex.c ****       break;
  95              		.loc 1 227 7
  96 0060 0CE0     		b	.L8
  97              	.L7:
 228:Drivers/STM32L4xx_HAL_Driver/Src/stm32l4xx_hal_rcc_ex.c **** 
 229:Drivers/STM32L4xx_HAL_Driver/Src/stm32l4xx_hal_rcc_ex.c **** #if defined(RCC_PLLSAI2_SUPPORT)
 230:Drivers/STM32L4xx_HAL_Driver/Src/stm32l4xx_hal_rcc_ex.c **** 
 231:Drivers/STM32L4xx_HAL_Driver/Src/stm32l4xx_hal_rcc_ex.c ****     case RCC_SAI1CLKSOURCE_PLLSAI2:  /* PLLSAI2 is used as clock source for SAI1*/
 232:Drivers/STM32L4xx_HAL_Driver/Src/stm32l4xx_hal_rcc_ex.c ****       /* PLLSAI2 input clock, parameters M, N & P configuration clock output (PLLSAI2ClockOut) */
 233:Drivers/STM32L4xx_HAL_Driver/Src/stm32l4xx_hal_rcc_ex.c ****       ret = RCCEx_PLLSAI2_Config(&(PeriphClkInit->PLLSAI2), DIVIDER_P_UPDATE);
  98              		.loc 1 233 13
  99 0062 7B68     		ldr	r3, [r7, #4]
 100 0064 2033     		adds	r3, r3, #32
 101 0066 0021     		movs	r1, #0
 102 0068 1846     		mov	r0, r3
 103 006a FFF7FEFF 		bl	RCCEx_PLLSAI2_Config
 104 006e 0346     		mov	r3, r0
 105 0070 FB74     		strb	r3, [r7, #19]
 234:Drivers/STM32L4xx_HAL_Driver/Src/stm32l4xx_hal_rcc_ex.c ****       /* SAI1 clock source config set later after clock selection check */
 235:Drivers/STM32L4xx_HAL_Driver/Src/stm32l4xx_hal_rcc_ex.c ****       break;
 106              		.loc 1 235 7
 107 0072 03E0     		b	.L8
 108              	.L4:
ARM GAS  C:\Users\Morroway\AppData\Local\Temp\ccOmimY8.s 			page 7


 236:Drivers/STM32L4xx_HAL_Driver/Src/stm32l4xx_hal_rcc_ex.c **** 
 237:Drivers/STM32L4xx_HAL_Driver/Src/stm32l4xx_hal_rcc_ex.c **** #endif /* RCC_PLLSAI2_SUPPORT */
 238:Drivers/STM32L4xx_HAL_Driver/Src/stm32l4xx_hal_rcc_ex.c **** 
 239:Drivers/STM32L4xx_HAL_Driver/Src/stm32l4xx_hal_rcc_ex.c ****     case RCC_SAI1CLKSOURCE_PIN:      /* External clock is used as source of SAI1 clock*/
 240:Drivers/STM32L4xx_HAL_Driver/Src/stm32l4xx_hal_rcc_ex.c **** #if defined(STM32L4P5xx) || defined(STM32L4Q5xx) || defined(STM32L4R5xx) || defined(STM32L4R7xx) ||
 241:Drivers/STM32L4xx_HAL_Driver/Src/stm32l4xx_hal_rcc_ex.c ****     case RCC_SAI1CLKSOURCE_HSI:      /* HSI is used as source of SAI1 clock*/
 242:Drivers/STM32L4xx_HAL_Driver/Src/stm32l4xx_hal_rcc_ex.c **** #endif /* STM32L4P5xx || STM32L4Q5xx || STM32L4R5xx || STM32L4R7xx || STM32L4R9xx || STM32L4S5xx ||
 243:Drivers/STM32L4xx_HAL_Driver/Src/stm32l4xx_hal_rcc_ex.c ****       /* SAI1 clock source config set later after clock selection check */
 244:Drivers/STM32L4xx_HAL_Driver/Src/stm32l4xx_hal_rcc_ex.c ****       break;
 245:Drivers/STM32L4xx_HAL_Driver/Src/stm32l4xx_hal_rcc_ex.c **** 
 246:Drivers/STM32L4xx_HAL_Driver/Src/stm32l4xx_hal_rcc_ex.c ****     default:
 247:Drivers/STM32L4xx_HAL_Driver/Src/stm32l4xx_hal_rcc_ex.c ****       ret = HAL_ERROR;
 109              		.loc 1 247 11
 110 0074 0123     		movs	r3, #1
 111 0076 FB74     		strb	r3, [r7, #19]
 248:Drivers/STM32L4xx_HAL_Driver/Src/stm32l4xx_hal_rcc_ex.c ****       break;
 112              		.loc 1 248 7
 113 0078 00E0     		b	.L8
 114              	.L63:
 244:Drivers/STM32L4xx_HAL_Driver/Src/stm32l4xx_hal_rcc_ex.c **** 
 115              		.loc 1 244 7
 116 007a 00BF     		nop
 117              	.L8:
 249:Drivers/STM32L4xx_HAL_Driver/Src/stm32l4xx_hal_rcc_ex.c ****     }
 250:Drivers/STM32L4xx_HAL_Driver/Src/stm32l4xx_hal_rcc_ex.c **** 
 251:Drivers/STM32L4xx_HAL_Driver/Src/stm32l4xx_hal_rcc_ex.c ****     if(ret == HAL_OK)
 118              		.loc 1 251 7
 119 007c FB7C     		ldrb	r3, [r7, #19]	@ zero_extendqisi2
 120 007e 002B     		cmp	r3, #0
 121 0080 0BD1     		bne	.L9
 252:Drivers/STM32L4xx_HAL_Driver/Src/stm32l4xx_hal_rcc_ex.c ****     {
 253:Drivers/STM32L4xx_HAL_Driver/Src/stm32l4xx_hal_rcc_ex.c ****       /* Set the source of SAI1 clock*/
 254:Drivers/STM32L4xx_HAL_Driver/Src/stm32l4xx_hal_rcc_ex.c ****       __HAL_RCC_SAI1_CONFIG(PeriphClkInit->Sai1ClockSelection);
 122              		.loc 1 254 7
 123 0082 794B     		ldr	r3, .L65
 124 0084 D3F89C30 		ldr	r3, [r3, #156]
 125 0088 23F0E002 		bic	r2, r3, #224
 126 008c 7B68     		ldr	r3, [r7, #4]
 127 008e DB6E     		ldr	r3, [r3, #108]
 128 0090 7549     		ldr	r1, .L65
 129 0092 1343     		orrs	r3, r3, r2
 130 0094 C1F89C30 		str	r3, [r1, #156]
 131 0098 01E0     		b	.L2
 132              	.L9:
 255:Drivers/STM32L4xx_HAL_Driver/Src/stm32l4xx_hal_rcc_ex.c ****     }
 256:Drivers/STM32L4xx_HAL_Driver/Src/stm32l4xx_hal_rcc_ex.c ****     else
 257:Drivers/STM32L4xx_HAL_Driver/Src/stm32l4xx_hal_rcc_ex.c ****     {
 258:Drivers/STM32L4xx_HAL_Driver/Src/stm32l4xx_hal_rcc_ex.c ****       /* set overall return value */
 259:Drivers/STM32L4xx_HAL_Driver/Src/stm32l4xx_hal_rcc_ex.c ****       status = ret;
 133              		.loc 1 259 14
 134 009a FB7C     		ldrb	r3, [r7, #19]
 135 009c BB74     		strb	r3, [r7, #18]
 136              	.L2:
 260:Drivers/STM32L4xx_HAL_Driver/Src/stm32l4xx_hal_rcc_ex.c ****     }
 261:Drivers/STM32L4xx_HAL_Driver/Src/stm32l4xx_hal_rcc_ex.c ****   }
 262:Drivers/STM32L4xx_HAL_Driver/Src/stm32l4xx_hal_rcc_ex.c **** 
 263:Drivers/STM32L4xx_HAL_Driver/Src/stm32l4xx_hal_rcc_ex.c **** #endif /* SAI1 */
ARM GAS  C:\Users\Morroway\AppData\Local\Temp\ccOmimY8.s 			page 8


 264:Drivers/STM32L4xx_HAL_Driver/Src/stm32l4xx_hal_rcc_ex.c **** 
 265:Drivers/STM32L4xx_HAL_Driver/Src/stm32l4xx_hal_rcc_ex.c **** #if defined(SAI2)
 266:Drivers/STM32L4xx_HAL_Driver/Src/stm32l4xx_hal_rcc_ex.c **** 
 267:Drivers/STM32L4xx_HAL_Driver/Src/stm32l4xx_hal_rcc_ex.c ****   /*-------------------------- SAI2 clock source configuration ---------------------*/
 268:Drivers/STM32L4xx_HAL_Driver/Src/stm32l4xx_hal_rcc_ex.c ****   if((((PeriphClkInit->PeriphClockSelection) & RCC_PERIPHCLK_SAI2) == RCC_PERIPHCLK_SAI2))
 137              		.loc 1 268 22
 138 009e 7B68     		ldr	r3, [r7, #4]
 139 00a0 1B68     		ldr	r3, [r3]
 140              		.loc 1 268 46
 141 00a2 03F48053 		and	r3, r3, #4096
 142              		.loc 1 268 5
 143 00a6 002B     		cmp	r3, #0
 144 00a8 47D0     		beq	.L10
 269:Drivers/STM32L4xx_HAL_Driver/Src/stm32l4xx_hal_rcc_ex.c ****   {
 270:Drivers/STM32L4xx_HAL_Driver/Src/stm32l4xx_hal_rcc_ex.c ****     /* Check the parameters */
 271:Drivers/STM32L4xx_HAL_Driver/Src/stm32l4xx_hal_rcc_ex.c ****     assert_param(IS_RCC_SAI2CLK(PeriphClkInit->Sai2ClockSelection));
 272:Drivers/STM32L4xx_HAL_Driver/Src/stm32l4xx_hal_rcc_ex.c **** 
 273:Drivers/STM32L4xx_HAL_Driver/Src/stm32l4xx_hal_rcc_ex.c ****     switch(PeriphClkInit->Sai2ClockSelection)
 145              		.loc 1 273 25
 146 00aa 7B68     		ldr	r3, [r7, #4]
 147 00ac 1B6F     		ldr	r3, [r3, #112]
 148              		.loc 1 273 5
 149 00ae B3F5806F 		cmp	r3, #1024
 150 00b2 30D0     		beq	.L64
 151 00b4 B3F5806F 		cmp	r3, #1024
 152 00b8 2AD8     		bhi	.L12
 153 00ba B3F5407F 		cmp	r3, #768
 154 00be 2AD0     		beq	.L64
 155 00c0 B3F5407F 		cmp	r3, #768
 156 00c4 24D8     		bhi	.L12
 157 00c6 B3F5007F 		cmp	r3, #512
 158 00ca 08D0     		beq	.L13
 159 00cc B3F5007F 		cmp	r3, #512
 160 00d0 1ED8     		bhi	.L12
 161 00d2 002B     		cmp	r3, #0
 162 00d4 0AD0     		beq	.L14
 163 00d6 B3F5807F 		cmp	r3, #256
 164 00da 10D0     		beq	.L15
 165 00dc 18E0     		b	.L12
 166              	.L13:
 274:Drivers/STM32L4xx_HAL_Driver/Src/stm32l4xx_hal_rcc_ex.c ****     {
 275:Drivers/STM32L4xx_HAL_Driver/Src/stm32l4xx_hal_rcc_ex.c ****     case RCC_SAI2CLKSOURCE_PLL:      /* PLL is used as clock source for SAI2*/
 276:Drivers/STM32L4xx_HAL_Driver/Src/stm32l4xx_hal_rcc_ex.c ****       /* Enable SAI Clock output generated from System PLL . */
 277:Drivers/STM32L4xx_HAL_Driver/Src/stm32l4xx_hal_rcc_ex.c ****       __HAL_RCC_PLLCLKOUT_ENABLE(RCC_PLL_SAI3CLK);
 167              		.loc 1 277 7
 168 00de 624B     		ldr	r3, .L65
 169 00e0 DB68     		ldr	r3, [r3, #12]
 170 00e2 614A     		ldr	r2, .L65
 171 00e4 43F48033 		orr	r3, r3, #65536
 172 00e8 D360     		str	r3, [r2, #12]
 278:Drivers/STM32L4xx_HAL_Driver/Src/stm32l4xx_hal_rcc_ex.c ****       /* SAI2 clock source config set later after clock selection check */
 279:Drivers/STM32L4xx_HAL_Driver/Src/stm32l4xx_hal_rcc_ex.c ****       break;
 173              		.loc 1 279 7
 174 00ea 15E0     		b	.L16
 175              	.L14:
 280:Drivers/STM32L4xx_HAL_Driver/Src/stm32l4xx_hal_rcc_ex.c **** 
 281:Drivers/STM32L4xx_HAL_Driver/Src/stm32l4xx_hal_rcc_ex.c ****     case RCC_SAI2CLKSOURCE_PLLSAI1: /* PLLSAI1 is used as clock source for SAI2*/
ARM GAS  C:\Users\Morroway\AppData\Local\Temp\ccOmimY8.s 			page 9


 282:Drivers/STM32L4xx_HAL_Driver/Src/stm32l4xx_hal_rcc_ex.c ****       /* PLLSAI1 input clock, parameters M, N & P configuration and clock output (PLLSAI1ClockOut) 
 283:Drivers/STM32L4xx_HAL_Driver/Src/stm32l4xx_hal_rcc_ex.c ****       ret = RCCEx_PLLSAI1_Config(&(PeriphClkInit->PLLSAI1), DIVIDER_P_UPDATE);
 176              		.loc 1 283 13
 177 00ec 7B68     		ldr	r3, [r7, #4]
 178 00ee 0433     		adds	r3, r3, #4
 179 00f0 0021     		movs	r1, #0
 180 00f2 1846     		mov	r0, r3
 181 00f4 FFF7FEFF 		bl	RCCEx_PLLSAI1_Config
 182 00f8 0346     		mov	r3, r0
 183 00fa FB74     		strb	r3, [r7, #19]
 284:Drivers/STM32L4xx_HAL_Driver/Src/stm32l4xx_hal_rcc_ex.c ****       /* SAI2 clock source config set later after clock selection check */
 285:Drivers/STM32L4xx_HAL_Driver/Src/stm32l4xx_hal_rcc_ex.c ****       break;
 184              		.loc 1 285 7
 185 00fc 0CE0     		b	.L16
 186              	.L15:
 286:Drivers/STM32L4xx_HAL_Driver/Src/stm32l4xx_hal_rcc_ex.c **** 
 287:Drivers/STM32L4xx_HAL_Driver/Src/stm32l4xx_hal_rcc_ex.c ****     case RCC_SAI2CLKSOURCE_PLLSAI2:  /* PLLSAI2 is used as clock source for SAI2*/
 288:Drivers/STM32L4xx_HAL_Driver/Src/stm32l4xx_hal_rcc_ex.c ****       /* PLLSAI2 input clock, parameters M, N & P configuration and clock output (PLLSAI2ClockOut) 
 289:Drivers/STM32L4xx_HAL_Driver/Src/stm32l4xx_hal_rcc_ex.c ****       ret = RCCEx_PLLSAI2_Config(&(PeriphClkInit->PLLSAI2), DIVIDER_P_UPDATE);
 187              		.loc 1 289 13
 188 00fe 7B68     		ldr	r3, [r7, #4]
 189 0100 2033     		adds	r3, r3, #32
 190 0102 0021     		movs	r1, #0
 191 0104 1846     		mov	r0, r3
 192 0106 FFF7FEFF 		bl	RCCEx_PLLSAI2_Config
 193 010a 0346     		mov	r3, r0
 194 010c FB74     		strb	r3, [r7, #19]
 290:Drivers/STM32L4xx_HAL_Driver/Src/stm32l4xx_hal_rcc_ex.c ****       /* SAI2 clock source config set later after clock selection check */
 291:Drivers/STM32L4xx_HAL_Driver/Src/stm32l4xx_hal_rcc_ex.c ****       break;
 195              		.loc 1 291 7
 196 010e 03E0     		b	.L16
 197              	.L12:
 292:Drivers/STM32L4xx_HAL_Driver/Src/stm32l4xx_hal_rcc_ex.c **** 
 293:Drivers/STM32L4xx_HAL_Driver/Src/stm32l4xx_hal_rcc_ex.c ****     case RCC_SAI2CLKSOURCE_PIN:      /* External clock is used as source of SAI2 clock*/
 294:Drivers/STM32L4xx_HAL_Driver/Src/stm32l4xx_hal_rcc_ex.c **** #if defined(STM32L4P5xx) || defined(STM32L4Q5xx) || defined(STM32L4R5xx) || defined(STM32L4R7xx) ||
 295:Drivers/STM32L4xx_HAL_Driver/Src/stm32l4xx_hal_rcc_ex.c ****     case RCC_SAI2CLKSOURCE_HSI:      /* HSI is used as source of SAI2 clock*/
 296:Drivers/STM32L4xx_HAL_Driver/Src/stm32l4xx_hal_rcc_ex.c **** #endif /* STM32L4P5xx || STM32L4Q5xx || STM32L4R5xx || STM32L4R7xx || STM32L4R9xx || STM32L4S5xx ||
 297:Drivers/STM32L4xx_HAL_Driver/Src/stm32l4xx_hal_rcc_ex.c ****       /* SAI2 clock source config set later after clock selection check */
 298:Drivers/STM32L4xx_HAL_Driver/Src/stm32l4xx_hal_rcc_ex.c ****       break;
 299:Drivers/STM32L4xx_HAL_Driver/Src/stm32l4xx_hal_rcc_ex.c **** 
 300:Drivers/STM32L4xx_HAL_Driver/Src/stm32l4xx_hal_rcc_ex.c ****     default:
 301:Drivers/STM32L4xx_HAL_Driver/Src/stm32l4xx_hal_rcc_ex.c ****       ret = HAL_ERROR;
 198              		.loc 1 301 11
 199 0110 0123     		movs	r3, #1
 200 0112 FB74     		strb	r3, [r7, #19]
 302:Drivers/STM32L4xx_HAL_Driver/Src/stm32l4xx_hal_rcc_ex.c ****       break;
 201              		.loc 1 302 7
 202 0114 00E0     		b	.L16
 203              	.L64:
 298:Drivers/STM32L4xx_HAL_Driver/Src/stm32l4xx_hal_rcc_ex.c **** 
 204              		.loc 1 298 7
 205 0116 00BF     		nop
 206              	.L16:
 303:Drivers/STM32L4xx_HAL_Driver/Src/stm32l4xx_hal_rcc_ex.c ****     }
 304:Drivers/STM32L4xx_HAL_Driver/Src/stm32l4xx_hal_rcc_ex.c **** 
 305:Drivers/STM32L4xx_HAL_Driver/Src/stm32l4xx_hal_rcc_ex.c ****     if(ret == HAL_OK)
 207              		.loc 1 305 7
ARM GAS  C:\Users\Morroway\AppData\Local\Temp\ccOmimY8.s 			page 10


 208 0118 FB7C     		ldrb	r3, [r7, #19]	@ zero_extendqisi2
 209 011a 002B     		cmp	r3, #0
 210 011c 0BD1     		bne	.L17
 306:Drivers/STM32L4xx_HAL_Driver/Src/stm32l4xx_hal_rcc_ex.c ****     {
 307:Drivers/STM32L4xx_HAL_Driver/Src/stm32l4xx_hal_rcc_ex.c ****       /* Set the source of SAI2 clock*/
 308:Drivers/STM32L4xx_HAL_Driver/Src/stm32l4xx_hal_rcc_ex.c ****       __HAL_RCC_SAI2_CONFIG(PeriphClkInit->Sai2ClockSelection);
 211              		.loc 1 308 7
 212 011e 524B     		ldr	r3, .L65
 213 0120 D3F89C30 		ldr	r3, [r3, #156]
 214 0124 23F4E062 		bic	r2, r3, #1792
 215 0128 7B68     		ldr	r3, [r7, #4]
 216 012a 1B6F     		ldr	r3, [r3, #112]
 217 012c 4E49     		ldr	r1, .L65
 218 012e 1343     		orrs	r3, r3, r2
 219 0130 C1F89C30 		str	r3, [r1, #156]
 220 0134 01E0     		b	.L10
 221              	.L17:
 309:Drivers/STM32L4xx_HAL_Driver/Src/stm32l4xx_hal_rcc_ex.c ****     }
 310:Drivers/STM32L4xx_HAL_Driver/Src/stm32l4xx_hal_rcc_ex.c ****     else
 311:Drivers/STM32L4xx_HAL_Driver/Src/stm32l4xx_hal_rcc_ex.c ****     {
 312:Drivers/STM32L4xx_HAL_Driver/Src/stm32l4xx_hal_rcc_ex.c ****       /* set overall return value */
 313:Drivers/STM32L4xx_HAL_Driver/Src/stm32l4xx_hal_rcc_ex.c ****       status = ret;
 222              		.loc 1 313 14
 223 0136 FB7C     		ldrb	r3, [r7, #19]
 224 0138 BB74     		strb	r3, [r7, #18]
 225              	.L10:
 314:Drivers/STM32L4xx_HAL_Driver/Src/stm32l4xx_hal_rcc_ex.c ****     }
 315:Drivers/STM32L4xx_HAL_Driver/Src/stm32l4xx_hal_rcc_ex.c ****   }
 316:Drivers/STM32L4xx_HAL_Driver/Src/stm32l4xx_hal_rcc_ex.c **** #endif /* SAI2 */
 317:Drivers/STM32L4xx_HAL_Driver/Src/stm32l4xx_hal_rcc_ex.c **** 
 318:Drivers/STM32L4xx_HAL_Driver/Src/stm32l4xx_hal_rcc_ex.c ****   /*-------------------------- RTC clock source configuration ----------------------*/
 319:Drivers/STM32L4xx_HAL_Driver/Src/stm32l4xx_hal_rcc_ex.c ****   if((PeriphClkInit->PeriphClockSelection & RCC_PERIPHCLK_RTC) == RCC_PERIPHCLK_RTC)
 226              		.loc 1 319 20
 227 013a 7B68     		ldr	r3, [r7, #4]
 228 013c 1B68     		ldr	r3, [r3]
 229              		.loc 1 319 43
 230 013e 03F40033 		and	r3, r3, #131072
 231              		.loc 1 319 5
 232 0142 002B     		cmp	r3, #0
 233 0144 00F09F80 		beq	.L18
 234              	.LBB2:
 320:Drivers/STM32L4xx_HAL_Driver/Src/stm32l4xx_hal_rcc_ex.c ****   {
 321:Drivers/STM32L4xx_HAL_Driver/Src/stm32l4xx_hal_rcc_ex.c ****     FlagStatus       pwrclkchanged = RESET;
 235              		.loc 1 321 22
 236 0148 0023     		movs	r3, #0
 237 014a 7B74     		strb	r3, [r7, #17]
 322:Drivers/STM32L4xx_HAL_Driver/Src/stm32l4xx_hal_rcc_ex.c **** 
 323:Drivers/STM32L4xx_HAL_Driver/Src/stm32l4xx_hal_rcc_ex.c ****     /* Check for RTC Parameters used to output RTCCLK */
 324:Drivers/STM32L4xx_HAL_Driver/Src/stm32l4xx_hal_rcc_ex.c ****     assert_param(IS_RCC_RTCCLKSOURCE(PeriphClkInit->RTCClockSelection));
 325:Drivers/STM32L4xx_HAL_Driver/Src/stm32l4xx_hal_rcc_ex.c **** 
 326:Drivers/STM32L4xx_HAL_Driver/Src/stm32l4xx_hal_rcc_ex.c ****     /* Enable Power Clock */
 327:Drivers/STM32L4xx_HAL_Driver/Src/stm32l4xx_hal_rcc_ex.c ****     if(__HAL_RCC_PWR_IS_CLK_DISABLED() != 0U)
 238              		.loc 1 327 8
 239 014c 464B     		ldr	r3, .L65
 240 014e 9B6D     		ldr	r3, [r3, #88]
 241 0150 03F08053 		and	r3, r3, #268435456
 242              		.loc 1 327 40
ARM GAS  C:\Users\Morroway\AppData\Local\Temp\ccOmimY8.s 			page 11


 243 0154 002B     		cmp	r3, #0
 244 0156 01D1     		bne	.L19
 245              		.loc 1 327 40 is_stmt 0 discriminator 1
 246 0158 0123     		movs	r3, #1
 247 015a 00E0     		b	.L20
 248              	.L19:
 249              		.loc 1 327 40 discriminator 2
 250 015c 0023     		movs	r3, #0
 251              	.L20:
 252              		.loc 1 327 7 is_stmt 1 discriminator 4
 253 015e 002B     		cmp	r3, #0
 254 0160 0DD0     		beq	.L21
 255              	.LBB3:
 328:Drivers/STM32L4xx_HAL_Driver/Src/stm32l4xx_hal_rcc_ex.c ****     {
 329:Drivers/STM32L4xx_HAL_Driver/Src/stm32l4xx_hal_rcc_ex.c ****       __HAL_RCC_PWR_CLK_ENABLE();
 256              		.loc 1 329 7
 257 0162 414B     		ldr	r3, .L65
 258 0164 9B6D     		ldr	r3, [r3, #88]
 259 0166 404A     		ldr	r2, .L65
 260 0168 43F08053 		orr	r3, r3, #268435456
 261 016c 9365     		str	r3, [r2, #88]
 262 016e 3E4B     		ldr	r3, .L65
 263 0170 9B6D     		ldr	r3, [r3, #88]
 264 0172 03F08053 		and	r3, r3, #268435456
 265 0176 BB60     		str	r3, [r7, #8]
 266 0178 BB68     		ldr	r3, [r7, #8]
 267              	.LBE3:
 330:Drivers/STM32L4xx_HAL_Driver/Src/stm32l4xx_hal_rcc_ex.c ****       pwrclkchanged = SET;
 268              		.loc 1 330 21
 269 017a 0123     		movs	r3, #1
 270 017c 7B74     		strb	r3, [r7, #17]
 271              	.L21:
 331:Drivers/STM32L4xx_HAL_Driver/Src/stm32l4xx_hal_rcc_ex.c ****     }
 332:Drivers/STM32L4xx_HAL_Driver/Src/stm32l4xx_hal_rcc_ex.c **** 
 333:Drivers/STM32L4xx_HAL_Driver/Src/stm32l4xx_hal_rcc_ex.c ****     /* Enable write access to Backup domain */
 334:Drivers/STM32L4xx_HAL_Driver/Src/stm32l4xx_hal_rcc_ex.c ****     SET_BIT(PWR->CR1, PWR_CR1_DBP);
 272              		.loc 1 334 5
 273 017e 3B4B     		ldr	r3, .L65+4
 274 0180 1B68     		ldr	r3, [r3]
 275 0182 3A4A     		ldr	r2, .L65+4
 276 0184 43F48073 		orr	r3, r3, #256
 277 0188 1360     		str	r3, [r2]
 335:Drivers/STM32L4xx_HAL_Driver/Src/stm32l4xx_hal_rcc_ex.c **** 
 336:Drivers/STM32L4xx_HAL_Driver/Src/stm32l4xx_hal_rcc_ex.c ****     /* Wait for Backup domain Write protection disable */
 337:Drivers/STM32L4xx_HAL_Driver/Src/stm32l4xx_hal_rcc_ex.c ****     tickstart = HAL_GetTick();
 278              		.loc 1 337 17
 279 018a FFF7FEFF 		bl	HAL_GetTick
 280 018e F860     		str	r0, [r7, #12]
 338:Drivers/STM32L4xx_HAL_Driver/Src/stm32l4xx_hal_rcc_ex.c **** 
 339:Drivers/STM32L4xx_HAL_Driver/Src/stm32l4xx_hal_rcc_ex.c ****     while(READ_BIT(PWR->CR1, PWR_CR1_DBP) == 0U)
 281              		.loc 1 339 10
 282 0190 09E0     		b	.L22
 283              	.L24:
 340:Drivers/STM32L4xx_HAL_Driver/Src/stm32l4xx_hal_rcc_ex.c ****     {
 341:Drivers/STM32L4xx_HAL_Driver/Src/stm32l4xx_hal_rcc_ex.c ****       if((HAL_GetTick() - tickstart) > RCC_DBP_TIMEOUT_VALUE)
 284              		.loc 1 341 11
 285 0192 FFF7FEFF 		bl	HAL_GetTick
ARM GAS  C:\Users\Morroway\AppData\Local\Temp\ccOmimY8.s 			page 12


 286 0196 0246     		mov	r2, r0
 287              		.loc 1 341 25
 288 0198 FB68     		ldr	r3, [r7, #12]
 289 019a D31A     		subs	r3, r2, r3
 290              		.loc 1 341 9
 291 019c 022B     		cmp	r3, #2
 292 019e 02D9     		bls	.L22
 342:Drivers/STM32L4xx_HAL_Driver/Src/stm32l4xx_hal_rcc_ex.c ****       {
 343:Drivers/STM32L4xx_HAL_Driver/Src/stm32l4xx_hal_rcc_ex.c ****         ret = HAL_TIMEOUT;
 293              		.loc 1 343 13
 294 01a0 0323     		movs	r3, #3
 295 01a2 FB74     		strb	r3, [r7, #19]
 344:Drivers/STM32L4xx_HAL_Driver/Src/stm32l4xx_hal_rcc_ex.c ****         break;
 296              		.loc 1 344 9
 297 01a4 05E0     		b	.L23
 298              	.L22:
 339:Drivers/STM32L4xx_HAL_Driver/Src/stm32l4xx_hal_rcc_ex.c ****     {
 299              		.loc 1 339 11
 300 01a6 314B     		ldr	r3, .L65+4
 301 01a8 1B68     		ldr	r3, [r3]
 302 01aa 03F48073 		and	r3, r3, #256
 339:Drivers/STM32L4xx_HAL_Driver/Src/stm32l4xx_hal_rcc_ex.c ****     {
 303              		.loc 1 339 43
 304 01ae 002B     		cmp	r3, #0
 305 01b0 EFD0     		beq	.L24
 306              	.L23:
 345:Drivers/STM32L4xx_HAL_Driver/Src/stm32l4xx_hal_rcc_ex.c ****       }
 346:Drivers/STM32L4xx_HAL_Driver/Src/stm32l4xx_hal_rcc_ex.c ****     }
 347:Drivers/STM32L4xx_HAL_Driver/Src/stm32l4xx_hal_rcc_ex.c **** 
 348:Drivers/STM32L4xx_HAL_Driver/Src/stm32l4xx_hal_rcc_ex.c ****     if(ret == HAL_OK)
 307              		.loc 1 348 7
 308 01b2 FB7C     		ldrb	r3, [r7, #19]	@ zero_extendqisi2
 309 01b4 002B     		cmp	r3, #0
 310 01b6 5BD1     		bne	.L25
 349:Drivers/STM32L4xx_HAL_Driver/Src/stm32l4xx_hal_rcc_ex.c ****     {
 350:Drivers/STM32L4xx_HAL_Driver/Src/stm32l4xx_hal_rcc_ex.c ****       /* Reset the Backup domain only if the RTC Clock source selection is modified from default */
 351:Drivers/STM32L4xx_HAL_Driver/Src/stm32l4xx_hal_rcc_ex.c ****       tmpregister = READ_BIT(RCC->BDCR, RCC_BDCR_RTCSEL);
 311              		.loc 1 351 21
 312 01b8 2B4B     		ldr	r3, .L65
 313 01ba D3F89030 		ldr	r3, [r3, #144]
 314              		.loc 1 351 19
 315 01be 03F44073 		and	r3, r3, #768
 316 01c2 7B61     		str	r3, [r7, #20]
 352:Drivers/STM32L4xx_HAL_Driver/Src/stm32l4xx_hal_rcc_ex.c **** 
 353:Drivers/STM32L4xx_HAL_Driver/Src/stm32l4xx_hal_rcc_ex.c ****       if((tmpregister != RCC_RTCCLKSOURCE_NONE) && (tmpregister != PeriphClkInit->RTCClockSelection
 317              		.loc 1 353 9
 318 01c4 7B69     		ldr	r3, [r7, #20]
 319 01c6 002B     		cmp	r3, #0
 320 01c8 1FD0     		beq	.L26
 321              		.loc 1 353 81 discriminator 1
 322 01ca 7B68     		ldr	r3, [r7, #4]
 323 01cc D3F89430 		ldr	r3, [r3, #148]
 324              		.loc 1 353 49 discriminator 1
 325 01d0 7A69     		ldr	r2, [r7, #20]
 326 01d2 9A42     		cmp	r2, r3
 327 01d4 19D0     		beq	.L26
 354:Drivers/STM32L4xx_HAL_Driver/Src/stm32l4xx_hal_rcc_ex.c ****       {
ARM GAS  C:\Users\Morroway\AppData\Local\Temp\ccOmimY8.s 			page 13


 355:Drivers/STM32L4xx_HAL_Driver/Src/stm32l4xx_hal_rcc_ex.c ****         /* Store the content of BDCR register before the reset of Backup Domain */
 356:Drivers/STM32L4xx_HAL_Driver/Src/stm32l4xx_hal_rcc_ex.c ****         tmpregister = READ_BIT(RCC->BDCR, ~(RCC_BDCR_RTCSEL));
 328              		.loc 1 356 23
 329 01d6 244B     		ldr	r3, .L65
 330 01d8 D3F89030 		ldr	r3, [r3, #144]
 331              		.loc 1 356 21
 332 01dc 23F44073 		bic	r3, r3, #768
 333 01e0 7B61     		str	r3, [r7, #20]
 357:Drivers/STM32L4xx_HAL_Driver/Src/stm32l4xx_hal_rcc_ex.c ****         /* RTC Clock selection can be changed only if the Backup Domain is reset */
 358:Drivers/STM32L4xx_HAL_Driver/Src/stm32l4xx_hal_rcc_ex.c ****         __HAL_RCC_BACKUPRESET_FORCE();
 334              		.loc 1 358 9
 335 01e2 214B     		ldr	r3, .L65
 336 01e4 D3F89030 		ldr	r3, [r3, #144]
 337 01e8 1F4A     		ldr	r2, .L65
 338 01ea 43F48033 		orr	r3, r3, #65536
 339 01ee C2F89030 		str	r3, [r2, #144]
 359:Drivers/STM32L4xx_HAL_Driver/Src/stm32l4xx_hal_rcc_ex.c ****         __HAL_RCC_BACKUPRESET_RELEASE();
 340              		.loc 1 359 9
 341 01f2 1D4B     		ldr	r3, .L65
 342 01f4 D3F89030 		ldr	r3, [r3, #144]
 343 01f8 1B4A     		ldr	r2, .L65
 344 01fa 23F48033 		bic	r3, r3, #65536
 345 01fe C2F89030 		str	r3, [r2, #144]
 360:Drivers/STM32L4xx_HAL_Driver/Src/stm32l4xx_hal_rcc_ex.c ****         /* Restore the Content of BDCR register */
 361:Drivers/STM32L4xx_HAL_Driver/Src/stm32l4xx_hal_rcc_ex.c ****         RCC->BDCR = tmpregister;
 346              		.loc 1 361 12
 347 0202 194A     		ldr	r2, .L65
 348              		.loc 1 361 19
 349 0204 7B69     		ldr	r3, [r7, #20]
 350 0206 C2F89030 		str	r3, [r2, #144]
 351              	.L26:
 362:Drivers/STM32L4xx_HAL_Driver/Src/stm32l4xx_hal_rcc_ex.c ****       }
 363:Drivers/STM32L4xx_HAL_Driver/Src/stm32l4xx_hal_rcc_ex.c **** 
 364:Drivers/STM32L4xx_HAL_Driver/Src/stm32l4xx_hal_rcc_ex.c ****       /* Wait for LSE reactivation if LSE was enable prior to Backup Domain reset */
 365:Drivers/STM32L4xx_HAL_Driver/Src/stm32l4xx_hal_rcc_ex.c ****       if (HAL_IS_BIT_SET(tmpregister, RCC_BDCR_LSEON))
 352              		.loc 1 365 11
 353 020a 7B69     		ldr	r3, [r7, #20]
 354 020c 03F00103 		and	r3, r3, #1
 355              		.loc 1 365 10
 356 0210 002B     		cmp	r3, #0
 357 0212 16D0     		beq	.L27
 366:Drivers/STM32L4xx_HAL_Driver/Src/stm32l4xx_hal_rcc_ex.c ****       {
 367:Drivers/STM32L4xx_HAL_Driver/Src/stm32l4xx_hal_rcc_ex.c ****         /* Get Start Tick*/
 368:Drivers/STM32L4xx_HAL_Driver/Src/stm32l4xx_hal_rcc_ex.c ****         tickstart = HAL_GetTick();
 358              		.loc 1 368 21
 359 0214 FFF7FEFF 		bl	HAL_GetTick
 360 0218 F860     		str	r0, [r7, #12]
 369:Drivers/STM32L4xx_HAL_Driver/Src/stm32l4xx_hal_rcc_ex.c **** 
 370:Drivers/STM32L4xx_HAL_Driver/Src/stm32l4xx_hal_rcc_ex.c ****         /* Wait till LSE is ready */
 371:Drivers/STM32L4xx_HAL_Driver/Src/stm32l4xx_hal_rcc_ex.c ****         while(READ_BIT(RCC->BDCR, RCC_BDCR_LSERDY) == 0U)
 361              		.loc 1 371 14
 362 021a 0BE0     		b	.L28
 363              	.L29:
 372:Drivers/STM32L4xx_HAL_Driver/Src/stm32l4xx_hal_rcc_ex.c ****         {
 373:Drivers/STM32L4xx_HAL_Driver/Src/stm32l4xx_hal_rcc_ex.c ****           if((HAL_GetTick() - tickstart) > RCC_LSE_TIMEOUT_VALUE)
 364              		.loc 1 373 15
 365 021c FFF7FEFF 		bl	HAL_GetTick
ARM GAS  C:\Users\Morroway\AppData\Local\Temp\ccOmimY8.s 			page 14


 366 0220 0246     		mov	r2, r0
 367              		.loc 1 373 29
 368 0222 FB68     		ldr	r3, [r7, #12]
 369 0224 D31A     		subs	r3, r2, r3
 370              		.loc 1 373 13
 371 0226 41F28832 		movw	r2, #5000
 372 022a 9342     		cmp	r3, r2
 373 022c 02D9     		bls	.L28
 374:Drivers/STM32L4xx_HAL_Driver/Src/stm32l4xx_hal_rcc_ex.c ****           {
 375:Drivers/STM32L4xx_HAL_Driver/Src/stm32l4xx_hal_rcc_ex.c ****             ret = HAL_TIMEOUT;
 374              		.loc 1 375 17
 375 022e 0323     		movs	r3, #3
 376 0230 FB74     		strb	r3, [r7, #19]
 376:Drivers/STM32L4xx_HAL_Driver/Src/stm32l4xx_hal_rcc_ex.c ****             break;
 377              		.loc 1 376 13
 378 0232 06E0     		b	.L27
 379              	.L28:
 371:Drivers/STM32L4xx_HAL_Driver/Src/stm32l4xx_hal_rcc_ex.c ****         {
 380              		.loc 1 371 15
 381 0234 0C4B     		ldr	r3, .L65
 382 0236 D3F89030 		ldr	r3, [r3, #144]
 383 023a 03F00203 		and	r3, r3, #2
 371:Drivers/STM32L4xx_HAL_Driver/Src/stm32l4xx_hal_rcc_ex.c ****         {
 384              		.loc 1 371 52
 385 023e 002B     		cmp	r3, #0
 386 0240 ECD0     		beq	.L29
 387              	.L27:
 377:Drivers/STM32L4xx_HAL_Driver/Src/stm32l4xx_hal_rcc_ex.c ****           }
 378:Drivers/STM32L4xx_HAL_Driver/Src/stm32l4xx_hal_rcc_ex.c ****         }
 379:Drivers/STM32L4xx_HAL_Driver/Src/stm32l4xx_hal_rcc_ex.c ****       }
 380:Drivers/STM32L4xx_HAL_Driver/Src/stm32l4xx_hal_rcc_ex.c **** 
 381:Drivers/STM32L4xx_HAL_Driver/Src/stm32l4xx_hal_rcc_ex.c ****       if(ret == HAL_OK)
 388              		.loc 1 381 9
 389 0242 FB7C     		ldrb	r3, [r7, #19]	@ zero_extendqisi2
 390 0244 002B     		cmp	r3, #0
 391 0246 0CD1     		bne	.L30
 382:Drivers/STM32L4xx_HAL_Driver/Src/stm32l4xx_hal_rcc_ex.c ****       {
 383:Drivers/STM32L4xx_HAL_Driver/Src/stm32l4xx_hal_rcc_ex.c ****         /* Apply new RTC clock source selection */
 384:Drivers/STM32L4xx_HAL_Driver/Src/stm32l4xx_hal_rcc_ex.c ****         __HAL_RCC_RTC_CONFIG(PeriphClkInit->RTCClockSelection);
 392              		.loc 1 384 9
 393 0248 074B     		ldr	r3, .L65
 394 024a D3F89030 		ldr	r3, [r3, #144]
 395 024e 23F44072 		bic	r2, r3, #768
 396 0252 7B68     		ldr	r3, [r7, #4]
 397 0254 D3F89430 		ldr	r3, [r3, #148]
 398 0258 0349     		ldr	r1, .L65
 399 025a 1343     		orrs	r3, r3, r2
 400 025c C1F89030 		str	r3, [r1, #144]
 401 0260 08E0     		b	.L31
 402              	.L30:
 385:Drivers/STM32L4xx_HAL_Driver/Src/stm32l4xx_hal_rcc_ex.c ****       }
 386:Drivers/STM32L4xx_HAL_Driver/Src/stm32l4xx_hal_rcc_ex.c ****       else
 387:Drivers/STM32L4xx_HAL_Driver/Src/stm32l4xx_hal_rcc_ex.c ****       {
 388:Drivers/STM32L4xx_HAL_Driver/Src/stm32l4xx_hal_rcc_ex.c ****         /* set overall return value */
 389:Drivers/STM32L4xx_HAL_Driver/Src/stm32l4xx_hal_rcc_ex.c ****         status = ret;
 403              		.loc 1 389 16
 404 0262 FB7C     		ldrb	r3, [r7, #19]
ARM GAS  C:\Users\Morroway\AppData\Local\Temp\ccOmimY8.s 			page 15


 405 0264 BB74     		strb	r3, [r7, #18]
 406 0266 05E0     		b	.L31
 407              	.L66:
 408              		.align	2
 409              	.L65:
 410 0268 00100240 		.word	1073876992
 411 026c 00700040 		.word	1073770496
 412              	.L25:
 390:Drivers/STM32L4xx_HAL_Driver/Src/stm32l4xx_hal_rcc_ex.c ****       }
 391:Drivers/STM32L4xx_HAL_Driver/Src/stm32l4xx_hal_rcc_ex.c ****     }
 392:Drivers/STM32L4xx_HAL_Driver/Src/stm32l4xx_hal_rcc_ex.c ****     else
 393:Drivers/STM32L4xx_HAL_Driver/Src/stm32l4xx_hal_rcc_ex.c ****     {
 394:Drivers/STM32L4xx_HAL_Driver/Src/stm32l4xx_hal_rcc_ex.c ****       /* set overall return value */
 395:Drivers/STM32L4xx_HAL_Driver/Src/stm32l4xx_hal_rcc_ex.c ****       status = ret;
 413              		.loc 1 395 14
 414 0270 FB7C     		ldrb	r3, [r7, #19]
 415 0272 BB74     		strb	r3, [r7, #18]
 416              	.L31:
 396:Drivers/STM32L4xx_HAL_Driver/Src/stm32l4xx_hal_rcc_ex.c ****     }
 397:Drivers/STM32L4xx_HAL_Driver/Src/stm32l4xx_hal_rcc_ex.c **** 
 398:Drivers/STM32L4xx_HAL_Driver/Src/stm32l4xx_hal_rcc_ex.c ****     /* Restore clock configuration if changed */
 399:Drivers/STM32L4xx_HAL_Driver/Src/stm32l4xx_hal_rcc_ex.c ****     if(pwrclkchanged == SET)
 417              		.loc 1 399 7
 418 0274 7B7C     		ldrb	r3, [r7, #17]	@ zero_extendqisi2
 419 0276 012B     		cmp	r3, #1
 420 0278 05D1     		bne	.L18
 400:Drivers/STM32L4xx_HAL_Driver/Src/stm32l4xx_hal_rcc_ex.c ****     {
 401:Drivers/STM32L4xx_HAL_Driver/Src/stm32l4xx_hal_rcc_ex.c ****       __HAL_RCC_PWR_CLK_DISABLE();
 421              		.loc 1 401 7
 422 027a A04B     		ldr	r3, .L67
 423 027c 9B6D     		ldr	r3, [r3, #88]
 424 027e 9F4A     		ldr	r2, .L67
 425 0280 23F08053 		bic	r3, r3, #268435456
 426 0284 9365     		str	r3, [r2, #88]
 427              	.L18:
 428              	.LBE2:
 402:Drivers/STM32L4xx_HAL_Driver/Src/stm32l4xx_hal_rcc_ex.c ****     }
 403:Drivers/STM32L4xx_HAL_Driver/Src/stm32l4xx_hal_rcc_ex.c ****   }
 404:Drivers/STM32L4xx_HAL_Driver/Src/stm32l4xx_hal_rcc_ex.c **** 
 405:Drivers/STM32L4xx_HAL_Driver/Src/stm32l4xx_hal_rcc_ex.c ****   /*-------------------------- USART1 clock source configuration -------------------*/
 406:Drivers/STM32L4xx_HAL_Driver/Src/stm32l4xx_hal_rcc_ex.c ****   if(((PeriphClkInit->PeriphClockSelection) & RCC_PERIPHCLK_USART1) == RCC_PERIPHCLK_USART1)
 429              		.loc 1 406 21
 430 0286 7B68     		ldr	r3, [r7, #4]
 431 0288 1B68     		ldr	r3, [r3]
 432              		.loc 1 406 45
 433 028a 03F00103 		and	r3, r3, #1
 434              		.loc 1 406 5
 435 028e 002B     		cmp	r3, #0
 436 0290 0AD0     		beq	.L32
 407:Drivers/STM32L4xx_HAL_Driver/Src/stm32l4xx_hal_rcc_ex.c ****   {
 408:Drivers/STM32L4xx_HAL_Driver/Src/stm32l4xx_hal_rcc_ex.c ****     /* Check the parameters */
 409:Drivers/STM32L4xx_HAL_Driver/Src/stm32l4xx_hal_rcc_ex.c ****     assert_param(IS_RCC_USART1CLKSOURCE(PeriphClkInit->Usart1ClockSelection));
 410:Drivers/STM32L4xx_HAL_Driver/Src/stm32l4xx_hal_rcc_ex.c **** 
 411:Drivers/STM32L4xx_HAL_Driver/Src/stm32l4xx_hal_rcc_ex.c ****     /* Configure the USART1 clock source */
 412:Drivers/STM32L4xx_HAL_Driver/Src/stm32l4xx_hal_rcc_ex.c ****     __HAL_RCC_USART1_CONFIG(PeriphClkInit->Usart1ClockSelection);
 437              		.loc 1 412 5
 438 0292 9A4B     		ldr	r3, .L67
ARM GAS  C:\Users\Morroway\AppData\Local\Temp\ccOmimY8.s 			page 16


 439 0294 D3F88830 		ldr	r3, [r3, #136]
 440 0298 23F00302 		bic	r2, r3, #3
 441 029c 7B68     		ldr	r3, [r7, #4]
 442 029e DB6B     		ldr	r3, [r3, #60]
 443 02a0 9649     		ldr	r1, .L67
 444 02a2 1343     		orrs	r3, r3, r2
 445 02a4 C1F88830 		str	r3, [r1, #136]
 446              	.L32:
 413:Drivers/STM32L4xx_HAL_Driver/Src/stm32l4xx_hal_rcc_ex.c ****   }
 414:Drivers/STM32L4xx_HAL_Driver/Src/stm32l4xx_hal_rcc_ex.c **** 
 415:Drivers/STM32L4xx_HAL_Driver/Src/stm32l4xx_hal_rcc_ex.c ****   /*-------------------------- USART2 clock source configuration -------------------*/
 416:Drivers/STM32L4xx_HAL_Driver/Src/stm32l4xx_hal_rcc_ex.c ****   if(((PeriphClkInit->PeriphClockSelection) & RCC_PERIPHCLK_USART2) == RCC_PERIPHCLK_USART2)
 447              		.loc 1 416 21
 448 02a8 7B68     		ldr	r3, [r7, #4]
 449 02aa 1B68     		ldr	r3, [r3]
 450              		.loc 1 416 45
 451 02ac 03F00203 		and	r3, r3, #2
 452              		.loc 1 416 5
 453 02b0 002B     		cmp	r3, #0
 454 02b2 0AD0     		beq	.L33
 417:Drivers/STM32L4xx_HAL_Driver/Src/stm32l4xx_hal_rcc_ex.c ****   {
 418:Drivers/STM32L4xx_HAL_Driver/Src/stm32l4xx_hal_rcc_ex.c ****     /* Check the parameters */
 419:Drivers/STM32L4xx_HAL_Driver/Src/stm32l4xx_hal_rcc_ex.c ****     assert_param(IS_RCC_USART2CLKSOURCE(PeriphClkInit->Usart2ClockSelection));
 420:Drivers/STM32L4xx_HAL_Driver/Src/stm32l4xx_hal_rcc_ex.c **** 
 421:Drivers/STM32L4xx_HAL_Driver/Src/stm32l4xx_hal_rcc_ex.c ****     /* Configure the USART2 clock source */
 422:Drivers/STM32L4xx_HAL_Driver/Src/stm32l4xx_hal_rcc_ex.c ****     __HAL_RCC_USART2_CONFIG(PeriphClkInit->Usart2ClockSelection);
 455              		.loc 1 422 5
 456 02b4 914B     		ldr	r3, .L67
 457 02b6 D3F88830 		ldr	r3, [r3, #136]
 458 02ba 23F00C02 		bic	r2, r3, #12
 459 02be 7B68     		ldr	r3, [r7, #4]
 460 02c0 1B6C     		ldr	r3, [r3, #64]
 461 02c2 8E49     		ldr	r1, .L67
 462 02c4 1343     		orrs	r3, r3, r2
 463 02c6 C1F88830 		str	r3, [r1, #136]
 464              	.L33:
 423:Drivers/STM32L4xx_HAL_Driver/Src/stm32l4xx_hal_rcc_ex.c ****   }
 424:Drivers/STM32L4xx_HAL_Driver/Src/stm32l4xx_hal_rcc_ex.c **** 
 425:Drivers/STM32L4xx_HAL_Driver/Src/stm32l4xx_hal_rcc_ex.c **** #if defined(USART3)
 426:Drivers/STM32L4xx_HAL_Driver/Src/stm32l4xx_hal_rcc_ex.c **** 
 427:Drivers/STM32L4xx_HAL_Driver/Src/stm32l4xx_hal_rcc_ex.c ****   /*-------------------------- USART3 clock source configuration -------------------*/
 428:Drivers/STM32L4xx_HAL_Driver/Src/stm32l4xx_hal_rcc_ex.c ****   if(((PeriphClkInit->PeriphClockSelection) & RCC_PERIPHCLK_USART3) == RCC_PERIPHCLK_USART3)
 465              		.loc 1 428 21
 466 02ca 7B68     		ldr	r3, [r7, #4]
 467 02cc 1B68     		ldr	r3, [r3]
 468              		.loc 1 428 45
 469 02ce 03F00403 		and	r3, r3, #4
 470              		.loc 1 428 5
 471 02d2 002B     		cmp	r3, #0
 472 02d4 0AD0     		beq	.L34
 429:Drivers/STM32L4xx_HAL_Driver/Src/stm32l4xx_hal_rcc_ex.c ****   {
 430:Drivers/STM32L4xx_HAL_Driver/Src/stm32l4xx_hal_rcc_ex.c ****     /* Check the parameters */
 431:Drivers/STM32L4xx_HAL_Driver/Src/stm32l4xx_hal_rcc_ex.c ****     assert_param(IS_RCC_USART3CLKSOURCE(PeriphClkInit->Usart3ClockSelection));
 432:Drivers/STM32L4xx_HAL_Driver/Src/stm32l4xx_hal_rcc_ex.c **** 
 433:Drivers/STM32L4xx_HAL_Driver/Src/stm32l4xx_hal_rcc_ex.c ****     /* Configure the USART3 clock source */
 434:Drivers/STM32L4xx_HAL_Driver/Src/stm32l4xx_hal_rcc_ex.c ****     __HAL_RCC_USART3_CONFIG(PeriphClkInit->Usart3ClockSelection);
 473              		.loc 1 434 5
ARM GAS  C:\Users\Morroway\AppData\Local\Temp\ccOmimY8.s 			page 17


 474 02d6 894B     		ldr	r3, .L67
 475 02d8 D3F88830 		ldr	r3, [r3, #136]
 476 02dc 23F03002 		bic	r2, r3, #48
 477 02e0 7B68     		ldr	r3, [r7, #4]
 478 02e2 5B6C     		ldr	r3, [r3, #68]
 479 02e4 8549     		ldr	r1, .L67
 480 02e6 1343     		orrs	r3, r3, r2
 481 02e8 C1F88830 		str	r3, [r1, #136]
 482              	.L34:
 435:Drivers/STM32L4xx_HAL_Driver/Src/stm32l4xx_hal_rcc_ex.c ****   }
 436:Drivers/STM32L4xx_HAL_Driver/Src/stm32l4xx_hal_rcc_ex.c **** 
 437:Drivers/STM32L4xx_HAL_Driver/Src/stm32l4xx_hal_rcc_ex.c **** #endif /* USART3 */
 438:Drivers/STM32L4xx_HAL_Driver/Src/stm32l4xx_hal_rcc_ex.c **** 
 439:Drivers/STM32L4xx_HAL_Driver/Src/stm32l4xx_hal_rcc_ex.c **** #if defined(UART4)
 440:Drivers/STM32L4xx_HAL_Driver/Src/stm32l4xx_hal_rcc_ex.c **** 
 441:Drivers/STM32L4xx_HAL_Driver/Src/stm32l4xx_hal_rcc_ex.c ****   /*-------------------------- UART4 clock source configuration --------------------*/
 442:Drivers/STM32L4xx_HAL_Driver/Src/stm32l4xx_hal_rcc_ex.c ****   if(((PeriphClkInit->PeriphClockSelection) & RCC_PERIPHCLK_UART4) == RCC_PERIPHCLK_UART4)
 483              		.loc 1 442 21
 484 02ec 7B68     		ldr	r3, [r7, #4]
 485 02ee 1B68     		ldr	r3, [r3]
 486              		.loc 1 442 45
 487 02f0 03F00803 		and	r3, r3, #8
 488              		.loc 1 442 5
 489 02f4 002B     		cmp	r3, #0
 490 02f6 0AD0     		beq	.L35
 443:Drivers/STM32L4xx_HAL_Driver/Src/stm32l4xx_hal_rcc_ex.c ****   {
 444:Drivers/STM32L4xx_HAL_Driver/Src/stm32l4xx_hal_rcc_ex.c ****     /* Check the parameters */
 445:Drivers/STM32L4xx_HAL_Driver/Src/stm32l4xx_hal_rcc_ex.c ****     assert_param(IS_RCC_UART4CLKSOURCE(PeriphClkInit->Uart4ClockSelection));
 446:Drivers/STM32L4xx_HAL_Driver/Src/stm32l4xx_hal_rcc_ex.c **** 
 447:Drivers/STM32L4xx_HAL_Driver/Src/stm32l4xx_hal_rcc_ex.c ****     /* Configure the UART4 clock source */
 448:Drivers/STM32L4xx_HAL_Driver/Src/stm32l4xx_hal_rcc_ex.c ****     __HAL_RCC_UART4_CONFIG(PeriphClkInit->Uart4ClockSelection);
 491              		.loc 1 448 5
 492 02f8 804B     		ldr	r3, .L67
 493 02fa D3F88830 		ldr	r3, [r3, #136]
 494 02fe 23F0C002 		bic	r2, r3, #192
 495 0302 7B68     		ldr	r3, [r7, #4]
 496 0304 9B6C     		ldr	r3, [r3, #72]
 497 0306 7D49     		ldr	r1, .L67
 498 0308 1343     		orrs	r3, r3, r2
 499 030a C1F88830 		str	r3, [r1, #136]
 500              	.L35:
 449:Drivers/STM32L4xx_HAL_Driver/Src/stm32l4xx_hal_rcc_ex.c ****   }
 450:Drivers/STM32L4xx_HAL_Driver/Src/stm32l4xx_hal_rcc_ex.c **** 
 451:Drivers/STM32L4xx_HAL_Driver/Src/stm32l4xx_hal_rcc_ex.c **** #endif /* UART4 */
 452:Drivers/STM32L4xx_HAL_Driver/Src/stm32l4xx_hal_rcc_ex.c **** 
 453:Drivers/STM32L4xx_HAL_Driver/Src/stm32l4xx_hal_rcc_ex.c **** #if defined(UART5)
 454:Drivers/STM32L4xx_HAL_Driver/Src/stm32l4xx_hal_rcc_ex.c **** 
 455:Drivers/STM32L4xx_HAL_Driver/Src/stm32l4xx_hal_rcc_ex.c ****   /*-------------------------- UART5 clock source configuration --------------------*/
 456:Drivers/STM32L4xx_HAL_Driver/Src/stm32l4xx_hal_rcc_ex.c ****   if(((PeriphClkInit->PeriphClockSelection) & RCC_PERIPHCLK_UART5) == RCC_PERIPHCLK_UART5)
 501              		.loc 1 456 21
 502 030e 7B68     		ldr	r3, [r7, #4]
 503 0310 1B68     		ldr	r3, [r3]
 504              		.loc 1 456 45
 505 0312 03F01003 		and	r3, r3, #16
 506              		.loc 1 456 5
 507 0316 002B     		cmp	r3, #0
 508 0318 0AD0     		beq	.L36
ARM GAS  C:\Users\Morroway\AppData\Local\Temp\ccOmimY8.s 			page 18


 457:Drivers/STM32L4xx_HAL_Driver/Src/stm32l4xx_hal_rcc_ex.c ****   {
 458:Drivers/STM32L4xx_HAL_Driver/Src/stm32l4xx_hal_rcc_ex.c ****     /* Check the parameters */
 459:Drivers/STM32L4xx_HAL_Driver/Src/stm32l4xx_hal_rcc_ex.c ****     assert_param(IS_RCC_UART5CLKSOURCE(PeriphClkInit->Uart5ClockSelection));
 460:Drivers/STM32L4xx_HAL_Driver/Src/stm32l4xx_hal_rcc_ex.c **** 
 461:Drivers/STM32L4xx_HAL_Driver/Src/stm32l4xx_hal_rcc_ex.c ****     /* Configure the UART5 clock source */
 462:Drivers/STM32L4xx_HAL_Driver/Src/stm32l4xx_hal_rcc_ex.c ****     __HAL_RCC_UART5_CONFIG(PeriphClkInit->Uart5ClockSelection);
 509              		.loc 1 462 5
 510 031a 784B     		ldr	r3, .L67
 511 031c D3F88830 		ldr	r3, [r3, #136]
 512 0320 23F44072 		bic	r2, r3, #768
 513 0324 7B68     		ldr	r3, [r7, #4]
 514 0326 DB6C     		ldr	r3, [r3, #76]
 515 0328 7449     		ldr	r1, .L67
 516 032a 1343     		orrs	r3, r3, r2
 517 032c C1F88830 		str	r3, [r1, #136]
 518              	.L36:
 463:Drivers/STM32L4xx_HAL_Driver/Src/stm32l4xx_hal_rcc_ex.c ****   }
 464:Drivers/STM32L4xx_HAL_Driver/Src/stm32l4xx_hal_rcc_ex.c **** 
 465:Drivers/STM32L4xx_HAL_Driver/Src/stm32l4xx_hal_rcc_ex.c **** #endif /* UART5 */
 466:Drivers/STM32L4xx_HAL_Driver/Src/stm32l4xx_hal_rcc_ex.c **** 
 467:Drivers/STM32L4xx_HAL_Driver/Src/stm32l4xx_hal_rcc_ex.c ****   /*-------------------------- LPUART1 clock source configuration ------------------*/
 468:Drivers/STM32L4xx_HAL_Driver/Src/stm32l4xx_hal_rcc_ex.c ****   if(((PeriphClkInit->PeriphClockSelection) & RCC_PERIPHCLK_LPUART1) == RCC_PERIPHCLK_LPUART1)
 519              		.loc 1 468 21
 520 0330 7B68     		ldr	r3, [r7, #4]
 521 0332 1B68     		ldr	r3, [r3]
 522              		.loc 1 468 45
 523 0334 03F02003 		and	r3, r3, #32
 524              		.loc 1 468 5
 525 0338 002B     		cmp	r3, #0
 526 033a 0AD0     		beq	.L37
 469:Drivers/STM32L4xx_HAL_Driver/Src/stm32l4xx_hal_rcc_ex.c ****   {
 470:Drivers/STM32L4xx_HAL_Driver/Src/stm32l4xx_hal_rcc_ex.c ****     /* Check the parameters */
 471:Drivers/STM32L4xx_HAL_Driver/Src/stm32l4xx_hal_rcc_ex.c ****     assert_param(IS_RCC_LPUART1CLKSOURCE(PeriphClkInit->Lpuart1ClockSelection));
 472:Drivers/STM32L4xx_HAL_Driver/Src/stm32l4xx_hal_rcc_ex.c **** 
 473:Drivers/STM32L4xx_HAL_Driver/Src/stm32l4xx_hal_rcc_ex.c ****     /* Configure the LPUART1 clock source */
 474:Drivers/STM32L4xx_HAL_Driver/Src/stm32l4xx_hal_rcc_ex.c ****     __HAL_RCC_LPUART1_CONFIG(PeriphClkInit->Lpuart1ClockSelection);
 527              		.loc 1 474 5
 528 033c 6F4B     		ldr	r3, .L67
 529 033e D3F88830 		ldr	r3, [r3, #136]
 530 0342 23F44062 		bic	r2, r3, #3072
 531 0346 7B68     		ldr	r3, [r7, #4]
 532 0348 1B6D     		ldr	r3, [r3, #80]
 533 034a 6C49     		ldr	r1, .L67
 534 034c 1343     		orrs	r3, r3, r2
 535 034e C1F88830 		str	r3, [r1, #136]
 536              	.L37:
 475:Drivers/STM32L4xx_HAL_Driver/Src/stm32l4xx_hal_rcc_ex.c ****   }
 476:Drivers/STM32L4xx_HAL_Driver/Src/stm32l4xx_hal_rcc_ex.c **** 
 477:Drivers/STM32L4xx_HAL_Driver/Src/stm32l4xx_hal_rcc_ex.c ****   /*-------------------------- LPTIM1 clock source configuration -------------------*/
 478:Drivers/STM32L4xx_HAL_Driver/Src/stm32l4xx_hal_rcc_ex.c ****   if(((PeriphClkInit->PeriphClockSelection) & RCC_PERIPHCLK_LPTIM1) == (RCC_PERIPHCLK_LPTIM1))
 537              		.loc 1 478 21
 538 0352 7B68     		ldr	r3, [r7, #4]
 539 0354 1B68     		ldr	r3, [r3]
 540              		.loc 1 478 45
 541 0356 03F40073 		and	r3, r3, #512
 542              		.loc 1 478 5
 543 035a 002B     		cmp	r3, #0
ARM GAS  C:\Users\Morroway\AppData\Local\Temp\ccOmimY8.s 			page 19


 544 035c 0AD0     		beq	.L38
 479:Drivers/STM32L4xx_HAL_Driver/Src/stm32l4xx_hal_rcc_ex.c ****   {
 480:Drivers/STM32L4xx_HAL_Driver/Src/stm32l4xx_hal_rcc_ex.c ****     assert_param(IS_RCC_LPTIM1CLK(PeriphClkInit->Lptim1ClockSelection));
 481:Drivers/STM32L4xx_HAL_Driver/Src/stm32l4xx_hal_rcc_ex.c ****     __HAL_RCC_LPTIM1_CONFIG(PeriphClkInit->Lptim1ClockSelection);
 545              		.loc 1 481 5
 546 035e 674B     		ldr	r3, .L67
 547 0360 D3F88830 		ldr	r3, [r3, #136]
 548 0364 23F44022 		bic	r2, r3, #786432
 549 0368 7B68     		ldr	r3, [r7, #4]
 550 036a 5B6E     		ldr	r3, [r3, #100]
 551 036c 6349     		ldr	r1, .L67
 552 036e 1343     		orrs	r3, r3, r2
 553 0370 C1F88830 		str	r3, [r1, #136]
 554              	.L38:
 482:Drivers/STM32L4xx_HAL_Driver/Src/stm32l4xx_hal_rcc_ex.c ****   }
 483:Drivers/STM32L4xx_HAL_Driver/Src/stm32l4xx_hal_rcc_ex.c **** 
 484:Drivers/STM32L4xx_HAL_Driver/Src/stm32l4xx_hal_rcc_ex.c ****   /*-------------------------- LPTIM2 clock source configuration -------------------*/
 485:Drivers/STM32L4xx_HAL_Driver/Src/stm32l4xx_hal_rcc_ex.c ****   if(((PeriphClkInit->PeriphClockSelection) & RCC_PERIPHCLK_LPTIM2) == (RCC_PERIPHCLK_LPTIM2))
 555              		.loc 1 485 21
 556 0374 7B68     		ldr	r3, [r7, #4]
 557 0376 1B68     		ldr	r3, [r3]
 558              		.loc 1 485 45
 559 0378 03F48063 		and	r3, r3, #1024
 560              		.loc 1 485 5
 561 037c 002B     		cmp	r3, #0
 562 037e 0AD0     		beq	.L39
 486:Drivers/STM32L4xx_HAL_Driver/Src/stm32l4xx_hal_rcc_ex.c ****   {
 487:Drivers/STM32L4xx_HAL_Driver/Src/stm32l4xx_hal_rcc_ex.c ****     assert_param(IS_RCC_LPTIM2CLK(PeriphClkInit->Lptim2ClockSelection));
 488:Drivers/STM32L4xx_HAL_Driver/Src/stm32l4xx_hal_rcc_ex.c ****     __HAL_RCC_LPTIM2_CONFIG(PeriphClkInit->Lptim2ClockSelection);
 563              		.loc 1 488 5
 564 0380 5E4B     		ldr	r3, .L67
 565 0382 D3F88830 		ldr	r3, [r3, #136]
 566 0386 23F44012 		bic	r2, r3, #3145728
 567 038a 7B68     		ldr	r3, [r7, #4]
 568 038c 9B6E     		ldr	r3, [r3, #104]
 569 038e 5B49     		ldr	r1, .L67
 570 0390 1343     		orrs	r3, r3, r2
 571 0392 C1F88830 		str	r3, [r1, #136]
 572              	.L39:
 489:Drivers/STM32L4xx_HAL_Driver/Src/stm32l4xx_hal_rcc_ex.c ****   }
 490:Drivers/STM32L4xx_HAL_Driver/Src/stm32l4xx_hal_rcc_ex.c **** 
 491:Drivers/STM32L4xx_HAL_Driver/Src/stm32l4xx_hal_rcc_ex.c ****   /*-------------------------- I2C1 clock source configuration ---------------------*/
 492:Drivers/STM32L4xx_HAL_Driver/Src/stm32l4xx_hal_rcc_ex.c ****   if(((PeriphClkInit->PeriphClockSelection) & RCC_PERIPHCLK_I2C1) == RCC_PERIPHCLK_I2C1)
 573              		.loc 1 492 21
 574 0396 7B68     		ldr	r3, [r7, #4]
 575 0398 1B68     		ldr	r3, [r3]
 576              		.loc 1 492 45
 577 039a 03F04003 		and	r3, r3, #64
 578              		.loc 1 492 5
 579 039e 002B     		cmp	r3, #0
 580 03a0 0AD0     		beq	.L40
 493:Drivers/STM32L4xx_HAL_Driver/Src/stm32l4xx_hal_rcc_ex.c ****   {
 494:Drivers/STM32L4xx_HAL_Driver/Src/stm32l4xx_hal_rcc_ex.c ****     /* Check the parameters */
 495:Drivers/STM32L4xx_HAL_Driver/Src/stm32l4xx_hal_rcc_ex.c ****     assert_param(IS_RCC_I2C1CLKSOURCE(PeriphClkInit->I2c1ClockSelection));
 496:Drivers/STM32L4xx_HAL_Driver/Src/stm32l4xx_hal_rcc_ex.c **** 
 497:Drivers/STM32L4xx_HAL_Driver/Src/stm32l4xx_hal_rcc_ex.c ****     /* Configure the I2C1 clock source */
 498:Drivers/STM32L4xx_HAL_Driver/Src/stm32l4xx_hal_rcc_ex.c ****     __HAL_RCC_I2C1_CONFIG(PeriphClkInit->I2c1ClockSelection);
ARM GAS  C:\Users\Morroway\AppData\Local\Temp\ccOmimY8.s 			page 20


 581              		.loc 1 498 5
 582 03a2 564B     		ldr	r3, .L67
 583 03a4 D3F88830 		ldr	r3, [r3, #136]
 584 03a8 23F44052 		bic	r2, r3, #12288
 585 03ac 7B68     		ldr	r3, [r7, #4]
 586 03ae 5B6D     		ldr	r3, [r3, #84]
 587 03b0 5249     		ldr	r1, .L67
 588 03b2 1343     		orrs	r3, r3, r2
 589 03b4 C1F88830 		str	r3, [r1, #136]
 590              	.L40:
 499:Drivers/STM32L4xx_HAL_Driver/Src/stm32l4xx_hal_rcc_ex.c ****   }
 500:Drivers/STM32L4xx_HAL_Driver/Src/stm32l4xx_hal_rcc_ex.c **** 
 501:Drivers/STM32L4xx_HAL_Driver/Src/stm32l4xx_hal_rcc_ex.c **** #if defined(I2C2)
 502:Drivers/STM32L4xx_HAL_Driver/Src/stm32l4xx_hal_rcc_ex.c **** 
 503:Drivers/STM32L4xx_HAL_Driver/Src/stm32l4xx_hal_rcc_ex.c ****   /*-------------------------- I2C2 clock source configuration ---------------------*/
 504:Drivers/STM32L4xx_HAL_Driver/Src/stm32l4xx_hal_rcc_ex.c ****   if(((PeriphClkInit->PeriphClockSelection) & RCC_PERIPHCLK_I2C2) == RCC_PERIPHCLK_I2C2)
 591              		.loc 1 504 21
 592 03b8 7B68     		ldr	r3, [r7, #4]
 593 03ba 1B68     		ldr	r3, [r3]
 594              		.loc 1 504 45
 595 03bc 03F08003 		and	r3, r3, #128
 596              		.loc 1 504 5
 597 03c0 002B     		cmp	r3, #0
 598 03c2 0AD0     		beq	.L41
 505:Drivers/STM32L4xx_HAL_Driver/Src/stm32l4xx_hal_rcc_ex.c ****   {
 506:Drivers/STM32L4xx_HAL_Driver/Src/stm32l4xx_hal_rcc_ex.c ****     /* Check the parameters */
 507:Drivers/STM32L4xx_HAL_Driver/Src/stm32l4xx_hal_rcc_ex.c ****     assert_param(IS_RCC_I2C2CLKSOURCE(PeriphClkInit->I2c2ClockSelection));
 508:Drivers/STM32L4xx_HAL_Driver/Src/stm32l4xx_hal_rcc_ex.c **** 
 509:Drivers/STM32L4xx_HAL_Driver/Src/stm32l4xx_hal_rcc_ex.c ****     /* Configure the I2C2 clock source */
 510:Drivers/STM32L4xx_HAL_Driver/Src/stm32l4xx_hal_rcc_ex.c ****     __HAL_RCC_I2C2_CONFIG(PeriphClkInit->I2c2ClockSelection);
 599              		.loc 1 510 5
 600 03c4 4D4B     		ldr	r3, .L67
 601 03c6 D3F88830 		ldr	r3, [r3, #136]
 602 03ca 23F44042 		bic	r2, r3, #49152
 603 03ce 7B68     		ldr	r3, [r7, #4]
 604 03d0 9B6D     		ldr	r3, [r3, #88]
 605 03d2 4A49     		ldr	r1, .L67
 606 03d4 1343     		orrs	r3, r3, r2
 607 03d6 C1F88830 		str	r3, [r1, #136]
 608              	.L41:
 511:Drivers/STM32L4xx_HAL_Driver/Src/stm32l4xx_hal_rcc_ex.c ****   }
 512:Drivers/STM32L4xx_HAL_Driver/Src/stm32l4xx_hal_rcc_ex.c **** 
 513:Drivers/STM32L4xx_HAL_Driver/Src/stm32l4xx_hal_rcc_ex.c **** #endif /* I2C2 */
 514:Drivers/STM32L4xx_HAL_Driver/Src/stm32l4xx_hal_rcc_ex.c **** 
 515:Drivers/STM32L4xx_HAL_Driver/Src/stm32l4xx_hal_rcc_ex.c ****   /*-------------------------- I2C3 clock source configuration ---------------------*/
 516:Drivers/STM32L4xx_HAL_Driver/Src/stm32l4xx_hal_rcc_ex.c ****   if(((PeriphClkInit->PeriphClockSelection) & RCC_PERIPHCLK_I2C3) == RCC_PERIPHCLK_I2C3)
 609              		.loc 1 516 21
 610 03da 7B68     		ldr	r3, [r7, #4]
 611 03dc 1B68     		ldr	r3, [r3]
 612              		.loc 1 516 45
 613 03de 03F48073 		and	r3, r3, #256
 614              		.loc 1 516 5
 615 03e2 002B     		cmp	r3, #0
 616 03e4 0AD0     		beq	.L42
 517:Drivers/STM32L4xx_HAL_Driver/Src/stm32l4xx_hal_rcc_ex.c ****   {
 518:Drivers/STM32L4xx_HAL_Driver/Src/stm32l4xx_hal_rcc_ex.c ****     /* Check the parameters */
 519:Drivers/STM32L4xx_HAL_Driver/Src/stm32l4xx_hal_rcc_ex.c ****     assert_param(IS_RCC_I2C3CLKSOURCE(PeriphClkInit->I2c3ClockSelection));
ARM GAS  C:\Users\Morroway\AppData\Local\Temp\ccOmimY8.s 			page 21


 520:Drivers/STM32L4xx_HAL_Driver/Src/stm32l4xx_hal_rcc_ex.c **** 
 521:Drivers/STM32L4xx_HAL_Driver/Src/stm32l4xx_hal_rcc_ex.c ****     /* Configure the I2C3 clock source */
 522:Drivers/STM32L4xx_HAL_Driver/Src/stm32l4xx_hal_rcc_ex.c ****     __HAL_RCC_I2C3_CONFIG(PeriphClkInit->I2c3ClockSelection);
 617              		.loc 1 522 5
 618 03e6 454B     		ldr	r3, .L67
 619 03e8 D3F88830 		ldr	r3, [r3, #136]
 620 03ec 23F44032 		bic	r2, r3, #196608
 621 03f0 7B68     		ldr	r3, [r7, #4]
 622 03f2 DB6D     		ldr	r3, [r3, #92]
 623 03f4 4149     		ldr	r1, .L67
 624 03f6 1343     		orrs	r3, r3, r2
 625 03f8 C1F88830 		str	r3, [r1, #136]
 626              	.L42:
 523:Drivers/STM32L4xx_HAL_Driver/Src/stm32l4xx_hal_rcc_ex.c ****   }
 524:Drivers/STM32L4xx_HAL_Driver/Src/stm32l4xx_hal_rcc_ex.c **** 
 525:Drivers/STM32L4xx_HAL_Driver/Src/stm32l4xx_hal_rcc_ex.c **** #if defined(I2C4)
 526:Drivers/STM32L4xx_HAL_Driver/Src/stm32l4xx_hal_rcc_ex.c **** 
 527:Drivers/STM32L4xx_HAL_Driver/Src/stm32l4xx_hal_rcc_ex.c ****   /*-------------------------- I2C4 clock source configuration ---------------------*/
 528:Drivers/STM32L4xx_HAL_Driver/Src/stm32l4xx_hal_rcc_ex.c ****   if(((PeriphClkInit->PeriphClockSelection) & RCC_PERIPHCLK_I2C4) == RCC_PERIPHCLK_I2C4)
 627              		.loc 1 528 21
 628 03fc 7B68     		ldr	r3, [r7, #4]
 629 03fe 1B68     		ldr	r3, [r3]
 630              		.loc 1 528 45
 631 0400 03F48013 		and	r3, r3, #1048576
 632              		.loc 1 528 5
 633 0404 002B     		cmp	r3, #0
 634 0406 0AD0     		beq	.L43
 529:Drivers/STM32L4xx_HAL_Driver/Src/stm32l4xx_hal_rcc_ex.c ****   {
 530:Drivers/STM32L4xx_HAL_Driver/Src/stm32l4xx_hal_rcc_ex.c ****     /* Check the parameters */
 531:Drivers/STM32L4xx_HAL_Driver/Src/stm32l4xx_hal_rcc_ex.c ****     assert_param(IS_RCC_I2C4CLKSOURCE(PeriphClkInit->I2c4ClockSelection));
 532:Drivers/STM32L4xx_HAL_Driver/Src/stm32l4xx_hal_rcc_ex.c **** 
 533:Drivers/STM32L4xx_HAL_Driver/Src/stm32l4xx_hal_rcc_ex.c ****     /* Configure the I2C4 clock source */
 534:Drivers/STM32L4xx_HAL_Driver/Src/stm32l4xx_hal_rcc_ex.c ****     __HAL_RCC_I2C4_CONFIG(PeriphClkInit->I2c4ClockSelection);
 635              		.loc 1 534 5
 636 0408 3C4B     		ldr	r3, .L67
 637 040a D3F89C30 		ldr	r3, [r3, #156]
 638 040e 23F00302 		bic	r2, r3, #3
 639 0412 7B68     		ldr	r3, [r7, #4]
 640 0414 1B6E     		ldr	r3, [r3, #96]
 641 0416 3949     		ldr	r1, .L67
 642 0418 1343     		orrs	r3, r3, r2
 643 041a C1F89C30 		str	r3, [r1, #156]
 644              	.L43:
 535:Drivers/STM32L4xx_HAL_Driver/Src/stm32l4xx_hal_rcc_ex.c ****   }
 536:Drivers/STM32L4xx_HAL_Driver/Src/stm32l4xx_hal_rcc_ex.c **** 
 537:Drivers/STM32L4xx_HAL_Driver/Src/stm32l4xx_hal_rcc_ex.c **** #endif /* I2C4 */
 538:Drivers/STM32L4xx_HAL_Driver/Src/stm32l4xx_hal_rcc_ex.c **** 
 539:Drivers/STM32L4xx_HAL_Driver/Src/stm32l4xx_hal_rcc_ex.c **** #if defined(USB_OTG_FS) || defined(USB)
 540:Drivers/STM32L4xx_HAL_Driver/Src/stm32l4xx_hal_rcc_ex.c **** 
 541:Drivers/STM32L4xx_HAL_Driver/Src/stm32l4xx_hal_rcc_ex.c ****   /*-------------------------- USB clock source configuration ----------------------*/
 542:Drivers/STM32L4xx_HAL_Driver/Src/stm32l4xx_hal_rcc_ex.c ****   if(((PeriphClkInit->PeriphClockSelection) & RCC_PERIPHCLK_USB) == (RCC_PERIPHCLK_USB))
 645              		.loc 1 542 21
 646 041e 7B68     		ldr	r3, [r7, #4]
 647 0420 1B68     		ldr	r3, [r3]
 648              		.loc 1 542 45
 649 0422 03F40053 		and	r3, r3, #8192
 650              		.loc 1 542 5
ARM GAS  C:\Users\Morroway\AppData\Local\Temp\ccOmimY8.s 			page 22


 651 0426 002B     		cmp	r3, #0
 652 0428 28D0     		beq	.L44
 543:Drivers/STM32L4xx_HAL_Driver/Src/stm32l4xx_hal_rcc_ex.c ****   {
 544:Drivers/STM32L4xx_HAL_Driver/Src/stm32l4xx_hal_rcc_ex.c ****     assert_param(IS_RCC_USBCLKSOURCE(PeriphClkInit->UsbClockSelection));
 545:Drivers/STM32L4xx_HAL_Driver/Src/stm32l4xx_hal_rcc_ex.c ****     __HAL_RCC_USB_CONFIG(PeriphClkInit->UsbClockSelection);
 653              		.loc 1 545 5
 654 042a 344B     		ldr	r3, .L67
 655 042c D3F88830 		ldr	r3, [r3, #136]
 656 0430 23F04062 		bic	r2, r3, #201326592
 657 0434 7B68     		ldr	r3, [r7, #4]
 658 0436 5B6F     		ldr	r3, [r3, #116]
 659 0438 3049     		ldr	r1, .L67
 660 043a 1343     		orrs	r3, r3, r2
 661 043c C1F88830 		str	r3, [r1, #136]
 546:Drivers/STM32L4xx_HAL_Driver/Src/stm32l4xx_hal_rcc_ex.c **** 
 547:Drivers/STM32L4xx_HAL_Driver/Src/stm32l4xx_hal_rcc_ex.c ****     if(PeriphClkInit->UsbClockSelection == RCC_USBCLKSOURCE_PLL)
 662              		.loc 1 547 21
 663 0440 7B68     		ldr	r3, [r7, #4]
 664 0442 5B6F     		ldr	r3, [r3, #116]
 665              		.loc 1 547 7
 666 0444 B3F1006F 		cmp	r3, #134217728
 667 0448 06D1     		bne	.L45
 548:Drivers/STM32L4xx_HAL_Driver/Src/stm32l4xx_hal_rcc_ex.c ****     {
 549:Drivers/STM32L4xx_HAL_Driver/Src/stm32l4xx_hal_rcc_ex.c ****       /* Enable PLL48M1CLK output clock */
 550:Drivers/STM32L4xx_HAL_Driver/Src/stm32l4xx_hal_rcc_ex.c ****       __HAL_RCC_PLLCLKOUT_ENABLE(RCC_PLL_48M1CLK);
 668              		.loc 1 550 7
 669 044a 2C4B     		ldr	r3, .L67
 670 044c DB68     		ldr	r3, [r3, #12]
 671 044e 2B4A     		ldr	r2, .L67
 672 0450 43F48013 		orr	r3, r3, #1048576
 673 0454 D360     		str	r3, [r2, #12]
 674 0456 11E0     		b	.L44
 675              	.L45:
 551:Drivers/STM32L4xx_HAL_Driver/Src/stm32l4xx_hal_rcc_ex.c ****     }
 552:Drivers/STM32L4xx_HAL_Driver/Src/stm32l4xx_hal_rcc_ex.c ****     else
 553:Drivers/STM32L4xx_HAL_Driver/Src/stm32l4xx_hal_rcc_ex.c ****     {
 554:Drivers/STM32L4xx_HAL_Driver/Src/stm32l4xx_hal_rcc_ex.c **** #if defined(RCC_PLLSAI1_SUPPORT)
 555:Drivers/STM32L4xx_HAL_Driver/Src/stm32l4xx_hal_rcc_ex.c ****       if(PeriphClkInit->UsbClockSelection == RCC_USBCLKSOURCE_PLLSAI1)
 676              		.loc 1 555 23
 677 0458 7B68     		ldr	r3, [r7, #4]
 678 045a 5B6F     		ldr	r3, [r3, #116]
 679              		.loc 1 555 9
 680 045c B3F1806F 		cmp	r3, #67108864
 681 0460 0CD1     		bne	.L44
 556:Drivers/STM32L4xx_HAL_Driver/Src/stm32l4xx_hal_rcc_ex.c ****       {
 557:Drivers/STM32L4xx_HAL_Driver/Src/stm32l4xx_hal_rcc_ex.c ****         /* PLLSAI1 input clock, parameters M, N & Q configuration and clock output (PLLSAI1ClockOut
 558:Drivers/STM32L4xx_HAL_Driver/Src/stm32l4xx_hal_rcc_ex.c ****         ret = RCCEx_PLLSAI1_Config(&(PeriphClkInit->PLLSAI1), DIVIDER_Q_UPDATE);
 682              		.loc 1 558 15
 683 0462 7B68     		ldr	r3, [r7, #4]
 684 0464 0433     		adds	r3, r3, #4
 685 0466 0121     		movs	r1, #1
 686 0468 1846     		mov	r0, r3
 687 046a FFF7FEFF 		bl	RCCEx_PLLSAI1_Config
 688 046e 0346     		mov	r3, r0
 689 0470 FB74     		strb	r3, [r7, #19]
 559:Drivers/STM32L4xx_HAL_Driver/Src/stm32l4xx_hal_rcc_ex.c **** 
 560:Drivers/STM32L4xx_HAL_Driver/Src/stm32l4xx_hal_rcc_ex.c ****         if(ret != HAL_OK)
ARM GAS  C:\Users\Morroway\AppData\Local\Temp\ccOmimY8.s 			page 23


 690              		.loc 1 560 11
 691 0472 FB7C     		ldrb	r3, [r7, #19]	@ zero_extendqisi2
 692 0474 002B     		cmp	r3, #0
 693 0476 01D0     		beq	.L44
 561:Drivers/STM32L4xx_HAL_Driver/Src/stm32l4xx_hal_rcc_ex.c ****         {
 562:Drivers/STM32L4xx_HAL_Driver/Src/stm32l4xx_hal_rcc_ex.c ****           /* set overall return value */
 563:Drivers/STM32L4xx_HAL_Driver/Src/stm32l4xx_hal_rcc_ex.c ****           status = ret;
 694              		.loc 1 563 18
 695 0478 FB7C     		ldrb	r3, [r7, #19]
 696 047a BB74     		strb	r3, [r7, #18]
 697              	.L44:
 564:Drivers/STM32L4xx_HAL_Driver/Src/stm32l4xx_hal_rcc_ex.c ****         }
 565:Drivers/STM32L4xx_HAL_Driver/Src/stm32l4xx_hal_rcc_ex.c ****       }
 566:Drivers/STM32L4xx_HAL_Driver/Src/stm32l4xx_hal_rcc_ex.c **** #endif /* RCC_PLLSAI1_SUPPORT */
 567:Drivers/STM32L4xx_HAL_Driver/Src/stm32l4xx_hal_rcc_ex.c ****     }
 568:Drivers/STM32L4xx_HAL_Driver/Src/stm32l4xx_hal_rcc_ex.c ****   }
 569:Drivers/STM32L4xx_HAL_Driver/Src/stm32l4xx_hal_rcc_ex.c **** 
 570:Drivers/STM32L4xx_HAL_Driver/Src/stm32l4xx_hal_rcc_ex.c **** #endif /* USB_OTG_FS || USB */
 571:Drivers/STM32L4xx_HAL_Driver/Src/stm32l4xx_hal_rcc_ex.c **** 
 572:Drivers/STM32L4xx_HAL_Driver/Src/stm32l4xx_hal_rcc_ex.c **** #if defined(SDMMC1)
 573:Drivers/STM32L4xx_HAL_Driver/Src/stm32l4xx_hal_rcc_ex.c **** 
 574:Drivers/STM32L4xx_HAL_Driver/Src/stm32l4xx_hal_rcc_ex.c ****   /*-------------------------- SDMMC1 clock source configuration -------------------*/
 575:Drivers/STM32L4xx_HAL_Driver/Src/stm32l4xx_hal_rcc_ex.c ****   if(((PeriphClkInit->PeriphClockSelection) & RCC_PERIPHCLK_SDMMC1) == (RCC_PERIPHCLK_SDMMC1))
 698              		.loc 1 575 21
 699 047c 7B68     		ldr	r3, [r7, #4]
 700 047e 1B68     		ldr	r3, [r3]
 701              		.loc 1 575 45
 702 0480 03F40023 		and	r3, r3, #524288
 703              		.loc 1 575 5
 704 0484 002B     		cmp	r3, #0
 705 0486 4DD0     		beq	.L46
 576:Drivers/STM32L4xx_HAL_Driver/Src/stm32l4xx_hal_rcc_ex.c ****   {
 577:Drivers/STM32L4xx_HAL_Driver/Src/stm32l4xx_hal_rcc_ex.c ****     assert_param(IS_RCC_SDMMC1CLKSOURCE(PeriphClkInit->Sdmmc1ClockSelection));
 578:Drivers/STM32L4xx_HAL_Driver/Src/stm32l4xx_hal_rcc_ex.c ****     __HAL_RCC_SDMMC1_CONFIG(PeriphClkInit->Sdmmc1ClockSelection);
 706              		.loc 1 578 5
 707 0488 7B68     		ldr	r3, [r7, #4]
 708 048a 9B6F     		ldr	r3, [r3, #120]
 709 048c B3F5804F 		cmp	r3, #16384
 710 0490 08D1     		bne	.L47
 711              		.loc 1 578 5 is_stmt 0 discriminator 1
 712 0492 1A4B     		ldr	r3, .L67
 713 0494 D3F89C30 		ldr	r3, [r3, #156]
 714 0498 184A     		ldr	r2, .L67
 715 049a 43F48043 		orr	r3, r3, #16384
 716 049e C2F89C30 		str	r3, [r2, #156]
 717 04a2 12E0     		b	.L48
 718              	.L47:
 719              		.loc 1 578 5 discriminator 2
 720 04a4 154B     		ldr	r3, .L67
 721 04a6 D3F89C30 		ldr	r3, [r3, #156]
 722 04aa 144A     		ldr	r2, .L67
 723 04ac 23F48043 		bic	r3, r3, #16384
 724 04b0 C2F89C30 		str	r3, [r2, #156]
 725 04b4 114B     		ldr	r3, .L67
 726 04b6 D3F88830 		ldr	r3, [r3, #136]
 727 04ba 23F04062 		bic	r2, r3, #201326592
 728 04be 7B68     		ldr	r3, [r7, #4]
ARM GAS  C:\Users\Morroway\AppData\Local\Temp\ccOmimY8.s 			page 24


 729 04c0 9B6F     		ldr	r3, [r3, #120]
 730 04c2 0E49     		ldr	r1, .L67
 731 04c4 1343     		orrs	r3, r3, r2
 732 04c6 C1F88830 		str	r3, [r1, #136]
 733              	.L48:
 579:Drivers/STM32L4xx_HAL_Driver/Src/stm32l4xx_hal_rcc_ex.c **** 
 580:Drivers/STM32L4xx_HAL_Driver/Src/stm32l4xx_hal_rcc_ex.c ****     if(PeriphClkInit->Sdmmc1ClockSelection == RCC_SDMMC1CLKSOURCE_PLL)   /* PLL "Q" ? */
 734              		.loc 1 580 21 is_stmt 1
 735 04ca 7B68     		ldr	r3, [r7, #4]
 736 04cc 9B6F     		ldr	r3, [r3, #120]
 737              		.loc 1 580 7
 738 04ce B3F1006F 		cmp	r3, #134217728
 739 04d2 06D1     		bne	.L49
 581:Drivers/STM32L4xx_HAL_Driver/Src/stm32l4xx_hal_rcc_ex.c ****     {
 582:Drivers/STM32L4xx_HAL_Driver/Src/stm32l4xx_hal_rcc_ex.c ****       /* Enable PLL48M1CLK output clock */
 583:Drivers/STM32L4xx_HAL_Driver/Src/stm32l4xx_hal_rcc_ex.c ****       __HAL_RCC_PLLCLKOUT_ENABLE(RCC_PLL_48M1CLK);
 740              		.loc 1 583 7
 741 04d4 094B     		ldr	r3, .L67
 742 04d6 DB68     		ldr	r3, [r3, #12]
 743 04d8 084A     		ldr	r2, .L67
 744 04da 43F48013 		orr	r3, r3, #1048576
 745 04de D360     		str	r3, [r2, #12]
 746 04e0 20E0     		b	.L46
 747              	.L49:
 584:Drivers/STM32L4xx_HAL_Driver/Src/stm32l4xx_hal_rcc_ex.c ****     }
 585:Drivers/STM32L4xx_HAL_Driver/Src/stm32l4xx_hal_rcc_ex.c **** #if defined(RCC_CCIPR2_SDMMCSEL)
 586:Drivers/STM32L4xx_HAL_Driver/Src/stm32l4xx_hal_rcc_ex.c ****     else if(PeriphClkInit->Sdmmc1ClockSelection == RCC_SDMMC1CLKSOURCE_PLLP) /* PLL "P" ? */
 748              		.loc 1 586 26
 749 04e2 7B68     		ldr	r3, [r7, #4]
 750 04e4 9B6F     		ldr	r3, [r3, #120]
 751              		.loc 1 586 12
 752 04e6 B3F5804F 		cmp	r3, #16384
 753 04ea 09D1     		bne	.L50
 587:Drivers/STM32L4xx_HAL_Driver/Src/stm32l4xx_hal_rcc_ex.c ****     {
 588:Drivers/STM32L4xx_HAL_Driver/Src/stm32l4xx_hal_rcc_ex.c ****       /* Enable PLLSAI3CLK output */
 589:Drivers/STM32L4xx_HAL_Driver/Src/stm32l4xx_hal_rcc_ex.c ****       __HAL_RCC_PLLCLKOUT_ENABLE(RCC_PLL_SAI3CLK);
 754              		.loc 1 589 7
 755 04ec 034B     		ldr	r3, .L67
 756 04ee DB68     		ldr	r3, [r3, #12]
 757 04f0 024A     		ldr	r2, .L67
 758 04f2 43F48033 		orr	r3, r3, #65536
 759 04f6 D360     		str	r3, [r2, #12]
 760 04f8 14E0     		b	.L46
 761              	.L68:
 762 04fa 00BF     		.align	2
 763              	.L67:
 764 04fc 00100240 		.word	1073876992
 765              	.L50:
 590:Drivers/STM32L4xx_HAL_Driver/Src/stm32l4xx_hal_rcc_ex.c ****     }
 591:Drivers/STM32L4xx_HAL_Driver/Src/stm32l4xx_hal_rcc_ex.c **** #endif
 592:Drivers/STM32L4xx_HAL_Driver/Src/stm32l4xx_hal_rcc_ex.c ****     else if(PeriphClkInit->Sdmmc1ClockSelection == RCC_SDMMC1CLKSOURCE_PLLSAI1)
 766              		.loc 1 592 26
 767 0500 7B68     		ldr	r3, [r7, #4]
 768 0502 9B6F     		ldr	r3, [r3, #120]
 769              		.loc 1 592 12
 770 0504 B3F1806F 		cmp	r3, #67108864
 771 0508 0CD1     		bne	.L46
ARM GAS  C:\Users\Morroway\AppData\Local\Temp\ccOmimY8.s 			page 25


 593:Drivers/STM32L4xx_HAL_Driver/Src/stm32l4xx_hal_rcc_ex.c ****     {
 594:Drivers/STM32L4xx_HAL_Driver/Src/stm32l4xx_hal_rcc_ex.c ****       /* PLLSAI1 input clock, parameters M, N & Q configuration and clock output (PLLSAI1ClockOut) 
 595:Drivers/STM32L4xx_HAL_Driver/Src/stm32l4xx_hal_rcc_ex.c ****       ret = RCCEx_PLLSAI1_Config(&(PeriphClkInit->PLLSAI1), DIVIDER_Q_UPDATE);
 772              		.loc 1 595 13
 773 050a 7B68     		ldr	r3, [r7, #4]
 774 050c 0433     		adds	r3, r3, #4
 775 050e 0121     		movs	r1, #1
 776 0510 1846     		mov	r0, r3
 777 0512 FFF7FEFF 		bl	RCCEx_PLLSAI1_Config
 778 0516 0346     		mov	r3, r0
 779 0518 FB74     		strb	r3, [r7, #19]
 596:Drivers/STM32L4xx_HAL_Driver/Src/stm32l4xx_hal_rcc_ex.c **** 
 597:Drivers/STM32L4xx_HAL_Driver/Src/stm32l4xx_hal_rcc_ex.c ****       if(ret != HAL_OK)
 780              		.loc 1 597 9
 781 051a FB7C     		ldrb	r3, [r7, #19]	@ zero_extendqisi2
 782 051c 002B     		cmp	r3, #0
 783 051e 01D0     		beq	.L46
 598:Drivers/STM32L4xx_HAL_Driver/Src/stm32l4xx_hal_rcc_ex.c ****       {
 599:Drivers/STM32L4xx_HAL_Driver/Src/stm32l4xx_hal_rcc_ex.c ****         /* set overall return value */
 600:Drivers/STM32L4xx_HAL_Driver/Src/stm32l4xx_hal_rcc_ex.c ****         status = ret;
 784              		.loc 1 600 16
 785 0520 FB7C     		ldrb	r3, [r7, #19]
 786 0522 BB74     		strb	r3, [r7, #18]
 787              	.L46:
 601:Drivers/STM32L4xx_HAL_Driver/Src/stm32l4xx_hal_rcc_ex.c ****       }
 602:Drivers/STM32L4xx_HAL_Driver/Src/stm32l4xx_hal_rcc_ex.c ****     }
 603:Drivers/STM32L4xx_HAL_Driver/Src/stm32l4xx_hal_rcc_ex.c ****     else
 604:Drivers/STM32L4xx_HAL_Driver/Src/stm32l4xx_hal_rcc_ex.c ****     {
 605:Drivers/STM32L4xx_HAL_Driver/Src/stm32l4xx_hal_rcc_ex.c ****       /* nothing to do */
 606:Drivers/STM32L4xx_HAL_Driver/Src/stm32l4xx_hal_rcc_ex.c ****     }
 607:Drivers/STM32L4xx_HAL_Driver/Src/stm32l4xx_hal_rcc_ex.c ****   }
 608:Drivers/STM32L4xx_HAL_Driver/Src/stm32l4xx_hal_rcc_ex.c **** 
 609:Drivers/STM32L4xx_HAL_Driver/Src/stm32l4xx_hal_rcc_ex.c **** #endif /* SDMMC1 */
 610:Drivers/STM32L4xx_HAL_Driver/Src/stm32l4xx_hal_rcc_ex.c **** 
 611:Drivers/STM32L4xx_HAL_Driver/Src/stm32l4xx_hal_rcc_ex.c ****   /*-------------------------- RNG clock source configuration ----------------------*/
 612:Drivers/STM32L4xx_HAL_Driver/Src/stm32l4xx_hal_rcc_ex.c ****   if(((PeriphClkInit->PeriphClockSelection) & RCC_PERIPHCLK_RNG) == (RCC_PERIPHCLK_RNG))
 788              		.loc 1 612 21
 789 0524 7B68     		ldr	r3, [r7, #4]
 790 0526 1B68     		ldr	r3, [r3]
 791              		.loc 1 612 45
 792 0528 03F48023 		and	r3, r3, #262144
 793              		.loc 1 612 5
 794 052c 002B     		cmp	r3, #0
 795 052e 28D0     		beq	.L51
 613:Drivers/STM32L4xx_HAL_Driver/Src/stm32l4xx_hal_rcc_ex.c ****   {
 614:Drivers/STM32L4xx_HAL_Driver/Src/stm32l4xx_hal_rcc_ex.c ****     assert_param(IS_RCC_RNGCLKSOURCE(PeriphClkInit->RngClockSelection));
 615:Drivers/STM32L4xx_HAL_Driver/Src/stm32l4xx_hal_rcc_ex.c ****     __HAL_RCC_RNG_CONFIG(PeriphClkInit->RngClockSelection);
 796              		.loc 1 615 5
 797 0530 684B     		ldr	r3, .L69
 798 0532 D3F88830 		ldr	r3, [r3, #136]
 799 0536 23F04062 		bic	r2, r3, #201326592
 800 053a 7B68     		ldr	r3, [r7, #4]
 801 053c DB6F     		ldr	r3, [r3, #124]
 802 053e 6549     		ldr	r1, .L69
 803 0540 1343     		orrs	r3, r3, r2
 804 0542 C1F88830 		str	r3, [r1, #136]
 616:Drivers/STM32L4xx_HAL_Driver/Src/stm32l4xx_hal_rcc_ex.c **** 
ARM GAS  C:\Users\Morroway\AppData\Local\Temp\ccOmimY8.s 			page 26


 617:Drivers/STM32L4xx_HAL_Driver/Src/stm32l4xx_hal_rcc_ex.c ****     if(PeriphClkInit->RngClockSelection == RCC_RNGCLKSOURCE_PLL)
 805              		.loc 1 617 21
 806 0546 7B68     		ldr	r3, [r7, #4]
 807 0548 DB6F     		ldr	r3, [r3, #124]
 808              		.loc 1 617 7
 809 054a B3F1006F 		cmp	r3, #134217728
 810 054e 06D1     		bne	.L52
 618:Drivers/STM32L4xx_HAL_Driver/Src/stm32l4xx_hal_rcc_ex.c ****     {
 619:Drivers/STM32L4xx_HAL_Driver/Src/stm32l4xx_hal_rcc_ex.c ****       /* Enable PLL48M1CLK output clock */
 620:Drivers/STM32L4xx_HAL_Driver/Src/stm32l4xx_hal_rcc_ex.c ****       __HAL_RCC_PLLCLKOUT_ENABLE(RCC_PLL_48M1CLK);
 811              		.loc 1 620 7
 812 0550 604B     		ldr	r3, .L69
 813 0552 DB68     		ldr	r3, [r3, #12]
 814 0554 5F4A     		ldr	r2, .L69
 815 0556 43F48013 		orr	r3, r3, #1048576
 816 055a D360     		str	r3, [r2, #12]
 817 055c 11E0     		b	.L51
 818              	.L52:
 621:Drivers/STM32L4xx_HAL_Driver/Src/stm32l4xx_hal_rcc_ex.c ****     }
 622:Drivers/STM32L4xx_HAL_Driver/Src/stm32l4xx_hal_rcc_ex.c **** #if defined(RCC_PLLSAI1_SUPPORT)
 623:Drivers/STM32L4xx_HAL_Driver/Src/stm32l4xx_hal_rcc_ex.c ****     else if(PeriphClkInit->RngClockSelection == RCC_RNGCLKSOURCE_PLLSAI1)
 819              		.loc 1 623 26
 820 055e 7B68     		ldr	r3, [r7, #4]
 821 0560 DB6F     		ldr	r3, [r3, #124]
 822              		.loc 1 623 12
 823 0562 B3F1806F 		cmp	r3, #67108864
 824 0566 0CD1     		bne	.L51
 624:Drivers/STM32L4xx_HAL_Driver/Src/stm32l4xx_hal_rcc_ex.c ****     {
 625:Drivers/STM32L4xx_HAL_Driver/Src/stm32l4xx_hal_rcc_ex.c ****       /* PLLSAI1 input clock, parameters M, N & Q configuration and clock output (PLLSAI1ClockOut) 
 626:Drivers/STM32L4xx_HAL_Driver/Src/stm32l4xx_hal_rcc_ex.c ****       ret = RCCEx_PLLSAI1_Config(&(PeriphClkInit->PLLSAI1), DIVIDER_Q_UPDATE);
 825              		.loc 1 626 13
 826 0568 7B68     		ldr	r3, [r7, #4]
 827 056a 0433     		adds	r3, r3, #4
 828 056c 0121     		movs	r1, #1
 829 056e 1846     		mov	r0, r3
 830 0570 FFF7FEFF 		bl	RCCEx_PLLSAI1_Config
 831 0574 0346     		mov	r3, r0
 832 0576 FB74     		strb	r3, [r7, #19]
 627:Drivers/STM32L4xx_HAL_Driver/Src/stm32l4xx_hal_rcc_ex.c **** 
 628:Drivers/STM32L4xx_HAL_Driver/Src/stm32l4xx_hal_rcc_ex.c ****       if(ret != HAL_OK)
 833              		.loc 1 628 9
 834 0578 FB7C     		ldrb	r3, [r7, #19]	@ zero_extendqisi2
 835 057a 002B     		cmp	r3, #0
 836 057c 01D0     		beq	.L51
 629:Drivers/STM32L4xx_HAL_Driver/Src/stm32l4xx_hal_rcc_ex.c ****       {
 630:Drivers/STM32L4xx_HAL_Driver/Src/stm32l4xx_hal_rcc_ex.c ****         /* set overall return value */
 631:Drivers/STM32L4xx_HAL_Driver/Src/stm32l4xx_hal_rcc_ex.c ****         status = ret;
 837              		.loc 1 631 16
 838 057e FB7C     		ldrb	r3, [r7, #19]
 839 0580 BB74     		strb	r3, [r7, #18]
 840              	.L51:
 632:Drivers/STM32L4xx_HAL_Driver/Src/stm32l4xx_hal_rcc_ex.c ****       }
 633:Drivers/STM32L4xx_HAL_Driver/Src/stm32l4xx_hal_rcc_ex.c ****     }
 634:Drivers/STM32L4xx_HAL_Driver/Src/stm32l4xx_hal_rcc_ex.c **** #endif /* RCC_PLLSAI1_SUPPORT */
 635:Drivers/STM32L4xx_HAL_Driver/Src/stm32l4xx_hal_rcc_ex.c ****     else
 636:Drivers/STM32L4xx_HAL_Driver/Src/stm32l4xx_hal_rcc_ex.c ****     {
 637:Drivers/STM32L4xx_HAL_Driver/Src/stm32l4xx_hal_rcc_ex.c ****       /* nothing to do */
ARM GAS  C:\Users\Morroway\AppData\Local\Temp\ccOmimY8.s 			page 27


 638:Drivers/STM32L4xx_HAL_Driver/Src/stm32l4xx_hal_rcc_ex.c ****     }
 639:Drivers/STM32L4xx_HAL_Driver/Src/stm32l4xx_hal_rcc_ex.c ****   }
 640:Drivers/STM32L4xx_HAL_Driver/Src/stm32l4xx_hal_rcc_ex.c **** 
 641:Drivers/STM32L4xx_HAL_Driver/Src/stm32l4xx_hal_rcc_ex.c ****   /*-------------------------- ADC clock source configuration ----------------------*/
 642:Drivers/STM32L4xx_HAL_Driver/Src/stm32l4xx_hal_rcc_ex.c **** #if !defined(STM32L412xx) && !defined(STM32L422xx)
 643:Drivers/STM32L4xx_HAL_Driver/Src/stm32l4xx_hal_rcc_ex.c ****   if(((PeriphClkInit->PeriphClockSelection) & RCC_PERIPHCLK_ADC) == RCC_PERIPHCLK_ADC)
 841              		.loc 1 643 21
 842 0582 7B68     		ldr	r3, [r7, #4]
 843 0584 1B68     		ldr	r3, [r3]
 844              		.loc 1 643 45
 845 0586 03F48043 		and	r3, r3, #16384
 846              		.loc 1 643 5
 847 058a 002B     		cmp	r3, #0
 848 058c 1ED0     		beq	.L53
 644:Drivers/STM32L4xx_HAL_Driver/Src/stm32l4xx_hal_rcc_ex.c ****   {
 645:Drivers/STM32L4xx_HAL_Driver/Src/stm32l4xx_hal_rcc_ex.c ****     /* Check the parameters */
 646:Drivers/STM32L4xx_HAL_Driver/Src/stm32l4xx_hal_rcc_ex.c ****     assert_param(IS_RCC_ADCCLKSOURCE(PeriphClkInit->AdcClockSelection));
 647:Drivers/STM32L4xx_HAL_Driver/Src/stm32l4xx_hal_rcc_ex.c **** 
 648:Drivers/STM32L4xx_HAL_Driver/Src/stm32l4xx_hal_rcc_ex.c ****     /* Configure the ADC interface clock source */
 649:Drivers/STM32L4xx_HAL_Driver/Src/stm32l4xx_hal_rcc_ex.c ****     __HAL_RCC_ADC_CONFIG(PeriphClkInit->AdcClockSelection);
 849              		.loc 1 649 5
 850 058e 514B     		ldr	r3, .L69
 851 0590 D3F88830 		ldr	r3, [r3, #136]
 852 0594 23F04052 		bic	r2, r3, #805306368
 853 0598 7B68     		ldr	r3, [r7, #4]
 854 059a D3F88030 		ldr	r3, [r3, #128]
 855 059e 4D49     		ldr	r1, .L69
 856 05a0 1343     		orrs	r3, r3, r2
 857 05a2 C1F88830 		str	r3, [r1, #136]
 650:Drivers/STM32L4xx_HAL_Driver/Src/stm32l4xx_hal_rcc_ex.c **** 
 651:Drivers/STM32L4xx_HAL_Driver/Src/stm32l4xx_hal_rcc_ex.c **** #if defined(RCC_PLLSAI1_SUPPORT)
 652:Drivers/STM32L4xx_HAL_Driver/Src/stm32l4xx_hal_rcc_ex.c ****     if(PeriphClkInit->AdcClockSelection == RCC_ADCCLKSOURCE_PLLSAI1)
 858              		.loc 1 652 21
 859 05a6 7B68     		ldr	r3, [r7, #4]
 860 05a8 D3F88030 		ldr	r3, [r3, #128]
 861              		.loc 1 652 7
 862 05ac B3F1805F 		cmp	r3, #268435456
 863 05b0 0CD1     		bne	.L53
 653:Drivers/STM32L4xx_HAL_Driver/Src/stm32l4xx_hal_rcc_ex.c ****     {
 654:Drivers/STM32L4xx_HAL_Driver/Src/stm32l4xx_hal_rcc_ex.c ****       /* PLLSAI1 input clock, parameters M, N & R configuration and clock output (PLLSAI1ClockOut) 
 655:Drivers/STM32L4xx_HAL_Driver/Src/stm32l4xx_hal_rcc_ex.c ****       ret = RCCEx_PLLSAI1_Config(&(PeriphClkInit->PLLSAI1), DIVIDER_R_UPDATE);
 864              		.loc 1 655 13
 865 05b2 7B68     		ldr	r3, [r7, #4]
 866 05b4 0433     		adds	r3, r3, #4
 867 05b6 0221     		movs	r1, #2
 868 05b8 1846     		mov	r0, r3
 869 05ba FFF7FEFF 		bl	RCCEx_PLLSAI1_Config
 870 05be 0346     		mov	r3, r0
 871 05c0 FB74     		strb	r3, [r7, #19]
 656:Drivers/STM32L4xx_HAL_Driver/Src/stm32l4xx_hal_rcc_ex.c **** 
 657:Drivers/STM32L4xx_HAL_Driver/Src/stm32l4xx_hal_rcc_ex.c ****       if(ret != HAL_OK)
 872              		.loc 1 657 9
 873 05c2 FB7C     		ldrb	r3, [r7, #19]	@ zero_extendqisi2
 874 05c4 002B     		cmp	r3, #0
 875 05c6 01D0     		beq	.L53
 658:Drivers/STM32L4xx_HAL_Driver/Src/stm32l4xx_hal_rcc_ex.c ****       {
 659:Drivers/STM32L4xx_HAL_Driver/Src/stm32l4xx_hal_rcc_ex.c ****         /* set overall return value */
ARM GAS  C:\Users\Morroway\AppData\Local\Temp\ccOmimY8.s 			page 28


 660:Drivers/STM32L4xx_HAL_Driver/Src/stm32l4xx_hal_rcc_ex.c ****         status = ret;
 876              		.loc 1 660 16
 877 05c8 FB7C     		ldrb	r3, [r7, #19]
 878 05ca BB74     		strb	r3, [r7, #18]
 879              	.L53:
 661:Drivers/STM32L4xx_HAL_Driver/Src/stm32l4xx_hal_rcc_ex.c ****       }
 662:Drivers/STM32L4xx_HAL_Driver/Src/stm32l4xx_hal_rcc_ex.c ****     }
 663:Drivers/STM32L4xx_HAL_Driver/Src/stm32l4xx_hal_rcc_ex.c **** #endif /* RCC_PLLSAI1_SUPPORT */
 664:Drivers/STM32L4xx_HAL_Driver/Src/stm32l4xx_hal_rcc_ex.c **** 
 665:Drivers/STM32L4xx_HAL_Driver/Src/stm32l4xx_hal_rcc_ex.c **** #if defined(STM32L471xx) || defined(STM32L475xx) || defined(STM32L476xx) || defined(STM32L485xx) ||
 666:Drivers/STM32L4xx_HAL_Driver/Src/stm32l4xx_hal_rcc_ex.c **** 
 667:Drivers/STM32L4xx_HAL_Driver/Src/stm32l4xx_hal_rcc_ex.c ****     else if(PeriphClkInit->AdcClockSelection == RCC_ADCCLKSOURCE_PLLSAI2)
 668:Drivers/STM32L4xx_HAL_Driver/Src/stm32l4xx_hal_rcc_ex.c ****     {
 669:Drivers/STM32L4xx_HAL_Driver/Src/stm32l4xx_hal_rcc_ex.c ****       /* PLLSAI2 input clock, parameters M, N & R configuration and clock output (PLLSAI2ClockOut) 
 670:Drivers/STM32L4xx_HAL_Driver/Src/stm32l4xx_hal_rcc_ex.c ****       ret = RCCEx_PLLSAI2_Config(&(PeriphClkInit->PLLSAI2), DIVIDER_R_UPDATE);
 671:Drivers/STM32L4xx_HAL_Driver/Src/stm32l4xx_hal_rcc_ex.c **** 
 672:Drivers/STM32L4xx_HAL_Driver/Src/stm32l4xx_hal_rcc_ex.c ****       if(ret != HAL_OK)
 673:Drivers/STM32L4xx_HAL_Driver/Src/stm32l4xx_hal_rcc_ex.c ****       {
 674:Drivers/STM32L4xx_HAL_Driver/Src/stm32l4xx_hal_rcc_ex.c ****         /* set overall return value */
 675:Drivers/STM32L4xx_HAL_Driver/Src/stm32l4xx_hal_rcc_ex.c ****         status = ret;
 676:Drivers/STM32L4xx_HAL_Driver/Src/stm32l4xx_hal_rcc_ex.c ****       }
 677:Drivers/STM32L4xx_HAL_Driver/Src/stm32l4xx_hal_rcc_ex.c ****     }
 678:Drivers/STM32L4xx_HAL_Driver/Src/stm32l4xx_hal_rcc_ex.c **** 
 679:Drivers/STM32L4xx_HAL_Driver/Src/stm32l4xx_hal_rcc_ex.c **** #endif /* STM32L471xx || STM32L475xx || STM32L476xx || STM32L485xx || STM32L486xx || STM32L496xx ||
 680:Drivers/STM32L4xx_HAL_Driver/Src/stm32l4xx_hal_rcc_ex.c **** 
 681:Drivers/STM32L4xx_HAL_Driver/Src/stm32l4xx_hal_rcc_ex.c ****   }
 682:Drivers/STM32L4xx_HAL_Driver/Src/stm32l4xx_hal_rcc_ex.c **** #endif /* !STM32L412xx && !STM32L422xx */
 683:Drivers/STM32L4xx_HAL_Driver/Src/stm32l4xx_hal_rcc_ex.c **** 
 684:Drivers/STM32L4xx_HAL_Driver/Src/stm32l4xx_hal_rcc_ex.c **** #if defined(SWPMI1)
 685:Drivers/STM32L4xx_HAL_Driver/Src/stm32l4xx_hal_rcc_ex.c **** 
 686:Drivers/STM32L4xx_HAL_Driver/Src/stm32l4xx_hal_rcc_ex.c ****   /*-------------------------- SWPMI1 clock source configuration -------------------*/
 687:Drivers/STM32L4xx_HAL_Driver/Src/stm32l4xx_hal_rcc_ex.c ****   if(((PeriphClkInit->PeriphClockSelection) & RCC_PERIPHCLK_SWPMI1) == RCC_PERIPHCLK_SWPMI1)
 688:Drivers/STM32L4xx_HAL_Driver/Src/stm32l4xx_hal_rcc_ex.c ****   {
 689:Drivers/STM32L4xx_HAL_Driver/Src/stm32l4xx_hal_rcc_ex.c ****     /* Check the parameters */
 690:Drivers/STM32L4xx_HAL_Driver/Src/stm32l4xx_hal_rcc_ex.c ****     assert_param(IS_RCC_SWPMI1CLKSOURCE(PeriphClkInit->Swpmi1ClockSelection));
 691:Drivers/STM32L4xx_HAL_Driver/Src/stm32l4xx_hal_rcc_ex.c **** 
 692:Drivers/STM32L4xx_HAL_Driver/Src/stm32l4xx_hal_rcc_ex.c ****     /* Configure the SWPMI1 clock source */
 693:Drivers/STM32L4xx_HAL_Driver/Src/stm32l4xx_hal_rcc_ex.c ****     __HAL_RCC_SWPMI1_CONFIG(PeriphClkInit->Swpmi1ClockSelection);
 694:Drivers/STM32L4xx_HAL_Driver/Src/stm32l4xx_hal_rcc_ex.c ****   }
 695:Drivers/STM32L4xx_HAL_Driver/Src/stm32l4xx_hal_rcc_ex.c **** 
 696:Drivers/STM32L4xx_HAL_Driver/Src/stm32l4xx_hal_rcc_ex.c **** #endif /* SWPMI1 */
 697:Drivers/STM32L4xx_HAL_Driver/Src/stm32l4xx_hal_rcc_ex.c **** 
 698:Drivers/STM32L4xx_HAL_Driver/Src/stm32l4xx_hal_rcc_ex.c **** #if defined(DFSDM1_Filter0)
 699:Drivers/STM32L4xx_HAL_Driver/Src/stm32l4xx_hal_rcc_ex.c **** 
 700:Drivers/STM32L4xx_HAL_Driver/Src/stm32l4xx_hal_rcc_ex.c ****   /*-------------------------- DFSDM1 clock source configuration -------------------*/
 701:Drivers/STM32L4xx_HAL_Driver/Src/stm32l4xx_hal_rcc_ex.c ****   if(((PeriphClkInit->PeriphClockSelection) & RCC_PERIPHCLK_DFSDM1) == RCC_PERIPHCLK_DFSDM1)
 880              		.loc 1 701 21
 881 05cc 7B68     		ldr	r3, [r7, #4]
 882 05ce 1B68     		ldr	r3, [r3]
 883              		.loc 1 701 45
 884 05d0 03F48033 		and	r3, r3, #65536
 885              		.loc 1 701 5
 886 05d4 002B     		cmp	r3, #0
 887 05d6 0BD0     		beq	.L54
 702:Drivers/STM32L4xx_HAL_Driver/Src/stm32l4xx_hal_rcc_ex.c ****   {
 703:Drivers/STM32L4xx_HAL_Driver/Src/stm32l4xx_hal_rcc_ex.c ****     /* Check the parameters */
 704:Drivers/STM32L4xx_HAL_Driver/Src/stm32l4xx_hal_rcc_ex.c ****     assert_param(IS_RCC_DFSDM1CLKSOURCE(PeriphClkInit->Dfsdm1ClockSelection));
ARM GAS  C:\Users\Morroway\AppData\Local\Temp\ccOmimY8.s 			page 29


 705:Drivers/STM32L4xx_HAL_Driver/Src/stm32l4xx_hal_rcc_ex.c **** 
 706:Drivers/STM32L4xx_HAL_Driver/Src/stm32l4xx_hal_rcc_ex.c ****     /* Configure the DFSDM1 interface clock source */
 707:Drivers/STM32L4xx_HAL_Driver/Src/stm32l4xx_hal_rcc_ex.c ****     __HAL_RCC_DFSDM1_CONFIG(PeriphClkInit->Dfsdm1ClockSelection);
 888              		.loc 1 707 5
 889 05d8 3E4B     		ldr	r3, .L69
 890 05da D3F89C30 		ldr	r3, [r3, #156]
 891 05de 23F00402 		bic	r2, r3, #4
 892 05e2 7B68     		ldr	r3, [r7, #4]
 893 05e4 D3F88430 		ldr	r3, [r3, #132]
 894 05e8 3A49     		ldr	r1, .L69
 895 05ea 1343     		orrs	r3, r3, r2
 896 05ec C1F89C30 		str	r3, [r1, #156]
 897              	.L54:
 708:Drivers/STM32L4xx_HAL_Driver/Src/stm32l4xx_hal_rcc_ex.c ****   }
 709:Drivers/STM32L4xx_HAL_Driver/Src/stm32l4xx_hal_rcc_ex.c **** 
 710:Drivers/STM32L4xx_HAL_Driver/Src/stm32l4xx_hal_rcc_ex.c **** #if defined(STM32L4P5xx) || defined(STM32L4Q5xx) || defined(STM32L4R5xx) || defined(STM32L4R7xx) ||
 711:Drivers/STM32L4xx_HAL_Driver/Src/stm32l4xx_hal_rcc_ex.c ****   /*-------------------------- DFSDM1 audio clock source configuration -------------*/
 712:Drivers/STM32L4xx_HAL_Driver/Src/stm32l4xx_hal_rcc_ex.c ****   if(((PeriphClkInit->PeriphClockSelection) & RCC_PERIPHCLK_DFSDM1AUDIO) == RCC_PERIPHCLK_DFSDM1AUD
 898              		.loc 1 712 21
 899 05f0 7B68     		ldr	r3, [r7, #4]
 900 05f2 1B68     		ldr	r3, [r3]
 901              		.loc 1 712 45
 902 05f4 03F40013 		and	r3, r3, #2097152
 903              		.loc 1 712 5
 904 05f8 002B     		cmp	r3, #0
 905 05fa 0BD0     		beq	.L55
 713:Drivers/STM32L4xx_HAL_Driver/Src/stm32l4xx_hal_rcc_ex.c ****   {
 714:Drivers/STM32L4xx_HAL_Driver/Src/stm32l4xx_hal_rcc_ex.c ****     /* Check the parameters */
 715:Drivers/STM32L4xx_HAL_Driver/Src/stm32l4xx_hal_rcc_ex.c ****     assert_param(IS_RCC_DFSDM1AUDIOCLKSOURCE(PeriphClkInit->Dfsdm1AudioClockSelection));
 716:Drivers/STM32L4xx_HAL_Driver/Src/stm32l4xx_hal_rcc_ex.c **** 
 717:Drivers/STM32L4xx_HAL_Driver/Src/stm32l4xx_hal_rcc_ex.c ****     /* Configure the DFSDM1 interface audio clock source */
 718:Drivers/STM32L4xx_HAL_Driver/Src/stm32l4xx_hal_rcc_ex.c ****     __HAL_RCC_DFSDM1AUDIO_CONFIG(PeriphClkInit->Dfsdm1AudioClockSelection);
 906              		.loc 1 718 5
 907 05fc 354B     		ldr	r3, .L69
 908 05fe D3F89C30 		ldr	r3, [r3, #156]
 909 0602 23F01802 		bic	r2, r3, #24
 910 0606 7B68     		ldr	r3, [r7, #4]
 911 0608 D3F88830 		ldr	r3, [r3, #136]
 912 060c 3149     		ldr	r1, .L69
 913 060e 1343     		orrs	r3, r3, r2
 914 0610 C1F89C30 		str	r3, [r1, #156]
 915              	.L55:
 719:Drivers/STM32L4xx_HAL_Driver/Src/stm32l4xx_hal_rcc_ex.c ****   }
 720:Drivers/STM32L4xx_HAL_Driver/Src/stm32l4xx_hal_rcc_ex.c **** 
 721:Drivers/STM32L4xx_HAL_Driver/Src/stm32l4xx_hal_rcc_ex.c **** #endif /* STM32L4P5xx || STM32L4Q5xx || STM32L4R5xx || STM32L4R7xx || STM32L4R9xx || STM32L4S5xx ||
 722:Drivers/STM32L4xx_HAL_Driver/Src/stm32l4xx_hal_rcc_ex.c **** 
 723:Drivers/STM32L4xx_HAL_Driver/Src/stm32l4xx_hal_rcc_ex.c **** #endif /* DFSDM1_Filter0 */
 724:Drivers/STM32L4xx_HAL_Driver/Src/stm32l4xx_hal_rcc_ex.c **** 
 725:Drivers/STM32L4xx_HAL_Driver/Src/stm32l4xx_hal_rcc_ex.c **** #if defined(LTDC)
 726:Drivers/STM32L4xx_HAL_Driver/Src/stm32l4xx_hal_rcc_ex.c **** 
 727:Drivers/STM32L4xx_HAL_Driver/Src/stm32l4xx_hal_rcc_ex.c ****   /*-------------------------- LTDC clock source configuration --------------------*/
 728:Drivers/STM32L4xx_HAL_Driver/Src/stm32l4xx_hal_rcc_ex.c ****   if(((PeriphClkInit->PeriphClockSelection) & RCC_PERIPHCLK_LTDC) == RCC_PERIPHCLK_LTDC)
 916              		.loc 1 728 21
 917 0614 7B68     		ldr	r3, [r7, #4]
 918 0616 1B68     		ldr	r3, [r3]
 919              		.loc 1 728 45
 920 0618 03F48003 		and	r3, r3, #4194304
ARM GAS  C:\Users\Morroway\AppData\Local\Temp\ccOmimY8.s 			page 30


 921              		.loc 1 728 5
 922 061c 002B     		cmp	r3, #0
 923 061e 35D0     		beq	.L56
 729:Drivers/STM32L4xx_HAL_Driver/Src/stm32l4xx_hal_rcc_ex.c ****   {
 730:Drivers/STM32L4xx_HAL_Driver/Src/stm32l4xx_hal_rcc_ex.c ****     /* Check the parameters */
 731:Drivers/STM32L4xx_HAL_Driver/Src/stm32l4xx_hal_rcc_ex.c ****     assert_param(IS_RCC_LTDCCLKSOURCE(PeriphClkInit->LtdcClockSelection));
 732:Drivers/STM32L4xx_HAL_Driver/Src/stm32l4xx_hal_rcc_ex.c **** 
 733:Drivers/STM32L4xx_HAL_Driver/Src/stm32l4xx_hal_rcc_ex.c ****     /* Disable the PLLSAI2 */
 734:Drivers/STM32L4xx_HAL_Driver/Src/stm32l4xx_hal_rcc_ex.c ****     __HAL_RCC_PLLSAI2_DISABLE();
 924              		.loc 1 734 5
 925 0620 2C4B     		ldr	r3, .L69
 926 0622 1B68     		ldr	r3, [r3]
 927 0624 2B4A     		ldr	r2, .L69
 928 0626 23F08053 		bic	r3, r3, #268435456
 929 062a 1360     		str	r3, [r2]
 735:Drivers/STM32L4xx_HAL_Driver/Src/stm32l4xx_hal_rcc_ex.c **** 
 736:Drivers/STM32L4xx_HAL_Driver/Src/stm32l4xx_hal_rcc_ex.c ****     /* Get Start Tick*/
 737:Drivers/STM32L4xx_HAL_Driver/Src/stm32l4xx_hal_rcc_ex.c ****     tickstart = HAL_GetTick();
 930              		.loc 1 737 17
 931 062c FFF7FEFF 		bl	HAL_GetTick
 932 0630 F860     		str	r0, [r7, #12]
 738:Drivers/STM32L4xx_HAL_Driver/Src/stm32l4xx_hal_rcc_ex.c **** 
 739:Drivers/STM32L4xx_HAL_Driver/Src/stm32l4xx_hal_rcc_ex.c ****     /* Wait till PLLSAI2 is ready */
 740:Drivers/STM32L4xx_HAL_Driver/Src/stm32l4xx_hal_rcc_ex.c ****     while(READ_BIT(RCC->CR, RCC_CR_PLLSAI2RDY) != 0U)
 933              		.loc 1 740 10
 934 0632 09E0     		b	.L57
 935              	.L59:
 741:Drivers/STM32L4xx_HAL_Driver/Src/stm32l4xx_hal_rcc_ex.c ****     {
 742:Drivers/STM32L4xx_HAL_Driver/Src/stm32l4xx_hal_rcc_ex.c ****       if((HAL_GetTick() - tickstart) > PLLSAI2_TIMEOUT_VALUE)
 936              		.loc 1 742 11
 937 0634 FFF7FEFF 		bl	HAL_GetTick
 938 0638 0246     		mov	r2, r0
 939              		.loc 1 742 25
 940 063a FB68     		ldr	r3, [r7, #12]
 941 063c D31A     		subs	r3, r2, r3
 942              		.loc 1 742 9
 943 063e 022B     		cmp	r3, #2
 944 0640 02D9     		bls	.L57
 743:Drivers/STM32L4xx_HAL_Driver/Src/stm32l4xx_hal_rcc_ex.c ****       {
 744:Drivers/STM32L4xx_HAL_Driver/Src/stm32l4xx_hal_rcc_ex.c ****         ret = HAL_TIMEOUT;
 945              		.loc 1 744 13
 946 0642 0323     		movs	r3, #3
 947 0644 FB74     		strb	r3, [r7, #19]
 745:Drivers/STM32L4xx_HAL_Driver/Src/stm32l4xx_hal_rcc_ex.c ****         break;
 948              		.loc 1 745 9
 949 0646 05E0     		b	.L58
 950              	.L57:
 740:Drivers/STM32L4xx_HAL_Driver/Src/stm32l4xx_hal_rcc_ex.c ****     {
 951              		.loc 1 740 11
 952 0648 224B     		ldr	r3, .L69
 953 064a 1B68     		ldr	r3, [r3]
 954 064c 03F00053 		and	r3, r3, #536870912
 740:Drivers/STM32L4xx_HAL_Driver/Src/stm32l4xx_hal_rcc_ex.c ****     {
 955              		.loc 1 740 48
 956 0650 002B     		cmp	r3, #0
 957 0652 EFD1     		bne	.L59
 958              	.L58:
ARM GAS  C:\Users\Morroway\AppData\Local\Temp\ccOmimY8.s 			page 31


 746:Drivers/STM32L4xx_HAL_Driver/Src/stm32l4xx_hal_rcc_ex.c ****       }
 747:Drivers/STM32L4xx_HAL_Driver/Src/stm32l4xx_hal_rcc_ex.c ****     }
 748:Drivers/STM32L4xx_HAL_Driver/Src/stm32l4xx_hal_rcc_ex.c **** 
 749:Drivers/STM32L4xx_HAL_Driver/Src/stm32l4xx_hal_rcc_ex.c ****     if(ret == HAL_OK)
 959              		.loc 1 749 7
 960 0654 FB7C     		ldrb	r3, [r7, #19]	@ zero_extendqisi2
 961 0656 002B     		cmp	r3, #0
 962 0658 13D1     		bne	.L60
 750:Drivers/STM32L4xx_HAL_Driver/Src/stm32l4xx_hal_rcc_ex.c ****     {
 751:Drivers/STM32L4xx_HAL_Driver/Src/stm32l4xx_hal_rcc_ex.c ****       /* Configure the LTDC clock source */
 752:Drivers/STM32L4xx_HAL_Driver/Src/stm32l4xx_hal_rcc_ex.c ****       __HAL_RCC_LTDC_CONFIG(PeriphClkInit->LtdcClockSelection);
 963              		.loc 1 752 7
 964 065a 1E4B     		ldr	r3, .L69
 965 065c D3F89C30 		ldr	r3, [r3, #156]
 966 0660 23F44032 		bic	r2, r3, #196608
 967 0664 7B68     		ldr	r3, [r7, #4]
 968 0666 D3F88C30 		ldr	r3, [r3, #140]
 969 066a 1A49     		ldr	r1, .L69
 970 066c 1343     		orrs	r3, r3, r2
 971 066e C1F89C30 		str	r3, [r1, #156]
 753:Drivers/STM32L4xx_HAL_Driver/Src/stm32l4xx_hal_rcc_ex.c **** 
 754:Drivers/STM32L4xx_HAL_Driver/Src/stm32l4xx_hal_rcc_ex.c ****       /* PLLSAI2 input clock, parameters M, N & R configuration and clock output (PLLSAI2ClockOut) 
 755:Drivers/STM32L4xx_HAL_Driver/Src/stm32l4xx_hal_rcc_ex.c ****       ret = RCCEx_PLLSAI2_Config(&(PeriphClkInit->PLLSAI2), DIVIDER_R_UPDATE);
 972              		.loc 1 755 13
 973 0672 7B68     		ldr	r3, [r7, #4]
 974 0674 2033     		adds	r3, r3, #32
 975 0676 0221     		movs	r1, #2
 976 0678 1846     		mov	r0, r3
 977 067a FFF7FEFF 		bl	RCCEx_PLLSAI2_Config
 978 067e 0346     		mov	r3, r0
 979 0680 FB74     		strb	r3, [r7, #19]
 980              	.L60:
 756:Drivers/STM32L4xx_HAL_Driver/Src/stm32l4xx_hal_rcc_ex.c ****     }
 757:Drivers/STM32L4xx_HAL_Driver/Src/stm32l4xx_hal_rcc_ex.c **** 
 758:Drivers/STM32L4xx_HAL_Driver/Src/stm32l4xx_hal_rcc_ex.c ****     if(ret != HAL_OK)
 981              		.loc 1 758 7
 982 0682 FB7C     		ldrb	r3, [r7, #19]	@ zero_extendqisi2
 983 0684 002B     		cmp	r3, #0
 984 0686 01D0     		beq	.L56
 759:Drivers/STM32L4xx_HAL_Driver/Src/stm32l4xx_hal_rcc_ex.c ****     {
 760:Drivers/STM32L4xx_HAL_Driver/Src/stm32l4xx_hal_rcc_ex.c ****       /* set overall return value */
 761:Drivers/STM32L4xx_HAL_Driver/Src/stm32l4xx_hal_rcc_ex.c ****       status = ret;
 985              		.loc 1 761 14
 986 0688 FB7C     		ldrb	r3, [r7, #19]
 987 068a BB74     		strb	r3, [r7, #18]
 988              	.L56:
 762:Drivers/STM32L4xx_HAL_Driver/Src/stm32l4xx_hal_rcc_ex.c ****     }
 763:Drivers/STM32L4xx_HAL_Driver/Src/stm32l4xx_hal_rcc_ex.c ****   }
 764:Drivers/STM32L4xx_HAL_Driver/Src/stm32l4xx_hal_rcc_ex.c **** 
 765:Drivers/STM32L4xx_HAL_Driver/Src/stm32l4xx_hal_rcc_ex.c **** #endif /* LTDC */
 766:Drivers/STM32L4xx_HAL_Driver/Src/stm32l4xx_hal_rcc_ex.c **** 
 767:Drivers/STM32L4xx_HAL_Driver/Src/stm32l4xx_hal_rcc_ex.c **** #if defined(DSI)
 768:Drivers/STM32L4xx_HAL_Driver/Src/stm32l4xx_hal_rcc_ex.c **** 
 769:Drivers/STM32L4xx_HAL_Driver/Src/stm32l4xx_hal_rcc_ex.c ****   /*-------------------------- DSI clock source configuration ---------------------*/
 770:Drivers/STM32L4xx_HAL_Driver/Src/stm32l4xx_hal_rcc_ex.c ****   if(((PeriphClkInit->PeriphClockSelection) & RCC_PERIPHCLK_DSI) == RCC_PERIPHCLK_DSI)
 771:Drivers/STM32L4xx_HAL_Driver/Src/stm32l4xx_hal_rcc_ex.c ****   {
 772:Drivers/STM32L4xx_HAL_Driver/Src/stm32l4xx_hal_rcc_ex.c ****     /* Check the parameters */
ARM GAS  C:\Users\Morroway\AppData\Local\Temp\ccOmimY8.s 			page 32


 773:Drivers/STM32L4xx_HAL_Driver/Src/stm32l4xx_hal_rcc_ex.c ****     assert_param(IS_RCC_DSICLKSOURCE(PeriphClkInit->DsiClockSelection));
 774:Drivers/STM32L4xx_HAL_Driver/Src/stm32l4xx_hal_rcc_ex.c **** 
 775:Drivers/STM32L4xx_HAL_Driver/Src/stm32l4xx_hal_rcc_ex.c ****     /* Configure the DSI clock source */
 776:Drivers/STM32L4xx_HAL_Driver/Src/stm32l4xx_hal_rcc_ex.c ****     __HAL_RCC_DSI_CONFIG(PeriphClkInit->DsiClockSelection);
 777:Drivers/STM32L4xx_HAL_Driver/Src/stm32l4xx_hal_rcc_ex.c **** 
 778:Drivers/STM32L4xx_HAL_Driver/Src/stm32l4xx_hal_rcc_ex.c ****     if(PeriphClkInit->DsiClockSelection == RCC_DSICLKSOURCE_PLLSAI2)
 779:Drivers/STM32L4xx_HAL_Driver/Src/stm32l4xx_hal_rcc_ex.c ****     {
 780:Drivers/STM32L4xx_HAL_Driver/Src/stm32l4xx_hal_rcc_ex.c ****       /* PLLSAI2 input clock, parameters M, N & Q configuration and clock output (PLLSAI2ClockOut) 
 781:Drivers/STM32L4xx_HAL_Driver/Src/stm32l4xx_hal_rcc_ex.c ****       ret = RCCEx_PLLSAI2_Config(&(PeriphClkInit->PLLSAI2), DIVIDER_Q_UPDATE);
 782:Drivers/STM32L4xx_HAL_Driver/Src/stm32l4xx_hal_rcc_ex.c **** 
 783:Drivers/STM32L4xx_HAL_Driver/Src/stm32l4xx_hal_rcc_ex.c ****       if(ret != HAL_OK)
 784:Drivers/STM32L4xx_HAL_Driver/Src/stm32l4xx_hal_rcc_ex.c ****       {
 785:Drivers/STM32L4xx_HAL_Driver/Src/stm32l4xx_hal_rcc_ex.c ****         /* set overall return value */
 786:Drivers/STM32L4xx_HAL_Driver/Src/stm32l4xx_hal_rcc_ex.c ****         status = ret;
 787:Drivers/STM32L4xx_HAL_Driver/Src/stm32l4xx_hal_rcc_ex.c ****       }
 788:Drivers/STM32L4xx_HAL_Driver/Src/stm32l4xx_hal_rcc_ex.c ****     }
 789:Drivers/STM32L4xx_HAL_Driver/Src/stm32l4xx_hal_rcc_ex.c ****   }
 790:Drivers/STM32L4xx_HAL_Driver/Src/stm32l4xx_hal_rcc_ex.c **** 
 791:Drivers/STM32L4xx_HAL_Driver/Src/stm32l4xx_hal_rcc_ex.c **** #endif /* DSI */
 792:Drivers/STM32L4xx_HAL_Driver/Src/stm32l4xx_hal_rcc_ex.c **** 
 793:Drivers/STM32L4xx_HAL_Driver/Src/stm32l4xx_hal_rcc_ex.c **** #if defined(OCTOSPI1) || defined(OCTOSPI2)
 794:Drivers/STM32L4xx_HAL_Driver/Src/stm32l4xx_hal_rcc_ex.c **** 
 795:Drivers/STM32L4xx_HAL_Driver/Src/stm32l4xx_hal_rcc_ex.c ****   /*-------------------------- OctoSPIx clock source configuration ----------------*/
 796:Drivers/STM32L4xx_HAL_Driver/Src/stm32l4xx_hal_rcc_ex.c ****   if(((PeriphClkInit->PeriphClockSelection) & RCC_PERIPHCLK_OSPI) == RCC_PERIPHCLK_OSPI)
 989              		.loc 1 796 21
 990 068c 7B68     		ldr	r3, [r7, #4]
 991 068e 1B68     		ldr	r3, [r3]
 992              		.loc 1 796 45
 993 0690 03F08073 		and	r3, r3, #16777216
 994              		.loc 1 796 5
 995 0694 002B     		cmp	r3, #0
 996 0696 17D0     		beq	.L61
 797:Drivers/STM32L4xx_HAL_Driver/Src/stm32l4xx_hal_rcc_ex.c ****   {
 798:Drivers/STM32L4xx_HAL_Driver/Src/stm32l4xx_hal_rcc_ex.c ****     /* Check the parameters */
 799:Drivers/STM32L4xx_HAL_Driver/Src/stm32l4xx_hal_rcc_ex.c ****     assert_param(IS_RCC_OSPICLKSOURCE(PeriphClkInit->OspiClockSelection));
 800:Drivers/STM32L4xx_HAL_Driver/Src/stm32l4xx_hal_rcc_ex.c **** 
 801:Drivers/STM32L4xx_HAL_Driver/Src/stm32l4xx_hal_rcc_ex.c ****     /* Configure the OctoSPI clock source */
 802:Drivers/STM32L4xx_HAL_Driver/Src/stm32l4xx_hal_rcc_ex.c ****     __HAL_RCC_OSPI_CONFIG(PeriphClkInit->OspiClockSelection);
 997              		.loc 1 802 5
 998 0698 0E4B     		ldr	r3, .L69
 999 069a D3F89C30 		ldr	r3, [r3, #156]
 1000 069e 23F44012 		bic	r2, r3, #3145728
 1001 06a2 7B68     		ldr	r3, [r7, #4]
 1002 06a4 D3F89030 		ldr	r3, [r3, #144]
 1003 06a8 0A49     		ldr	r1, .L69
 1004 06aa 1343     		orrs	r3, r3, r2
 1005 06ac C1F89C30 		str	r3, [r1, #156]
 803:Drivers/STM32L4xx_HAL_Driver/Src/stm32l4xx_hal_rcc_ex.c **** 
 804:Drivers/STM32L4xx_HAL_Driver/Src/stm32l4xx_hal_rcc_ex.c ****     if(PeriphClkInit->OspiClockSelection == RCC_OSPICLKSOURCE_PLL)
 1006              		.loc 1 804 21
 1007 06b0 7B68     		ldr	r3, [r7, #4]
 1008 06b2 D3F89030 		ldr	r3, [r3, #144]
 1009              		.loc 1 804 7
 1010 06b6 B3F5001F 		cmp	r3, #2097152
 1011 06ba 05D1     		bne	.L61
 805:Drivers/STM32L4xx_HAL_Driver/Src/stm32l4xx_hal_rcc_ex.c ****     {
 806:Drivers/STM32L4xx_HAL_Driver/Src/stm32l4xx_hal_rcc_ex.c ****       /* Enable PLL48M1CLK output */
ARM GAS  C:\Users\Morroway\AppData\Local\Temp\ccOmimY8.s 			page 33


 807:Drivers/STM32L4xx_HAL_Driver/Src/stm32l4xx_hal_rcc_ex.c ****       __HAL_RCC_PLLCLKOUT_ENABLE(RCC_PLL_48M1CLK);
 1012              		.loc 1 807 7
 1013 06bc 054B     		ldr	r3, .L69
 1014 06be DB68     		ldr	r3, [r3, #12]
 1015 06c0 044A     		ldr	r2, .L69
 1016 06c2 43F48013 		orr	r3, r3, #1048576
 1017 06c6 D360     		str	r3, [r2, #12]
 1018              	.L61:
 808:Drivers/STM32L4xx_HAL_Driver/Src/stm32l4xx_hal_rcc_ex.c ****     }
 809:Drivers/STM32L4xx_HAL_Driver/Src/stm32l4xx_hal_rcc_ex.c ****   }
 810:Drivers/STM32L4xx_HAL_Driver/Src/stm32l4xx_hal_rcc_ex.c **** 
 811:Drivers/STM32L4xx_HAL_Driver/Src/stm32l4xx_hal_rcc_ex.c **** #endif /* OCTOSPI1 || OCTOSPI2 */
 812:Drivers/STM32L4xx_HAL_Driver/Src/stm32l4xx_hal_rcc_ex.c **** 
 813:Drivers/STM32L4xx_HAL_Driver/Src/stm32l4xx_hal_rcc_ex.c ****   return status;
 1019              		.loc 1 813 10
 1020 06c8 BB7C     		ldrb	r3, [r7, #18]	@ zero_extendqisi2
 814:Drivers/STM32L4xx_HAL_Driver/Src/stm32l4xx_hal_rcc_ex.c **** }
 1021              		.loc 1 814 1
 1022 06ca 1846     		mov	r0, r3
 1023 06cc 1837     		adds	r7, r7, #24
 1024              		.cfi_def_cfa_offset 8
 1025 06ce BD46     		mov	sp, r7
 1026              		.cfi_def_cfa_register 13
 1027              		@ sp needed
 1028 06d0 80BD     		pop	{r7, pc}
 1029              	.L70:
 1030 06d2 00BF     		.align	2
 1031              	.L69:
 1032 06d4 00100240 		.word	1073876992
 1033              		.cfi_endproc
 1034              	.LFE321:
 1036              		.section	.text.HAL_RCCEx_GetPeriphCLKConfig,"ax",%progbits
 1037              		.align	1
 1038              		.global	HAL_RCCEx_GetPeriphCLKConfig
 1039              		.syntax unified
 1040              		.thumb
 1041              		.thumb_func
 1043              	HAL_RCCEx_GetPeriphCLKConfig:
 1044              	.LFB322:
 815:Drivers/STM32L4xx_HAL_Driver/Src/stm32l4xx_hal_rcc_ex.c **** 
 816:Drivers/STM32L4xx_HAL_Driver/Src/stm32l4xx_hal_rcc_ex.c **** /**
 817:Drivers/STM32L4xx_HAL_Driver/Src/stm32l4xx_hal_rcc_ex.c ****   * @brief  Get the RCC_ClkInitStruct according to the internal RCC configuration registers.
 818:Drivers/STM32L4xx_HAL_Driver/Src/stm32l4xx_hal_rcc_ex.c ****   * @param  PeriphClkInit  pointer to an RCC_PeriphCLKInitTypeDef structure that
 819:Drivers/STM32L4xx_HAL_Driver/Src/stm32l4xx_hal_rcc_ex.c ****   *         returns the configuration information for the Extended Peripherals
 820:Drivers/STM32L4xx_HAL_Driver/Src/stm32l4xx_hal_rcc_ex.c ****   *         clocks(SAI1, SAI2, LPTIM1, LPTIM2, I2C1, I2C2, I2C3, I2C4, LPUART1,
 821:Drivers/STM32L4xx_HAL_Driver/Src/stm32l4xx_hal_rcc_ex.c ****   *         USART1, USART2, USART3, UART4, UART5, RTC, ADCx, DFSDMx, SWPMI1, USB, SDMMC1 and RNG).
 822:Drivers/STM32L4xx_HAL_Driver/Src/stm32l4xx_hal_rcc_ex.c ****   * @retval None
 823:Drivers/STM32L4xx_HAL_Driver/Src/stm32l4xx_hal_rcc_ex.c ****   */
 824:Drivers/STM32L4xx_HAL_Driver/Src/stm32l4xx_hal_rcc_ex.c **** void HAL_RCCEx_GetPeriphCLKConfig(RCC_PeriphCLKInitTypeDef  *PeriphClkInit)
 825:Drivers/STM32L4xx_HAL_Driver/Src/stm32l4xx_hal_rcc_ex.c **** {
 1045              		.loc 1 825 1
 1046              		.cfi_startproc
 1047              		@ args = 0, pretend = 0, frame = 8
 1048              		@ frame_needed = 1, uses_anonymous_args = 0
 1049              		@ link register save eliminated.
 1050 0000 80B4     		push	{r7}
 1051              		.cfi_def_cfa_offset 4
ARM GAS  C:\Users\Morroway\AppData\Local\Temp\ccOmimY8.s 			page 34


 1052              		.cfi_offset 7, -4
 1053 0002 83B0     		sub	sp, sp, #12
 1054              		.cfi_def_cfa_offset 16
 1055 0004 00AF     		add	r7, sp, #0
 1056              		.cfi_def_cfa_register 7
 1057 0006 7860     		str	r0, [r7, #4]
 826:Drivers/STM32L4xx_HAL_Driver/Src/stm32l4xx_hal_rcc_ex.c ****   /* Set all possible values for the extended clock type parameter------------*/
 827:Drivers/STM32L4xx_HAL_Driver/Src/stm32l4xx_hal_rcc_ex.c **** 
 828:Drivers/STM32L4xx_HAL_Driver/Src/stm32l4xx_hal_rcc_ex.c **** #if defined(STM32L412xx) || defined(STM32L422xx)
 829:Drivers/STM32L4xx_HAL_Driver/Src/stm32l4xx_hal_rcc_ex.c **** 
 830:Drivers/STM32L4xx_HAL_Driver/Src/stm32l4xx_hal_rcc_ex.c ****   PeriphClkInit->PeriphClockSelection = RCC_PERIPHCLK_USART1  | RCC_PERIPHCLK_USART2 | RCC_PERIPHCL
 831:Drivers/STM32L4xx_HAL_Driver/Src/stm32l4xx_hal_rcc_ex.c ****                                         RCC_PERIPHCLK_LPUART1 | RCC_PERIPHCLK_I2C1   | RCC_PERIPHCL
 832:Drivers/STM32L4xx_HAL_Driver/Src/stm32l4xx_hal_rcc_ex.c ****                                         RCC_PERIPHCLK_LPTIM1  | RCC_PERIPHCLK_LPTIM2 |             
 833:Drivers/STM32L4xx_HAL_Driver/Src/stm32l4xx_hal_rcc_ex.c ****                                                                 RCC_PERIPHCLK_RNG    |             
 834:Drivers/STM32L4xx_HAL_Driver/Src/stm32l4xx_hal_rcc_ex.c ****                                         RCC_PERIPHCLK_RTC ;
 835:Drivers/STM32L4xx_HAL_Driver/Src/stm32l4xx_hal_rcc_ex.c **** 
 836:Drivers/STM32L4xx_HAL_Driver/Src/stm32l4xx_hal_rcc_ex.c **** #elif defined(STM32L431xx)
 837:Drivers/STM32L4xx_HAL_Driver/Src/stm32l4xx_hal_rcc_ex.c **** 
 838:Drivers/STM32L4xx_HAL_Driver/Src/stm32l4xx_hal_rcc_ex.c ****   PeriphClkInit->PeriphClockSelection = RCC_PERIPHCLK_USART1  | RCC_PERIPHCLK_USART2 | RCC_PERIPHCL
 839:Drivers/STM32L4xx_HAL_Driver/Src/stm32l4xx_hal_rcc_ex.c ****                                         RCC_PERIPHCLK_LPUART1 | RCC_PERIPHCLK_I2C1   | RCC_PERIPHCL
 840:Drivers/STM32L4xx_HAL_Driver/Src/stm32l4xx_hal_rcc_ex.c ****                                         RCC_PERIPHCLK_LPTIM1  | RCC_PERIPHCLK_LPTIM2 | RCC_PERIPHCL
 841:Drivers/STM32L4xx_HAL_Driver/Src/stm32l4xx_hal_rcc_ex.c ****                                         RCC_PERIPHCLK_SDMMC1  | RCC_PERIPHCLK_RNG    | RCC_PERIPHCL
 842:Drivers/STM32L4xx_HAL_Driver/Src/stm32l4xx_hal_rcc_ex.c ****                                         RCC_PERIPHCLK_RTC ;
 843:Drivers/STM32L4xx_HAL_Driver/Src/stm32l4xx_hal_rcc_ex.c **** 
 844:Drivers/STM32L4xx_HAL_Driver/Src/stm32l4xx_hal_rcc_ex.c **** #elif defined(STM32L432xx) || defined(STM32L442xx)
 845:Drivers/STM32L4xx_HAL_Driver/Src/stm32l4xx_hal_rcc_ex.c **** 
 846:Drivers/STM32L4xx_HAL_Driver/Src/stm32l4xx_hal_rcc_ex.c ****   PeriphClkInit->PeriphClockSelection = RCC_PERIPHCLK_USART1  | RCC_PERIPHCLK_USART2 |             
 847:Drivers/STM32L4xx_HAL_Driver/Src/stm32l4xx_hal_rcc_ex.c ****                                         RCC_PERIPHCLK_LPUART1 | RCC_PERIPHCLK_I2C1   |             
 848:Drivers/STM32L4xx_HAL_Driver/Src/stm32l4xx_hal_rcc_ex.c ****                                         RCC_PERIPHCLK_LPTIM1  | RCC_PERIPHCLK_LPTIM2 | RCC_PERIPHCL
 849:Drivers/STM32L4xx_HAL_Driver/Src/stm32l4xx_hal_rcc_ex.c ****                                                                 RCC_PERIPHCLK_RNG    | RCC_PERIPHCL
 850:Drivers/STM32L4xx_HAL_Driver/Src/stm32l4xx_hal_rcc_ex.c ****                                         RCC_PERIPHCLK_RTC ;
 851:Drivers/STM32L4xx_HAL_Driver/Src/stm32l4xx_hal_rcc_ex.c **** 
 852:Drivers/STM32L4xx_HAL_Driver/Src/stm32l4xx_hal_rcc_ex.c **** #elif defined(STM32L433xx) || defined(STM32L443xx)
 853:Drivers/STM32L4xx_HAL_Driver/Src/stm32l4xx_hal_rcc_ex.c **** 
 854:Drivers/STM32L4xx_HAL_Driver/Src/stm32l4xx_hal_rcc_ex.c ****   PeriphClkInit->PeriphClockSelection = RCC_PERIPHCLK_USART1  | RCC_PERIPHCLK_USART2 | RCC_PERIPHCL
 855:Drivers/STM32L4xx_HAL_Driver/Src/stm32l4xx_hal_rcc_ex.c ****                                         RCC_PERIPHCLK_LPUART1 | RCC_PERIPHCLK_I2C1   | RCC_PERIPHCL
 856:Drivers/STM32L4xx_HAL_Driver/Src/stm32l4xx_hal_rcc_ex.c ****                                         RCC_PERIPHCLK_LPTIM1  | RCC_PERIPHCLK_LPTIM2 | RCC_PERIPHCL
 857:Drivers/STM32L4xx_HAL_Driver/Src/stm32l4xx_hal_rcc_ex.c ****                                         RCC_PERIPHCLK_SDMMC1  | RCC_PERIPHCLK_RNG    | RCC_PERIPHCL
 858:Drivers/STM32L4xx_HAL_Driver/Src/stm32l4xx_hal_rcc_ex.c ****                                         RCC_PERIPHCLK_RTC ;
 859:Drivers/STM32L4xx_HAL_Driver/Src/stm32l4xx_hal_rcc_ex.c **** 
 860:Drivers/STM32L4xx_HAL_Driver/Src/stm32l4xx_hal_rcc_ex.c **** #elif defined(STM32L451xx)
 861:Drivers/STM32L4xx_HAL_Driver/Src/stm32l4xx_hal_rcc_ex.c **** 
 862:Drivers/STM32L4xx_HAL_Driver/Src/stm32l4xx_hal_rcc_ex.c ****   PeriphClkInit->PeriphClockSelection = RCC_PERIPHCLK_USART1  | RCC_PERIPHCLK_USART2 | RCC_PERIPHCL
 863:Drivers/STM32L4xx_HAL_Driver/Src/stm32l4xx_hal_rcc_ex.c ****                                         RCC_PERIPHCLK_LPUART1 | RCC_PERIPHCLK_I2C1   | RCC_PERIPHCL
 864:Drivers/STM32L4xx_HAL_Driver/Src/stm32l4xx_hal_rcc_ex.c ****                                         RCC_PERIPHCLK_LPTIM1  | RCC_PERIPHCLK_LPTIM2 | RCC_PERIPHCL
 865:Drivers/STM32L4xx_HAL_Driver/Src/stm32l4xx_hal_rcc_ex.c ****                                         RCC_PERIPHCLK_SDMMC1  | RCC_PERIPHCLK_RNG    | RCC_PERIPHCL
 866:Drivers/STM32L4xx_HAL_Driver/Src/stm32l4xx_hal_rcc_ex.c ****                                         RCC_PERIPHCLK_RTC ;
 867:Drivers/STM32L4xx_HAL_Driver/Src/stm32l4xx_hal_rcc_ex.c **** 
 868:Drivers/STM32L4xx_HAL_Driver/Src/stm32l4xx_hal_rcc_ex.c **** #elif defined(STM32L452xx) || defined(STM32L462xx)
 869:Drivers/STM32L4xx_HAL_Driver/Src/stm32l4xx_hal_rcc_ex.c **** 
 870:Drivers/STM32L4xx_HAL_Driver/Src/stm32l4xx_hal_rcc_ex.c ****   PeriphClkInit->PeriphClockSelection = RCC_PERIPHCLK_USART1  | RCC_PERIPHCLK_USART2 | RCC_PERIPHCL
 871:Drivers/STM32L4xx_HAL_Driver/Src/stm32l4xx_hal_rcc_ex.c ****                                         RCC_PERIPHCLK_LPUART1 | RCC_PERIPHCLK_I2C1   | RCC_PERIPHCL
 872:Drivers/STM32L4xx_HAL_Driver/Src/stm32l4xx_hal_rcc_ex.c ****                                         RCC_PERIPHCLK_LPTIM1  | RCC_PERIPHCLK_LPTIM2 | RCC_PERIPHCL
 873:Drivers/STM32L4xx_HAL_Driver/Src/stm32l4xx_hal_rcc_ex.c ****                                         RCC_PERIPHCLK_SDMMC1  | RCC_PERIPHCLK_RNG    | RCC_PERIPHCL
 874:Drivers/STM32L4xx_HAL_Driver/Src/stm32l4xx_hal_rcc_ex.c ****                                         RCC_PERIPHCLK_RTC ;
 875:Drivers/STM32L4xx_HAL_Driver/Src/stm32l4xx_hal_rcc_ex.c **** 
 876:Drivers/STM32L4xx_HAL_Driver/Src/stm32l4xx_hal_rcc_ex.c **** #elif defined(STM32L471xx)
ARM GAS  C:\Users\Morroway\AppData\Local\Temp\ccOmimY8.s 			page 35


 877:Drivers/STM32L4xx_HAL_Driver/Src/stm32l4xx_hal_rcc_ex.c **** 
 878:Drivers/STM32L4xx_HAL_Driver/Src/stm32l4xx_hal_rcc_ex.c ****   PeriphClkInit->PeriphClockSelection = RCC_PERIPHCLK_USART1  | RCC_PERIPHCLK_USART2 | RCC_PERIPHCL
 879:Drivers/STM32L4xx_HAL_Driver/Src/stm32l4xx_hal_rcc_ex.c ****                                         RCC_PERIPHCLK_LPUART1 | RCC_PERIPHCLK_I2C1   | RCC_PERIPHCL
 880:Drivers/STM32L4xx_HAL_Driver/Src/stm32l4xx_hal_rcc_ex.c ****                                         RCC_PERIPHCLK_LPTIM1  | RCC_PERIPHCLK_LPTIM2 | RCC_PERIPHCL
 881:Drivers/STM32L4xx_HAL_Driver/Src/stm32l4xx_hal_rcc_ex.c ****                                         RCC_PERIPHCLK_SDMMC1  | RCC_PERIPHCLK_RNG    | RCC_PERIPHCL
 882:Drivers/STM32L4xx_HAL_Driver/Src/stm32l4xx_hal_rcc_ex.c ****                                         RCC_PERIPHCLK_RTC ;
 883:Drivers/STM32L4xx_HAL_Driver/Src/stm32l4xx_hal_rcc_ex.c **** 
 884:Drivers/STM32L4xx_HAL_Driver/Src/stm32l4xx_hal_rcc_ex.c **** #elif defined(STM32L475xx) || defined(STM32L476xx) || defined(STM32L485xx) || defined(STM32L486xx)
 885:Drivers/STM32L4xx_HAL_Driver/Src/stm32l4xx_hal_rcc_ex.c **** 
 886:Drivers/STM32L4xx_HAL_Driver/Src/stm32l4xx_hal_rcc_ex.c ****   PeriphClkInit->PeriphClockSelection = RCC_PERIPHCLK_USART1  | RCC_PERIPHCLK_USART2 | RCC_PERIPHCL
 887:Drivers/STM32L4xx_HAL_Driver/Src/stm32l4xx_hal_rcc_ex.c ****                                         RCC_PERIPHCLK_LPUART1 | RCC_PERIPHCLK_I2C1   | RCC_PERIPHCL
 888:Drivers/STM32L4xx_HAL_Driver/Src/stm32l4xx_hal_rcc_ex.c ****                                         RCC_PERIPHCLK_LPTIM1  | RCC_PERIPHCLK_LPTIM2 | RCC_PERIPHCL
 889:Drivers/STM32L4xx_HAL_Driver/Src/stm32l4xx_hal_rcc_ex.c ****                                         RCC_PERIPHCLK_SDMMC1  | RCC_PERIPHCLK_RNG    | RCC_PERIPHCL
 890:Drivers/STM32L4xx_HAL_Driver/Src/stm32l4xx_hal_rcc_ex.c ****                                         RCC_PERIPHCLK_RTC ;
 891:Drivers/STM32L4xx_HAL_Driver/Src/stm32l4xx_hal_rcc_ex.c **** 
 892:Drivers/STM32L4xx_HAL_Driver/Src/stm32l4xx_hal_rcc_ex.c **** #elif defined(STM32L496xx) || defined(STM32L4A6xx)
 893:Drivers/STM32L4xx_HAL_Driver/Src/stm32l4xx_hal_rcc_ex.c **** 
 894:Drivers/STM32L4xx_HAL_Driver/Src/stm32l4xx_hal_rcc_ex.c ****   PeriphClkInit->PeriphClockSelection = RCC_PERIPHCLK_USART1  | RCC_PERIPHCLK_USART2 | RCC_PERIPHCL
 895:Drivers/STM32L4xx_HAL_Driver/Src/stm32l4xx_hal_rcc_ex.c ****                                         RCC_PERIPHCLK_LPUART1 | RCC_PERIPHCLK_I2C1   | RCC_PERIPHCL
 896:Drivers/STM32L4xx_HAL_Driver/Src/stm32l4xx_hal_rcc_ex.c ****                                         RCC_PERIPHCLK_LPTIM1  | RCC_PERIPHCLK_LPTIM2 | RCC_PERIPHCL
 897:Drivers/STM32L4xx_HAL_Driver/Src/stm32l4xx_hal_rcc_ex.c ****                                         RCC_PERIPHCLK_SDMMC1  | RCC_PERIPHCLK_RNG    | RCC_PERIPHCL
 898:Drivers/STM32L4xx_HAL_Driver/Src/stm32l4xx_hal_rcc_ex.c ****                                         RCC_PERIPHCLK_RTC ;
 899:Drivers/STM32L4xx_HAL_Driver/Src/stm32l4xx_hal_rcc_ex.c **** 
 900:Drivers/STM32L4xx_HAL_Driver/Src/stm32l4xx_hal_rcc_ex.c **** #elif defined(STM32L4R5xx) || defined(STM32L4S5xx)
 901:Drivers/STM32L4xx_HAL_Driver/Src/stm32l4xx_hal_rcc_ex.c **** 
 902:Drivers/STM32L4xx_HAL_Driver/Src/stm32l4xx_hal_rcc_ex.c ****   PeriphClkInit->PeriphClockSelection = RCC_PERIPHCLK_USART1  | RCC_PERIPHCLK_USART2 | RCC_PERIPHCL
 903:Drivers/STM32L4xx_HAL_Driver/Src/stm32l4xx_hal_rcc_ex.c ****                                         RCC_PERIPHCLK_LPUART1 | RCC_PERIPHCLK_I2C1   | RCC_PERIPHCL
 904:Drivers/STM32L4xx_HAL_Driver/Src/stm32l4xx_hal_rcc_ex.c ****                                         RCC_PERIPHCLK_LPTIM1  | RCC_PERIPHCLK_LPTIM2 | RCC_PERIPHCL
 905:Drivers/STM32L4xx_HAL_Driver/Src/stm32l4xx_hal_rcc_ex.c ****                                         RCC_PERIPHCLK_SDMMC1  | RCC_PERIPHCLK_RNG    | RCC_PERIPHCL
 906:Drivers/STM32L4xx_HAL_Driver/Src/stm32l4xx_hal_rcc_ex.c ****                                         RCC_PERIPHCLK_DFSDM1AUDIO | RCC_PERIPHCLK_RTC | RCC_PERIPHC
 907:Drivers/STM32L4xx_HAL_Driver/Src/stm32l4xx_hal_rcc_ex.c **** 
 908:Drivers/STM32L4xx_HAL_Driver/Src/stm32l4xx_hal_rcc_ex.c **** #elif defined(STM32L4R7xx) || defined(STM32L4S7xx) || defined(STM32L4Q5xx)
 909:Drivers/STM32L4xx_HAL_Driver/Src/stm32l4xx_hal_rcc_ex.c **** 
 910:Drivers/STM32L4xx_HAL_Driver/Src/stm32l4xx_hal_rcc_ex.c ****   PeriphClkInit->PeriphClockSelection = RCC_PERIPHCLK_USART1  | RCC_PERIPHCLK_USART2 | RCC_PERIPHCL
 911:Drivers/STM32L4xx_HAL_Driver/Src/stm32l4xx_hal_rcc_ex.c ****                                         RCC_PERIPHCLK_LPUART1 | RCC_PERIPHCLK_I2C1   | RCC_PERIPHCL
 912:Drivers/STM32L4xx_HAL_Driver/Src/stm32l4xx_hal_rcc_ex.c ****                                         RCC_PERIPHCLK_LPTIM1  | RCC_PERIPHCLK_LPTIM2 | RCC_PERIPHCL
 913:Drivers/STM32L4xx_HAL_Driver/Src/stm32l4xx_hal_rcc_ex.c ****                                         RCC_PERIPHCLK_SDMMC1  | RCC_PERIPHCLK_RNG    | RCC_PERIPHCL
 914:Drivers/STM32L4xx_HAL_Driver/Src/stm32l4xx_hal_rcc_ex.c ****                                         RCC_PERIPHCLK_DFSDM1AUDIO | RCC_PERIPHCLK_RTC | RCC_PERIPHC
 915:Drivers/STM32L4xx_HAL_Driver/Src/stm32l4xx_hal_rcc_ex.c **** 
 916:Drivers/STM32L4xx_HAL_Driver/Src/stm32l4xx_hal_rcc_ex.c **** #elif defined(STM32L4R9xx) || defined(STM32L4S9xx)
 917:Drivers/STM32L4xx_HAL_Driver/Src/stm32l4xx_hal_rcc_ex.c **** 
 918:Drivers/STM32L4xx_HAL_Driver/Src/stm32l4xx_hal_rcc_ex.c ****   PeriphClkInit->PeriphClockSelection = RCC_PERIPHCLK_USART1  | RCC_PERIPHCLK_USART2 | RCC_PERIPHCL
 919:Drivers/STM32L4xx_HAL_Driver/Src/stm32l4xx_hal_rcc_ex.c ****                                         RCC_PERIPHCLK_LPUART1 | RCC_PERIPHCLK_I2C1   | RCC_PERIPHCL
 920:Drivers/STM32L4xx_HAL_Driver/Src/stm32l4xx_hal_rcc_ex.c ****                                         RCC_PERIPHCLK_LPTIM1  | RCC_PERIPHCLK_LPTIM2 | RCC_PERIPHCL
 921:Drivers/STM32L4xx_HAL_Driver/Src/stm32l4xx_hal_rcc_ex.c ****                                         RCC_PERIPHCLK_SDMMC1  | RCC_PERIPHCLK_RNG    | RCC_PERIPHCL
 922:Drivers/STM32L4xx_HAL_Driver/Src/stm32l4xx_hal_rcc_ex.c ****                                         RCC_PERIPHCLK_DFSDM1AUDIO | RCC_PERIPHCLK_RTC | RCC_PERIPHC
 923:Drivers/STM32L4xx_HAL_Driver/Src/stm32l4xx_hal_rcc_ex.c **** 
 924:Drivers/STM32L4xx_HAL_Driver/Src/stm32l4xx_hal_rcc_ex.c **** #endif /* STM32L431xx */
 925:Drivers/STM32L4xx_HAL_Driver/Src/stm32l4xx_hal_rcc_ex.c **** 
 926:Drivers/STM32L4xx_HAL_Driver/Src/stm32l4xx_hal_rcc_ex.c **** #if defined(RCC_PLLSAI1_SUPPORT)
 927:Drivers/STM32L4xx_HAL_Driver/Src/stm32l4xx_hal_rcc_ex.c **** 
 928:Drivers/STM32L4xx_HAL_Driver/Src/stm32l4xx_hal_rcc_ex.c ****   /* Get the PLLSAI1 Clock configuration -----------------------------------------------*/
 929:Drivers/STM32L4xx_HAL_Driver/Src/stm32l4xx_hal_rcc_ex.c **** 
 930:Drivers/STM32L4xx_HAL_Driver/Src/stm32l4xx_hal_rcc_ex.c ****   PeriphClkInit->PLLSAI1.PLLSAI1Source = READ_BIT(RCC->PLLCFGR, RCC_PLLCFGR_PLLSRC) >> RCC_PLLCFGR_
 1058              		.loc 1 930 42
 1059 0008 864B     		ldr	r3, .L74
 1060 000a DB68     		ldr	r3, [r3, #12]
ARM GAS  C:\Users\Morroway\AppData\Local\Temp\ccOmimY8.s 			page 36


 1061              		.loc 1 930 85
 1062 000c 03F00302 		and	r2, r3, #3
 1063              		.loc 1 930 40
 1064 0010 7B68     		ldr	r3, [r7, #4]
 1065 0012 5A60     		str	r2, [r3, #4]
 931:Drivers/STM32L4xx_HAL_Driver/Src/stm32l4xx_hal_rcc_ex.c **** #if defined(RCC_PLLSAI1M_DIV_1_16_SUPPORT)
 932:Drivers/STM32L4xx_HAL_Driver/Src/stm32l4xx_hal_rcc_ex.c ****   PeriphClkInit->PLLSAI1.PLLSAI1M = (READ_BIT(RCC->PLLSAI1CFGR, RCC_PLLSAI1CFGR_PLLSAI1M) >> RCC_PL
 1066              		.loc 1 932 38
 1067 0014 834B     		ldr	r3, .L74
 1068 0016 1B69     		ldr	r3, [r3, #16]
 1069              		.loc 1 932 91
 1070 0018 1B09     		lsrs	r3, r3, #4
 1071 001a 03F00F03 		and	r3, r3, #15
 1072              		.loc 1 932 124
 1073 001e 5A1C     		adds	r2, r3, #1
 1074              		.loc 1 932 35
 1075 0020 7B68     		ldr	r3, [r7, #4]
 1076 0022 9A60     		str	r2, [r3, #8]
 933:Drivers/STM32L4xx_HAL_Driver/Src/stm32l4xx_hal_rcc_ex.c **** #else
 934:Drivers/STM32L4xx_HAL_Driver/Src/stm32l4xx_hal_rcc_ex.c ****   PeriphClkInit->PLLSAI1.PLLSAI1M = (READ_BIT(RCC->PLLCFGR, RCC_PLLCFGR_PLLM) >> RCC_PLLCFGR_PLLM_P
 935:Drivers/STM32L4xx_HAL_Driver/Src/stm32l4xx_hal_rcc_ex.c **** #endif /* RCC_PLLSAI1M_DIV_1_16_SUPPORT */
 936:Drivers/STM32L4xx_HAL_Driver/Src/stm32l4xx_hal_rcc_ex.c ****   PeriphClkInit->PLLSAI1.PLLSAI1N = READ_BIT(RCC->PLLSAI1CFGR, RCC_PLLSAI1CFGR_PLLSAI1N) >> RCC_PLL
 1077              		.loc 1 936 37
 1078 0024 7F4B     		ldr	r3, .L74
 1079 0026 1B69     		ldr	r3, [r3, #16]
 1080              		.loc 1 936 90
 1081 0028 1B0A     		lsrs	r3, r3, #8
 1082 002a 03F07F02 		and	r2, r3, #127
 1083              		.loc 1 936 35
 1084 002e 7B68     		ldr	r3, [r7, #4]
 1085 0030 DA60     		str	r2, [r3, #12]
 937:Drivers/STM32L4xx_HAL_Driver/Src/stm32l4xx_hal_rcc_ex.c ****   PeriphClkInit->PLLSAI1.PLLSAI1P = ((READ_BIT(RCC->PLLSAI1CFGR, RCC_PLLSAI1CFGR_PLLSAI1P) >> RCC_P
 1086              		.loc 1 937 39
 1087 0032 7C4B     		ldr	r3, .L74
 1088 0034 1B69     		ldr	r3, [r3, #16]
 1089              		.loc 1 937 92
 1090 0036 5B0C     		lsrs	r3, r3, #17
 1091              		.loc 1 937 125
 1092 0038 1B01     		lsls	r3, r3, #4
 1093 003a 03F01003 		and	r3, r3, #16
 1094              		.loc 1 937 132
 1095 003e DA1D     		adds	r2, r3, #7
 1096              		.loc 1 937 35
 1097 0040 7B68     		ldr	r3, [r7, #4]
 1098 0042 1A61     		str	r2, [r3, #16]
 938:Drivers/STM32L4xx_HAL_Driver/Src/stm32l4xx_hal_rcc_ex.c ****   PeriphClkInit->PLLSAI1.PLLSAI1Q = ((READ_BIT(RCC->PLLSAI1CFGR, RCC_PLLSAI1CFGR_PLLSAI1Q) >> RCC_P
 1099              		.loc 1 938 39
 1100 0044 774B     		ldr	r3, .L74
 1101 0046 1B69     		ldr	r3, [r3, #16]
 1102              		.loc 1 938 92
 1103 0048 5B0D     		lsrs	r3, r3, #21
 1104 004a 03F00303 		and	r3, r3, #3
 1105              		.loc 1 938 125
 1106 004e 0133     		adds	r3, r3, #1
 1107              		.loc 1 938 131
 1108 0050 5A00     		lsls	r2, r3, #1
 1109              		.loc 1 938 35
ARM GAS  C:\Users\Morroway\AppData\Local\Temp\ccOmimY8.s 			page 37


 1110 0052 7B68     		ldr	r3, [r7, #4]
 1111 0054 5A61     		str	r2, [r3, #20]
 939:Drivers/STM32L4xx_HAL_Driver/Src/stm32l4xx_hal_rcc_ex.c ****   PeriphClkInit->PLLSAI1.PLLSAI1R = ((READ_BIT(RCC->PLLSAI1CFGR, RCC_PLLSAI1CFGR_PLLSAI1R) >> RCC_P
 1112              		.loc 1 939 39
 1113 0056 734B     		ldr	r3, .L74
 1114 0058 1B69     		ldr	r3, [r3, #16]
 1115              		.loc 1 939 92
 1116 005a 5B0E     		lsrs	r3, r3, #25
 1117 005c 03F00303 		and	r3, r3, #3
 1118              		.loc 1 939 125
 1119 0060 0133     		adds	r3, r3, #1
 1120              		.loc 1 939 131
 1121 0062 5A00     		lsls	r2, r3, #1
 1122              		.loc 1 939 35
 1123 0064 7B68     		ldr	r3, [r7, #4]
 1124 0066 9A61     		str	r2, [r3, #24]
 940:Drivers/STM32L4xx_HAL_Driver/Src/stm32l4xx_hal_rcc_ex.c **** 
 941:Drivers/STM32L4xx_HAL_Driver/Src/stm32l4xx_hal_rcc_ex.c **** #endif /* RCC_PLLSAI1_SUPPORT */
 942:Drivers/STM32L4xx_HAL_Driver/Src/stm32l4xx_hal_rcc_ex.c **** 
 943:Drivers/STM32L4xx_HAL_Driver/Src/stm32l4xx_hal_rcc_ex.c **** #if defined(RCC_PLLSAI2_SUPPORT)
 944:Drivers/STM32L4xx_HAL_Driver/Src/stm32l4xx_hal_rcc_ex.c **** 
 945:Drivers/STM32L4xx_HAL_Driver/Src/stm32l4xx_hal_rcc_ex.c ****   /* Get the PLLSAI2 Clock configuration -----------------------------------------------*/
 946:Drivers/STM32L4xx_HAL_Driver/Src/stm32l4xx_hal_rcc_ex.c **** 
 947:Drivers/STM32L4xx_HAL_Driver/Src/stm32l4xx_hal_rcc_ex.c ****   PeriphClkInit->PLLSAI2.PLLSAI2Source = PeriphClkInit->PLLSAI1.PLLSAI1Source;
 1125              		.loc 1 947 64
 1126 0068 7B68     		ldr	r3, [r7, #4]
 1127 006a 5A68     		ldr	r2, [r3, #4]
 1128              		.loc 1 947 40
 1129 006c 7B68     		ldr	r3, [r7, #4]
 1130 006e 1A62     		str	r2, [r3, #32]
 948:Drivers/STM32L4xx_HAL_Driver/Src/stm32l4xx_hal_rcc_ex.c **** #if defined(RCC_PLLSAI2M_DIV_1_16_SUPPORT)
 949:Drivers/STM32L4xx_HAL_Driver/Src/stm32l4xx_hal_rcc_ex.c ****   PeriphClkInit->PLLSAI2.PLLSAI2M = (READ_BIT(RCC->PLLSAI2CFGR, RCC_PLLSAI2CFGR_PLLSAI2M) >> RCC_PL
 1131              		.loc 1 949 38
 1132 0070 6C4B     		ldr	r3, .L74
 1133 0072 5B69     		ldr	r3, [r3, #20]
 1134              		.loc 1 949 91
 1135 0074 1B09     		lsrs	r3, r3, #4
 1136 0076 03F00F03 		and	r3, r3, #15
 1137              		.loc 1 949 124
 1138 007a 5A1C     		adds	r2, r3, #1
 1139              		.loc 1 949 35
 1140 007c 7B68     		ldr	r3, [r7, #4]
 1141 007e 5A62     		str	r2, [r3, #36]
 950:Drivers/STM32L4xx_HAL_Driver/Src/stm32l4xx_hal_rcc_ex.c **** #else
 951:Drivers/STM32L4xx_HAL_Driver/Src/stm32l4xx_hal_rcc_ex.c ****   PeriphClkInit->PLLSAI2.PLLSAI2M = PeriphClkInit->PLLSAI1.PLLSAI1M;
 952:Drivers/STM32L4xx_HAL_Driver/Src/stm32l4xx_hal_rcc_ex.c **** #endif /* RCC_PLLSAI2M_DIV_1_16_SUPPORT */
 953:Drivers/STM32L4xx_HAL_Driver/Src/stm32l4xx_hal_rcc_ex.c ****   PeriphClkInit->PLLSAI2.PLLSAI2N = READ_BIT(RCC->PLLSAI2CFGR, RCC_PLLSAI2CFGR_PLLSAI2N) >> RCC_PLL
 1142              		.loc 1 953 37
 1143 0080 684B     		ldr	r3, .L74
 1144 0082 5B69     		ldr	r3, [r3, #20]
 1145              		.loc 1 953 90
 1146 0084 1B0A     		lsrs	r3, r3, #8
 1147 0086 03F07F02 		and	r2, r3, #127
 1148              		.loc 1 953 35
 1149 008a 7B68     		ldr	r3, [r7, #4]
 1150 008c 9A62     		str	r2, [r3, #40]
 954:Drivers/STM32L4xx_HAL_Driver/Src/stm32l4xx_hal_rcc_ex.c ****   PeriphClkInit->PLLSAI2.PLLSAI2P = ((READ_BIT(RCC->PLLSAI2CFGR, RCC_PLLSAI2CFGR_PLLSAI2P) >> RCC_P
ARM GAS  C:\Users\Morroway\AppData\Local\Temp\ccOmimY8.s 			page 38


 1151              		.loc 1 954 39
 1152 008e 654B     		ldr	r3, .L74
 1153 0090 5B69     		ldr	r3, [r3, #20]
 1154              		.loc 1 954 92
 1155 0092 5B0C     		lsrs	r3, r3, #17
 1156              		.loc 1 954 125
 1157 0094 1B01     		lsls	r3, r3, #4
 1158 0096 03F01003 		and	r3, r3, #16
 1159              		.loc 1 954 132
 1160 009a DA1D     		adds	r2, r3, #7
 1161              		.loc 1 954 35
 1162 009c 7B68     		ldr	r3, [r7, #4]
 1163 009e DA62     		str	r2, [r3, #44]
 955:Drivers/STM32L4xx_HAL_Driver/Src/stm32l4xx_hal_rcc_ex.c **** #if defined(RCC_PLLSAI2Q_DIV_SUPPORT)
 956:Drivers/STM32L4xx_HAL_Driver/Src/stm32l4xx_hal_rcc_ex.c ****   PeriphClkInit->PLLSAI2.PLLSAI2Q = ((READ_BIT(RCC->PLLSAI2CFGR, RCC_PLLSAI2CFGR_PLLSAI2Q) >> RCC_P
 1164              		.loc 1 956 39
 1165 00a0 604B     		ldr	r3, .L74
 1166 00a2 5B69     		ldr	r3, [r3, #20]
 1167              		.loc 1 956 92
 1168 00a4 5B0D     		lsrs	r3, r3, #21
 1169 00a6 03F00303 		and	r3, r3, #3
 1170              		.loc 1 956 125
 1171 00aa 0133     		adds	r3, r3, #1
 1172              		.loc 1 956 131
 1173 00ac 5A00     		lsls	r2, r3, #1
 1174              		.loc 1 956 35
 1175 00ae 7B68     		ldr	r3, [r7, #4]
 1176 00b0 1A63     		str	r2, [r3, #48]
 957:Drivers/STM32L4xx_HAL_Driver/Src/stm32l4xx_hal_rcc_ex.c **** #endif /* RCC_PLLSAI2Q_DIV_SUPPORT */
 958:Drivers/STM32L4xx_HAL_Driver/Src/stm32l4xx_hal_rcc_ex.c ****   PeriphClkInit->PLLSAI2.PLLSAI2R = ((READ_BIT(RCC->PLLSAI2CFGR, RCC_PLLSAI2CFGR_PLLSAI2R)>> RCC_PL
 1177              		.loc 1 958 39
 1178 00b2 5C4B     		ldr	r3, .L74
 1179 00b4 5B69     		ldr	r3, [r3, #20]
 1180              		.loc 1 958 91
 1181 00b6 5B0E     		lsrs	r3, r3, #25
 1182 00b8 03F00303 		and	r3, r3, #3
 1183              		.loc 1 958 124
 1184 00bc 0133     		adds	r3, r3, #1
 1185              		.loc 1 958 130
 1186 00be 5A00     		lsls	r2, r3, #1
 1187              		.loc 1 958 35
 1188 00c0 7B68     		ldr	r3, [r7, #4]
 1189 00c2 5A63     		str	r2, [r3, #52]
 959:Drivers/STM32L4xx_HAL_Driver/Src/stm32l4xx_hal_rcc_ex.c **** 
 960:Drivers/STM32L4xx_HAL_Driver/Src/stm32l4xx_hal_rcc_ex.c **** #endif /* RCC_PLLSAI2_SUPPORT */
 961:Drivers/STM32L4xx_HAL_Driver/Src/stm32l4xx_hal_rcc_ex.c **** 
 962:Drivers/STM32L4xx_HAL_Driver/Src/stm32l4xx_hal_rcc_ex.c ****   /* Get the USART1 clock source ---------------------------------------------*/
 963:Drivers/STM32L4xx_HAL_Driver/Src/stm32l4xx_hal_rcc_ex.c ****   PeriphClkInit->Usart1ClockSelection  = __HAL_RCC_GET_USART1_SOURCE();
 1190              		.loc 1 963 42
 1191 00c4 574B     		ldr	r3, .L74
 1192 00c6 D3F88830 		ldr	r3, [r3, #136]
 1193 00ca 03F00302 		and	r2, r3, #3
 1194              		.loc 1 963 40
 1195 00ce 7B68     		ldr	r3, [r7, #4]
 1196 00d0 DA63     		str	r2, [r3, #60]
 964:Drivers/STM32L4xx_HAL_Driver/Src/stm32l4xx_hal_rcc_ex.c ****   /* Get the USART2 clock source ---------------------------------------------*/
 965:Drivers/STM32L4xx_HAL_Driver/Src/stm32l4xx_hal_rcc_ex.c ****   PeriphClkInit->Usart2ClockSelection  = __HAL_RCC_GET_USART2_SOURCE();
ARM GAS  C:\Users\Morroway\AppData\Local\Temp\ccOmimY8.s 			page 39


 1197              		.loc 1 965 42
 1198 00d2 544B     		ldr	r3, .L74
 1199 00d4 D3F88830 		ldr	r3, [r3, #136]
 1200 00d8 03F00C02 		and	r2, r3, #12
 1201              		.loc 1 965 40
 1202 00dc 7B68     		ldr	r3, [r7, #4]
 1203 00de 1A64     		str	r2, [r3, #64]
 966:Drivers/STM32L4xx_HAL_Driver/Src/stm32l4xx_hal_rcc_ex.c **** 
 967:Drivers/STM32L4xx_HAL_Driver/Src/stm32l4xx_hal_rcc_ex.c **** #if defined(USART3)
 968:Drivers/STM32L4xx_HAL_Driver/Src/stm32l4xx_hal_rcc_ex.c ****   /* Get the USART3 clock source ---------------------------------------------*/
 969:Drivers/STM32L4xx_HAL_Driver/Src/stm32l4xx_hal_rcc_ex.c ****   PeriphClkInit->Usart3ClockSelection  = __HAL_RCC_GET_USART3_SOURCE();
 1204              		.loc 1 969 42
 1205 00e0 504B     		ldr	r3, .L74
 1206 00e2 D3F88830 		ldr	r3, [r3, #136]
 1207 00e6 03F03002 		and	r2, r3, #48
 1208              		.loc 1 969 40
 1209 00ea 7B68     		ldr	r3, [r7, #4]
 1210 00ec 5A64     		str	r2, [r3, #68]
 970:Drivers/STM32L4xx_HAL_Driver/Src/stm32l4xx_hal_rcc_ex.c **** #endif /* USART3 */
 971:Drivers/STM32L4xx_HAL_Driver/Src/stm32l4xx_hal_rcc_ex.c **** 
 972:Drivers/STM32L4xx_HAL_Driver/Src/stm32l4xx_hal_rcc_ex.c **** #if defined(UART4)
 973:Drivers/STM32L4xx_HAL_Driver/Src/stm32l4xx_hal_rcc_ex.c ****   /* Get the UART4 clock source ----------------------------------------------*/
 974:Drivers/STM32L4xx_HAL_Driver/Src/stm32l4xx_hal_rcc_ex.c ****   PeriphClkInit->Uart4ClockSelection   = __HAL_RCC_GET_UART4_SOURCE();
 1211              		.loc 1 974 42
 1212 00ee 4D4B     		ldr	r3, .L74
 1213 00f0 D3F88830 		ldr	r3, [r3, #136]
 1214 00f4 03F0C002 		and	r2, r3, #192
 1215              		.loc 1 974 40
 1216 00f8 7B68     		ldr	r3, [r7, #4]
 1217 00fa 9A64     		str	r2, [r3, #72]
 975:Drivers/STM32L4xx_HAL_Driver/Src/stm32l4xx_hal_rcc_ex.c **** #endif /* UART4 */
 976:Drivers/STM32L4xx_HAL_Driver/Src/stm32l4xx_hal_rcc_ex.c **** 
 977:Drivers/STM32L4xx_HAL_Driver/Src/stm32l4xx_hal_rcc_ex.c **** #if defined(UART5)
 978:Drivers/STM32L4xx_HAL_Driver/Src/stm32l4xx_hal_rcc_ex.c ****   /* Get the UART5 clock source ----------------------------------------------*/
 979:Drivers/STM32L4xx_HAL_Driver/Src/stm32l4xx_hal_rcc_ex.c ****   PeriphClkInit->Uart5ClockSelection   = __HAL_RCC_GET_UART5_SOURCE();
 1218              		.loc 1 979 42
 1219 00fc 494B     		ldr	r3, .L74
 1220 00fe D3F88830 		ldr	r3, [r3, #136]
 1221 0102 03F44072 		and	r2, r3, #768
 1222              		.loc 1 979 40
 1223 0106 7B68     		ldr	r3, [r7, #4]
 1224 0108 DA64     		str	r2, [r3, #76]
 980:Drivers/STM32L4xx_HAL_Driver/Src/stm32l4xx_hal_rcc_ex.c **** #endif /* UART5 */
 981:Drivers/STM32L4xx_HAL_Driver/Src/stm32l4xx_hal_rcc_ex.c **** 
 982:Drivers/STM32L4xx_HAL_Driver/Src/stm32l4xx_hal_rcc_ex.c ****   /* Get the LPUART1 clock source --------------------------------------------*/
 983:Drivers/STM32L4xx_HAL_Driver/Src/stm32l4xx_hal_rcc_ex.c ****   PeriphClkInit->Lpuart1ClockSelection = __HAL_RCC_GET_LPUART1_SOURCE();
 1225              		.loc 1 983 42
 1226 010a 464B     		ldr	r3, .L74
 1227 010c D3F88830 		ldr	r3, [r3, #136]
 1228 0110 03F44062 		and	r2, r3, #3072
 1229              		.loc 1 983 40
 1230 0114 7B68     		ldr	r3, [r7, #4]
 1231 0116 1A65     		str	r2, [r3, #80]
 984:Drivers/STM32L4xx_HAL_Driver/Src/stm32l4xx_hal_rcc_ex.c **** 
 985:Drivers/STM32L4xx_HAL_Driver/Src/stm32l4xx_hal_rcc_ex.c ****   /* Get the I2C1 clock source -----------------------------------------------*/
 986:Drivers/STM32L4xx_HAL_Driver/Src/stm32l4xx_hal_rcc_ex.c ****   PeriphClkInit->I2c1ClockSelection    = __HAL_RCC_GET_I2C1_SOURCE();
 1232              		.loc 1 986 42
ARM GAS  C:\Users\Morroway\AppData\Local\Temp\ccOmimY8.s 			page 40


 1233 0118 424B     		ldr	r3, .L74
 1234 011a D3F88830 		ldr	r3, [r3, #136]
 1235 011e 03F44052 		and	r2, r3, #12288
 1236              		.loc 1 986 40
 1237 0122 7B68     		ldr	r3, [r7, #4]
 1238 0124 5A65     		str	r2, [r3, #84]
 987:Drivers/STM32L4xx_HAL_Driver/Src/stm32l4xx_hal_rcc_ex.c **** 
 988:Drivers/STM32L4xx_HAL_Driver/Src/stm32l4xx_hal_rcc_ex.c **** #if defined(I2C2)
 989:Drivers/STM32L4xx_HAL_Driver/Src/stm32l4xx_hal_rcc_ex.c ****    /* Get the I2C2 clock source ----------------------------------------------*/
 990:Drivers/STM32L4xx_HAL_Driver/Src/stm32l4xx_hal_rcc_ex.c ****   PeriphClkInit->I2c2ClockSelection    = __HAL_RCC_GET_I2C2_SOURCE();
 1239              		.loc 1 990 42
 1240 0126 3F4B     		ldr	r3, .L74
 1241 0128 D3F88830 		ldr	r3, [r3, #136]
 1242 012c 03F44042 		and	r2, r3, #49152
 1243              		.loc 1 990 40
 1244 0130 7B68     		ldr	r3, [r7, #4]
 1245 0132 9A65     		str	r2, [r3, #88]
 991:Drivers/STM32L4xx_HAL_Driver/Src/stm32l4xx_hal_rcc_ex.c **** #endif /* I2C2 */
 992:Drivers/STM32L4xx_HAL_Driver/Src/stm32l4xx_hal_rcc_ex.c **** 
 993:Drivers/STM32L4xx_HAL_Driver/Src/stm32l4xx_hal_rcc_ex.c ****   /* Get the I2C3 clock source -----------------------------------------------*/
 994:Drivers/STM32L4xx_HAL_Driver/Src/stm32l4xx_hal_rcc_ex.c ****   PeriphClkInit->I2c3ClockSelection    = __HAL_RCC_GET_I2C3_SOURCE();
 1246              		.loc 1 994 42
 1247 0134 3B4B     		ldr	r3, .L74
 1248 0136 D3F88830 		ldr	r3, [r3, #136]
 1249 013a 03F44032 		and	r2, r3, #196608
 1250              		.loc 1 994 40
 1251 013e 7B68     		ldr	r3, [r7, #4]
 1252 0140 DA65     		str	r2, [r3, #92]
 995:Drivers/STM32L4xx_HAL_Driver/Src/stm32l4xx_hal_rcc_ex.c **** 
 996:Drivers/STM32L4xx_HAL_Driver/Src/stm32l4xx_hal_rcc_ex.c **** #if defined(I2C4)
 997:Drivers/STM32L4xx_HAL_Driver/Src/stm32l4xx_hal_rcc_ex.c ****   /* Get the I2C4 clock source -----------------------------------------------*/
 998:Drivers/STM32L4xx_HAL_Driver/Src/stm32l4xx_hal_rcc_ex.c ****   PeriphClkInit->I2c4ClockSelection    = __HAL_RCC_GET_I2C4_SOURCE();
 1253              		.loc 1 998 42
 1254 0142 384B     		ldr	r3, .L74
 1255 0144 D3F89C30 		ldr	r3, [r3, #156]
 1256 0148 03F00302 		and	r2, r3, #3
 1257              		.loc 1 998 40
 1258 014c 7B68     		ldr	r3, [r7, #4]
 1259 014e 1A66     		str	r2, [r3, #96]
 999:Drivers/STM32L4xx_HAL_Driver/Src/stm32l4xx_hal_rcc_ex.c **** #endif /* I2C4 */
1000:Drivers/STM32L4xx_HAL_Driver/Src/stm32l4xx_hal_rcc_ex.c **** 
1001:Drivers/STM32L4xx_HAL_Driver/Src/stm32l4xx_hal_rcc_ex.c ****   /* Get the LPTIM1 clock source ---------------------------------------------*/
1002:Drivers/STM32L4xx_HAL_Driver/Src/stm32l4xx_hal_rcc_ex.c ****   PeriphClkInit->Lptim1ClockSelection  = __HAL_RCC_GET_LPTIM1_SOURCE();
 1260              		.loc 1 1002 42
 1261 0150 344B     		ldr	r3, .L74
 1262 0152 D3F88830 		ldr	r3, [r3, #136]
 1263 0156 03F44022 		and	r2, r3, #786432
 1264              		.loc 1 1002 40
 1265 015a 7B68     		ldr	r3, [r7, #4]
 1266 015c 5A66     		str	r2, [r3, #100]
1003:Drivers/STM32L4xx_HAL_Driver/Src/stm32l4xx_hal_rcc_ex.c **** 
1004:Drivers/STM32L4xx_HAL_Driver/Src/stm32l4xx_hal_rcc_ex.c ****   /* Get the LPTIM2 clock source ---------------------------------------------*/
1005:Drivers/STM32L4xx_HAL_Driver/Src/stm32l4xx_hal_rcc_ex.c ****   PeriphClkInit->Lptim2ClockSelection  = __HAL_RCC_GET_LPTIM2_SOURCE();
 1267              		.loc 1 1005 42
 1268 015e 314B     		ldr	r3, .L74
 1269 0160 D3F88830 		ldr	r3, [r3, #136]
 1270 0164 03F44012 		and	r2, r3, #3145728
ARM GAS  C:\Users\Morroway\AppData\Local\Temp\ccOmimY8.s 			page 41


 1271              		.loc 1 1005 40
 1272 0168 7B68     		ldr	r3, [r7, #4]
 1273 016a 9A66     		str	r2, [r3, #104]
1006:Drivers/STM32L4xx_HAL_Driver/Src/stm32l4xx_hal_rcc_ex.c **** 
1007:Drivers/STM32L4xx_HAL_Driver/Src/stm32l4xx_hal_rcc_ex.c **** #if defined(SAI1)
1008:Drivers/STM32L4xx_HAL_Driver/Src/stm32l4xx_hal_rcc_ex.c ****   /* Get the SAI1 clock source -----------------------------------------------*/
1009:Drivers/STM32L4xx_HAL_Driver/Src/stm32l4xx_hal_rcc_ex.c ****   PeriphClkInit->Sai1ClockSelection    = __HAL_RCC_GET_SAI1_SOURCE();
 1274              		.loc 1 1009 42
 1275 016c 2D4B     		ldr	r3, .L74
 1276 016e D3F89C30 		ldr	r3, [r3, #156]
 1277 0172 03F0E002 		and	r2, r3, #224
 1278              		.loc 1 1009 40
 1279 0176 7B68     		ldr	r3, [r7, #4]
 1280 0178 DA66     		str	r2, [r3, #108]
1010:Drivers/STM32L4xx_HAL_Driver/Src/stm32l4xx_hal_rcc_ex.c **** #endif /* SAI1 */
1011:Drivers/STM32L4xx_HAL_Driver/Src/stm32l4xx_hal_rcc_ex.c **** 
1012:Drivers/STM32L4xx_HAL_Driver/Src/stm32l4xx_hal_rcc_ex.c **** #if defined(SAI2)
1013:Drivers/STM32L4xx_HAL_Driver/Src/stm32l4xx_hal_rcc_ex.c ****   /* Get the SAI2 clock source -----------------------------------------------*/
1014:Drivers/STM32L4xx_HAL_Driver/Src/stm32l4xx_hal_rcc_ex.c ****   PeriphClkInit->Sai2ClockSelection    = __HAL_RCC_GET_SAI2_SOURCE();
 1281              		.loc 1 1014 42
 1282 017a 2A4B     		ldr	r3, .L74
 1283 017c D3F89C30 		ldr	r3, [r3, #156]
 1284 0180 03F4E062 		and	r2, r3, #1792
 1285              		.loc 1 1014 40
 1286 0184 7B68     		ldr	r3, [r7, #4]
 1287 0186 1A67     		str	r2, [r3, #112]
1015:Drivers/STM32L4xx_HAL_Driver/Src/stm32l4xx_hal_rcc_ex.c **** #endif /* SAI2 */
1016:Drivers/STM32L4xx_HAL_Driver/Src/stm32l4xx_hal_rcc_ex.c **** 
1017:Drivers/STM32L4xx_HAL_Driver/Src/stm32l4xx_hal_rcc_ex.c ****   /* Get the RTC clock source ------------------------------------------------*/
1018:Drivers/STM32L4xx_HAL_Driver/Src/stm32l4xx_hal_rcc_ex.c ****   PeriphClkInit->RTCClockSelection     = __HAL_RCC_GET_RTC_SOURCE();
 1288              		.loc 1 1018 42
 1289 0188 264B     		ldr	r3, .L74
 1290 018a D3F89030 		ldr	r3, [r3, #144]
 1291 018e 03F44072 		and	r2, r3, #768
 1292              		.loc 1 1018 40
 1293 0192 7B68     		ldr	r3, [r7, #4]
 1294 0194 C3F89420 		str	r2, [r3, #148]
1019:Drivers/STM32L4xx_HAL_Driver/Src/stm32l4xx_hal_rcc_ex.c **** 
1020:Drivers/STM32L4xx_HAL_Driver/Src/stm32l4xx_hal_rcc_ex.c **** #if defined(USB_OTG_FS) || defined(USB)
1021:Drivers/STM32L4xx_HAL_Driver/Src/stm32l4xx_hal_rcc_ex.c ****   /* Get the USB clock source ------------------------------------------------*/
1022:Drivers/STM32L4xx_HAL_Driver/Src/stm32l4xx_hal_rcc_ex.c ****   PeriphClkInit->UsbClockSelection   = __HAL_RCC_GET_USB_SOURCE();
 1295              		.loc 1 1022 40
 1296 0198 224B     		ldr	r3, .L74
 1297 019a D3F88830 		ldr	r3, [r3, #136]
 1298 019e 03F04062 		and	r2, r3, #201326592
 1299              		.loc 1 1022 38
 1300 01a2 7B68     		ldr	r3, [r7, #4]
 1301 01a4 5A67     		str	r2, [r3, #116]
1023:Drivers/STM32L4xx_HAL_Driver/Src/stm32l4xx_hal_rcc_ex.c **** #endif /* USB_OTG_FS || USB */
1024:Drivers/STM32L4xx_HAL_Driver/Src/stm32l4xx_hal_rcc_ex.c **** 
1025:Drivers/STM32L4xx_HAL_Driver/Src/stm32l4xx_hal_rcc_ex.c **** #if defined(SDMMC1)
1026:Drivers/STM32L4xx_HAL_Driver/Src/stm32l4xx_hal_rcc_ex.c ****   /* Get the SDMMC1 clock source ---------------------------------------------*/
1027:Drivers/STM32L4xx_HAL_Driver/Src/stm32l4xx_hal_rcc_ex.c ****   PeriphClkInit->Sdmmc1ClockSelection   = __HAL_RCC_GET_SDMMC1_SOURCE();
 1302              		.loc 1 1027 43
 1303 01a6 1F4B     		ldr	r3, .L74
 1304 01a8 D3F89C30 		ldr	r3, [r3, #156]
 1305 01ac 03F48043 		and	r3, r3, #16384
ARM GAS  C:\Users\Morroway\AppData\Local\Temp\ccOmimY8.s 			page 42


 1306 01b0 002B     		cmp	r3, #0
 1307 01b2 05D1     		bne	.L72
 1308              		.loc 1 1027 43 is_stmt 0 discriminator 1
 1309 01b4 1B4B     		ldr	r3, .L74
 1310 01b6 D3F88830 		ldr	r3, [r3, #136]
 1311 01ba 03F04063 		and	r3, r3, #201326592
 1312 01be 01E0     		b	.L73
 1313              	.L72:
 1314              		.loc 1 1027 43 discriminator 2
 1315 01c0 4FF48043 		mov	r3, #16384
 1316              	.L73:
 1317              		.loc 1 1027 41 is_stmt 1 discriminator 4
 1318 01c4 7A68     		ldr	r2, [r7, #4]
 1319 01c6 9367     		str	r3, [r2, #120]
1028:Drivers/STM32L4xx_HAL_Driver/Src/stm32l4xx_hal_rcc_ex.c **** #endif /* SDMMC1 */
1029:Drivers/STM32L4xx_HAL_Driver/Src/stm32l4xx_hal_rcc_ex.c **** 
1030:Drivers/STM32L4xx_HAL_Driver/Src/stm32l4xx_hal_rcc_ex.c ****   /* Get the RNG clock source ------------------------------------------------*/
1031:Drivers/STM32L4xx_HAL_Driver/Src/stm32l4xx_hal_rcc_ex.c ****   PeriphClkInit->RngClockSelection   = __HAL_RCC_GET_RNG_SOURCE();
 1320              		.loc 1 1031 40 discriminator 4
 1321 01c8 164B     		ldr	r3, .L74
 1322 01ca D3F88830 		ldr	r3, [r3, #136]
 1323 01ce 03F04062 		and	r2, r3, #201326592
 1324              		.loc 1 1031 38 discriminator 4
 1325 01d2 7B68     		ldr	r3, [r7, #4]
 1326 01d4 DA67     		str	r2, [r3, #124]
1032:Drivers/STM32L4xx_HAL_Driver/Src/stm32l4xx_hal_rcc_ex.c **** 
1033:Drivers/STM32L4xx_HAL_Driver/Src/stm32l4xx_hal_rcc_ex.c **** #if !defined(STM32L412xx) && !defined(STM32L422xx)
1034:Drivers/STM32L4xx_HAL_Driver/Src/stm32l4xx_hal_rcc_ex.c ****   /* Get the ADC clock source ------------------------------------------------*/
1035:Drivers/STM32L4xx_HAL_Driver/Src/stm32l4xx_hal_rcc_ex.c ****   PeriphClkInit->AdcClockSelection     = __HAL_RCC_GET_ADC_SOURCE();
 1327              		.loc 1 1035 42 discriminator 4
 1328 01d6 134B     		ldr	r3, .L74
 1329 01d8 D3F88830 		ldr	r3, [r3, #136]
 1330 01dc 03F04052 		and	r2, r3, #805306368
 1331              		.loc 1 1035 40 discriminator 4
 1332 01e0 7B68     		ldr	r3, [r7, #4]
 1333 01e2 C3F88020 		str	r2, [r3, #128]
1036:Drivers/STM32L4xx_HAL_Driver/Src/stm32l4xx_hal_rcc_ex.c **** #endif /* !STM32L412xx && !STM32L422xx */
1037:Drivers/STM32L4xx_HAL_Driver/Src/stm32l4xx_hal_rcc_ex.c **** 
1038:Drivers/STM32L4xx_HAL_Driver/Src/stm32l4xx_hal_rcc_ex.c **** #if defined(SWPMI1)
1039:Drivers/STM32L4xx_HAL_Driver/Src/stm32l4xx_hal_rcc_ex.c ****   /* Get the SWPMI1 clock source ---------------------------------------------*/
1040:Drivers/STM32L4xx_HAL_Driver/Src/stm32l4xx_hal_rcc_ex.c ****   PeriphClkInit->Swpmi1ClockSelection  = __HAL_RCC_GET_SWPMI1_SOURCE();
1041:Drivers/STM32L4xx_HAL_Driver/Src/stm32l4xx_hal_rcc_ex.c **** #endif /* SWPMI1 */
1042:Drivers/STM32L4xx_HAL_Driver/Src/stm32l4xx_hal_rcc_ex.c **** 
1043:Drivers/STM32L4xx_HAL_Driver/Src/stm32l4xx_hal_rcc_ex.c **** #if defined(DFSDM1_Filter0)
1044:Drivers/STM32L4xx_HAL_Driver/Src/stm32l4xx_hal_rcc_ex.c ****   /* Get the DFSDM1 clock source ---------------------------------------------*/
1045:Drivers/STM32L4xx_HAL_Driver/Src/stm32l4xx_hal_rcc_ex.c ****   PeriphClkInit->Dfsdm1ClockSelection  = __HAL_RCC_GET_DFSDM1_SOURCE();
 1334              		.loc 1 1045 42 discriminator 4
 1335 01e6 0F4B     		ldr	r3, .L74
 1336 01e8 D3F89C30 		ldr	r3, [r3, #156]
 1337 01ec 03F00402 		and	r2, r3, #4
 1338              		.loc 1 1045 40 discriminator 4
 1339 01f0 7B68     		ldr	r3, [r7, #4]
 1340 01f2 C3F88420 		str	r2, [r3, #132]
1046:Drivers/STM32L4xx_HAL_Driver/Src/stm32l4xx_hal_rcc_ex.c **** 
1047:Drivers/STM32L4xx_HAL_Driver/Src/stm32l4xx_hal_rcc_ex.c **** #if defined(STM32L4R5xx) || defined(STM32L4R7xx) || defined(STM32L4R9xx) || defined(STM32L4S5xx) ||
1048:Drivers/STM32L4xx_HAL_Driver/Src/stm32l4xx_hal_rcc_ex.c ****   /* Get the DFSDM1 audio clock source ---------------------------------------*/
1049:Drivers/STM32L4xx_HAL_Driver/Src/stm32l4xx_hal_rcc_ex.c ****   PeriphClkInit->Dfsdm1AudioClockSelection  = __HAL_RCC_GET_DFSDM1AUDIO_SOURCE();
ARM GAS  C:\Users\Morroway\AppData\Local\Temp\ccOmimY8.s 			page 43


1050:Drivers/STM32L4xx_HAL_Driver/Src/stm32l4xx_hal_rcc_ex.c **** #endif /* STM32L4R5xx || STM32L4R7xx || STM32L4R9xx || STM32L4S5xx || STM32L4S7xx || STM32L4S9xx */
1051:Drivers/STM32L4xx_HAL_Driver/Src/stm32l4xx_hal_rcc_ex.c **** #endif /* DFSDM1_Filter0 */
1052:Drivers/STM32L4xx_HAL_Driver/Src/stm32l4xx_hal_rcc_ex.c **** 
1053:Drivers/STM32L4xx_HAL_Driver/Src/stm32l4xx_hal_rcc_ex.c **** #if defined(LTDC)
1054:Drivers/STM32L4xx_HAL_Driver/Src/stm32l4xx_hal_rcc_ex.c ****   /* Get the LTDC clock source -----------------------------------------------*/
1055:Drivers/STM32L4xx_HAL_Driver/Src/stm32l4xx_hal_rcc_ex.c ****   PeriphClkInit->LtdcClockSelection = __HAL_RCC_GET_LTDC_SOURCE();
 1341              		.loc 1 1055 39 discriminator 4
 1342 01f6 0B4B     		ldr	r3, .L74
 1343 01f8 D3F89C30 		ldr	r3, [r3, #156]
 1344 01fc 03F44032 		and	r2, r3, #196608
 1345              		.loc 1 1055 37 discriminator 4
 1346 0200 7B68     		ldr	r3, [r7, #4]
 1347 0202 C3F88C20 		str	r2, [r3, #140]
1056:Drivers/STM32L4xx_HAL_Driver/Src/stm32l4xx_hal_rcc_ex.c **** #endif /* LTDC */
1057:Drivers/STM32L4xx_HAL_Driver/Src/stm32l4xx_hal_rcc_ex.c **** 
1058:Drivers/STM32L4xx_HAL_Driver/Src/stm32l4xx_hal_rcc_ex.c **** #if defined(DSI)
1059:Drivers/STM32L4xx_HAL_Driver/Src/stm32l4xx_hal_rcc_ex.c ****   /* Get the DSI clock source ------------------------------------------------*/
1060:Drivers/STM32L4xx_HAL_Driver/Src/stm32l4xx_hal_rcc_ex.c ****   PeriphClkInit->DsiClockSelection = __HAL_RCC_GET_DSI_SOURCE();
1061:Drivers/STM32L4xx_HAL_Driver/Src/stm32l4xx_hal_rcc_ex.c **** #endif /* DSI */
1062:Drivers/STM32L4xx_HAL_Driver/Src/stm32l4xx_hal_rcc_ex.c **** 
1063:Drivers/STM32L4xx_HAL_Driver/Src/stm32l4xx_hal_rcc_ex.c **** #if defined(OCTOSPI1) || defined(OCTOSPI2)
1064:Drivers/STM32L4xx_HAL_Driver/Src/stm32l4xx_hal_rcc_ex.c ****   /* Get the OctoSPIclock source --------------------------------------------*/
1065:Drivers/STM32L4xx_HAL_Driver/Src/stm32l4xx_hal_rcc_ex.c ****   PeriphClkInit->OspiClockSelection = __HAL_RCC_GET_OSPI_SOURCE();
 1348              		.loc 1 1065 39 discriminator 4
 1349 0206 074B     		ldr	r3, .L74
 1350 0208 D3F89C30 		ldr	r3, [r3, #156]
 1351 020c 03F44012 		and	r2, r3, #3145728
 1352              		.loc 1 1065 37 discriminator 4
 1353 0210 7B68     		ldr	r3, [r7, #4]
 1354 0212 C3F89020 		str	r2, [r3, #144]
1066:Drivers/STM32L4xx_HAL_Driver/Src/stm32l4xx_hal_rcc_ex.c **** #endif /* OCTOSPI1 || OCTOSPI2 */
1067:Drivers/STM32L4xx_HAL_Driver/Src/stm32l4xx_hal_rcc_ex.c **** }
 1355              		.loc 1 1067 1 discriminator 4
 1356 0216 00BF     		nop
 1357 0218 0C37     		adds	r7, r7, #12
 1358              		.cfi_def_cfa_offset 4
 1359 021a BD46     		mov	sp, r7
 1360              		.cfi_def_cfa_register 13
 1361              		@ sp needed
 1362 021c 5DF8047B 		ldr	r7, [sp], #4
 1363              		.cfi_restore 7
 1364              		.cfi_def_cfa_offset 0
 1365 0220 7047     		bx	lr
 1366              	.L75:
 1367 0222 00BF     		.align	2
 1368              	.L74:
 1369 0224 00100240 		.word	1073876992
 1370              		.cfi_endproc
 1371              	.LFE322:
 1373              		.section	.text.HAL_RCCEx_GetPeriphCLKFreq,"ax",%progbits
 1374              		.align	1
 1375              		.global	HAL_RCCEx_GetPeriphCLKFreq
 1376              		.syntax unified
 1377              		.thumb
 1378              		.thumb_func
 1380              	HAL_RCCEx_GetPeriphCLKFreq:
 1381              	.LFB323:
ARM GAS  C:\Users\Morroway\AppData\Local\Temp\ccOmimY8.s 			page 44


1068:Drivers/STM32L4xx_HAL_Driver/Src/stm32l4xx_hal_rcc_ex.c **** 
1069:Drivers/STM32L4xx_HAL_Driver/Src/stm32l4xx_hal_rcc_ex.c **** /**
1070:Drivers/STM32L4xx_HAL_Driver/Src/stm32l4xx_hal_rcc_ex.c ****   * @brief  Return the peripheral clock frequency for peripherals with clock source from PLLSAIs
1071:Drivers/STM32L4xx_HAL_Driver/Src/stm32l4xx_hal_rcc_ex.c ****   * @note   Return 0 if peripheral clock identifier not managed by this API
1072:Drivers/STM32L4xx_HAL_Driver/Src/stm32l4xx_hal_rcc_ex.c ****   * @param  PeriphClk  Peripheral clock identifier
1073:Drivers/STM32L4xx_HAL_Driver/Src/stm32l4xx_hal_rcc_ex.c ****   *         This parameter can be one of the following values:
1074:Drivers/STM32L4xx_HAL_Driver/Src/stm32l4xx_hal_rcc_ex.c ****   *            @arg @ref RCC_PERIPHCLK_RTC  RTC peripheral clock
1075:Drivers/STM32L4xx_HAL_Driver/Src/stm32l4xx_hal_rcc_ex.c ****   *            @arg @ref RCC_PERIPHCLK_ADC  ADC peripheral clock
1076:Drivers/STM32L4xx_HAL_Driver/Src/stm32l4xx_hal_rcc_ex.c ****   @if STM32L462xx
1077:Drivers/STM32L4xx_HAL_Driver/Src/stm32l4xx_hal_rcc_ex.c ****   *            @arg @ref RCC_PERIPHCLK_DFSDM1  DFSDM1 peripheral clock (only for devices with DFSDM
1078:Drivers/STM32L4xx_HAL_Driver/Src/stm32l4xx_hal_rcc_ex.c ****   @endif
1079:Drivers/STM32L4xx_HAL_Driver/Src/stm32l4xx_hal_rcc_ex.c ****   @if STM32L486xx
1080:Drivers/STM32L4xx_HAL_Driver/Src/stm32l4xx_hal_rcc_ex.c ****   *            @arg @ref RCC_PERIPHCLK_DFSDM1  DFSDM1 peripheral clock (only for devices with DFSDM
1081:Drivers/STM32L4xx_HAL_Driver/Src/stm32l4xx_hal_rcc_ex.c ****   @endif
1082:Drivers/STM32L4xx_HAL_Driver/Src/stm32l4xx_hal_rcc_ex.c ****   @if STM32L4A6xx
1083:Drivers/STM32L4xx_HAL_Driver/Src/stm32l4xx_hal_rcc_ex.c ****   *            @arg @ref RCC_PERIPHCLK_DFSDM1  DFSDM1 peripheral clock (only for devices with DFSDM
1084:Drivers/STM32L4xx_HAL_Driver/Src/stm32l4xx_hal_rcc_ex.c ****   @endif
1085:Drivers/STM32L4xx_HAL_Driver/Src/stm32l4xx_hal_rcc_ex.c ****   *            @arg @ref RCC_PERIPHCLK_I2C1  I2C1 peripheral clock
1086:Drivers/STM32L4xx_HAL_Driver/Src/stm32l4xx_hal_rcc_ex.c ****   *            @arg @ref RCC_PERIPHCLK_I2C2  I2C2 peripheral clock
1087:Drivers/STM32L4xx_HAL_Driver/Src/stm32l4xx_hal_rcc_ex.c ****   *            @arg @ref RCC_PERIPHCLK_I2C3  I2C3 peripheral clock
1088:Drivers/STM32L4xx_HAL_Driver/Src/stm32l4xx_hal_rcc_ex.c ****   @if STM32L462xx
1089:Drivers/STM32L4xx_HAL_Driver/Src/stm32l4xx_hal_rcc_ex.c ****   *            @arg @ref RCC_PERIPHCLK_I2C4  I2C4 peripheral clock (only for devices with I2C4)
1090:Drivers/STM32L4xx_HAL_Driver/Src/stm32l4xx_hal_rcc_ex.c ****   @endif
1091:Drivers/STM32L4xx_HAL_Driver/Src/stm32l4xx_hal_rcc_ex.c ****   @if STM32L4A6xx
1092:Drivers/STM32L4xx_HAL_Driver/Src/stm32l4xx_hal_rcc_ex.c ****   *            @arg @ref RCC_PERIPHCLK_I2C4  I2C4 peripheral clock (only for devices with I2C4)
1093:Drivers/STM32L4xx_HAL_Driver/Src/stm32l4xx_hal_rcc_ex.c ****   @endif
1094:Drivers/STM32L4xx_HAL_Driver/Src/stm32l4xx_hal_rcc_ex.c ****   @if STM32L4S9xx
1095:Drivers/STM32L4xx_HAL_Driver/Src/stm32l4xx_hal_rcc_ex.c ****   *            @arg @ref RCC_PERIPHCLK_I2C4  I2C4 peripheral clock (only for devices with I2C4)
1096:Drivers/STM32L4xx_HAL_Driver/Src/stm32l4xx_hal_rcc_ex.c ****   @endif
1097:Drivers/STM32L4xx_HAL_Driver/Src/stm32l4xx_hal_rcc_ex.c ****   *            @arg @ref RCC_PERIPHCLK_LPTIM1  LPTIM1 peripheral clock
1098:Drivers/STM32L4xx_HAL_Driver/Src/stm32l4xx_hal_rcc_ex.c ****   *            @arg @ref RCC_PERIPHCLK_LPTIM2  LPTIM2 peripheral clock
1099:Drivers/STM32L4xx_HAL_Driver/Src/stm32l4xx_hal_rcc_ex.c ****   *            @arg @ref RCC_PERIPHCLK_LPUART1  LPUART1 peripheral clock
1100:Drivers/STM32L4xx_HAL_Driver/Src/stm32l4xx_hal_rcc_ex.c ****   *            @arg @ref RCC_PERIPHCLK_RNG  RNG peripheral clock
1101:Drivers/STM32L4xx_HAL_Driver/Src/stm32l4xx_hal_rcc_ex.c ****   *            @arg @ref RCC_PERIPHCLK_SAI1  SAI1 peripheral clock (only for devices with SAI1)
1102:Drivers/STM32L4xx_HAL_Driver/Src/stm32l4xx_hal_rcc_ex.c ****   @if STM32L486xx
1103:Drivers/STM32L4xx_HAL_Driver/Src/stm32l4xx_hal_rcc_ex.c ****   *            @arg @ref RCC_PERIPHCLK_SAI2  SAI2 peripheral clock (only for devices with SAI2)
1104:Drivers/STM32L4xx_HAL_Driver/Src/stm32l4xx_hal_rcc_ex.c ****   @endif
1105:Drivers/STM32L4xx_HAL_Driver/Src/stm32l4xx_hal_rcc_ex.c ****   @if STM32L4A6xx
1106:Drivers/STM32L4xx_HAL_Driver/Src/stm32l4xx_hal_rcc_ex.c ****   *            @arg @ref RCC_PERIPHCLK_SAI2  SAI2 peripheral clock (only for devices with SAI2)
1107:Drivers/STM32L4xx_HAL_Driver/Src/stm32l4xx_hal_rcc_ex.c ****   @endif
1108:Drivers/STM32L4xx_HAL_Driver/Src/stm32l4xx_hal_rcc_ex.c ****   @if STM32L4S9xx
1109:Drivers/STM32L4xx_HAL_Driver/Src/stm32l4xx_hal_rcc_ex.c ****   *            @arg @ref RCC_PERIPHCLK_SAI2  SAI2 peripheral clock (only for devices with SAI2)
1110:Drivers/STM32L4xx_HAL_Driver/Src/stm32l4xx_hal_rcc_ex.c ****   @endif
1111:Drivers/STM32L4xx_HAL_Driver/Src/stm32l4xx_hal_rcc_ex.c ****   *            @arg @ref RCC_PERIPHCLK_SDMMC1  SDMMC1 peripheral clock
1112:Drivers/STM32L4xx_HAL_Driver/Src/stm32l4xx_hal_rcc_ex.c ****   @if STM32L443xx
1113:Drivers/STM32L4xx_HAL_Driver/Src/stm32l4xx_hal_rcc_ex.c ****   *            @arg @ref RCC_PERIPHCLK_SWPMI1  SWPMI1 peripheral clock (only for devices with SWPMI
1114:Drivers/STM32L4xx_HAL_Driver/Src/stm32l4xx_hal_rcc_ex.c ****   @endif
1115:Drivers/STM32L4xx_HAL_Driver/Src/stm32l4xx_hal_rcc_ex.c ****   @if STM32L486xx
1116:Drivers/STM32L4xx_HAL_Driver/Src/stm32l4xx_hal_rcc_ex.c ****   *            @arg @ref RCC_PERIPHCLK_SWPMI1  SWPMI1 peripheral clock (only for devices with SWPMI
1117:Drivers/STM32L4xx_HAL_Driver/Src/stm32l4xx_hal_rcc_ex.c ****   @endif
1118:Drivers/STM32L4xx_HAL_Driver/Src/stm32l4xx_hal_rcc_ex.c ****   @if STM32L4A6xx
1119:Drivers/STM32L4xx_HAL_Driver/Src/stm32l4xx_hal_rcc_ex.c ****   *            @arg @ref RCC_PERIPHCLK_SWPMI1  SWPMI1 peripheral clock (only for devices with SWPMI
1120:Drivers/STM32L4xx_HAL_Driver/Src/stm32l4xx_hal_rcc_ex.c ****   @endif
1121:Drivers/STM32L4xx_HAL_Driver/Src/stm32l4xx_hal_rcc_ex.c ****   *            @arg @ref RCC_PERIPHCLK_USART1  USART1 peripheral clock
1122:Drivers/STM32L4xx_HAL_Driver/Src/stm32l4xx_hal_rcc_ex.c ****   *            @arg @ref RCC_PERIPHCLK_USART2  USART1 peripheral clock
1123:Drivers/STM32L4xx_HAL_Driver/Src/stm32l4xx_hal_rcc_ex.c ****   *            @arg @ref RCC_PERIPHCLK_USART3  USART1 peripheral clock
1124:Drivers/STM32L4xx_HAL_Driver/Src/stm32l4xx_hal_rcc_ex.c ****   @if STM32L462xx
ARM GAS  C:\Users\Morroway\AppData\Local\Temp\ccOmimY8.s 			page 45


1125:Drivers/STM32L4xx_HAL_Driver/Src/stm32l4xx_hal_rcc_ex.c ****   *            @arg @ref RCC_PERIPHCLK_UART4  UART4 peripheral clock (only for devices with UART4)
1126:Drivers/STM32L4xx_HAL_Driver/Src/stm32l4xx_hal_rcc_ex.c ****   *            @arg @ref RCC_PERIPHCLK_USB  USB peripheral clock (only for devices with USB)
1127:Drivers/STM32L4xx_HAL_Driver/Src/stm32l4xx_hal_rcc_ex.c ****   @endif
1128:Drivers/STM32L4xx_HAL_Driver/Src/stm32l4xx_hal_rcc_ex.c ****   @if STM32L486xx
1129:Drivers/STM32L4xx_HAL_Driver/Src/stm32l4xx_hal_rcc_ex.c ****   *            @arg @ref RCC_PERIPHCLK_UART4  UART4 peripheral clock (only for devices with UART4)
1130:Drivers/STM32L4xx_HAL_Driver/Src/stm32l4xx_hal_rcc_ex.c ****   *            @arg @ref RCC_PERIPHCLK_UART5  UART5 peripheral clock (only for devices with UART5)
1131:Drivers/STM32L4xx_HAL_Driver/Src/stm32l4xx_hal_rcc_ex.c ****   *            @arg @ref RCC_PERIPHCLK_USB  USB peripheral clock (only for devices with USB)
1132:Drivers/STM32L4xx_HAL_Driver/Src/stm32l4xx_hal_rcc_ex.c ****   @endif
1133:Drivers/STM32L4xx_HAL_Driver/Src/stm32l4xx_hal_rcc_ex.c ****   @if STM32L4A6xx
1134:Drivers/STM32L4xx_HAL_Driver/Src/stm32l4xx_hal_rcc_ex.c ****   *            @arg @ref RCC_PERIPHCLK_UART4  UART4 peripheral clock (only for devices with UART4)
1135:Drivers/STM32L4xx_HAL_Driver/Src/stm32l4xx_hal_rcc_ex.c ****   *            @arg @ref RCC_PERIPHCLK_UART5  UART5 peripheral clock (only for devices with UART5)
1136:Drivers/STM32L4xx_HAL_Driver/Src/stm32l4xx_hal_rcc_ex.c ****   *            @arg @ref RCC_PERIPHCLK_USB  USB peripheral clock (only for devices with USB)
1137:Drivers/STM32L4xx_HAL_Driver/Src/stm32l4xx_hal_rcc_ex.c ****   @endif
1138:Drivers/STM32L4xx_HAL_Driver/Src/stm32l4xx_hal_rcc_ex.c ****   @if STM32L4S9xx
1139:Drivers/STM32L4xx_HAL_Driver/Src/stm32l4xx_hal_rcc_ex.c ****   *            @arg @ref RCC_PERIPHCLK_UART4  USART1 peripheral clock (only for devices with UART4)
1140:Drivers/STM32L4xx_HAL_Driver/Src/stm32l4xx_hal_rcc_ex.c ****   *            @arg @ref RCC_PERIPHCLK_UART5  USART1 peripheral clock (only for devices with UART5)
1141:Drivers/STM32L4xx_HAL_Driver/Src/stm32l4xx_hal_rcc_ex.c ****   *            @arg @ref RCC_PERIPHCLK_USB  USB peripheral clock (only for devices with USB)
1142:Drivers/STM32L4xx_HAL_Driver/Src/stm32l4xx_hal_rcc_ex.c ****   *            @arg @ref RCC_PERIPHCLK_DFSDM1  DFSDM1 peripheral kernel clock (only for devices wit
1143:Drivers/STM32L4xx_HAL_Driver/Src/stm32l4xx_hal_rcc_ex.c ****   *            @arg @ref RCC_PERIPHCLK_DFSDM1AUDIO  DFSDM1 peripheral audio clock (only for devices
1144:Drivers/STM32L4xx_HAL_Driver/Src/stm32l4xx_hal_rcc_ex.c ****   *            @arg @ref RCC_PERIPHCLK_LTDC  LTDC peripheral clock (only for devices with LTDC)
1145:Drivers/STM32L4xx_HAL_Driver/Src/stm32l4xx_hal_rcc_ex.c ****   *            @arg @ref RCC_PERIPHCLK_DSI  DSI peripheral clock (only for devices with DSI)
1146:Drivers/STM32L4xx_HAL_Driver/Src/stm32l4xx_hal_rcc_ex.c ****   *            @arg @ref RCC_PERIPHCLK_OSPI  OctoSPI peripheral clock (only for devices with OctoSP
1147:Drivers/STM32L4xx_HAL_Driver/Src/stm32l4xx_hal_rcc_ex.c ****   @endif
1148:Drivers/STM32L4xx_HAL_Driver/Src/stm32l4xx_hal_rcc_ex.c ****   * @retval Frequency in Hz
1149:Drivers/STM32L4xx_HAL_Driver/Src/stm32l4xx_hal_rcc_ex.c ****   */
1150:Drivers/STM32L4xx_HAL_Driver/Src/stm32l4xx_hal_rcc_ex.c **** uint32_t HAL_RCCEx_GetPeriphCLKFreq(uint32_t PeriphClk)
1151:Drivers/STM32L4xx_HAL_Driver/Src/stm32l4xx_hal_rcc_ex.c **** {
 1382              		.loc 1 1151 1
 1383              		.cfi_startproc
 1384              		@ args = 0, pretend = 0, frame = 32
 1385              		@ frame_needed = 1, uses_anonymous_args = 0
 1386 0000 80B5     		push	{r7, lr}
 1387              		.cfi_def_cfa_offset 8
 1388              		.cfi_offset 7, -8
 1389              		.cfi_offset 14, -4
 1390 0002 88B0     		sub	sp, sp, #32
 1391              		.cfi_def_cfa_offset 40
 1392 0004 00AF     		add	r7, sp, #0
 1393              		.cfi_def_cfa_register 7
 1394 0006 7860     		str	r0, [r7, #4]
1152:Drivers/STM32L4xx_HAL_Driver/Src/stm32l4xx_hal_rcc_ex.c ****   uint32_t frequency = 0U;
 1395              		.loc 1 1152 12
 1396 0008 0023     		movs	r3, #0
 1397 000a FB61     		str	r3, [r7, #28]
1153:Drivers/STM32L4xx_HAL_Driver/Src/stm32l4xx_hal_rcc_ex.c ****   uint32_t srcclk, pll_oscsource, pllvco, plln;    /* no init needed */
1154:Drivers/STM32L4xx_HAL_Driver/Src/stm32l4xx_hal_rcc_ex.c **** #if defined(SDMMC1) && defined(RCC_CCIPR2_SDMMCSEL)
1155:Drivers/STM32L4xx_HAL_Driver/Src/stm32l4xx_hal_rcc_ex.c ****   uint32_t pllp;  /* no init needed */
1156:Drivers/STM32L4xx_HAL_Driver/Src/stm32l4xx_hal_rcc_ex.c **** #endif
1157:Drivers/STM32L4xx_HAL_Driver/Src/stm32l4xx_hal_rcc_ex.c **** 
1158:Drivers/STM32L4xx_HAL_Driver/Src/stm32l4xx_hal_rcc_ex.c ****   /* Check the parameters */
1159:Drivers/STM32L4xx_HAL_Driver/Src/stm32l4xx_hal_rcc_ex.c ****   assert_param(IS_RCC_PERIPHCLOCK(PeriphClk));
1160:Drivers/STM32L4xx_HAL_Driver/Src/stm32l4xx_hal_rcc_ex.c **** 
1161:Drivers/STM32L4xx_HAL_Driver/Src/stm32l4xx_hal_rcc_ex.c ****   if(PeriphClk == RCC_PERIPHCLK_RTC)
 1398              		.loc 1 1161 5
 1399 000c 7B68     		ldr	r3, [r7, #4]
 1400 000e B3F5003F 		cmp	r3, #131072
 1401 0012 49D1     		bne	.L77
ARM GAS  C:\Users\Morroway\AppData\Local\Temp\ccOmimY8.s 			page 46


1162:Drivers/STM32L4xx_HAL_Driver/Src/stm32l4xx_hal_rcc_ex.c ****   {
1163:Drivers/STM32L4xx_HAL_Driver/Src/stm32l4xx_hal_rcc_ex.c ****     /* Get the current RTC source */
1164:Drivers/STM32L4xx_HAL_Driver/Src/stm32l4xx_hal_rcc_ex.c ****     srcclk = __HAL_RCC_GET_RTC_SOURCE();
 1402              		.loc 1 1164 14
 1403 0014 B34B     		ldr	r3, .L316
 1404 0016 D3F89030 		ldr	r3, [r3, #144]
 1405              		.loc 1 1164 12
 1406 001a 03F44073 		and	r3, r3, #768
 1407 001e FB60     		str	r3, [r7, #12]
1165:Drivers/STM32L4xx_HAL_Driver/Src/stm32l4xx_hal_rcc_ex.c **** 
1166:Drivers/STM32L4xx_HAL_Driver/Src/stm32l4xx_hal_rcc_ex.c ****     switch(srcclk)
 1408              		.loc 1 1166 5
 1409 0020 FB68     		ldr	r3, [r7, #12]
 1410 0022 B3F5407F 		cmp	r3, #768
 1411 0026 33D0     		beq	.L78
 1412 0028 FB68     		ldr	r3, [r7, #12]
 1413 002a B3F5407F 		cmp	r3, #768
 1414 002e 00F2BF86 		bhi	.L260
 1415 0032 FB68     		ldr	r3, [r7, #12]
 1416 0034 B3F5807F 		cmp	r3, #256
 1417 0038 05D0     		beq	.L80
 1418 003a FB68     		ldr	r3, [r7, #12]
 1419 003c B3F5007F 		cmp	r3, #512
 1420 0040 0ED0     		beq	.L81
1167:Drivers/STM32L4xx_HAL_Driver/Src/stm32l4xx_hal_rcc_ex.c ****     {
1168:Drivers/STM32L4xx_HAL_Driver/Src/stm32l4xx_hal_rcc_ex.c ****     case RCC_RTCCLKSOURCE_LSE:
1169:Drivers/STM32L4xx_HAL_Driver/Src/stm32l4xx_hal_rcc_ex.c ****       /* Check if LSE is ready */
1170:Drivers/STM32L4xx_HAL_Driver/Src/stm32l4xx_hal_rcc_ex.c ****       if(HAL_IS_BIT_SET(RCC->BDCR, RCC_BDCR_LSERDY))
1171:Drivers/STM32L4xx_HAL_Driver/Src/stm32l4xx_hal_rcc_ex.c ****       {
1172:Drivers/STM32L4xx_HAL_Driver/Src/stm32l4xx_hal_rcc_ex.c ****         frequency = LSE_VALUE;
1173:Drivers/STM32L4xx_HAL_Driver/Src/stm32l4xx_hal_rcc_ex.c ****       }
1174:Drivers/STM32L4xx_HAL_Driver/Src/stm32l4xx_hal_rcc_ex.c ****       break;
1175:Drivers/STM32L4xx_HAL_Driver/Src/stm32l4xx_hal_rcc_ex.c ****     case RCC_RTCCLKSOURCE_LSI:
1176:Drivers/STM32L4xx_HAL_Driver/Src/stm32l4xx_hal_rcc_ex.c ****       /* Check if LSI is ready */
1177:Drivers/STM32L4xx_HAL_Driver/Src/stm32l4xx_hal_rcc_ex.c ****       if(HAL_IS_BIT_SET(RCC->CSR, RCC_CSR_LSIRDY))
1178:Drivers/STM32L4xx_HAL_Driver/Src/stm32l4xx_hal_rcc_ex.c ****       {
1179:Drivers/STM32L4xx_HAL_Driver/Src/stm32l4xx_hal_rcc_ex.c **** #if defined(RCC_CSR_LSIPREDIV)
1180:Drivers/STM32L4xx_HAL_Driver/Src/stm32l4xx_hal_rcc_ex.c ****         if(HAL_IS_BIT_SET(RCC->CSR, RCC_CSR_LSIPREDIV))
1181:Drivers/STM32L4xx_HAL_Driver/Src/stm32l4xx_hal_rcc_ex.c ****         {
1182:Drivers/STM32L4xx_HAL_Driver/Src/stm32l4xx_hal_rcc_ex.c ****           frequency = LSI_VALUE/128U;
1183:Drivers/STM32L4xx_HAL_Driver/Src/stm32l4xx_hal_rcc_ex.c ****         }
1184:Drivers/STM32L4xx_HAL_Driver/Src/stm32l4xx_hal_rcc_ex.c ****         else
1185:Drivers/STM32L4xx_HAL_Driver/Src/stm32l4xx_hal_rcc_ex.c **** #endif /* RCC_CSR_LSIPREDIV */
1186:Drivers/STM32L4xx_HAL_Driver/Src/stm32l4xx_hal_rcc_ex.c ****         {
1187:Drivers/STM32L4xx_HAL_Driver/Src/stm32l4xx_hal_rcc_ex.c ****           frequency = LSI_VALUE;
1188:Drivers/STM32L4xx_HAL_Driver/Src/stm32l4xx_hal_rcc_ex.c ****         }
1189:Drivers/STM32L4xx_HAL_Driver/Src/stm32l4xx_hal_rcc_ex.c ****       }
1190:Drivers/STM32L4xx_HAL_Driver/Src/stm32l4xx_hal_rcc_ex.c ****       break;
1191:Drivers/STM32L4xx_HAL_Driver/Src/stm32l4xx_hal_rcc_ex.c ****     case RCC_RTCCLKSOURCE_HSE_DIV32:
1192:Drivers/STM32L4xx_HAL_Driver/Src/stm32l4xx_hal_rcc_ex.c ****       /* Check if HSE is ready */
1193:Drivers/STM32L4xx_HAL_Driver/Src/stm32l4xx_hal_rcc_ex.c ****       if(HAL_IS_BIT_SET(RCC->CR, RCC_CR_HSERDY))
1194:Drivers/STM32L4xx_HAL_Driver/Src/stm32l4xx_hal_rcc_ex.c ****       {
1195:Drivers/STM32L4xx_HAL_Driver/Src/stm32l4xx_hal_rcc_ex.c ****         frequency = HSE_VALUE / 32U;
1196:Drivers/STM32L4xx_HAL_Driver/Src/stm32l4xx_hal_rcc_ex.c ****       }
1197:Drivers/STM32L4xx_HAL_Driver/Src/stm32l4xx_hal_rcc_ex.c ****       break;
1198:Drivers/STM32L4xx_HAL_Driver/Src/stm32l4xx_hal_rcc_ex.c ****     default:
1199:Drivers/STM32L4xx_HAL_Driver/Src/stm32l4xx_hal_rcc_ex.c ****       /* No clock source, frequency default init at 0 */
ARM GAS  C:\Users\Morroway\AppData\Local\Temp\ccOmimY8.s 			page 47


1200:Drivers/STM32L4xx_HAL_Driver/Src/stm32l4xx_hal_rcc_ex.c ****       break;
 1421              		.loc 1 1200 7
 1422 0042 00F0B5BE 		b	.L260
 1423              	.L80:
1170:Drivers/STM32L4xx_HAL_Driver/Src/stm32l4xx_hal_rcc_ex.c ****       {
 1424              		.loc 1 1170 10
 1425 0046 A74B     		ldr	r3, .L316
 1426 0048 D3F89030 		ldr	r3, [r3, #144]
 1427 004c 03F00203 		and	r3, r3, #2
1170:Drivers/STM32L4xx_HAL_Driver/Src/stm32l4xx_hal_rcc_ex.c ****       {
 1428              		.loc 1 1170 9
 1429 0050 022B     		cmp	r3, #2
 1430 0052 40F0AF86 		bne	.L261
1172:Drivers/STM32L4xx_HAL_Driver/Src/stm32l4xx_hal_rcc_ex.c ****       }
 1431              		.loc 1 1172 19
 1432 0056 4FF40043 		mov	r3, #32768
 1433 005a FB61     		str	r3, [r7, #28]
1174:Drivers/STM32L4xx_HAL_Driver/Src/stm32l4xx_hal_rcc_ex.c ****     case RCC_RTCCLKSOURCE_LSI:
 1434              		.loc 1 1174 7
 1435 005c 00F0AABE 		b	.L261
 1436              	.L81:
1177:Drivers/STM32L4xx_HAL_Driver/Src/stm32l4xx_hal_rcc_ex.c ****       {
 1437              		.loc 1 1177 10
 1438 0060 A04B     		ldr	r3, .L316
 1439 0062 D3F89430 		ldr	r3, [r3, #148]
 1440 0066 03F00203 		and	r3, r3, #2
1177:Drivers/STM32L4xx_HAL_Driver/Src/stm32l4xx_hal_rcc_ex.c ****       {
 1441              		.loc 1 1177 9
 1442 006a 022B     		cmp	r3, #2
 1443 006c 40F0A486 		bne	.L262
1180:Drivers/STM32L4xx_HAL_Driver/Src/stm32l4xx_hal_rcc_ex.c ****         {
 1444              		.loc 1 1180 12
 1445 0070 9C4B     		ldr	r3, .L316
 1446 0072 D3F89430 		ldr	r3, [r3, #148]
 1447 0076 03F01003 		and	r3, r3, #16
1180:Drivers/STM32L4xx_HAL_Driver/Src/stm32l4xx_hal_rcc_ex.c ****         {
 1448              		.loc 1 1180 11
 1449 007a 102B     		cmp	r3, #16
 1450 007c 03D1     		bne	.L85
1182:Drivers/STM32L4xx_HAL_Driver/Src/stm32l4xx_hal_rcc_ex.c ****         }
 1451              		.loc 1 1182 21
 1452 007e FA23     		movs	r3, #250
 1453 0080 FB61     		str	r3, [r7, #28]
1190:Drivers/STM32L4xx_HAL_Driver/Src/stm32l4xx_hal_rcc_ex.c ****     case RCC_RTCCLKSOURCE_HSE_DIV32:
 1454              		.loc 1 1190 7
 1455 0082 00F099BE 		b	.L262
 1456              	.L85:
1187:Drivers/STM32L4xx_HAL_Driver/Src/stm32l4xx_hal_rcc_ex.c ****         }
 1457              		.loc 1 1187 21
 1458 0086 4FF4FA43 		mov	r3, #32000
 1459 008a FB61     		str	r3, [r7, #28]
1190:Drivers/STM32L4xx_HAL_Driver/Src/stm32l4xx_hal_rcc_ex.c ****     case RCC_RTCCLKSOURCE_HSE_DIV32:
 1460              		.loc 1 1190 7
 1461 008c 00F094BE 		b	.L262
 1462              	.L78:
1193:Drivers/STM32L4xx_HAL_Driver/Src/stm32l4xx_hal_rcc_ex.c ****       {
 1463              		.loc 1 1193 10
ARM GAS  C:\Users\Morroway\AppData\Local\Temp\ccOmimY8.s 			page 48


 1464 0090 944B     		ldr	r3, .L316
 1465 0092 1B68     		ldr	r3, [r3]
 1466 0094 03F40033 		and	r3, r3, #131072
1193:Drivers/STM32L4xx_HAL_Driver/Src/stm32l4xx_hal_rcc_ex.c ****       {
 1467              		.loc 1 1193 9
 1468 0098 B3F5003F 		cmp	r3, #131072
 1469 009c 40F08E86 		bne	.L263
1195:Drivers/STM32L4xx_HAL_Driver/Src/stm32l4xx_hal_rcc_ex.c ****       }
 1470              		.loc 1 1195 19
 1471 00a0 914B     		ldr	r3, .L316+4
 1472 00a2 FB61     		str	r3, [r7, #28]
1197:Drivers/STM32L4xx_HAL_Driver/Src/stm32l4xx_hal_rcc_ex.c ****     default:
 1473              		.loc 1 1197 7
 1474 00a4 00F08ABE 		b	.L263
 1475              	.L77:
1201:Drivers/STM32L4xx_HAL_Driver/Src/stm32l4xx_hal_rcc_ex.c ****     }
1202:Drivers/STM32L4xx_HAL_Driver/Src/stm32l4xx_hal_rcc_ex.c ****   }
1203:Drivers/STM32L4xx_HAL_Driver/Src/stm32l4xx_hal_rcc_ex.c ****   else
1204:Drivers/STM32L4xx_HAL_Driver/Src/stm32l4xx_hal_rcc_ex.c ****   {
1205:Drivers/STM32L4xx_HAL_Driver/Src/stm32l4xx_hal_rcc_ex.c ****     /* Other external peripheral clock source than RTC */
1206:Drivers/STM32L4xx_HAL_Driver/Src/stm32l4xx_hal_rcc_ex.c ****     pll_oscsource = __HAL_RCC_GET_PLL_OSCSOURCE();
 1476              		.loc 1 1206 21
 1477 00a8 8E4B     		ldr	r3, .L316
 1478 00aa DB68     		ldr	r3, [r3, #12]
 1479              		.loc 1 1206 19
 1480 00ac 03F00303 		and	r3, r3, #3
 1481 00b0 3B61     		str	r3, [r7, #16]
1207:Drivers/STM32L4xx_HAL_Driver/Src/stm32l4xx_hal_rcc_ex.c **** 
1208:Drivers/STM32L4xx_HAL_Driver/Src/stm32l4xx_hal_rcc_ex.c ****     /* Compute PLL clock input */
1209:Drivers/STM32L4xx_HAL_Driver/Src/stm32l4xx_hal_rcc_ex.c ****     switch(pll_oscsource)
 1482              		.loc 1 1209 5
 1483 00b2 3B69     		ldr	r3, [r7, #16]
 1484 00b4 032B     		cmp	r3, #3
 1485 00b6 36D0     		beq	.L88
 1486 00b8 3B69     		ldr	r3, [r7, #16]
 1487 00ba 032B     		cmp	r3, #3
 1488 00bc 40D8     		bhi	.L89
 1489 00be 3B69     		ldr	r3, [r7, #16]
 1490 00c0 012B     		cmp	r3, #1
 1491 00c2 03D0     		beq	.L90
 1492 00c4 3B69     		ldr	r3, [r7, #16]
 1493 00c6 022B     		cmp	r3, #2
 1494 00c8 20D0     		beq	.L91
 1495 00ca 39E0     		b	.L89
 1496              	.L90:
1210:Drivers/STM32L4xx_HAL_Driver/Src/stm32l4xx_hal_rcc_ex.c ****     {
1211:Drivers/STM32L4xx_HAL_Driver/Src/stm32l4xx_hal_rcc_ex.c ****     case RCC_PLLSOURCE_MSI:   /* MSI ? */
1212:Drivers/STM32L4xx_HAL_Driver/Src/stm32l4xx_hal_rcc_ex.c ****       if(HAL_IS_BIT_SET(RCC->CR, RCC_CR_MSIRDY))
 1497              		.loc 1 1212 10
 1498 00cc 854B     		ldr	r3, .L316
 1499 00ce 1B68     		ldr	r3, [r3]
 1500 00d0 03F00203 		and	r3, r3, #2
 1501              		.loc 1 1212 9
 1502 00d4 022B     		cmp	r3, #2
 1503 00d6 16D1     		bne	.L92
1213:Drivers/STM32L4xx_HAL_Driver/Src/stm32l4xx_hal_rcc_ex.c ****       {
1214:Drivers/STM32L4xx_HAL_Driver/Src/stm32l4xx_hal_rcc_ex.c ****         /*MSI frequency range in HZ*/
ARM GAS  C:\Users\Morroway\AppData\Local\Temp\ccOmimY8.s 			page 49


1215:Drivers/STM32L4xx_HAL_Driver/Src/stm32l4xx_hal_rcc_ex.c ****         pllvco = MSIRangeTable[(__HAL_RCC_GET_MSI_RANGE() >> 4U)];
 1504              		.loc 1 1215 33
 1505 00d8 824B     		ldr	r3, .L316
 1506 00da 1B68     		ldr	r3, [r3]
 1507 00dc 03F00803 		and	r3, r3, #8
 1508              		.loc 1 1215 59
 1509 00e0 002B     		cmp	r3, #0
 1510 00e2 05D0     		beq	.L93
 1511              		.loc 1 1215 33 discriminator 1
 1512 00e4 7F4B     		ldr	r3, .L316
 1513 00e6 1B68     		ldr	r3, [r3]
 1514              		.loc 1 1215 59 discriminator 1
 1515 00e8 1B09     		lsrs	r3, r3, #4
 1516 00ea 03F00F03 		and	r3, r3, #15
 1517 00ee 05E0     		b	.L94
 1518              	.L93:
 1519              		.loc 1 1215 33 discriminator 2
 1520 00f0 7C4B     		ldr	r3, .L316
 1521 00f2 D3F89430 		ldr	r3, [r3, #148]
 1522              		.loc 1 1215 59 discriminator 2
 1523 00f6 1B0A     		lsrs	r3, r3, #8
 1524 00f8 03F00F03 		and	r3, r3, #15
 1525              	.L94:
 1526              		.loc 1 1215 16 discriminator 4
 1527 00fc 7B4A     		ldr	r2, .L316+8
 1528 00fe 52F82330 		ldr	r3, [r2, r3, lsl #2]
 1529 0102 BB61     		str	r3, [r7, #24]
1216:Drivers/STM32L4xx_HAL_Driver/Src/stm32l4xx_hal_rcc_ex.c ****       }
1217:Drivers/STM32L4xx_HAL_Driver/Src/stm32l4xx_hal_rcc_ex.c ****       else
1218:Drivers/STM32L4xx_HAL_Driver/Src/stm32l4xx_hal_rcc_ex.c ****       {
1219:Drivers/STM32L4xx_HAL_Driver/Src/stm32l4xx_hal_rcc_ex.c ****         pllvco = 0U;
1220:Drivers/STM32L4xx_HAL_Driver/Src/stm32l4xx_hal_rcc_ex.c ****       }
1221:Drivers/STM32L4xx_HAL_Driver/Src/stm32l4xx_hal_rcc_ex.c ****       break;
 1530              		.loc 1 1221 7 discriminator 4
 1531 0104 1FE0     		b	.L96
 1532              	.L92:
1219:Drivers/STM32L4xx_HAL_Driver/Src/stm32l4xx_hal_rcc_ex.c ****       }
 1533              		.loc 1 1219 16
 1534 0106 0023     		movs	r3, #0
 1535 0108 BB61     		str	r3, [r7, #24]
 1536              		.loc 1 1221 7
 1537 010a 1CE0     		b	.L96
 1538              	.L91:
1222:Drivers/STM32L4xx_HAL_Driver/Src/stm32l4xx_hal_rcc_ex.c ****     case RCC_PLLSOURCE_HSI:   /* HSI ? */
1223:Drivers/STM32L4xx_HAL_Driver/Src/stm32l4xx_hal_rcc_ex.c ****       if(HAL_IS_BIT_SET(RCC->CR, RCC_CR_HSIRDY))
 1539              		.loc 1 1223 10
 1540 010c 754B     		ldr	r3, .L316
 1541 010e 1B68     		ldr	r3, [r3]
 1542 0110 03F48063 		and	r3, r3, #1024
 1543              		.loc 1 1223 9
 1544 0114 B3F5806F 		cmp	r3, #1024
 1545 0118 02D1     		bne	.L97
1224:Drivers/STM32L4xx_HAL_Driver/Src/stm32l4xx_hal_rcc_ex.c ****       {
1225:Drivers/STM32L4xx_HAL_Driver/Src/stm32l4xx_hal_rcc_ex.c ****         pllvco = HSI_VALUE;
 1546              		.loc 1 1225 16
 1547 011a 754B     		ldr	r3, .L316+12
 1548 011c BB61     		str	r3, [r7, #24]
ARM GAS  C:\Users\Morroway\AppData\Local\Temp\ccOmimY8.s 			page 50


1226:Drivers/STM32L4xx_HAL_Driver/Src/stm32l4xx_hal_rcc_ex.c ****       }
1227:Drivers/STM32L4xx_HAL_Driver/Src/stm32l4xx_hal_rcc_ex.c ****       else
1228:Drivers/STM32L4xx_HAL_Driver/Src/stm32l4xx_hal_rcc_ex.c ****       {
1229:Drivers/STM32L4xx_HAL_Driver/Src/stm32l4xx_hal_rcc_ex.c ****         pllvco = 0U;
1230:Drivers/STM32L4xx_HAL_Driver/Src/stm32l4xx_hal_rcc_ex.c ****       }
1231:Drivers/STM32L4xx_HAL_Driver/Src/stm32l4xx_hal_rcc_ex.c ****       break;
 1549              		.loc 1 1231 7
 1550 011e 12E0     		b	.L96
 1551              	.L97:
1229:Drivers/STM32L4xx_HAL_Driver/Src/stm32l4xx_hal_rcc_ex.c ****       }
 1552              		.loc 1 1229 16
 1553 0120 0023     		movs	r3, #0
 1554 0122 BB61     		str	r3, [r7, #24]
 1555              		.loc 1 1231 7
 1556 0124 0FE0     		b	.L96
 1557              	.L88:
1232:Drivers/STM32L4xx_HAL_Driver/Src/stm32l4xx_hal_rcc_ex.c ****     case RCC_PLLSOURCE_HSE:   /* HSE ? */
1233:Drivers/STM32L4xx_HAL_Driver/Src/stm32l4xx_hal_rcc_ex.c ****       if(HAL_IS_BIT_SET(RCC->CR, RCC_CR_HSERDY))
 1558              		.loc 1 1233 10
 1559 0126 6F4B     		ldr	r3, .L316
 1560 0128 1B68     		ldr	r3, [r3]
 1561 012a 03F40033 		and	r3, r3, #131072
 1562              		.loc 1 1233 9
 1563 012e B3F5003F 		cmp	r3, #131072
 1564 0132 02D1     		bne	.L99
1234:Drivers/STM32L4xx_HAL_Driver/Src/stm32l4xx_hal_rcc_ex.c ****       {
1235:Drivers/STM32L4xx_HAL_Driver/Src/stm32l4xx_hal_rcc_ex.c ****         pllvco = HSE_VALUE;
 1565              		.loc 1 1235 16
 1566 0134 6F4B     		ldr	r3, .L316+16
 1567 0136 BB61     		str	r3, [r7, #24]
1236:Drivers/STM32L4xx_HAL_Driver/Src/stm32l4xx_hal_rcc_ex.c ****       }
1237:Drivers/STM32L4xx_HAL_Driver/Src/stm32l4xx_hal_rcc_ex.c ****       else
1238:Drivers/STM32L4xx_HAL_Driver/Src/stm32l4xx_hal_rcc_ex.c ****       {
1239:Drivers/STM32L4xx_HAL_Driver/Src/stm32l4xx_hal_rcc_ex.c ****         pllvco = 0U;
1240:Drivers/STM32L4xx_HAL_Driver/Src/stm32l4xx_hal_rcc_ex.c ****       }
1241:Drivers/STM32L4xx_HAL_Driver/Src/stm32l4xx_hal_rcc_ex.c ****       break;
 1568              		.loc 1 1241 7
 1569 0138 05E0     		b	.L96
 1570              	.L99:
1239:Drivers/STM32L4xx_HAL_Driver/Src/stm32l4xx_hal_rcc_ex.c ****       }
 1571              		.loc 1 1239 16
 1572 013a 0023     		movs	r3, #0
 1573 013c BB61     		str	r3, [r7, #24]
 1574              		.loc 1 1241 7
 1575 013e 02E0     		b	.L96
 1576              	.L89:
1242:Drivers/STM32L4xx_HAL_Driver/Src/stm32l4xx_hal_rcc_ex.c ****     default:
1243:Drivers/STM32L4xx_HAL_Driver/Src/stm32l4xx_hal_rcc_ex.c ****       /* No source */
1244:Drivers/STM32L4xx_HAL_Driver/Src/stm32l4xx_hal_rcc_ex.c ****       pllvco = 0U;
 1577              		.loc 1 1244 14
 1578 0140 0023     		movs	r3, #0
 1579 0142 BB61     		str	r3, [r7, #24]
1245:Drivers/STM32L4xx_HAL_Driver/Src/stm32l4xx_hal_rcc_ex.c ****       break;
 1580              		.loc 1 1245 7
 1581 0144 00BF     		nop
 1582              	.L96:
1246:Drivers/STM32L4xx_HAL_Driver/Src/stm32l4xx_hal_rcc_ex.c ****     }
ARM GAS  C:\Users\Morroway\AppData\Local\Temp\ccOmimY8.s 			page 51


1247:Drivers/STM32L4xx_HAL_Driver/Src/stm32l4xx_hal_rcc_ex.c **** 
1248:Drivers/STM32L4xx_HAL_Driver/Src/stm32l4xx_hal_rcc_ex.c ****     switch(PeriphClk)
 1583              		.loc 1 1248 5
 1584 0146 7B68     		ldr	r3, [r7, #4]
 1585 0148 B3F1807F 		cmp	r3, #16777216
 1586 014c 00F0C185 		beq	.L101
 1587 0150 7B68     		ldr	r3, [r7, #4]
 1588 0152 B3F1807F 		cmp	r3, #16777216
 1589 0156 00F23386 		bhi	.L264
 1590 015a 7B68     		ldr	r3, [r7, #4]
 1591 015c B3F5801F 		cmp	r3, #1048576
 1592 0160 00F0E684 		beq	.L103
 1593 0164 7B68     		ldr	r3, [r7, #4]
 1594 0166 B3F5801F 		cmp	r3, #1048576
 1595 016a 00F22986 		bhi	.L264
 1596 016e 7B68     		ldr	r3, [r7, #4]
 1597 0170 B3F5002F 		cmp	r3, #524288
 1598 0174 00F08681 		beq	.L104
 1599 0178 7B68     		ldr	r3, [r7, #4]
 1600 017a B3F5002F 		cmp	r3, #524288
 1601 017e 00F21F86 		bhi	.L264
 1602 0182 7B68     		ldr	r3, [r7, #4]
 1603 0184 B3F5802F 		cmp	r3, #262144
 1604 0188 00F0CC80 		beq	.L105
 1605 018c 7B68     		ldr	r3, [r7, #4]
 1606 018e B3F5802F 		cmp	r3, #262144
 1607 0192 00F21586 		bhi	.L264
 1608 0196 7B68     		ldr	r3, [r7, #4]
 1609 0198 B3F5803F 		cmp	r3, #65536
 1610 019c 00F02F84 		beq	.L106
 1611 01a0 7B68     		ldr	r3, [r7, #4]
 1612 01a2 B3F5803F 		cmp	r3, #65536
 1613 01a6 00F20B86 		bhi	.L264
 1614 01aa 7B68     		ldr	r3, [r7, #4]
 1615 01ac B3F5804F 		cmp	r3, #16384
 1616 01b0 00F0E383 		beq	.L107
 1617 01b4 7B68     		ldr	r3, [r7, #4]
 1618 01b6 B3F5804F 		cmp	r3, #16384
 1619 01ba 00F20186 		bhi	.L264
 1620 01be 7B68     		ldr	r3, [r7, #4]
 1621 01c0 B3F5005F 		cmp	r3, #8192
 1622 01c4 00F0AE80 		beq	.L105
 1623 01c8 7B68     		ldr	r3, [r7, #4]
 1624 01ca B3F5005F 		cmp	r3, #8192
 1625 01ce 00F2F785 		bhi	.L264
 1626 01d2 7B68     		ldr	r3, [r7, #4]
 1627 01d4 B3F5805F 		cmp	r3, #4096
 1628 01d8 00F09C80 		beq	.L108
 1629 01dc 7B68     		ldr	r3, [r7, #4]
 1630 01de B3F5805F 		cmp	r3, #4096
 1631 01e2 00F2ED85 		bhi	.L264
 1632 01e6 7B68     		ldr	r3, [r7, #4]
 1633 01e8 B3F5006F 		cmp	r3, #2048
 1634 01ec 00F08A80 		beq	.L109
 1635 01f0 7B68     		ldr	r3, [r7, #4]
 1636 01f2 B3F5006F 		cmp	r3, #2048
 1637 01f6 00F2E385 		bhi	.L264
ARM GAS  C:\Users\Morroway\AppData\Local\Temp\ccOmimY8.s 			page 52


 1638 01fa 7B68     		ldr	r3, [r7, #4]
 1639 01fc B3F5806F 		cmp	r3, #1024
 1640 0200 00F01385 		beq	.L110
 1641 0204 7B68     		ldr	r3, [r7, #4]
 1642 0206 B3F5806F 		cmp	r3, #1024
 1643 020a 00F2D985 		bhi	.L264
 1644 020e 7B68     		ldr	r3, [r7, #4]
 1645 0210 B3F5007F 		cmp	r3, #512
 1646 0214 00F0B584 		beq	.L111
 1647 0218 7B68     		ldr	r3, [r7, #4]
 1648 021a B3F5007F 		cmp	r3, #512
 1649 021e 00F2CF85 		bhi	.L264
 1650 0222 7B68     		ldr	r3, [r7, #4]
 1651 0224 B3F5807F 		cmp	r3, #256
 1652 0228 00F05684 		beq	.L112
 1653 022c 7B68     		ldr	r3, [r7, #4]
 1654 022e B3F5807F 		cmp	r3, #256
 1655 0232 00F2C585 		bhi	.L264
 1656 0236 7B68     		ldr	r3, [r7, #4]
 1657 0238 802B     		cmp	r3, #128
 1658 023a 00F01D84 		beq	.L113
 1659 023e 7B68     		ldr	r3, [r7, #4]
 1660 0240 802B     		cmp	r3, #128
 1661 0242 00F2BD85 		bhi	.L264
 1662 0246 7B68     		ldr	r3, [r7, #4]
 1663 0248 202B     		cmp	r3, #32
 1664 024a 55D8     		bhi	.L114
 1665 024c 7B68     		ldr	r3, [r7, #4]
 1666 024e 002B     		cmp	r3, #0
 1667 0250 00F0B685 		beq	.L264
 1668 0254 7B68     		ldr	r3, [r7, #4]
 1669 0256 013B     		subs	r3, r3, #1
 1670 0258 1F2B     		cmp	r3, #31
 1671 025a 00F2B185 		bhi	.L264
 1672 025e 01A2     		adr	r2, .L116
 1673 0260 52F823F0 		ldr	pc, [r2, r3, lsl #2]
 1674              		.p2align 2
 1675              	.L116:
 1676 0264 79060000 		.word	.L121+1
 1677 0268 E7060000 		.word	.L120+1
 1678 026c C10D0000 		.word	.L264+1
 1679 0270 7B070000 		.word	.L119+1
 1680 0274 C10D0000 		.word	.L264+1
 1681 0278 C10D0000 		.word	.L264+1
 1682 027c C10D0000 		.word	.L264+1
 1683 0280 F3070000 		.word	.L118+1
 1684 0284 C10D0000 		.word	.L264+1
 1685 0288 C10D0000 		.word	.L264+1
 1686 028c C10D0000 		.word	.L264+1
 1687 0290 C10D0000 		.word	.L264+1
 1688 0294 C10D0000 		.word	.L264+1
 1689 0298 C10D0000 		.word	.L264+1
 1690 029c C10D0000 		.word	.L264+1
 1691 02a0 77080000 		.word	.L117+1
 1692 02a4 C10D0000 		.word	.L264+1
 1693 02a8 C10D0000 		.word	.L264+1
 1694 02ac C10D0000 		.word	.L264+1
ARM GAS  C:\Users\Morroway\AppData\Local\Temp\ccOmimY8.s 			page 53


 1695 02b0 C10D0000 		.word	.L264+1
 1696 02b4 C10D0000 		.word	.L264+1
 1697 02b8 C10D0000 		.word	.L264+1
 1698 02bc C10D0000 		.word	.L264+1
 1699 02c0 C10D0000 		.word	.L264+1
 1700 02c4 C10D0000 		.word	.L264+1
 1701 02c8 C10D0000 		.word	.L264+1
 1702 02cc C10D0000 		.word	.L264+1
 1703 02d0 C10D0000 		.word	.L264+1
 1704 02d4 C10D0000 		.word	.L264+1
 1705 02d8 C10D0000 		.word	.L264+1
 1706 02dc C10D0000 		.word	.L264+1
 1707 02e0 F9080000 		.word	.L115+1
 1708              		.p2align 1
 1709              	.L317:
 1710              		.align	2
 1711              	.L316:
 1712 02e4 00100240 		.word	1073876992
 1713 02e8 6CDC0200 		.word	187500
 1714 02ec 00000000 		.word	MSIRangeTable
 1715 02f0 0024F400 		.word	16000000
 1716 02f4 808D5B00 		.word	6000000
 1717              	.L114:
 1718 02f8 7B68     		ldr	r3, [r7, #4]
 1719 02fa 402B     		cmp	r3, #64
 1720 02fc 00F09083 		beq	.L122
1249:Drivers/STM32L4xx_HAL_Driver/Src/stm32l4xx_hal_rcc_ex.c ****     {
1250:Drivers/STM32L4xx_HAL_Driver/Src/stm32l4xx_hal_rcc_ex.c **** #if defined(SAI1)
1251:Drivers/STM32L4xx_HAL_Driver/Src/stm32l4xx_hal_rcc_ex.c **** 
1252:Drivers/STM32L4xx_HAL_Driver/Src/stm32l4xx_hal_rcc_ex.c ****     case RCC_PERIPHCLK_SAI1:
1253:Drivers/STM32L4xx_HAL_Driver/Src/stm32l4xx_hal_rcc_ex.c ****       frequency = RCCEx_GetSAIxPeriphCLKFreq(RCC_PERIPHCLK_SAI1, pllvco);
1254:Drivers/STM32L4xx_HAL_Driver/Src/stm32l4xx_hal_rcc_ex.c ****       break;
1255:Drivers/STM32L4xx_HAL_Driver/Src/stm32l4xx_hal_rcc_ex.c **** 
1256:Drivers/STM32L4xx_HAL_Driver/Src/stm32l4xx_hal_rcc_ex.c **** #endif
1257:Drivers/STM32L4xx_HAL_Driver/Src/stm32l4xx_hal_rcc_ex.c **** 
1258:Drivers/STM32L4xx_HAL_Driver/Src/stm32l4xx_hal_rcc_ex.c **** #if defined(SAI2)
1259:Drivers/STM32L4xx_HAL_Driver/Src/stm32l4xx_hal_rcc_ex.c **** 
1260:Drivers/STM32L4xx_HAL_Driver/Src/stm32l4xx_hal_rcc_ex.c ****     case RCC_PERIPHCLK_SAI2:
1261:Drivers/STM32L4xx_HAL_Driver/Src/stm32l4xx_hal_rcc_ex.c ****       frequency = RCCEx_GetSAIxPeriphCLKFreq(RCC_PERIPHCLK_SAI2, pllvco);
1262:Drivers/STM32L4xx_HAL_Driver/Src/stm32l4xx_hal_rcc_ex.c ****       break;
1263:Drivers/STM32L4xx_HAL_Driver/Src/stm32l4xx_hal_rcc_ex.c **** 
1264:Drivers/STM32L4xx_HAL_Driver/Src/stm32l4xx_hal_rcc_ex.c **** #endif
1265:Drivers/STM32L4xx_HAL_Driver/Src/stm32l4xx_hal_rcc_ex.c **** 
1266:Drivers/STM32L4xx_HAL_Driver/Src/stm32l4xx_hal_rcc_ex.c **** #if defined(USB_OTG_FS) || defined(USB)
1267:Drivers/STM32L4xx_HAL_Driver/Src/stm32l4xx_hal_rcc_ex.c **** 
1268:Drivers/STM32L4xx_HAL_Driver/Src/stm32l4xx_hal_rcc_ex.c ****     case RCC_PERIPHCLK_USB:
1269:Drivers/STM32L4xx_HAL_Driver/Src/stm32l4xx_hal_rcc_ex.c **** 
1270:Drivers/STM32L4xx_HAL_Driver/Src/stm32l4xx_hal_rcc_ex.c **** #endif /* USB_OTG_FS || USB */
1271:Drivers/STM32L4xx_HAL_Driver/Src/stm32l4xx_hal_rcc_ex.c **** 
1272:Drivers/STM32L4xx_HAL_Driver/Src/stm32l4xx_hal_rcc_ex.c ****     case RCC_PERIPHCLK_RNG:
1273:Drivers/STM32L4xx_HAL_Driver/Src/stm32l4xx_hal_rcc_ex.c **** 
1274:Drivers/STM32L4xx_HAL_Driver/Src/stm32l4xx_hal_rcc_ex.c **** #if defined(SDMMC1) && !defined(RCC_CCIPR2_SDMMCSEL)
1275:Drivers/STM32L4xx_HAL_Driver/Src/stm32l4xx_hal_rcc_ex.c **** 
1276:Drivers/STM32L4xx_HAL_Driver/Src/stm32l4xx_hal_rcc_ex.c ****     case RCC_PERIPHCLK_SDMMC1:
1277:Drivers/STM32L4xx_HAL_Driver/Src/stm32l4xx_hal_rcc_ex.c **** 
1278:Drivers/STM32L4xx_HAL_Driver/Src/stm32l4xx_hal_rcc_ex.c **** #endif /* SDMMC1 && !RCC_CCIPR2_SDMMCSEL */
1279:Drivers/STM32L4xx_HAL_Driver/Src/stm32l4xx_hal_rcc_ex.c ****       {
ARM GAS  C:\Users\Morroway\AppData\Local\Temp\ccOmimY8.s 			page 54


1280:Drivers/STM32L4xx_HAL_Driver/Src/stm32l4xx_hal_rcc_ex.c ****         srcclk = READ_BIT(RCC->CCIPR, RCC_CCIPR_CLK48SEL);
1281:Drivers/STM32L4xx_HAL_Driver/Src/stm32l4xx_hal_rcc_ex.c **** 
1282:Drivers/STM32L4xx_HAL_Driver/Src/stm32l4xx_hal_rcc_ex.c ****         switch(srcclk)
1283:Drivers/STM32L4xx_HAL_Driver/Src/stm32l4xx_hal_rcc_ex.c ****         {
1284:Drivers/STM32L4xx_HAL_Driver/Src/stm32l4xx_hal_rcc_ex.c ****         case RCC_CCIPR_CLK48SEL:   /* MSI ? */
1285:Drivers/STM32L4xx_HAL_Driver/Src/stm32l4xx_hal_rcc_ex.c ****           if(HAL_IS_BIT_SET(RCC->CR, RCC_CR_MSIRDY))
1286:Drivers/STM32L4xx_HAL_Driver/Src/stm32l4xx_hal_rcc_ex.c ****           {
1287:Drivers/STM32L4xx_HAL_Driver/Src/stm32l4xx_hal_rcc_ex.c ****             /*MSI frequency range in HZ*/
1288:Drivers/STM32L4xx_HAL_Driver/Src/stm32l4xx_hal_rcc_ex.c ****             frequency = MSIRangeTable[(__HAL_RCC_GET_MSI_RANGE() >> 4U)];
1289:Drivers/STM32L4xx_HAL_Driver/Src/stm32l4xx_hal_rcc_ex.c ****           }
1290:Drivers/STM32L4xx_HAL_Driver/Src/stm32l4xx_hal_rcc_ex.c ****           break;
1291:Drivers/STM32L4xx_HAL_Driver/Src/stm32l4xx_hal_rcc_ex.c ****         case RCC_CCIPR_CLK48SEL_1:  /* PLL ? */
1292:Drivers/STM32L4xx_HAL_Driver/Src/stm32l4xx_hal_rcc_ex.c ****           if(HAL_IS_BIT_SET(RCC->CR, RCC_CR_PLLRDY))
1293:Drivers/STM32L4xx_HAL_Driver/Src/stm32l4xx_hal_rcc_ex.c ****           {
1294:Drivers/STM32L4xx_HAL_Driver/Src/stm32l4xx_hal_rcc_ex.c ****             if(HAL_IS_BIT_SET(RCC->PLLCFGR, RCC_PLLCFGR_PLLQEN))
1295:Drivers/STM32L4xx_HAL_Driver/Src/stm32l4xx_hal_rcc_ex.c ****             {
1296:Drivers/STM32L4xx_HAL_Driver/Src/stm32l4xx_hal_rcc_ex.c ****               /* f(PLL Source) * PLLN / PLLM */
1297:Drivers/STM32L4xx_HAL_Driver/Src/stm32l4xx_hal_rcc_ex.c ****               plln = READ_BIT(RCC->PLLCFGR, RCC_PLLCFGR_PLLN) >> RCC_PLLCFGR_PLLN_Pos;
1298:Drivers/STM32L4xx_HAL_Driver/Src/stm32l4xx_hal_rcc_ex.c ****               pllvco = ((pllvco * plln) / ((READ_BIT(RCC->PLLCFGR, RCC_PLLCFGR_PLLM) >> RCC_PLLCFGR
1299:Drivers/STM32L4xx_HAL_Driver/Src/stm32l4xx_hal_rcc_ex.c ****               /* f(PLL48M1CLK) = f(VCO input) / PLLQ */
1300:Drivers/STM32L4xx_HAL_Driver/Src/stm32l4xx_hal_rcc_ex.c ****               frequency = (pllvco / (((READ_BIT(RCC->PLLCFGR, RCC_PLLCFGR_PLLQ) >> RCC_PLLCFGR_PLLQ
1301:Drivers/STM32L4xx_HAL_Driver/Src/stm32l4xx_hal_rcc_ex.c ****             }
1302:Drivers/STM32L4xx_HAL_Driver/Src/stm32l4xx_hal_rcc_ex.c ****           }
1303:Drivers/STM32L4xx_HAL_Driver/Src/stm32l4xx_hal_rcc_ex.c ****           break;
1304:Drivers/STM32L4xx_HAL_Driver/Src/stm32l4xx_hal_rcc_ex.c **** #if defined(RCC_PLLSAI1_SUPPORT)
1305:Drivers/STM32L4xx_HAL_Driver/Src/stm32l4xx_hal_rcc_ex.c ****         case RCC_CCIPR_CLK48SEL_0:  /* PLLSAI1 ? */
1306:Drivers/STM32L4xx_HAL_Driver/Src/stm32l4xx_hal_rcc_ex.c ****           if(HAL_IS_BIT_SET(RCC->CR, RCC_CR_PLLSAI1RDY))
1307:Drivers/STM32L4xx_HAL_Driver/Src/stm32l4xx_hal_rcc_ex.c ****           {
1308:Drivers/STM32L4xx_HAL_Driver/Src/stm32l4xx_hal_rcc_ex.c ****             if(HAL_IS_BIT_SET(RCC->PLLSAI1CFGR, RCC_PLLSAI1CFGR_PLLSAI1QEN))
1309:Drivers/STM32L4xx_HAL_Driver/Src/stm32l4xx_hal_rcc_ex.c ****             {
1310:Drivers/STM32L4xx_HAL_Driver/Src/stm32l4xx_hal_rcc_ex.c ****               plln = READ_BIT(RCC->PLLSAI1CFGR, RCC_PLLSAI1CFGR_PLLSAI1N) >> RCC_PLLSAI1CFGR_PLLSAI
1311:Drivers/STM32L4xx_HAL_Driver/Src/stm32l4xx_hal_rcc_ex.c **** #if defined(RCC_PLLSAI1M_DIV_1_16_SUPPORT)
1312:Drivers/STM32L4xx_HAL_Driver/Src/stm32l4xx_hal_rcc_ex.c ****               /* PLLSAI1M exists: apply PLLSAI1M divider for PLLSAI1 output computation */
1313:Drivers/STM32L4xx_HAL_Driver/Src/stm32l4xx_hal_rcc_ex.c ****               /* f(PLLSAI1 Source) * PLLSAI1N / PLLSAI1M */
1314:Drivers/STM32L4xx_HAL_Driver/Src/stm32l4xx_hal_rcc_ex.c ****               pllvco = ((pllvco * plln) / ((READ_BIT(RCC->PLLSAI1CFGR, RCC_PLLSAI1CFGR_PLLSAI1M) >>
1315:Drivers/STM32L4xx_HAL_Driver/Src/stm32l4xx_hal_rcc_ex.c **** #else
1316:Drivers/STM32L4xx_HAL_Driver/Src/stm32l4xx_hal_rcc_ex.c ****               /* f(PLL Source) * PLLSAI1N / PLLM */
1317:Drivers/STM32L4xx_HAL_Driver/Src/stm32l4xx_hal_rcc_ex.c ****               pllvco = ((pllvco * plln) / ((READ_BIT(RCC->PLLCFGR, RCC_PLLCFGR_PLLM) >> RCC_PLLCFGR
1318:Drivers/STM32L4xx_HAL_Driver/Src/stm32l4xx_hal_rcc_ex.c **** #endif
1319:Drivers/STM32L4xx_HAL_Driver/Src/stm32l4xx_hal_rcc_ex.c ****               /* f(PLL48M2CLK) = f(VCOSAI1 input) / PLLSAI1Q */
1320:Drivers/STM32L4xx_HAL_Driver/Src/stm32l4xx_hal_rcc_ex.c ****               frequency = (pllvco / (((READ_BIT(RCC->PLLSAI1CFGR, RCC_PLLSAI1CFGR_PLLSAI1Q) >> RCC_
1321:Drivers/STM32L4xx_HAL_Driver/Src/stm32l4xx_hal_rcc_ex.c ****             }
1322:Drivers/STM32L4xx_HAL_Driver/Src/stm32l4xx_hal_rcc_ex.c ****           }
1323:Drivers/STM32L4xx_HAL_Driver/Src/stm32l4xx_hal_rcc_ex.c ****           break;
1324:Drivers/STM32L4xx_HAL_Driver/Src/stm32l4xx_hal_rcc_ex.c **** #endif /* RCC_PLLSAI1_SUPPORT */
1325:Drivers/STM32L4xx_HAL_Driver/Src/stm32l4xx_hal_rcc_ex.c **** #if defined(RCC_HSI48_SUPPORT)
1326:Drivers/STM32L4xx_HAL_Driver/Src/stm32l4xx_hal_rcc_ex.c ****         case 0U:
1327:Drivers/STM32L4xx_HAL_Driver/Src/stm32l4xx_hal_rcc_ex.c ****           if(HAL_IS_BIT_SET(RCC->CRRCR, RCC_CRRCR_HSI48RDY)) /* HSI48 ? */
1328:Drivers/STM32L4xx_HAL_Driver/Src/stm32l4xx_hal_rcc_ex.c ****           {
1329:Drivers/STM32L4xx_HAL_Driver/Src/stm32l4xx_hal_rcc_ex.c ****             frequency = HSI48_VALUE;
1330:Drivers/STM32L4xx_HAL_Driver/Src/stm32l4xx_hal_rcc_ex.c ****           }
1331:Drivers/STM32L4xx_HAL_Driver/Src/stm32l4xx_hal_rcc_ex.c ****           break;
1332:Drivers/STM32L4xx_HAL_Driver/Src/stm32l4xx_hal_rcc_ex.c **** #endif /* RCC_HSI48_SUPPORT */
1333:Drivers/STM32L4xx_HAL_Driver/Src/stm32l4xx_hal_rcc_ex.c ****         default:
1334:Drivers/STM32L4xx_HAL_Driver/Src/stm32l4xx_hal_rcc_ex.c ****           /* No clock source, frequency default init at 0 */
1335:Drivers/STM32L4xx_HAL_Driver/Src/stm32l4xx_hal_rcc_ex.c ****           break;
1336:Drivers/STM32L4xx_HAL_Driver/Src/stm32l4xx_hal_rcc_ex.c ****         } /* switch(srcclk) */
ARM GAS  C:\Users\Morroway\AppData\Local\Temp\ccOmimY8.s 			page 55


1337:Drivers/STM32L4xx_HAL_Driver/Src/stm32l4xx_hal_rcc_ex.c ****         break;
1338:Drivers/STM32L4xx_HAL_Driver/Src/stm32l4xx_hal_rcc_ex.c ****       }
1339:Drivers/STM32L4xx_HAL_Driver/Src/stm32l4xx_hal_rcc_ex.c **** 
1340:Drivers/STM32L4xx_HAL_Driver/Src/stm32l4xx_hal_rcc_ex.c **** #if defined(SDMMC1) && defined(RCC_CCIPR2_SDMMCSEL)
1341:Drivers/STM32L4xx_HAL_Driver/Src/stm32l4xx_hal_rcc_ex.c **** 
1342:Drivers/STM32L4xx_HAL_Driver/Src/stm32l4xx_hal_rcc_ex.c ****     case RCC_PERIPHCLK_SDMMC1:
1343:Drivers/STM32L4xx_HAL_Driver/Src/stm32l4xx_hal_rcc_ex.c **** 
1344:Drivers/STM32L4xx_HAL_Driver/Src/stm32l4xx_hal_rcc_ex.c ****       if(HAL_IS_BIT_SET(RCC->CCIPR2, RCC_CCIPR2_SDMMCSEL))  /* PLL "P" ? */
1345:Drivers/STM32L4xx_HAL_Driver/Src/stm32l4xx_hal_rcc_ex.c ****       {
1346:Drivers/STM32L4xx_HAL_Driver/Src/stm32l4xx_hal_rcc_ex.c ****         if(HAL_IS_BIT_SET(RCC->CR, RCC_CR_PLLRDY))
1347:Drivers/STM32L4xx_HAL_Driver/Src/stm32l4xx_hal_rcc_ex.c ****         {
1348:Drivers/STM32L4xx_HAL_Driver/Src/stm32l4xx_hal_rcc_ex.c ****           if(HAL_IS_BIT_SET(RCC->PLLCFGR, RCC_PLLCFGR_PLLPEN))
1349:Drivers/STM32L4xx_HAL_Driver/Src/stm32l4xx_hal_rcc_ex.c ****           {
1350:Drivers/STM32L4xx_HAL_Driver/Src/stm32l4xx_hal_rcc_ex.c ****             /* f(PLL Source) * PLLN / PLLM */
1351:Drivers/STM32L4xx_HAL_Driver/Src/stm32l4xx_hal_rcc_ex.c ****             plln = READ_BIT(RCC->PLLCFGR, RCC_PLLCFGR_PLLN) >> RCC_PLLCFGR_PLLN_Pos;
1352:Drivers/STM32L4xx_HAL_Driver/Src/stm32l4xx_hal_rcc_ex.c ****             pllvco = ((pllvco * plln) / ((READ_BIT(RCC->PLLCFGR, RCC_PLLCFGR_PLLM) >> RCC_PLLCFGR_P
1353:Drivers/STM32L4xx_HAL_Driver/Src/stm32l4xx_hal_rcc_ex.c ****             /* f(PLLSAI3CLK) = f(VCO input) / PLLP */
1354:Drivers/STM32L4xx_HAL_Driver/Src/stm32l4xx_hal_rcc_ex.c ****             pllp = READ_BIT(RCC->PLLCFGR, RCC_PLLCFGR_PLLPDIV) >> RCC_PLLCFGR_PLLPDIV_Pos;
1355:Drivers/STM32L4xx_HAL_Driver/Src/stm32l4xx_hal_rcc_ex.c ****             if(pllp == 0U)
1356:Drivers/STM32L4xx_HAL_Driver/Src/stm32l4xx_hal_rcc_ex.c ****             {
1357:Drivers/STM32L4xx_HAL_Driver/Src/stm32l4xx_hal_rcc_ex.c ****               if(READ_BIT(RCC->PLLCFGR, RCC_PLLCFGR_PLLP) != 0U)
1358:Drivers/STM32L4xx_HAL_Driver/Src/stm32l4xx_hal_rcc_ex.c ****               {
1359:Drivers/STM32L4xx_HAL_Driver/Src/stm32l4xx_hal_rcc_ex.c ****                 pllp = 17U;
1360:Drivers/STM32L4xx_HAL_Driver/Src/stm32l4xx_hal_rcc_ex.c ****               }
1361:Drivers/STM32L4xx_HAL_Driver/Src/stm32l4xx_hal_rcc_ex.c ****               else
1362:Drivers/STM32L4xx_HAL_Driver/Src/stm32l4xx_hal_rcc_ex.c ****               {
1363:Drivers/STM32L4xx_HAL_Driver/Src/stm32l4xx_hal_rcc_ex.c ****                 pllp = 7U;
1364:Drivers/STM32L4xx_HAL_Driver/Src/stm32l4xx_hal_rcc_ex.c ****               }
1365:Drivers/STM32L4xx_HAL_Driver/Src/stm32l4xx_hal_rcc_ex.c ****             }
1366:Drivers/STM32L4xx_HAL_Driver/Src/stm32l4xx_hal_rcc_ex.c ****             frequency = (pllvco / pllp);
1367:Drivers/STM32L4xx_HAL_Driver/Src/stm32l4xx_hal_rcc_ex.c ****           }
1368:Drivers/STM32L4xx_HAL_Driver/Src/stm32l4xx_hal_rcc_ex.c ****         }
1369:Drivers/STM32L4xx_HAL_Driver/Src/stm32l4xx_hal_rcc_ex.c ****       }
1370:Drivers/STM32L4xx_HAL_Driver/Src/stm32l4xx_hal_rcc_ex.c ****       else  /* 48MHz from PLL "Q" or MSI or PLLSAI1Q or HSI48 */
1371:Drivers/STM32L4xx_HAL_Driver/Src/stm32l4xx_hal_rcc_ex.c ****       {
1372:Drivers/STM32L4xx_HAL_Driver/Src/stm32l4xx_hal_rcc_ex.c ****         srcclk = READ_BIT(RCC->CCIPR, RCC_CCIPR_CLK48SEL);
1373:Drivers/STM32L4xx_HAL_Driver/Src/stm32l4xx_hal_rcc_ex.c **** 
1374:Drivers/STM32L4xx_HAL_Driver/Src/stm32l4xx_hal_rcc_ex.c ****         switch(srcclk)
1375:Drivers/STM32L4xx_HAL_Driver/Src/stm32l4xx_hal_rcc_ex.c ****         {
1376:Drivers/STM32L4xx_HAL_Driver/Src/stm32l4xx_hal_rcc_ex.c ****         case RCC_CCIPR_CLK48SEL:   /* MSI ? */
1377:Drivers/STM32L4xx_HAL_Driver/Src/stm32l4xx_hal_rcc_ex.c ****           if(HAL_IS_BIT_SET(RCC->CR, RCC_CR_MSIRDY))
1378:Drivers/STM32L4xx_HAL_Driver/Src/stm32l4xx_hal_rcc_ex.c ****           {
1379:Drivers/STM32L4xx_HAL_Driver/Src/stm32l4xx_hal_rcc_ex.c ****             /*MSI frequency range in HZ*/
1380:Drivers/STM32L4xx_HAL_Driver/Src/stm32l4xx_hal_rcc_ex.c ****             frequency = MSIRangeTable[(__HAL_RCC_GET_MSI_RANGE() >> 4U)];
1381:Drivers/STM32L4xx_HAL_Driver/Src/stm32l4xx_hal_rcc_ex.c ****           }
1382:Drivers/STM32L4xx_HAL_Driver/Src/stm32l4xx_hal_rcc_ex.c ****           break;
1383:Drivers/STM32L4xx_HAL_Driver/Src/stm32l4xx_hal_rcc_ex.c ****         case RCC_CCIPR_CLK48SEL_1:  /* PLL "Q" ? */
1384:Drivers/STM32L4xx_HAL_Driver/Src/stm32l4xx_hal_rcc_ex.c ****           if(HAL_IS_BIT_SET(RCC->CR, RCC_CR_PLLRDY))
1385:Drivers/STM32L4xx_HAL_Driver/Src/stm32l4xx_hal_rcc_ex.c ****           {
1386:Drivers/STM32L4xx_HAL_Driver/Src/stm32l4xx_hal_rcc_ex.c ****             if(HAL_IS_BIT_SET(RCC->PLLCFGR, RCC_PLLCFGR_PLLQEN))
1387:Drivers/STM32L4xx_HAL_Driver/Src/stm32l4xx_hal_rcc_ex.c ****             {
1388:Drivers/STM32L4xx_HAL_Driver/Src/stm32l4xx_hal_rcc_ex.c ****               /* f(PLL Source) * PLLN / PLLM */
1389:Drivers/STM32L4xx_HAL_Driver/Src/stm32l4xx_hal_rcc_ex.c ****               plln = READ_BIT(RCC->PLLCFGR, RCC_PLLCFGR_PLLN) >> RCC_PLLCFGR_PLLN_Pos;
1390:Drivers/STM32L4xx_HAL_Driver/Src/stm32l4xx_hal_rcc_ex.c ****               pllvco = ((pllvco * plln) / ((READ_BIT(RCC->PLLCFGR, RCC_PLLCFGR_PLLM) >> RCC_PLLCFGR
1391:Drivers/STM32L4xx_HAL_Driver/Src/stm32l4xx_hal_rcc_ex.c ****               /* f(PLL48M1CLK) = f(VCO input) / PLLQ */
1392:Drivers/STM32L4xx_HAL_Driver/Src/stm32l4xx_hal_rcc_ex.c ****               frequency = (pllvco / (((READ_BIT(RCC->PLLCFGR, RCC_PLLCFGR_PLLQ) >> RCC_PLLCFGR_PLLQ
1393:Drivers/STM32L4xx_HAL_Driver/Src/stm32l4xx_hal_rcc_ex.c ****             }
ARM GAS  C:\Users\Morroway\AppData\Local\Temp\ccOmimY8.s 			page 56


1394:Drivers/STM32L4xx_HAL_Driver/Src/stm32l4xx_hal_rcc_ex.c ****           }
1395:Drivers/STM32L4xx_HAL_Driver/Src/stm32l4xx_hal_rcc_ex.c ****           break;
1396:Drivers/STM32L4xx_HAL_Driver/Src/stm32l4xx_hal_rcc_ex.c ****         case RCC_CCIPR_CLK48SEL_0:  /* PLLSAI1 ? */
1397:Drivers/STM32L4xx_HAL_Driver/Src/stm32l4xx_hal_rcc_ex.c ****           if(HAL_IS_BIT_SET(RCC->CR, RCC_CR_PLLSAI1RDY))
1398:Drivers/STM32L4xx_HAL_Driver/Src/stm32l4xx_hal_rcc_ex.c ****           {
1399:Drivers/STM32L4xx_HAL_Driver/Src/stm32l4xx_hal_rcc_ex.c ****             if(HAL_IS_BIT_SET(RCC->PLLSAI1CFGR, RCC_PLLSAI1CFGR_PLLSAI1QEN))
1400:Drivers/STM32L4xx_HAL_Driver/Src/stm32l4xx_hal_rcc_ex.c ****             {
1401:Drivers/STM32L4xx_HAL_Driver/Src/stm32l4xx_hal_rcc_ex.c ****               /* f(PLLSAI1 Source) * PLLSAI1N / PLLSAI1M */
1402:Drivers/STM32L4xx_HAL_Driver/Src/stm32l4xx_hal_rcc_ex.c ****               plln = READ_BIT(RCC->PLLSAI1CFGR, RCC_PLLSAI1CFGR_PLLSAI1N) >> RCC_PLLSAI1CFGR_PLLSAI
1403:Drivers/STM32L4xx_HAL_Driver/Src/stm32l4xx_hal_rcc_ex.c ****               pllvco = ((pllvco * plln) / ((READ_BIT(RCC->PLLSAI1CFGR, RCC_PLLSAI1CFGR_PLLSAI1M) >>
1404:Drivers/STM32L4xx_HAL_Driver/Src/stm32l4xx_hal_rcc_ex.c ****               /* f(PLL48M2CLK) = f(VCOSAI1 input) / PLLSAI1Q */
1405:Drivers/STM32L4xx_HAL_Driver/Src/stm32l4xx_hal_rcc_ex.c ****               frequency = (pllvco / (((READ_BIT(RCC->PLLSAI1CFGR, RCC_PLLSAI1CFGR_PLLSAI1Q) >> RCC_
1406:Drivers/STM32L4xx_HAL_Driver/Src/stm32l4xx_hal_rcc_ex.c ****             }
1407:Drivers/STM32L4xx_HAL_Driver/Src/stm32l4xx_hal_rcc_ex.c ****           }
1408:Drivers/STM32L4xx_HAL_Driver/Src/stm32l4xx_hal_rcc_ex.c ****           break;
1409:Drivers/STM32L4xx_HAL_Driver/Src/stm32l4xx_hal_rcc_ex.c ****         case 0U:
1410:Drivers/STM32L4xx_HAL_Driver/Src/stm32l4xx_hal_rcc_ex.c ****           if(HAL_IS_BIT_SET(RCC->CRRCR, RCC_CRRCR_HSI48RDY)) /* HSI48 ? */
1411:Drivers/STM32L4xx_HAL_Driver/Src/stm32l4xx_hal_rcc_ex.c ****           {
1412:Drivers/STM32L4xx_HAL_Driver/Src/stm32l4xx_hal_rcc_ex.c ****             frequency = HSI48_VALUE;
1413:Drivers/STM32L4xx_HAL_Driver/Src/stm32l4xx_hal_rcc_ex.c ****           }
1414:Drivers/STM32L4xx_HAL_Driver/Src/stm32l4xx_hal_rcc_ex.c ****           break;
1415:Drivers/STM32L4xx_HAL_Driver/Src/stm32l4xx_hal_rcc_ex.c ****         default:
1416:Drivers/STM32L4xx_HAL_Driver/Src/stm32l4xx_hal_rcc_ex.c ****           /* No clock source, frequency default init at 0 */
1417:Drivers/STM32L4xx_HAL_Driver/Src/stm32l4xx_hal_rcc_ex.c ****           break;
1418:Drivers/STM32L4xx_HAL_Driver/Src/stm32l4xx_hal_rcc_ex.c ****         } /* switch(srcclk) */
1419:Drivers/STM32L4xx_HAL_Driver/Src/stm32l4xx_hal_rcc_ex.c ****       }
1420:Drivers/STM32L4xx_HAL_Driver/Src/stm32l4xx_hal_rcc_ex.c ****       break;
1421:Drivers/STM32L4xx_HAL_Driver/Src/stm32l4xx_hal_rcc_ex.c **** 
1422:Drivers/STM32L4xx_HAL_Driver/Src/stm32l4xx_hal_rcc_ex.c **** #endif /* SDMMC1 && RCC_CCIPR2_SDMMCSEL */
1423:Drivers/STM32L4xx_HAL_Driver/Src/stm32l4xx_hal_rcc_ex.c **** 
1424:Drivers/STM32L4xx_HAL_Driver/Src/stm32l4xx_hal_rcc_ex.c ****     case RCC_PERIPHCLK_USART1:
1425:Drivers/STM32L4xx_HAL_Driver/Src/stm32l4xx_hal_rcc_ex.c ****       {
1426:Drivers/STM32L4xx_HAL_Driver/Src/stm32l4xx_hal_rcc_ex.c ****         /* Get the current USART1 source */
1427:Drivers/STM32L4xx_HAL_Driver/Src/stm32l4xx_hal_rcc_ex.c ****         srcclk = __HAL_RCC_GET_USART1_SOURCE();
1428:Drivers/STM32L4xx_HAL_Driver/Src/stm32l4xx_hal_rcc_ex.c **** 
1429:Drivers/STM32L4xx_HAL_Driver/Src/stm32l4xx_hal_rcc_ex.c ****         switch(srcclk)
1430:Drivers/STM32L4xx_HAL_Driver/Src/stm32l4xx_hal_rcc_ex.c ****         {
1431:Drivers/STM32L4xx_HAL_Driver/Src/stm32l4xx_hal_rcc_ex.c ****         case RCC_USART1CLKSOURCE_PCLK2:
1432:Drivers/STM32L4xx_HAL_Driver/Src/stm32l4xx_hal_rcc_ex.c ****           frequency = HAL_RCC_GetPCLK2Freq();
1433:Drivers/STM32L4xx_HAL_Driver/Src/stm32l4xx_hal_rcc_ex.c ****           break;
1434:Drivers/STM32L4xx_HAL_Driver/Src/stm32l4xx_hal_rcc_ex.c ****         case RCC_USART1CLKSOURCE_SYSCLK:
1435:Drivers/STM32L4xx_HAL_Driver/Src/stm32l4xx_hal_rcc_ex.c ****           frequency = HAL_RCC_GetSysClockFreq();
1436:Drivers/STM32L4xx_HAL_Driver/Src/stm32l4xx_hal_rcc_ex.c ****           break;
1437:Drivers/STM32L4xx_HAL_Driver/Src/stm32l4xx_hal_rcc_ex.c ****         case RCC_USART1CLKSOURCE_HSI:
1438:Drivers/STM32L4xx_HAL_Driver/Src/stm32l4xx_hal_rcc_ex.c ****           if(HAL_IS_BIT_SET(RCC->CR, RCC_CR_HSIRDY))
1439:Drivers/STM32L4xx_HAL_Driver/Src/stm32l4xx_hal_rcc_ex.c ****           {
1440:Drivers/STM32L4xx_HAL_Driver/Src/stm32l4xx_hal_rcc_ex.c ****             frequency = HSI_VALUE;
1441:Drivers/STM32L4xx_HAL_Driver/Src/stm32l4xx_hal_rcc_ex.c ****           }
1442:Drivers/STM32L4xx_HAL_Driver/Src/stm32l4xx_hal_rcc_ex.c ****           break;
1443:Drivers/STM32L4xx_HAL_Driver/Src/stm32l4xx_hal_rcc_ex.c ****         case RCC_USART1CLKSOURCE_LSE:
1444:Drivers/STM32L4xx_HAL_Driver/Src/stm32l4xx_hal_rcc_ex.c ****           if(HAL_IS_BIT_SET(RCC->BDCR, RCC_BDCR_LSERDY))
1445:Drivers/STM32L4xx_HAL_Driver/Src/stm32l4xx_hal_rcc_ex.c ****           {
1446:Drivers/STM32L4xx_HAL_Driver/Src/stm32l4xx_hal_rcc_ex.c ****             frequency = LSE_VALUE;
1447:Drivers/STM32L4xx_HAL_Driver/Src/stm32l4xx_hal_rcc_ex.c ****           }
1448:Drivers/STM32L4xx_HAL_Driver/Src/stm32l4xx_hal_rcc_ex.c ****           break;
1449:Drivers/STM32L4xx_HAL_Driver/Src/stm32l4xx_hal_rcc_ex.c ****         default:
1450:Drivers/STM32L4xx_HAL_Driver/Src/stm32l4xx_hal_rcc_ex.c ****           /* No clock source, frequency default init at 0 */
ARM GAS  C:\Users\Morroway\AppData\Local\Temp\ccOmimY8.s 			page 57


1451:Drivers/STM32L4xx_HAL_Driver/Src/stm32l4xx_hal_rcc_ex.c ****           break;
1452:Drivers/STM32L4xx_HAL_Driver/Src/stm32l4xx_hal_rcc_ex.c ****         }
1453:Drivers/STM32L4xx_HAL_Driver/Src/stm32l4xx_hal_rcc_ex.c **** 
1454:Drivers/STM32L4xx_HAL_Driver/Src/stm32l4xx_hal_rcc_ex.c ****         break;
1455:Drivers/STM32L4xx_HAL_Driver/Src/stm32l4xx_hal_rcc_ex.c ****       }
1456:Drivers/STM32L4xx_HAL_Driver/Src/stm32l4xx_hal_rcc_ex.c **** 
1457:Drivers/STM32L4xx_HAL_Driver/Src/stm32l4xx_hal_rcc_ex.c ****     case RCC_PERIPHCLK_USART2:
1458:Drivers/STM32L4xx_HAL_Driver/Src/stm32l4xx_hal_rcc_ex.c ****       {
1459:Drivers/STM32L4xx_HAL_Driver/Src/stm32l4xx_hal_rcc_ex.c ****         /* Get the current USART2 source */
1460:Drivers/STM32L4xx_HAL_Driver/Src/stm32l4xx_hal_rcc_ex.c ****         srcclk = __HAL_RCC_GET_USART2_SOURCE();
1461:Drivers/STM32L4xx_HAL_Driver/Src/stm32l4xx_hal_rcc_ex.c **** 
1462:Drivers/STM32L4xx_HAL_Driver/Src/stm32l4xx_hal_rcc_ex.c ****         switch(srcclk)
1463:Drivers/STM32L4xx_HAL_Driver/Src/stm32l4xx_hal_rcc_ex.c ****         {
1464:Drivers/STM32L4xx_HAL_Driver/Src/stm32l4xx_hal_rcc_ex.c ****         case RCC_USART2CLKSOURCE_PCLK1:
1465:Drivers/STM32L4xx_HAL_Driver/Src/stm32l4xx_hal_rcc_ex.c ****           frequency = HAL_RCC_GetPCLK1Freq();
1466:Drivers/STM32L4xx_HAL_Driver/Src/stm32l4xx_hal_rcc_ex.c ****           break;
1467:Drivers/STM32L4xx_HAL_Driver/Src/stm32l4xx_hal_rcc_ex.c ****         case RCC_USART2CLKSOURCE_SYSCLK:
1468:Drivers/STM32L4xx_HAL_Driver/Src/stm32l4xx_hal_rcc_ex.c ****           frequency = HAL_RCC_GetSysClockFreq();
1469:Drivers/STM32L4xx_HAL_Driver/Src/stm32l4xx_hal_rcc_ex.c ****           break;
1470:Drivers/STM32L4xx_HAL_Driver/Src/stm32l4xx_hal_rcc_ex.c ****         case RCC_USART2CLKSOURCE_HSI:
1471:Drivers/STM32L4xx_HAL_Driver/Src/stm32l4xx_hal_rcc_ex.c ****           if(HAL_IS_BIT_SET(RCC->CR, RCC_CR_HSIRDY))
1472:Drivers/STM32L4xx_HAL_Driver/Src/stm32l4xx_hal_rcc_ex.c ****           {
1473:Drivers/STM32L4xx_HAL_Driver/Src/stm32l4xx_hal_rcc_ex.c ****             frequency = HSI_VALUE;
1474:Drivers/STM32L4xx_HAL_Driver/Src/stm32l4xx_hal_rcc_ex.c ****           }
1475:Drivers/STM32L4xx_HAL_Driver/Src/stm32l4xx_hal_rcc_ex.c ****           break;
1476:Drivers/STM32L4xx_HAL_Driver/Src/stm32l4xx_hal_rcc_ex.c ****         case RCC_USART2CLKSOURCE_LSE:
1477:Drivers/STM32L4xx_HAL_Driver/Src/stm32l4xx_hal_rcc_ex.c ****           if(HAL_IS_BIT_SET(RCC->BDCR, RCC_BDCR_LSERDY))
1478:Drivers/STM32L4xx_HAL_Driver/Src/stm32l4xx_hal_rcc_ex.c ****           {
1479:Drivers/STM32L4xx_HAL_Driver/Src/stm32l4xx_hal_rcc_ex.c ****             frequency = LSE_VALUE;
1480:Drivers/STM32L4xx_HAL_Driver/Src/stm32l4xx_hal_rcc_ex.c ****           }
1481:Drivers/STM32L4xx_HAL_Driver/Src/stm32l4xx_hal_rcc_ex.c ****           break;
1482:Drivers/STM32L4xx_HAL_Driver/Src/stm32l4xx_hal_rcc_ex.c ****         default:
1483:Drivers/STM32L4xx_HAL_Driver/Src/stm32l4xx_hal_rcc_ex.c ****           /* No clock source, frequency default init at 0 */
1484:Drivers/STM32L4xx_HAL_Driver/Src/stm32l4xx_hal_rcc_ex.c ****           break;
1485:Drivers/STM32L4xx_HAL_Driver/Src/stm32l4xx_hal_rcc_ex.c ****         }
1486:Drivers/STM32L4xx_HAL_Driver/Src/stm32l4xx_hal_rcc_ex.c **** 
1487:Drivers/STM32L4xx_HAL_Driver/Src/stm32l4xx_hal_rcc_ex.c ****         break;
1488:Drivers/STM32L4xx_HAL_Driver/Src/stm32l4xx_hal_rcc_ex.c ****       }
1489:Drivers/STM32L4xx_HAL_Driver/Src/stm32l4xx_hal_rcc_ex.c **** 
1490:Drivers/STM32L4xx_HAL_Driver/Src/stm32l4xx_hal_rcc_ex.c **** #if defined(USART3)
1491:Drivers/STM32L4xx_HAL_Driver/Src/stm32l4xx_hal_rcc_ex.c **** 
1492:Drivers/STM32L4xx_HAL_Driver/Src/stm32l4xx_hal_rcc_ex.c ****     case RCC_PERIPHCLK_USART3:
1493:Drivers/STM32L4xx_HAL_Driver/Src/stm32l4xx_hal_rcc_ex.c ****       {
1494:Drivers/STM32L4xx_HAL_Driver/Src/stm32l4xx_hal_rcc_ex.c ****         /* Get the current USART3 source */
1495:Drivers/STM32L4xx_HAL_Driver/Src/stm32l4xx_hal_rcc_ex.c ****         srcclk = __HAL_RCC_GET_USART3_SOURCE();
1496:Drivers/STM32L4xx_HAL_Driver/Src/stm32l4xx_hal_rcc_ex.c **** 
1497:Drivers/STM32L4xx_HAL_Driver/Src/stm32l4xx_hal_rcc_ex.c ****         switch(srcclk)
1498:Drivers/STM32L4xx_HAL_Driver/Src/stm32l4xx_hal_rcc_ex.c ****         {
1499:Drivers/STM32L4xx_HAL_Driver/Src/stm32l4xx_hal_rcc_ex.c ****         case RCC_USART3CLKSOURCE_PCLK1:
1500:Drivers/STM32L4xx_HAL_Driver/Src/stm32l4xx_hal_rcc_ex.c ****           frequency = HAL_RCC_GetPCLK1Freq();
1501:Drivers/STM32L4xx_HAL_Driver/Src/stm32l4xx_hal_rcc_ex.c ****           break;
1502:Drivers/STM32L4xx_HAL_Driver/Src/stm32l4xx_hal_rcc_ex.c ****         case RCC_USART3CLKSOURCE_SYSCLK:
1503:Drivers/STM32L4xx_HAL_Driver/Src/stm32l4xx_hal_rcc_ex.c ****           frequency = HAL_RCC_GetSysClockFreq();
1504:Drivers/STM32L4xx_HAL_Driver/Src/stm32l4xx_hal_rcc_ex.c ****           break;
1505:Drivers/STM32L4xx_HAL_Driver/Src/stm32l4xx_hal_rcc_ex.c ****         case RCC_USART3CLKSOURCE_HSI:
1506:Drivers/STM32L4xx_HAL_Driver/Src/stm32l4xx_hal_rcc_ex.c ****           if(HAL_IS_BIT_SET(RCC->CR, RCC_CR_HSIRDY))
1507:Drivers/STM32L4xx_HAL_Driver/Src/stm32l4xx_hal_rcc_ex.c ****           {
ARM GAS  C:\Users\Morroway\AppData\Local\Temp\ccOmimY8.s 			page 58


1508:Drivers/STM32L4xx_HAL_Driver/Src/stm32l4xx_hal_rcc_ex.c ****             frequency = HSI_VALUE;
1509:Drivers/STM32L4xx_HAL_Driver/Src/stm32l4xx_hal_rcc_ex.c ****           }
1510:Drivers/STM32L4xx_HAL_Driver/Src/stm32l4xx_hal_rcc_ex.c ****           break;
1511:Drivers/STM32L4xx_HAL_Driver/Src/stm32l4xx_hal_rcc_ex.c ****         case RCC_USART3CLKSOURCE_LSE:
1512:Drivers/STM32L4xx_HAL_Driver/Src/stm32l4xx_hal_rcc_ex.c ****           if(HAL_IS_BIT_SET(RCC->BDCR, RCC_BDCR_LSERDY))
1513:Drivers/STM32L4xx_HAL_Driver/Src/stm32l4xx_hal_rcc_ex.c ****           {
1514:Drivers/STM32L4xx_HAL_Driver/Src/stm32l4xx_hal_rcc_ex.c ****             frequency = LSE_VALUE;
1515:Drivers/STM32L4xx_HAL_Driver/Src/stm32l4xx_hal_rcc_ex.c ****           }
1516:Drivers/STM32L4xx_HAL_Driver/Src/stm32l4xx_hal_rcc_ex.c ****           break;
1517:Drivers/STM32L4xx_HAL_Driver/Src/stm32l4xx_hal_rcc_ex.c ****         default:
1518:Drivers/STM32L4xx_HAL_Driver/Src/stm32l4xx_hal_rcc_ex.c ****           /* No clock source, frequency default init at 0 */
1519:Drivers/STM32L4xx_HAL_Driver/Src/stm32l4xx_hal_rcc_ex.c ****           break;
1520:Drivers/STM32L4xx_HAL_Driver/Src/stm32l4xx_hal_rcc_ex.c ****         }
1521:Drivers/STM32L4xx_HAL_Driver/Src/stm32l4xx_hal_rcc_ex.c **** 
1522:Drivers/STM32L4xx_HAL_Driver/Src/stm32l4xx_hal_rcc_ex.c ****         break;
1523:Drivers/STM32L4xx_HAL_Driver/Src/stm32l4xx_hal_rcc_ex.c ****       }
1524:Drivers/STM32L4xx_HAL_Driver/Src/stm32l4xx_hal_rcc_ex.c **** 
1525:Drivers/STM32L4xx_HAL_Driver/Src/stm32l4xx_hal_rcc_ex.c **** #endif /* USART3 */
1526:Drivers/STM32L4xx_HAL_Driver/Src/stm32l4xx_hal_rcc_ex.c **** 
1527:Drivers/STM32L4xx_HAL_Driver/Src/stm32l4xx_hal_rcc_ex.c **** #if defined(UART4)
1528:Drivers/STM32L4xx_HAL_Driver/Src/stm32l4xx_hal_rcc_ex.c **** 
1529:Drivers/STM32L4xx_HAL_Driver/Src/stm32l4xx_hal_rcc_ex.c ****     case RCC_PERIPHCLK_UART4:
1530:Drivers/STM32L4xx_HAL_Driver/Src/stm32l4xx_hal_rcc_ex.c ****       {
1531:Drivers/STM32L4xx_HAL_Driver/Src/stm32l4xx_hal_rcc_ex.c ****         /* Get the current UART4 source */
1532:Drivers/STM32L4xx_HAL_Driver/Src/stm32l4xx_hal_rcc_ex.c ****         srcclk = __HAL_RCC_GET_UART4_SOURCE();
1533:Drivers/STM32L4xx_HAL_Driver/Src/stm32l4xx_hal_rcc_ex.c **** 
1534:Drivers/STM32L4xx_HAL_Driver/Src/stm32l4xx_hal_rcc_ex.c ****         switch(srcclk)
1535:Drivers/STM32L4xx_HAL_Driver/Src/stm32l4xx_hal_rcc_ex.c ****         {
1536:Drivers/STM32L4xx_HAL_Driver/Src/stm32l4xx_hal_rcc_ex.c ****         case RCC_UART4CLKSOURCE_PCLK1:
1537:Drivers/STM32L4xx_HAL_Driver/Src/stm32l4xx_hal_rcc_ex.c ****           frequency = HAL_RCC_GetPCLK1Freq();
1538:Drivers/STM32L4xx_HAL_Driver/Src/stm32l4xx_hal_rcc_ex.c ****           break;
1539:Drivers/STM32L4xx_HAL_Driver/Src/stm32l4xx_hal_rcc_ex.c ****         case RCC_UART4CLKSOURCE_SYSCLK:
1540:Drivers/STM32L4xx_HAL_Driver/Src/stm32l4xx_hal_rcc_ex.c ****           frequency = HAL_RCC_GetSysClockFreq();
1541:Drivers/STM32L4xx_HAL_Driver/Src/stm32l4xx_hal_rcc_ex.c ****           break;
1542:Drivers/STM32L4xx_HAL_Driver/Src/stm32l4xx_hal_rcc_ex.c ****         case RCC_UART4CLKSOURCE_HSI:
1543:Drivers/STM32L4xx_HAL_Driver/Src/stm32l4xx_hal_rcc_ex.c ****           if(HAL_IS_BIT_SET(RCC->CR, RCC_CR_HSIRDY))
1544:Drivers/STM32L4xx_HAL_Driver/Src/stm32l4xx_hal_rcc_ex.c ****           {
1545:Drivers/STM32L4xx_HAL_Driver/Src/stm32l4xx_hal_rcc_ex.c ****             frequency = HSI_VALUE;
1546:Drivers/STM32L4xx_HAL_Driver/Src/stm32l4xx_hal_rcc_ex.c ****           }
1547:Drivers/STM32L4xx_HAL_Driver/Src/stm32l4xx_hal_rcc_ex.c ****           break;
1548:Drivers/STM32L4xx_HAL_Driver/Src/stm32l4xx_hal_rcc_ex.c ****         case RCC_UART4CLKSOURCE_LSE:
1549:Drivers/STM32L4xx_HAL_Driver/Src/stm32l4xx_hal_rcc_ex.c ****           if(HAL_IS_BIT_SET(RCC->BDCR, RCC_BDCR_LSERDY))
1550:Drivers/STM32L4xx_HAL_Driver/Src/stm32l4xx_hal_rcc_ex.c ****           {
1551:Drivers/STM32L4xx_HAL_Driver/Src/stm32l4xx_hal_rcc_ex.c ****             frequency = LSE_VALUE;
1552:Drivers/STM32L4xx_HAL_Driver/Src/stm32l4xx_hal_rcc_ex.c ****           }
1553:Drivers/STM32L4xx_HAL_Driver/Src/stm32l4xx_hal_rcc_ex.c ****           break;
1554:Drivers/STM32L4xx_HAL_Driver/Src/stm32l4xx_hal_rcc_ex.c ****         default:
1555:Drivers/STM32L4xx_HAL_Driver/Src/stm32l4xx_hal_rcc_ex.c ****           /* No clock source, frequency default init at 0 */
1556:Drivers/STM32L4xx_HAL_Driver/Src/stm32l4xx_hal_rcc_ex.c ****           break;
1557:Drivers/STM32L4xx_HAL_Driver/Src/stm32l4xx_hal_rcc_ex.c ****         }
1558:Drivers/STM32L4xx_HAL_Driver/Src/stm32l4xx_hal_rcc_ex.c **** 
1559:Drivers/STM32L4xx_HAL_Driver/Src/stm32l4xx_hal_rcc_ex.c ****         break;
1560:Drivers/STM32L4xx_HAL_Driver/Src/stm32l4xx_hal_rcc_ex.c ****       }
1561:Drivers/STM32L4xx_HAL_Driver/Src/stm32l4xx_hal_rcc_ex.c **** 
1562:Drivers/STM32L4xx_HAL_Driver/Src/stm32l4xx_hal_rcc_ex.c **** #endif /* UART4 */
1563:Drivers/STM32L4xx_HAL_Driver/Src/stm32l4xx_hal_rcc_ex.c **** 
1564:Drivers/STM32L4xx_HAL_Driver/Src/stm32l4xx_hal_rcc_ex.c **** #if defined(UART5)
ARM GAS  C:\Users\Morroway\AppData\Local\Temp\ccOmimY8.s 			page 59


1565:Drivers/STM32L4xx_HAL_Driver/Src/stm32l4xx_hal_rcc_ex.c **** 
1566:Drivers/STM32L4xx_HAL_Driver/Src/stm32l4xx_hal_rcc_ex.c ****     case RCC_PERIPHCLK_UART5:
1567:Drivers/STM32L4xx_HAL_Driver/Src/stm32l4xx_hal_rcc_ex.c ****       {
1568:Drivers/STM32L4xx_HAL_Driver/Src/stm32l4xx_hal_rcc_ex.c ****         /* Get the current UART5 source */
1569:Drivers/STM32L4xx_HAL_Driver/Src/stm32l4xx_hal_rcc_ex.c ****         srcclk = __HAL_RCC_GET_UART5_SOURCE();
1570:Drivers/STM32L4xx_HAL_Driver/Src/stm32l4xx_hal_rcc_ex.c **** 
1571:Drivers/STM32L4xx_HAL_Driver/Src/stm32l4xx_hal_rcc_ex.c ****         switch(srcclk)
1572:Drivers/STM32L4xx_HAL_Driver/Src/stm32l4xx_hal_rcc_ex.c ****         {
1573:Drivers/STM32L4xx_HAL_Driver/Src/stm32l4xx_hal_rcc_ex.c ****         case RCC_UART5CLKSOURCE_PCLK1:
1574:Drivers/STM32L4xx_HAL_Driver/Src/stm32l4xx_hal_rcc_ex.c ****           frequency = HAL_RCC_GetPCLK1Freq();
1575:Drivers/STM32L4xx_HAL_Driver/Src/stm32l4xx_hal_rcc_ex.c ****           break;
1576:Drivers/STM32L4xx_HAL_Driver/Src/stm32l4xx_hal_rcc_ex.c ****         case RCC_UART5CLKSOURCE_SYSCLK:
1577:Drivers/STM32L4xx_HAL_Driver/Src/stm32l4xx_hal_rcc_ex.c ****           frequency = HAL_RCC_GetSysClockFreq();
1578:Drivers/STM32L4xx_HAL_Driver/Src/stm32l4xx_hal_rcc_ex.c ****           break;
1579:Drivers/STM32L4xx_HAL_Driver/Src/stm32l4xx_hal_rcc_ex.c ****         case RCC_UART5CLKSOURCE_HSI:
1580:Drivers/STM32L4xx_HAL_Driver/Src/stm32l4xx_hal_rcc_ex.c ****           if(HAL_IS_BIT_SET(RCC->CR, RCC_CR_HSIRDY))
1581:Drivers/STM32L4xx_HAL_Driver/Src/stm32l4xx_hal_rcc_ex.c ****           {
1582:Drivers/STM32L4xx_HAL_Driver/Src/stm32l4xx_hal_rcc_ex.c ****             frequency = HSI_VALUE;
1583:Drivers/STM32L4xx_HAL_Driver/Src/stm32l4xx_hal_rcc_ex.c ****           }
1584:Drivers/STM32L4xx_HAL_Driver/Src/stm32l4xx_hal_rcc_ex.c ****           break;
1585:Drivers/STM32L4xx_HAL_Driver/Src/stm32l4xx_hal_rcc_ex.c ****         case RCC_UART5CLKSOURCE_LSE:
1586:Drivers/STM32L4xx_HAL_Driver/Src/stm32l4xx_hal_rcc_ex.c ****           if(HAL_IS_BIT_SET(RCC->BDCR, RCC_BDCR_LSERDY))
1587:Drivers/STM32L4xx_HAL_Driver/Src/stm32l4xx_hal_rcc_ex.c ****           {
1588:Drivers/STM32L4xx_HAL_Driver/Src/stm32l4xx_hal_rcc_ex.c ****             frequency = LSE_VALUE;
1589:Drivers/STM32L4xx_HAL_Driver/Src/stm32l4xx_hal_rcc_ex.c ****           }
1590:Drivers/STM32L4xx_HAL_Driver/Src/stm32l4xx_hal_rcc_ex.c ****           break;
1591:Drivers/STM32L4xx_HAL_Driver/Src/stm32l4xx_hal_rcc_ex.c ****         default:
1592:Drivers/STM32L4xx_HAL_Driver/Src/stm32l4xx_hal_rcc_ex.c ****           /* No clock source, frequency default init at 0 */
1593:Drivers/STM32L4xx_HAL_Driver/Src/stm32l4xx_hal_rcc_ex.c ****           break;
1594:Drivers/STM32L4xx_HAL_Driver/Src/stm32l4xx_hal_rcc_ex.c ****         }
1595:Drivers/STM32L4xx_HAL_Driver/Src/stm32l4xx_hal_rcc_ex.c **** 
1596:Drivers/STM32L4xx_HAL_Driver/Src/stm32l4xx_hal_rcc_ex.c ****         break;
1597:Drivers/STM32L4xx_HAL_Driver/Src/stm32l4xx_hal_rcc_ex.c ****       }
1598:Drivers/STM32L4xx_HAL_Driver/Src/stm32l4xx_hal_rcc_ex.c **** 
1599:Drivers/STM32L4xx_HAL_Driver/Src/stm32l4xx_hal_rcc_ex.c **** #endif /* UART5 */
1600:Drivers/STM32L4xx_HAL_Driver/Src/stm32l4xx_hal_rcc_ex.c **** 
1601:Drivers/STM32L4xx_HAL_Driver/Src/stm32l4xx_hal_rcc_ex.c ****     case RCC_PERIPHCLK_LPUART1:
1602:Drivers/STM32L4xx_HAL_Driver/Src/stm32l4xx_hal_rcc_ex.c ****       {
1603:Drivers/STM32L4xx_HAL_Driver/Src/stm32l4xx_hal_rcc_ex.c ****         /* Get the current LPUART1 source */
1604:Drivers/STM32L4xx_HAL_Driver/Src/stm32l4xx_hal_rcc_ex.c ****         srcclk = __HAL_RCC_GET_LPUART1_SOURCE();
1605:Drivers/STM32L4xx_HAL_Driver/Src/stm32l4xx_hal_rcc_ex.c **** 
1606:Drivers/STM32L4xx_HAL_Driver/Src/stm32l4xx_hal_rcc_ex.c ****         switch(srcclk)
1607:Drivers/STM32L4xx_HAL_Driver/Src/stm32l4xx_hal_rcc_ex.c ****         {
1608:Drivers/STM32L4xx_HAL_Driver/Src/stm32l4xx_hal_rcc_ex.c ****         case RCC_LPUART1CLKSOURCE_PCLK1:
1609:Drivers/STM32L4xx_HAL_Driver/Src/stm32l4xx_hal_rcc_ex.c ****           frequency = HAL_RCC_GetPCLK1Freq();
1610:Drivers/STM32L4xx_HAL_Driver/Src/stm32l4xx_hal_rcc_ex.c ****           break;
1611:Drivers/STM32L4xx_HAL_Driver/Src/stm32l4xx_hal_rcc_ex.c ****         case RCC_LPUART1CLKSOURCE_SYSCLK:
1612:Drivers/STM32L4xx_HAL_Driver/Src/stm32l4xx_hal_rcc_ex.c ****           frequency = HAL_RCC_GetSysClockFreq();
1613:Drivers/STM32L4xx_HAL_Driver/Src/stm32l4xx_hal_rcc_ex.c ****           break;
1614:Drivers/STM32L4xx_HAL_Driver/Src/stm32l4xx_hal_rcc_ex.c ****         case RCC_LPUART1CLKSOURCE_HSI:
1615:Drivers/STM32L4xx_HAL_Driver/Src/stm32l4xx_hal_rcc_ex.c ****           if(HAL_IS_BIT_SET(RCC->CR, RCC_CR_HSIRDY))
1616:Drivers/STM32L4xx_HAL_Driver/Src/stm32l4xx_hal_rcc_ex.c ****           {
1617:Drivers/STM32L4xx_HAL_Driver/Src/stm32l4xx_hal_rcc_ex.c ****             frequency = HSI_VALUE;
1618:Drivers/STM32L4xx_HAL_Driver/Src/stm32l4xx_hal_rcc_ex.c ****           }
1619:Drivers/STM32L4xx_HAL_Driver/Src/stm32l4xx_hal_rcc_ex.c ****           break;
1620:Drivers/STM32L4xx_HAL_Driver/Src/stm32l4xx_hal_rcc_ex.c ****         case RCC_LPUART1CLKSOURCE_LSE:
1621:Drivers/STM32L4xx_HAL_Driver/Src/stm32l4xx_hal_rcc_ex.c ****           if(HAL_IS_BIT_SET(RCC->BDCR, RCC_BDCR_LSERDY))
ARM GAS  C:\Users\Morroway\AppData\Local\Temp\ccOmimY8.s 			page 60


1622:Drivers/STM32L4xx_HAL_Driver/Src/stm32l4xx_hal_rcc_ex.c ****           {
1623:Drivers/STM32L4xx_HAL_Driver/Src/stm32l4xx_hal_rcc_ex.c ****             frequency = LSE_VALUE;
1624:Drivers/STM32L4xx_HAL_Driver/Src/stm32l4xx_hal_rcc_ex.c ****           }
1625:Drivers/STM32L4xx_HAL_Driver/Src/stm32l4xx_hal_rcc_ex.c ****           break;
1626:Drivers/STM32L4xx_HAL_Driver/Src/stm32l4xx_hal_rcc_ex.c ****         default:
1627:Drivers/STM32L4xx_HAL_Driver/Src/stm32l4xx_hal_rcc_ex.c ****           /* No clock source, frequency default init at 0 */
1628:Drivers/STM32L4xx_HAL_Driver/Src/stm32l4xx_hal_rcc_ex.c ****           break;
1629:Drivers/STM32L4xx_HAL_Driver/Src/stm32l4xx_hal_rcc_ex.c ****         }
1630:Drivers/STM32L4xx_HAL_Driver/Src/stm32l4xx_hal_rcc_ex.c **** 
1631:Drivers/STM32L4xx_HAL_Driver/Src/stm32l4xx_hal_rcc_ex.c ****         break;
1632:Drivers/STM32L4xx_HAL_Driver/Src/stm32l4xx_hal_rcc_ex.c ****       }
1633:Drivers/STM32L4xx_HAL_Driver/Src/stm32l4xx_hal_rcc_ex.c **** 
1634:Drivers/STM32L4xx_HAL_Driver/Src/stm32l4xx_hal_rcc_ex.c ****     case RCC_PERIPHCLK_ADC:
1635:Drivers/STM32L4xx_HAL_Driver/Src/stm32l4xx_hal_rcc_ex.c ****       {
1636:Drivers/STM32L4xx_HAL_Driver/Src/stm32l4xx_hal_rcc_ex.c ****         srcclk = __HAL_RCC_GET_ADC_SOURCE();
1637:Drivers/STM32L4xx_HAL_Driver/Src/stm32l4xx_hal_rcc_ex.c **** 
1638:Drivers/STM32L4xx_HAL_Driver/Src/stm32l4xx_hal_rcc_ex.c ****         switch(srcclk)
1639:Drivers/STM32L4xx_HAL_Driver/Src/stm32l4xx_hal_rcc_ex.c ****         {
1640:Drivers/STM32L4xx_HAL_Driver/Src/stm32l4xx_hal_rcc_ex.c ****         case RCC_ADCCLKSOURCE_SYSCLK:
1641:Drivers/STM32L4xx_HAL_Driver/Src/stm32l4xx_hal_rcc_ex.c ****           frequency = HAL_RCC_GetSysClockFreq();
1642:Drivers/STM32L4xx_HAL_Driver/Src/stm32l4xx_hal_rcc_ex.c ****           break;
1643:Drivers/STM32L4xx_HAL_Driver/Src/stm32l4xx_hal_rcc_ex.c **** #if defined(RCC_PLLSAI1_SUPPORT)
1644:Drivers/STM32L4xx_HAL_Driver/Src/stm32l4xx_hal_rcc_ex.c ****         case RCC_ADCCLKSOURCE_PLLSAI1:
1645:Drivers/STM32L4xx_HAL_Driver/Src/stm32l4xx_hal_rcc_ex.c ****           if(HAL_IS_BIT_SET(RCC->CR, RCC_CR_PLLSAI1RDY) && (__HAL_RCC_GET_PLLSAI1CLKOUT_CONFIG(RCC_
1646:Drivers/STM32L4xx_HAL_Driver/Src/stm32l4xx_hal_rcc_ex.c ****           {
1647:Drivers/STM32L4xx_HAL_Driver/Src/stm32l4xx_hal_rcc_ex.c ****             plln = READ_BIT(RCC->PLLSAI1CFGR, RCC_PLLSAI1CFGR_PLLSAI1N) >> RCC_PLLSAI1CFGR_PLLSAI1N
1648:Drivers/STM32L4xx_HAL_Driver/Src/stm32l4xx_hal_rcc_ex.c **** #if defined(RCC_PLLSAI1M_DIV_1_16_SUPPORT)
1649:Drivers/STM32L4xx_HAL_Driver/Src/stm32l4xx_hal_rcc_ex.c ****             /* PLLSAI1M exists: apply PLLSAI1M divider for PLLSAI1 output computation */
1650:Drivers/STM32L4xx_HAL_Driver/Src/stm32l4xx_hal_rcc_ex.c ****             /* f(PLLSAI1 Source) * PLLSAI1N / PLLSAI1M */
1651:Drivers/STM32L4xx_HAL_Driver/Src/stm32l4xx_hal_rcc_ex.c ****             pllvco = ((pllvco * plln) / ((READ_BIT(RCC->PLLSAI1CFGR, RCC_PLLSAI1CFGR_PLLSAI1M) >> R
1652:Drivers/STM32L4xx_HAL_Driver/Src/stm32l4xx_hal_rcc_ex.c **** #else
1653:Drivers/STM32L4xx_HAL_Driver/Src/stm32l4xx_hal_rcc_ex.c ****             /* f(PLL Source) * PLLSAI1N / PLLM */
1654:Drivers/STM32L4xx_HAL_Driver/Src/stm32l4xx_hal_rcc_ex.c ****             pllvco = ((pllvco * plln) / ((READ_BIT(RCC->PLLCFGR, RCC_PLLCFGR_PLLM) >> RCC_PLLCFGR_P
1655:Drivers/STM32L4xx_HAL_Driver/Src/stm32l4xx_hal_rcc_ex.c **** #endif
1656:Drivers/STM32L4xx_HAL_Driver/Src/stm32l4xx_hal_rcc_ex.c ****             /* f(PLLADC1CLK) = f(VCOSAI1 input) / PLLSAI1R */
1657:Drivers/STM32L4xx_HAL_Driver/Src/stm32l4xx_hal_rcc_ex.c ****             frequency = (pllvco / (((READ_BIT(RCC->PLLSAI1CFGR, RCC_PLLSAI1CFGR_PLLSAI1R) >> RCC_PL
1658:Drivers/STM32L4xx_HAL_Driver/Src/stm32l4xx_hal_rcc_ex.c ****           }
1659:Drivers/STM32L4xx_HAL_Driver/Src/stm32l4xx_hal_rcc_ex.c ****           break;
1660:Drivers/STM32L4xx_HAL_Driver/Src/stm32l4xx_hal_rcc_ex.c **** #endif /* RCC_PLLSAI1_SUPPORT */
1661:Drivers/STM32L4xx_HAL_Driver/Src/stm32l4xx_hal_rcc_ex.c **** #if defined(STM32L471xx) || defined(STM32L475xx) || defined(STM32L476xx) || defined(STM32L485xx) ||
1662:Drivers/STM32L4xx_HAL_Driver/Src/stm32l4xx_hal_rcc_ex.c ****         case RCC_ADCCLKSOURCE_PLLSAI2:
1663:Drivers/STM32L4xx_HAL_Driver/Src/stm32l4xx_hal_rcc_ex.c ****           if(HAL_IS_BIT_SET(RCC->CR, RCC_CR_PLLSAI2RDY) && (__HAL_RCC_GET_PLLSAI2CLKOUT_CONFIG(RCC_
1664:Drivers/STM32L4xx_HAL_Driver/Src/stm32l4xx_hal_rcc_ex.c ****           {
1665:Drivers/STM32L4xx_HAL_Driver/Src/stm32l4xx_hal_rcc_ex.c ****             plln = READ_BIT(RCC->PLLSAI2CFGR, RCC_PLLSAI2CFGR_PLLSAI2N) >> RCC_PLLSAI2CFGR_PLLSAI2N
1666:Drivers/STM32L4xx_HAL_Driver/Src/stm32l4xx_hal_rcc_ex.c **** #if defined(RCC_PLLSAI2M_DIV_1_16_SUPPORT)
1667:Drivers/STM32L4xx_HAL_Driver/Src/stm32l4xx_hal_rcc_ex.c ****             /* PLLSAI2M exists: apply PLLSAI2M divider for PLLSAI2 output computation */
1668:Drivers/STM32L4xx_HAL_Driver/Src/stm32l4xx_hal_rcc_ex.c ****             /* f(PLLSAI2 Source) * PLLSAI2N / PLLSAI2M */
1669:Drivers/STM32L4xx_HAL_Driver/Src/stm32l4xx_hal_rcc_ex.c ****             pllvco = ((pllvco * plln) / ((READ_BIT(RCC->PLLSAI2CFGR, RCC_PLLSAI2CFGR_PLLSAI2M) >> R
1670:Drivers/STM32L4xx_HAL_Driver/Src/stm32l4xx_hal_rcc_ex.c **** #else
1671:Drivers/STM32L4xx_HAL_Driver/Src/stm32l4xx_hal_rcc_ex.c ****             /* f(PLL Source) * PLLSAI2N / PLLM */
1672:Drivers/STM32L4xx_HAL_Driver/Src/stm32l4xx_hal_rcc_ex.c ****             pllvco = ((pllvco * plln) / ((READ_BIT(RCC->PLLCFGR, RCC_PLLCFGR_PLLM) >> RCC_PLLCFGR_P
1673:Drivers/STM32L4xx_HAL_Driver/Src/stm32l4xx_hal_rcc_ex.c **** #endif
1674:Drivers/STM32L4xx_HAL_Driver/Src/stm32l4xx_hal_rcc_ex.c ****             /* f(PLLADC2CLK) = f(VCOSAI2 input) / PLLSAI2R */
1675:Drivers/STM32L4xx_HAL_Driver/Src/stm32l4xx_hal_rcc_ex.c ****             frequency = (pllvco / (((READ_BIT(RCC->PLLSAI2CFGR, RCC_PLLSAI2CFGR_PLLSAI2R) >> RCC_PL
1676:Drivers/STM32L4xx_HAL_Driver/Src/stm32l4xx_hal_rcc_ex.c ****           }
1677:Drivers/STM32L4xx_HAL_Driver/Src/stm32l4xx_hal_rcc_ex.c ****           break;
1678:Drivers/STM32L4xx_HAL_Driver/Src/stm32l4xx_hal_rcc_ex.c **** #endif /* STM32L471xx || STM32L475xx || STM32L476xx || STM32L485xx || STM32L486xx || STM32L496xx ||
ARM GAS  C:\Users\Morroway\AppData\Local\Temp\ccOmimY8.s 			page 61


1679:Drivers/STM32L4xx_HAL_Driver/Src/stm32l4xx_hal_rcc_ex.c ****         default:
1680:Drivers/STM32L4xx_HAL_Driver/Src/stm32l4xx_hal_rcc_ex.c ****           /* No clock source, frequency default init at 0 */
1681:Drivers/STM32L4xx_HAL_Driver/Src/stm32l4xx_hal_rcc_ex.c ****           break;
1682:Drivers/STM32L4xx_HAL_Driver/Src/stm32l4xx_hal_rcc_ex.c ****         }
1683:Drivers/STM32L4xx_HAL_Driver/Src/stm32l4xx_hal_rcc_ex.c **** 
1684:Drivers/STM32L4xx_HAL_Driver/Src/stm32l4xx_hal_rcc_ex.c ****         break;
1685:Drivers/STM32L4xx_HAL_Driver/Src/stm32l4xx_hal_rcc_ex.c ****       }
1686:Drivers/STM32L4xx_HAL_Driver/Src/stm32l4xx_hal_rcc_ex.c **** 
1687:Drivers/STM32L4xx_HAL_Driver/Src/stm32l4xx_hal_rcc_ex.c **** #if defined(DFSDM1_Filter0)
1688:Drivers/STM32L4xx_HAL_Driver/Src/stm32l4xx_hal_rcc_ex.c **** 
1689:Drivers/STM32L4xx_HAL_Driver/Src/stm32l4xx_hal_rcc_ex.c ****     case RCC_PERIPHCLK_DFSDM1:
1690:Drivers/STM32L4xx_HAL_Driver/Src/stm32l4xx_hal_rcc_ex.c ****       {
1691:Drivers/STM32L4xx_HAL_Driver/Src/stm32l4xx_hal_rcc_ex.c ****         /* Get the current DFSDM1 source */
1692:Drivers/STM32L4xx_HAL_Driver/Src/stm32l4xx_hal_rcc_ex.c ****         srcclk = __HAL_RCC_GET_DFSDM1_SOURCE();
1693:Drivers/STM32L4xx_HAL_Driver/Src/stm32l4xx_hal_rcc_ex.c **** 
1694:Drivers/STM32L4xx_HAL_Driver/Src/stm32l4xx_hal_rcc_ex.c ****         if(srcclk == RCC_DFSDM1CLKSOURCE_PCLK2)
1695:Drivers/STM32L4xx_HAL_Driver/Src/stm32l4xx_hal_rcc_ex.c ****         {
1696:Drivers/STM32L4xx_HAL_Driver/Src/stm32l4xx_hal_rcc_ex.c ****           frequency = HAL_RCC_GetPCLK2Freq();
1697:Drivers/STM32L4xx_HAL_Driver/Src/stm32l4xx_hal_rcc_ex.c ****         }
1698:Drivers/STM32L4xx_HAL_Driver/Src/stm32l4xx_hal_rcc_ex.c ****         else
1699:Drivers/STM32L4xx_HAL_Driver/Src/stm32l4xx_hal_rcc_ex.c ****         {
1700:Drivers/STM32L4xx_HAL_Driver/Src/stm32l4xx_hal_rcc_ex.c ****           frequency = HAL_RCC_GetSysClockFreq();
1701:Drivers/STM32L4xx_HAL_Driver/Src/stm32l4xx_hal_rcc_ex.c ****         }
1702:Drivers/STM32L4xx_HAL_Driver/Src/stm32l4xx_hal_rcc_ex.c **** 
1703:Drivers/STM32L4xx_HAL_Driver/Src/stm32l4xx_hal_rcc_ex.c ****         break;
1704:Drivers/STM32L4xx_HAL_Driver/Src/stm32l4xx_hal_rcc_ex.c ****       }
1705:Drivers/STM32L4xx_HAL_Driver/Src/stm32l4xx_hal_rcc_ex.c **** 
1706:Drivers/STM32L4xx_HAL_Driver/Src/stm32l4xx_hal_rcc_ex.c **** #if defined(STM32L4R5xx) || defined(STM32L4R7xx) || defined(STM32L4R9xx) || defined(STM32L4S5xx) ||
1707:Drivers/STM32L4xx_HAL_Driver/Src/stm32l4xx_hal_rcc_ex.c **** 
1708:Drivers/STM32L4xx_HAL_Driver/Src/stm32l4xx_hal_rcc_ex.c ****     case RCC_PERIPHCLK_DFSDM1AUDIO:
1709:Drivers/STM32L4xx_HAL_Driver/Src/stm32l4xx_hal_rcc_ex.c ****       {
1710:Drivers/STM32L4xx_HAL_Driver/Src/stm32l4xx_hal_rcc_ex.c ****         /* Get the current DFSDM1 audio source */
1711:Drivers/STM32L4xx_HAL_Driver/Src/stm32l4xx_hal_rcc_ex.c ****         srcclk = __HAL_RCC_GET_DFSDM1AUDIO_SOURCE();
1712:Drivers/STM32L4xx_HAL_Driver/Src/stm32l4xx_hal_rcc_ex.c **** 
1713:Drivers/STM32L4xx_HAL_Driver/Src/stm32l4xx_hal_rcc_ex.c ****         switch(srcclk)
1714:Drivers/STM32L4xx_HAL_Driver/Src/stm32l4xx_hal_rcc_ex.c ****         {
1715:Drivers/STM32L4xx_HAL_Driver/Src/stm32l4xx_hal_rcc_ex.c ****         case RCC_DFSDM1AUDIOCLKSOURCE_SAI1:
1716:Drivers/STM32L4xx_HAL_Driver/Src/stm32l4xx_hal_rcc_ex.c ****           frequency = RCCEx_GetSAIxPeriphCLKFreq(RCC_PERIPHCLK_SAI1, pllvco);
1717:Drivers/STM32L4xx_HAL_Driver/Src/stm32l4xx_hal_rcc_ex.c ****           break;
1718:Drivers/STM32L4xx_HAL_Driver/Src/stm32l4xx_hal_rcc_ex.c ****         case RCC_DFSDM1AUDIOCLKSOURCE_MSI:
1719:Drivers/STM32L4xx_HAL_Driver/Src/stm32l4xx_hal_rcc_ex.c ****           if(HAL_IS_BIT_SET(RCC->CR, RCC_CR_MSIRDY))
1720:Drivers/STM32L4xx_HAL_Driver/Src/stm32l4xx_hal_rcc_ex.c ****           {
1721:Drivers/STM32L4xx_HAL_Driver/Src/stm32l4xx_hal_rcc_ex.c ****             /*MSI frequency range in HZ*/
1722:Drivers/STM32L4xx_HAL_Driver/Src/stm32l4xx_hal_rcc_ex.c ****             frequency = MSIRangeTable[(__HAL_RCC_GET_MSI_RANGE() >> 4U)];
1723:Drivers/STM32L4xx_HAL_Driver/Src/stm32l4xx_hal_rcc_ex.c ****           }
1724:Drivers/STM32L4xx_HAL_Driver/Src/stm32l4xx_hal_rcc_ex.c ****           break;
1725:Drivers/STM32L4xx_HAL_Driver/Src/stm32l4xx_hal_rcc_ex.c ****         case RCC_DFSDM1AUDIOCLKSOURCE_HSI:
1726:Drivers/STM32L4xx_HAL_Driver/Src/stm32l4xx_hal_rcc_ex.c ****           if(HAL_IS_BIT_SET(RCC->CR, RCC_CR_HSIRDY))
1727:Drivers/STM32L4xx_HAL_Driver/Src/stm32l4xx_hal_rcc_ex.c ****           {
1728:Drivers/STM32L4xx_HAL_Driver/Src/stm32l4xx_hal_rcc_ex.c ****             frequency = HSI_VALUE;
1729:Drivers/STM32L4xx_HAL_Driver/Src/stm32l4xx_hal_rcc_ex.c ****           }
1730:Drivers/STM32L4xx_HAL_Driver/Src/stm32l4xx_hal_rcc_ex.c ****           break;
1731:Drivers/STM32L4xx_HAL_Driver/Src/stm32l4xx_hal_rcc_ex.c ****         default:
1732:Drivers/STM32L4xx_HAL_Driver/Src/stm32l4xx_hal_rcc_ex.c ****           /* No clock source, frequency default init at 0 */
1733:Drivers/STM32L4xx_HAL_Driver/Src/stm32l4xx_hal_rcc_ex.c ****           break;
1734:Drivers/STM32L4xx_HAL_Driver/Src/stm32l4xx_hal_rcc_ex.c ****         }
1735:Drivers/STM32L4xx_HAL_Driver/Src/stm32l4xx_hal_rcc_ex.c **** 
ARM GAS  C:\Users\Morroway\AppData\Local\Temp\ccOmimY8.s 			page 62


1736:Drivers/STM32L4xx_HAL_Driver/Src/stm32l4xx_hal_rcc_ex.c ****         break;
1737:Drivers/STM32L4xx_HAL_Driver/Src/stm32l4xx_hal_rcc_ex.c ****       }
1738:Drivers/STM32L4xx_HAL_Driver/Src/stm32l4xx_hal_rcc_ex.c **** 
1739:Drivers/STM32L4xx_HAL_Driver/Src/stm32l4xx_hal_rcc_ex.c **** #endif /* STM32L4R5xx || STM32L4R7xx || STM32L4R9xx || STM32L4S5xx || STM32L4S7xx || STM32L4S9xx */
1740:Drivers/STM32L4xx_HAL_Driver/Src/stm32l4xx_hal_rcc_ex.c **** 
1741:Drivers/STM32L4xx_HAL_Driver/Src/stm32l4xx_hal_rcc_ex.c **** #endif /* DFSDM1_Filter0 */
1742:Drivers/STM32L4xx_HAL_Driver/Src/stm32l4xx_hal_rcc_ex.c **** 
1743:Drivers/STM32L4xx_HAL_Driver/Src/stm32l4xx_hal_rcc_ex.c ****     case RCC_PERIPHCLK_I2C1:
1744:Drivers/STM32L4xx_HAL_Driver/Src/stm32l4xx_hal_rcc_ex.c ****       {
1745:Drivers/STM32L4xx_HAL_Driver/Src/stm32l4xx_hal_rcc_ex.c ****         /* Get the current I2C1 source */
1746:Drivers/STM32L4xx_HAL_Driver/Src/stm32l4xx_hal_rcc_ex.c ****         srcclk = __HAL_RCC_GET_I2C1_SOURCE();
1747:Drivers/STM32L4xx_HAL_Driver/Src/stm32l4xx_hal_rcc_ex.c **** 
1748:Drivers/STM32L4xx_HAL_Driver/Src/stm32l4xx_hal_rcc_ex.c ****         switch(srcclk)
1749:Drivers/STM32L4xx_HAL_Driver/Src/stm32l4xx_hal_rcc_ex.c ****         {
1750:Drivers/STM32L4xx_HAL_Driver/Src/stm32l4xx_hal_rcc_ex.c ****         case RCC_I2C1CLKSOURCE_PCLK1:
1751:Drivers/STM32L4xx_HAL_Driver/Src/stm32l4xx_hal_rcc_ex.c ****           frequency = HAL_RCC_GetPCLK1Freq();
1752:Drivers/STM32L4xx_HAL_Driver/Src/stm32l4xx_hal_rcc_ex.c ****           break;
1753:Drivers/STM32L4xx_HAL_Driver/Src/stm32l4xx_hal_rcc_ex.c ****         case RCC_I2C1CLKSOURCE_SYSCLK:
1754:Drivers/STM32L4xx_HAL_Driver/Src/stm32l4xx_hal_rcc_ex.c ****           frequency = HAL_RCC_GetSysClockFreq();
1755:Drivers/STM32L4xx_HAL_Driver/Src/stm32l4xx_hal_rcc_ex.c ****           break;
1756:Drivers/STM32L4xx_HAL_Driver/Src/stm32l4xx_hal_rcc_ex.c ****         case RCC_I2C1CLKSOURCE_HSI:
1757:Drivers/STM32L4xx_HAL_Driver/Src/stm32l4xx_hal_rcc_ex.c ****           if(HAL_IS_BIT_SET(RCC->CR, RCC_CR_HSIRDY))
1758:Drivers/STM32L4xx_HAL_Driver/Src/stm32l4xx_hal_rcc_ex.c ****           {
1759:Drivers/STM32L4xx_HAL_Driver/Src/stm32l4xx_hal_rcc_ex.c ****             frequency = HSI_VALUE;
1760:Drivers/STM32L4xx_HAL_Driver/Src/stm32l4xx_hal_rcc_ex.c ****           }
1761:Drivers/STM32L4xx_HAL_Driver/Src/stm32l4xx_hal_rcc_ex.c ****           break;
1762:Drivers/STM32L4xx_HAL_Driver/Src/stm32l4xx_hal_rcc_ex.c ****         default:
1763:Drivers/STM32L4xx_HAL_Driver/Src/stm32l4xx_hal_rcc_ex.c ****           /* No clock source, frequency default init at 0 */
1764:Drivers/STM32L4xx_HAL_Driver/Src/stm32l4xx_hal_rcc_ex.c ****           break;
1765:Drivers/STM32L4xx_HAL_Driver/Src/stm32l4xx_hal_rcc_ex.c ****         }
1766:Drivers/STM32L4xx_HAL_Driver/Src/stm32l4xx_hal_rcc_ex.c **** 
1767:Drivers/STM32L4xx_HAL_Driver/Src/stm32l4xx_hal_rcc_ex.c ****         break;
1768:Drivers/STM32L4xx_HAL_Driver/Src/stm32l4xx_hal_rcc_ex.c ****       }
1769:Drivers/STM32L4xx_HAL_Driver/Src/stm32l4xx_hal_rcc_ex.c **** 
1770:Drivers/STM32L4xx_HAL_Driver/Src/stm32l4xx_hal_rcc_ex.c **** #if defined(I2C2)
1771:Drivers/STM32L4xx_HAL_Driver/Src/stm32l4xx_hal_rcc_ex.c **** 
1772:Drivers/STM32L4xx_HAL_Driver/Src/stm32l4xx_hal_rcc_ex.c ****     case RCC_PERIPHCLK_I2C2:
1773:Drivers/STM32L4xx_HAL_Driver/Src/stm32l4xx_hal_rcc_ex.c ****       {
1774:Drivers/STM32L4xx_HAL_Driver/Src/stm32l4xx_hal_rcc_ex.c ****         /* Get the current I2C2 source */
1775:Drivers/STM32L4xx_HAL_Driver/Src/stm32l4xx_hal_rcc_ex.c ****         srcclk = __HAL_RCC_GET_I2C2_SOURCE();
1776:Drivers/STM32L4xx_HAL_Driver/Src/stm32l4xx_hal_rcc_ex.c **** 
1777:Drivers/STM32L4xx_HAL_Driver/Src/stm32l4xx_hal_rcc_ex.c ****         switch(srcclk)
1778:Drivers/STM32L4xx_HAL_Driver/Src/stm32l4xx_hal_rcc_ex.c ****         {
1779:Drivers/STM32L4xx_HAL_Driver/Src/stm32l4xx_hal_rcc_ex.c ****         case RCC_I2C2CLKSOURCE_PCLK1:
1780:Drivers/STM32L4xx_HAL_Driver/Src/stm32l4xx_hal_rcc_ex.c ****           frequency = HAL_RCC_GetPCLK1Freq();
1781:Drivers/STM32L4xx_HAL_Driver/Src/stm32l4xx_hal_rcc_ex.c ****           break;
1782:Drivers/STM32L4xx_HAL_Driver/Src/stm32l4xx_hal_rcc_ex.c ****         case RCC_I2C2CLKSOURCE_SYSCLK:
1783:Drivers/STM32L4xx_HAL_Driver/Src/stm32l4xx_hal_rcc_ex.c ****           frequency = HAL_RCC_GetSysClockFreq();
1784:Drivers/STM32L4xx_HAL_Driver/Src/stm32l4xx_hal_rcc_ex.c ****           break;
1785:Drivers/STM32L4xx_HAL_Driver/Src/stm32l4xx_hal_rcc_ex.c ****         case RCC_I2C2CLKSOURCE_HSI:
1786:Drivers/STM32L4xx_HAL_Driver/Src/stm32l4xx_hal_rcc_ex.c ****           if(HAL_IS_BIT_SET(RCC->CR, RCC_CR_HSIRDY))
1787:Drivers/STM32L4xx_HAL_Driver/Src/stm32l4xx_hal_rcc_ex.c ****           {
1788:Drivers/STM32L4xx_HAL_Driver/Src/stm32l4xx_hal_rcc_ex.c ****             frequency = HSI_VALUE;
1789:Drivers/STM32L4xx_HAL_Driver/Src/stm32l4xx_hal_rcc_ex.c ****           }
1790:Drivers/STM32L4xx_HAL_Driver/Src/stm32l4xx_hal_rcc_ex.c ****           break;
1791:Drivers/STM32L4xx_HAL_Driver/Src/stm32l4xx_hal_rcc_ex.c ****         default:
1792:Drivers/STM32L4xx_HAL_Driver/Src/stm32l4xx_hal_rcc_ex.c ****           /* No clock source, frequency default init at 0 */
ARM GAS  C:\Users\Morroway\AppData\Local\Temp\ccOmimY8.s 			page 63


1793:Drivers/STM32L4xx_HAL_Driver/Src/stm32l4xx_hal_rcc_ex.c ****           break;
1794:Drivers/STM32L4xx_HAL_Driver/Src/stm32l4xx_hal_rcc_ex.c ****         }
1795:Drivers/STM32L4xx_HAL_Driver/Src/stm32l4xx_hal_rcc_ex.c **** 
1796:Drivers/STM32L4xx_HAL_Driver/Src/stm32l4xx_hal_rcc_ex.c ****         break;
1797:Drivers/STM32L4xx_HAL_Driver/Src/stm32l4xx_hal_rcc_ex.c ****       }
1798:Drivers/STM32L4xx_HAL_Driver/Src/stm32l4xx_hal_rcc_ex.c **** 
1799:Drivers/STM32L4xx_HAL_Driver/Src/stm32l4xx_hal_rcc_ex.c **** #endif /* I2C2 */
1800:Drivers/STM32L4xx_HAL_Driver/Src/stm32l4xx_hal_rcc_ex.c **** 
1801:Drivers/STM32L4xx_HAL_Driver/Src/stm32l4xx_hal_rcc_ex.c ****     case RCC_PERIPHCLK_I2C3:
1802:Drivers/STM32L4xx_HAL_Driver/Src/stm32l4xx_hal_rcc_ex.c ****       {
1803:Drivers/STM32L4xx_HAL_Driver/Src/stm32l4xx_hal_rcc_ex.c ****         /* Get the current I2C3 source */
1804:Drivers/STM32L4xx_HAL_Driver/Src/stm32l4xx_hal_rcc_ex.c ****         srcclk = __HAL_RCC_GET_I2C3_SOURCE();
1805:Drivers/STM32L4xx_HAL_Driver/Src/stm32l4xx_hal_rcc_ex.c **** 
1806:Drivers/STM32L4xx_HAL_Driver/Src/stm32l4xx_hal_rcc_ex.c ****         switch(srcclk)
1807:Drivers/STM32L4xx_HAL_Driver/Src/stm32l4xx_hal_rcc_ex.c ****         {
1808:Drivers/STM32L4xx_HAL_Driver/Src/stm32l4xx_hal_rcc_ex.c ****         case RCC_I2C3CLKSOURCE_PCLK1:
1809:Drivers/STM32L4xx_HAL_Driver/Src/stm32l4xx_hal_rcc_ex.c ****           frequency = HAL_RCC_GetPCLK1Freq();
1810:Drivers/STM32L4xx_HAL_Driver/Src/stm32l4xx_hal_rcc_ex.c ****           break;
1811:Drivers/STM32L4xx_HAL_Driver/Src/stm32l4xx_hal_rcc_ex.c ****         case RCC_I2C3CLKSOURCE_SYSCLK:
1812:Drivers/STM32L4xx_HAL_Driver/Src/stm32l4xx_hal_rcc_ex.c ****           frequency = HAL_RCC_GetSysClockFreq();
1813:Drivers/STM32L4xx_HAL_Driver/Src/stm32l4xx_hal_rcc_ex.c ****           break;
1814:Drivers/STM32L4xx_HAL_Driver/Src/stm32l4xx_hal_rcc_ex.c ****         case RCC_I2C3CLKSOURCE_HSI:
1815:Drivers/STM32L4xx_HAL_Driver/Src/stm32l4xx_hal_rcc_ex.c ****           if(HAL_IS_BIT_SET(RCC->CR, RCC_CR_HSIRDY))
1816:Drivers/STM32L4xx_HAL_Driver/Src/stm32l4xx_hal_rcc_ex.c ****           {
1817:Drivers/STM32L4xx_HAL_Driver/Src/stm32l4xx_hal_rcc_ex.c ****             frequency = HSI_VALUE;
1818:Drivers/STM32L4xx_HAL_Driver/Src/stm32l4xx_hal_rcc_ex.c ****           }
1819:Drivers/STM32L4xx_HAL_Driver/Src/stm32l4xx_hal_rcc_ex.c ****           break;
1820:Drivers/STM32L4xx_HAL_Driver/Src/stm32l4xx_hal_rcc_ex.c ****         default:
1821:Drivers/STM32L4xx_HAL_Driver/Src/stm32l4xx_hal_rcc_ex.c ****           /* No clock source, frequency default init at 0 */
1822:Drivers/STM32L4xx_HAL_Driver/Src/stm32l4xx_hal_rcc_ex.c ****           break;
1823:Drivers/STM32L4xx_HAL_Driver/Src/stm32l4xx_hal_rcc_ex.c ****         }
1824:Drivers/STM32L4xx_HAL_Driver/Src/stm32l4xx_hal_rcc_ex.c **** 
1825:Drivers/STM32L4xx_HAL_Driver/Src/stm32l4xx_hal_rcc_ex.c ****         break;
1826:Drivers/STM32L4xx_HAL_Driver/Src/stm32l4xx_hal_rcc_ex.c ****       }
1827:Drivers/STM32L4xx_HAL_Driver/Src/stm32l4xx_hal_rcc_ex.c **** 
1828:Drivers/STM32L4xx_HAL_Driver/Src/stm32l4xx_hal_rcc_ex.c **** #if defined(I2C4)
1829:Drivers/STM32L4xx_HAL_Driver/Src/stm32l4xx_hal_rcc_ex.c **** 
1830:Drivers/STM32L4xx_HAL_Driver/Src/stm32l4xx_hal_rcc_ex.c ****     case RCC_PERIPHCLK_I2C4:
1831:Drivers/STM32L4xx_HAL_Driver/Src/stm32l4xx_hal_rcc_ex.c ****       {
1832:Drivers/STM32L4xx_HAL_Driver/Src/stm32l4xx_hal_rcc_ex.c ****         /* Get the current I2C4 source */
1833:Drivers/STM32L4xx_HAL_Driver/Src/stm32l4xx_hal_rcc_ex.c ****         srcclk = __HAL_RCC_GET_I2C4_SOURCE();
1834:Drivers/STM32L4xx_HAL_Driver/Src/stm32l4xx_hal_rcc_ex.c **** 
1835:Drivers/STM32L4xx_HAL_Driver/Src/stm32l4xx_hal_rcc_ex.c ****         switch(srcclk)
1836:Drivers/STM32L4xx_HAL_Driver/Src/stm32l4xx_hal_rcc_ex.c ****         {
1837:Drivers/STM32L4xx_HAL_Driver/Src/stm32l4xx_hal_rcc_ex.c ****         case RCC_I2C4CLKSOURCE_PCLK1:
1838:Drivers/STM32L4xx_HAL_Driver/Src/stm32l4xx_hal_rcc_ex.c ****           frequency = HAL_RCC_GetPCLK1Freq();
1839:Drivers/STM32L4xx_HAL_Driver/Src/stm32l4xx_hal_rcc_ex.c ****           break;
1840:Drivers/STM32L4xx_HAL_Driver/Src/stm32l4xx_hal_rcc_ex.c ****         case RCC_I2C4CLKSOURCE_SYSCLK:
1841:Drivers/STM32L4xx_HAL_Driver/Src/stm32l4xx_hal_rcc_ex.c ****           frequency = HAL_RCC_GetSysClockFreq();
1842:Drivers/STM32L4xx_HAL_Driver/Src/stm32l4xx_hal_rcc_ex.c ****           break;
1843:Drivers/STM32L4xx_HAL_Driver/Src/stm32l4xx_hal_rcc_ex.c ****         case RCC_I2C4CLKSOURCE_HSI:
1844:Drivers/STM32L4xx_HAL_Driver/Src/stm32l4xx_hal_rcc_ex.c ****           if(HAL_IS_BIT_SET(RCC->CR, RCC_CR_HSIRDY))
1845:Drivers/STM32L4xx_HAL_Driver/Src/stm32l4xx_hal_rcc_ex.c ****           {
1846:Drivers/STM32L4xx_HAL_Driver/Src/stm32l4xx_hal_rcc_ex.c ****             frequency = HSI_VALUE;
1847:Drivers/STM32L4xx_HAL_Driver/Src/stm32l4xx_hal_rcc_ex.c ****           }
1848:Drivers/STM32L4xx_HAL_Driver/Src/stm32l4xx_hal_rcc_ex.c ****           break;
1849:Drivers/STM32L4xx_HAL_Driver/Src/stm32l4xx_hal_rcc_ex.c ****         default:
ARM GAS  C:\Users\Morroway\AppData\Local\Temp\ccOmimY8.s 			page 64


1850:Drivers/STM32L4xx_HAL_Driver/Src/stm32l4xx_hal_rcc_ex.c ****           /* No clock source, frequency default init at 0 */
1851:Drivers/STM32L4xx_HAL_Driver/Src/stm32l4xx_hal_rcc_ex.c ****           break;
1852:Drivers/STM32L4xx_HAL_Driver/Src/stm32l4xx_hal_rcc_ex.c ****         }
1853:Drivers/STM32L4xx_HAL_Driver/Src/stm32l4xx_hal_rcc_ex.c **** 
1854:Drivers/STM32L4xx_HAL_Driver/Src/stm32l4xx_hal_rcc_ex.c ****         break;
1855:Drivers/STM32L4xx_HAL_Driver/Src/stm32l4xx_hal_rcc_ex.c ****       }
1856:Drivers/STM32L4xx_HAL_Driver/Src/stm32l4xx_hal_rcc_ex.c **** 
1857:Drivers/STM32L4xx_HAL_Driver/Src/stm32l4xx_hal_rcc_ex.c **** #endif /* I2C4 */
1858:Drivers/STM32L4xx_HAL_Driver/Src/stm32l4xx_hal_rcc_ex.c **** 
1859:Drivers/STM32L4xx_HAL_Driver/Src/stm32l4xx_hal_rcc_ex.c ****     case RCC_PERIPHCLK_LPTIM1:
1860:Drivers/STM32L4xx_HAL_Driver/Src/stm32l4xx_hal_rcc_ex.c ****       {
1861:Drivers/STM32L4xx_HAL_Driver/Src/stm32l4xx_hal_rcc_ex.c ****         /* Get the current LPTIM1 source */
1862:Drivers/STM32L4xx_HAL_Driver/Src/stm32l4xx_hal_rcc_ex.c ****         srcclk = __HAL_RCC_GET_LPTIM1_SOURCE();
1863:Drivers/STM32L4xx_HAL_Driver/Src/stm32l4xx_hal_rcc_ex.c **** 
1864:Drivers/STM32L4xx_HAL_Driver/Src/stm32l4xx_hal_rcc_ex.c ****         switch(srcclk)
1865:Drivers/STM32L4xx_HAL_Driver/Src/stm32l4xx_hal_rcc_ex.c ****         {
1866:Drivers/STM32L4xx_HAL_Driver/Src/stm32l4xx_hal_rcc_ex.c ****         case RCC_LPTIM1CLKSOURCE_PCLK1:
1867:Drivers/STM32L4xx_HAL_Driver/Src/stm32l4xx_hal_rcc_ex.c ****           frequency = HAL_RCC_GetPCLK1Freq();
1868:Drivers/STM32L4xx_HAL_Driver/Src/stm32l4xx_hal_rcc_ex.c ****           break;
1869:Drivers/STM32L4xx_HAL_Driver/Src/stm32l4xx_hal_rcc_ex.c ****         case RCC_LPTIM1CLKSOURCE_LSI:
1870:Drivers/STM32L4xx_HAL_Driver/Src/stm32l4xx_hal_rcc_ex.c ****           if(HAL_IS_BIT_SET(RCC->CSR, RCC_CSR_LSIRDY))
1871:Drivers/STM32L4xx_HAL_Driver/Src/stm32l4xx_hal_rcc_ex.c ****           {
1872:Drivers/STM32L4xx_HAL_Driver/Src/stm32l4xx_hal_rcc_ex.c **** #if defined(RCC_CSR_LSIPREDIV)
1873:Drivers/STM32L4xx_HAL_Driver/Src/stm32l4xx_hal_rcc_ex.c ****             if(HAL_IS_BIT_SET(RCC->CSR, RCC_CSR_LSIPREDIV))
1874:Drivers/STM32L4xx_HAL_Driver/Src/stm32l4xx_hal_rcc_ex.c ****             {
1875:Drivers/STM32L4xx_HAL_Driver/Src/stm32l4xx_hal_rcc_ex.c ****               frequency = LSI_VALUE/128U;
1876:Drivers/STM32L4xx_HAL_Driver/Src/stm32l4xx_hal_rcc_ex.c ****             }
1877:Drivers/STM32L4xx_HAL_Driver/Src/stm32l4xx_hal_rcc_ex.c ****             else
1878:Drivers/STM32L4xx_HAL_Driver/Src/stm32l4xx_hal_rcc_ex.c **** #endif /* RCC_CSR_LSIPREDIV */
1879:Drivers/STM32L4xx_HAL_Driver/Src/stm32l4xx_hal_rcc_ex.c ****             {
1880:Drivers/STM32L4xx_HAL_Driver/Src/stm32l4xx_hal_rcc_ex.c ****               frequency = LSI_VALUE;
1881:Drivers/STM32L4xx_HAL_Driver/Src/stm32l4xx_hal_rcc_ex.c ****             }
1882:Drivers/STM32L4xx_HAL_Driver/Src/stm32l4xx_hal_rcc_ex.c ****           }
1883:Drivers/STM32L4xx_HAL_Driver/Src/stm32l4xx_hal_rcc_ex.c ****           break;
1884:Drivers/STM32L4xx_HAL_Driver/Src/stm32l4xx_hal_rcc_ex.c ****         case RCC_LPTIM1CLKSOURCE_HSI:
1885:Drivers/STM32L4xx_HAL_Driver/Src/stm32l4xx_hal_rcc_ex.c ****           if(HAL_IS_BIT_SET(RCC->CR, RCC_CR_HSIRDY))
1886:Drivers/STM32L4xx_HAL_Driver/Src/stm32l4xx_hal_rcc_ex.c ****           {
1887:Drivers/STM32L4xx_HAL_Driver/Src/stm32l4xx_hal_rcc_ex.c ****             frequency = HSI_VALUE;
1888:Drivers/STM32L4xx_HAL_Driver/Src/stm32l4xx_hal_rcc_ex.c ****           }
1889:Drivers/STM32L4xx_HAL_Driver/Src/stm32l4xx_hal_rcc_ex.c ****           break;
1890:Drivers/STM32L4xx_HAL_Driver/Src/stm32l4xx_hal_rcc_ex.c ****         case RCC_LPTIM1CLKSOURCE_LSE:
1891:Drivers/STM32L4xx_HAL_Driver/Src/stm32l4xx_hal_rcc_ex.c ****           if(HAL_IS_BIT_SET(RCC->BDCR, RCC_BDCR_LSERDY))
1892:Drivers/STM32L4xx_HAL_Driver/Src/stm32l4xx_hal_rcc_ex.c ****           {
1893:Drivers/STM32L4xx_HAL_Driver/Src/stm32l4xx_hal_rcc_ex.c ****             frequency = LSE_VALUE;
1894:Drivers/STM32L4xx_HAL_Driver/Src/stm32l4xx_hal_rcc_ex.c ****           }
1895:Drivers/STM32L4xx_HAL_Driver/Src/stm32l4xx_hal_rcc_ex.c ****           break;
1896:Drivers/STM32L4xx_HAL_Driver/Src/stm32l4xx_hal_rcc_ex.c ****         default:
1897:Drivers/STM32L4xx_HAL_Driver/Src/stm32l4xx_hal_rcc_ex.c ****           /* No clock source, frequency default init at 0 */
1898:Drivers/STM32L4xx_HAL_Driver/Src/stm32l4xx_hal_rcc_ex.c ****           break;
1899:Drivers/STM32L4xx_HAL_Driver/Src/stm32l4xx_hal_rcc_ex.c ****         }
1900:Drivers/STM32L4xx_HAL_Driver/Src/stm32l4xx_hal_rcc_ex.c **** 
1901:Drivers/STM32L4xx_HAL_Driver/Src/stm32l4xx_hal_rcc_ex.c ****         break;
1902:Drivers/STM32L4xx_HAL_Driver/Src/stm32l4xx_hal_rcc_ex.c ****       }
1903:Drivers/STM32L4xx_HAL_Driver/Src/stm32l4xx_hal_rcc_ex.c **** 
1904:Drivers/STM32L4xx_HAL_Driver/Src/stm32l4xx_hal_rcc_ex.c ****     case RCC_PERIPHCLK_LPTIM2:
1905:Drivers/STM32L4xx_HAL_Driver/Src/stm32l4xx_hal_rcc_ex.c ****       {
1906:Drivers/STM32L4xx_HAL_Driver/Src/stm32l4xx_hal_rcc_ex.c ****         /* Get the current LPTIM2 source */
ARM GAS  C:\Users\Morroway\AppData\Local\Temp\ccOmimY8.s 			page 65


1907:Drivers/STM32L4xx_HAL_Driver/Src/stm32l4xx_hal_rcc_ex.c ****        srcclk = __HAL_RCC_GET_LPTIM2_SOURCE();
1908:Drivers/STM32L4xx_HAL_Driver/Src/stm32l4xx_hal_rcc_ex.c **** 
1909:Drivers/STM32L4xx_HAL_Driver/Src/stm32l4xx_hal_rcc_ex.c ****         switch(srcclk)
1910:Drivers/STM32L4xx_HAL_Driver/Src/stm32l4xx_hal_rcc_ex.c ****         {
1911:Drivers/STM32L4xx_HAL_Driver/Src/stm32l4xx_hal_rcc_ex.c ****         case RCC_LPTIM2CLKSOURCE_PCLK1:
1912:Drivers/STM32L4xx_HAL_Driver/Src/stm32l4xx_hal_rcc_ex.c ****           frequency = HAL_RCC_GetPCLK1Freq();
1913:Drivers/STM32L4xx_HAL_Driver/Src/stm32l4xx_hal_rcc_ex.c ****           break;
1914:Drivers/STM32L4xx_HAL_Driver/Src/stm32l4xx_hal_rcc_ex.c ****         case RCC_LPTIM2CLKSOURCE_LSI:
1915:Drivers/STM32L4xx_HAL_Driver/Src/stm32l4xx_hal_rcc_ex.c ****           if(HAL_IS_BIT_SET(RCC->CSR, RCC_CSR_LSIRDY))
1916:Drivers/STM32L4xx_HAL_Driver/Src/stm32l4xx_hal_rcc_ex.c ****           {
1917:Drivers/STM32L4xx_HAL_Driver/Src/stm32l4xx_hal_rcc_ex.c **** #if defined(RCC_CSR_LSIPREDIV)
1918:Drivers/STM32L4xx_HAL_Driver/Src/stm32l4xx_hal_rcc_ex.c ****             if(HAL_IS_BIT_SET(RCC->CSR, RCC_CSR_LSIPREDIV))
1919:Drivers/STM32L4xx_HAL_Driver/Src/stm32l4xx_hal_rcc_ex.c ****             {
1920:Drivers/STM32L4xx_HAL_Driver/Src/stm32l4xx_hal_rcc_ex.c ****               frequency = LSI_VALUE/128U;
1921:Drivers/STM32L4xx_HAL_Driver/Src/stm32l4xx_hal_rcc_ex.c ****             }
1922:Drivers/STM32L4xx_HAL_Driver/Src/stm32l4xx_hal_rcc_ex.c ****             else
1923:Drivers/STM32L4xx_HAL_Driver/Src/stm32l4xx_hal_rcc_ex.c **** #endif /* RCC_CSR_LSIPREDIV */
1924:Drivers/STM32L4xx_HAL_Driver/Src/stm32l4xx_hal_rcc_ex.c ****             {
1925:Drivers/STM32L4xx_HAL_Driver/Src/stm32l4xx_hal_rcc_ex.c ****               frequency = LSI_VALUE;
1926:Drivers/STM32L4xx_HAL_Driver/Src/stm32l4xx_hal_rcc_ex.c ****             }
1927:Drivers/STM32L4xx_HAL_Driver/Src/stm32l4xx_hal_rcc_ex.c ****           }
1928:Drivers/STM32L4xx_HAL_Driver/Src/stm32l4xx_hal_rcc_ex.c ****           break;
1929:Drivers/STM32L4xx_HAL_Driver/Src/stm32l4xx_hal_rcc_ex.c ****         case RCC_LPTIM2CLKSOURCE_HSI:
1930:Drivers/STM32L4xx_HAL_Driver/Src/stm32l4xx_hal_rcc_ex.c ****           if(HAL_IS_BIT_SET(RCC->CR, RCC_CR_HSIRDY))
1931:Drivers/STM32L4xx_HAL_Driver/Src/stm32l4xx_hal_rcc_ex.c ****           {
1932:Drivers/STM32L4xx_HAL_Driver/Src/stm32l4xx_hal_rcc_ex.c ****             frequency = HSI_VALUE;
1933:Drivers/STM32L4xx_HAL_Driver/Src/stm32l4xx_hal_rcc_ex.c ****           }
1934:Drivers/STM32L4xx_HAL_Driver/Src/stm32l4xx_hal_rcc_ex.c ****           break;
1935:Drivers/STM32L4xx_HAL_Driver/Src/stm32l4xx_hal_rcc_ex.c ****         case RCC_LPTIM2CLKSOURCE_LSE:
1936:Drivers/STM32L4xx_HAL_Driver/Src/stm32l4xx_hal_rcc_ex.c ****           if(HAL_IS_BIT_SET(RCC->BDCR, RCC_BDCR_LSERDY))
1937:Drivers/STM32L4xx_HAL_Driver/Src/stm32l4xx_hal_rcc_ex.c ****           {
1938:Drivers/STM32L4xx_HAL_Driver/Src/stm32l4xx_hal_rcc_ex.c ****             frequency = LSE_VALUE;
1939:Drivers/STM32L4xx_HAL_Driver/Src/stm32l4xx_hal_rcc_ex.c ****           }
1940:Drivers/STM32L4xx_HAL_Driver/Src/stm32l4xx_hal_rcc_ex.c ****           break;
1941:Drivers/STM32L4xx_HAL_Driver/Src/stm32l4xx_hal_rcc_ex.c ****         default:
1942:Drivers/STM32L4xx_HAL_Driver/Src/stm32l4xx_hal_rcc_ex.c ****           /* No clock source, frequency default init at 0 */
1943:Drivers/STM32L4xx_HAL_Driver/Src/stm32l4xx_hal_rcc_ex.c ****           break;
1944:Drivers/STM32L4xx_HAL_Driver/Src/stm32l4xx_hal_rcc_ex.c ****         }
1945:Drivers/STM32L4xx_HAL_Driver/Src/stm32l4xx_hal_rcc_ex.c **** 
1946:Drivers/STM32L4xx_HAL_Driver/Src/stm32l4xx_hal_rcc_ex.c ****         break;
1947:Drivers/STM32L4xx_HAL_Driver/Src/stm32l4xx_hal_rcc_ex.c ****       }
1948:Drivers/STM32L4xx_HAL_Driver/Src/stm32l4xx_hal_rcc_ex.c **** 
1949:Drivers/STM32L4xx_HAL_Driver/Src/stm32l4xx_hal_rcc_ex.c **** #if defined(SWPMI1)
1950:Drivers/STM32L4xx_HAL_Driver/Src/stm32l4xx_hal_rcc_ex.c **** 
1951:Drivers/STM32L4xx_HAL_Driver/Src/stm32l4xx_hal_rcc_ex.c ****     case RCC_PERIPHCLK_SWPMI1:
1952:Drivers/STM32L4xx_HAL_Driver/Src/stm32l4xx_hal_rcc_ex.c ****       {
1953:Drivers/STM32L4xx_HAL_Driver/Src/stm32l4xx_hal_rcc_ex.c ****         /* Get the current SWPMI1 source */
1954:Drivers/STM32L4xx_HAL_Driver/Src/stm32l4xx_hal_rcc_ex.c ****         srcclk = __HAL_RCC_GET_SWPMI1_SOURCE();
1955:Drivers/STM32L4xx_HAL_Driver/Src/stm32l4xx_hal_rcc_ex.c **** 
1956:Drivers/STM32L4xx_HAL_Driver/Src/stm32l4xx_hal_rcc_ex.c ****         switch(srcclk)
1957:Drivers/STM32L4xx_HAL_Driver/Src/stm32l4xx_hal_rcc_ex.c ****         {
1958:Drivers/STM32L4xx_HAL_Driver/Src/stm32l4xx_hal_rcc_ex.c ****         case RCC_SWPMI1CLKSOURCE_PCLK1:
1959:Drivers/STM32L4xx_HAL_Driver/Src/stm32l4xx_hal_rcc_ex.c ****           frequency = HAL_RCC_GetPCLK1Freq();
1960:Drivers/STM32L4xx_HAL_Driver/Src/stm32l4xx_hal_rcc_ex.c ****           break;
1961:Drivers/STM32L4xx_HAL_Driver/Src/stm32l4xx_hal_rcc_ex.c ****         case RCC_SWPMI1CLKSOURCE_HSI:
1962:Drivers/STM32L4xx_HAL_Driver/Src/stm32l4xx_hal_rcc_ex.c ****           if(HAL_IS_BIT_SET(RCC->CR, RCC_CR_HSIRDY))
1963:Drivers/STM32L4xx_HAL_Driver/Src/stm32l4xx_hal_rcc_ex.c ****           {
ARM GAS  C:\Users\Morroway\AppData\Local\Temp\ccOmimY8.s 			page 66


1964:Drivers/STM32L4xx_HAL_Driver/Src/stm32l4xx_hal_rcc_ex.c ****             frequency = HSI_VALUE;
1965:Drivers/STM32L4xx_HAL_Driver/Src/stm32l4xx_hal_rcc_ex.c ****           }
1966:Drivers/STM32L4xx_HAL_Driver/Src/stm32l4xx_hal_rcc_ex.c ****           break;
1967:Drivers/STM32L4xx_HAL_Driver/Src/stm32l4xx_hal_rcc_ex.c ****         default:
1968:Drivers/STM32L4xx_HAL_Driver/Src/stm32l4xx_hal_rcc_ex.c ****           /* No clock source, frequency default init at 0 */
1969:Drivers/STM32L4xx_HAL_Driver/Src/stm32l4xx_hal_rcc_ex.c ****           break;
1970:Drivers/STM32L4xx_HAL_Driver/Src/stm32l4xx_hal_rcc_ex.c ****         }
1971:Drivers/STM32L4xx_HAL_Driver/Src/stm32l4xx_hal_rcc_ex.c **** 
1972:Drivers/STM32L4xx_HAL_Driver/Src/stm32l4xx_hal_rcc_ex.c ****         break;
1973:Drivers/STM32L4xx_HAL_Driver/Src/stm32l4xx_hal_rcc_ex.c ****       }
1974:Drivers/STM32L4xx_HAL_Driver/Src/stm32l4xx_hal_rcc_ex.c **** 
1975:Drivers/STM32L4xx_HAL_Driver/Src/stm32l4xx_hal_rcc_ex.c **** #endif /* SWPMI1 */
1976:Drivers/STM32L4xx_HAL_Driver/Src/stm32l4xx_hal_rcc_ex.c **** 
1977:Drivers/STM32L4xx_HAL_Driver/Src/stm32l4xx_hal_rcc_ex.c **** #if defined(OCTOSPI1) || defined(OCTOSPI2)
1978:Drivers/STM32L4xx_HAL_Driver/Src/stm32l4xx_hal_rcc_ex.c **** 
1979:Drivers/STM32L4xx_HAL_Driver/Src/stm32l4xx_hal_rcc_ex.c ****     case RCC_PERIPHCLK_OSPI:
1980:Drivers/STM32L4xx_HAL_Driver/Src/stm32l4xx_hal_rcc_ex.c ****       {
1981:Drivers/STM32L4xx_HAL_Driver/Src/stm32l4xx_hal_rcc_ex.c ****         /* Get the current OctoSPI clock source */
1982:Drivers/STM32L4xx_HAL_Driver/Src/stm32l4xx_hal_rcc_ex.c ****         srcclk = __HAL_RCC_GET_OSPI_SOURCE();
1983:Drivers/STM32L4xx_HAL_Driver/Src/stm32l4xx_hal_rcc_ex.c **** 
1984:Drivers/STM32L4xx_HAL_Driver/Src/stm32l4xx_hal_rcc_ex.c ****         switch(srcclk)
1985:Drivers/STM32L4xx_HAL_Driver/Src/stm32l4xx_hal_rcc_ex.c ****         {
1986:Drivers/STM32L4xx_HAL_Driver/Src/stm32l4xx_hal_rcc_ex.c ****         case RCC_OSPICLKSOURCE_SYSCLK:
1987:Drivers/STM32L4xx_HAL_Driver/Src/stm32l4xx_hal_rcc_ex.c ****           frequency = HAL_RCC_GetSysClockFreq();
1988:Drivers/STM32L4xx_HAL_Driver/Src/stm32l4xx_hal_rcc_ex.c ****           break;
1989:Drivers/STM32L4xx_HAL_Driver/Src/stm32l4xx_hal_rcc_ex.c ****         case RCC_OSPICLKSOURCE_MSI:
1990:Drivers/STM32L4xx_HAL_Driver/Src/stm32l4xx_hal_rcc_ex.c ****           if(HAL_IS_BIT_SET(RCC->CR, RCC_CR_MSIRDY))
1991:Drivers/STM32L4xx_HAL_Driver/Src/stm32l4xx_hal_rcc_ex.c ****           {
1992:Drivers/STM32L4xx_HAL_Driver/Src/stm32l4xx_hal_rcc_ex.c ****             /*MSI frequency range in HZ*/
1993:Drivers/STM32L4xx_HAL_Driver/Src/stm32l4xx_hal_rcc_ex.c ****             frequency = MSIRangeTable[(__HAL_RCC_GET_MSI_RANGE() >> 4U)];
1994:Drivers/STM32L4xx_HAL_Driver/Src/stm32l4xx_hal_rcc_ex.c ****           }
1995:Drivers/STM32L4xx_HAL_Driver/Src/stm32l4xx_hal_rcc_ex.c ****           break;
1996:Drivers/STM32L4xx_HAL_Driver/Src/stm32l4xx_hal_rcc_ex.c ****         case RCC_OSPICLKSOURCE_PLL:
1997:Drivers/STM32L4xx_HAL_Driver/Src/stm32l4xx_hal_rcc_ex.c ****           if(HAL_IS_BIT_SET(RCC->CR, RCC_CR_PLLRDY))
1998:Drivers/STM32L4xx_HAL_Driver/Src/stm32l4xx_hal_rcc_ex.c ****           {
1999:Drivers/STM32L4xx_HAL_Driver/Src/stm32l4xx_hal_rcc_ex.c ****             if(HAL_IS_BIT_SET(RCC->PLLCFGR, RCC_PLLCFGR_PLLQEN))
2000:Drivers/STM32L4xx_HAL_Driver/Src/stm32l4xx_hal_rcc_ex.c ****             {
2001:Drivers/STM32L4xx_HAL_Driver/Src/stm32l4xx_hal_rcc_ex.c ****               /* f(PLL Source) * PLLN / PLLM */
2002:Drivers/STM32L4xx_HAL_Driver/Src/stm32l4xx_hal_rcc_ex.c ****               plln = READ_BIT(RCC->PLLCFGR, RCC_PLLCFGR_PLLN) >> RCC_PLLCFGR_PLLN_Pos;
2003:Drivers/STM32L4xx_HAL_Driver/Src/stm32l4xx_hal_rcc_ex.c ****               pllvco = ((pllvco * plln) / ((READ_BIT(RCC->PLLCFGR, RCC_PLLCFGR_PLLM) >> RCC_PLLCFGR
2004:Drivers/STM32L4xx_HAL_Driver/Src/stm32l4xx_hal_rcc_ex.c ****               /* f(PLL48M1CLK) = f(VCO input) / PLLQ */
2005:Drivers/STM32L4xx_HAL_Driver/Src/stm32l4xx_hal_rcc_ex.c ****               frequency = (pllvco / (((READ_BIT(RCC->PLLCFGR, RCC_PLLCFGR_PLLQ) >> RCC_PLLCFGR_PLLQ
2006:Drivers/STM32L4xx_HAL_Driver/Src/stm32l4xx_hal_rcc_ex.c ****             }
2007:Drivers/STM32L4xx_HAL_Driver/Src/stm32l4xx_hal_rcc_ex.c ****           }
2008:Drivers/STM32L4xx_HAL_Driver/Src/stm32l4xx_hal_rcc_ex.c ****           break;
2009:Drivers/STM32L4xx_HAL_Driver/Src/stm32l4xx_hal_rcc_ex.c ****         default:
2010:Drivers/STM32L4xx_HAL_Driver/Src/stm32l4xx_hal_rcc_ex.c ****           /* No clock source, frequency default init at 0 */
2011:Drivers/STM32L4xx_HAL_Driver/Src/stm32l4xx_hal_rcc_ex.c ****           break;
2012:Drivers/STM32L4xx_HAL_Driver/Src/stm32l4xx_hal_rcc_ex.c ****         }
2013:Drivers/STM32L4xx_HAL_Driver/Src/stm32l4xx_hal_rcc_ex.c **** 
2014:Drivers/STM32L4xx_HAL_Driver/Src/stm32l4xx_hal_rcc_ex.c ****         break;
2015:Drivers/STM32L4xx_HAL_Driver/Src/stm32l4xx_hal_rcc_ex.c ****       }
2016:Drivers/STM32L4xx_HAL_Driver/Src/stm32l4xx_hal_rcc_ex.c **** 
2017:Drivers/STM32L4xx_HAL_Driver/Src/stm32l4xx_hal_rcc_ex.c **** #endif /* OCTOSPI1 || OCTOSPI2 */
2018:Drivers/STM32L4xx_HAL_Driver/Src/stm32l4xx_hal_rcc_ex.c **** 
2019:Drivers/STM32L4xx_HAL_Driver/Src/stm32l4xx_hal_rcc_ex.c ****     default:
2020:Drivers/STM32L4xx_HAL_Driver/Src/stm32l4xx_hal_rcc_ex.c ****       break;
ARM GAS  C:\Users\Morroway\AppData\Local\Temp\ccOmimY8.s 			page 67


 1721              		.loc 1 2020 7
 1722 0300 00F05EBD 		b	.L264
 1723              	.L109:
1253:Drivers/STM32L4xx_HAL_Driver/Src/stm32l4xx_hal_rcc_ex.c ****       break;
 1724              		.loc 1 1253 19
 1725 0304 B969     		ldr	r1, [r7, #24]
 1726 0306 4FF40060 		mov	r0, #2048
 1727 030a FFF7FEFF 		bl	RCCEx_GetSAIxPeriphCLKFreq
 1728 030e F861     		str	r0, [r7, #28]
1254:Drivers/STM32L4xx_HAL_Driver/Src/stm32l4xx_hal_rcc_ex.c **** 
 1729              		.loc 1 1254 7
 1730 0310 00F059BD 		b	.L87
 1731              	.L108:
1261:Drivers/STM32L4xx_HAL_Driver/Src/stm32l4xx_hal_rcc_ex.c ****       break;
 1732              		.loc 1 1261 19
 1733 0314 B969     		ldr	r1, [r7, #24]
 1734 0316 4FF48050 		mov	r0, #4096
 1735 031a FFF7FEFF 		bl	RCCEx_GetSAIxPeriphCLKFreq
 1736 031e F861     		str	r0, [r7, #28]
1262:Drivers/STM32L4xx_HAL_Driver/Src/stm32l4xx_hal_rcc_ex.c **** 
 1737              		.loc 1 1262 7
 1738 0320 00F051BD 		b	.L87
 1739              	.L105:
1280:Drivers/STM32L4xx_HAL_Driver/Src/stm32l4xx_hal_rcc_ex.c **** 
 1740              		.loc 1 1280 18
 1741 0324 9A4B     		ldr	r3, .L318
 1742 0326 D3F88830 		ldr	r3, [r3, #136]
1280:Drivers/STM32L4xx_HAL_Driver/Src/stm32l4xx_hal_rcc_ex.c **** 
 1743              		.loc 1 1280 16
 1744 032a 03F04063 		and	r3, r3, #201326592
 1745 032e FB60     		str	r3, [r7, #12]
 1746 0330 FB68     		ldr	r3, [r7, #12]
 1747 0332 B3F1406F 		cmp	r3, #201326592
 1748 0336 15D0     		beq	.L123
 1749 0338 FB68     		ldr	r3, [r7, #12]
 1750 033a B3F1406F 		cmp	r3, #201326592
 1751 033e 00F29280 		bhi	.L265
 1752 0342 FB68     		ldr	r3, [r7, #12]
 1753 0344 B3F1006F 		cmp	r3, #134217728
 1754 0348 29D0     		beq	.L125
 1755 034a FB68     		ldr	r3, [r7, #12]
 1756 034c B3F1006F 		cmp	r3, #134217728
 1757 0350 00F28980 		bhi	.L265
 1758 0354 FB68     		ldr	r3, [r7, #12]
 1759 0356 002B     		cmp	r3, #0
 1760 0358 7BD0     		beq	.L126
 1761 035a FB68     		ldr	r3, [r7, #12]
 1762 035c B3F1806F 		cmp	r3, #67108864
 1763 0360 4AD0     		beq	.L127
1335:Drivers/STM32L4xx_HAL_Driver/Src/stm32l4xx_hal_rcc_ex.c ****         } /* switch(srcclk) */
 1764              		.loc 1 1335 11
 1765 0362 80E0     		b	.L265
 1766              	.L123:
1285:Drivers/STM32L4xx_HAL_Driver/Src/stm32l4xx_hal_rcc_ex.c ****           {
 1767              		.loc 1 1285 14
 1768 0364 8A4B     		ldr	r3, .L318
 1769 0366 1B68     		ldr	r3, [r3]
ARM GAS  C:\Users\Morroway\AppData\Local\Temp\ccOmimY8.s 			page 68


 1770 0368 03F00203 		and	r3, r3, #2
1285:Drivers/STM32L4xx_HAL_Driver/Src/stm32l4xx_hal_rcc_ex.c ****           {
 1771              		.loc 1 1285 13
 1772 036c 022B     		cmp	r3, #2
 1773 036e 7DD1     		bne	.L266
1288:Drivers/STM32L4xx_HAL_Driver/Src/stm32l4xx_hal_rcc_ex.c ****           }
 1774              		.loc 1 1288 40
 1775 0370 874B     		ldr	r3, .L318
 1776 0372 1B68     		ldr	r3, [r3]
 1777 0374 03F00803 		and	r3, r3, #8
1288:Drivers/STM32L4xx_HAL_Driver/Src/stm32l4xx_hal_rcc_ex.c ****           }
 1778              		.loc 1 1288 66
 1779 0378 002B     		cmp	r3, #0
 1780 037a 05D0     		beq	.L129
1288:Drivers/STM32L4xx_HAL_Driver/Src/stm32l4xx_hal_rcc_ex.c ****           }
 1781              		.loc 1 1288 40 discriminator 1
 1782 037c 844B     		ldr	r3, .L318
 1783 037e 1B68     		ldr	r3, [r3]
1288:Drivers/STM32L4xx_HAL_Driver/Src/stm32l4xx_hal_rcc_ex.c ****           }
 1784              		.loc 1 1288 66 discriminator 1
 1785 0380 1B09     		lsrs	r3, r3, #4
 1786 0382 03F00F03 		and	r3, r3, #15
 1787 0386 05E0     		b	.L130
 1788              	.L129:
1288:Drivers/STM32L4xx_HAL_Driver/Src/stm32l4xx_hal_rcc_ex.c ****           }
 1789              		.loc 1 1288 40 discriminator 2
 1790 0388 814B     		ldr	r3, .L318
 1791 038a D3F89430 		ldr	r3, [r3, #148]
1288:Drivers/STM32L4xx_HAL_Driver/Src/stm32l4xx_hal_rcc_ex.c ****           }
 1792              		.loc 1 1288 66 discriminator 2
 1793 038e 1B0A     		lsrs	r3, r3, #8
 1794 0390 03F00F03 		and	r3, r3, #15
 1795              	.L130:
1288:Drivers/STM32L4xx_HAL_Driver/Src/stm32l4xx_hal_rcc_ex.c ****           }
 1796              		.loc 1 1288 23 discriminator 4
 1797 0394 7F4A     		ldr	r2, .L318+4
 1798 0396 52F82330 		ldr	r3, [r2, r3, lsl #2]
 1799 039a FB61     		str	r3, [r7, #28]
1290:Drivers/STM32L4xx_HAL_Driver/Src/stm32l4xx_hal_rcc_ex.c ****         case RCC_CCIPR_CLK48SEL_1:  /* PLL ? */
 1800              		.loc 1 1290 11 discriminator 4
 1801 039c 66E0     		b	.L266
 1802              	.L125:
1292:Drivers/STM32L4xx_HAL_Driver/Src/stm32l4xx_hal_rcc_ex.c ****           {
 1803              		.loc 1 1292 14
 1804 039e 7C4B     		ldr	r3, .L318
 1805 03a0 1B68     		ldr	r3, [r3]
 1806 03a2 03F00073 		and	r3, r3, #33554432
1292:Drivers/STM32L4xx_HAL_Driver/Src/stm32l4xx_hal_rcc_ex.c ****           {
 1807              		.loc 1 1292 13
 1808 03a6 B3F1007F 		cmp	r3, #33554432
 1809 03aa 62D1     		bne	.L267
1294:Drivers/STM32L4xx_HAL_Driver/Src/stm32l4xx_hal_rcc_ex.c ****             {
 1810              		.loc 1 1294 16
 1811 03ac 784B     		ldr	r3, .L318
 1812 03ae DB68     		ldr	r3, [r3, #12]
 1813 03b0 03F48013 		and	r3, r3, #1048576
1294:Drivers/STM32L4xx_HAL_Driver/Src/stm32l4xx_hal_rcc_ex.c ****             {
ARM GAS  C:\Users\Morroway\AppData\Local\Temp\ccOmimY8.s 			page 69


 1814              		.loc 1 1294 15
 1815 03b4 B3F5801F 		cmp	r3, #1048576
 1816 03b8 5BD1     		bne	.L267
1297:Drivers/STM32L4xx_HAL_Driver/Src/stm32l4xx_hal_rcc_ex.c ****               pllvco = ((pllvco * plln) / ((READ_BIT(RCC->PLLCFGR, RCC_PLLCFGR_PLLM) >> RCC_PLLCFGR
 1817              		.loc 1 1297 22
 1818 03ba 754B     		ldr	r3, .L318
 1819 03bc DB68     		ldr	r3, [r3, #12]
1297:Drivers/STM32L4xx_HAL_Driver/Src/stm32l4xx_hal_rcc_ex.c ****               pllvco = ((pllvco * plln) / ((READ_BIT(RCC->PLLCFGR, RCC_PLLCFGR_PLLM) >> RCC_PLLCFGR
 1820              		.loc 1 1297 63
 1821 03be 1B0A     		lsrs	r3, r3, #8
1297:Drivers/STM32L4xx_HAL_Driver/Src/stm32l4xx_hal_rcc_ex.c ****               pllvco = ((pllvco * plln) / ((READ_BIT(RCC->PLLCFGR, RCC_PLLCFGR_PLLM) >> RCC_PLLCFGR
 1822              		.loc 1 1297 20
 1823 03c0 03F07F03 		and	r3, r3, #127
 1824 03c4 BB60     		str	r3, [r7, #8]
1298:Drivers/STM32L4xx_HAL_Driver/Src/stm32l4xx_hal_rcc_ex.c ****               /* f(PLL48M1CLK) = f(VCO input) / PLLQ */
 1825              		.loc 1 1298 33
 1826 03c6 BB69     		ldr	r3, [r7, #24]
 1827 03c8 BA68     		ldr	r2, [r7, #8]
 1828 03ca 03FB02F2 		mul	r2, r3, r2
1298:Drivers/STM32L4xx_HAL_Driver/Src/stm32l4xx_hal_rcc_ex.c ****               /* f(PLL48M1CLK) = f(VCO input) / PLLQ */
 1829              		.loc 1 1298 45
 1830 03ce 704B     		ldr	r3, .L318
 1831 03d0 DB68     		ldr	r3, [r3, #12]
1298:Drivers/STM32L4xx_HAL_Driver/Src/stm32l4xx_hal_rcc_ex.c ****               /* f(PLL48M1CLK) = f(VCO input) / PLLQ */
 1832              		.loc 1 1298 86
 1833 03d2 1B09     		lsrs	r3, r3, #4
 1834 03d4 03F00F03 		and	r3, r3, #15
1298:Drivers/STM32L4xx_HAL_Driver/Src/stm32l4xx_hal_rcc_ex.c ****               /* f(PLL48M1CLK) = f(VCO input) / PLLQ */
 1835              		.loc 1 1298 111
 1836 03d8 0133     		adds	r3, r3, #1
1298:Drivers/STM32L4xx_HAL_Driver/Src/stm32l4xx_hal_rcc_ex.c ****               /* f(PLL48M1CLK) = f(VCO input) / PLLQ */
 1837              		.loc 1 1298 22
 1838 03da B2FBF3F3 		udiv	r3, r2, r3
 1839 03de BB61     		str	r3, [r7, #24]
1300:Drivers/STM32L4xx_HAL_Driver/Src/stm32l4xx_hal_rcc_ex.c ****             }
 1840              		.loc 1 1300 40
 1841 03e0 6B4B     		ldr	r3, .L318
 1842 03e2 DB68     		ldr	r3, [r3, #12]
1300:Drivers/STM32L4xx_HAL_Driver/Src/stm32l4xx_hal_rcc_ex.c ****             }
 1843              		.loc 1 1300 81
 1844 03e4 5B0D     		lsrs	r3, r3, #21
 1845 03e6 03F00303 		and	r3, r3, #3
1300:Drivers/STM32L4xx_HAL_Driver/Src/stm32l4xx_hal_rcc_ex.c ****             }
 1846              		.loc 1 1300 106
 1847 03ea 0133     		adds	r3, r3, #1
1300:Drivers/STM32L4xx_HAL_Driver/Src/stm32l4xx_hal_rcc_ex.c ****             }
 1848              		.loc 1 1300 112
 1849 03ec 5B00     		lsls	r3, r3, #1
1300:Drivers/STM32L4xx_HAL_Driver/Src/stm32l4xx_hal_rcc_ex.c ****             }
 1850              		.loc 1 1300 25
 1851 03ee BA69     		ldr	r2, [r7, #24]
 1852 03f0 B2FBF3F3 		udiv	r3, r2, r3
 1853 03f4 FB61     		str	r3, [r7, #28]
1303:Drivers/STM32L4xx_HAL_Driver/Src/stm32l4xx_hal_rcc_ex.c **** #if defined(RCC_PLLSAI1_SUPPORT)
 1854              		.loc 1 1303 11
 1855 03f6 3CE0     		b	.L267
 1856              	.L127:
ARM GAS  C:\Users\Morroway\AppData\Local\Temp\ccOmimY8.s 			page 70


1306:Drivers/STM32L4xx_HAL_Driver/Src/stm32l4xx_hal_rcc_ex.c ****           {
 1857              		.loc 1 1306 14
 1858 03f8 654B     		ldr	r3, .L318
 1859 03fa 1B68     		ldr	r3, [r3]
 1860 03fc 03F00063 		and	r3, r3, #134217728
1306:Drivers/STM32L4xx_HAL_Driver/Src/stm32l4xx_hal_rcc_ex.c ****           {
 1861              		.loc 1 1306 13
 1862 0400 B3F1006F 		cmp	r3, #134217728
 1863 0404 38D1     		bne	.L268
1308:Drivers/STM32L4xx_HAL_Driver/Src/stm32l4xx_hal_rcc_ex.c ****             {
 1864              		.loc 1 1308 16
 1865 0406 624B     		ldr	r3, .L318
 1866 0408 1B69     		ldr	r3, [r3, #16]
 1867 040a 03F48013 		and	r3, r3, #1048576
1308:Drivers/STM32L4xx_HAL_Driver/Src/stm32l4xx_hal_rcc_ex.c ****             {
 1868              		.loc 1 1308 15
 1869 040e B3F5801F 		cmp	r3, #1048576
 1870 0412 31D1     		bne	.L268
1310:Drivers/STM32L4xx_HAL_Driver/Src/stm32l4xx_hal_rcc_ex.c **** #if defined(RCC_PLLSAI1M_DIV_1_16_SUPPORT)
 1871              		.loc 1 1310 22
 1872 0414 5E4B     		ldr	r3, .L318
 1873 0416 1B69     		ldr	r3, [r3, #16]
1310:Drivers/STM32L4xx_HAL_Driver/Src/stm32l4xx_hal_rcc_ex.c **** #if defined(RCC_PLLSAI1M_DIV_1_16_SUPPORT)
 1874              		.loc 1 1310 75
 1875 0418 1B0A     		lsrs	r3, r3, #8
1310:Drivers/STM32L4xx_HAL_Driver/Src/stm32l4xx_hal_rcc_ex.c **** #if defined(RCC_PLLSAI1M_DIV_1_16_SUPPORT)
 1876              		.loc 1 1310 20
 1877 041a 03F07F03 		and	r3, r3, #127
 1878 041e BB60     		str	r3, [r7, #8]
1314:Drivers/STM32L4xx_HAL_Driver/Src/stm32l4xx_hal_rcc_ex.c **** #else
 1879              		.loc 1 1314 33
 1880 0420 BB69     		ldr	r3, [r7, #24]
 1881 0422 BA68     		ldr	r2, [r7, #8]
 1882 0424 03FB02F2 		mul	r2, r3, r2
1314:Drivers/STM32L4xx_HAL_Driver/Src/stm32l4xx_hal_rcc_ex.c **** #else
 1883              		.loc 1 1314 45
 1884 0428 594B     		ldr	r3, .L318
 1885 042a 1B69     		ldr	r3, [r3, #16]
1314:Drivers/STM32L4xx_HAL_Driver/Src/stm32l4xx_hal_rcc_ex.c **** #else
 1886              		.loc 1 1314 98
 1887 042c 1B09     		lsrs	r3, r3, #4
 1888 042e 03F00F03 		and	r3, r3, #15
1314:Drivers/STM32L4xx_HAL_Driver/Src/stm32l4xx_hal_rcc_ex.c **** #else
 1889              		.loc 1 1314 131
 1890 0432 0133     		adds	r3, r3, #1
1314:Drivers/STM32L4xx_HAL_Driver/Src/stm32l4xx_hal_rcc_ex.c **** #else
 1891              		.loc 1 1314 22
 1892 0434 B2FBF3F3 		udiv	r3, r2, r3
 1893 0438 BB61     		str	r3, [r7, #24]
1320:Drivers/STM32L4xx_HAL_Driver/Src/stm32l4xx_hal_rcc_ex.c ****             }
 1894              		.loc 1 1320 40
 1895 043a 554B     		ldr	r3, .L318
 1896 043c 1B69     		ldr	r3, [r3, #16]
1320:Drivers/STM32L4xx_HAL_Driver/Src/stm32l4xx_hal_rcc_ex.c ****             }
 1897              		.loc 1 1320 93
 1898 043e 5B0D     		lsrs	r3, r3, #21
 1899 0440 03F00303 		and	r3, r3, #3
ARM GAS  C:\Users\Morroway\AppData\Local\Temp\ccOmimY8.s 			page 71


1320:Drivers/STM32L4xx_HAL_Driver/Src/stm32l4xx_hal_rcc_ex.c ****             }
 1900              		.loc 1 1320 126
 1901 0444 0133     		adds	r3, r3, #1
1320:Drivers/STM32L4xx_HAL_Driver/Src/stm32l4xx_hal_rcc_ex.c ****             }
 1902              		.loc 1 1320 132
 1903 0446 5B00     		lsls	r3, r3, #1
1320:Drivers/STM32L4xx_HAL_Driver/Src/stm32l4xx_hal_rcc_ex.c ****             }
 1904              		.loc 1 1320 25
 1905 0448 BA69     		ldr	r2, [r7, #24]
 1906 044a B2FBF3F3 		udiv	r3, r2, r3
 1907 044e FB61     		str	r3, [r7, #28]
1323:Drivers/STM32L4xx_HAL_Driver/Src/stm32l4xx_hal_rcc_ex.c **** #endif /* RCC_PLLSAI1_SUPPORT */
 1908              		.loc 1 1323 11
 1909 0450 12E0     		b	.L268
 1910              	.L126:
1327:Drivers/STM32L4xx_HAL_Driver/Src/stm32l4xx_hal_rcc_ex.c ****           {
 1911              		.loc 1 1327 14
 1912 0452 4F4B     		ldr	r3, .L318
 1913 0454 D3F89830 		ldr	r3, [r3, #152]
 1914 0458 03F00203 		and	r3, r3, #2
1327:Drivers/STM32L4xx_HAL_Driver/Src/stm32l4xx_hal_rcc_ex.c ****           {
 1915              		.loc 1 1327 13
 1916 045c 022B     		cmp	r3, #2
 1917 045e 0ED1     		bne	.L269
1329:Drivers/STM32L4xx_HAL_Driver/Src/stm32l4xx_hal_rcc_ex.c ****           }
 1918              		.loc 1 1329 23
 1919 0460 4D4B     		ldr	r3, .L318+8
 1920 0462 FB61     		str	r3, [r7, #28]
1331:Drivers/STM32L4xx_HAL_Driver/Src/stm32l4xx_hal_rcc_ex.c **** #endif /* RCC_HSI48_SUPPORT */
 1921              		.loc 1 1331 11
 1922 0464 0BE0     		b	.L269
 1923              	.L265:
1335:Drivers/STM32L4xx_HAL_Driver/Src/stm32l4xx_hal_rcc_ex.c ****         } /* switch(srcclk) */
 1924              		.loc 1 1335 11
 1925 0466 00BF     		nop
 1926 0468 00F0ADBC 		b	.L87
 1927              	.L266:
1290:Drivers/STM32L4xx_HAL_Driver/Src/stm32l4xx_hal_rcc_ex.c ****         case RCC_CCIPR_CLK48SEL_1:  /* PLL ? */
 1928              		.loc 1 1290 11
 1929 046c 00BF     		nop
 1930 046e 00F0AABC 		b	.L87
 1931              	.L267:
1303:Drivers/STM32L4xx_HAL_Driver/Src/stm32l4xx_hal_rcc_ex.c **** #if defined(RCC_PLLSAI1_SUPPORT)
 1932              		.loc 1 1303 11
 1933 0472 00BF     		nop
 1934 0474 00F0A7BC 		b	.L87
 1935              	.L268:
1323:Drivers/STM32L4xx_HAL_Driver/Src/stm32l4xx_hal_rcc_ex.c **** #endif /* RCC_PLLSAI1_SUPPORT */
 1936              		.loc 1 1323 11
 1937 0478 00BF     		nop
 1938 047a 00F0A4BC 		b	.L87
 1939              	.L269:
1331:Drivers/STM32L4xx_HAL_Driver/Src/stm32l4xx_hal_rcc_ex.c **** #endif /* RCC_HSI48_SUPPORT */
 1940              		.loc 1 1331 11
 1941 047e 00BF     		nop
1337:Drivers/STM32L4xx_HAL_Driver/Src/stm32l4xx_hal_rcc_ex.c ****       }
 1942              		.loc 1 1337 9
ARM GAS  C:\Users\Morroway\AppData\Local\Temp\ccOmimY8.s 			page 72


 1943 0480 00F0A1BC 		b	.L87
 1944              	.L104:
1344:Drivers/STM32L4xx_HAL_Driver/Src/stm32l4xx_hal_rcc_ex.c ****       {
 1945              		.loc 1 1344 10
 1946 0484 424B     		ldr	r3, .L318
 1947 0486 D3F89C30 		ldr	r3, [r3, #156]
 1948 048a 03F48043 		and	r3, r3, #16384
1344:Drivers/STM32L4xx_HAL_Driver/Src/stm32l4xx_hal_rcc_ex.c ****       {
 1949              		.loc 1 1344 9
 1950 048e B3F5804F 		cmp	r3, #16384
 1951 0492 3DD1     		bne	.L135
1346:Drivers/STM32L4xx_HAL_Driver/Src/stm32l4xx_hal_rcc_ex.c ****         {
 1952              		.loc 1 1346 12
 1953 0494 3E4B     		ldr	r3, .L318
 1954 0496 1B68     		ldr	r3, [r3]
 1955 0498 03F00073 		and	r3, r3, #33554432
1346:Drivers/STM32L4xx_HAL_Driver/Src/stm32l4xx_hal_rcc_ex.c ****         {
 1956              		.loc 1 1346 11
 1957 049c B3F1007F 		cmp	r3, #33554432
 1958 04a0 40F09084 		bne	.L270
1348:Drivers/STM32L4xx_HAL_Driver/Src/stm32l4xx_hal_rcc_ex.c ****           {
 1959              		.loc 1 1348 14
 1960 04a4 3A4B     		ldr	r3, .L318
 1961 04a6 DB68     		ldr	r3, [r3, #12]
 1962 04a8 03F48033 		and	r3, r3, #65536
1348:Drivers/STM32L4xx_HAL_Driver/Src/stm32l4xx_hal_rcc_ex.c ****           {
 1963              		.loc 1 1348 13
 1964 04ac B3F5803F 		cmp	r3, #65536
 1965 04b0 40F08884 		bne	.L270
1351:Drivers/STM32L4xx_HAL_Driver/Src/stm32l4xx_hal_rcc_ex.c ****             pllvco = ((pllvco * plln) / ((READ_BIT(RCC->PLLCFGR, RCC_PLLCFGR_PLLM) >> RCC_PLLCFGR_P
 1966              		.loc 1 1351 20
 1967 04b4 364B     		ldr	r3, .L318
 1968 04b6 DB68     		ldr	r3, [r3, #12]
1351:Drivers/STM32L4xx_HAL_Driver/Src/stm32l4xx_hal_rcc_ex.c ****             pllvco = ((pllvco * plln) / ((READ_BIT(RCC->PLLCFGR, RCC_PLLCFGR_PLLM) >> RCC_PLLCFGR_P
 1969              		.loc 1 1351 61
 1970 04b8 1B0A     		lsrs	r3, r3, #8
1351:Drivers/STM32L4xx_HAL_Driver/Src/stm32l4xx_hal_rcc_ex.c ****             pllvco = ((pllvco * plln) / ((READ_BIT(RCC->PLLCFGR, RCC_PLLCFGR_PLLM) >> RCC_PLLCFGR_P
 1971              		.loc 1 1351 18
 1972 04ba 03F07F03 		and	r3, r3, #127
 1973 04be BB60     		str	r3, [r7, #8]
1352:Drivers/STM32L4xx_HAL_Driver/Src/stm32l4xx_hal_rcc_ex.c ****             /* f(PLLSAI3CLK) = f(VCO input) / PLLP */
 1974              		.loc 1 1352 31
 1975 04c0 BB69     		ldr	r3, [r7, #24]
 1976 04c2 BA68     		ldr	r2, [r7, #8]
 1977 04c4 03FB02F2 		mul	r2, r3, r2
1352:Drivers/STM32L4xx_HAL_Driver/Src/stm32l4xx_hal_rcc_ex.c ****             /* f(PLLSAI3CLK) = f(VCO input) / PLLP */
 1978              		.loc 1 1352 43
 1979 04c8 314B     		ldr	r3, .L318
 1980 04ca DB68     		ldr	r3, [r3, #12]
1352:Drivers/STM32L4xx_HAL_Driver/Src/stm32l4xx_hal_rcc_ex.c ****             /* f(PLLSAI3CLK) = f(VCO input) / PLLP */
 1981              		.loc 1 1352 84
 1982 04cc 1B09     		lsrs	r3, r3, #4
 1983 04ce 03F00F03 		and	r3, r3, #15
1352:Drivers/STM32L4xx_HAL_Driver/Src/stm32l4xx_hal_rcc_ex.c ****             /* f(PLLSAI3CLK) = f(VCO input) / PLLP */
 1984              		.loc 1 1352 109
 1985 04d2 0133     		adds	r3, r3, #1
1352:Drivers/STM32L4xx_HAL_Driver/Src/stm32l4xx_hal_rcc_ex.c ****             /* f(PLLSAI3CLK) = f(VCO input) / PLLP */
ARM GAS  C:\Users\Morroway\AppData\Local\Temp\ccOmimY8.s 			page 73


 1986              		.loc 1 1352 20
 1987 04d4 B2FBF3F3 		udiv	r3, r2, r3
 1988 04d8 BB61     		str	r3, [r7, #24]
1354:Drivers/STM32L4xx_HAL_Driver/Src/stm32l4xx_hal_rcc_ex.c ****             if(pllp == 0U)
 1989              		.loc 1 1354 20
 1990 04da 2D4B     		ldr	r3, .L318
 1991 04dc DB68     		ldr	r3, [r3, #12]
1354:Drivers/STM32L4xx_HAL_Driver/Src/stm32l4xx_hal_rcc_ex.c ****             if(pllp == 0U)
 1992              		.loc 1 1354 64
 1993 04de DB0E     		lsrs	r3, r3, #27
1354:Drivers/STM32L4xx_HAL_Driver/Src/stm32l4xx_hal_rcc_ex.c ****             if(pllp == 0U)
 1994              		.loc 1 1354 18
 1995 04e0 03F01F03 		and	r3, r3, #31
 1996 04e4 7B61     		str	r3, [r7, #20]
1355:Drivers/STM32L4xx_HAL_Driver/Src/stm32l4xx_hal_rcc_ex.c ****             {
 1997              		.loc 1 1355 15
 1998 04e6 7B69     		ldr	r3, [r7, #20]
 1999 04e8 002B     		cmp	r3, #0
 2000 04ea 0AD1     		bne	.L137
1357:Drivers/STM32L4xx_HAL_Driver/Src/stm32l4xx_hal_rcc_ex.c ****               {
 2001              		.loc 1 1357 18
 2002 04ec 284B     		ldr	r3, .L318
 2003 04ee DB68     		ldr	r3, [r3, #12]
 2004 04f0 03F40033 		and	r3, r3, #131072
1357:Drivers/STM32L4xx_HAL_Driver/Src/stm32l4xx_hal_rcc_ex.c ****               {
 2005              		.loc 1 1357 17
 2006 04f4 002B     		cmp	r3, #0
 2007 04f6 02D0     		beq	.L138
1359:Drivers/STM32L4xx_HAL_Driver/Src/stm32l4xx_hal_rcc_ex.c ****               }
 2008              		.loc 1 1359 22
 2009 04f8 1123     		movs	r3, #17
 2010 04fa 7B61     		str	r3, [r7, #20]
 2011 04fc 01E0     		b	.L137
 2012              	.L138:
1363:Drivers/STM32L4xx_HAL_Driver/Src/stm32l4xx_hal_rcc_ex.c ****               }
 2013              		.loc 1 1363 22
 2014 04fe 0723     		movs	r3, #7
 2015 0500 7B61     		str	r3, [r7, #20]
 2016              	.L137:
1366:Drivers/STM32L4xx_HAL_Driver/Src/stm32l4xx_hal_rcc_ex.c ****           }
 2017              		.loc 1 1366 23
 2018 0502 BA69     		ldr	r2, [r7, #24]
 2019 0504 7B69     		ldr	r3, [r7, #20]
 2020 0506 B2FBF3F3 		udiv	r3, r2, r3
 2021 050a FB61     		str	r3, [r7, #28]
1420:Drivers/STM32L4xx_HAL_Driver/Src/stm32l4xx_hal_rcc_ex.c **** 
 2022              		.loc 1 1420 7
 2023 050c 00F05ABC 		b	.L270
 2024              	.L135:
1372:Drivers/STM32L4xx_HAL_Driver/Src/stm32l4xx_hal_rcc_ex.c **** 
 2025              		.loc 1 1372 18
 2026 0510 1F4B     		ldr	r3, .L318
 2027 0512 D3F88830 		ldr	r3, [r3, #136]
1372:Drivers/STM32L4xx_HAL_Driver/Src/stm32l4xx_hal_rcc_ex.c **** 
 2028              		.loc 1 1372 16
 2029 0516 03F04063 		and	r3, r3, #201326592
 2030 051a FB60     		str	r3, [r7, #12]
ARM GAS  C:\Users\Morroway\AppData\Local\Temp\ccOmimY8.s 			page 74


 2031 051c FB68     		ldr	r3, [r7, #12]
 2032 051e B3F1406F 		cmp	r3, #201326592
 2033 0522 16D0     		beq	.L139
 2034 0524 FB68     		ldr	r3, [r7, #12]
 2035 0526 B3F1406F 		cmp	r3, #201326592
 2036 052a 00F29B80 		bhi	.L271
 2037 052e FB68     		ldr	r3, [r7, #12]
 2038 0530 B3F1006F 		cmp	r3, #134217728
 2039 0534 32D0     		beq	.L141
 2040 0536 FB68     		ldr	r3, [r7, #12]
 2041 0538 B3F1006F 		cmp	r3, #134217728
 2042 053c 00F29280 		bhi	.L271
 2043 0540 FB68     		ldr	r3, [r7, #12]
 2044 0542 002B     		cmp	r3, #0
 2045 0544 00F08480 		beq	.L142
 2046 0548 FB68     		ldr	r3, [r7, #12]
 2047 054a B3F1806F 		cmp	r3, #67108864
 2048 054e 52D0     		beq	.L143
1417:Drivers/STM32L4xx_HAL_Driver/Src/stm32l4xx_hal_rcc_ex.c ****         } /* switch(srcclk) */
 2049              		.loc 1 1417 11
 2050 0550 88E0     		b	.L271
 2051              	.L139:
1377:Drivers/STM32L4xx_HAL_Driver/Src/stm32l4xx_hal_rcc_ex.c ****           {
 2052              		.loc 1 1377 14
 2053 0552 0F4B     		ldr	r3, .L318
 2054 0554 1B68     		ldr	r3, [r3]
 2055 0556 03F00203 		and	r3, r3, #2
1377:Drivers/STM32L4xx_HAL_Driver/Src/stm32l4xx_hal_rcc_ex.c ****           {
 2056              		.loc 1 1377 13
 2057 055a 022B     		cmp	r3, #2
 2058 055c 40F08480 		bne	.L272
1380:Drivers/STM32L4xx_HAL_Driver/Src/stm32l4xx_hal_rcc_ex.c ****           }
 2059              		.loc 1 1380 40
 2060 0560 0B4B     		ldr	r3, .L318
 2061 0562 1B68     		ldr	r3, [r3]
 2062 0564 03F00803 		and	r3, r3, #8
1380:Drivers/STM32L4xx_HAL_Driver/Src/stm32l4xx_hal_rcc_ex.c ****           }
 2063              		.loc 1 1380 66
 2064 0568 002B     		cmp	r3, #0
 2065 056a 05D0     		beq	.L145
1380:Drivers/STM32L4xx_HAL_Driver/Src/stm32l4xx_hal_rcc_ex.c ****           }
 2066              		.loc 1 1380 40 discriminator 1
 2067 056c 084B     		ldr	r3, .L318
 2068 056e 1B68     		ldr	r3, [r3]
1380:Drivers/STM32L4xx_HAL_Driver/Src/stm32l4xx_hal_rcc_ex.c ****           }
 2069              		.loc 1 1380 66 discriminator 1
 2070 0570 1B09     		lsrs	r3, r3, #4
 2071 0572 03F00F03 		and	r3, r3, #15
 2072 0576 05E0     		b	.L146
 2073              	.L145:
1380:Drivers/STM32L4xx_HAL_Driver/Src/stm32l4xx_hal_rcc_ex.c ****           }
 2074              		.loc 1 1380 40 discriminator 2
 2075 0578 054B     		ldr	r3, .L318
 2076 057a D3F89430 		ldr	r3, [r3, #148]
1380:Drivers/STM32L4xx_HAL_Driver/Src/stm32l4xx_hal_rcc_ex.c ****           }
 2077              		.loc 1 1380 66 discriminator 2
 2078 057e 1B0A     		lsrs	r3, r3, #8
ARM GAS  C:\Users\Morroway\AppData\Local\Temp\ccOmimY8.s 			page 75


 2079 0580 03F00F03 		and	r3, r3, #15
 2080              	.L146:
1380:Drivers/STM32L4xx_HAL_Driver/Src/stm32l4xx_hal_rcc_ex.c ****           }
 2081              		.loc 1 1380 23 discriminator 4
 2082 0584 034A     		ldr	r2, .L318+4
 2083 0586 52F82330 		ldr	r3, [r2, r3, lsl #2]
 2084 058a FB61     		str	r3, [r7, #28]
1382:Drivers/STM32L4xx_HAL_Driver/Src/stm32l4xx_hal_rcc_ex.c ****         case RCC_CCIPR_CLK48SEL_1:  /* PLL "Q" ? */
 2085              		.loc 1 1382 11 discriminator 4
 2086 058c 6CE0     		b	.L272
 2087              	.L319:
 2088 058e 00BF     		.align	2
 2089              	.L318:
 2090 0590 00100240 		.word	1073876992
 2091 0594 00000000 		.word	MSIRangeTable
 2092 0598 006CDC02 		.word	48000000
 2093              	.L141:
1384:Drivers/STM32L4xx_HAL_Driver/Src/stm32l4xx_hal_rcc_ex.c ****           {
 2094              		.loc 1 1384 14
 2095 059c A54B     		ldr	r3, .L320
 2096 059e 1B68     		ldr	r3, [r3]
 2097 05a0 03F00073 		and	r3, r3, #33554432
1384:Drivers/STM32L4xx_HAL_Driver/Src/stm32l4xx_hal_rcc_ex.c ****           {
 2098              		.loc 1 1384 13
 2099 05a4 B3F1007F 		cmp	r3, #33554432
 2100 05a8 60D1     		bne	.L273
1386:Drivers/STM32L4xx_HAL_Driver/Src/stm32l4xx_hal_rcc_ex.c ****             {
 2101              		.loc 1 1386 16
 2102 05aa A24B     		ldr	r3, .L320
 2103 05ac DB68     		ldr	r3, [r3, #12]
 2104 05ae 03F48013 		and	r3, r3, #1048576
1386:Drivers/STM32L4xx_HAL_Driver/Src/stm32l4xx_hal_rcc_ex.c ****             {
 2105              		.loc 1 1386 15
 2106 05b2 B3F5801F 		cmp	r3, #1048576
 2107 05b6 59D1     		bne	.L273
1389:Drivers/STM32L4xx_HAL_Driver/Src/stm32l4xx_hal_rcc_ex.c ****               pllvco = ((pllvco * plln) / ((READ_BIT(RCC->PLLCFGR, RCC_PLLCFGR_PLLM) >> RCC_PLLCFGR
 2108              		.loc 1 1389 22
 2109 05b8 9E4B     		ldr	r3, .L320
 2110 05ba DB68     		ldr	r3, [r3, #12]
1389:Drivers/STM32L4xx_HAL_Driver/Src/stm32l4xx_hal_rcc_ex.c ****               pllvco = ((pllvco * plln) / ((READ_BIT(RCC->PLLCFGR, RCC_PLLCFGR_PLLM) >> RCC_PLLCFGR
 2111              		.loc 1 1389 63
 2112 05bc 1B0A     		lsrs	r3, r3, #8
1389:Drivers/STM32L4xx_HAL_Driver/Src/stm32l4xx_hal_rcc_ex.c ****               pllvco = ((pllvco * plln) / ((READ_BIT(RCC->PLLCFGR, RCC_PLLCFGR_PLLM) >> RCC_PLLCFGR
 2113              		.loc 1 1389 20
 2114 05be 03F07F03 		and	r3, r3, #127
 2115 05c2 BB60     		str	r3, [r7, #8]
1390:Drivers/STM32L4xx_HAL_Driver/Src/stm32l4xx_hal_rcc_ex.c ****               /* f(PLL48M1CLK) = f(VCO input) / PLLQ */
 2116              		.loc 1 1390 33
 2117 05c4 BB69     		ldr	r3, [r7, #24]
 2118 05c6 BA68     		ldr	r2, [r7, #8]
 2119 05c8 03FB02F2 		mul	r2, r3, r2
1390:Drivers/STM32L4xx_HAL_Driver/Src/stm32l4xx_hal_rcc_ex.c ****               /* f(PLL48M1CLK) = f(VCO input) / PLLQ */
 2120              		.loc 1 1390 45
 2121 05cc 994B     		ldr	r3, .L320
 2122 05ce DB68     		ldr	r3, [r3, #12]
1390:Drivers/STM32L4xx_HAL_Driver/Src/stm32l4xx_hal_rcc_ex.c ****               /* f(PLL48M1CLK) = f(VCO input) / PLLQ */
 2123              		.loc 1 1390 86
ARM GAS  C:\Users\Morroway\AppData\Local\Temp\ccOmimY8.s 			page 76


 2124 05d0 1B09     		lsrs	r3, r3, #4
 2125 05d2 03F00F03 		and	r3, r3, #15
1390:Drivers/STM32L4xx_HAL_Driver/Src/stm32l4xx_hal_rcc_ex.c ****               /* f(PLL48M1CLK) = f(VCO input) / PLLQ */
 2126              		.loc 1 1390 111
 2127 05d6 0133     		adds	r3, r3, #1
1390:Drivers/STM32L4xx_HAL_Driver/Src/stm32l4xx_hal_rcc_ex.c ****               /* f(PLL48M1CLK) = f(VCO input) / PLLQ */
 2128              		.loc 1 1390 22
 2129 05d8 B2FBF3F3 		udiv	r3, r2, r3
 2130 05dc BB61     		str	r3, [r7, #24]
1392:Drivers/STM32L4xx_HAL_Driver/Src/stm32l4xx_hal_rcc_ex.c ****             }
 2131              		.loc 1 1392 40
 2132 05de 954B     		ldr	r3, .L320
 2133 05e0 DB68     		ldr	r3, [r3, #12]
1392:Drivers/STM32L4xx_HAL_Driver/Src/stm32l4xx_hal_rcc_ex.c ****             }
 2134              		.loc 1 1392 81
 2135 05e2 5B0D     		lsrs	r3, r3, #21
 2136 05e4 03F00303 		and	r3, r3, #3
1392:Drivers/STM32L4xx_HAL_Driver/Src/stm32l4xx_hal_rcc_ex.c ****             }
 2137              		.loc 1 1392 106
 2138 05e8 0133     		adds	r3, r3, #1
1392:Drivers/STM32L4xx_HAL_Driver/Src/stm32l4xx_hal_rcc_ex.c ****             }
 2139              		.loc 1 1392 112
 2140 05ea 5B00     		lsls	r3, r3, #1
1392:Drivers/STM32L4xx_HAL_Driver/Src/stm32l4xx_hal_rcc_ex.c ****             }
 2141              		.loc 1 1392 25
 2142 05ec BA69     		ldr	r2, [r7, #24]
 2143 05ee B2FBF3F3 		udiv	r3, r2, r3
 2144 05f2 FB61     		str	r3, [r7, #28]
1395:Drivers/STM32L4xx_HAL_Driver/Src/stm32l4xx_hal_rcc_ex.c ****         case RCC_CCIPR_CLK48SEL_0:  /* PLLSAI1 ? */
 2145              		.loc 1 1395 11
 2146 05f4 3AE0     		b	.L273
 2147              	.L143:
1397:Drivers/STM32L4xx_HAL_Driver/Src/stm32l4xx_hal_rcc_ex.c ****           {
 2148              		.loc 1 1397 14
 2149 05f6 8F4B     		ldr	r3, .L320
 2150 05f8 1B68     		ldr	r3, [r3]
 2151 05fa 03F00063 		and	r3, r3, #134217728
1397:Drivers/STM32L4xx_HAL_Driver/Src/stm32l4xx_hal_rcc_ex.c ****           {
 2152              		.loc 1 1397 13
 2153 05fe B3F1006F 		cmp	r3, #134217728
 2154 0602 35D1     		bne	.L274
1399:Drivers/STM32L4xx_HAL_Driver/Src/stm32l4xx_hal_rcc_ex.c ****             {
 2155              		.loc 1 1399 16
 2156 0604 8B4B     		ldr	r3, .L320
 2157 0606 1B69     		ldr	r3, [r3, #16]
 2158 0608 03F48013 		and	r3, r3, #1048576
1399:Drivers/STM32L4xx_HAL_Driver/Src/stm32l4xx_hal_rcc_ex.c ****             {
 2159              		.loc 1 1399 15
 2160 060c B3F5801F 		cmp	r3, #1048576
 2161 0610 2ED1     		bne	.L274
1402:Drivers/STM32L4xx_HAL_Driver/Src/stm32l4xx_hal_rcc_ex.c ****               pllvco = ((pllvco * plln) / ((READ_BIT(RCC->PLLSAI1CFGR, RCC_PLLSAI1CFGR_PLLSAI1M) >>
 2162              		.loc 1 1402 22
 2163 0612 884B     		ldr	r3, .L320
 2164 0614 1B69     		ldr	r3, [r3, #16]
1402:Drivers/STM32L4xx_HAL_Driver/Src/stm32l4xx_hal_rcc_ex.c ****               pllvco = ((pllvco * plln) / ((READ_BIT(RCC->PLLSAI1CFGR, RCC_PLLSAI1CFGR_PLLSAI1M) >>
 2165              		.loc 1 1402 75
 2166 0616 1B0A     		lsrs	r3, r3, #8
ARM GAS  C:\Users\Morroway\AppData\Local\Temp\ccOmimY8.s 			page 77


1402:Drivers/STM32L4xx_HAL_Driver/Src/stm32l4xx_hal_rcc_ex.c ****               pllvco = ((pllvco * plln) / ((READ_BIT(RCC->PLLSAI1CFGR, RCC_PLLSAI1CFGR_PLLSAI1M) >>
 2167              		.loc 1 1402 20
 2168 0618 03F07F03 		and	r3, r3, #127
 2169 061c BB60     		str	r3, [r7, #8]
1403:Drivers/STM32L4xx_HAL_Driver/Src/stm32l4xx_hal_rcc_ex.c ****               /* f(PLL48M2CLK) = f(VCOSAI1 input) / PLLSAI1Q */
 2170              		.loc 1 1403 33
 2171 061e BB69     		ldr	r3, [r7, #24]
 2172 0620 BA68     		ldr	r2, [r7, #8]
 2173 0622 03FB02F2 		mul	r2, r3, r2
1403:Drivers/STM32L4xx_HAL_Driver/Src/stm32l4xx_hal_rcc_ex.c ****               /* f(PLL48M2CLK) = f(VCOSAI1 input) / PLLSAI1Q */
 2174              		.loc 1 1403 45
 2175 0626 834B     		ldr	r3, .L320
 2176 0628 1B69     		ldr	r3, [r3, #16]
1403:Drivers/STM32L4xx_HAL_Driver/Src/stm32l4xx_hal_rcc_ex.c ****               /* f(PLL48M2CLK) = f(VCOSAI1 input) / PLLSAI1Q */
 2177              		.loc 1 1403 98
 2178 062a 1B09     		lsrs	r3, r3, #4
 2179 062c 03F00F03 		and	r3, r3, #15
1403:Drivers/STM32L4xx_HAL_Driver/Src/stm32l4xx_hal_rcc_ex.c ****               /* f(PLL48M2CLK) = f(VCOSAI1 input) / PLLSAI1Q */
 2180              		.loc 1 1403 131
 2181 0630 0133     		adds	r3, r3, #1
1403:Drivers/STM32L4xx_HAL_Driver/Src/stm32l4xx_hal_rcc_ex.c ****               /* f(PLL48M2CLK) = f(VCOSAI1 input) / PLLSAI1Q */
 2182              		.loc 1 1403 22
 2183 0632 B2FBF3F3 		udiv	r3, r2, r3
 2184 0636 BB61     		str	r3, [r7, #24]
1405:Drivers/STM32L4xx_HAL_Driver/Src/stm32l4xx_hal_rcc_ex.c ****             }
 2185              		.loc 1 1405 40
 2186 0638 7E4B     		ldr	r3, .L320
 2187 063a 1B69     		ldr	r3, [r3, #16]
1405:Drivers/STM32L4xx_HAL_Driver/Src/stm32l4xx_hal_rcc_ex.c ****             }
 2188              		.loc 1 1405 93
 2189 063c 5B0D     		lsrs	r3, r3, #21
 2190 063e 03F00303 		and	r3, r3, #3
1405:Drivers/STM32L4xx_HAL_Driver/Src/stm32l4xx_hal_rcc_ex.c ****             }
 2191              		.loc 1 1405 126
 2192 0642 0133     		adds	r3, r3, #1
1405:Drivers/STM32L4xx_HAL_Driver/Src/stm32l4xx_hal_rcc_ex.c ****             }
 2193              		.loc 1 1405 132
 2194 0644 5B00     		lsls	r3, r3, #1
1405:Drivers/STM32L4xx_HAL_Driver/Src/stm32l4xx_hal_rcc_ex.c ****             }
 2195              		.loc 1 1405 25
 2196 0646 BA69     		ldr	r2, [r7, #24]
 2197 0648 B2FBF3F3 		udiv	r3, r2, r3
 2198 064c FB61     		str	r3, [r7, #28]
1408:Drivers/STM32L4xx_HAL_Driver/Src/stm32l4xx_hal_rcc_ex.c ****         case 0U:
 2199              		.loc 1 1408 11
 2200 064e 0FE0     		b	.L274
 2201              	.L142:
1410:Drivers/STM32L4xx_HAL_Driver/Src/stm32l4xx_hal_rcc_ex.c ****           {
 2202              		.loc 1 1410 14
 2203 0650 784B     		ldr	r3, .L320
 2204 0652 D3F89830 		ldr	r3, [r3, #152]
 2205 0656 03F00203 		and	r3, r3, #2
1410:Drivers/STM32L4xx_HAL_Driver/Src/stm32l4xx_hal_rcc_ex.c ****           {
 2206              		.loc 1 1410 13
 2207 065a 022B     		cmp	r3, #2
 2208 065c 0AD1     		bne	.L275
1412:Drivers/STM32L4xx_HAL_Driver/Src/stm32l4xx_hal_rcc_ex.c ****           }
ARM GAS  C:\Users\Morroway\AppData\Local\Temp\ccOmimY8.s 			page 78


 2209              		.loc 1 1412 23
 2210 065e 764B     		ldr	r3, .L320+4
 2211 0660 FB61     		str	r3, [r7, #28]
1414:Drivers/STM32L4xx_HAL_Driver/Src/stm32l4xx_hal_rcc_ex.c ****         default:
 2212              		.loc 1 1414 11
 2213 0662 07E0     		b	.L275
 2214              	.L271:
1417:Drivers/STM32L4xx_HAL_Driver/Src/stm32l4xx_hal_rcc_ex.c ****         } /* switch(srcclk) */
 2215              		.loc 1 1417 11
 2216 0664 00BF     		nop
 2217 0666 ADE3     		b	.L270
 2218              	.L272:
1382:Drivers/STM32L4xx_HAL_Driver/Src/stm32l4xx_hal_rcc_ex.c ****         case RCC_CCIPR_CLK48SEL_1:  /* PLL "Q" ? */
 2219              		.loc 1 1382 11
 2220 0668 00BF     		nop
 2221 066a ABE3     		b	.L270
 2222              	.L273:
1395:Drivers/STM32L4xx_HAL_Driver/Src/stm32l4xx_hal_rcc_ex.c ****         case RCC_CCIPR_CLK48SEL_0:  /* PLLSAI1 ? */
 2223              		.loc 1 1395 11
 2224 066c 00BF     		nop
 2225 066e A9E3     		b	.L270
 2226              	.L274:
1408:Drivers/STM32L4xx_HAL_Driver/Src/stm32l4xx_hal_rcc_ex.c ****         case 0U:
 2227              		.loc 1 1408 11
 2228 0670 00BF     		nop
 2229 0672 A7E3     		b	.L270
 2230              	.L275:
1414:Drivers/STM32L4xx_HAL_Driver/Src/stm32l4xx_hal_rcc_ex.c ****         default:
 2231              		.loc 1 1414 11
 2232 0674 00BF     		nop
1420:Drivers/STM32L4xx_HAL_Driver/Src/stm32l4xx_hal_rcc_ex.c **** 
 2233              		.loc 1 1420 7
 2234 0676 A5E3     		b	.L270
 2235              	.L121:
1427:Drivers/STM32L4xx_HAL_Driver/Src/stm32l4xx_hal_rcc_ex.c **** 
 2236              		.loc 1 1427 18
 2237 0678 6E4B     		ldr	r3, .L320
 2238 067a D3F88830 		ldr	r3, [r3, #136]
1427:Drivers/STM32L4xx_HAL_Driver/Src/stm32l4xx_hal_rcc_ex.c **** 
 2239              		.loc 1 1427 16
 2240 067e 03F00303 		and	r3, r3, #3
 2241 0682 FB60     		str	r3, [r7, #12]
 2242 0684 FB68     		ldr	r3, [r7, #12]
 2243 0686 032B     		cmp	r3, #3
 2244 0688 27D8     		bhi	.L276
 2245 068a 01A2     		adr	r2, .L152
 2246 068c 52F823F0 		ldr	pc, [r2, r3, lsl #2]
 2247              		.p2align 2
 2248              	.L152:
 2249 0690 A1060000 		.word	.L155+1
 2250 0694 A9060000 		.word	.L154+1
 2251 0698 B1060000 		.word	.L153+1
 2252 069c C5060000 		.word	.L151+1
 2253              		.p2align 1
 2254              	.L155:
1432:Drivers/STM32L4xx_HAL_Driver/Src/stm32l4xx_hal_rcc_ex.c ****           break;
 2255              		.loc 1 1432 23
ARM GAS  C:\Users\Morroway\AppData\Local\Temp\ccOmimY8.s 			page 79


 2256 06a0 FFF7FEFF 		bl	HAL_RCC_GetPCLK2Freq
 2257 06a4 F861     		str	r0, [r7, #28]
1433:Drivers/STM32L4xx_HAL_Driver/Src/stm32l4xx_hal_rcc_ex.c ****         case RCC_USART1CLKSOURCE_SYSCLK:
 2258              		.loc 1 1433 11
 2259 06a6 1DE0     		b	.L156
 2260              	.L154:
1435:Drivers/STM32L4xx_HAL_Driver/Src/stm32l4xx_hal_rcc_ex.c ****           break;
 2261              		.loc 1 1435 23
 2262 06a8 FFF7FEFF 		bl	HAL_RCC_GetSysClockFreq
 2263 06ac F861     		str	r0, [r7, #28]
1436:Drivers/STM32L4xx_HAL_Driver/Src/stm32l4xx_hal_rcc_ex.c ****         case RCC_USART1CLKSOURCE_HSI:
 2264              		.loc 1 1436 11
 2265 06ae 19E0     		b	.L156
 2266              	.L153:
1438:Drivers/STM32L4xx_HAL_Driver/Src/stm32l4xx_hal_rcc_ex.c ****           {
 2267              		.loc 1 1438 14
 2268 06b0 604B     		ldr	r3, .L320
 2269 06b2 1B68     		ldr	r3, [r3]
 2270 06b4 03F48063 		and	r3, r3, #1024
1438:Drivers/STM32L4xx_HAL_Driver/Src/stm32l4xx_hal_rcc_ex.c ****           {
 2271              		.loc 1 1438 13
 2272 06b8 B3F5806F 		cmp	r3, #1024
 2273 06bc 0FD1     		bne	.L277
1440:Drivers/STM32L4xx_HAL_Driver/Src/stm32l4xx_hal_rcc_ex.c ****           }
 2274              		.loc 1 1440 23
 2275 06be 5F4B     		ldr	r3, .L320+8
 2276 06c0 FB61     		str	r3, [r7, #28]
1442:Drivers/STM32L4xx_HAL_Driver/Src/stm32l4xx_hal_rcc_ex.c ****         case RCC_USART1CLKSOURCE_LSE:
 2277              		.loc 1 1442 11
 2278 06c2 0CE0     		b	.L277
 2279              	.L151:
1444:Drivers/STM32L4xx_HAL_Driver/Src/stm32l4xx_hal_rcc_ex.c ****           {
 2280              		.loc 1 1444 14
 2281 06c4 5B4B     		ldr	r3, .L320
 2282 06c6 D3F89030 		ldr	r3, [r3, #144]
 2283 06ca 03F00203 		and	r3, r3, #2
1444:Drivers/STM32L4xx_HAL_Driver/Src/stm32l4xx_hal_rcc_ex.c ****           {
 2284              		.loc 1 1444 13
 2285 06ce 022B     		cmp	r3, #2
 2286 06d0 07D1     		bne	.L278
1446:Drivers/STM32L4xx_HAL_Driver/Src/stm32l4xx_hal_rcc_ex.c ****           }
 2287              		.loc 1 1446 23
 2288 06d2 4FF40043 		mov	r3, #32768
 2289 06d6 FB61     		str	r3, [r7, #28]
1448:Drivers/STM32L4xx_HAL_Driver/Src/stm32l4xx_hal_rcc_ex.c ****         default:
 2290              		.loc 1 1448 11
 2291 06d8 03E0     		b	.L278
 2292              	.L276:
1451:Drivers/STM32L4xx_HAL_Driver/Src/stm32l4xx_hal_rcc_ex.c ****         }
 2293              		.loc 1 1451 11
 2294 06da 00BF     		nop
 2295 06dc 73E3     		b	.L87
 2296              	.L277:
1442:Drivers/STM32L4xx_HAL_Driver/Src/stm32l4xx_hal_rcc_ex.c ****         case RCC_USART1CLKSOURCE_LSE:
 2297              		.loc 1 1442 11
 2298 06de 00BF     		nop
 2299 06e0 71E3     		b	.L87
ARM GAS  C:\Users\Morroway\AppData\Local\Temp\ccOmimY8.s 			page 80


 2300              	.L278:
1448:Drivers/STM32L4xx_HAL_Driver/Src/stm32l4xx_hal_rcc_ex.c ****         default:
 2301              		.loc 1 1448 11
 2302 06e2 00BF     		nop
 2303              	.L156:
1454:Drivers/STM32L4xx_HAL_Driver/Src/stm32l4xx_hal_rcc_ex.c ****       }
 2304              		.loc 1 1454 9 discriminator 13
 2305 06e4 6FE3     		b	.L87
 2306              	.L120:
1460:Drivers/STM32L4xx_HAL_Driver/Src/stm32l4xx_hal_rcc_ex.c **** 
 2307              		.loc 1 1460 18
 2308 06e6 534B     		ldr	r3, .L320
 2309 06e8 D3F88830 		ldr	r3, [r3, #136]
1460:Drivers/STM32L4xx_HAL_Driver/Src/stm32l4xx_hal_rcc_ex.c **** 
 2310              		.loc 1 1460 16
 2311 06ec 03F00C03 		and	r3, r3, #12
 2312 06f0 FB60     		str	r3, [r7, #12]
 2313 06f2 FB68     		ldr	r3, [r7, #12]
 2314 06f4 0C2B     		cmp	r3, #12
 2315 06f6 3AD8     		bhi	.L279
 2316 06f8 01A2     		adr	r2, .L161
 2317 06fa 52F823F0 		ldr	pc, [r2, r3, lsl #2]
 2318 06fe 00BF     		.p2align 2
 2319              	.L161:
 2320 0700 35070000 		.word	.L164+1
 2321 0704 6F070000 		.word	.L279+1
 2322 0708 6F070000 		.word	.L279+1
 2323 070c 6F070000 		.word	.L279+1
 2324 0710 3D070000 		.word	.L163+1
 2325 0714 6F070000 		.word	.L279+1
 2326 0718 6F070000 		.word	.L279+1
 2327 071c 6F070000 		.word	.L279+1
 2328 0720 45070000 		.word	.L162+1
 2329 0724 6F070000 		.word	.L279+1
 2330 0728 6F070000 		.word	.L279+1
 2331 072c 6F070000 		.word	.L279+1
 2332 0730 59070000 		.word	.L160+1
 2333              		.p2align 1
 2334              	.L164:
1465:Drivers/STM32L4xx_HAL_Driver/Src/stm32l4xx_hal_rcc_ex.c ****           break;
 2335              		.loc 1 1465 23
 2336 0734 FFF7FEFF 		bl	HAL_RCC_GetPCLK1Freq
 2337 0738 F861     		str	r0, [r7, #28]
1466:Drivers/STM32L4xx_HAL_Driver/Src/stm32l4xx_hal_rcc_ex.c ****         case RCC_USART2CLKSOURCE_SYSCLK:
 2338              		.loc 1 1466 11
 2339 073a 1DE0     		b	.L165
 2340              	.L163:
1468:Drivers/STM32L4xx_HAL_Driver/Src/stm32l4xx_hal_rcc_ex.c ****           break;
 2341              		.loc 1 1468 23
 2342 073c FFF7FEFF 		bl	HAL_RCC_GetSysClockFreq
 2343 0740 F861     		str	r0, [r7, #28]
1469:Drivers/STM32L4xx_HAL_Driver/Src/stm32l4xx_hal_rcc_ex.c ****         case RCC_USART2CLKSOURCE_HSI:
 2344              		.loc 1 1469 11
 2345 0742 19E0     		b	.L165
 2346              	.L162:
1471:Drivers/STM32L4xx_HAL_Driver/Src/stm32l4xx_hal_rcc_ex.c ****           {
 2347              		.loc 1 1471 14
ARM GAS  C:\Users\Morroway\AppData\Local\Temp\ccOmimY8.s 			page 81


 2348 0744 3B4B     		ldr	r3, .L320
 2349 0746 1B68     		ldr	r3, [r3]
 2350 0748 03F48063 		and	r3, r3, #1024
1471:Drivers/STM32L4xx_HAL_Driver/Src/stm32l4xx_hal_rcc_ex.c ****           {
 2351              		.loc 1 1471 13
 2352 074c B3F5806F 		cmp	r3, #1024
 2353 0750 0FD1     		bne	.L280
1473:Drivers/STM32L4xx_HAL_Driver/Src/stm32l4xx_hal_rcc_ex.c ****           }
 2354              		.loc 1 1473 23
 2355 0752 3A4B     		ldr	r3, .L320+8
 2356 0754 FB61     		str	r3, [r7, #28]
1475:Drivers/STM32L4xx_HAL_Driver/Src/stm32l4xx_hal_rcc_ex.c ****         case RCC_USART2CLKSOURCE_LSE:
 2357              		.loc 1 1475 11
 2358 0756 0CE0     		b	.L280
 2359              	.L160:
1477:Drivers/STM32L4xx_HAL_Driver/Src/stm32l4xx_hal_rcc_ex.c ****           {
 2360              		.loc 1 1477 14
 2361 0758 364B     		ldr	r3, .L320
 2362 075a D3F89030 		ldr	r3, [r3, #144]
 2363 075e 03F00203 		and	r3, r3, #2
1477:Drivers/STM32L4xx_HAL_Driver/Src/stm32l4xx_hal_rcc_ex.c ****           {
 2364              		.loc 1 1477 13
 2365 0762 022B     		cmp	r3, #2
 2366 0764 07D1     		bne	.L281
1479:Drivers/STM32L4xx_HAL_Driver/Src/stm32l4xx_hal_rcc_ex.c ****           }
 2367              		.loc 1 1479 23
 2368 0766 4FF40043 		mov	r3, #32768
 2369 076a FB61     		str	r3, [r7, #28]
1481:Drivers/STM32L4xx_HAL_Driver/Src/stm32l4xx_hal_rcc_ex.c ****         default:
 2370              		.loc 1 1481 11
 2371 076c 03E0     		b	.L281
 2372              	.L279:
1484:Drivers/STM32L4xx_HAL_Driver/Src/stm32l4xx_hal_rcc_ex.c ****         }
 2373              		.loc 1 1484 11
 2374 076e 00BF     		nop
 2375 0770 29E3     		b	.L87
 2376              	.L280:
1475:Drivers/STM32L4xx_HAL_Driver/Src/stm32l4xx_hal_rcc_ex.c ****         case RCC_USART2CLKSOURCE_LSE:
 2377              		.loc 1 1475 11
 2378 0772 00BF     		nop
 2379 0774 27E3     		b	.L87
 2380              	.L281:
1481:Drivers/STM32L4xx_HAL_Driver/Src/stm32l4xx_hal_rcc_ex.c ****         default:
 2381              		.loc 1 1481 11
 2382 0776 00BF     		nop
 2383              	.L165:
1487:Drivers/STM32L4xx_HAL_Driver/Src/stm32l4xx_hal_rcc_ex.c ****       }
 2384              		.loc 1 1487 9 discriminator 15
 2385 0778 25E3     		b	.L87
 2386              	.L119:
1495:Drivers/STM32L4xx_HAL_Driver/Src/stm32l4xx_hal_rcc_ex.c **** 
 2387              		.loc 1 1495 18
 2388 077a 2E4B     		ldr	r3, .L320
 2389 077c D3F88830 		ldr	r3, [r3, #136]
1495:Drivers/STM32L4xx_HAL_Driver/Src/stm32l4xx_hal_rcc_ex.c **** 
 2390              		.loc 1 1495 16
 2391 0780 03F03003 		and	r3, r3, #48
ARM GAS  C:\Users\Morroway\AppData\Local\Temp\ccOmimY8.s 			page 82


 2392 0784 FB60     		str	r3, [r7, #12]
 2393 0786 FB68     		ldr	r3, [r7, #12]
 2394 0788 302B     		cmp	r3, #48
 2395 078a 21D0     		beq	.L168
 2396 078c FB68     		ldr	r3, [r7, #12]
 2397 078e 302B     		cmp	r3, #48
 2398 0790 29D8     		bhi	.L282
 2399 0792 FB68     		ldr	r3, [r7, #12]
 2400 0794 202B     		cmp	r3, #32
 2401 0796 11D0     		beq	.L170
 2402 0798 FB68     		ldr	r3, [r7, #12]
 2403 079a 202B     		cmp	r3, #32
 2404 079c 23D8     		bhi	.L282
 2405 079e FB68     		ldr	r3, [r7, #12]
 2406 07a0 002B     		cmp	r3, #0
 2407 07a2 03D0     		beq	.L171
 2408 07a4 FB68     		ldr	r3, [r7, #12]
 2409 07a6 102B     		cmp	r3, #16
 2410 07a8 04D0     		beq	.L172
1519:Drivers/STM32L4xx_HAL_Driver/Src/stm32l4xx_hal_rcc_ex.c ****         }
 2411              		.loc 1 1519 11
 2412 07aa 1CE0     		b	.L282
 2413              	.L171:
1500:Drivers/STM32L4xx_HAL_Driver/Src/stm32l4xx_hal_rcc_ex.c ****           break;
 2414              		.loc 1 1500 23
 2415 07ac FFF7FEFF 		bl	HAL_RCC_GetPCLK1Freq
 2416 07b0 F861     		str	r0, [r7, #28]
1501:Drivers/STM32L4xx_HAL_Driver/Src/stm32l4xx_hal_rcc_ex.c ****         case RCC_USART3CLKSOURCE_SYSCLK:
 2417              		.loc 1 1501 11
 2418 07b2 1DE0     		b	.L173
 2419              	.L172:
1503:Drivers/STM32L4xx_HAL_Driver/Src/stm32l4xx_hal_rcc_ex.c ****           break;
 2420              		.loc 1 1503 23
 2421 07b4 FFF7FEFF 		bl	HAL_RCC_GetSysClockFreq
 2422 07b8 F861     		str	r0, [r7, #28]
1504:Drivers/STM32L4xx_HAL_Driver/Src/stm32l4xx_hal_rcc_ex.c ****         case RCC_USART3CLKSOURCE_HSI:
 2423              		.loc 1 1504 11
 2424 07ba 19E0     		b	.L173
 2425              	.L170:
1506:Drivers/STM32L4xx_HAL_Driver/Src/stm32l4xx_hal_rcc_ex.c ****           {
 2426              		.loc 1 1506 14
 2427 07bc 1D4B     		ldr	r3, .L320
 2428 07be 1B68     		ldr	r3, [r3]
 2429 07c0 03F48063 		and	r3, r3, #1024
1506:Drivers/STM32L4xx_HAL_Driver/Src/stm32l4xx_hal_rcc_ex.c ****           {
 2430              		.loc 1 1506 13
 2431 07c4 B3F5806F 		cmp	r3, #1024
 2432 07c8 0FD1     		bne	.L283
1508:Drivers/STM32L4xx_HAL_Driver/Src/stm32l4xx_hal_rcc_ex.c ****           }
 2433              		.loc 1 1508 23
 2434 07ca 1C4B     		ldr	r3, .L320+8
 2435 07cc FB61     		str	r3, [r7, #28]
1510:Drivers/STM32L4xx_HAL_Driver/Src/stm32l4xx_hal_rcc_ex.c ****         case RCC_USART3CLKSOURCE_LSE:
 2436              		.loc 1 1510 11
 2437 07ce 0CE0     		b	.L283
 2438              	.L168:
1512:Drivers/STM32L4xx_HAL_Driver/Src/stm32l4xx_hal_rcc_ex.c ****           {
ARM GAS  C:\Users\Morroway\AppData\Local\Temp\ccOmimY8.s 			page 83


 2439              		.loc 1 1512 14
 2440 07d0 184B     		ldr	r3, .L320
 2441 07d2 D3F89030 		ldr	r3, [r3, #144]
 2442 07d6 03F00203 		and	r3, r3, #2
1512:Drivers/STM32L4xx_HAL_Driver/Src/stm32l4xx_hal_rcc_ex.c ****           {
 2443              		.loc 1 1512 13
 2444 07da 022B     		cmp	r3, #2
 2445 07dc 07D1     		bne	.L284
1514:Drivers/STM32L4xx_HAL_Driver/Src/stm32l4xx_hal_rcc_ex.c ****           }
 2446              		.loc 1 1514 23
 2447 07de 4FF40043 		mov	r3, #32768
 2448 07e2 FB61     		str	r3, [r7, #28]
1516:Drivers/STM32L4xx_HAL_Driver/Src/stm32l4xx_hal_rcc_ex.c ****         default:
 2449              		.loc 1 1516 11
 2450 07e4 03E0     		b	.L284
 2451              	.L282:
1519:Drivers/STM32L4xx_HAL_Driver/Src/stm32l4xx_hal_rcc_ex.c ****         }
 2452              		.loc 1 1519 11
 2453 07e6 00BF     		nop
 2454 07e8 EDE2     		b	.L87
 2455              	.L283:
1510:Drivers/STM32L4xx_HAL_Driver/Src/stm32l4xx_hal_rcc_ex.c ****         case RCC_USART3CLKSOURCE_LSE:
 2456              		.loc 1 1510 11
 2457 07ea 00BF     		nop
 2458 07ec EBE2     		b	.L87
 2459              	.L284:
1516:Drivers/STM32L4xx_HAL_Driver/Src/stm32l4xx_hal_rcc_ex.c ****         default:
 2460              		.loc 1 1516 11
 2461 07ee 00BF     		nop
 2462              	.L173:
1522:Drivers/STM32L4xx_HAL_Driver/Src/stm32l4xx_hal_rcc_ex.c ****       }
 2463              		.loc 1 1522 9 discriminator 17
 2464 07f0 E9E2     		b	.L87
 2465              	.L118:
1532:Drivers/STM32L4xx_HAL_Driver/Src/stm32l4xx_hal_rcc_ex.c **** 
 2466              		.loc 1 1532 18
 2467 07f2 104B     		ldr	r3, .L320
 2468 07f4 D3F88830 		ldr	r3, [r3, #136]
1532:Drivers/STM32L4xx_HAL_Driver/Src/stm32l4xx_hal_rcc_ex.c **** 
 2469              		.loc 1 1532 16
 2470 07f8 03F0C003 		and	r3, r3, #192
 2471 07fc FB60     		str	r3, [r7, #12]
 2472 07fe FB68     		ldr	r3, [r7, #12]
 2473 0800 C02B     		cmp	r3, #192
 2474 0802 27D0     		beq	.L176
 2475 0804 FB68     		ldr	r3, [r7, #12]
 2476 0806 C02B     		cmp	r3, #192
 2477 0808 2FD8     		bhi	.L285
 2478 080a FB68     		ldr	r3, [r7, #12]
 2479 080c 802B     		cmp	r3, #128
 2480 080e 17D0     		beq	.L178
 2481 0810 FB68     		ldr	r3, [r7, #12]
 2482 0812 802B     		cmp	r3, #128
 2483 0814 29D8     		bhi	.L285
 2484 0816 FB68     		ldr	r3, [r7, #12]
 2485 0818 002B     		cmp	r3, #0
 2486 081a 03D0     		beq	.L179
ARM GAS  C:\Users\Morroway\AppData\Local\Temp\ccOmimY8.s 			page 84


 2487 081c FB68     		ldr	r3, [r7, #12]
 2488 081e 402B     		cmp	r3, #64
 2489 0820 04D0     		beq	.L180
1556:Drivers/STM32L4xx_HAL_Driver/Src/stm32l4xx_hal_rcc_ex.c ****         }
 2490              		.loc 1 1556 11
 2491 0822 22E0     		b	.L285
 2492              	.L179:
1537:Drivers/STM32L4xx_HAL_Driver/Src/stm32l4xx_hal_rcc_ex.c ****           break;
 2493              		.loc 1 1537 23
 2494 0824 FFF7FEFF 		bl	HAL_RCC_GetPCLK1Freq
 2495 0828 F861     		str	r0, [r7, #28]
1538:Drivers/STM32L4xx_HAL_Driver/Src/stm32l4xx_hal_rcc_ex.c ****         case RCC_UART4CLKSOURCE_SYSCLK:
 2496              		.loc 1 1538 11
 2497 082a 23E0     		b	.L181
 2498              	.L180:
1540:Drivers/STM32L4xx_HAL_Driver/Src/stm32l4xx_hal_rcc_ex.c ****           break;
 2499              		.loc 1 1540 23
 2500 082c FFF7FEFF 		bl	HAL_RCC_GetSysClockFreq
 2501 0830 F861     		str	r0, [r7, #28]
1541:Drivers/STM32L4xx_HAL_Driver/Src/stm32l4xx_hal_rcc_ex.c ****         case RCC_UART4CLKSOURCE_HSI:
 2502              		.loc 1 1541 11
 2503 0832 1FE0     		b	.L181
 2504              	.L321:
 2505              		.align	2
 2506              	.L320:
 2507 0834 00100240 		.word	1073876992
 2508 0838 006CDC02 		.word	48000000
 2509 083c 0024F400 		.word	16000000
 2510              	.L178:
1543:Drivers/STM32L4xx_HAL_Driver/Src/stm32l4xx_hal_rcc_ex.c ****           {
 2511              		.loc 1 1543 14
 2512 0840 9C4B     		ldr	r3, .L322
 2513 0842 1B68     		ldr	r3, [r3]
 2514 0844 03F48063 		and	r3, r3, #1024
1543:Drivers/STM32L4xx_HAL_Driver/Src/stm32l4xx_hal_rcc_ex.c ****           {
 2515              		.loc 1 1543 13
 2516 0848 B3F5806F 		cmp	r3, #1024
 2517 084c 0FD1     		bne	.L286
1545:Drivers/STM32L4xx_HAL_Driver/Src/stm32l4xx_hal_rcc_ex.c ****           }
 2518              		.loc 1 1545 23
 2519 084e 9A4B     		ldr	r3, .L322+4
 2520 0850 FB61     		str	r3, [r7, #28]
1547:Drivers/STM32L4xx_HAL_Driver/Src/stm32l4xx_hal_rcc_ex.c ****         case RCC_UART4CLKSOURCE_LSE:
 2521              		.loc 1 1547 11
 2522 0852 0CE0     		b	.L286
 2523              	.L176:
1549:Drivers/STM32L4xx_HAL_Driver/Src/stm32l4xx_hal_rcc_ex.c ****           {
 2524              		.loc 1 1549 14
 2525 0854 974B     		ldr	r3, .L322
 2526 0856 D3F89030 		ldr	r3, [r3, #144]
 2527 085a 03F00203 		and	r3, r3, #2
1549:Drivers/STM32L4xx_HAL_Driver/Src/stm32l4xx_hal_rcc_ex.c ****           {
 2528              		.loc 1 1549 13
 2529 085e 022B     		cmp	r3, #2
 2530 0860 07D1     		bne	.L287
1551:Drivers/STM32L4xx_HAL_Driver/Src/stm32l4xx_hal_rcc_ex.c ****           }
 2531              		.loc 1 1551 23
ARM GAS  C:\Users\Morroway\AppData\Local\Temp\ccOmimY8.s 			page 85


 2532 0862 4FF40043 		mov	r3, #32768
 2533 0866 FB61     		str	r3, [r7, #28]
1553:Drivers/STM32L4xx_HAL_Driver/Src/stm32l4xx_hal_rcc_ex.c ****         default:
 2534              		.loc 1 1553 11
 2535 0868 03E0     		b	.L287
 2536              	.L285:
1556:Drivers/STM32L4xx_HAL_Driver/Src/stm32l4xx_hal_rcc_ex.c ****         }
 2537              		.loc 1 1556 11
 2538 086a 00BF     		nop
 2539 086c ABE2     		b	.L87
 2540              	.L286:
1547:Drivers/STM32L4xx_HAL_Driver/Src/stm32l4xx_hal_rcc_ex.c ****         case RCC_UART4CLKSOURCE_LSE:
 2541              		.loc 1 1547 11
 2542 086e 00BF     		nop
 2543 0870 A9E2     		b	.L87
 2544              	.L287:
1553:Drivers/STM32L4xx_HAL_Driver/Src/stm32l4xx_hal_rcc_ex.c ****         default:
 2545              		.loc 1 1553 11
 2546 0872 00BF     		nop
 2547              	.L181:
1559:Drivers/STM32L4xx_HAL_Driver/Src/stm32l4xx_hal_rcc_ex.c ****       }
 2548              		.loc 1 1559 9 discriminator 19
 2549 0874 A7E2     		b	.L87
 2550              	.L117:
1569:Drivers/STM32L4xx_HAL_Driver/Src/stm32l4xx_hal_rcc_ex.c **** 
 2551              		.loc 1 1569 18
 2552 0876 8F4B     		ldr	r3, .L322
 2553 0878 D3F88830 		ldr	r3, [r3, #136]
1569:Drivers/STM32L4xx_HAL_Driver/Src/stm32l4xx_hal_rcc_ex.c **** 
 2554              		.loc 1 1569 16
 2555 087c 03F44073 		and	r3, r3, #768
 2556 0880 FB60     		str	r3, [r7, #12]
 2557 0882 FB68     		ldr	r3, [r7, #12]
 2558 0884 B3F5407F 		cmp	r3, #768
 2559 0888 25D0     		beq	.L184
 2560 088a FB68     		ldr	r3, [r7, #12]
 2561 088c B3F5407F 		cmp	r3, #768
 2562 0890 2CD8     		bhi	.L288
 2563 0892 FB68     		ldr	r3, [r7, #12]
 2564 0894 B3F5007F 		cmp	r3, #512
 2565 0898 13D0     		beq	.L186
 2566 089a FB68     		ldr	r3, [r7, #12]
 2567 089c B3F5007F 		cmp	r3, #512
 2568 08a0 24D8     		bhi	.L288
 2569 08a2 FB68     		ldr	r3, [r7, #12]
 2570 08a4 002B     		cmp	r3, #0
 2571 08a6 04D0     		beq	.L187
 2572 08a8 FB68     		ldr	r3, [r7, #12]
 2573 08aa B3F5807F 		cmp	r3, #256
 2574 08ae 04D0     		beq	.L188
1593:Drivers/STM32L4xx_HAL_Driver/Src/stm32l4xx_hal_rcc_ex.c ****         }
 2575              		.loc 1 1593 11
 2576 08b0 1CE0     		b	.L288
 2577              	.L187:
1574:Drivers/STM32L4xx_HAL_Driver/Src/stm32l4xx_hal_rcc_ex.c ****           break;
 2578              		.loc 1 1574 23
 2579 08b2 FFF7FEFF 		bl	HAL_RCC_GetPCLK1Freq
ARM GAS  C:\Users\Morroway\AppData\Local\Temp\ccOmimY8.s 			page 86


 2580 08b6 F861     		str	r0, [r7, #28]
1575:Drivers/STM32L4xx_HAL_Driver/Src/stm32l4xx_hal_rcc_ex.c ****         case RCC_UART5CLKSOURCE_SYSCLK:
 2581              		.loc 1 1575 11
 2582 08b8 1DE0     		b	.L189
 2583              	.L188:
1577:Drivers/STM32L4xx_HAL_Driver/Src/stm32l4xx_hal_rcc_ex.c ****           break;
 2584              		.loc 1 1577 23
 2585 08ba FFF7FEFF 		bl	HAL_RCC_GetSysClockFreq
 2586 08be F861     		str	r0, [r7, #28]
1578:Drivers/STM32L4xx_HAL_Driver/Src/stm32l4xx_hal_rcc_ex.c ****         case RCC_UART5CLKSOURCE_HSI:
 2587              		.loc 1 1578 11
 2588 08c0 19E0     		b	.L189
 2589              	.L186:
1580:Drivers/STM32L4xx_HAL_Driver/Src/stm32l4xx_hal_rcc_ex.c ****           {
 2590              		.loc 1 1580 14
 2591 08c2 7C4B     		ldr	r3, .L322
 2592 08c4 1B68     		ldr	r3, [r3]
 2593 08c6 03F48063 		and	r3, r3, #1024
1580:Drivers/STM32L4xx_HAL_Driver/Src/stm32l4xx_hal_rcc_ex.c ****           {
 2594              		.loc 1 1580 13
 2595 08ca B3F5806F 		cmp	r3, #1024
 2596 08ce 0FD1     		bne	.L289
1582:Drivers/STM32L4xx_HAL_Driver/Src/stm32l4xx_hal_rcc_ex.c ****           }
 2597              		.loc 1 1582 23
 2598 08d0 794B     		ldr	r3, .L322+4
 2599 08d2 FB61     		str	r3, [r7, #28]
1584:Drivers/STM32L4xx_HAL_Driver/Src/stm32l4xx_hal_rcc_ex.c ****         case RCC_UART5CLKSOURCE_LSE:
 2600              		.loc 1 1584 11
 2601 08d4 0CE0     		b	.L289
 2602              	.L184:
1586:Drivers/STM32L4xx_HAL_Driver/Src/stm32l4xx_hal_rcc_ex.c ****           {
 2603              		.loc 1 1586 14
 2604 08d6 774B     		ldr	r3, .L322
 2605 08d8 D3F89030 		ldr	r3, [r3, #144]
 2606 08dc 03F00203 		and	r3, r3, #2
1586:Drivers/STM32L4xx_HAL_Driver/Src/stm32l4xx_hal_rcc_ex.c ****           {
 2607              		.loc 1 1586 13
 2608 08e0 022B     		cmp	r3, #2
 2609 08e2 07D1     		bne	.L290
1588:Drivers/STM32L4xx_HAL_Driver/Src/stm32l4xx_hal_rcc_ex.c ****           }
 2610              		.loc 1 1588 23
 2611 08e4 4FF40043 		mov	r3, #32768
 2612 08e8 FB61     		str	r3, [r7, #28]
1590:Drivers/STM32L4xx_HAL_Driver/Src/stm32l4xx_hal_rcc_ex.c ****         default:
 2613              		.loc 1 1590 11
 2614 08ea 03E0     		b	.L290
 2615              	.L288:
1593:Drivers/STM32L4xx_HAL_Driver/Src/stm32l4xx_hal_rcc_ex.c ****         }
 2616              		.loc 1 1593 11
 2617 08ec 00BF     		nop
 2618 08ee 6AE2     		b	.L87
 2619              	.L289:
1584:Drivers/STM32L4xx_HAL_Driver/Src/stm32l4xx_hal_rcc_ex.c ****         case RCC_UART5CLKSOURCE_LSE:
 2620              		.loc 1 1584 11
 2621 08f0 00BF     		nop
 2622 08f2 68E2     		b	.L87
 2623              	.L290:
ARM GAS  C:\Users\Morroway\AppData\Local\Temp\ccOmimY8.s 			page 87


1590:Drivers/STM32L4xx_HAL_Driver/Src/stm32l4xx_hal_rcc_ex.c ****         default:
 2624              		.loc 1 1590 11
 2625 08f4 00BF     		nop
 2626              	.L189:
1596:Drivers/STM32L4xx_HAL_Driver/Src/stm32l4xx_hal_rcc_ex.c ****       }
 2627              		.loc 1 1596 9 discriminator 21
 2628 08f6 66E2     		b	.L87
 2629              	.L115:
1604:Drivers/STM32L4xx_HAL_Driver/Src/stm32l4xx_hal_rcc_ex.c **** 
 2630              		.loc 1 1604 18
 2631 08f8 6E4B     		ldr	r3, .L322
 2632 08fa D3F88830 		ldr	r3, [r3, #136]
1604:Drivers/STM32L4xx_HAL_Driver/Src/stm32l4xx_hal_rcc_ex.c **** 
 2633              		.loc 1 1604 16
 2634 08fe 03F44063 		and	r3, r3, #3072
 2635 0902 FB60     		str	r3, [r7, #12]
 2636 0904 FB68     		ldr	r3, [r7, #12]
 2637 0906 B3F5406F 		cmp	r3, #3072
 2638 090a 25D0     		beq	.L192
 2639 090c FB68     		ldr	r3, [r7, #12]
 2640 090e B3F5406F 		cmp	r3, #3072
 2641 0912 2CD8     		bhi	.L291
 2642 0914 FB68     		ldr	r3, [r7, #12]
 2643 0916 B3F5006F 		cmp	r3, #2048
 2644 091a 13D0     		beq	.L194
 2645 091c FB68     		ldr	r3, [r7, #12]
 2646 091e B3F5006F 		cmp	r3, #2048
 2647 0922 24D8     		bhi	.L291
 2648 0924 FB68     		ldr	r3, [r7, #12]
 2649 0926 002B     		cmp	r3, #0
 2650 0928 04D0     		beq	.L195
 2651 092a FB68     		ldr	r3, [r7, #12]
 2652 092c B3F5806F 		cmp	r3, #1024
 2653 0930 04D0     		beq	.L196
1628:Drivers/STM32L4xx_HAL_Driver/Src/stm32l4xx_hal_rcc_ex.c ****         }
 2654              		.loc 1 1628 11
 2655 0932 1CE0     		b	.L291
 2656              	.L195:
1609:Drivers/STM32L4xx_HAL_Driver/Src/stm32l4xx_hal_rcc_ex.c ****           break;
 2657              		.loc 1 1609 23
 2658 0934 FFF7FEFF 		bl	HAL_RCC_GetPCLK1Freq
 2659 0938 F861     		str	r0, [r7, #28]
1610:Drivers/STM32L4xx_HAL_Driver/Src/stm32l4xx_hal_rcc_ex.c ****         case RCC_LPUART1CLKSOURCE_SYSCLK:
 2660              		.loc 1 1610 11
 2661 093a 1DE0     		b	.L197
 2662              	.L196:
1612:Drivers/STM32L4xx_HAL_Driver/Src/stm32l4xx_hal_rcc_ex.c ****           break;
 2663              		.loc 1 1612 23
 2664 093c FFF7FEFF 		bl	HAL_RCC_GetSysClockFreq
 2665 0940 F861     		str	r0, [r7, #28]
1613:Drivers/STM32L4xx_HAL_Driver/Src/stm32l4xx_hal_rcc_ex.c ****         case RCC_LPUART1CLKSOURCE_HSI:
 2666              		.loc 1 1613 11
 2667 0942 19E0     		b	.L197
 2668              	.L194:
1615:Drivers/STM32L4xx_HAL_Driver/Src/stm32l4xx_hal_rcc_ex.c ****           {
 2669              		.loc 1 1615 14
 2670 0944 5B4B     		ldr	r3, .L322
ARM GAS  C:\Users\Morroway\AppData\Local\Temp\ccOmimY8.s 			page 88


 2671 0946 1B68     		ldr	r3, [r3]
 2672 0948 03F48063 		and	r3, r3, #1024
1615:Drivers/STM32L4xx_HAL_Driver/Src/stm32l4xx_hal_rcc_ex.c ****           {
 2673              		.loc 1 1615 13
 2674 094c B3F5806F 		cmp	r3, #1024
 2675 0950 0FD1     		bne	.L292
1617:Drivers/STM32L4xx_HAL_Driver/Src/stm32l4xx_hal_rcc_ex.c ****           }
 2676              		.loc 1 1617 23
 2677 0952 594B     		ldr	r3, .L322+4
 2678 0954 FB61     		str	r3, [r7, #28]
1619:Drivers/STM32L4xx_HAL_Driver/Src/stm32l4xx_hal_rcc_ex.c ****         case RCC_LPUART1CLKSOURCE_LSE:
 2679              		.loc 1 1619 11
 2680 0956 0CE0     		b	.L292
 2681              	.L192:
1621:Drivers/STM32L4xx_HAL_Driver/Src/stm32l4xx_hal_rcc_ex.c ****           {
 2682              		.loc 1 1621 14
 2683 0958 564B     		ldr	r3, .L322
 2684 095a D3F89030 		ldr	r3, [r3, #144]
 2685 095e 03F00203 		and	r3, r3, #2
1621:Drivers/STM32L4xx_HAL_Driver/Src/stm32l4xx_hal_rcc_ex.c ****           {
 2686              		.loc 1 1621 13
 2687 0962 022B     		cmp	r3, #2
 2688 0964 07D1     		bne	.L293
1623:Drivers/STM32L4xx_HAL_Driver/Src/stm32l4xx_hal_rcc_ex.c ****           }
 2689              		.loc 1 1623 23
 2690 0966 4FF40043 		mov	r3, #32768
 2691 096a FB61     		str	r3, [r7, #28]
1625:Drivers/STM32L4xx_HAL_Driver/Src/stm32l4xx_hal_rcc_ex.c ****         default:
 2692              		.loc 1 1625 11
 2693 096c 03E0     		b	.L293
 2694              	.L291:
1628:Drivers/STM32L4xx_HAL_Driver/Src/stm32l4xx_hal_rcc_ex.c ****         }
 2695              		.loc 1 1628 11
 2696 096e 00BF     		nop
 2697 0970 29E2     		b	.L87
 2698              	.L292:
1619:Drivers/STM32L4xx_HAL_Driver/Src/stm32l4xx_hal_rcc_ex.c ****         case RCC_LPUART1CLKSOURCE_LSE:
 2699              		.loc 1 1619 11
 2700 0972 00BF     		nop
 2701 0974 27E2     		b	.L87
 2702              	.L293:
1625:Drivers/STM32L4xx_HAL_Driver/Src/stm32l4xx_hal_rcc_ex.c ****         default:
 2703              		.loc 1 1625 11
 2704 0976 00BF     		nop
 2705              	.L197:
1631:Drivers/STM32L4xx_HAL_Driver/Src/stm32l4xx_hal_rcc_ex.c ****       }
 2706              		.loc 1 1631 9 discriminator 23
 2707 0978 25E2     		b	.L87
 2708              	.L107:
1636:Drivers/STM32L4xx_HAL_Driver/Src/stm32l4xx_hal_rcc_ex.c **** 
 2709              		.loc 1 1636 18
 2710 097a 4E4B     		ldr	r3, .L322
 2711 097c D3F88830 		ldr	r3, [r3, #136]
1636:Drivers/STM32L4xx_HAL_Driver/Src/stm32l4xx_hal_rcc_ex.c **** 
 2712              		.loc 1 1636 16
 2713 0980 03F04053 		and	r3, r3, #805306368
 2714 0984 FB60     		str	r3, [r7, #12]
ARM GAS  C:\Users\Morroway\AppData\Local\Temp\ccOmimY8.s 			page 89


 2715 0986 FB68     		ldr	r3, [r7, #12]
 2716 0988 B3F1805F 		cmp	r3, #268435456
 2717 098c 07D0     		beq	.L200
 2718 098e FB68     		ldr	r3, [r7, #12]
 2719 0990 B3F1405F 		cmp	r3, #805306368
 2720 0994 2FD1     		bne	.L294
1641:Drivers/STM32L4xx_HAL_Driver/Src/stm32l4xx_hal_rcc_ex.c ****           break;
 2721              		.loc 1 1641 23
 2722 0996 FFF7FEFF 		bl	HAL_RCC_GetSysClockFreq
 2723 099a F861     		str	r0, [r7, #28]
1642:Drivers/STM32L4xx_HAL_Driver/Src/stm32l4xx_hal_rcc_ex.c **** #if defined(RCC_PLLSAI1_SUPPORT)
 2724              		.loc 1 1642 11
 2725 099c 2EE0     		b	.L202
 2726              	.L200:
1645:Drivers/STM32L4xx_HAL_Driver/Src/stm32l4xx_hal_rcc_ex.c ****           {
 2727              		.loc 1 1645 14
 2728 099e 454B     		ldr	r3, .L322
 2729 09a0 1B68     		ldr	r3, [r3]
 2730 09a2 03F00063 		and	r3, r3, #134217728
1645:Drivers/STM32L4xx_HAL_Driver/Src/stm32l4xx_hal_rcc_ex.c ****           {
 2731              		.loc 1 1645 13
 2732 09a6 B3F1006F 		cmp	r3, #134217728
 2733 09aa 26D1     		bne	.L295
1645:Drivers/STM32L4xx_HAL_Driver/Src/stm32l4xx_hal_rcc_ex.c ****           {
 2734              		.loc 1 1645 61 discriminator 1
 2735 09ac 414B     		ldr	r3, .L322
 2736 09ae 1B69     		ldr	r3, [r3, #16]
 2737 09b0 03F08073 		and	r3, r3, #16777216
1645:Drivers/STM32L4xx_HAL_Driver/Src/stm32l4xx_hal_rcc_ex.c ****           {
 2738              		.loc 1 1645 57 discriminator 1
 2739 09b4 002B     		cmp	r3, #0
 2740 09b6 20D0     		beq	.L295
1647:Drivers/STM32L4xx_HAL_Driver/Src/stm32l4xx_hal_rcc_ex.c **** #if defined(RCC_PLLSAI1M_DIV_1_16_SUPPORT)
 2741              		.loc 1 1647 20
 2742 09b8 3E4B     		ldr	r3, .L322
 2743 09ba 1B69     		ldr	r3, [r3, #16]
1647:Drivers/STM32L4xx_HAL_Driver/Src/stm32l4xx_hal_rcc_ex.c **** #if defined(RCC_PLLSAI1M_DIV_1_16_SUPPORT)
 2744              		.loc 1 1647 73
 2745 09bc 1B0A     		lsrs	r3, r3, #8
1647:Drivers/STM32L4xx_HAL_Driver/Src/stm32l4xx_hal_rcc_ex.c **** #if defined(RCC_PLLSAI1M_DIV_1_16_SUPPORT)
 2746              		.loc 1 1647 18
 2747 09be 03F07F03 		and	r3, r3, #127
 2748 09c2 BB60     		str	r3, [r7, #8]
1651:Drivers/STM32L4xx_HAL_Driver/Src/stm32l4xx_hal_rcc_ex.c **** #else
 2749              		.loc 1 1651 31
 2750 09c4 BB69     		ldr	r3, [r7, #24]
 2751 09c6 BA68     		ldr	r2, [r7, #8]
 2752 09c8 03FB02F2 		mul	r2, r3, r2
1651:Drivers/STM32L4xx_HAL_Driver/Src/stm32l4xx_hal_rcc_ex.c **** #else
 2753              		.loc 1 1651 43
 2754 09cc 394B     		ldr	r3, .L322
 2755 09ce 1B69     		ldr	r3, [r3, #16]
1651:Drivers/STM32L4xx_HAL_Driver/Src/stm32l4xx_hal_rcc_ex.c **** #else
 2756              		.loc 1 1651 96
 2757 09d0 1B09     		lsrs	r3, r3, #4
 2758 09d2 03F00F03 		and	r3, r3, #15
1651:Drivers/STM32L4xx_HAL_Driver/Src/stm32l4xx_hal_rcc_ex.c **** #else
ARM GAS  C:\Users\Morroway\AppData\Local\Temp\ccOmimY8.s 			page 90


 2759              		.loc 1 1651 129
 2760 09d6 0133     		adds	r3, r3, #1
1651:Drivers/STM32L4xx_HAL_Driver/Src/stm32l4xx_hal_rcc_ex.c **** #else
 2761              		.loc 1 1651 20
 2762 09d8 B2FBF3F3 		udiv	r3, r2, r3
 2763 09dc BB61     		str	r3, [r7, #24]
1657:Drivers/STM32L4xx_HAL_Driver/Src/stm32l4xx_hal_rcc_ex.c ****           }
 2764              		.loc 1 1657 38
 2765 09de 354B     		ldr	r3, .L322
 2766 09e0 1B69     		ldr	r3, [r3, #16]
1657:Drivers/STM32L4xx_HAL_Driver/Src/stm32l4xx_hal_rcc_ex.c ****           }
 2767              		.loc 1 1657 91
 2768 09e2 5B0E     		lsrs	r3, r3, #25
 2769 09e4 03F00303 		and	r3, r3, #3
1657:Drivers/STM32L4xx_HAL_Driver/Src/stm32l4xx_hal_rcc_ex.c ****           }
 2770              		.loc 1 1657 124
 2771 09e8 0133     		adds	r3, r3, #1
1657:Drivers/STM32L4xx_HAL_Driver/Src/stm32l4xx_hal_rcc_ex.c ****           }
 2772              		.loc 1 1657 130
 2773 09ea 5B00     		lsls	r3, r3, #1
1657:Drivers/STM32L4xx_HAL_Driver/Src/stm32l4xx_hal_rcc_ex.c ****           }
 2774              		.loc 1 1657 23
 2775 09ec BA69     		ldr	r2, [r7, #24]
 2776 09ee B2FBF3F3 		udiv	r3, r2, r3
 2777 09f2 FB61     		str	r3, [r7, #28]
1659:Drivers/STM32L4xx_HAL_Driver/Src/stm32l4xx_hal_rcc_ex.c **** #endif /* RCC_PLLSAI1_SUPPORT */
 2778              		.loc 1 1659 11
 2779 09f4 01E0     		b	.L295
 2780              	.L294:
1681:Drivers/STM32L4xx_HAL_Driver/Src/stm32l4xx_hal_rcc_ex.c ****         }
 2781              		.loc 1 1681 11
 2782 09f6 00BF     		nop
 2783 09f8 E5E1     		b	.L87
 2784              	.L295:
1659:Drivers/STM32L4xx_HAL_Driver/Src/stm32l4xx_hal_rcc_ex.c **** #endif /* RCC_PLLSAI1_SUPPORT */
 2785              		.loc 1 1659 11
 2786 09fa 00BF     		nop
 2787              	.L202:
1684:Drivers/STM32L4xx_HAL_Driver/Src/stm32l4xx_hal_rcc_ex.c ****       }
 2788              		.loc 1 1684 9 discriminator 25
 2789 09fc E3E1     		b	.L87
 2790              	.L106:
1692:Drivers/STM32L4xx_HAL_Driver/Src/stm32l4xx_hal_rcc_ex.c **** 
 2791              		.loc 1 1692 18
 2792 09fe 2D4B     		ldr	r3, .L322
 2793 0a00 D3F89C30 		ldr	r3, [r3, #156]
1692:Drivers/STM32L4xx_HAL_Driver/Src/stm32l4xx_hal_rcc_ex.c **** 
 2794              		.loc 1 1692 16
 2795 0a04 03F00403 		and	r3, r3, #4
 2796 0a08 FB60     		str	r3, [r7, #12]
1694:Drivers/STM32L4xx_HAL_Driver/Src/stm32l4xx_hal_rcc_ex.c ****         {
 2797              		.loc 1 1694 11
 2798 0a0a FB68     		ldr	r3, [r7, #12]
 2799 0a0c 002B     		cmp	r3, #0
 2800 0a0e 03D1     		bne	.L204
1696:Drivers/STM32L4xx_HAL_Driver/Src/stm32l4xx_hal_rcc_ex.c ****         }
 2801              		.loc 1 1696 23
ARM GAS  C:\Users\Morroway\AppData\Local\Temp\ccOmimY8.s 			page 91


 2802 0a10 FFF7FEFF 		bl	HAL_RCC_GetPCLK2Freq
 2803 0a14 F861     		str	r0, [r7, #28]
1703:Drivers/STM32L4xx_HAL_Driver/Src/stm32l4xx_hal_rcc_ex.c ****       }
 2804              		.loc 1 1703 9
 2805 0a16 D6E1     		b	.L87
 2806              	.L204:
1700:Drivers/STM32L4xx_HAL_Driver/Src/stm32l4xx_hal_rcc_ex.c ****         }
 2807              		.loc 1 1700 23
 2808 0a18 FFF7FEFF 		bl	HAL_RCC_GetSysClockFreq
 2809 0a1c F861     		str	r0, [r7, #28]
1703:Drivers/STM32L4xx_HAL_Driver/Src/stm32l4xx_hal_rcc_ex.c ****       }
 2810              		.loc 1 1703 9
 2811 0a1e D2E1     		b	.L87
 2812              	.L122:
1746:Drivers/STM32L4xx_HAL_Driver/Src/stm32l4xx_hal_rcc_ex.c **** 
 2813              		.loc 1 1746 18
 2814 0a20 244B     		ldr	r3, .L322
 2815 0a22 D3F88830 		ldr	r3, [r3, #136]
1746:Drivers/STM32L4xx_HAL_Driver/Src/stm32l4xx_hal_rcc_ex.c **** 
 2816              		.loc 1 1746 16
 2817 0a26 03F44053 		and	r3, r3, #12288
 2818 0a2a FB60     		str	r3, [r7, #12]
 2819 0a2c FB68     		ldr	r3, [r7, #12]
 2820 0a2e B3F5005F 		cmp	r3, #8192
 2821 0a32 13D0     		beq	.L206
 2822 0a34 FB68     		ldr	r3, [r7, #12]
 2823 0a36 B3F5005F 		cmp	r3, #8192
 2824 0a3a 19D8     		bhi	.L296
 2825 0a3c FB68     		ldr	r3, [r7, #12]
 2826 0a3e 002B     		cmp	r3, #0
 2827 0a40 04D0     		beq	.L208
 2828 0a42 FB68     		ldr	r3, [r7, #12]
 2829 0a44 B3F5805F 		cmp	r3, #4096
 2830 0a48 04D0     		beq	.L209
1764:Drivers/STM32L4xx_HAL_Driver/Src/stm32l4xx_hal_rcc_ex.c ****         }
 2831              		.loc 1 1764 11
 2832 0a4a 11E0     		b	.L296
 2833              	.L208:
1751:Drivers/STM32L4xx_HAL_Driver/Src/stm32l4xx_hal_rcc_ex.c ****           break;
 2834              		.loc 1 1751 23
 2835 0a4c FFF7FEFF 		bl	HAL_RCC_GetPCLK1Freq
 2836 0a50 F861     		str	r0, [r7, #28]
1752:Drivers/STM32L4xx_HAL_Driver/Src/stm32l4xx_hal_rcc_ex.c ****         case RCC_I2C1CLKSOURCE_SYSCLK:
 2837              		.loc 1 1752 11
 2838 0a52 10E0     		b	.L210
 2839              	.L209:
1754:Drivers/STM32L4xx_HAL_Driver/Src/stm32l4xx_hal_rcc_ex.c ****           break;
 2840              		.loc 1 1754 23
 2841 0a54 FFF7FEFF 		bl	HAL_RCC_GetSysClockFreq
 2842 0a58 F861     		str	r0, [r7, #28]
1755:Drivers/STM32L4xx_HAL_Driver/Src/stm32l4xx_hal_rcc_ex.c ****         case RCC_I2C1CLKSOURCE_HSI:
 2843              		.loc 1 1755 11
 2844 0a5a 0CE0     		b	.L210
 2845              	.L206:
1757:Drivers/STM32L4xx_HAL_Driver/Src/stm32l4xx_hal_rcc_ex.c ****           {
 2846              		.loc 1 1757 14
 2847 0a5c 154B     		ldr	r3, .L322
ARM GAS  C:\Users\Morroway\AppData\Local\Temp\ccOmimY8.s 			page 92


 2848 0a5e 1B68     		ldr	r3, [r3]
 2849 0a60 03F48063 		and	r3, r3, #1024
1757:Drivers/STM32L4xx_HAL_Driver/Src/stm32l4xx_hal_rcc_ex.c ****           {
 2850              		.loc 1 1757 13
 2851 0a64 B3F5806F 		cmp	r3, #1024
 2852 0a68 04D1     		bne	.L297
1759:Drivers/STM32L4xx_HAL_Driver/Src/stm32l4xx_hal_rcc_ex.c ****           }
 2853              		.loc 1 1759 23
 2854 0a6a 134B     		ldr	r3, .L322+4
 2855 0a6c FB61     		str	r3, [r7, #28]
1761:Drivers/STM32L4xx_HAL_Driver/Src/stm32l4xx_hal_rcc_ex.c ****         default:
 2856              		.loc 1 1761 11
 2857 0a6e 01E0     		b	.L297
 2858              	.L296:
1764:Drivers/STM32L4xx_HAL_Driver/Src/stm32l4xx_hal_rcc_ex.c ****         }
 2859              		.loc 1 1764 11
 2860 0a70 00BF     		nop
 2861 0a72 A8E1     		b	.L87
 2862              	.L297:
1761:Drivers/STM32L4xx_HAL_Driver/Src/stm32l4xx_hal_rcc_ex.c ****         default:
 2863              		.loc 1 1761 11
 2864 0a74 00BF     		nop
 2865              	.L210:
1767:Drivers/STM32L4xx_HAL_Driver/Src/stm32l4xx_hal_rcc_ex.c ****       }
 2866              		.loc 1 1767 9 discriminator 26
 2867 0a76 A6E1     		b	.L87
 2868              	.L113:
1775:Drivers/STM32L4xx_HAL_Driver/Src/stm32l4xx_hal_rcc_ex.c **** 
 2869              		.loc 1 1775 18
 2870 0a78 0E4B     		ldr	r3, .L322
 2871 0a7a D3F88830 		ldr	r3, [r3, #136]
1775:Drivers/STM32L4xx_HAL_Driver/Src/stm32l4xx_hal_rcc_ex.c **** 
 2872              		.loc 1 1775 16
 2873 0a7e 03F44043 		and	r3, r3, #49152
 2874 0a82 FB60     		str	r3, [r7, #12]
 2875 0a84 FB68     		ldr	r3, [r7, #12]
 2876 0a86 B3F5004F 		cmp	r3, #32768
 2877 0a8a 17D0     		beq	.L212
 2878 0a8c FB68     		ldr	r3, [r7, #12]
 2879 0a8e B3F5004F 		cmp	r3, #32768
 2880 0a92 1DD8     		bhi	.L298
 2881 0a94 FB68     		ldr	r3, [r7, #12]
 2882 0a96 002B     		cmp	r3, #0
 2883 0a98 04D0     		beq	.L214
 2884 0a9a FB68     		ldr	r3, [r7, #12]
 2885 0a9c B3F5804F 		cmp	r3, #16384
 2886 0aa0 04D0     		beq	.L215
1793:Drivers/STM32L4xx_HAL_Driver/Src/stm32l4xx_hal_rcc_ex.c ****         }
 2887              		.loc 1 1793 11
 2888 0aa2 15E0     		b	.L298
 2889              	.L214:
1780:Drivers/STM32L4xx_HAL_Driver/Src/stm32l4xx_hal_rcc_ex.c ****           break;
 2890              		.loc 1 1780 23
 2891 0aa4 FFF7FEFF 		bl	HAL_RCC_GetPCLK1Freq
 2892 0aa8 F861     		str	r0, [r7, #28]
1781:Drivers/STM32L4xx_HAL_Driver/Src/stm32l4xx_hal_rcc_ex.c ****         case RCC_I2C2CLKSOURCE_SYSCLK:
 2893              		.loc 1 1781 11
ARM GAS  C:\Users\Morroway\AppData\Local\Temp\ccOmimY8.s 			page 93


 2894 0aaa 14E0     		b	.L216
 2895              	.L215:
1783:Drivers/STM32L4xx_HAL_Driver/Src/stm32l4xx_hal_rcc_ex.c ****           break;
 2896              		.loc 1 1783 23
 2897 0aac FFF7FEFF 		bl	HAL_RCC_GetSysClockFreq
 2898 0ab0 F861     		str	r0, [r7, #28]
1784:Drivers/STM32L4xx_HAL_Driver/Src/stm32l4xx_hal_rcc_ex.c ****         case RCC_I2C2CLKSOURCE_HSI:
 2899              		.loc 1 1784 11
 2900 0ab2 10E0     		b	.L216
 2901              	.L323:
 2902              		.align	2
 2903              	.L322:
 2904 0ab4 00100240 		.word	1073876992
 2905 0ab8 0024F400 		.word	16000000
 2906              	.L212:
1786:Drivers/STM32L4xx_HAL_Driver/Src/stm32l4xx_hal_rcc_ex.c ****           {
 2907              		.loc 1 1786 14
 2908 0abc 9B4B     		ldr	r3, .L324
 2909 0abe 1B68     		ldr	r3, [r3]
 2910 0ac0 03F48063 		and	r3, r3, #1024
1786:Drivers/STM32L4xx_HAL_Driver/Src/stm32l4xx_hal_rcc_ex.c ****           {
 2911              		.loc 1 1786 13
 2912 0ac4 B3F5806F 		cmp	r3, #1024
 2913 0ac8 04D1     		bne	.L299
1788:Drivers/STM32L4xx_HAL_Driver/Src/stm32l4xx_hal_rcc_ex.c ****           }
 2914              		.loc 1 1788 23
 2915 0aca 994B     		ldr	r3, .L324+4
 2916 0acc FB61     		str	r3, [r7, #28]
1790:Drivers/STM32L4xx_HAL_Driver/Src/stm32l4xx_hal_rcc_ex.c ****         default:
 2917              		.loc 1 1790 11
 2918 0ace 01E0     		b	.L299
 2919              	.L298:
1793:Drivers/STM32L4xx_HAL_Driver/Src/stm32l4xx_hal_rcc_ex.c ****         }
 2920              		.loc 1 1793 11
 2921 0ad0 00BF     		nop
 2922 0ad2 78E1     		b	.L87
 2923              	.L299:
1790:Drivers/STM32L4xx_HAL_Driver/Src/stm32l4xx_hal_rcc_ex.c ****         default:
 2924              		.loc 1 1790 11
 2925 0ad4 00BF     		nop
 2926              	.L216:
1796:Drivers/STM32L4xx_HAL_Driver/Src/stm32l4xx_hal_rcc_ex.c ****       }
 2927              		.loc 1 1796 9 discriminator 27
 2928 0ad6 76E1     		b	.L87
 2929              	.L112:
1804:Drivers/STM32L4xx_HAL_Driver/Src/stm32l4xx_hal_rcc_ex.c **** 
 2930              		.loc 1 1804 18
 2931 0ad8 944B     		ldr	r3, .L324
 2932 0ada D3F88830 		ldr	r3, [r3, #136]
1804:Drivers/STM32L4xx_HAL_Driver/Src/stm32l4xx_hal_rcc_ex.c **** 
 2933              		.loc 1 1804 16
 2934 0ade 03F44033 		and	r3, r3, #196608
 2935 0ae2 FB60     		str	r3, [r7, #12]
 2936 0ae4 FB68     		ldr	r3, [r7, #12]
 2937 0ae6 B3F5003F 		cmp	r3, #131072
 2938 0aea 13D0     		beq	.L218
 2939 0aec FB68     		ldr	r3, [r7, #12]
ARM GAS  C:\Users\Morroway\AppData\Local\Temp\ccOmimY8.s 			page 94


 2940 0aee B3F5003F 		cmp	r3, #131072
 2941 0af2 19D8     		bhi	.L300
 2942 0af4 FB68     		ldr	r3, [r7, #12]
 2943 0af6 002B     		cmp	r3, #0
 2944 0af8 04D0     		beq	.L220
 2945 0afa FB68     		ldr	r3, [r7, #12]
 2946 0afc B3F5803F 		cmp	r3, #65536
 2947 0b00 04D0     		beq	.L221
1822:Drivers/STM32L4xx_HAL_Driver/Src/stm32l4xx_hal_rcc_ex.c ****         }
 2948              		.loc 1 1822 11
 2949 0b02 11E0     		b	.L300
 2950              	.L220:
1809:Drivers/STM32L4xx_HAL_Driver/Src/stm32l4xx_hal_rcc_ex.c ****           break;
 2951              		.loc 1 1809 23
 2952 0b04 FFF7FEFF 		bl	HAL_RCC_GetPCLK1Freq
 2953 0b08 F861     		str	r0, [r7, #28]
1810:Drivers/STM32L4xx_HAL_Driver/Src/stm32l4xx_hal_rcc_ex.c ****         case RCC_I2C3CLKSOURCE_SYSCLK:
 2954              		.loc 1 1810 11
 2955 0b0a 10E0     		b	.L222
 2956              	.L221:
1812:Drivers/STM32L4xx_HAL_Driver/Src/stm32l4xx_hal_rcc_ex.c ****           break;
 2957              		.loc 1 1812 23
 2958 0b0c FFF7FEFF 		bl	HAL_RCC_GetSysClockFreq
 2959 0b10 F861     		str	r0, [r7, #28]
1813:Drivers/STM32L4xx_HAL_Driver/Src/stm32l4xx_hal_rcc_ex.c ****         case RCC_I2C3CLKSOURCE_HSI:
 2960              		.loc 1 1813 11
 2961 0b12 0CE0     		b	.L222
 2962              	.L218:
1815:Drivers/STM32L4xx_HAL_Driver/Src/stm32l4xx_hal_rcc_ex.c ****           {
 2963              		.loc 1 1815 14
 2964 0b14 854B     		ldr	r3, .L324
 2965 0b16 1B68     		ldr	r3, [r3]
 2966 0b18 03F48063 		and	r3, r3, #1024
1815:Drivers/STM32L4xx_HAL_Driver/Src/stm32l4xx_hal_rcc_ex.c ****           {
 2967              		.loc 1 1815 13
 2968 0b1c B3F5806F 		cmp	r3, #1024
 2969 0b20 04D1     		bne	.L301
1817:Drivers/STM32L4xx_HAL_Driver/Src/stm32l4xx_hal_rcc_ex.c ****           }
 2970              		.loc 1 1817 23
 2971 0b22 834B     		ldr	r3, .L324+4
 2972 0b24 FB61     		str	r3, [r7, #28]
1819:Drivers/STM32L4xx_HAL_Driver/Src/stm32l4xx_hal_rcc_ex.c ****         default:
 2973              		.loc 1 1819 11
 2974 0b26 01E0     		b	.L301
 2975              	.L300:
1822:Drivers/STM32L4xx_HAL_Driver/Src/stm32l4xx_hal_rcc_ex.c ****         }
 2976              		.loc 1 1822 11
 2977 0b28 00BF     		nop
 2978 0b2a 4CE1     		b	.L87
 2979              	.L301:
1819:Drivers/STM32L4xx_HAL_Driver/Src/stm32l4xx_hal_rcc_ex.c ****         default:
 2980              		.loc 1 1819 11
 2981 0b2c 00BF     		nop
 2982              	.L222:
1825:Drivers/STM32L4xx_HAL_Driver/Src/stm32l4xx_hal_rcc_ex.c ****       }
 2983              		.loc 1 1825 9 discriminator 28
 2984 0b2e 4AE1     		b	.L87
ARM GAS  C:\Users\Morroway\AppData\Local\Temp\ccOmimY8.s 			page 95


 2985              	.L103:
1833:Drivers/STM32L4xx_HAL_Driver/Src/stm32l4xx_hal_rcc_ex.c **** 
 2986              		.loc 1 1833 18
 2987 0b30 7E4B     		ldr	r3, .L324
 2988 0b32 D3F89C30 		ldr	r3, [r3, #156]
1833:Drivers/STM32L4xx_HAL_Driver/Src/stm32l4xx_hal_rcc_ex.c **** 
 2989              		.loc 1 1833 16
 2990 0b36 03F00303 		and	r3, r3, #3
 2991 0b3a FB60     		str	r3, [r7, #12]
 2992 0b3c FB68     		ldr	r3, [r7, #12]
 2993 0b3e 022B     		cmp	r3, #2
 2994 0b40 11D0     		beq	.L224
 2995 0b42 FB68     		ldr	r3, [r7, #12]
 2996 0b44 022B     		cmp	r3, #2
 2997 0b46 18D8     		bhi	.L302
 2998 0b48 FB68     		ldr	r3, [r7, #12]
 2999 0b4a 002B     		cmp	r3, #0
 3000 0b4c 03D0     		beq	.L226
 3001 0b4e FB68     		ldr	r3, [r7, #12]
 3002 0b50 012B     		cmp	r3, #1
 3003 0b52 04D0     		beq	.L227
1851:Drivers/STM32L4xx_HAL_Driver/Src/stm32l4xx_hal_rcc_ex.c ****         }
 3004              		.loc 1 1851 11
 3005 0b54 11E0     		b	.L302
 3006              	.L226:
1838:Drivers/STM32L4xx_HAL_Driver/Src/stm32l4xx_hal_rcc_ex.c ****           break;
 3007              		.loc 1 1838 23
 3008 0b56 FFF7FEFF 		bl	HAL_RCC_GetPCLK1Freq
 3009 0b5a F861     		str	r0, [r7, #28]
1839:Drivers/STM32L4xx_HAL_Driver/Src/stm32l4xx_hal_rcc_ex.c ****         case RCC_I2C4CLKSOURCE_SYSCLK:
 3010              		.loc 1 1839 11
 3011 0b5c 10E0     		b	.L228
 3012              	.L227:
1841:Drivers/STM32L4xx_HAL_Driver/Src/stm32l4xx_hal_rcc_ex.c ****           break;
 3013              		.loc 1 1841 23
 3014 0b5e FFF7FEFF 		bl	HAL_RCC_GetSysClockFreq
 3015 0b62 F861     		str	r0, [r7, #28]
1842:Drivers/STM32L4xx_HAL_Driver/Src/stm32l4xx_hal_rcc_ex.c ****         case RCC_I2C4CLKSOURCE_HSI:
 3016              		.loc 1 1842 11
 3017 0b64 0CE0     		b	.L228
 3018              	.L224:
1844:Drivers/STM32L4xx_HAL_Driver/Src/stm32l4xx_hal_rcc_ex.c ****           {
 3019              		.loc 1 1844 14
 3020 0b66 714B     		ldr	r3, .L324
 3021 0b68 1B68     		ldr	r3, [r3]
 3022 0b6a 03F48063 		and	r3, r3, #1024
1844:Drivers/STM32L4xx_HAL_Driver/Src/stm32l4xx_hal_rcc_ex.c ****           {
 3023              		.loc 1 1844 13
 3024 0b6e B3F5806F 		cmp	r3, #1024
 3025 0b72 04D1     		bne	.L303
1846:Drivers/STM32L4xx_HAL_Driver/Src/stm32l4xx_hal_rcc_ex.c ****           }
 3026              		.loc 1 1846 23
 3027 0b74 6E4B     		ldr	r3, .L324+4
 3028 0b76 FB61     		str	r3, [r7, #28]
1848:Drivers/STM32L4xx_HAL_Driver/Src/stm32l4xx_hal_rcc_ex.c ****         default:
 3029              		.loc 1 1848 11
 3030 0b78 01E0     		b	.L303
ARM GAS  C:\Users\Morroway\AppData\Local\Temp\ccOmimY8.s 			page 96


 3031              	.L302:
1851:Drivers/STM32L4xx_HAL_Driver/Src/stm32l4xx_hal_rcc_ex.c ****         }
 3032              		.loc 1 1851 11
 3033 0b7a 00BF     		nop
 3034 0b7c 23E1     		b	.L87
 3035              	.L303:
1848:Drivers/STM32L4xx_HAL_Driver/Src/stm32l4xx_hal_rcc_ex.c ****         default:
 3036              		.loc 1 1848 11
 3037 0b7e 00BF     		nop
 3038              	.L228:
1854:Drivers/STM32L4xx_HAL_Driver/Src/stm32l4xx_hal_rcc_ex.c ****       }
 3039              		.loc 1 1854 9 discriminator 29
 3040 0b80 21E1     		b	.L87
 3041              	.L111:
1862:Drivers/STM32L4xx_HAL_Driver/Src/stm32l4xx_hal_rcc_ex.c **** 
 3042              		.loc 1 1862 18
 3043 0b82 6A4B     		ldr	r3, .L324
 3044 0b84 D3F88830 		ldr	r3, [r3, #136]
1862:Drivers/STM32L4xx_HAL_Driver/Src/stm32l4xx_hal_rcc_ex.c **** 
 3045              		.loc 1 1862 16
 3046 0b88 03F44023 		and	r3, r3, #786432
 3047 0b8c FB60     		str	r3, [r7, #12]
 3048 0b8e FB68     		ldr	r3, [r7, #12]
 3049 0b90 B3F5402F 		cmp	r3, #786432
 3050 0b94 36D0     		beq	.L230
 3051 0b96 FB68     		ldr	r3, [r7, #12]
 3052 0b98 B3F5402F 		cmp	r3, #786432
 3053 0b9c 3DD8     		bhi	.L304
 3054 0b9e FB68     		ldr	r3, [r7, #12]
 3055 0ba0 B3F5002F 		cmp	r3, #524288
 3056 0ba4 24D0     		beq	.L232
 3057 0ba6 FB68     		ldr	r3, [r7, #12]
 3058 0ba8 B3F5002F 		cmp	r3, #524288
 3059 0bac 35D8     		bhi	.L304
 3060 0bae FB68     		ldr	r3, [r7, #12]
 3061 0bb0 002B     		cmp	r3, #0
 3062 0bb2 04D0     		beq	.L233
 3063 0bb4 FB68     		ldr	r3, [r7, #12]
 3064 0bb6 B3F5802F 		cmp	r3, #262144
 3065 0bba 04D0     		beq	.L234
1898:Drivers/STM32L4xx_HAL_Driver/Src/stm32l4xx_hal_rcc_ex.c ****         }
 3066              		.loc 1 1898 11
 3067 0bbc 2DE0     		b	.L304
 3068              	.L233:
1867:Drivers/STM32L4xx_HAL_Driver/Src/stm32l4xx_hal_rcc_ex.c ****           break;
 3069              		.loc 1 1867 23
 3070 0bbe FFF7FEFF 		bl	HAL_RCC_GetPCLK1Freq
 3071 0bc2 F861     		str	r0, [r7, #28]
1868:Drivers/STM32L4xx_HAL_Driver/Src/stm32l4xx_hal_rcc_ex.c ****         case RCC_LPTIM1CLKSOURCE_LSI:
 3072              		.loc 1 1868 11
 3073 0bc4 30E0     		b	.L235
 3074              	.L234:
1870:Drivers/STM32L4xx_HAL_Driver/Src/stm32l4xx_hal_rcc_ex.c ****           {
 3075              		.loc 1 1870 14
 3076 0bc6 594B     		ldr	r3, .L324
 3077 0bc8 D3F89430 		ldr	r3, [r3, #148]
 3078 0bcc 03F00203 		and	r3, r3, #2
ARM GAS  C:\Users\Morroway\AppData\Local\Temp\ccOmimY8.s 			page 97


1870:Drivers/STM32L4xx_HAL_Driver/Src/stm32l4xx_hal_rcc_ex.c ****           {
 3079              		.loc 1 1870 13
 3080 0bd0 022B     		cmp	r3, #2
 3081 0bd2 24D1     		bne	.L305
1873:Drivers/STM32L4xx_HAL_Driver/Src/stm32l4xx_hal_rcc_ex.c ****             {
 3082              		.loc 1 1873 16
 3083 0bd4 554B     		ldr	r3, .L324
 3084 0bd6 D3F89430 		ldr	r3, [r3, #148]
 3085 0bda 03F01003 		and	r3, r3, #16
1873:Drivers/STM32L4xx_HAL_Driver/Src/stm32l4xx_hal_rcc_ex.c ****             {
 3086              		.loc 1 1873 15
 3087 0bde 102B     		cmp	r3, #16
 3088 0be0 02D1     		bne	.L237
1875:Drivers/STM32L4xx_HAL_Driver/Src/stm32l4xx_hal_rcc_ex.c ****             }
 3089              		.loc 1 1875 25
 3090 0be2 FA23     		movs	r3, #250
 3091 0be4 FB61     		str	r3, [r7, #28]
1883:Drivers/STM32L4xx_HAL_Driver/Src/stm32l4xx_hal_rcc_ex.c ****         case RCC_LPTIM1CLKSOURCE_HSI:
 3092              		.loc 1 1883 11
 3093 0be6 1AE0     		b	.L305
 3094              	.L237:
1880:Drivers/STM32L4xx_HAL_Driver/Src/stm32l4xx_hal_rcc_ex.c ****             }
 3095              		.loc 1 1880 25
 3096 0be8 4FF4FA43 		mov	r3, #32000
 3097 0bec FB61     		str	r3, [r7, #28]
1883:Drivers/STM32L4xx_HAL_Driver/Src/stm32l4xx_hal_rcc_ex.c ****         case RCC_LPTIM1CLKSOURCE_HSI:
 3098              		.loc 1 1883 11
 3099 0bee 16E0     		b	.L305
 3100              	.L232:
1885:Drivers/STM32L4xx_HAL_Driver/Src/stm32l4xx_hal_rcc_ex.c ****           {
 3101              		.loc 1 1885 14
 3102 0bf0 4E4B     		ldr	r3, .L324
 3103 0bf2 1B68     		ldr	r3, [r3]
 3104 0bf4 03F48063 		and	r3, r3, #1024
1885:Drivers/STM32L4xx_HAL_Driver/Src/stm32l4xx_hal_rcc_ex.c ****           {
 3105              		.loc 1 1885 13
 3106 0bf8 B3F5806F 		cmp	r3, #1024
 3107 0bfc 11D1     		bne	.L306
1887:Drivers/STM32L4xx_HAL_Driver/Src/stm32l4xx_hal_rcc_ex.c ****           }
 3108              		.loc 1 1887 23
 3109 0bfe 4C4B     		ldr	r3, .L324+4
 3110 0c00 FB61     		str	r3, [r7, #28]
1889:Drivers/STM32L4xx_HAL_Driver/Src/stm32l4xx_hal_rcc_ex.c ****         case RCC_LPTIM1CLKSOURCE_LSE:
 3111              		.loc 1 1889 11
 3112 0c02 0EE0     		b	.L306
 3113              	.L230:
1891:Drivers/STM32L4xx_HAL_Driver/Src/stm32l4xx_hal_rcc_ex.c ****           {
 3114              		.loc 1 1891 14
 3115 0c04 494B     		ldr	r3, .L324
 3116 0c06 D3F89030 		ldr	r3, [r3, #144]
 3117 0c0a 03F00203 		and	r3, r3, #2
1891:Drivers/STM32L4xx_HAL_Driver/Src/stm32l4xx_hal_rcc_ex.c ****           {
 3118              		.loc 1 1891 13
 3119 0c0e 022B     		cmp	r3, #2
 3120 0c10 09D1     		bne	.L307
1893:Drivers/STM32L4xx_HAL_Driver/Src/stm32l4xx_hal_rcc_ex.c ****           }
 3121              		.loc 1 1893 23
ARM GAS  C:\Users\Morroway\AppData\Local\Temp\ccOmimY8.s 			page 98


 3122 0c12 4FF40043 		mov	r3, #32768
 3123 0c16 FB61     		str	r3, [r7, #28]
1895:Drivers/STM32L4xx_HAL_Driver/Src/stm32l4xx_hal_rcc_ex.c ****         default:
 3124              		.loc 1 1895 11
 3125 0c18 05E0     		b	.L307
 3126              	.L304:
1898:Drivers/STM32L4xx_HAL_Driver/Src/stm32l4xx_hal_rcc_ex.c ****         }
 3127              		.loc 1 1898 11
 3128 0c1a 00BF     		nop
 3129 0c1c D3E0     		b	.L87
 3130              	.L305:
1883:Drivers/STM32L4xx_HAL_Driver/Src/stm32l4xx_hal_rcc_ex.c ****         case RCC_LPTIM1CLKSOURCE_HSI:
 3131              		.loc 1 1883 11
 3132 0c1e 00BF     		nop
 3133 0c20 D1E0     		b	.L87
 3134              	.L306:
1889:Drivers/STM32L4xx_HAL_Driver/Src/stm32l4xx_hal_rcc_ex.c ****         case RCC_LPTIM1CLKSOURCE_LSE:
 3135              		.loc 1 1889 11
 3136 0c22 00BF     		nop
 3137 0c24 CFE0     		b	.L87
 3138              	.L307:
1895:Drivers/STM32L4xx_HAL_Driver/Src/stm32l4xx_hal_rcc_ex.c ****         default:
 3139              		.loc 1 1895 11
 3140 0c26 00BF     		nop
 3141              	.L235:
1901:Drivers/STM32L4xx_HAL_Driver/Src/stm32l4xx_hal_rcc_ex.c ****       }
 3142              		.loc 1 1901 9 discriminator 30
 3143 0c28 CDE0     		b	.L87
 3144              	.L110:
1907:Drivers/STM32L4xx_HAL_Driver/Src/stm32l4xx_hal_rcc_ex.c **** 
 3145              		.loc 1 1907 17
 3146 0c2a 404B     		ldr	r3, .L324
 3147 0c2c D3F88830 		ldr	r3, [r3, #136]
1907:Drivers/STM32L4xx_HAL_Driver/Src/stm32l4xx_hal_rcc_ex.c **** 
 3148              		.loc 1 1907 15
 3149 0c30 03F44013 		and	r3, r3, #3145728
 3150 0c34 FB60     		str	r3, [r7, #12]
 3151 0c36 FB68     		ldr	r3, [r7, #12]
 3152 0c38 B3F5401F 		cmp	r3, #3145728
 3153 0c3c 36D0     		beq	.L240
 3154 0c3e FB68     		ldr	r3, [r7, #12]
 3155 0c40 B3F5401F 		cmp	r3, #3145728
 3156 0c44 3DD8     		bhi	.L308
 3157 0c46 FB68     		ldr	r3, [r7, #12]
 3158 0c48 B3F5001F 		cmp	r3, #2097152
 3159 0c4c 24D0     		beq	.L242
 3160 0c4e FB68     		ldr	r3, [r7, #12]
 3161 0c50 B3F5001F 		cmp	r3, #2097152
 3162 0c54 35D8     		bhi	.L308
 3163 0c56 FB68     		ldr	r3, [r7, #12]
 3164 0c58 002B     		cmp	r3, #0
 3165 0c5a 04D0     		beq	.L243
 3166 0c5c FB68     		ldr	r3, [r7, #12]
 3167 0c5e B3F5801F 		cmp	r3, #1048576
 3168 0c62 04D0     		beq	.L244
1943:Drivers/STM32L4xx_HAL_Driver/Src/stm32l4xx_hal_rcc_ex.c ****         }
 3169              		.loc 1 1943 11
ARM GAS  C:\Users\Morroway\AppData\Local\Temp\ccOmimY8.s 			page 99


 3170 0c64 2DE0     		b	.L308
 3171              	.L243:
1912:Drivers/STM32L4xx_HAL_Driver/Src/stm32l4xx_hal_rcc_ex.c ****           break;
 3172              		.loc 1 1912 23
 3173 0c66 FFF7FEFF 		bl	HAL_RCC_GetPCLK1Freq
 3174 0c6a F861     		str	r0, [r7, #28]
1913:Drivers/STM32L4xx_HAL_Driver/Src/stm32l4xx_hal_rcc_ex.c ****         case RCC_LPTIM2CLKSOURCE_LSI:
 3175              		.loc 1 1913 11
 3176 0c6c 30E0     		b	.L245
 3177              	.L244:
1915:Drivers/STM32L4xx_HAL_Driver/Src/stm32l4xx_hal_rcc_ex.c ****           {
 3178              		.loc 1 1915 14
 3179 0c6e 2F4B     		ldr	r3, .L324
 3180 0c70 D3F89430 		ldr	r3, [r3, #148]
 3181 0c74 03F00203 		and	r3, r3, #2
1915:Drivers/STM32L4xx_HAL_Driver/Src/stm32l4xx_hal_rcc_ex.c ****           {
 3182              		.loc 1 1915 13
 3183 0c78 022B     		cmp	r3, #2
 3184 0c7a 24D1     		bne	.L309
1918:Drivers/STM32L4xx_HAL_Driver/Src/stm32l4xx_hal_rcc_ex.c ****             {
 3185              		.loc 1 1918 16
 3186 0c7c 2B4B     		ldr	r3, .L324
 3187 0c7e D3F89430 		ldr	r3, [r3, #148]
 3188 0c82 03F01003 		and	r3, r3, #16
1918:Drivers/STM32L4xx_HAL_Driver/Src/stm32l4xx_hal_rcc_ex.c ****             {
 3189              		.loc 1 1918 15
 3190 0c86 102B     		cmp	r3, #16
 3191 0c88 02D1     		bne	.L247
1920:Drivers/STM32L4xx_HAL_Driver/Src/stm32l4xx_hal_rcc_ex.c ****             }
 3192              		.loc 1 1920 25
 3193 0c8a FA23     		movs	r3, #250
 3194 0c8c FB61     		str	r3, [r7, #28]
1928:Drivers/STM32L4xx_HAL_Driver/Src/stm32l4xx_hal_rcc_ex.c ****         case RCC_LPTIM2CLKSOURCE_HSI:
 3195              		.loc 1 1928 11
 3196 0c8e 1AE0     		b	.L309
 3197              	.L247:
1925:Drivers/STM32L4xx_HAL_Driver/Src/stm32l4xx_hal_rcc_ex.c ****             }
 3198              		.loc 1 1925 25
 3199 0c90 4FF4FA43 		mov	r3, #32000
 3200 0c94 FB61     		str	r3, [r7, #28]
1928:Drivers/STM32L4xx_HAL_Driver/Src/stm32l4xx_hal_rcc_ex.c ****         case RCC_LPTIM2CLKSOURCE_HSI:
 3201              		.loc 1 1928 11
 3202 0c96 16E0     		b	.L309
 3203              	.L242:
1930:Drivers/STM32L4xx_HAL_Driver/Src/stm32l4xx_hal_rcc_ex.c ****           {
 3204              		.loc 1 1930 14
 3205 0c98 244B     		ldr	r3, .L324
 3206 0c9a 1B68     		ldr	r3, [r3]
 3207 0c9c 03F48063 		and	r3, r3, #1024
1930:Drivers/STM32L4xx_HAL_Driver/Src/stm32l4xx_hal_rcc_ex.c ****           {
 3208              		.loc 1 1930 13
 3209 0ca0 B3F5806F 		cmp	r3, #1024
 3210 0ca4 11D1     		bne	.L310
1932:Drivers/STM32L4xx_HAL_Driver/Src/stm32l4xx_hal_rcc_ex.c ****           }
 3211              		.loc 1 1932 23
 3212 0ca6 224B     		ldr	r3, .L324+4
 3213 0ca8 FB61     		str	r3, [r7, #28]
ARM GAS  C:\Users\Morroway\AppData\Local\Temp\ccOmimY8.s 			page 100


1934:Drivers/STM32L4xx_HAL_Driver/Src/stm32l4xx_hal_rcc_ex.c ****         case RCC_LPTIM2CLKSOURCE_LSE:
 3214              		.loc 1 1934 11
 3215 0caa 0EE0     		b	.L310
 3216              	.L240:
1936:Drivers/STM32L4xx_HAL_Driver/Src/stm32l4xx_hal_rcc_ex.c ****           {
 3217              		.loc 1 1936 14
 3218 0cac 1F4B     		ldr	r3, .L324
 3219 0cae D3F89030 		ldr	r3, [r3, #144]
 3220 0cb2 03F00203 		and	r3, r3, #2
1936:Drivers/STM32L4xx_HAL_Driver/Src/stm32l4xx_hal_rcc_ex.c ****           {
 3221              		.loc 1 1936 13
 3222 0cb6 022B     		cmp	r3, #2
 3223 0cb8 09D1     		bne	.L311
1938:Drivers/STM32L4xx_HAL_Driver/Src/stm32l4xx_hal_rcc_ex.c ****           }
 3224              		.loc 1 1938 23
 3225 0cba 4FF40043 		mov	r3, #32768
 3226 0cbe FB61     		str	r3, [r7, #28]
1940:Drivers/STM32L4xx_HAL_Driver/Src/stm32l4xx_hal_rcc_ex.c ****         default:
 3227              		.loc 1 1940 11
 3228 0cc0 05E0     		b	.L311
 3229              	.L308:
1943:Drivers/STM32L4xx_HAL_Driver/Src/stm32l4xx_hal_rcc_ex.c ****         }
 3230              		.loc 1 1943 11
 3231 0cc2 00BF     		nop
 3232 0cc4 7FE0     		b	.L87
 3233              	.L309:
1928:Drivers/STM32L4xx_HAL_Driver/Src/stm32l4xx_hal_rcc_ex.c ****         case RCC_LPTIM2CLKSOURCE_HSI:
 3234              		.loc 1 1928 11
 3235 0cc6 00BF     		nop
 3236 0cc8 7DE0     		b	.L87
 3237              	.L310:
1934:Drivers/STM32L4xx_HAL_Driver/Src/stm32l4xx_hal_rcc_ex.c ****         case RCC_LPTIM2CLKSOURCE_LSE:
 3238              		.loc 1 1934 11
 3239 0cca 00BF     		nop
 3240 0ccc 7BE0     		b	.L87
 3241              	.L311:
1940:Drivers/STM32L4xx_HAL_Driver/Src/stm32l4xx_hal_rcc_ex.c ****         default:
 3242              		.loc 1 1940 11
 3243 0cce 00BF     		nop
 3244              	.L245:
1946:Drivers/STM32L4xx_HAL_Driver/Src/stm32l4xx_hal_rcc_ex.c ****       }
 3245              		.loc 1 1946 9 discriminator 33
 3246 0cd0 79E0     		b	.L87
 3247              	.L101:
1982:Drivers/STM32L4xx_HAL_Driver/Src/stm32l4xx_hal_rcc_ex.c **** 
 3248              		.loc 1 1982 18
 3249 0cd2 164B     		ldr	r3, .L324
 3250 0cd4 D3F89C30 		ldr	r3, [r3, #156]
1982:Drivers/STM32L4xx_HAL_Driver/Src/stm32l4xx_hal_rcc_ex.c **** 
 3251              		.loc 1 1982 16
 3252 0cd8 03F44013 		and	r3, r3, #3145728
 3253 0cdc FB60     		str	r3, [r7, #12]
 3254 0cde FB68     		ldr	r3, [r7, #12]
 3255 0ce0 B3F5001F 		cmp	r3, #2097152
 3256 0ce4 31D0     		beq	.L250
 3257 0ce6 FB68     		ldr	r3, [r7, #12]
 3258 0ce8 B3F5001F 		cmp	r3, #2097152
ARM GAS  C:\Users\Morroway\AppData\Local\Temp\ccOmimY8.s 			page 101


 3259 0cec 5AD8     		bhi	.L312
 3260 0cee FB68     		ldr	r3, [r7, #12]
 3261 0cf0 002B     		cmp	r3, #0
 3262 0cf2 04D0     		beq	.L252
 3263 0cf4 FB68     		ldr	r3, [r7, #12]
 3264 0cf6 B3F5801F 		cmp	r3, #1048576
 3265 0cfa 04D0     		beq	.L253
2011:Drivers/STM32L4xx_HAL_Driver/Src/stm32l4xx_hal_rcc_ex.c ****         }
 3266              		.loc 1 2011 11
 3267 0cfc 52E0     		b	.L312
 3268              	.L252:
1987:Drivers/STM32L4xx_HAL_Driver/Src/stm32l4xx_hal_rcc_ex.c ****           break;
 3269              		.loc 1 1987 23
 3270 0cfe FFF7FEFF 		bl	HAL_RCC_GetSysClockFreq
 3271 0d02 F861     		str	r0, [r7, #28]
1988:Drivers/STM32L4xx_HAL_Driver/Src/stm32l4xx_hal_rcc_ex.c ****         case RCC_OSPICLKSOURCE_MSI:
 3272              		.loc 1 1988 11
 3273 0d04 53E0     		b	.L254
 3274              	.L253:
1990:Drivers/STM32L4xx_HAL_Driver/Src/stm32l4xx_hal_rcc_ex.c ****           {
 3275              		.loc 1 1990 14
 3276 0d06 094B     		ldr	r3, .L324
 3277 0d08 1B68     		ldr	r3, [r3]
 3278 0d0a 03F00203 		and	r3, r3, #2
1990:Drivers/STM32L4xx_HAL_Driver/Src/stm32l4xx_hal_rcc_ex.c ****           {
 3279              		.loc 1 1990 13
 3280 0d0e 022B     		cmp	r3, #2
 3281 0d10 4AD1     		bne	.L313
1993:Drivers/STM32L4xx_HAL_Driver/Src/stm32l4xx_hal_rcc_ex.c ****           }
 3282              		.loc 1 1993 40
 3283 0d12 064B     		ldr	r3, .L324
 3284 0d14 1B68     		ldr	r3, [r3]
 3285 0d16 03F00803 		and	r3, r3, #8
1993:Drivers/STM32L4xx_HAL_Driver/Src/stm32l4xx_hal_rcc_ex.c ****           }
 3286              		.loc 1 1993 66
 3287 0d1a 002B     		cmp	r3, #0
 3288 0d1c 0AD0     		beq	.L256
1993:Drivers/STM32L4xx_HAL_Driver/Src/stm32l4xx_hal_rcc_ex.c ****           }
 3289              		.loc 1 1993 40 discriminator 1
 3290 0d1e 034B     		ldr	r3, .L324
 3291 0d20 1B68     		ldr	r3, [r3]
1993:Drivers/STM32L4xx_HAL_Driver/Src/stm32l4xx_hal_rcc_ex.c ****           }
 3292              		.loc 1 1993 66 discriminator 1
 3293 0d22 1B09     		lsrs	r3, r3, #4
 3294 0d24 03F00F03 		and	r3, r3, #15
 3295 0d28 0AE0     		b	.L257
 3296              	.L325:
 3297 0d2a 00BF     		.align	2
 3298              	.L324:
 3299 0d2c 00100240 		.word	1073876992
 3300 0d30 0024F400 		.word	16000000
 3301              	.L256:
1993:Drivers/STM32L4xx_HAL_Driver/Src/stm32l4xx_hal_rcc_ex.c ****           }
 3302              		.loc 1 1993 40 discriminator 2
 3303 0d34 264B     		ldr	r3, .L326
 3304 0d36 D3F89430 		ldr	r3, [r3, #148]
1993:Drivers/STM32L4xx_HAL_Driver/Src/stm32l4xx_hal_rcc_ex.c ****           }
ARM GAS  C:\Users\Morroway\AppData\Local\Temp\ccOmimY8.s 			page 102


 3305              		.loc 1 1993 66 discriminator 2
 3306 0d3a 1B0A     		lsrs	r3, r3, #8
 3307 0d3c 03F00F03 		and	r3, r3, #15
 3308              	.L257:
1993:Drivers/STM32L4xx_HAL_Driver/Src/stm32l4xx_hal_rcc_ex.c ****           }
 3309              		.loc 1 1993 23 discriminator 4
 3310 0d40 244A     		ldr	r2, .L326+4
 3311 0d42 52F82330 		ldr	r3, [r2, r3, lsl #2]
 3312 0d46 FB61     		str	r3, [r7, #28]
1995:Drivers/STM32L4xx_HAL_Driver/Src/stm32l4xx_hal_rcc_ex.c ****         case RCC_OSPICLKSOURCE_PLL:
 3313              		.loc 1 1995 11 discriminator 4
 3314 0d48 2EE0     		b	.L313
 3315              	.L250:
1997:Drivers/STM32L4xx_HAL_Driver/Src/stm32l4xx_hal_rcc_ex.c ****           {
 3316              		.loc 1 1997 14
 3317 0d4a 214B     		ldr	r3, .L326
 3318 0d4c 1B68     		ldr	r3, [r3]
 3319 0d4e 03F00073 		and	r3, r3, #33554432
1997:Drivers/STM32L4xx_HAL_Driver/Src/stm32l4xx_hal_rcc_ex.c ****           {
 3320              		.loc 1 1997 13
 3321 0d52 B3F1007F 		cmp	r3, #33554432
 3322 0d56 29D1     		bne	.L314
1999:Drivers/STM32L4xx_HAL_Driver/Src/stm32l4xx_hal_rcc_ex.c ****             {
 3323              		.loc 1 1999 16
 3324 0d58 1D4B     		ldr	r3, .L326
 3325 0d5a DB68     		ldr	r3, [r3, #12]
 3326 0d5c 03F48013 		and	r3, r3, #1048576
1999:Drivers/STM32L4xx_HAL_Driver/Src/stm32l4xx_hal_rcc_ex.c ****             {
 3327              		.loc 1 1999 15
 3328 0d60 B3F5801F 		cmp	r3, #1048576
 3329 0d64 22D1     		bne	.L314
2002:Drivers/STM32L4xx_HAL_Driver/Src/stm32l4xx_hal_rcc_ex.c ****               pllvco = ((pllvco * plln) / ((READ_BIT(RCC->PLLCFGR, RCC_PLLCFGR_PLLM) >> RCC_PLLCFGR
 3330              		.loc 1 2002 22
 3331 0d66 1A4B     		ldr	r3, .L326
 3332 0d68 DB68     		ldr	r3, [r3, #12]
2002:Drivers/STM32L4xx_HAL_Driver/Src/stm32l4xx_hal_rcc_ex.c ****               pllvco = ((pllvco * plln) / ((READ_BIT(RCC->PLLCFGR, RCC_PLLCFGR_PLLM) >> RCC_PLLCFGR
 3333              		.loc 1 2002 63
 3334 0d6a 1B0A     		lsrs	r3, r3, #8
2002:Drivers/STM32L4xx_HAL_Driver/Src/stm32l4xx_hal_rcc_ex.c ****               pllvco = ((pllvco * plln) / ((READ_BIT(RCC->PLLCFGR, RCC_PLLCFGR_PLLM) >> RCC_PLLCFGR
 3335              		.loc 1 2002 20
 3336 0d6c 03F07F03 		and	r3, r3, #127
 3337 0d70 BB60     		str	r3, [r7, #8]
2003:Drivers/STM32L4xx_HAL_Driver/Src/stm32l4xx_hal_rcc_ex.c ****               /* f(PLL48M1CLK) = f(VCO input) / PLLQ */
 3338              		.loc 1 2003 33
 3339 0d72 BB69     		ldr	r3, [r7, #24]
 3340 0d74 BA68     		ldr	r2, [r7, #8]
 3341 0d76 03FB02F2 		mul	r2, r3, r2
2003:Drivers/STM32L4xx_HAL_Driver/Src/stm32l4xx_hal_rcc_ex.c ****               /* f(PLL48M1CLK) = f(VCO input) / PLLQ */
 3342              		.loc 1 2003 45
 3343 0d7a 154B     		ldr	r3, .L326
 3344 0d7c DB68     		ldr	r3, [r3, #12]
2003:Drivers/STM32L4xx_HAL_Driver/Src/stm32l4xx_hal_rcc_ex.c ****               /* f(PLL48M1CLK) = f(VCO input) / PLLQ */
 3345              		.loc 1 2003 86
 3346 0d7e 1B09     		lsrs	r3, r3, #4
 3347 0d80 03F00F03 		and	r3, r3, #15
2003:Drivers/STM32L4xx_HAL_Driver/Src/stm32l4xx_hal_rcc_ex.c ****               /* f(PLL48M1CLK) = f(VCO input) / PLLQ */
 3348              		.loc 1 2003 111
ARM GAS  C:\Users\Morroway\AppData\Local\Temp\ccOmimY8.s 			page 103


 3349 0d84 0133     		adds	r3, r3, #1
2003:Drivers/STM32L4xx_HAL_Driver/Src/stm32l4xx_hal_rcc_ex.c ****               /* f(PLL48M1CLK) = f(VCO input) / PLLQ */
 3350              		.loc 1 2003 22
 3351 0d86 B2FBF3F3 		udiv	r3, r2, r3
 3352 0d8a BB61     		str	r3, [r7, #24]
2005:Drivers/STM32L4xx_HAL_Driver/Src/stm32l4xx_hal_rcc_ex.c ****             }
 3353              		.loc 1 2005 40
 3354 0d8c 104B     		ldr	r3, .L326
 3355 0d8e DB68     		ldr	r3, [r3, #12]
2005:Drivers/STM32L4xx_HAL_Driver/Src/stm32l4xx_hal_rcc_ex.c ****             }
 3356              		.loc 1 2005 81
 3357 0d90 5B0D     		lsrs	r3, r3, #21
 3358 0d92 03F00303 		and	r3, r3, #3
2005:Drivers/STM32L4xx_HAL_Driver/Src/stm32l4xx_hal_rcc_ex.c ****             }
 3359              		.loc 1 2005 106
 3360 0d96 0133     		adds	r3, r3, #1
2005:Drivers/STM32L4xx_HAL_Driver/Src/stm32l4xx_hal_rcc_ex.c ****             }
 3361              		.loc 1 2005 112
 3362 0d98 5B00     		lsls	r3, r3, #1
2005:Drivers/STM32L4xx_HAL_Driver/Src/stm32l4xx_hal_rcc_ex.c ****             }
 3363              		.loc 1 2005 25
 3364 0d9a BA69     		ldr	r2, [r7, #24]
 3365 0d9c B2FBF3F3 		udiv	r3, r2, r3
 3366 0da0 FB61     		str	r3, [r7, #28]
2008:Drivers/STM32L4xx_HAL_Driver/Src/stm32l4xx_hal_rcc_ex.c ****         default:
 3367              		.loc 1 2008 11
 3368 0da2 03E0     		b	.L314
 3369              	.L312:
2011:Drivers/STM32L4xx_HAL_Driver/Src/stm32l4xx_hal_rcc_ex.c ****         }
 3370              		.loc 1 2011 11
 3371 0da4 00BF     		nop
 3372 0da6 0EE0     		b	.L87
 3373              	.L313:
1995:Drivers/STM32L4xx_HAL_Driver/Src/stm32l4xx_hal_rcc_ex.c ****         case RCC_OSPICLKSOURCE_PLL:
 3374              		.loc 1 1995 11
 3375 0da8 00BF     		nop
 3376 0daa 0CE0     		b	.L87
 3377              	.L314:
2008:Drivers/STM32L4xx_HAL_Driver/Src/stm32l4xx_hal_rcc_ex.c ****         default:
 3378              		.loc 1 2008 11
 3379 0dac 00BF     		nop
 3380              	.L254:
2014:Drivers/STM32L4xx_HAL_Driver/Src/stm32l4xx_hal_rcc_ex.c ****       }
 3381              		.loc 1 2014 9 discriminator 36
 3382 0dae 0AE0     		b	.L87
 3383              	.L260:
1200:Drivers/STM32L4xx_HAL_Driver/Src/stm32l4xx_hal_rcc_ex.c ****     }
 3384              		.loc 1 1200 7
 3385 0db0 00BF     		nop
 3386 0db2 08E0     		b	.L87
 3387              	.L261:
1174:Drivers/STM32L4xx_HAL_Driver/Src/stm32l4xx_hal_rcc_ex.c ****     case RCC_RTCCLKSOURCE_LSI:
 3388              		.loc 1 1174 7
 3389 0db4 00BF     		nop
 3390 0db6 06E0     		b	.L87
 3391              	.L262:
1190:Drivers/STM32L4xx_HAL_Driver/Src/stm32l4xx_hal_rcc_ex.c ****     case RCC_RTCCLKSOURCE_HSE_DIV32:
ARM GAS  C:\Users\Morroway\AppData\Local\Temp\ccOmimY8.s 			page 104


 3392              		.loc 1 1190 7
 3393 0db8 00BF     		nop
 3394 0dba 04E0     		b	.L87
 3395              	.L263:
1197:Drivers/STM32L4xx_HAL_Driver/Src/stm32l4xx_hal_rcc_ex.c ****     default:
 3396              		.loc 1 1197 7
 3397 0dbc 00BF     		nop
 3398 0dbe 02E0     		b	.L87
 3399              	.L264:
 3400              		.loc 1 2020 7
 3401 0dc0 00BF     		nop
 3402 0dc2 00E0     		b	.L87
 3403              	.L270:
1420:Drivers/STM32L4xx_HAL_Driver/Src/stm32l4xx_hal_rcc_ex.c **** 
 3404              		.loc 1 1420 7
 3405 0dc4 00BF     		nop
 3406              	.L87:
2021:Drivers/STM32L4xx_HAL_Driver/Src/stm32l4xx_hal_rcc_ex.c ****     }
2022:Drivers/STM32L4xx_HAL_Driver/Src/stm32l4xx_hal_rcc_ex.c ****   }
2023:Drivers/STM32L4xx_HAL_Driver/Src/stm32l4xx_hal_rcc_ex.c **** 
2024:Drivers/STM32L4xx_HAL_Driver/Src/stm32l4xx_hal_rcc_ex.c ****   return(frequency);
 3407              		.loc 1 2024 9
 3408 0dc6 FB69     		ldr	r3, [r7, #28]
2025:Drivers/STM32L4xx_HAL_Driver/Src/stm32l4xx_hal_rcc_ex.c **** }
 3409              		.loc 1 2025 1
 3410 0dc8 1846     		mov	r0, r3
 3411 0dca 2037     		adds	r7, r7, #32
 3412              		.cfi_def_cfa_offset 8
 3413 0dcc BD46     		mov	sp, r7
 3414              		.cfi_def_cfa_register 13
 3415              		@ sp needed
 3416 0dce 80BD     		pop	{r7, pc}
 3417              	.L327:
 3418              		.align	2
 3419              	.L326:
 3420 0dd0 00100240 		.word	1073876992
 3421 0dd4 00000000 		.word	MSIRangeTable
 3422              		.cfi_endproc
 3423              	.LFE323:
 3425              		.section	.text.HAL_RCCEx_EnablePLLSAI1,"ax",%progbits
 3426              		.align	1
 3427              		.global	HAL_RCCEx_EnablePLLSAI1
 3428              		.syntax unified
 3429              		.thumb
 3430              		.thumb_func
 3432              	HAL_RCCEx_EnablePLLSAI1:
 3433              	.LFB324:
2026:Drivers/STM32L4xx_HAL_Driver/Src/stm32l4xx_hal_rcc_ex.c **** 
2027:Drivers/STM32L4xx_HAL_Driver/Src/stm32l4xx_hal_rcc_ex.c **** /**
2028:Drivers/STM32L4xx_HAL_Driver/Src/stm32l4xx_hal_rcc_ex.c ****   * @}
2029:Drivers/STM32L4xx_HAL_Driver/Src/stm32l4xx_hal_rcc_ex.c ****   */
2030:Drivers/STM32L4xx_HAL_Driver/Src/stm32l4xx_hal_rcc_ex.c **** 
2031:Drivers/STM32L4xx_HAL_Driver/Src/stm32l4xx_hal_rcc_ex.c **** /** @defgroup RCCEx_Exported_Functions_Group2 Extended Clock management functions
2032:Drivers/STM32L4xx_HAL_Driver/Src/stm32l4xx_hal_rcc_ex.c ****  *  @brief  Extended Clock management functions
2033:Drivers/STM32L4xx_HAL_Driver/Src/stm32l4xx_hal_rcc_ex.c ****  *
2034:Drivers/STM32L4xx_HAL_Driver/Src/stm32l4xx_hal_rcc_ex.c **** @verbatim
2035:Drivers/STM32L4xx_HAL_Driver/Src/stm32l4xx_hal_rcc_ex.c ****  ===============================================================================
ARM GAS  C:\Users\Morroway\AppData\Local\Temp\ccOmimY8.s 			page 105


2036:Drivers/STM32L4xx_HAL_Driver/Src/stm32l4xx_hal_rcc_ex.c ****                 ##### Extended clock management functions  #####
2037:Drivers/STM32L4xx_HAL_Driver/Src/stm32l4xx_hal_rcc_ex.c ****  ===============================================================================
2038:Drivers/STM32L4xx_HAL_Driver/Src/stm32l4xx_hal_rcc_ex.c ****     [..]
2039:Drivers/STM32L4xx_HAL_Driver/Src/stm32l4xx_hal_rcc_ex.c ****     This subsection provides a set of functions allowing to control the
2040:Drivers/STM32L4xx_HAL_Driver/Src/stm32l4xx_hal_rcc_ex.c ****     activation or deactivation of MSI PLL-mode, PLLSAI1, PLLSAI2, LSE CSS,
2041:Drivers/STM32L4xx_HAL_Driver/Src/stm32l4xx_hal_rcc_ex.c ****     Low speed clock output and clock after wake-up from STOP mode.
2042:Drivers/STM32L4xx_HAL_Driver/Src/stm32l4xx_hal_rcc_ex.c **** @endverbatim
2043:Drivers/STM32L4xx_HAL_Driver/Src/stm32l4xx_hal_rcc_ex.c ****   * @{
2044:Drivers/STM32L4xx_HAL_Driver/Src/stm32l4xx_hal_rcc_ex.c ****   */
2045:Drivers/STM32L4xx_HAL_Driver/Src/stm32l4xx_hal_rcc_ex.c **** 
2046:Drivers/STM32L4xx_HAL_Driver/Src/stm32l4xx_hal_rcc_ex.c **** #if defined(RCC_PLLSAI1_SUPPORT)
2047:Drivers/STM32L4xx_HAL_Driver/Src/stm32l4xx_hal_rcc_ex.c **** 
2048:Drivers/STM32L4xx_HAL_Driver/Src/stm32l4xx_hal_rcc_ex.c **** /**
2049:Drivers/STM32L4xx_HAL_Driver/Src/stm32l4xx_hal_rcc_ex.c ****   * @brief  Enable PLLSAI1.
2050:Drivers/STM32L4xx_HAL_Driver/Src/stm32l4xx_hal_rcc_ex.c ****   * @param  PLLSAI1Init  pointer to an RCC_PLLSAI1InitTypeDef structure that
2051:Drivers/STM32L4xx_HAL_Driver/Src/stm32l4xx_hal_rcc_ex.c ****   *         contains the configuration information for the PLLSAI1
2052:Drivers/STM32L4xx_HAL_Driver/Src/stm32l4xx_hal_rcc_ex.c ****   * @retval HAL status
2053:Drivers/STM32L4xx_HAL_Driver/Src/stm32l4xx_hal_rcc_ex.c ****   */
2054:Drivers/STM32L4xx_HAL_Driver/Src/stm32l4xx_hal_rcc_ex.c **** HAL_StatusTypeDef HAL_RCCEx_EnablePLLSAI1(RCC_PLLSAI1InitTypeDef  *PLLSAI1Init)
2055:Drivers/STM32L4xx_HAL_Driver/Src/stm32l4xx_hal_rcc_ex.c **** {
 3434              		.loc 1 2055 1
 3435              		.cfi_startproc
 3436              		@ args = 0, pretend = 0, frame = 16
 3437              		@ frame_needed = 1, uses_anonymous_args = 0
 3438 0000 80B5     		push	{r7, lr}
 3439              		.cfi_def_cfa_offset 8
 3440              		.cfi_offset 7, -8
 3441              		.cfi_offset 14, -4
 3442 0002 84B0     		sub	sp, sp, #16
 3443              		.cfi_def_cfa_offset 24
 3444 0004 00AF     		add	r7, sp, #0
 3445              		.cfi_def_cfa_register 7
 3446 0006 7860     		str	r0, [r7, #4]
2056:Drivers/STM32L4xx_HAL_Driver/Src/stm32l4xx_hal_rcc_ex.c ****   uint32_t tickstart;
2057:Drivers/STM32L4xx_HAL_Driver/Src/stm32l4xx_hal_rcc_ex.c ****   HAL_StatusTypeDef status = HAL_OK;
 3447              		.loc 1 2057 21
 3448 0008 0023     		movs	r3, #0
 3449 000a FB73     		strb	r3, [r7, #15]
2058:Drivers/STM32L4xx_HAL_Driver/Src/stm32l4xx_hal_rcc_ex.c **** 
2059:Drivers/STM32L4xx_HAL_Driver/Src/stm32l4xx_hal_rcc_ex.c ****   /* check for PLLSAI1 Parameters used to output PLLSAI1CLK */
2060:Drivers/STM32L4xx_HAL_Driver/Src/stm32l4xx_hal_rcc_ex.c ****   assert_param(IS_RCC_PLLSAI1SOURCE(PLLSAI1Init->PLLSAI1Source));
2061:Drivers/STM32L4xx_HAL_Driver/Src/stm32l4xx_hal_rcc_ex.c ****   assert_param(IS_RCC_PLLSAI1M_VALUE(PLLSAI1Init->PLLSAI1M));
2062:Drivers/STM32L4xx_HAL_Driver/Src/stm32l4xx_hal_rcc_ex.c ****   assert_param(IS_RCC_PLLSAI1N_VALUE(PLLSAI1Init->PLLSAI1N));
2063:Drivers/STM32L4xx_HAL_Driver/Src/stm32l4xx_hal_rcc_ex.c ****   assert_param(IS_RCC_PLLSAI1P_VALUE(PLLSAI1Init->PLLSAI1P));
2064:Drivers/STM32L4xx_HAL_Driver/Src/stm32l4xx_hal_rcc_ex.c ****   assert_param(IS_RCC_PLLSAI1Q_VALUE(PLLSAI1Init->PLLSAI1Q));
2065:Drivers/STM32L4xx_HAL_Driver/Src/stm32l4xx_hal_rcc_ex.c ****   assert_param(IS_RCC_PLLSAI1R_VALUE(PLLSAI1Init->PLLSAI1R));
2066:Drivers/STM32L4xx_HAL_Driver/Src/stm32l4xx_hal_rcc_ex.c ****   assert_param(IS_RCC_PLLSAI1CLOCKOUT_VALUE(PLLSAI1Init->PLLSAI1ClockOut));
2067:Drivers/STM32L4xx_HAL_Driver/Src/stm32l4xx_hal_rcc_ex.c **** 
2068:Drivers/STM32L4xx_HAL_Driver/Src/stm32l4xx_hal_rcc_ex.c ****   /* Disable the PLLSAI1 */
2069:Drivers/STM32L4xx_HAL_Driver/Src/stm32l4xx_hal_rcc_ex.c ****   __HAL_RCC_PLLSAI1_DISABLE();
 3450              		.loc 1 2069 3
 3451 000c 304B     		ldr	r3, .L336
 3452 000e 1B68     		ldr	r3, [r3]
 3453 0010 2F4A     		ldr	r2, .L336
 3454 0012 23F08063 		bic	r3, r3, #67108864
 3455 0016 1360     		str	r3, [r2]
2070:Drivers/STM32L4xx_HAL_Driver/Src/stm32l4xx_hal_rcc_ex.c **** 
ARM GAS  C:\Users\Morroway\AppData\Local\Temp\ccOmimY8.s 			page 106


2071:Drivers/STM32L4xx_HAL_Driver/Src/stm32l4xx_hal_rcc_ex.c ****   /* Get Start Tick*/
2072:Drivers/STM32L4xx_HAL_Driver/Src/stm32l4xx_hal_rcc_ex.c ****   tickstart = HAL_GetTick();
 3456              		.loc 1 2072 15
 3457 0018 FFF7FEFF 		bl	HAL_GetTick
 3458 001c B860     		str	r0, [r7, #8]
2073:Drivers/STM32L4xx_HAL_Driver/Src/stm32l4xx_hal_rcc_ex.c **** 
2074:Drivers/STM32L4xx_HAL_Driver/Src/stm32l4xx_hal_rcc_ex.c ****   /* Wait till PLLSAI1 is ready to be updated */
2075:Drivers/STM32L4xx_HAL_Driver/Src/stm32l4xx_hal_rcc_ex.c ****   while(READ_BIT(RCC->CR, RCC_CR_PLLSAI1RDY) != 0U)
 3459              		.loc 1 2075 8
 3460 001e 09E0     		b	.L329
 3461              	.L331:
2076:Drivers/STM32L4xx_HAL_Driver/Src/stm32l4xx_hal_rcc_ex.c ****   {
2077:Drivers/STM32L4xx_HAL_Driver/Src/stm32l4xx_hal_rcc_ex.c ****     if((HAL_GetTick() - tickstart) > PLLSAI1_TIMEOUT_VALUE)
 3462              		.loc 1 2077 9
 3463 0020 FFF7FEFF 		bl	HAL_GetTick
 3464 0024 0246     		mov	r2, r0
 3465              		.loc 1 2077 23
 3466 0026 BB68     		ldr	r3, [r7, #8]
 3467 0028 D31A     		subs	r3, r2, r3
 3468              		.loc 1 2077 7
 3469 002a 022B     		cmp	r3, #2
 3470 002c 02D9     		bls	.L329
2078:Drivers/STM32L4xx_HAL_Driver/Src/stm32l4xx_hal_rcc_ex.c ****     {
2079:Drivers/STM32L4xx_HAL_Driver/Src/stm32l4xx_hal_rcc_ex.c ****       status = HAL_TIMEOUT;
 3471              		.loc 1 2079 14
 3472 002e 0323     		movs	r3, #3
 3473 0030 FB73     		strb	r3, [r7, #15]
2080:Drivers/STM32L4xx_HAL_Driver/Src/stm32l4xx_hal_rcc_ex.c ****       break;
 3474              		.loc 1 2080 7
 3475 0032 05E0     		b	.L330
 3476              	.L329:
2075:Drivers/STM32L4xx_HAL_Driver/Src/stm32l4xx_hal_rcc_ex.c ****   {
 3477              		.loc 1 2075 9
 3478 0034 264B     		ldr	r3, .L336
 3479 0036 1B68     		ldr	r3, [r3]
 3480 0038 03F00063 		and	r3, r3, #134217728
2075:Drivers/STM32L4xx_HAL_Driver/Src/stm32l4xx_hal_rcc_ex.c ****   {
 3481              		.loc 1 2075 46
 3482 003c 002B     		cmp	r3, #0
 3483 003e EFD1     		bne	.L331
 3484              	.L330:
2081:Drivers/STM32L4xx_HAL_Driver/Src/stm32l4xx_hal_rcc_ex.c ****     }
2082:Drivers/STM32L4xx_HAL_Driver/Src/stm32l4xx_hal_rcc_ex.c ****   }
2083:Drivers/STM32L4xx_HAL_Driver/Src/stm32l4xx_hal_rcc_ex.c **** 
2084:Drivers/STM32L4xx_HAL_Driver/Src/stm32l4xx_hal_rcc_ex.c ****   if(status == HAL_OK)
 3485              		.loc 1 2084 5
 3486 0040 FB7B     		ldrb	r3, [r7, #15]	@ zero_extendqisi2
 3487 0042 002B     		cmp	r3, #0
 3488 0044 3FD1     		bne	.L332
2085:Drivers/STM32L4xx_HAL_Driver/Src/stm32l4xx_hal_rcc_ex.c ****   {
2086:Drivers/STM32L4xx_HAL_Driver/Src/stm32l4xx_hal_rcc_ex.c **** #if defined(RCC_PLLSAI1M_DIV_1_16_SUPPORT)
2087:Drivers/STM32L4xx_HAL_Driver/Src/stm32l4xx_hal_rcc_ex.c ****     /* Configure the PLLSAI1 Multiplication factor N */
2088:Drivers/STM32L4xx_HAL_Driver/Src/stm32l4xx_hal_rcc_ex.c ****     /* Configure the PLLSAI1 Division factors M, P, Q and R */
2089:Drivers/STM32L4xx_HAL_Driver/Src/stm32l4xx_hal_rcc_ex.c ****     __HAL_RCC_PLLSAI1_CONFIG(PLLSAI1Init->PLLSAI1M, PLLSAI1Init->PLLSAI1N, PLLSAI1Init->PLLSAI1P, P
 3489              		.loc 1 2089 5
 3490 0046 224B     		ldr	r3, .L336
 3491 0048 1A69     		ldr	r2, [r3, #16]
ARM GAS  C:\Users\Morroway\AppData\Local\Temp\ccOmimY8.s 			page 107


 3492 004a 224B     		ldr	r3, .L336+4
 3493 004c 1340     		ands	r3, r3, r2
 3494 004e 7A68     		ldr	r2, [r7, #4]
 3495 0050 5268     		ldr	r2, [r2, #4]
 3496 0052 013A     		subs	r2, r2, #1
 3497 0054 1101     		lsls	r1, r2, #4
 3498 0056 7A68     		ldr	r2, [r7, #4]
 3499 0058 9268     		ldr	r2, [r2, #8]
 3500 005a 1202     		lsls	r2, r2, #8
 3501 005c 1143     		orrs	r1, r1, r2
 3502 005e 7A68     		ldr	r2, [r7, #4]
 3503 0060 1269     		ldr	r2, [r2, #16]
 3504 0062 5208     		lsrs	r2, r2, #1
 3505 0064 013A     		subs	r2, r2, #1
 3506 0066 5205     		lsls	r2, r2, #21
 3507 0068 1143     		orrs	r1, r1, r2
 3508 006a 7A68     		ldr	r2, [r7, #4]
 3509 006c 5269     		ldr	r2, [r2, #20]
 3510 006e 5208     		lsrs	r2, r2, #1
 3511 0070 013A     		subs	r2, r2, #1
 3512 0072 5206     		lsls	r2, r2, #25
 3513 0074 1143     		orrs	r1, r1, r2
 3514 0076 7A68     		ldr	r2, [r7, #4]
 3515 0078 D268     		ldr	r2, [r2, #12]
 3516 007a D206     		lsls	r2, r2, #27
 3517 007c 0A43     		orrs	r2, r2, r1
 3518 007e 1449     		ldr	r1, .L336
 3519 0080 1343     		orrs	r3, r3, r2
 3520 0082 0B61     		str	r3, [r1, #16]
2090:Drivers/STM32L4xx_HAL_Driver/Src/stm32l4xx_hal_rcc_ex.c **** #else
2091:Drivers/STM32L4xx_HAL_Driver/Src/stm32l4xx_hal_rcc_ex.c ****     /* Configure the PLLSAI1 Multiplication factor N */
2092:Drivers/STM32L4xx_HAL_Driver/Src/stm32l4xx_hal_rcc_ex.c ****     /* Configure the PLLSAI1 Division factors P, Q and R */
2093:Drivers/STM32L4xx_HAL_Driver/Src/stm32l4xx_hal_rcc_ex.c ****     __HAL_RCC_PLLSAI1_CONFIG(PLLSAI1Init->PLLSAI1N, PLLSAI1Init->PLLSAI1P, PLLSAI1Init->PLLSAI1Q, P
2094:Drivers/STM32L4xx_HAL_Driver/Src/stm32l4xx_hal_rcc_ex.c **** #endif /* RCC_PLLSAI1M_DIV_1_16_SUPPORT */
2095:Drivers/STM32L4xx_HAL_Driver/Src/stm32l4xx_hal_rcc_ex.c ****     /* Configure the PLLSAI1 Clock output(s) */
2096:Drivers/STM32L4xx_HAL_Driver/Src/stm32l4xx_hal_rcc_ex.c ****     __HAL_RCC_PLLSAI1CLKOUT_ENABLE(PLLSAI1Init->PLLSAI1ClockOut);
 3521              		.loc 1 2096 5
 3522 0084 124B     		ldr	r3, .L336
 3523 0086 1A69     		ldr	r2, [r3, #16]
 3524 0088 7B68     		ldr	r3, [r7, #4]
 3525 008a 9B69     		ldr	r3, [r3, #24]
 3526 008c 1049     		ldr	r1, .L336
 3527 008e 1343     		orrs	r3, r3, r2
 3528 0090 0B61     		str	r3, [r1, #16]
2097:Drivers/STM32L4xx_HAL_Driver/Src/stm32l4xx_hal_rcc_ex.c **** 
2098:Drivers/STM32L4xx_HAL_Driver/Src/stm32l4xx_hal_rcc_ex.c ****     /* Enable the PLLSAI1 again by setting PLLSAI1ON to 1*/
2099:Drivers/STM32L4xx_HAL_Driver/Src/stm32l4xx_hal_rcc_ex.c ****     __HAL_RCC_PLLSAI1_ENABLE();
 3529              		.loc 1 2099 5
 3530 0092 0F4B     		ldr	r3, .L336
 3531 0094 1B68     		ldr	r3, [r3]
 3532 0096 0E4A     		ldr	r2, .L336
 3533 0098 43F08063 		orr	r3, r3, #67108864
 3534 009c 1360     		str	r3, [r2]
2100:Drivers/STM32L4xx_HAL_Driver/Src/stm32l4xx_hal_rcc_ex.c **** 
2101:Drivers/STM32L4xx_HAL_Driver/Src/stm32l4xx_hal_rcc_ex.c ****     /* Get Start Tick*/
2102:Drivers/STM32L4xx_HAL_Driver/Src/stm32l4xx_hal_rcc_ex.c ****     tickstart = HAL_GetTick();
 3535              		.loc 1 2102 17
ARM GAS  C:\Users\Morroway\AppData\Local\Temp\ccOmimY8.s 			page 108


 3536 009e FFF7FEFF 		bl	HAL_GetTick
 3537 00a2 B860     		str	r0, [r7, #8]
2103:Drivers/STM32L4xx_HAL_Driver/Src/stm32l4xx_hal_rcc_ex.c **** 
2104:Drivers/STM32L4xx_HAL_Driver/Src/stm32l4xx_hal_rcc_ex.c ****     /* Wait till PLLSAI1 is ready */
2105:Drivers/STM32L4xx_HAL_Driver/Src/stm32l4xx_hal_rcc_ex.c ****     while(READ_BIT(RCC->CR, RCC_CR_PLLSAI1RDY) == 0U)
 3538              		.loc 1 2105 10
 3539 00a4 09E0     		b	.L333
 3540              	.L334:
2106:Drivers/STM32L4xx_HAL_Driver/Src/stm32l4xx_hal_rcc_ex.c ****     {
2107:Drivers/STM32L4xx_HAL_Driver/Src/stm32l4xx_hal_rcc_ex.c ****       if((HAL_GetTick() - tickstart) > PLLSAI1_TIMEOUT_VALUE)
 3541              		.loc 1 2107 11
 3542 00a6 FFF7FEFF 		bl	HAL_GetTick
 3543 00aa 0246     		mov	r2, r0
 3544              		.loc 1 2107 25
 3545 00ac BB68     		ldr	r3, [r7, #8]
 3546 00ae D31A     		subs	r3, r2, r3
 3547              		.loc 1 2107 9
 3548 00b0 022B     		cmp	r3, #2
 3549 00b2 02D9     		bls	.L333
2108:Drivers/STM32L4xx_HAL_Driver/Src/stm32l4xx_hal_rcc_ex.c ****       {
2109:Drivers/STM32L4xx_HAL_Driver/Src/stm32l4xx_hal_rcc_ex.c ****         status = HAL_TIMEOUT;
 3550              		.loc 1 2109 16
 3551 00b4 0323     		movs	r3, #3
 3552 00b6 FB73     		strb	r3, [r7, #15]
2110:Drivers/STM32L4xx_HAL_Driver/Src/stm32l4xx_hal_rcc_ex.c ****         break;
 3553              		.loc 1 2110 9
 3554 00b8 05E0     		b	.L332
 3555              	.L333:
2105:Drivers/STM32L4xx_HAL_Driver/Src/stm32l4xx_hal_rcc_ex.c ****     {
 3556              		.loc 1 2105 11
 3557 00ba 054B     		ldr	r3, .L336
 3558 00bc 1B68     		ldr	r3, [r3]
 3559 00be 03F00063 		and	r3, r3, #134217728
2105:Drivers/STM32L4xx_HAL_Driver/Src/stm32l4xx_hal_rcc_ex.c ****     {
 3560              		.loc 1 2105 48
 3561 00c2 002B     		cmp	r3, #0
 3562 00c4 EFD0     		beq	.L334
 3563              	.L332:
2111:Drivers/STM32L4xx_HAL_Driver/Src/stm32l4xx_hal_rcc_ex.c ****       }
2112:Drivers/STM32L4xx_HAL_Driver/Src/stm32l4xx_hal_rcc_ex.c ****     }
2113:Drivers/STM32L4xx_HAL_Driver/Src/stm32l4xx_hal_rcc_ex.c ****   }
2114:Drivers/STM32L4xx_HAL_Driver/Src/stm32l4xx_hal_rcc_ex.c **** 
2115:Drivers/STM32L4xx_HAL_Driver/Src/stm32l4xx_hal_rcc_ex.c ****   return status;
 3564              		.loc 1 2115 10
 3565 00c6 FB7B     		ldrb	r3, [r7, #15]	@ zero_extendqisi2
2116:Drivers/STM32L4xx_HAL_Driver/Src/stm32l4xx_hal_rcc_ex.c **** }
 3566              		.loc 1 2116 1
 3567 00c8 1846     		mov	r0, r3
 3568 00ca 1037     		adds	r7, r7, #16
 3569              		.cfi_def_cfa_offset 8
 3570 00cc BD46     		mov	sp, r7
 3571              		.cfi_def_cfa_register 13
 3572              		@ sp needed
 3573 00ce 80BD     		pop	{r7, pc}
 3574              	.L337:
 3575              		.align	2
 3576              	.L336:
ARM GAS  C:\Users\Morroway\AppData\Local\Temp\ccOmimY8.s 			page 109


 3577 00d0 00100240 		.word	1073876992
 3578 00d4 0F809D01 		.word	27099151
 3579              		.cfi_endproc
 3580              	.LFE324:
 3582              		.section	.text.HAL_RCCEx_DisablePLLSAI1,"ax",%progbits
 3583              		.align	1
 3584              		.global	HAL_RCCEx_DisablePLLSAI1
 3585              		.syntax unified
 3586              		.thumb
 3587              		.thumb_func
 3589              	HAL_RCCEx_DisablePLLSAI1:
 3590              	.LFB325:
2117:Drivers/STM32L4xx_HAL_Driver/Src/stm32l4xx_hal_rcc_ex.c **** 
2118:Drivers/STM32L4xx_HAL_Driver/Src/stm32l4xx_hal_rcc_ex.c **** /**
2119:Drivers/STM32L4xx_HAL_Driver/Src/stm32l4xx_hal_rcc_ex.c ****   * @brief  Disable PLLSAI1.
2120:Drivers/STM32L4xx_HAL_Driver/Src/stm32l4xx_hal_rcc_ex.c ****   * @retval HAL status
2121:Drivers/STM32L4xx_HAL_Driver/Src/stm32l4xx_hal_rcc_ex.c ****   */
2122:Drivers/STM32L4xx_HAL_Driver/Src/stm32l4xx_hal_rcc_ex.c **** HAL_StatusTypeDef HAL_RCCEx_DisablePLLSAI1(void)
2123:Drivers/STM32L4xx_HAL_Driver/Src/stm32l4xx_hal_rcc_ex.c **** {
 3591              		.loc 1 2123 1
 3592              		.cfi_startproc
 3593              		@ args = 0, pretend = 0, frame = 8
 3594              		@ frame_needed = 1, uses_anonymous_args = 0
 3595 0000 80B5     		push	{r7, lr}
 3596              		.cfi_def_cfa_offset 8
 3597              		.cfi_offset 7, -8
 3598              		.cfi_offset 14, -4
 3599 0002 82B0     		sub	sp, sp, #8
 3600              		.cfi_def_cfa_offset 16
 3601 0004 00AF     		add	r7, sp, #0
 3602              		.cfi_def_cfa_register 7
2124:Drivers/STM32L4xx_HAL_Driver/Src/stm32l4xx_hal_rcc_ex.c ****   uint32_t tickstart;
2125:Drivers/STM32L4xx_HAL_Driver/Src/stm32l4xx_hal_rcc_ex.c ****   HAL_StatusTypeDef status = HAL_OK;
 3603              		.loc 1 2125 21
 3604 0006 0023     		movs	r3, #0
 3605 0008 FB71     		strb	r3, [r7, #7]
2126:Drivers/STM32L4xx_HAL_Driver/Src/stm32l4xx_hal_rcc_ex.c **** 
2127:Drivers/STM32L4xx_HAL_Driver/Src/stm32l4xx_hal_rcc_ex.c ****   /* Disable the PLLSAI1 */
2128:Drivers/STM32L4xx_HAL_Driver/Src/stm32l4xx_hal_rcc_ex.c ****   __HAL_RCC_PLLSAI1_DISABLE();
 3606              		.loc 1 2128 3
 3607 000a 194B     		ldr	r3, .L344
 3608 000c 1B68     		ldr	r3, [r3]
 3609 000e 184A     		ldr	r2, .L344
 3610 0010 23F08063 		bic	r3, r3, #67108864
 3611 0014 1360     		str	r3, [r2]
2129:Drivers/STM32L4xx_HAL_Driver/Src/stm32l4xx_hal_rcc_ex.c **** 
2130:Drivers/STM32L4xx_HAL_Driver/Src/stm32l4xx_hal_rcc_ex.c ****   /* Get Start Tick*/
2131:Drivers/STM32L4xx_HAL_Driver/Src/stm32l4xx_hal_rcc_ex.c ****   tickstart = HAL_GetTick();
 3612              		.loc 1 2131 15
 3613 0016 FFF7FEFF 		bl	HAL_GetTick
 3614 001a 3860     		str	r0, [r7]
2132:Drivers/STM32L4xx_HAL_Driver/Src/stm32l4xx_hal_rcc_ex.c **** 
2133:Drivers/STM32L4xx_HAL_Driver/Src/stm32l4xx_hal_rcc_ex.c ****   /* Wait till PLLSAI1 is ready */
2134:Drivers/STM32L4xx_HAL_Driver/Src/stm32l4xx_hal_rcc_ex.c ****   while(READ_BIT(RCC->CR, RCC_CR_PLLSAI1RDY) != 0U)
 3615              		.loc 1 2134 8
 3616 001c 09E0     		b	.L339
 3617              	.L341:
ARM GAS  C:\Users\Morroway\AppData\Local\Temp\ccOmimY8.s 			page 110


2135:Drivers/STM32L4xx_HAL_Driver/Src/stm32l4xx_hal_rcc_ex.c ****   {
2136:Drivers/STM32L4xx_HAL_Driver/Src/stm32l4xx_hal_rcc_ex.c ****     if((HAL_GetTick() - tickstart) > PLLSAI1_TIMEOUT_VALUE)
 3618              		.loc 1 2136 9
 3619 001e FFF7FEFF 		bl	HAL_GetTick
 3620 0022 0246     		mov	r2, r0
 3621              		.loc 1 2136 23
 3622 0024 3B68     		ldr	r3, [r7]
 3623 0026 D31A     		subs	r3, r2, r3
 3624              		.loc 1 2136 7
 3625 0028 022B     		cmp	r3, #2
 3626 002a 02D9     		bls	.L339
2137:Drivers/STM32L4xx_HAL_Driver/Src/stm32l4xx_hal_rcc_ex.c ****     {
2138:Drivers/STM32L4xx_HAL_Driver/Src/stm32l4xx_hal_rcc_ex.c ****       status = HAL_TIMEOUT;
 3627              		.loc 1 2138 14
 3628 002c 0323     		movs	r3, #3
 3629 002e FB71     		strb	r3, [r7, #7]
2139:Drivers/STM32L4xx_HAL_Driver/Src/stm32l4xx_hal_rcc_ex.c ****       break;
 3630              		.loc 1 2139 7
 3631 0030 05E0     		b	.L340
 3632              	.L339:
2134:Drivers/STM32L4xx_HAL_Driver/Src/stm32l4xx_hal_rcc_ex.c ****   {
 3633              		.loc 1 2134 9
 3634 0032 0F4B     		ldr	r3, .L344
 3635 0034 1B68     		ldr	r3, [r3]
 3636 0036 03F00063 		and	r3, r3, #134217728
2134:Drivers/STM32L4xx_HAL_Driver/Src/stm32l4xx_hal_rcc_ex.c ****   {
 3637              		.loc 1 2134 46
 3638 003a 002B     		cmp	r3, #0
 3639 003c EFD1     		bne	.L341
 3640              	.L340:
2140:Drivers/STM32L4xx_HAL_Driver/Src/stm32l4xx_hal_rcc_ex.c ****     }
2141:Drivers/STM32L4xx_HAL_Driver/Src/stm32l4xx_hal_rcc_ex.c ****   }
2142:Drivers/STM32L4xx_HAL_Driver/Src/stm32l4xx_hal_rcc_ex.c **** 
2143:Drivers/STM32L4xx_HAL_Driver/Src/stm32l4xx_hal_rcc_ex.c ****   /* Disable the PLLSAI1 Clock outputs */
2144:Drivers/STM32L4xx_HAL_Driver/Src/stm32l4xx_hal_rcc_ex.c ****   __HAL_RCC_PLLSAI1CLKOUT_DISABLE(RCC_PLLSAI1CFGR_PLLSAI1PEN|RCC_PLLSAI1CFGR_PLLSAI1QEN|RCC_PLLSAI1
 3641              		.loc 1 2144 3
 3642 003e 0C4B     		ldr	r3, .L344
 3643 0040 1B69     		ldr	r3, [r3, #16]
 3644 0042 0B4A     		ldr	r2, .L344
 3645 0044 23F08873 		bic	r3, r3, #17825792
 3646 0048 23F48033 		bic	r3, r3, #65536
 3647 004c 1361     		str	r3, [r2, #16]
2145:Drivers/STM32L4xx_HAL_Driver/Src/stm32l4xx_hal_rcc_ex.c **** 
2146:Drivers/STM32L4xx_HAL_Driver/Src/stm32l4xx_hal_rcc_ex.c ****   /* Reset PLL source to save power if no PLLs on */
2147:Drivers/STM32L4xx_HAL_Driver/Src/stm32l4xx_hal_rcc_ex.c **** #if defined(RCC_PLLSAI2_SUPPORT)
2148:Drivers/STM32L4xx_HAL_Driver/Src/stm32l4xx_hal_rcc_ex.c ****   if(READ_BIT(RCC->CR, (RCC_CR_PLLRDY | RCC_CR_PLLSAI2RDY)) == 0U)
 3648              		.loc 1 2148 6
 3649 004e 084B     		ldr	r3, .L344
 3650 0050 1B68     		ldr	r3, [r3]
 3651 0052 03F00853 		and	r3, r3, #570425344
 3652              		.loc 1 2148 5
 3653 0056 002B     		cmp	r3, #0
 3654 0058 05D1     		bne	.L342
2149:Drivers/STM32L4xx_HAL_Driver/Src/stm32l4xx_hal_rcc_ex.c ****   {
2150:Drivers/STM32L4xx_HAL_Driver/Src/stm32l4xx_hal_rcc_ex.c ****     MODIFY_REG(RCC->PLLCFGR, RCC_PLLCFGR_PLLSRC, RCC_PLLSOURCE_NONE);
 3655              		.loc 1 2150 5
 3656 005a 054B     		ldr	r3, .L344
ARM GAS  C:\Users\Morroway\AppData\Local\Temp\ccOmimY8.s 			page 111


 3657 005c DB68     		ldr	r3, [r3, #12]
 3658 005e 044A     		ldr	r2, .L344
 3659 0060 23F00303 		bic	r3, r3, #3
 3660 0064 D360     		str	r3, [r2, #12]
 3661              	.L342:
2151:Drivers/STM32L4xx_HAL_Driver/Src/stm32l4xx_hal_rcc_ex.c ****   }
2152:Drivers/STM32L4xx_HAL_Driver/Src/stm32l4xx_hal_rcc_ex.c **** #else
2153:Drivers/STM32L4xx_HAL_Driver/Src/stm32l4xx_hal_rcc_ex.c ****   if(READ_BIT(RCC->CR, RCC_CR_PLLRDY) == 0U)
2154:Drivers/STM32L4xx_HAL_Driver/Src/stm32l4xx_hal_rcc_ex.c ****   {
2155:Drivers/STM32L4xx_HAL_Driver/Src/stm32l4xx_hal_rcc_ex.c ****     MODIFY_REG(RCC->PLLCFGR, RCC_PLLCFGR_PLLSRC, RCC_PLLSOURCE_NONE);
2156:Drivers/STM32L4xx_HAL_Driver/Src/stm32l4xx_hal_rcc_ex.c ****   }
2157:Drivers/STM32L4xx_HAL_Driver/Src/stm32l4xx_hal_rcc_ex.c **** #endif /* RCC_PLLSAI2_SUPPORT */
2158:Drivers/STM32L4xx_HAL_Driver/Src/stm32l4xx_hal_rcc_ex.c **** 
2159:Drivers/STM32L4xx_HAL_Driver/Src/stm32l4xx_hal_rcc_ex.c ****   return status;
 3662              		.loc 1 2159 10
 3663 0066 FB79     		ldrb	r3, [r7, #7]	@ zero_extendqisi2
2160:Drivers/STM32L4xx_HAL_Driver/Src/stm32l4xx_hal_rcc_ex.c **** }
 3664              		.loc 1 2160 1
 3665 0068 1846     		mov	r0, r3
 3666 006a 0837     		adds	r7, r7, #8
 3667              		.cfi_def_cfa_offset 8
 3668 006c BD46     		mov	sp, r7
 3669              		.cfi_def_cfa_register 13
 3670              		@ sp needed
 3671 006e 80BD     		pop	{r7, pc}
 3672              	.L345:
 3673              		.align	2
 3674              	.L344:
 3675 0070 00100240 		.word	1073876992
 3676              		.cfi_endproc
 3677              	.LFE325:
 3679              		.section	.text.HAL_RCCEx_EnablePLLSAI2,"ax",%progbits
 3680              		.align	1
 3681              		.global	HAL_RCCEx_EnablePLLSAI2
 3682              		.syntax unified
 3683              		.thumb
 3684              		.thumb_func
 3686              	HAL_RCCEx_EnablePLLSAI2:
 3687              	.LFB326:
2161:Drivers/STM32L4xx_HAL_Driver/Src/stm32l4xx_hal_rcc_ex.c **** 
2162:Drivers/STM32L4xx_HAL_Driver/Src/stm32l4xx_hal_rcc_ex.c **** #endif /* RCC_PLLSAI1_SUPPORT */
2163:Drivers/STM32L4xx_HAL_Driver/Src/stm32l4xx_hal_rcc_ex.c **** 
2164:Drivers/STM32L4xx_HAL_Driver/Src/stm32l4xx_hal_rcc_ex.c **** #if defined(RCC_PLLSAI2_SUPPORT)
2165:Drivers/STM32L4xx_HAL_Driver/Src/stm32l4xx_hal_rcc_ex.c **** 
2166:Drivers/STM32L4xx_HAL_Driver/Src/stm32l4xx_hal_rcc_ex.c **** /**
2167:Drivers/STM32L4xx_HAL_Driver/Src/stm32l4xx_hal_rcc_ex.c ****   * @brief  Enable PLLSAI2.
2168:Drivers/STM32L4xx_HAL_Driver/Src/stm32l4xx_hal_rcc_ex.c ****   * @param  PLLSAI2Init  pointer to an RCC_PLLSAI2InitTypeDef structure that
2169:Drivers/STM32L4xx_HAL_Driver/Src/stm32l4xx_hal_rcc_ex.c ****   *         contains the configuration information for the PLLSAI2
2170:Drivers/STM32L4xx_HAL_Driver/Src/stm32l4xx_hal_rcc_ex.c ****   * @retval HAL status
2171:Drivers/STM32L4xx_HAL_Driver/Src/stm32l4xx_hal_rcc_ex.c ****   */
2172:Drivers/STM32L4xx_HAL_Driver/Src/stm32l4xx_hal_rcc_ex.c **** HAL_StatusTypeDef HAL_RCCEx_EnablePLLSAI2(RCC_PLLSAI2InitTypeDef  *PLLSAI2Init)
2173:Drivers/STM32L4xx_HAL_Driver/Src/stm32l4xx_hal_rcc_ex.c **** {
 3688              		.loc 1 2173 1
 3689              		.cfi_startproc
 3690              		@ args = 0, pretend = 0, frame = 16
 3691              		@ frame_needed = 1, uses_anonymous_args = 0
 3692 0000 80B5     		push	{r7, lr}
ARM GAS  C:\Users\Morroway\AppData\Local\Temp\ccOmimY8.s 			page 112


 3693              		.cfi_def_cfa_offset 8
 3694              		.cfi_offset 7, -8
 3695              		.cfi_offset 14, -4
 3696 0002 84B0     		sub	sp, sp, #16
 3697              		.cfi_def_cfa_offset 24
 3698 0004 00AF     		add	r7, sp, #0
 3699              		.cfi_def_cfa_register 7
 3700 0006 7860     		str	r0, [r7, #4]
2174:Drivers/STM32L4xx_HAL_Driver/Src/stm32l4xx_hal_rcc_ex.c ****   uint32_t tickstart;
2175:Drivers/STM32L4xx_HAL_Driver/Src/stm32l4xx_hal_rcc_ex.c ****   HAL_StatusTypeDef status = HAL_OK;
 3701              		.loc 1 2175 21
 3702 0008 0023     		movs	r3, #0
 3703 000a FB73     		strb	r3, [r7, #15]
2176:Drivers/STM32L4xx_HAL_Driver/Src/stm32l4xx_hal_rcc_ex.c **** 
2177:Drivers/STM32L4xx_HAL_Driver/Src/stm32l4xx_hal_rcc_ex.c ****   /* check for PLLSAI2 Parameters used to output PLLSAI2CLK */
2178:Drivers/STM32L4xx_HAL_Driver/Src/stm32l4xx_hal_rcc_ex.c ****   assert_param(IS_RCC_PLLSAI2SOURCE(PLLSAI2Init->PLLSAI2Source));
2179:Drivers/STM32L4xx_HAL_Driver/Src/stm32l4xx_hal_rcc_ex.c ****   assert_param(IS_RCC_PLLSAI2M_VALUE(PLLSAI2Init->PLLSAI2M));
2180:Drivers/STM32L4xx_HAL_Driver/Src/stm32l4xx_hal_rcc_ex.c ****   assert_param(IS_RCC_PLLSAI2N_VALUE(PLLSAI2Init->PLLSAI2N));
2181:Drivers/STM32L4xx_HAL_Driver/Src/stm32l4xx_hal_rcc_ex.c ****   assert_param(IS_RCC_PLLSAI2P_VALUE(PLLSAI2Init->PLLSAI2P));
2182:Drivers/STM32L4xx_HAL_Driver/Src/stm32l4xx_hal_rcc_ex.c **** #if defined(RCC_PLLSAI2Q_DIV_SUPPORT)
2183:Drivers/STM32L4xx_HAL_Driver/Src/stm32l4xx_hal_rcc_ex.c ****   assert_param(IS_RCC_PLLSAI2Q_VALUE(PLLSAI2Init->PLLSAI2Q));
2184:Drivers/STM32L4xx_HAL_Driver/Src/stm32l4xx_hal_rcc_ex.c **** #endif /* RCC_PLLSAI2Q_DIV_SUPPORT */
2185:Drivers/STM32L4xx_HAL_Driver/Src/stm32l4xx_hal_rcc_ex.c ****   assert_param(IS_RCC_PLLSAI2R_VALUE(PLLSAI2Init->PLLSAI2R));
2186:Drivers/STM32L4xx_HAL_Driver/Src/stm32l4xx_hal_rcc_ex.c ****   assert_param(IS_RCC_PLLSAI2CLOCKOUT_VALUE(PLLSAI2Init->PLLSAI2ClockOut));
2187:Drivers/STM32L4xx_HAL_Driver/Src/stm32l4xx_hal_rcc_ex.c **** 
2188:Drivers/STM32L4xx_HAL_Driver/Src/stm32l4xx_hal_rcc_ex.c ****   /* Disable the PLLSAI2 */
2189:Drivers/STM32L4xx_HAL_Driver/Src/stm32l4xx_hal_rcc_ex.c ****   __HAL_RCC_PLLSAI2_DISABLE();
 3704              		.loc 1 2189 3
 3705 000c 304B     		ldr	r3, .L354
 3706 000e 1B68     		ldr	r3, [r3]
 3707 0010 2F4A     		ldr	r2, .L354
 3708 0012 23F08053 		bic	r3, r3, #268435456
 3709 0016 1360     		str	r3, [r2]
2190:Drivers/STM32L4xx_HAL_Driver/Src/stm32l4xx_hal_rcc_ex.c **** 
2191:Drivers/STM32L4xx_HAL_Driver/Src/stm32l4xx_hal_rcc_ex.c ****   /* Get Start Tick*/
2192:Drivers/STM32L4xx_HAL_Driver/Src/stm32l4xx_hal_rcc_ex.c ****   tickstart = HAL_GetTick();
 3710              		.loc 1 2192 15
 3711 0018 FFF7FEFF 		bl	HAL_GetTick
 3712 001c B860     		str	r0, [r7, #8]
2193:Drivers/STM32L4xx_HAL_Driver/Src/stm32l4xx_hal_rcc_ex.c **** 
2194:Drivers/STM32L4xx_HAL_Driver/Src/stm32l4xx_hal_rcc_ex.c ****   /* Wait till PLLSAI2 is ready to be updated */
2195:Drivers/STM32L4xx_HAL_Driver/Src/stm32l4xx_hal_rcc_ex.c ****   while(READ_BIT(RCC->CR, RCC_CR_PLLSAI2RDY) != 0U)
 3713              		.loc 1 2195 8
 3714 001e 09E0     		b	.L347
 3715              	.L349:
2196:Drivers/STM32L4xx_HAL_Driver/Src/stm32l4xx_hal_rcc_ex.c ****   {
2197:Drivers/STM32L4xx_HAL_Driver/Src/stm32l4xx_hal_rcc_ex.c ****     if((HAL_GetTick() - tickstart) > PLLSAI2_TIMEOUT_VALUE)
 3716              		.loc 1 2197 9
 3717 0020 FFF7FEFF 		bl	HAL_GetTick
 3718 0024 0246     		mov	r2, r0
 3719              		.loc 1 2197 23
 3720 0026 BB68     		ldr	r3, [r7, #8]
 3721 0028 D31A     		subs	r3, r2, r3
 3722              		.loc 1 2197 7
 3723 002a 022B     		cmp	r3, #2
 3724 002c 02D9     		bls	.L347
2198:Drivers/STM32L4xx_HAL_Driver/Src/stm32l4xx_hal_rcc_ex.c ****     {
ARM GAS  C:\Users\Morroway\AppData\Local\Temp\ccOmimY8.s 			page 113


2199:Drivers/STM32L4xx_HAL_Driver/Src/stm32l4xx_hal_rcc_ex.c ****       status = HAL_TIMEOUT;
 3725              		.loc 1 2199 14
 3726 002e 0323     		movs	r3, #3
 3727 0030 FB73     		strb	r3, [r7, #15]
2200:Drivers/STM32L4xx_HAL_Driver/Src/stm32l4xx_hal_rcc_ex.c ****       break;
 3728              		.loc 1 2200 7
 3729 0032 05E0     		b	.L348
 3730              	.L347:
2195:Drivers/STM32L4xx_HAL_Driver/Src/stm32l4xx_hal_rcc_ex.c ****   {
 3731              		.loc 1 2195 9
 3732 0034 264B     		ldr	r3, .L354
 3733 0036 1B68     		ldr	r3, [r3]
 3734 0038 03F00053 		and	r3, r3, #536870912
2195:Drivers/STM32L4xx_HAL_Driver/Src/stm32l4xx_hal_rcc_ex.c ****   {
 3735              		.loc 1 2195 46
 3736 003c 002B     		cmp	r3, #0
 3737 003e EFD1     		bne	.L349
 3738              	.L348:
2201:Drivers/STM32L4xx_HAL_Driver/Src/stm32l4xx_hal_rcc_ex.c ****     }
2202:Drivers/STM32L4xx_HAL_Driver/Src/stm32l4xx_hal_rcc_ex.c ****   }
2203:Drivers/STM32L4xx_HAL_Driver/Src/stm32l4xx_hal_rcc_ex.c **** 
2204:Drivers/STM32L4xx_HAL_Driver/Src/stm32l4xx_hal_rcc_ex.c ****   if(status == HAL_OK)
 3739              		.loc 1 2204 5
 3740 0040 FB7B     		ldrb	r3, [r7, #15]	@ zero_extendqisi2
 3741 0042 002B     		cmp	r3, #0
 3742 0044 3FD1     		bne	.L350
2205:Drivers/STM32L4xx_HAL_Driver/Src/stm32l4xx_hal_rcc_ex.c ****   {
2206:Drivers/STM32L4xx_HAL_Driver/Src/stm32l4xx_hal_rcc_ex.c **** #if defined(RCC_PLLSAI2M_DIV_1_16_SUPPORT) && defined(RCC_PLLSAI2Q_DIV_SUPPORT)
2207:Drivers/STM32L4xx_HAL_Driver/Src/stm32l4xx_hal_rcc_ex.c ****     /* Configure the PLLSAI2 Multiplication factor N */
2208:Drivers/STM32L4xx_HAL_Driver/Src/stm32l4xx_hal_rcc_ex.c ****     /* Configure the PLLSAI2 Division factors M, P, Q and R */
2209:Drivers/STM32L4xx_HAL_Driver/Src/stm32l4xx_hal_rcc_ex.c ****     __HAL_RCC_PLLSAI2_CONFIG(PLLSAI2Init->PLLSAI2M, PLLSAI2Init->PLLSAI2N, PLLSAI2Init->PLLSAI2P, P
 3743              		.loc 1 2209 5
 3744 0046 224B     		ldr	r3, .L354
 3745 0048 5A69     		ldr	r2, [r3, #20]
 3746 004a 224B     		ldr	r3, .L354+4
 3747 004c 1340     		ands	r3, r3, r2
 3748 004e 7A68     		ldr	r2, [r7, #4]
 3749 0050 5268     		ldr	r2, [r2, #4]
 3750 0052 013A     		subs	r2, r2, #1
 3751 0054 1101     		lsls	r1, r2, #4
 3752 0056 7A68     		ldr	r2, [r7, #4]
 3753 0058 9268     		ldr	r2, [r2, #8]
 3754 005a 1202     		lsls	r2, r2, #8
 3755 005c 1143     		orrs	r1, r1, r2
 3756 005e 7A68     		ldr	r2, [r7, #4]
 3757 0060 1269     		ldr	r2, [r2, #16]
 3758 0062 5208     		lsrs	r2, r2, #1
 3759 0064 013A     		subs	r2, r2, #1
 3760 0066 5205     		lsls	r2, r2, #21
 3761 0068 1143     		orrs	r1, r1, r2
 3762 006a 7A68     		ldr	r2, [r7, #4]
 3763 006c 5269     		ldr	r2, [r2, #20]
 3764 006e 5208     		lsrs	r2, r2, #1
 3765 0070 013A     		subs	r2, r2, #1
 3766 0072 5206     		lsls	r2, r2, #25
 3767 0074 1143     		orrs	r1, r1, r2
 3768 0076 7A68     		ldr	r2, [r7, #4]
ARM GAS  C:\Users\Morroway\AppData\Local\Temp\ccOmimY8.s 			page 114


 3769 0078 D268     		ldr	r2, [r2, #12]
 3770 007a D206     		lsls	r2, r2, #27
 3771 007c 0A43     		orrs	r2, r2, r1
 3772 007e 1449     		ldr	r1, .L354
 3773 0080 1343     		orrs	r3, r3, r2
 3774 0082 4B61     		str	r3, [r1, #20]
2210:Drivers/STM32L4xx_HAL_Driver/Src/stm32l4xx_hal_rcc_ex.c **** #elif defined(RCC_PLLSAI2M_DIV_1_16_SUPPORT)
2211:Drivers/STM32L4xx_HAL_Driver/Src/stm32l4xx_hal_rcc_ex.c ****     /* Configure the PLLSAI2 Multiplication factor N */
2212:Drivers/STM32L4xx_HAL_Driver/Src/stm32l4xx_hal_rcc_ex.c ****     /* Configure the PLLSAI2 Division factors M, P and R */
2213:Drivers/STM32L4xx_HAL_Driver/Src/stm32l4xx_hal_rcc_ex.c ****     __HAL_RCC_PLLSAI2_CONFIG(PLLSAI2Init->PLLSAI2M, PLLSAI2Init->PLLSAI2N, PLLSAI2Init->PLLSAI2P, P
2214:Drivers/STM32L4xx_HAL_Driver/Src/stm32l4xx_hal_rcc_ex.c **** #elif defined(RCC_PLLSAI2Q_DIV_SUPPORT)
2215:Drivers/STM32L4xx_HAL_Driver/Src/stm32l4xx_hal_rcc_ex.c ****     /* Configure the PLLSAI2 Multiplication factor N */
2216:Drivers/STM32L4xx_HAL_Driver/Src/stm32l4xx_hal_rcc_ex.c ****     /* Configure the PLLSAI2 Division factors P, Q and R */
2217:Drivers/STM32L4xx_HAL_Driver/Src/stm32l4xx_hal_rcc_ex.c ****     __HAL_RCC_PLLSAI2_CONFIG(PLLSAI2Init->PLLSAI2N, PLLSAI2Init->PLLSAI2P, PLLSAI2Init->PLLSAI2Q, P
2218:Drivers/STM32L4xx_HAL_Driver/Src/stm32l4xx_hal_rcc_ex.c **** #else
2219:Drivers/STM32L4xx_HAL_Driver/Src/stm32l4xx_hal_rcc_ex.c ****     /* Configure the PLLSAI2 Multiplication factor N */
2220:Drivers/STM32L4xx_HAL_Driver/Src/stm32l4xx_hal_rcc_ex.c ****     /* Configure the PLLSAI2 Division factors P and R */
2221:Drivers/STM32L4xx_HAL_Driver/Src/stm32l4xx_hal_rcc_ex.c ****     __HAL_RCC_PLLSAI2_CONFIG(PLLSAI2Init->PLLSAI2N, PLLSAI2Init->PLLSAI2P, PLLSAI2Init->PLLSAI2R);
2222:Drivers/STM32L4xx_HAL_Driver/Src/stm32l4xx_hal_rcc_ex.c **** #endif /* RCC_PLLSAI2M_DIV_1_16_SUPPORT && RCC_PLLSAI2Q_DIV_SUPPORT */
2223:Drivers/STM32L4xx_HAL_Driver/Src/stm32l4xx_hal_rcc_ex.c ****     /* Configure the PLLSAI2 Clock output(s) */
2224:Drivers/STM32L4xx_HAL_Driver/Src/stm32l4xx_hal_rcc_ex.c ****     __HAL_RCC_PLLSAI2CLKOUT_ENABLE(PLLSAI2Init->PLLSAI2ClockOut);
 3775              		.loc 1 2224 5
 3776 0084 124B     		ldr	r3, .L354
 3777 0086 5A69     		ldr	r2, [r3, #20]
 3778 0088 7B68     		ldr	r3, [r7, #4]
 3779 008a 9B69     		ldr	r3, [r3, #24]
 3780 008c 1049     		ldr	r1, .L354
 3781 008e 1343     		orrs	r3, r3, r2
 3782 0090 4B61     		str	r3, [r1, #20]
2225:Drivers/STM32L4xx_HAL_Driver/Src/stm32l4xx_hal_rcc_ex.c **** 
2226:Drivers/STM32L4xx_HAL_Driver/Src/stm32l4xx_hal_rcc_ex.c ****     /* Enable the PLLSAI2 again by setting PLLSAI2ON to 1*/
2227:Drivers/STM32L4xx_HAL_Driver/Src/stm32l4xx_hal_rcc_ex.c ****     __HAL_RCC_PLLSAI2_ENABLE();
 3783              		.loc 1 2227 5
 3784 0092 0F4B     		ldr	r3, .L354
 3785 0094 1B68     		ldr	r3, [r3]
 3786 0096 0E4A     		ldr	r2, .L354
 3787 0098 43F08053 		orr	r3, r3, #268435456
 3788 009c 1360     		str	r3, [r2]
2228:Drivers/STM32L4xx_HAL_Driver/Src/stm32l4xx_hal_rcc_ex.c **** 
2229:Drivers/STM32L4xx_HAL_Driver/Src/stm32l4xx_hal_rcc_ex.c ****     /* Get Start Tick*/
2230:Drivers/STM32L4xx_HAL_Driver/Src/stm32l4xx_hal_rcc_ex.c ****     tickstart = HAL_GetTick();
 3789              		.loc 1 2230 17
 3790 009e FFF7FEFF 		bl	HAL_GetTick
 3791 00a2 B860     		str	r0, [r7, #8]
2231:Drivers/STM32L4xx_HAL_Driver/Src/stm32l4xx_hal_rcc_ex.c **** 
2232:Drivers/STM32L4xx_HAL_Driver/Src/stm32l4xx_hal_rcc_ex.c ****     /* Wait till PLLSAI2 is ready */
2233:Drivers/STM32L4xx_HAL_Driver/Src/stm32l4xx_hal_rcc_ex.c ****     while(READ_BIT(RCC->CR, RCC_CR_PLLSAI2RDY) == 0U)
 3792              		.loc 1 2233 10
 3793 00a4 09E0     		b	.L351
 3794              	.L352:
2234:Drivers/STM32L4xx_HAL_Driver/Src/stm32l4xx_hal_rcc_ex.c ****     {
2235:Drivers/STM32L4xx_HAL_Driver/Src/stm32l4xx_hal_rcc_ex.c ****       if((HAL_GetTick() - tickstart) > PLLSAI2_TIMEOUT_VALUE)
 3795              		.loc 1 2235 11
 3796 00a6 FFF7FEFF 		bl	HAL_GetTick
 3797 00aa 0246     		mov	r2, r0
 3798              		.loc 1 2235 25
 3799 00ac BB68     		ldr	r3, [r7, #8]
ARM GAS  C:\Users\Morroway\AppData\Local\Temp\ccOmimY8.s 			page 115


 3800 00ae D31A     		subs	r3, r2, r3
 3801              		.loc 1 2235 9
 3802 00b0 022B     		cmp	r3, #2
 3803 00b2 02D9     		bls	.L351
2236:Drivers/STM32L4xx_HAL_Driver/Src/stm32l4xx_hal_rcc_ex.c ****       {
2237:Drivers/STM32L4xx_HAL_Driver/Src/stm32l4xx_hal_rcc_ex.c ****         status = HAL_TIMEOUT;
 3804              		.loc 1 2237 16
 3805 00b4 0323     		movs	r3, #3
 3806 00b6 FB73     		strb	r3, [r7, #15]
2238:Drivers/STM32L4xx_HAL_Driver/Src/stm32l4xx_hal_rcc_ex.c ****         break;
 3807              		.loc 1 2238 9
 3808 00b8 05E0     		b	.L350
 3809              	.L351:
2233:Drivers/STM32L4xx_HAL_Driver/Src/stm32l4xx_hal_rcc_ex.c ****     {
 3810              		.loc 1 2233 11
 3811 00ba 054B     		ldr	r3, .L354
 3812 00bc 1B68     		ldr	r3, [r3]
 3813 00be 03F00053 		and	r3, r3, #536870912
2233:Drivers/STM32L4xx_HAL_Driver/Src/stm32l4xx_hal_rcc_ex.c ****     {
 3814              		.loc 1 2233 48
 3815 00c2 002B     		cmp	r3, #0
 3816 00c4 EFD0     		beq	.L352
 3817              	.L350:
2239:Drivers/STM32L4xx_HAL_Driver/Src/stm32l4xx_hal_rcc_ex.c ****       }
2240:Drivers/STM32L4xx_HAL_Driver/Src/stm32l4xx_hal_rcc_ex.c ****     }
2241:Drivers/STM32L4xx_HAL_Driver/Src/stm32l4xx_hal_rcc_ex.c ****   }
2242:Drivers/STM32L4xx_HAL_Driver/Src/stm32l4xx_hal_rcc_ex.c **** 
2243:Drivers/STM32L4xx_HAL_Driver/Src/stm32l4xx_hal_rcc_ex.c ****   return status;
 3818              		.loc 1 2243 10
 3819 00c6 FB7B     		ldrb	r3, [r7, #15]	@ zero_extendqisi2
2244:Drivers/STM32L4xx_HAL_Driver/Src/stm32l4xx_hal_rcc_ex.c **** }
 3820              		.loc 1 2244 1
 3821 00c8 1846     		mov	r0, r3
 3822 00ca 1037     		adds	r7, r7, #16
 3823              		.cfi_def_cfa_offset 8
 3824 00cc BD46     		mov	sp, r7
 3825              		.cfi_def_cfa_register 13
 3826              		@ sp needed
 3827 00ce 80BD     		pop	{r7, pc}
 3828              	.L355:
 3829              		.align	2
 3830              	.L354:
 3831 00d0 00100240 		.word	1073876992
 3832 00d4 0F809D01 		.word	27099151
 3833              		.cfi_endproc
 3834              	.LFE326:
 3836              		.section	.text.HAL_RCCEx_DisablePLLSAI2,"ax",%progbits
 3837              		.align	1
 3838              		.global	HAL_RCCEx_DisablePLLSAI2
 3839              		.syntax unified
 3840              		.thumb
 3841              		.thumb_func
 3843              	HAL_RCCEx_DisablePLLSAI2:
 3844              	.LFB327:
2245:Drivers/STM32L4xx_HAL_Driver/Src/stm32l4xx_hal_rcc_ex.c **** 
2246:Drivers/STM32L4xx_HAL_Driver/Src/stm32l4xx_hal_rcc_ex.c **** /**
2247:Drivers/STM32L4xx_HAL_Driver/Src/stm32l4xx_hal_rcc_ex.c ****   * @brief  Disable PLLISAI2.
ARM GAS  C:\Users\Morroway\AppData\Local\Temp\ccOmimY8.s 			page 116


2248:Drivers/STM32L4xx_HAL_Driver/Src/stm32l4xx_hal_rcc_ex.c ****   * @retval HAL status
2249:Drivers/STM32L4xx_HAL_Driver/Src/stm32l4xx_hal_rcc_ex.c ****   */
2250:Drivers/STM32L4xx_HAL_Driver/Src/stm32l4xx_hal_rcc_ex.c **** HAL_StatusTypeDef HAL_RCCEx_DisablePLLSAI2(void)
2251:Drivers/STM32L4xx_HAL_Driver/Src/stm32l4xx_hal_rcc_ex.c **** {
 3845              		.loc 1 2251 1
 3846              		.cfi_startproc
 3847              		@ args = 0, pretend = 0, frame = 8
 3848              		@ frame_needed = 1, uses_anonymous_args = 0
 3849 0000 80B5     		push	{r7, lr}
 3850              		.cfi_def_cfa_offset 8
 3851              		.cfi_offset 7, -8
 3852              		.cfi_offset 14, -4
 3853 0002 82B0     		sub	sp, sp, #8
 3854              		.cfi_def_cfa_offset 16
 3855 0004 00AF     		add	r7, sp, #0
 3856              		.cfi_def_cfa_register 7
2252:Drivers/STM32L4xx_HAL_Driver/Src/stm32l4xx_hal_rcc_ex.c ****   uint32_t tickstart;
2253:Drivers/STM32L4xx_HAL_Driver/Src/stm32l4xx_hal_rcc_ex.c ****   HAL_StatusTypeDef status = HAL_OK;
 3857              		.loc 1 2253 21
 3858 0006 0023     		movs	r3, #0
 3859 0008 FB71     		strb	r3, [r7, #7]
2254:Drivers/STM32L4xx_HAL_Driver/Src/stm32l4xx_hal_rcc_ex.c **** 
2255:Drivers/STM32L4xx_HAL_Driver/Src/stm32l4xx_hal_rcc_ex.c ****   /* Disable the PLLSAI2 */
2256:Drivers/STM32L4xx_HAL_Driver/Src/stm32l4xx_hal_rcc_ex.c ****   __HAL_RCC_PLLSAI2_DISABLE();
 3860              		.loc 1 2256 3
 3861 000a 194B     		ldr	r3, .L362
 3862 000c 1B68     		ldr	r3, [r3]
 3863 000e 184A     		ldr	r2, .L362
 3864 0010 23F08053 		bic	r3, r3, #268435456
 3865 0014 1360     		str	r3, [r2]
2257:Drivers/STM32L4xx_HAL_Driver/Src/stm32l4xx_hal_rcc_ex.c **** 
2258:Drivers/STM32L4xx_HAL_Driver/Src/stm32l4xx_hal_rcc_ex.c ****   /* Get Start Tick*/
2259:Drivers/STM32L4xx_HAL_Driver/Src/stm32l4xx_hal_rcc_ex.c ****   tickstart = HAL_GetTick();
 3866              		.loc 1 2259 15
 3867 0016 FFF7FEFF 		bl	HAL_GetTick
 3868 001a 3860     		str	r0, [r7]
2260:Drivers/STM32L4xx_HAL_Driver/Src/stm32l4xx_hal_rcc_ex.c **** 
2261:Drivers/STM32L4xx_HAL_Driver/Src/stm32l4xx_hal_rcc_ex.c ****   /* Wait till PLLSAI2 is ready */
2262:Drivers/STM32L4xx_HAL_Driver/Src/stm32l4xx_hal_rcc_ex.c ****   while(READ_BIT(RCC->CR, RCC_CR_PLLSAI2RDY) != 0U)
 3869              		.loc 1 2262 8
 3870 001c 09E0     		b	.L357
 3871              	.L359:
2263:Drivers/STM32L4xx_HAL_Driver/Src/stm32l4xx_hal_rcc_ex.c ****   {
2264:Drivers/STM32L4xx_HAL_Driver/Src/stm32l4xx_hal_rcc_ex.c ****     if((HAL_GetTick() - tickstart) > PLLSAI2_TIMEOUT_VALUE)
 3872              		.loc 1 2264 9
 3873 001e FFF7FEFF 		bl	HAL_GetTick
 3874 0022 0246     		mov	r2, r0
 3875              		.loc 1 2264 23
 3876 0024 3B68     		ldr	r3, [r7]
 3877 0026 D31A     		subs	r3, r2, r3
 3878              		.loc 1 2264 7
 3879 0028 022B     		cmp	r3, #2
 3880 002a 02D9     		bls	.L357
2265:Drivers/STM32L4xx_HAL_Driver/Src/stm32l4xx_hal_rcc_ex.c ****     {
2266:Drivers/STM32L4xx_HAL_Driver/Src/stm32l4xx_hal_rcc_ex.c ****       status = HAL_TIMEOUT;
 3881              		.loc 1 2266 14
 3882 002c 0323     		movs	r3, #3
ARM GAS  C:\Users\Morroway\AppData\Local\Temp\ccOmimY8.s 			page 117


 3883 002e FB71     		strb	r3, [r7, #7]
2267:Drivers/STM32L4xx_HAL_Driver/Src/stm32l4xx_hal_rcc_ex.c ****       break;
 3884              		.loc 1 2267 7
 3885 0030 05E0     		b	.L358
 3886              	.L357:
2262:Drivers/STM32L4xx_HAL_Driver/Src/stm32l4xx_hal_rcc_ex.c ****   {
 3887              		.loc 1 2262 9
 3888 0032 0F4B     		ldr	r3, .L362
 3889 0034 1B68     		ldr	r3, [r3]
 3890 0036 03F00053 		and	r3, r3, #536870912
2262:Drivers/STM32L4xx_HAL_Driver/Src/stm32l4xx_hal_rcc_ex.c ****   {
 3891              		.loc 1 2262 46
 3892 003a 002B     		cmp	r3, #0
 3893 003c EFD1     		bne	.L359
 3894              	.L358:
2268:Drivers/STM32L4xx_HAL_Driver/Src/stm32l4xx_hal_rcc_ex.c ****     }
2269:Drivers/STM32L4xx_HAL_Driver/Src/stm32l4xx_hal_rcc_ex.c ****   }
2270:Drivers/STM32L4xx_HAL_Driver/Src/stm32l4xx_hal_rcc_ex.c **** 
2271:Drivers/STM32L4xx_HAL_Driver/Src/stm32l4xx_hal_rcc_ex.c ****   /* Disable the PLLSAI2 Clock outputs */
2272:Drivers/STM32L4xx_HAL_Driver/Src/stm32l4xx_hal_rcc_ex.c **** #if defined(RCC_PLLSAI2Q_DIV_SUPPORT)
2273:Drivers/STM32L4xx_HAL_Driver/Src/stm32l4xx_hal_rcc_ex.c ****   __HAL_RCC_PLLSAI2CLKOUT_DISABLE(RCC_PLLSAI2CFGR_PLLSAI2PEN|RCC_PLLSAI2CFGR_PLLSAI2QEN|RCC_PLLSAI2
 3895              		.loc 1 2273 3
 3896 003e 0C4B     		ldr	r3, .L362
 3897 0040 5B69     		ldr	r3, [r3, #20]
 3898 0042 0B4A     		ldr	r2, .L362
 3899 0044 23F08873 		bic	r3, r3, #17825792
 3900 0048 23F48033 		bic	r3, r3, #65536
 3901 004c 5361     		str	r3, [r2, #20]
2274:Drivers/STM32L4xx_HAL_Driver/Src/stm32l4xx_hal_rcc_ex.c **** #else
2275:Drivers/STM32L4xx_HAL_Driver/Src/stm32l4xx_hal_rcc_ex.c ****   __HAL_RCC_PLLSAI2CLKOUT_DISABLE(RCC_PLLSAI2CFGR_PLLSAI2PEN|RCC_PLLSAI2CFGR_PLLSAI2REN);
2276:Drivers/STM32L4xx_HAL_Driver/Src/stm32l4xx_hal_rcc_ex.c **** #endif /* RCC_PLLSAI2M_DIV_1_16_SUPPORT && RCC_PLLSAI2Q_DIV_SUPPORT */
2277:Drivers/STM32L4xx_HAL_Driver/Src/stm32l4xx_hal_rcc_ex.c **** 
2278:Drivers/STM32L4xx_HAL_Driver/Src/stm32l4xx_hal_rcc_ex.c ****   /* Reset PLL source to save power if no PLLs on */
2279:Drivers/STM32L4xx_HAL_Driver/Src/stm32l4xx_hal_rcc_ex.c ****   if(READ_BIT(RCC->CR, (RCC_CR_PLLRDY | RCC_CR_PLLSAI1RDY)) == 0U)
 3902              		.loc 1 2279 6
 3903 004e 084B     		ldr	r3, .L362
 3904 0050 1B68     		ldr	r3, [r3]
 3905 0052 03F02063 		and	r3, r3, #167772160
 3906              		.loc 1 2279 5
 3907 0056 002B     		cmp	r3, #0
 3908 0058 05D1     		bne	.L360
2280:Drivers/STM32L4xx_HAL_Driver/Src/stm32l4xx_hal_rcc_ex.c ****   {
2281:Drivers/STM32L4xx_HAL_Driver/Src/stm32l4xx_hal_rcc_ex.c ****     MODIFY_REG(RCC->PLLCFGR, RCC_PLLCFGR_PLLSRC, RCC_PLLSOURCE_NONE);
 3909              		.loc 1 2281 5
 3910 005a 054B     		ldr	r3, .L362
 3911 005c DB68     		ldr	r3, [r3, #12]
 3912 005e 044A     		ldr	r2, .L362
 3913 0060 23F00303 		bic	r3, r3, #3
 3914 0064 D360     		str	r3, [r2, #12]
 3915              	.L360:
2282:Drivers/STM32L4xx_HAL_Driver/Src/stm32l4xx_hal_rcc_ex.c ****   }
2283:Drivers/STM32L4xx_HAL_Driver/Src/stm32l4xx_hal_rcc_ex.c **** 
2284:Drivers/STM32L4xx_HAL_Driver/Src/stm32l4xx_hal_rcc_ex.c ****   return status;
 3916              		.loc 1 2284 10
 3917 0066 FB79     		ldrb	r3, [r7, #7]	@ zero_extendqisi2
2285:Drivers/STM32L4xx_HAL_Driver/Src/stm32l4xx_hal_rcc_ex.c **** }
 3918              		.loc 1 2285 1
ARM GAS  C:\Users\Morroway\AppData\Local\Temp\ccOmimY8.s 			page 118


 3919 0068 1846     		mov	r0, r3
 3920 006a 0837     		adds	r7, r7, #8
 3921              		.cfi_def_cfa_offset 8
 3922 006c BD46     		mov	sp, r7
 3923              		.cfi_def_cfa_register 13
 3924              		@ sp needed
 3925 006e 80BD     		pop	{r7, pc}
 3926              	.L363:
 3927              		.align	2
 3928              	.L362:
 3929 0070 00100240 		.word	1073876992
 3930              		.cfi_endproc
 3931              	.LFE327:
 3933              		.section	.text.HAL_RCCEx_WakeUpStopCLKConfig,"ax",%progbits
 3934              		.align	1
 3935              		.global	HAL_RCCEx_WakeUpStopCLKConfig
 3936              		.syntax unified
 3937              		.thumb
 3938              		.thumb_func
 3940              	HAL_RCCEx_WakeUpStopCLKConfig:
 3941              	.LFB328:
2286:Drivers/STM32L4xx_HAL_Driver/Src/stm32l4xx_hal_rcc_ex.c **** 
2287:Drivers/STM32L4xx_HAL_Driver/Src/stm32l4xx_hal_rcc_ex.c **** #endif /* RCC_PLLSAI2_SUPPORT */
2288:Drivers/STM32L4xx_HAL_Driver/Src/stm32l4xx_hal_rcc_ex.c **** 
2289:Drivers/STM32L4xx_HAL_Driver/Src/stm32l4xx_hal_rcc_ex.c **** /**
2290:Drivers/STM32L4xx_HAL_Driver/Src/stm32l4xx_hal_rcc_ex.c ****   * @brief  Configure the oscillator clock source for wakeup from Stop and CSS backup clock.
2291:Drivers/STM32L4xx_HAL_Driver/Src/stm32l4xx_hal_rcc_ex.c ****   * @param  WakeUpClk  Wakeup clock
2292:Drivers/STM32L4xx_HAL_Driver/Src/stm32l4xx_hal_rcc_ex.c ****   *         This parameter can be one of the following values:
2293:Drivers/STM32L4xx_HAL_Driver/Src/stm32l4xx_hal_rcc_ex.c ****   *            @arg @ref RCC_STOP_WAKEUPCLOCK_MSI  MSI oscillator selection
2294:Drivers/STM32L4xx_HAL_Driver/Src/stm32l4xx_hal_rcc_ex.c ****   *            @arg @ref RCC_STOP_WAKEUPCLOCK_HSI  HSI oscillator selection
2295:Drivers/STM32L4xx_HAL_Driver/Src/stm32l4xx_hal_rcc_ex.c ****   * @note   This function shall not be called after the Clock Security System on HSE has been
2296:Drivers/STM32L4xx_HAL_Driver/Src/stm32l4xx_hal_rcc_ex.c ****   *         enabled.
2297:Drivers/STM32L4xx_HAL_Driver/Src/stm32l4xx_hal_rcc_ex.c ****   * @retval None
2298:Drivers/STM32L4xx_HAL_Driver/Src/stm32l4xx_hal_rcc_ex.c ****   */
2299:Drivers/STM32L4xx_HAL_Driver/Src/stm32l4xx_hal_rcc_ex.c **** void HAL_RCCEx_WakeUpStopCLKConfig(uint32_t WakeUpClk)
2300:Drivers/STM32L4xx_HAL_Driver/Src/stm32l4xx_hal_rcc_ex.c **** {
 3942              		.loc 1 2300 1
 3943              		.cfi_startproc
 3944              		@ args = 0, pretend = 0, frame = 8
 3945              		@ frame_needed = 1, uses_anonymous_args = 0
 3946              		@ link register save eliminated.
 3947 0000 80B4     		push	{r7}
 3948              		.cfi_def_cfa_offset 4
 3949              		.cfi_offset 7, -4
 3950 0002 83B0     		sub	sp, sp, #12
 3951              		.cfi_def_cfa_offset 16
 3952 0004 00AF     		add	r7, sp, #0
 3953              		.cfi_def_cfa_register 7
 3954 0006 7860     		str	r0, [r7, #4]
2301:Drivers/STM32L4xx_HAL_Driver/Src/stm32l4xx_hal_rcc_ex.c ****   assert_param(IS_RCC_STOP_WAKEUPCLOCK(WakeUpClk));
2302:Drivers/STM32L4xx_HAL_Driver/Src/stm32l4xx_hal_rcc_ex.c **** 
2303:Drivers/STM32L4xx_HAL_Driver/Src/stm32l4xx_hal_rcc_ex.c ****   __HAL_RCC_WAKEUPSTOP_CLK_CONFIG(WakeUpClk);
 3955              		.loc 1 2303 3
 3956 0008 064B     		ldr	r3, .L365
 3957 000a 9B68     		ldr	r3, [r3, #8]
 3958 000c 23F40042 		bic	r2, r3, #32768
 3959 0010 0449     		ldr	r1, .L365
ARM GAS  C:\Users\Morroway\AppData\Local\Temp\ccOmimY8.s 			page 119


 3960 0012 7B68     		ldr	r3, [r7, #4]
 3961 0014 1343     		orrs	r3, r3, r2
 3962 0016 8B60     		str	r3, [r1, #8]
2304:Drivers/STM32L4xx_HAL_Driver/Src/stm32l4xx_hal_rcc_ex.c **** }
 3963              		.loc 1 2304 1
 3964 0018 00BF     		nop
 3965 001a 0C37     		adds	r7, r7, #12
 3966              		.cfi_def_cfa_offset 4
 3967 001c BD46     		mov	sp, r7
 3968              		.cfi_def_cfa_register 13
 3969              		@ sp needed
 3970 001e 5DF8047B 		ldr	r7, [sp], #4
 3971              		.cfi_restore 7
 3972              		.cfi_def_cfa_offset 0
 3973 0022 7047     		bx	lr
 3974              	.L366:
 3975              		.align	2
 3976              	.L365:
 3977 0024 00100240 		.word	1073876992
 3978              		.cfi_endproc
 3979              	.LFE328:
 3981              		.section	.text.HAL_RCCEx_StandbyMSIRangeConfig,"ax",%progbits
 3982              		.align	1
 3983              		.global	HAL_RCCEx_StandbyMSIRangeConfig
 3984              		.syntax unified
 3985              		.thumb
 3986              		.thumb_func
 3988              	HAL_RCCEx_StandbyMSIRangeConfig:
 3989              	.LFB329:
2305:Drivers/STM32L4xx_HAL_Driver/Src/stm32l4xx_hal_rcc_ex.c **** 
2306:Drivers/STM32L4xx_HAL_Driver/Src/stm32l4xx_hal_rcc_ex.c **** /**
2307:Drivers/STM32L4xx_HAL_Driver/Src/stm32l4xx_hal_rcc_ex.c ****   * @brief  Configure the MSI range after standby mode.
2308:Drivers/STM32L4xx_HAL_Driver/Src/stm32l4xx_hal_rcc_ex.c ****   * @note   After Standby its frequency can be selected between 4 possible values (1, 2, 4 or 8 MHz
2309:Drivers/STM32L4xx_HAL_Driver/Src/stm32l4xx_hal_rcc_ex.c ****   * @param  MSIRange  MSI range
2310:Drivers/STM32L4xx_HAL_Driver/Src/stm32l4xx_hal_rcc_ex.c ****   *         This parameter can be one of the following values:
2311:Drivers/STM32L4xx_HAL_Driver/Src/stm32l4xx_hal_rcc_ex.c ****   *            @arg @ref RCC_MSIRANGE_4  Range 4 around 1 MHz
2312:Drivers/STM32L4xx_HAL_Driver/Src/stm32l4xx_hal_rcc_ex.c ****   *            @arg @ref RCC_MSIRANGE_5  Range 5 around 2 MHz
2313:Drivers/STM32L4xx_HAL_Driver/Src/stm32l4xx_hal_rcc_ex.c ****   *            @arg @ref RCC_MSIRANGE_6  Range 6 around 4 MHz (reset value)
2314:Drivers/STM32L4xx_HAL_Driver/Src/stm32l4xx_hal_rcc_ex.c ****   *            @arg @ref RCC_MSIRANGE_7  Range 7 around 8 MHz
2315:Drivers/STM32L4xx_HAL_Driver/Src/stm32l4xx_hal_rcc_ex.c ****   * @retval None
2316:Drivers/STM32L4xx_HAL_Driver/Src/stm32l4xx_hal_rcc_ex.c ****   */
2317:Drivers/STM32L4xx_HAL_Driver/Src/stm32l4xx_hal_rcc_ex.c **** void HAL_RCCEx_StandbyMSIRangeConfig(uint32_t MSIRange)
2318:Drivers/STM32L4xx_HAL_Driver/Src/stm32l4xx_hal_rcc_ex.c **** {
 3990              		.loc 1 2318 1
 3991              		.cfi_startproc
 3992              		@ args = 0, pretend = 0, frame = 8
 3993              		@ frame_needed = 1, uses_anonymous_args = 0
 3994              		@ link register save eliminated.
 3995 0000 80B4     		push	{r7}
 3996              		.cfi_def_cfa_offset 4
 3997              		.cfi_offset 7, -4
 3998 0002 83B0     		sub	sp, sp, #12
 3999              		.cfi_def_cfa_offset 16
 4000 0004 00AF     		add	r7, sp, #0
 4001              		.cfi_def_cfa_register 7
 4002 0006 7860     		str	r0, [r7, #4]
2319:Drivers/STM32L4xx_HAL_Driver/Src/stm32l4xx_hal_rcc_ex.c ****   assert_param(IS_RCC_MSI_STANDBY_CLOCK_RANGE(MSIRange));
ARM GAS  C:\Users\Morroway\AppData\Local\Temp\ccOmimY8.s 			page 120


2320:Drivers/STM32L4xx_HAL_Driver/Src/stm32l4xx_hal_rcc_ex.c **** 
2321:Drivers/STM32L4xx_HAL_Driver/Src/stm32l4xx_hal_rcc_ex.c ****   __HAL_RCC_MSI_STANDBY_RANGE_CONFIG(MSIRange);
 4003              		.loc 1 2321 3
 4004 0008 084B     		ldr	r3, .L368
 4005 000a D3F89430 		ldr	r3, [r3, #148]
 4006 000e 23F47062 		bic	r2, r3, #3840
 4007 0012 7B68     		ldr	r3, [r7, #4]
 4008 0014 1B01     		lsls	r3, r3, #4
 4009 0016 0549     		ldr	r1, .L368
 4010 0018 1343     		orrs	r3, r3, r2
 4011 001a C1F89430 		str	r3, [r1, #148]
2322:Drivers/STM32L4xx_HAL_Driver/Src/stm32l4xx_hal_rcc_ex.c **** }
 4012              		.loc 1 2322 1
 4013 001e 00BF     		nop
 4014 0020 0C37     		adds	r7, r7, #12
 4015              		.cfi_def_cfa_offset 4
 4016 0022 BD46     		mov	sp, r7
 4017              		.cfi_def_cfa_register 13
 4018              		@ sp needed
 4019 0024 5DF8047B 		ldr	r7, [sp], #4
 4020              		.cfi_restore 7
 4021              		.cfi_def_cfa_offset 0
 4022 0028 7047     		bx	lr
 4023              	.L369:
 4024 002a 00BF     		.align	2
 4025              	.L368:
 4026 002c 00100240 		.word	1073876992
 4027              		.cfi_endproc
 4028              	.LFE329:
 4030              		.section	.text.HAL_RCCEx_EnableLSECSS,"ax",%progbits
 4031              		.align	1
 4032              		.global	HAL_RCCEx_EnableLSECSS
 4033              		.syntax unified
 4034              		.thumb
 4035              		.thumb_func
 4037              	HAL_RCCEx_EnableLSECSS:
 4038              	.LFB330:
2323:Drivers/STM32L4xx_HAL_Driver/Src/stm32l4xx_hal_rcc_ex.c **** 
2324:Drivers/STM32L4xx_HAL_Driver/Src/stm32l4xx_hal_rcc_ex.c **** /**
2325:Drivers/STM32L4xx_HAL_Driver/Src/stm32l4xx_hal_rcc_ex.c ****   * @brief  Enable the LSE Clock Security System.
2326:Drivers/STM32L4xx_HAL_Driver/Src/stm32l4xx_hal_rcc_ex.c ****   * @note   Prior to enable the LSE Clock Security System, LSE oscillator is to be enabled
2327:Drivers/STM32L4xx_HAL_Driver/Src/stm32l4xx_hal_rcc_ex.c ****   *         with HAL_RCC_OscConfig() and the LSE oscillator clock is to be selected as RTC
2328:Drivers/STM32L4xx_HAL_Driver/Src/stm32l4xx_hal_rcc_ex.c ****   *         clock with HAL_RCCEx_PeriphCLKConfig().
2329:Drivers/STM32L4xx_HAL_Driver/Src/stm32l4xx_hal_rcc_ex.c ****   * @retval None
2330:Drivers/STM32L4xx_HAL_Driver/Src/stm32l4xx_hal_rcc_ex.c ****   */
2331:Drivers/STM32L4xx_HAL_Driver/Src/stm32l4xx_hal_rcc_ex.c **** void HAL_RCCEx_EnableLSECSS(void)
2332:Drivers/STM32L4xx_HAL_Driver/Src/stm32l4xx_hal_rcc_ex.c **** {
 4039              		.loc 1 2332 1
 4040              		.cfi_startproc
 4041              		@ args = 0, pretend = 0, frame = 0
 4042              		@ frame_needed = 1, uses_anonymous_args = 0
 4043              		@ link register save eliminated.
 4044 0000 80B4     		push	{r7}
 4045              		.cfi_def_cfa_offset 4
 4046              		.cfi_offset 7, -4
 4047 0002 00AF     		add	r7, sp, #0
 4048              		.cfi_def_cfa_register 7
ARM GAS  C:\Users\Morroway\AppData\Local\Temp\ccOmimY8.s 			page 121


2333:Drivers/STM32L4xx_HAL_Driver/Src/stm32l4xx_hal_rcc_ex.c ****   SET_BIT(RCC->BDCR, RCC_BDCR_LSECSSON);
 4049              		.loc 1 2333 3
 4050 0004 064B     		ldr	r3, .L371
 4051 0006 D3F89030 		ldr	r3, [r3, #144]
 4052 000a 054A     		ldr	r2, .L371
 4053 000c 43F02003 		orr	r3, r3, #32
 4054 0010 C2F89030 		str	r3, [r2, #144]
2334:Drivers/STM32L4xx_HAL_Driver/Src/stm32l4xx_hal_rcc_ex.c **** }
 4055              		.loc 1 2334 1
 4056 0014 00BF     		nop
 4057 0016 BD46     		mov	sp, r7
 4058              		.cfi_def_cfa_register 13
 4059              		@ sp needed
 4060 0018 5DF8047B 		ldr	r7, [sp], #4
 4061              		.cfi_restore 7
 4062              		.cfi_def_cfa_offset 0
 4063 001c 7047     		bx	lr
 4064              	.L372:
 4065 001e 00BF     		.align	2
 4066              	.L371:
 4067 0020 00100240 		.word	1073876992
 4068              		.cfi_endproc
 4069              	.LFE330:
 4071              		.section	.text.HAL_RCCEx_DisableLSECSS,"ax",%progbits
 4072              		.align	1
 4073              		.global	HAL_RCCEx_DisableLSECSS
 4074              		.syntax unified
 4075              		.thumb
 4076              		.thumb_func
 4078              	HAL_RCCEx_DisableLSECSS:
 4079              	.LFB331:
2335:Drivers/STM32L4xx_HAL_Driver/Src/stm32l4xx_hal_rcc_ex.c **** 
2336:Drivers/STM32L4xx_HAL_Driver/Src/stm32l4xx_hal_rcc_ex.c **** /**
2337:Drivers/STM32L4xx_HAL_Driver/Src/stm32l4xx_hal_rcc_ex.c ****   * @brief  Disable the LSE Clock Security System.
2338:Drivers/STM32L4xx_HAL_Driver/Src/stm32l4xx_hal_rcc_ex.c ****   * @note   LSE Clock Security System can only be disabled after a LSE failure detection.
2339:Drivers/STM32L4xx_HAL_Driver/Src/stm32l4xx_hal_rcc_ex.c ****   * @retval None
2340:Drivers/STM32L4xx_HAL_Driver/Src/stm32l4xx_hal_rcc_ex.c ****   */
2341:Drivers/STM32L4xx_HAL_Driver/Src/stm32l4xx_hal_rcc_ex.c **** void HAL_RCCEx_DisableLSECSS(void)
2342:Drivers/STM32L4xx_HAL_Driver/Src/stm32l4xx_hal_rcc_ex.c **** {
 4080              		.loc 1 2342 1
 4081              		.cfi_startproc
 4082              		@ args = 0, pretend = 0, frame = 0
 4083              		@ frame_needed = 1, uses_anonymous_args = 0
 4084              		@ link register save eliminated.
 4085 0000 80B4     		push	{r7}
 4086              		.cfi_def_cfa_offset 4
 4087              		.cfi_offset 7, -4
 4088 0002 00AF     		add	r7, sp, #0
 4089              		.cfi_def_cfa_register 7
2343:Drivers/STM32L4xx_HAL_Driver/Src/stm32l4xx_hal_rcc_ex.c ****   CLEAR_BIT(RCC->BDCR, RCC_BDCR_LSECSSON) ;
 4090              		.loc 1 2343 3
 4091 0004 094B     		ldr	r3, .L374
 4092 0006 D3F89030 		ldr	r3, [r3, #144]
 4093 000a 084A     		ldr	r2, .L374
 4094 000c 23F02003 		bic	r3, r3, #32
 4095 0010 C2F89030 		str	r3, [r2, #144]
2344:Drivers/STM32L4xx_HAL_Driver/Src/stm32l4xx_hal_rcc_ex.c **** 
ARM GAS  C:\Users\Morroway\AppData\Local\Temp\ccOmimY8.s 			page 122


2345:Drivers/STM32L4xx_HAL_Driver/Src/stm32l4xx_hal_rcc_ex.c ****   /* Disable LSE CSS IT if any */
2346:Drivers/STM32L4xx_HAL_Driver/Src/stm32l4xx_hal_rcc_ex.c ****   __HAL_RCC_DISABLE_IT(RCC_IT_LSECSS);
 4096              		.loc 1 2346 3
 4097 0014 054B     		ldr	r3, .L374
 4098 0016 9B69     		ldr	r3, [r3, #24]
 4099 0018 044A     		ldr	r2, .L374
 4100 001a 23F40073 		bic	r3, r3, #512
 4101 001e 9361     		str	r3, [r2, #24]
2347:Drivers/STM32L4xx_HAL_Driver/Src/stm32l4xx_hal_rcc_ex.c **** }
 4102              		.loc 1 2347 1
 4103 0020 00BF     		nop
 4104 0022 BD46     		mov	sp, r7
 4105              		.cfi_def_cfa_register 13
 4106              		@ sp needed
 4107 0024 5DF8047B 		ldr	r7, [sp], #4
 4108              		.cfi_restore 7
 4109              		.cfi_def_cfa_offset 0
 4110 0028 7047     		bx	lr
 4111              	.L375:
 4112 002a 00BF     		.align	2
 4113              	.L374:
 4114 002c 00100240 		.word	1073876992
 4115              		.cfi_endproc
 4116              	.LFE331:
 4118              		.section	.text.HAL_RCCEx_EnableLSECSS_IT,"ax",%progbits
 4119              		.align	1
 4120              		.global	HAL_RCCEx_EnableLSECSS_IT
 4121              		.syntax unified
 4122              		.thumb
 4123              		.thumb_func
 4125              	HAL_RCCEx_EnableLSECSS_IT:
 4126              	.LFB332:
2348:Drivers/STM32L4xx_HAL_Driver/Src/stm32l4xx_hal_rcc_ex.c **** 
2349:Drivers/STM32L4xx_HAL_Driver/Src/stm32l4xx_hal_rcc_ex.c **** /**
2350:Drivers/STM32L4xx_HAL_Driver/Src/stm32l4xx_hal_rcc_ex.c ****   * @brief  Enable the LSE Clock Security System Interrupt & corresponding EXTI line.
2351:Drivers/STM32L4xx_HAL_Driver/Src/stm32l4xx_hal_rcc_ex.c ****   * @note   LSE Clock Security System Interrupt is mapped on RTC EXTI line 19
2352:Drivers/STM32L4xx_HAL_Driver/Src/stm32l4xx_hal_rcc_ex.c ****   * @retval None
2353:Drivers/STM32L4xx_HAL_Driver/Src/stm32l4xx_hal_rcc_ex.c ****   */
2354:Drivers/STM32L4xx_HAL_Driver/Src/stm32l4xx_hal_rcc_ex.c **** void HAL_RCCEx_EnableLSECSS_IT(void)
2355:Drivers/STM32L4xx_HAL_Driver/Src/stm32l4xx_hal_rcc_ex.c **** {
 4127              		.loc 1 2355 1
 4128              		.cfi_startproc
 4129              		@ args = 0, pretend = 0, frame = 0
 4130              		@ frame_needed = 1, uses_anonymous_args = 0
 4131              		@ link register save eliminated.
 4132 0000 80B4     		push	{r7}
 4133              		.cfi_def_cfa_offset 4
 4134              		.cfi_offset 7, -4
 4135 0002 00AF     		add	r7, sp, #0
 4136              		.cfi_def_cfa_register 7
2356:Drivers/STM32L4xx_HAL_Driver/Src/stm32l4xx_hal_rcc_ex.c ****   /* Enable LSE CSS */
2357:Drivers/STM32L4xx_HAL_Driver/Src/stm32l4xx_hal_rcc_ex.c ****   SET_BIT(RCC->BDCR, RCC_BDCR_LSECSSON) ;
 4137              		.loc 1 2357 3
 4138 0004 0F4B     		ldr	r3, .L377
 4139 0006 D3F89030 		ldr	r3, [r3, #144]
 4140 000a 0E4A     		ldr	r2, .L377
 4141 000c 43F02003 		orr	r3, r3, #32
ARM GAS  C:\Users\Morroway\AppData\Local\Temp\ccOmimY8.s 			page 123


 4142 0010 C2F89030 		str	r3, [r2, #144]
2358:Drivers/STM32L4xx_HAL_Driver/Src/stm32l4xx_hal_rcc_ex.c **** 
2359:Drivers/STM32L4xx_HAL_Driver/Src/stm32l4xx_hal_rcc_ex.c ****   /* Enable LSE CSS IT */
2360:Drivers/STM32L4xx_HAL_Driver/Src/stm32l4xx_hal_rcc_ex.c ****   __HAL_RCC_ENABLE_IT(RCC_IT_LSECSS);
 4143              		.loc 1 2360 3
 4144 0014 0B4B     		ldr	r3, .L377
 4145 0016 9B69     		ldr	r3, [r3, #24]
 4146 0018 0A4A     		ldr	r2, .L377
 4147 001a 43F40073 		orr	r3, r3, #512
 4148 001e 9361     		str	r3, [r2, #24]
2361:Drivers/STM32L4xx_HAL_Driver/Src/stm32l4xx_hal_rcc_ex.c **** 
2362:Drivers/STM32L4xx_HAL_Driver/Src/stm32l4xx_hal_rcc_ex.c ****   /* Enable IT on EXTI Line 19 */
2363:Drivers/STM32L4xx_HAL_Driver/Src/stm32l4xx_hal_rcc_ex.c ****   __HAL_RCC_LSECSS_EXTI_ENABLE_IT();
 4149              		.loc 1 2363 3
 4150 0020 094B     		ldr	r3, .L377+4
 4151 0022 1B68     		ldr	r3, [r3]
 4152 0024 084A     		ldr	r2, .L377+4
 4153 0026 43F40023 		orr	r3, r3, #524288
 4154 002a 1360     		str	r3, [r2]
2364:Drivers/STM32L4xx_HAL_Driver/Src/stm32l4xx_hal_rcc_ex.c ****   __HAL_RCC_LSECSS_EXTI_ENABLE_RISING_EDGE();
 4155              		.loc 1 2364 3
 4156 002c 064B     		ldr	r3, .L377+4
 4157 002e 9B68     		ldr	r3, [r3, #8]
 4158 0030 054A     		ldr	r2, .L377+4
 4159 0032 43F40023 		orr	r3, r3, #524288
 4160 0036 9360     		str	r3, [r2, #8]
2365:Drivers/STM32L4xx_HAL_Driver/Src/stm32l4xx_hal_rcc_ex.c **** }
 4161              		.loc 1 2365 1
 4162 0038 00BF     		nop
 4163 003a BD46     		mov	sp, r7
 4164              		.cfi_def_cfa_register 13
 4165              		@ sp needed
 4166 003c 5DF8047B 		ldr	r7, [sp], #4
 4167              		.cfi_restore 7
 4168              		.cfi_def_cfa_offset 0
 4169 0040 7047     		bx	lr
 4170              	.L378:
 4171 0042 00BF     		.align	2
 4172              	.L377:
 4173 0044 00100240 		.word	1073876992
 4174 0048 00040140 		.word	1073808384
 4175              		.cfi_endproc
 4176              	.LFE332:
 4178              		.section	.text.HAL_RCCEx_LSECSS_IRQHandler,"ax",%progbits
 4179              		.align	1
 4180              		.global	HAL_RCCEx_LSECSS_IRQHandler
 4181              		.syntax unified
 4182              		.thumb
 4183              		.thumb_func
 4185              	HAL_RCCEx_LSECSS_IRQHandler:
 4186              	.LFB333:
2366:Drivers/STM32L4xx_HAL_Driver/Src/stm32l4xx_hal_rcc_ex.c **** 
2367:Drivers/STM32L4xx_HAL_Driver/Src/stm32l4xx_hal_rcc_ex.c **** /**
2368:Drivers/STM32L4xx_HAL_Driver/Src/stm32l4xx_hal_rcc_ex.c ****   * @brief Handle the RCC LSE Clock Security System interrupt request.
2369:Drivers/STM32L4xx_HAL_Driver/Src/stm32l4xx_hal_rcc_ex.c ****   * @retval None
2370:Drivers/STM32L4xx_HAL_Driver/Src/stm32l4xx_hal_rcc_ex.c ****   */
2371:Drivers/STM32L4xx_HAL_Driver/Src/stm32l4xx_hal_rcc_ex.c **** void HAL_RCCEx_LSECSS_IRQHandler(void)
ARM GAS  C:\Users\Morroway\AppData\Local\Temp\ccOmimY8.s 			page 124


2372:Drivers/STM32L4xx_HAL_Driver/Src/stm32l4xx_hal_rcc_ex.c **** {
 4187              		.loc 1 2372 1
 4188              		.cfi_startproc
 4189              		@ args = 0, pretend = 0, frame = 0
 4190              		@ frame_needed = 1, uses_anonymous_args = 0
 4191 0000 80B5     		push	{r7, lr}
 4192              		.cfi_def_cfa_offset 8
 4193              		.cfi_offset 7, -8
 4194              		.cfi_offset 14, -4
 4195 0002 00AF     		add	r7, sp, #0
 4196              		.cfi_def_cfa_register 7
2373:Drivers/STM32L4xx_HAL_Driver/Src/stm32l4xx_hal_rcc_ex.c ****   /* Check RCC LSE CSSF flag  */
2374:Drivers/STM32L4xx_HAL_Driver/Src/stm32l4xx_hal_rcc_ex.c ****   if(__HAL_RCC_GET_IT(RCC_IT_LSECSS))
 4197              		.loc 1 2374 6
 4198 0004 074B     		ldr	r3, .L382
 4199 0006 DB69     		ldr	r3, [r3, #28]
 4200 0008 03F40073 		and	r3, r3, #512
 4201              		.loc 1 2374 5
 4202 000c B3F5007F 		cmp	r3, #512
 4203 0010 05D1     		bne	.L381
2375:Drivers/STM32L4xx_HAL_Driver/Src/stm32l4xx_hal_rcc_ex.c ****   {
2376:Drivers/STM32L4xx_HAL_Driver/Src/stm32l4xx_hal_rcc_ex.c ****     /* RCC LSE Clock Security System interrupt user callback */
2377:Drivers/STM32L4xx_HAL_Driver/Src/stm32l4xx_hal_rcc_ex.c ****     HAL_RCCEx_LSECSS_Callback();
 4204              		.loc 1 2377 5
 4205 0012 FFF7FEFF 		bl	HAL_RCCEx_LSECSS_Callback
2378:Drivers/STM32L4xx_HAL_Driver/Src/stm32l4xx_hal_rcc_ex.c **** 
2379:Drivers/STM32L4xx_HAL_Driver/Src/stm32l4xx_hal_rcc_ex.c ****     /* Clear RCC LSE CSS pending bit */
2380:Drivers/STM32L4xx_HAL_Driver/Src/stm32l4xx_hal_rcc_ex.c ****     __HAL_RCC_CLEAR_IT(RCC_IT_LSECSS);
 4206              		.loc 1 2380 5
 4207 0016 034B     		ldr	r3, .L382
 4208 0018 4FF40072 		mov	r2, #512
 4209 001c 1A62     		str	r2, [r3, #32]
 4210              	.L381:
2381:Drivers/STM32L4xx_HAL_Driver/Src/stm32l4xx_hal_rcc_ex.c ****   }
2382:Drivers/STM32L4xx_HAL_Driver/Src/stm32l4xx_hal_rcc_ex.c **** }
 4211              		.loc 1 2382 1
 4212 001e 00BF     		nop
 4213 0020 80BD     		pop	{r7, pc}
 4214              	.L383:
 4215 0022 00BF     		.align	2
 4216              	.L382:
 4217 0024 00100240 		.word	1073876992
 4218              		.cfi_endproc
 4219              	.LFE333:
 4221              		.section	.text.HAL_RCCEx_LSECSS_Callback,"ax",%progbits
 4222              		.align	1
 4223              		.weak	HAL_RCCEx_LSECSS_Callback
 4224              		.syntax unified
 4225              		.thumb
 4226              		.thumb_func
 4228              	HAL_RCCEx_LSECSS_Callback:
 4229              	.LFB334:
2383:Drivers/STM32L4xx_HAL_Driver/Src/stm32l4xx_hal_rcc_ex.c **** 
2384:Drivers/STM32L4xx_HAL_Driver/Src/stm32l4xx_hal_rcc_ex.c **** /**
2385:Drivers/STM32L4xx_HAL_Driver/Src/stm32l4xx_hal_rcc_ex.c ****   * @brief  RCCEx LSE Clock Security System interrupt callback.
2386:Drivers/STM32L4xx_HAL_Driver/Src/stm32l4xx_hal_rcc_ex.c ****   * @retval none
2387:Drivers/STM32L4xx_HAL_Driver/Src/stm32l4xx_hal_rcc_ex.c ****   */
ARM GAS  C:\Users\Morroway\AppData\Local\Temp\ccOmimY8.s 			page 125


2388:Drivers/STM32L4xx_HAL_Driver/Src/stm32l4xx_hal_rcc_ex.c **** __weak void HAL_RCCEx_LSECSS_Callback(void)
2389:Drivers/STM32L4xx_HAL_Driver/Src/stm32l4xx_hal_rcc_ex.c **** {
 4230              		.loc 1 2389 1
 4231              		.cfi_startproc
 4232              		@ args = 0, pretend = 0, frame = 0
 4233              		@ frame_needed = 1, uses_anonymous_args = 0
 4234              		@ link register save eliminated.
 4235 0000 80B4     		push	{r7}
 4236              		.cfi_def_cfa_offset 4
 4237              		.cfi_offset 7, -4
 4238 0002 00AF     		add	r7, sp, #0
 4239              		.cfi_def_cfa_register 7
2390:Drivers/STM32L4xx_HAL_Driver/Src/stm32l4xx_hal_rcc_ex.c ****   /* NOTE : This function should not be modified, when the callback is needed,
2391:Drivers/STM32L4xx_HAL_Driver/Src/stm32l4xx_hal_rcc_ex.c ****             the @ref HAL_RCCEx_LSECSS_Callback should be implemented in the user file
2392:Drivers/STM32L4xx_HAL_Driver/Src/stm32l4xx_hal_rcc_ex.c ****    */
2393:Drivers/STM32L4xx_HAL_Driver/Src/stm32l4xx_hal_rcc_ex.c **** }
 4240              		.loc 1 2393 1
 4241 0004 00BF     		nop
 4242 0006 BD46     		mov	sp, r7
 4243              		.cfi_def_cfa_register 13
 4244              		@ sp needed
 4245 0008 5DF8047B 		ldr	r7, [sp], #4
 4246              		.cfi_restore 7
 4247              		.cfi_def_cfa_offset 0
 4248 000c 7047     		bx	lr
 4249              		.cfi_endproc
 4250              	.LFE334:
 4252              		.section	.text.HAL_RCCEx_EnableLSCO,"ax",%progbits
 4253              		.align	1
 4254              		.global	HAL_RCCEx_EnableLSCO
 4255              		.syntax unified
 4256              		.thumb
 4257              		.thumb_func
 4259              	HAL_RCCEx_EnableLSCO:
 4260              	.LFB335:
2394:Drivers/STM32L4xx_HAL_Driver/Src/stm32l4xx_hal_rcc_ex.c **** 
2395:Drivers/STM32L4xx_HAL_Driver/Src/stm32l4xx_hal_rcc_ex.c **** /**
2396:Drivers/STM32L4xx_HAL_Driver/Src/stm32l4xx_hal_rcc_ex.c ****   * @brief  Select the Low Speed clock source to output on LSCO pin (PA2).
2397:Drivers/STM32L4xx_HAL_Driver/Src/stm32l4xx_hal_rcc_ex.c ****   * @param  LSCOSource  specifies the Low Speed clock source to output.
2398:Drivers/STM32L4xx_HAL_Driver/Src/stm32l4xx_hal_rcc_ex.c ****   *          This parameter can be one of the following values:
2399:Drivers/STM32L4xx_HAL_Driver/Src/stm32l4xx_hal_rcc_ex.c ****   *            @arg @ref RCC_LSCOSOURCE_LSI  LSI clock selected as LSCO source
2400:Drivers/STM32L4xx_HAL_Driver/Src/stm32l4xx_hal_rcc_ex.c ****   *            @arg @ref RCC_LSCOSOURCE_LSE  LSE clock selected as LSCO source
2401:Drivers/STM32L4xx_HAL_Driver/Src/stm32l4xx_hal_rcc_ex.c ****   * @retval None
2402:Drivers/STM32L4xx_HAL_Driver/Src/stm32l4xx_hal_rcc_ex.c ****   */
2403:Drivers/STM32L4xx_HAL_Driver/Src/stm32l4xx_hal_rcc_ex.c **** void HAL_RCCEx_EnableLSCO(uint32_t LSCOSource)
2404:Drivers/STM32L4xx_HAL_Driver/Src/stm32l4xx_hal_rcc_ex.c **** {
 4261              		.loc 1 2404 1
 4262              		.cfi_startproc
 4263              		@ args = 0, pretend = 0, frame = 40
 4264              		@ frame_needed = 1, uses_anonymous_args = 0
 4265 0000 80B5     		push	{r7, lr}
 4266              		.cfi_def_cfa_offset 8
 4267              		.cfi_offset 7, -8
 4268              		.cfi_offset 14, -4
 4269 0002 8AB0     		sub	sp, sp, #40
 4270              		.cfi_def_cfa_offset 48
 4271 0004 00AF     		add	r7, sp, #0
ARM GAS  C:\Users\Morroway\AppData\Local\Temp\ccOmimY8.s 			page 126


 4272              		.cfi_def_cfa_register 7
 4273 0006 7860     		str	r0, [r7, #4]
2405:Drivers/STM32L4xx_HAL_Driver/Src/stm32l4xx_hal_rcc_ex.c ****   GPIO_InitTypeDef GPIO_InitStruct;
2406:Drivers/STM32L4xx_HAL_Driver/Src/stm32l4xx_hal_rcc_ex.c ****   FlagStatus       pwrclkchanged = RESET;
 4274              		.loc 1 2406 20
 4275 0008 0023     		movs	r3, #0
 4276 000a 87F82730 		strb	r3, [r7, #39]
2407:Drivers/STM32L4xx_HAL_Driver/Src/stm32l4xx_hal_rcc_ex.c ****   FlagStatus       backupchanged = RESET;
 4277              		.loc 1 2407 20
 4278 000e 0023     		movs	r3, #0
 4279 0010 87F82630 		strb	r3, [r7, #38]
 4280              	.LBB4:
2408:Drivers/STM32L4xx_HAL_Driver/Src/stm32l4xx_hal_rcc_ex.c **** 
2409:Drivers/STM32L4xx_HAL_Driver/Src/stm32l4xx_hal_rcc_ex.c ****   /* Check the parameters */
2410:Drivers/STM32L4xx_HAL_Driver/Src/stm32l4xx_hal_rcc_ex.c ****   assert_param(IS_RCC_LSCOSOURCE(LSCOSource));
2411:Drivers/STM32L4xx_HAL_Driver/Src/stm32l4xx_hal_rcc_ex.c **** 
2412:Drivers/STM32L4xx_HAL_Driver/Src/stm32l4xx_hal_rcc_ex.c ****   /* LSCO Pin Clock Enable */
2413:Drivers/STM32L4xx_HAL_Driver/Src/stm32l4xx_hal_rcc_ex.c ****   __LSCO_CLK_ENABLE();
 4281              		.loc 1 2413 3
 4282 0014 2D4B     		ldr	r3, .L391
 4283 0016 DB6C     		ldr	r3, [r3, #76]
 4284 0018 2C4A     		ldr	r2, .L391
 4285 001a 43F00103 		orr	r3, r3, #1
 4286 001e D364     		str	r3, [r2, #76]
 4287 0020 2A4B     		ldr	r3, .L391
 4288 0022 DB6C     		ldr	r3, [r3, #76]
 4289 0024 03F00103 		and	r3, r3, #1
 4290 0028 FB60     		str	r3, [r7, #12]
 4291 002a FB68     		ldr	r3, [r7, #12]
 4292              	.LBE4:
2414:Drivers/STM32L4xx_HAL_Driver/Src/stm32l4xx_hal_rcc_ex.c **** 
2415:Drivers/STM32L4xx_HAL_Driver/Src/stm32l4xx_hal_rcc_ex.c ****   /* Configure the LSCO pin in analog mode */
2416:Drivers/STM32L4xx_HAL_Driver/Src/stm32l4xx_hal_rcc_ex.c ****   GPIO_InitStruct.Pin = LSCO_PIN;
 4293              		.loc 1 2416 23
 4294 002c 0423     		movs	r3, #4
 4295 002e 3B61     		str	r3, [r7, #16]
2417:Drivers/STM32L4xx_HAL_Driver/Src/stm32l4xx_hal_rcc_ex.c ****   GPIO_InitStruct.Mode = GPIO_MODE_ANALOG;
 4296              		.loc 1 2417 24
 4297 0030 0323     		movs	r3, #3
 4298 0032 7B61     		str	r3, [r7, #20]
2418:Drivers/STM32L4xx_HAL_Driver/Src/stm32l4xx_hal_rcc_ex.c ****   GPIO_InitStruct.Speed = GPIO_SPEED_FREQ_HIGH;
 4299              		.loc 1 2418 25
 4300 0034 0223     		movs	r3, #2
 4301 0036 FB61     		str	r3, [r7, #28]
2419:Drivers/STM32L4xx_HAL_Driver/Src/stm32l4xx_hal_rcc_ex.c ****   GPIO_InitStruct.Pull = GPIO_NOPULL;
 4302              		.loc 1 2419 24
 4303 0038 0023     		movs	r3, #0
 4304 003a BB61     		str	r3, [r7, #24]
2420:Drivers/STM32L4xx_HAL_Driver/Src/stm32l4xx_hal_rcc_ex.c ****   HAL_GPIO_Init(LSCO_GPIO_PORT, &GPIO_InitStruct);
 4305              		.loc 1 2420 3
 4306 003c 07F11003 		add	r3, r7, #16
 4307 0040 1946     		mov	r1, r3
 4308 0042 4FF09040 		mov	r0, #1207959552
 4309 0046 FFF7FEFF 		bl	HAL_GPIO_Init
2421:Drivers/STM32L4xx_HAL_Driver/Src/stm32l4xx_hal_rcc_ex.c **** 
2422:Drivers/STM32L4xx_HAL_Driver/Src/stm32l4xx_hal_rcc_ex.c ****   /* Update LSCOSEL clock source in Backup Domain control register */
2423:Drivers/STM32L4xx_HAL_Driver/Src/stm32l4xx_hal_rcc_ex.c ****   if(__HAL_RCC_PWR_IS_CLK_DISABLED())
ARM GAS  C:\Users\Morroway\AppData\Local\Temp\ccOmimY8.s 			page 127


 4310              		.loc 1 2423 6
 4311 004a 204B     		ldr	r3, .L391
 4312 004c 9B6D     		ldr	r3, [r3, #88]
 4313 004e 03F08053 		and	r3, r3, #268435456
 4314              		.loc 1 2423 5
 4315 0052 002B     		cmp	r3, #0
 4316 0054 0ED1     		bne	.L386
 4317              	.LBB5:
2424:Drivers/STM32L4xx_HAL_Driver/Src/stm32l4xx_hal_rcc_ex.c ****   {
2425:Drivers/STM32L4xx_HAL_Driver/Src/stm32l4xx_hal_rcc_ex.c ****     __HAL_RCC_PWR_CLK_ENABLE();
 4318              		.loc 1 2425 5
 4319 0056 1D4B     		ldr	r3, .L391
 4320 0058 9B6D     		ldr	r3, [r3, #88]
 4321 005a 1C4A     		ldr	r2, .L391
 4322 005c 43F08053 		orr	r3, r3, #268435456
 4323 0060 9365     		str	r3, [r2, #88]
 4324 0062 1A4B     		ldr	r3, .L391
 4325 0064 9B6D     		ldr	r3, [r3, #88]
 4326 0066 03F08053 		and	r3, r3, #268435456
 4327 006a BB60     		str	r3, [r7, #8]
 4328 006c BB68     		ldr	r3, [r7, #8]
 4329              	.LBE5:
2426:Drivers/STM32L4xx_HAL_Driver/Src/stm32l4xx_hal_rcc_ex.c ****     pwrclkchanged = SET;
 4330              		.loc 1 2426 19
 4331 006e 0123     		movs	r3, #1
 4332 0070 87F82730 		strb	r3, [r7, #39]
 4333              	.L386:
2427:Drivers/STM32L4xx_HAL_Driver/Src/stm32l4xx_hal_rcc_ex.c ****   }
2428:Drivers/STM32L4xx_HAL_Driver/Src/stm32l4xx_hal_rcc_ex.c ****   if(HAL_IS_BIT_CLR(PWR->CR1, PWR_CR1_DBP))
 4334              		.loc 1 2428 6
 4335 0074 164B     		ldr	r3, .L391+4
 4336 0076 1B68     		ldr	r3, [r3]
 4337 0078 03F48073 		and	r3, r3, #256
 4338              		.loc 1 2428 5
 4339 007c 002B     		cmp	r3, #0
 4340 007e 04D1     		bne	.L387
2429:Drivers/STM32L4xx_HAL_Driver/Src/stm32l4xx_hal_rcc_ex.c ****   {
2430:Drivers/STM32L4xx_HAL_Driver/Src/stm32l4xx_hal_rcc_ex.c ****     HAL_PWR_EnableBkUpAccess();
 4341              		.loc 1 2430 5
 4342 0080 FFF7FEFF 		bl	HAL_PWR_EnableBkUpAccess
2431:Drivers/STM32L4xx_HAL_Driver/Src/stm32l4xx_hal_rcc_ex.c ****     backupchanged = SET;
 4343              		.loc 1 2431 19
 4344 0084 0123     		movs	r3, #1
 4345 0086 87F82630 		strb	r3, [r7, #38]
 4346              	.L387:
2432:Drivers/STM32L4xx_HAL_Driver/Src/stm32l4xx_hal_rcc_ex.c ****   }
2433:Drivers/STM32L4xx_HAL_Driver/Src/stm32l4xx_hal_rcc_ex.c **** 
2434:Drivers/STM32L4xx_HAL_Driver/Src/stm32l4xx_hal_rcc_ex.c ****   MODIFY_REG(RCC->BDCR, RCC_BDCR_LSCOSEL | RCC_BDCR_LSCOEN, LSCOSource | RCC_BDCR_LSCOEN);
 4347              		.loc 1 2434 3
 4348 008a 104B     		ldr	r3, .L391
 4349 008c D3F89030 		ldr	r3, [r3, #144]
 4350 0090 23F04072 		bic	r2, r3, #50331648
 4351 0094 7B68     		ldr	r3, [r7, #4]
 4352 0096 1343     		orrs	r3, r3, r2
 4353 0098 0C4A     		ldr	r2, .L391
 4354 009a 43F08073 		orr	r3, r3, #16777216
 4355 009e C2F89030 		str	r3, [r2, #144]
ARM GAS  C:\Users\Morroway\AppData\Local\Temp\ccOmimY8.s 			page 128


2435:Drivers/STM32L4xx_HAL_Driver/Src/stm32l4xx_hal_rcc_ex.c **** 
2436:Drivers/STM32L4xx_HAL_Driver/Src/stm32l4xx_hal_rcc_ex.c ****   if(backupchanged == SET)
 4356              		.loc 1 2436 5
 4357 00a2 97F82630 		ldrb	r3, [r7, #38]	@ zero_extendqisi2
 4358 00a6 012B     		cmp	r3, #1
 4359 00a8 01D1     		bne	.L388
2437:Drivers/STM32L4xx_HAL_Driver/Src/stm32l4xx_hal_rcc_ex.c ****   {
2438:Drivers/STM32L4xx_HAL_Driver/Src/stm32l4xx_hal_rcc_ex.c ****     HAL_PWR_DisableBkUpAccess();
 4360              		.loc 1 2438 5
 4361 00aa FFF7FEFF 		bl	HAL_PWR_DisableBkUpAccess
 4362              	.L388:
2439:Drivers/STM32L4xx_HAL_Driver/Src/stm32l4xx_hal_rcc_ex.c ****   }
2440:Drivers/STM32L4xx_HAL_Driver/Src/stm32l4xx_hal_rcc_ex.c ****   if(pwrclkchanged == SET)
 4363              		.loc 1 2440 5
 4364 00ae 97F82730 		ldrb	r3, [r7, #39]	@ zero_extendqisi2
 4365 00b2 012B     		cmp	r3, #1
 4366 00b4 05D1     		bne	.L390
2441:Drivers/STM32L4xx_HAL_Driver/Src/stm32l4xx_hal_rcc_ex.c ****   {
2442:Drivers/STM32L4xx_HAL_Driver/Src/stm32l4xx_hal_rcc_ex.c ****     __HAL_RCC_PWR_CLK_DISABLE();
 4367              		.loc 1 2442 5
 4368 00b6 054B     		ldr	r3, .L391
 4369 00b8 9B6D     		ldr	r3, [r3, #88]
 4370 00ba 044A     		ldr	r2, .L391
 4371 00bc 23F08053 		bic	r3, r3, #268435456
 4372 00c0 9365     		str	r3, [r2, #88]
 4373              	.L390:
2443:Drivers/STM32L4xx_HAL_Driver/Src/stm32l4xx_hal_rcc_ex.c ****   }
2444:Drivers/STM32L4xx_HAL_Driver/Src/stm32l4xx_hal_rcc_ex.c **** }
 4374              		.loc 1 2444 1
 4375 00c2 00BF     		nop
 4376 00c4 2837     		adds	r7, r7, #40
 4377              		.cfi_def_cfa_offset 8
 4378 00c6 BD46     		mov	sp, r7
 4379              		.cfi_def_cfa_register 13
 4380              		@ sp needed
 4381 00c8 80BD     		pop	{r7, pc}
 4382              	.L392:
 4383 00ca 00BF     		.align	2
 4384              	.L391:
 4385 00cc 00100240 		.word	1073876992
 4386 00d0 00700040 		.word	1073770496
 4387              		.cfi_endproc
 4388              	.LFE335:
 4390              		.section	.text.HAL_RCCEx_DisableLSCO,"ax",%progbits
 4391              		.align	1
 4392              		.global	HAL_RCCEx_DisableLSCO
 4393              		.syntax unified
 4394              		.thumb
 4395              		.thumb_func
 4397              	HAL_RCCEx_DisableLSCO:
 4398              	.LFB336:
2445:Drivers/STM32L4xx_HAL_Driver/Src/stm32l4xx_hal_rcc_ex.c **** 
2446:Drivers/STM32L4xx_HAL_Driver/Src/stm32l4xx_hal_rcc_ex.c **** /**
2447:Drivers/STM32L4xx_HAL_Driver/Src/stm32l4xx_hal_rcc_ex.c ****   * @brief  Disable the Low Speed clock output.
2448:Drivers/STM32L4xx_HAL_Driver/Src/stm32l4xx_hal_rcc_ex.c ****   * @retval None
2449:Drivers/STM32L4xx_HAL_Driver/Src/stm32l4xx_hal_rcc_ex.c ****   */
2450:Drivers/STM32L4xx_HAL_Driver/Src/stm32l4xx_hal_rcc_ex.c **** void HAL_RCCEx_DisableLSCO(void)
ARM GAS  C:\Users\Morroway\AppData\Local\Temp\ccOmimY8.s 			page 129


2451:Drivers/STM32L4xx_HAL_Driver/Src/stm32l4xx_hal_rcc_ex.c **** {
 4399              		.loc 1 2451 1
 4400              		.cfi_startproc
 4401              		@ args = 0, pretend = 0, frame = 8
 4402              		@ frame_needed = 1, uses_anonymous_args = 0
 4403 0000 80B5     		push	{r7, lr}
 4404              		.cfi_def_cfa_offset 8
 4405              		.cfi_offset 7, -8
 4406              		.cfi_offset 14, -4
 4407 0002 82B0     		sub	sp, sp, #8
 4408              		.cfi_def_cfa_offset 16
 4409 0004 00AF     		add	r7, sp, #0
 4410              		.cfi_def_cfa_register 7
2452:Drivers/STM32L4xx_HAL_Driver/Src/stm32l4xx_hal_rcc_ex.c ****   FlagStatus       pwrclkchanged = RESET;
 4411              		.loc 1 2452 20
 4412 0006 0023     		movs	r3, #0
 4413 0008 FB71     		strb	r3, [r7, #7]
2453:Drivers/STM32L4xx_HAL_Driver/Src/stm32l4xx_hal_rcc_ex.c ****   FlagStatus       backupchanged = RESET;
 4414              		.loc 1 2453 20
 4415 000a 0023     		movs	r3, #0
 4416 000c BB71     		strb	r3, [r7, #6]
2454:Drivers/STM32L4xx_HAL_Driver/Src/stm32l4xx_hal_rcc_ex.c **** 
2455:Drivers/STM32L4xx_HAL_Driver/Src/stm32l4xx_hal_rcc_ex.c ****   /* Update LSCOEN bit in Backup Domain control register */
2456:Drivers/STM32L4xx_HAL_Driver/Src/stm32l4xx_hal_rcc_ex.c ****   if(__HAL_RCC_PWR_IS_CLK_DISABLED())
 4417              		.loc 1 2456 6
 4418 000e 1C4B     		ldr	r3, .L399
 4419 0010 9B6D     		ldr	r3, [r3, #88]
 4420 0012 03F08053 		and	r3, r3, #268435456
 4421              		.loc 1 2456 5
 4422 0016 002B     		cmp	r3, #0
 4423 0018 0DD1     		bne	.L394
 4424              	.LBB6:
2457:Drivers/STM32L4xx_HAL_Driver/Src/stm32l4xx_hal_rcc_ex.c ****   {
2458:Drivers/STM32L4xx_HAL_Driver/Src/stm32l4xx_hal_rcc_ex.c ****     __HAL_RCC_PWR_CLK_ENABLE();
 4425              		.loc 1 2458 5
 4426 001a 194B     		ldr	r3, .L399
 4427 001c 9B6D     		ldr	r3, [r3, #88]
 4428 001e 184A     		ldr	r2, .L399
 4429 0020 43F08053 		orr	r3, r3, #268435456
 4430 0024 9365     		str	r3, [r2, #88]
 4431 0026 164B     		ldr	r3, .L399
 4432 0028 9B6D     		ldr	r3, [r3, #88]
 4433 002a 03F08053 		and	r3, r3, #268435456
 4434 002e 3B60     		str	r3, [r7]
 4435 0030 3B68     		ldr	r3, [r7]
 4436              	.LBE6:
2459:Drivers/STM32L4xx_HAL_Driver/Src/stm32l4xx_hal_rcc_ex.c ****     pwrclkchanged = SET;
 4437              		.loc 1 2459 19
 4438 0032 0123     		movs	r3, #1
 4439 0034 FB71     		strb	r3, [r7, #7]
 4440              	.L394:
2460:Drivers/STM32L4xx_HAL_Driver/Src/stm32l4xx_hal_rcc_ex.c ****   }
2461:Drivers/STM32L4xx_HAL_Driver/Src/stm32l4xx_hal_rcc_ex.c ****   if(HAL_IS_BIT_CLR(PWR->CR1, PWR_CR1_DBP))
 4441              		.loc 1 2461 6
 4442 0036 134B     		ldr	r3, .L399+4
 4443 0038 1B68     		ldr	r3, [r3]
 4444 003a 03F48073 		and	r3, r3, #256
ARM GAS  C:\Users\Morroway\AppData\Local\Temp\ccOmimY8.s 			page 130


 4445              		.loc 1 2461 5
 4446 003e 002B     		cmp	r3, #0
 4447 0040 03D1     		bne	.L395
2462:Drivers/STM32L4xx_HAL_Driver/Src/stm32l4xx_hal_rcc_ex.c ****   {
2463:Drivers/STM32L4xx_HAL_Driver/Src/stm32l4xx_hal_rcc_ex.c ****     /* Enable access to the backup domain */
2464:Drivers/STM32L4xx_HAL_Driver/Src/stm32l4xx_hal_rcc_ex.c ****     HAL_PWR_EnableBkUpAccess();
 4448              		.loc 1 2464 5
 4449 0042 FFF7FEFF 		bl	HAL_PWR_EnableBkUpAccess
2465:Drivers/STM32L4xx_HAL_Driver/Src/stm32l4xx_hal_rcc_ex.c ****     backupchanged = SET;
 4450              		.loc 1 2465 19
 4451 0046 0123     		movs	r3, #1
 4452 0048 BB71     		strb	r3, [r7, #6]
 4453              	.L395:
2466:Drivers/STM32L4xx_HAL_Driver/Src/stm32l4xx_hal_rcc_ex.c ****   }
2467:Drivers/STM32L4xx_HAL_Driver/Src/stm32l4xx_hal_rcc_ex.c **** 
2468:Drivers/STM32L4xx_HAL_Driver/Src/stm32l4xx_hal_rcc_ex.c ****   CLEAR_BIT(RCC->BDCR, RCC_BDCR_LSCOEN);
 4454              		.loc 1 2468 3
 4455 004a 0D4B     		ldr	r3, .L399
 4456 004c D3F89030 		ldr	r3, [r3, #144]
 4457 0050 0B4A     		ldr	r2, .L399
 4458 0052 23F08073 		bic	r3, r3, #16777216
 4459 0056 C2F89030 		str	r3, [r2, #144]
2469:Drivers/STM32L4xx_HAL_Driver/Src/stm32l4xx_hal_rcc_ex.c **** 
2470:Drivers/STM32L4xx_HAL_Driver/Src/stm32l4xx_hal_rcc_ex.c ****   /* Restore previous configuration */
2471:Drivers/STM32L4xx_HAL_Driver/Src/stm32l4xx_hal_rcc_ex.c ****   if(backupchanged == SET)
 4460              		.loc 1 2471 5
 4461 005a BB79     		ldrb	r3, [r7, #6]	@ zero_extendqisi2
 4462 005c 012B     		cmp	r3, #1
 4463 005e 01D1     		bne	.L396
2472:Drivers/STM32L4xx_HAL_Driver/Src/stm32l4xx_hal_rcc_ex.c ****   {
2473:Drivers/STM32L4xx_HAL_Driver/Src/stm32l4xx_hal_rcc_ex.c ****     /* Disable access to the backup domain */
2474:Drivers/STM32L4xx_HAL_Driver/Src/stm32l4xx_hal_rcc_ex.c ****     HAL_PWR_DisableBkUpAccess();
 4464              		.loc 1 2474 5
 4465 0060 FFF7FEFF 		bl	HAL_PWR_DisableBkUpAccess
 4466              	.L396:
2475:Drivers/STM32L4xx_HAL_Driver/Src/stm32l4xx_hal_rcc_ex.c ****   }
2476:Drivers/STM32L4xx_HAL_Driver/Src/stm32l4xx_hal_rcc_ex.c ****   if(pwrclkchanged == SET)
 4467              		.loc 1 2476 5
 4468 0064 FB79     		ldrb	r3, [r7, #7]	@ zero_extendqisi2
 4469 0066 012B     		cmp	r3, #1
 4470 0068 05D1     		bne	.L398
2477:Drivers/STM32L4xx_HAL_Driver/Src/stm32l4xx_hal_rcc_ex.c ****   {
2478:Drivers/STM32L4xx_HAL_Driver/Src/stm32l4xx_hal_rcc_ex.c ****     __HAL_RCC_PWR_CLK_DISABLE();
 4471              		.loc 1 2478 5
 4472 006a 054B     		ldr	r3, .L399
 4473 006c 9B6D     		ldr	r3, [r3, #88]
 4474 006e 044A     		ldr	r2, .L399
 4475 0070 23F08053 		bic	r3, r3, #268435456
 4476 0074 9365     		str	r3, [r2, #88]
 4477              	.L398:
2479:Drivers/STM32L4xx_HAL_Driver/Src/stm32l4xx_hal_rcc_ex.c ****   }
2480:Drivers/STM32L4xx_HAL_Driver/Src/stm32l4xx_hal_rcc_ex.c **** }
 4478              		.loc 1 2480 1
 4479 0076 00BF     		nop
 4480 0078 0837     		adds	r7, r7, #8
 4481              		.cfi_def_cfa_offset 8
 4482 007a BD46     		mov	sp, r7
ARM GAS  C:\Users\Morroway\AppData\Local\Temp\ccOmimY8.s 			page 131


 4483              		.cfi_def_cfa_register 13
 4484              		@ sp needed
 4485 007c 80BD     		pop	{r7, pc}
 4486              	.L400:
 4487 007e 00BF     		.align	2
 4488              	.L399:
 4489 0080 00100240 		.word	1073876992
 4490 0084 00700040 		.word	1073770496
 4491              		.cfi_endproc
 4492              	.LFE336:
 4494              		.section	.text.HAL_RCCEx_EnableMSIPLLMode,"ax",%progbits
 4495              		.align	1
 4496              		.global	HAL_RCCEx_EnableMSIPLLMode
 4497              		.syntax unified
 4498              		.thumb
 4499              		.thumb_func
 4501              	HAL_RCCEx_EnableMSIPLLMode:
 4502              	.LFB337:
2481:Drivers/STM32L4xx_HAL_Driver/Src/stm32l4xx_hal_rcc_ex.c **** 
2482:Drivers/STM32L4xx_HAL_Driver/Src/stm32l4xx_hal_rcc_ex.c **** /**
2483:Drivers/STM32L4xx_HAL_Driver/Src/stm32l4xx_hal_rcc_ex.c ****   * @brief  Enable the PLL-mode of the MSI.
2484:Drivers/STM32L4xx_HAL_Driver/Src/stm32l4xx_hal_rcc_ex.c ****   * @note   Prior to enable the PLL-mode of the MSI for automatic hardware
2485:Drivers/STM32L4xx_HAL_Driver/Src/stm32l4xx_hal_rcc_ex.c ****   *         calibration LSE oscillator is to be enabled with HAL_RCC_OscConfig().
2486:Drivers/STM32L4xx_HAL_Driver/Src/stm32l4xx_hal_rcc_ex.c ****   * @retval None
2487:Drivers/STM32L4xx_HAL_Driver/Src/stm32l4xx_hal_rcc_ex.c ****   */
2488:Drivers/STM32L4xx_HAL_Driver/Src/stm32l4xx_hal_rcc_ex.c **** void HAL_RCCEx_EnableMSIPLLMode(void)
2489:Drivers/STM32L4xx_HAL_Driver/Src/stm32l4xx_hal_rcc_ex.c **** {
 4503              		.loc 1 2489 1
 4504              		.cfi_startproc
 4505              		@ args = 0, pretend = 0, frame = 0
 4506              		@ frame_needed = 1, uses_anonymous_args = 0
 4507              		@ link register save eliminated.
 4508 0000 80B4     		push	{r7}
 4509              		.cfi_def_cfa_offset 4
 4510              		.cfi_offset 7, -4
 4511 0002 00AF     		add	r7, sp, #0
 4512              		.cfi_def_cfa_register 7
2490:Drivers/STM32L4xx_HAL_Driver/Src/stm32l4xx_hal_rcc_ex.c ****   SET_BIT(RCC->CR, RCC_CR_MSIPLLEN) ;
 4513              		.loc 1 2490 3
 4514 0004 054B     		ldr	r3, .L402
 4515 0006 1B68     		ldr	r3, [r3]
 4516 0008 044A     		ldr	r2, .L402
 4517 000a 43F00403 		orr	r3, r3, #4
 4518 000e 1360     		str	r3, [r2]
2491:Drivers/STM32L4xx_HAL_Driver/Src/stm32l4xx_hal_rcc_ex.c **** }
 4519              		.loc 1 2491 1
 4520 0010 00BF     		nop
 4521 0012 BD46     		mov	sp, r7
 4522              		.cfi_def_cfa_register 13
 4523              		@ sp needed
 4524 0014 5DF8047B 		ldr	r7, [sp], #4
 4525              		.cfi_restore 7
 4526              		.cfi_def_cfa_offset 0
 4527 0018 7047     		bx	lr
 4528              	.L403:
 4529 001a 00BF     		.align	2
 4530              	.L402:
ARM GAS  C:\Users\Morroway\AppData\Local\Temp\ccOmimY8.s 			page 132


 4531 001c 00100240 		.word	1073876992
 4532              		.cfi_endproc
 4533              	.LFE337:
 4535              		.section	.text.HAL_RCCEx_DisableMSIPLLMode,"ax",%progbits
 4536              		.align	1
 4537              		.global	HAL_RCCEx_DisableMSIPLLMode
 4538              		.syntax unified
 4539              		.thumb
 4540              		.thumb_func
 4542              	HAL_RCCEx_DisableMSIPLLMode:
 4543              	.LFB338:
2492:Drivers/STM32L4xx_HAL_Driver/Src/stm32l4xx_hal_rcc_ex.c **** 
2493:Drivers/STM32L4xx_HAL_Driver/Src/stm32l4xx_hal_rcc_ex.c **** /**
2494:Drivers/STM32L4xx_HAL_Driver/Src/stm32l4xx_hal_rcc_ex.c ****   * @brief  Disable the PLL-mode of the MSI.
2495:Drivers/STM32L4xx_HAL_Driver/Src/stm32l4xx_hal_rcc_ex.c ****   * @note   PLL-mode of the MSI is automatically reset when LSE oscillator is disabled.
2496:Drivers/STM32L4xx_HAL_Driver/Src/stm32l4xx_hal_rcc_ex.c ****   * @retval None
2497:Drivers/STM32L4xx_HAL_Driver/Src/stm32l4xx_hal_rcc_ex.c ****   */
2498:Drivers/STM32L4xx_HAL_Driver/Src/stm32l4xx_hal_rcc_ex.c **** void HAL_RCCEx_DisableMSIPLLMode(void)
2499:Drivers/STM32L4xx_HAL_Driver/Src/stm32l4xx_hal_rcc_ex.c **** {
 4544              		.loc 1 2499 1
 4545              		.cfi_startproc
 4546              		@ args = 0, pretend = 0, frame = 0
 4547              		@ frame_needed = 1, uses_anonymous_args = 0
 4548              		@ link register save eliminated.
 4549 0000 80B4     		push	{r7}
 4550              		.cfi_def_cfa_offset 4
 4551              		.cfi_offset 7, -4
 4552 0002 00AF     		add	r7, sp, #0
 4553              		.cfi_def_cfa_register 7
2500:Drivers/STM32L4xx_HAL_Driver/Src/stm32l4xx_hal_rcc_ex.c ****   CLEAR_BIT(RCC->CR, RCC_CR_MSIPLLEN) ;
 4554              		.loc 1 2500 3
 4555 0004 054B     		ldr	r3, .L405
 4556 0006 1B68     		ldr	r3, [r3]
 4557 0008 044A     		ldr	r2, .L405
 4558 000a 23F00403 		bic	r3, r3, #4
 4559 000e 1360     		str	r3, [r2]
2501:Drivers/STM32L4xx_HAL_Driver/Src/stm32l4xx_hal_rcc_ex.c **** }
 4560              		.loc 1 2501 1
 4561 0010 00BF     		nop
 4562 0012 BD46     		mov	sp, r7
 4563              		.cfi_def_cfa_register 13
 4564              		@ sp needed
 4565 0014 5DF8047B 		ldr	r7, [sp], #4
 4566              		.cfi_restore 7
 4567              		.cfi_def_cfa_offset 0
 4568 0018 7047     		bx	lr
 4569              	.L406:
 4570 001a 00BF     		.align	2
 4571              	.L405:
 4572 001c 00100240 		.word	1073876992
 4573              		.cfi_endproc
 4574              	.LFE338:
 4576              		.section	.text.HAL_RCCEx_OCTOSPIDelayConfig,"ax",%progbits
 4577              		.align	1
 4578              		.global	HAL_RCCEx_OCTOSPIDelayConfig
 4579              		.syntax unified
 4580              		.thumb
ARM GAS  C:\Users\Morroway\AppData\Local\Temp\ccOmimY8.s 			page 133


 4581              		.thumb_func
 4583              	HAL_RCCEx_OCTOSPIDelayConfig:
 4584              	.LFB339:
2502:Drivers/STM32L4xx_HAL_Driver/Src/stm32l4xx_hal_rcc_ex.c **** 
2503:Drivers/STM32L4xx_HAL_Driver/Src/stm32l4xx_hal_rcc_ex.c **** #if defined (OCTOSPI1) && defined (OCTOSPI2)
2504:Drivers/STM32L4xx_HAL_Driver/Src/stm32l4xx_hal_rcc_ex.c **** /**
2505:Drivers/STM32L4xx_HAL_Driver/Src/stm32l4xx_hal_rcc_ex.c ****   * @brief  Configure OCTOSPI instances DQS delays.
2506:Drivers/STM32L4xx_HAL_Driver/Src/stm32l4xx_hal_rcc_ex.c ****   * @param  Delay1  OCTOSPI1 DQS delay
2507:Drivers/STM32L4xx_HAL_Driver/Src/stm32l4xx_hal_rcc_ex.c ****   * @param  Delay2  OCTOSPI2 DQS delay
2508:Drivers/STM32L4xx_HAL_Driver/Src/stm32l4xx_hal_rcc_ex.c ****   * @note   Delay parameters stand for unitary delays from 0 to 15. Actual delay is Delay1 or Delay
2509:Drivers/STM32L4xx_HAL_Driver/Src/stm32l4xx_hal_rcc_ex.c ****   * @retval None
2510:Drivers/STM32L4xx_HAL_Driver/Src/stm32l4xx_hal_rcc_ex.c ****   */
2511:Drivers/STM32L4xx_HAL_Driver/Src/stm32l4xx_hal_rcc_ex.c **** void HAL_RCCEx_OCTOSPIDelayConfig(uint32_t Delay1, uint32_t Delay2)
2512:Drivers/STM32L4xx_HAL_Driver/Src/stm32l4xx_hal_rcc_ex.c **** {
 4585              		.loc 1 2512 1
 4586              		.cfi_startproc
 4587              		@ args = 0, pretend = 0, frame = 8
 4588              		@ frame_needed = 1, uses_anonymous_args = 0
 4589              		@ link register save eliminated.
 4590 0000 80B4     		push	{r7}
 4591              		.cfi_def_cfa_offset 4
 4592              		.cfi_offset 7, -4
 4593 0002 83B0     		sub	sp, sp, #12
 4594              		.cfi_def_cfa_offset 16
 4595 0004 00AF     		add	r7, sp, #0
 4596              		.cfi_def_cfa_register 7
 4597 0006 7860     		str	r0, [r7, #4]
 4598 0008 3960     		str	r1, [r7]
2513:Drivers/STM32L4xx_HAL_Driver/Src/stm32l4xx_hal_rcc_ex.c ****   assert_param(IS_RCC_OCTOSPIDELAY(Delay1));
2514:Drivers/STM32L4xx_HAL_Driver/Src/stm32l4xx_hal_rcc_ex.c ****   assert_param(IS_RCC_OCTOSPIDELAY(Delay2));
2515:Drivers/STM32L4xx_HAL_Driver/Src/stm32l4xx_hal_rcc_ex.c **** 
2516:Drivers/STM32L4xx_HAL_Driver/Src/stm32l4xx_hal_rcc_ex.c ****   MODIFY_REG(RCC->DLYCFGR, RCC_DLYCFGR_OCTOSPI1_DLY|RCC_DLYCFGR_OCTOSPI2_DLY, (Delay1 | (Delay2 << 
 4599              		.loc 1 2516 3
 4600 000a 094B     		ldr	r3, .L408
 4601 000c D3F8A430 		ldr	r3, [r3, #164]
 4602 0010 23F0FF02 		bic	r2, r3, #255
 4603 0014 3B68     		ldr	r3, [r7]
 4604 0016 1901     		lsls	r1, r3, #4
 4605 0018 7B68     		ldr	r3, [r7, #4]
 4606 001a 0B43     		orrs	r3, r3, r1
 4607 001c 0449     		ldr	r1, .L408
 4608 001e 1343     		orrs	r3, r3, r2
 4609 0020 C1F8A430 		str	r3, [r1, #164]
2517:Drivers/STM32L4xx_HAL_Driver/Src/stm32l4xx_hal_rcc_ex.c **** }
 4610              		.loc 1 2517 1
 4611 0024 00BF     		nop
 4612 0026 0C37     		adds	r7, r7, #12
 4613              		.cfi_def_cfa_offset 4
 4614 0028 BD46     		mov	sp, r7
 4615              		.cfi_def_cfa_register 13
 4616              		@ sp needed
 4617 002a 5DF8047B 		ldr	r7, [sp], #4
 4618              		.cfi_restore 7
 4619              		.cfi_def_cfa_offset 0
 4620 002e 7047     		bx	lr
 4621              	.L409:
 4622              		.align	2
ARM GAS  C:\Users\Morroway\AppData\Local\Temp\ccOmimY8.s 			page 134


 4623              	.L408:
 4624 0030 00100240 		.word	1073876992
 4625              		.cfi_endproc
 4626              	.LFE339:
 4628              		.section	.text.HAL_RCCEx_CRSConfig,"ax",%progbits
 4629              		.align	1
 4630              		.global	HAL_RCCEx_CRSConfig
 4631              		.syntax unified
 4632              		.thumb
 4633              		.thumb_func
 4635              	HAL_RCCEx_CRSConfig:
 4636              	.LFB340:
2518:Drivers/STM32L4xx_HAL_Driver/Src/stm32l4xx_hal_rcc_ex.c **** #endif /* OCTOSPI1 && OCTOSPI2 */
2519:Drivers/STM32L4xx_HAL_Driver/Src/stm32l4xx_hal_rcc_ex.c **** 
2520:Drivers/STM32L4xx_HAL_Driver/Src/stm32l4xx_hal_rcc_ex.c **** /**
2521:Drivers/STM32L4xx_HAL_Driver/Src/stm32l4xx_hal_rcc_ex.c ****   * @}
2522:Drivers/STM32L4xx_HAL_Driver/Src/stm32l4xx_hal_rcc_ex.c ****   */
2523:Drivers/STM32L4xx_HAL_Driver/Src/stm32l4xx_hal_rcc_ex.c **** 
2524:Drivers/STM32L4xx_HAL_Driver/Src/stm32l4xx_hal_rcc_ex.c **** #if defined(CRS)
2525:Drivers/STM32L4xx_HAL_Driver/Src/stm32l4xx_hal_rcc_ex.c **** 
2526:Drivers/STM32L4xx_HAL_Driver/Src/stm32l4xx_hal_rcc_ex.c **** /** @defgroup RCCEx_Exported_Functions_Group3 Extended Clock Recovery System Control functions
2527:Drivers/STM32L4xx_HAL_Driver/Src/stm32l4xx_hal_rcc_ex.c ****  *  @brief  Extended Clock Recovery System Control functions
2528:Drivers/STM32L4xx_HAL_Driver/Src/stm32l4xx_hal_rcc_ex.c ****  *
2529:Drivers/STM32L4xx_HAL_Driver/Src/stm32l4xx_hal_rcc_ex.c **** @verbatim
2530:Drivers/STM32L4xx_HAL_Driver/Src/stm32l4xx_hal_rcc_ex.c ****  ===============================================================================
2531:Drivers/STM32L4xx_HAL_Driver/Src/stm32l4xx_hal_rcc_ex.c ****                 ##### Extended Clock Recovery System Control functions  #####
2532:Drivers/STM32L4xx_HAL_Driver/Src/stm32l4xx_hal_rcc_ex.c ****  ===============================================================================
2533:Drivers/STM32L4xx_HAL_Driver/Src/stm32l4xx_hal_rcc_ex.c ****     [..]
2534:Drivers/STM32L4xx_HAL_Driver/Src/stm32l4xx_hal_rcc_ex.c ****       For devices with Clock Recovery System feature (CRS), RCC Extension HAL driver can be used as
2535:Drivers/STM32L4xx_HAL_Driver/Src/stm32l4xx_hal_rcc_ex.c **** 
2536:Drivers/STM32L4xx_HAL_Driver/Src/stm32l4xx_hal_rcc_ex.c ****       (#) In System clock config, HSI48 needs to be enabled
2537:Drivers/STM32L4xx_HAL_Driver/Src/stm32l4xx_hal_rcc_ex.c **** 
2538:Drivers/STM32L4xx_HAL_Driver/Src/stm32l4xx_hal_rcc_ex.c ****       (#) Enable CRS clock in IP MSP init which will use CRS functions
2539:Drivers/STM32L4xx_HAL_Driver/Src/stm32l4xx_hal_rcc_ex.c **** 
2540:Drivers/STM32L4xx_HAL_Driver/Src/stm32l4xx_hal_rcc_ex.c ****       (#) Call CRS functions as follows:
2541:Drivers/STM32L4xx_HAL_Driver/Src/stm32l4xx_hal_rcc_ex.c ****           (##) Prepare synchronization configuration necessary for HSI48 calibration
2542:Drivers/STM32L4xx_HAL_Driver/Src/stm32l4xx_hal_rcc_ex.c ****               (+++) Default values can be set for frequency Error Measurement (reload and error lim
2543:Drivers/STM32L4xx_HAL_Driver/Src/stm32l4xx_hal_rcc_ex.c ****                         and also HSI48 oscillator smooth trimming.
2544:Drivers/STM32L4xx_HAL_Driver/Src/stm32l4xx_hal_rcc_ex.c ****               (+++) Macro __HAL_RCC_CRS_RELOADVALUE_CALCULATE can be also used to calculate
2545:Drivers/STM32L4xx_HAL_Driver/Src/stm32l4xx_hal_rcc_ex.c ****                         directly reload value with target and sychronization frequencies values
2546:Drivers/STM32L4xx_HAL_Driver/Src/stm32l4xx_hal_rcc_ex.c ****           (##) Call function HAL_RCCEx_CRSConfig which
2547:Drivers/STM32L4xx_HAL_Driver/Src/stm32l4xx_hal_rcc_ex.c ****               (+++) Resets CRS registers to their default values.
2548:Drivers/STM32L4xx_HAL_Driver/Src/stm32l4xx_hal_rcc_ex.c ****               (+++) Configures CRS registers with synchronization configuration
2549:Drivers/STM32L4xx_HAL_Driver/Src/stm32l4xx_hal_rcc_ex.c ****               (+++) Enables automatic calibration and frequency error counter feature
2550:Drivers/STM32L4xx_HAL_Driver/Src/stm32l4xx_hal_rcc_ex.c ****            Note: When using USB LPM (Link Power Management) and the device is in Sleep mode, the
2551:Drivers/STM32L4xx_HAL_Driver/Src/stm32l4xx_hal_rcc_ex.c ****            periodic USB SOF will not be generated by the host. No SYNC signal will therefore be
2552:Drivers/STM32L4xx_HAL_Driver/Src/stm32l4xx_hal_rcc_ex.c ****            provided to the CRS to calibrate the HSI48 on the run. To guarantee the required clock
2553:Drivers/STM32L4xx_HAL_Driver/Src/stm32l4xx_hal_rcc_ex.c ****            precision after waking up from Sleep mode, the LSE or reference clock on the GPIOs
2554:Drivers/STM32L4xx_HAL_Driver/Src/stm32l4xx_hal_rcc_ex.c ****            should be used as SYNC signal.
2555:Drivers/STM32L4xx_HAL_Driver/Src/stm32l4xx_hal_rcc_ex.c **** 
2556:Drivers/STM32L4xx_HAL_Driver/Src/stm32l4xx_hal_rcc_ex.c ****           (##) A polling function is provided to wait for complete synchronization
2557:Drivers/STM32L4xx_HAL_Driver/Src/stm32l4xx_hal_rcc_ex.c ****               (+++) Call function HAL_RCCEx_CRSWaitSynchronization()
2558:Drivers/STM32L4xx_HAL_Driver/Src/stm32l4xx_hal_rcc_ex.c ****               (+++) According to CRS status, user can decide to adjust again the calibration or con
2559:Drivers/STM32L4xx_HAL_Driver/Src/stm32l4xx_hal_rcc_ex.c ****                         application if synchronization is OK
2560:Drivers/STM32L4xx_HAL_Driver/Src/stm32l4xx_hal_rcc_ex.c **** 
2561:Drivers/STM32L4xx_HAL_Driver/Src/stm32l4xx_hal_rcc_ex.c ****       (#) User can retrieve information related to synchronization in calling function
2562:Drivers/STM32L4xx_HAL_Driver/Src/stm32l4xx_hal_rcc_ex.c ****             HAL_RCCEx_CRSGetSynchronizationInfo()
ARM GAS  C:\Users\Morroway\AppData\Local\Temp\ccOmimY8.s 			page 135


2563:Drivers/STM32L4xx_HAL_Driver/Src/stm32l4xx_hal_rcc_ex.c **** 
2564:Drivers/STM32L4xx_HAL_Driver/Src/stm32l4xx_hal_rcc_ex.c ****       (#) Regarding synchronization status and synchronization information, user can try a new cali
2565:Drivers/STM32L4xx_HAL_Driver/Src/stm32l4xx_hal_rcc_ex.c ****            in changing synchronization configuration and call again HAL_RCCEx_CRSConfig.
2566:Drivers/STM32L4xx_HAL_Driver/Src/stm32l4xx_hal_rcc_ex.c ****            Note: When the SYNC event is detected during the downcounting phase (before reaching the
2567:Drivers/STM32L4xx_HAL_Driver/Src/stm32l4xx_hal_rcc_ex.c ****            it means that the actual frequency is lower than the target (and so, that the TRIM value
2568:Drivers/STM32L4xx_HAL_Driver/Src/stm32l4xx_hal_rcc_ex.c ****            incremented), while when it is detected during the upcounting phase it means that the ac
2569:Drivers/STM32L4xx_HAL_Driver/Src/stm32l4xx_hal_rcc_ex.c ****            is higher (and that the TRIM value should be decremented).
2570:Drivers/STM32L4xx_HAL_Driver/Src/stm32l4xx_hal_rcc_ex.c **** 
2571:Drivers/STM32L4xx_HAL_Driver/Src/stm32l4xx_hal_rcc_ex.c ****       (#) In interrupt mode, user can resort to the available macros (__HAL_RCC_CRS_XXX_IT). Interr
2572:Drivers/STM32L4xx_HAL_Driver/Src/stm32l4xx_hal_rcc_ex.c ****           through CRS Handler (CRS_IRQn/CRS_IRQHandler)
2573:Drivers/STM32L4xx_HAL_Driver/Src/stm32l4xx_hal_rcc_ex.c ****               (++) Call function HAL_RCCEx_CRSConfig()
2574:Drivers/STM32L4xx_HAL_Driver/Src/stm32l4xx_hal_rcc_ex.c ****               (++) Enable CRS_IRQn (thanks to NVIC functions)
2575:Drivers/STM32L4xx_HAL_Driver/Src/stm32l4xx_hal_rcc_ex.c ****               (++) Enable CRS interrupt (__HAL_RCC_CRS_ENABLE_IT)
2576:Drivers/STM32L4xx_HAL_Driver/Src/stm32l4xx_hal_rcc_ex.c ****               (++) Implement CRS status management in the following user callbacks called from
2577:Drivers/STM32L4xx_HAL_Driver/Src/stm32l4xx_hal_rcc_ex.c ****                    HAL_RCCEx_CRS_IRQHandler():
2578:Drivers/STM32L4xx_HAL_Driver/Src/stm32l4xx_hal_rcc_ex.c ****                    (+++) HAL_RCCEx_CRS_SyncOkCallback()
2579:Drivers/STM32L4xx_HAL_Driver/Src/stm32l4xx_hal_rcc_ex.c ****                    (+++) HAL_RCCEx_CRS_SyncWarnCallback()
2580:Drivers/STM32L4xx_HAL_Driver/Src/stm32l4xx_hal_rcc_ex.c ****                    (+++) HAL_RCCEx_CRS_ExpectedSyncCallback()
2581:Drivers/STM32L4xx_HAL_Driver/Src/stm32l4xx_hal_rcc_ex.c ****                    (+++) HAL_RCCEx_CRS_ErrorCallback()
2582:Drivers/STM32L4xx_HAL_Driver/Src/stm32l4xx_hal_rcc_ex.c **** 
2583:Drivers/STM32L4xx_HAL_Driver/Src/stm32l4xx_hal_rcc_ex.c ****       (#) To force a SYNC EVENT, user can use the function HAL_RCCEx_CRSSoftwareSynchronizationGene
2584:Drivers/STM32L4xx_HAL_Driver/Src/stm32l4xx_hal_rcc_ex.c ****           This function can be called before calling HAL_RCCEx_CRSConfig (for instance in Systick h
2585:Drivers/STM32L4xx_HAL_Driver/Src/stm32l4xx_hal_rcc_ex.c **** 
2586:Drivers/STM32L4xx_HAL_Driver/Src/stm32l4xx_hal_rcc_ex.c **** @endverbatim
2587:Drivers/STM32L4xx_HAL_Driver/Src/stm32l4xx_hal_rcc_ex.c ****  * @{
2588:Drivers/STM32L4xx_HAL_Driver/Src/stm32l4xx_hal_rcc_ex.c ****  */
2589:Drivers/STM32L4xx_HAL_Driver/Src/stm32l4xx_hal_rcc_ex.c **** 
2590:Drivers/STM32L4xx_HAL_Driver/Src/stm32l4xx_hal_rcc_ex.c **** /**
2591:Drivers/STM32L4xx_HAL_Driver/Src/stm32l4xx_hal_rcc_ex.c ****   * @brief  Start automatic synchronization for polling mode
2592:Drivers/STM32L4xx_HAL_Driver/Src/stm32l4xx_hal_rcc_ex.c ****   * @param  pInit Pointer on RCC_CRSInitTypeDef structure
2593:Drivers/STM32L4xx_HAL_Driver/Src/stm32l4xx_hal_rcc_ex.c ****   * @retval None
2594:Drivers/STM32L4xx_HAL_Driver/Src/stm32l4xx_hal_rcc_ex.c ****   */
2595:Drivers/STM32L4xx_HAL_Driver/Src/stm32l4xx_hal_rcc_ex.c **** void HAL_RCCEx_CRSConfig(RCC_CRSInitTypeDef *pInit)
2596:Drivers/STM32L4xx_HAL_Driver/Src/stm32l4xx_hal_rcc_ex.c **** {
 4637              		.loc 1 2596 1
 4638              		.cfi_startproc
 4639              		@ args = 0, pretend = 0, frame = 16
 4640              		@ frame_needed = 1, uses_anonymous_args = 0
 4641              		@ link register save eliminated.
 4642 0000 80B4     		push	{r7}
 4643              		.cfi_def_cfa_offset 4
 4644              		.cfi_offset 7, -4
 4645 0002 85B0     		sub	sp, sp, #20
 4646              		.cfi_def_cfa_offset 24
 4647 0004 00AF     		add	r7, sp, #0
 4648              		.cfi_def_cfa_register 7
 4649 0006 7860     		str	r0, [r7, #4]
2597:Drivers/STM32L4xx_HAL_Driver/Src/stm32l4xx_hal_rcc_ex.c ****   uint32_t value;  /* no init needed */
2598:Drivers/STM32L4xx_HAL_Driver/Src/stm32l4xx_hal_rcc_ex.c **** 
2599:Drivers/STM32L4xx_HAL_Driver/Src/stm32l4xx_hal_rcc_ex.c ****   /* Check the parameters */
2600:Drivers/STM32L4xx_HAL_Driver/Src/stm32l4xx_hal_rcc_ex.c ****   assert_param(IS_RCC_CRS_SYNC_DIV(pInit->Prescaler));
2601:Drivers/STM32L4xx_HAL_Driver/Src/stm32l4xx_hal_rcc_ex.c ****   assert_param(IS_RCC_CRS_SYNC_SOURCE(pInit->Source));
2602:Drivers/STM32L4xx_HAL_Driver/Src/stm32l4xx_hal_rcc_ex.c ****   assert_param(IS_RCC_CRS_SYNC_POLARITY(pInit->Polarity));
2603:Drivers/STM32L4xx_HAL_Driver/Src/stm32l4xx_hal_rcc_ex.c ****   assert_param(IS_RCC_CRS_RELOADVALUE(pInit->ReloadValue));
2604:Drivers/STM32L4xx_HAL_Driver/Src/stm32l4xx_hal_rcc_ex.c ****   assert_param(IS_RCC_CRS_ERRORLIMIT(pInit->ErrorLimitValue));
2605:Drivers/STM32L4xx_HAL_Driver/Src/stm32l4xx_hal_rcc_ex.c ****   assert_param(IS_RCC_CRS_HSI48CALIBRATION(pInit->HSI48CalibrationValue));
2606:Drivers/STM32L4xx_HAL_Driver/Src/stm32l4xx_hal_rcc_ex.c **** 
ARM GAS  C:\Users\Morroway\AppData\Local\Temp\ccOmimY8.s 			page 136


2607:Drivers/STM32L4xx_HAL_Driver/Src/stm32l4xx_hal_rcc_ex.c ****   /* CONFIGURATION */
2608:Drivers/STM32L4xx_HAL_Driver/Src/stm32l4xx_hal_rcc_ex.c **** 
2609:Drivers/STM32L4xx_HAL_Driver/Src/stm32l4xx_hal_rcc_ex.c ****   /* Before configuration, reset CRS registers to their default values*/
2610:Drivers/STM32L4xx_HAL_Driver/Src/stm32l4xx_hal_rcc_ex.c ****   __HAL_RCC_CRS_FORCE_RESET();
 4650              		.loc 1 2610 3
 4651 0008 1C4B     		ldr	r3, .L411
 4652 000a 9B6B     		ldr	r3, [r3, #56]
 4653 000c 1B4A     		ldr	r2, .L411
 4654 000e 43F08073 		orr	r3, r3, #16777216
 4655 0012 9363     		str	r3, [r2, #56]
2611:Drivers/STM32L4xx_HAL_Driver/Src/stm32l4xx_hal_rcc_ex.c ****   __HAL_RCC_CRS_RELEASE_RESET();
 4656              		.loc 1 2611 3
 4657 0014 194B     		ldr	r3, .L411
 4658 0016 9B6B     		ldr	r3, [r3, #56]
 4659 0018 184A     		ldr	r2, .L411
 4660 001a 23F08073 		bic	r3, r3, #16777216
 4661 001e 9363     		str	r3, [r2, #56]
2612:Drivers/STM32L4xx_HAL_Driver/Src/stm32l4xx_hal_rcc_ex.c **** 
2613:Drivers/STM32L4xx_HAL_Driver/Src/stm32l4xx_hal_rcc_ex.c ****   /* Set the SYNCDIV[2:0] bits according to Prescaler value */
2614:Drivers/STM32L4xx_HAL_Driver/Src/stm32l4xx_hal_rcc_ex.c ****   /* Set the SYNCSRC[1:0] bits according to Source value */
2615:Drivers/STM32L4xx_HAL_Driver/Src/stm32l4xx_hal_rcc_ex.c ****   /* Set the SYNCSPOL bit according to Polarity value */
2616:Drivers/STM32L4xx_HAL_Driver/Src/stm32l4xx_hal_rcc_ex.c ****   value = (pInit->Prescaler | pInit->Source | pInit->Polarity);
 4662              		.loc 1 2616 17
 4663 0020 7B68     		ldr	r3, [r7, #4]
 4664 0022 1A68     		ldr	r2, [r3]
 4665              		.loc 1 2616 36
 4666 0024 7B68     		ldr	r3, [r7, #4]
 4667 0026 5B68     		ldr	r3, [r3, #4]
 4668              		.loc 1 2616 29
 4669 0028 1A43     		orrs	r2, r2, r3
 4670              		.loc 1 2616 52
 4671 002a 7B68     		ldr	r3, [r7, #4]
 4672 002c 9B68     		ldr	r3, [r3, #8]
 4673              		.loc 1 2616 9
 4674 002e 1343     		orrs	r3, r3, r2
 4675 0030 FB60     		str	r3, [r7, #12]
2617:Drivers/STM32L4xx_HAL_Driver/Src/stm32l4xx_hal_rcc_ex.c ****   /* Set the RELOAD[15:0] bits according to ReloadValue value */
2618:Drivers/STM32L4xx_HAL_Driver/Src/stm32l4xx_hal_rcc_ex.c ****   value |= pInit->ReloadValue;
 4676              		.loc 1 2618 17
 4677 0032 7B68     		ldr	r3, [r7, #4]
 4678 0034 DB68     		ldr	r3, [r3, #12]
 4679              		.loc 1 2618 9
 4680 0036 FA68     		ldr	r2, [r7, #12]
 4681 0038 1343     		orrs	r3, r3, r2
 4682 003a FB60     		str	r3, [r7, #12]
2619:Drivers/STM32L4xx_HAL_Driver/Src/stm32l4xx_hal_rcc_ex.c ****   /* Set the FELIM[7:0] bits according to ErrorLimitValue value */
2620:Drivers/STM32L4xx_HAL_Driver/Src/stm32l4xx_hal_rcc_ex.c ****   value |= (pInit->ErrorLimitValue << CRS_CFGR_FELIM_Pos);
 4683              		.loc 1 2620 18
 4684 003c 7B68     		ldr	r3, [r7, #4]
 4685 003e 1B69     		ldr	r3, [r3, #16]
 4686              		.loc 1 2620 36
 4687 0040 1B04     		lsls	r3, r3, #16
 4688              		.loc 1 2620 9
 4689 0042 FA68     		ldr	r2, [r7, #12]
 4690 0044 1343     		orrs	r3, r3, r2
 4691 0046 FB60     		str	r3, [r7, #12]
2621:Drivers/STM32L4xx_HAL_Driver/Src/stm32l4xx_hal_rcc_ex.c ****   WRITE_REG(CRS->CFGR, value);
ARM GAS  C:\Users\Morroway\AppData\Local\Temp\ccOmimY8.s 			page 137


 4692              		.loc 1 2621 3
 4693 0048 0D4A     		ldr	r2, .L411+4
 4694 004a FB68     		ldr	r3, [r7, #12]
 4695 004c 5360     		str	r3, [r2, #4]
2622:Drivers/STM32L4xx_HAL_Driver/Src/stm32l4xx_hal_rcc_ex.c **** 
2623:Drivers/STM32L4xx_HAL_Driver/Src/stm32l4xx_hal_rcc_ex.c ****   /* Adjust HSI48 oscillator smooth trimming */
2624:Drivers/STM32L4xx_HAL_Driver/Src/stm32l4xx_hal_rcc_ex.c ****   /* Set the TRIM[6:0] bits for STM32L412xx/L422xx or TRIM[5:0] bits otherwise
2625:Drivers/STM32L4xx_HAL_Driver/Src/stm32l4xx_hal_rcc_ex.c ****      according to RCC_CRS_HSI48CalibrationValue value */
2626:Drivers/STM32L4xx_HAL_Driver/Src/stm32l4xx_hal_rcc_ex.c ****   MODIFY_REG(CRS->CR, CRS_CR_TRIM, (pInit->HSI48CalibrationValue << CRS_CR_TRIM_Pos));
 4696              		.loc 1 2626 3
 4697 004e 0C4B     		ldr	r3, .L411+4
 4698 0050 1B68     		ldr	r3, [r3]
 4699 0052 23F47C52 		bic	r2, r3, #16128
 4700 0056 7B68     		ldr	r3, [r7, #4]
 4701 0058 5B69     		ldr	r3, [r3, #20]
 4702 005a 1B02     		lsls	r3, r3, #8
 4703 005c 0849     		ldr	r1, .L411+4
 4704 005e 1343     		orrs	r3, r3, r2
 4705 0060 0B60     		str	r3, [r1]
2627:Drivers/STM32L4xx_HAL_Driver/Src/stm32l4xx_hal_rcc_ex.c **** 
2628:Drivers/STM32L4xx_HAL_Driver/Src/stm32l4xx_hal_rcc_ex.c ****   /* START AUTOMATIC SYNCHRONIZATION*/
2629:Drivers/STM32L4xx_HAL_Driver/Src/stm32l4xx_hal_rcc_ex.c **** 
2630:Drivers/STM32L4xx_HAL_Driver/Src/stm32l4xx_hal_rcc_ex.c ****   /* Enable Automatic trimming & Frequency error counter */
2631:Drivers/STM32L4xx_HAL_Driver/Src/stm32l4xx_hal_rcc_ex.c ****   SET_BIT(CRS->CR, CRS_CR_AUTOTRIMEN | CRS_CR_CEN);
 4706              		.loc 1 2631 3
 4707 0062 074B     		ldr	r3, .L411+4
 4708 0064 1B68     		ldr	r3, [r3]
 4709 0066 064A     		ldr	r2, .L411+4
 4710 0068 43F06003 		orr	r3, r3, #96
 4711 006c 1360     		str	r3, [r2]
2632:Drivers/STM32L4xx_HAL_Driver/Src/stm32l4xx_hal_rcc_ex.c **** }
 4712              		.loc 1 2632 1
 4713 006e 00BF     		nop
 4714 0070 1437     		adds	r7, r7, #20
 4715              		.cfi_def_cfa_offset 4
 4716 0072 BD46     		mov	sp, r7
 4717              		.cfi_def_cfa_register 13
 4718              		@ sp needed
 4719 0074 5DF8047B 		ldr	r7, [sp], #4
 4720              		.cfi_restore 7
 4721              		.cfi_def_cfa_offset 0
 4722 0078 7047     		bx	lr
 4723              	.L412:
 4724 007a 00BF     		.align	2
 4725              	.L411:
 4726 007c 00100240 		.word	1073876992
 4727 0080 00600040 		.word	1073766400
 4728              		.cfi_endproc
 4729              	.LFE340:
 4731              		.section	.text.HAL_RCCEx_CRSSoftwareSynchronizationGenerate,"ax",%progbits
 4732              		.align	1
 4733              		.global	HAL_RCCEx_CRSSoftwareSynchronizationGenerate
 4734              		.syntax unified
 4735              		.thumb
 4736              		.thumb_func
 4738              	HAL_RCCEx_CRSSoftwareSynchronizationGenerate:
 4739              	.LFB341:
ARM GAS  C:\Users\Morroway\AppData\Local\Temp\ccOmimY8.s 			page 138


2633:Drivers/STM32L4xx_HAL_Driver/Src/stm32l4xx_hal_rcc_ex.c **** 
2634:Drivers/STM32L4xx_HAL_Driver/Src/stm32l4xx_hal_rcc_ex.c **** /**
2635:Drivers/STM32L4xx_HAL_Driver/Src/stm32l4xx_hal_rcc_ex.c ****   * @brief  Generate the software synchronization event
2636:Drivers/STM32L4xx_HAL_Driver/Src/stm32l4xx_hal_rcc_ex.c ****   * @retval None
2637:Drivers/STM32L4xx_HAL_Driver/Src/stm32l4xx_hal_rcc_ex.c ****   */
2638:Drivers/STM32L4xx_HAL_Driver/Src/stm32l4xx_hal_rcc_ex.c **** void HAL_RCCEx_CRSSoftwareSynchronizationGenerate(void)
2639:Drivers/STM32L4xx_HAL_Driver/Src/stm32l4xx_hal_rcc_ex.c **** {
 4740              		.loc 1 2639 1
 4741              		.cfi_startproc
 4742              		@ args = 0, pretend = 0, frame = 0
 4743              		@ frame_needed = 1, uses_anonymous_args = 0
 4744              		@ link register save eliminated.
 4745 0000 80B4     		push	{r7}
 4746              		.cfi_def_cfa_offset 4
 4747              		.cfi_offset 7, -4
 4748 0002 00AF     		add	r7, sp, #0
 4749              		.cfi_def_cfa_register 7
2640:Drivers/STM32L4xx_HAL_Driver/Src/stm32l4xx_hal_rcc_ex.c ****   SET_BIT(CRS->CR, CRS_CR_SWSYNC);
 4750              		.loc 1 2640 3
 4751 0004 054B     		ldr	r3, .L414
 4752 0006 1B68     		ldr	r3, [r3]
 4753 0008 044A     		ldr	r2, .L414
 4754 000a 43F08003 		orr	r3, r3, #128
 4755 000e 1360     		str	r3, [r2]
2641:Drivers/STM32L4xx_HAL_Driver/Src/stm32l4xx_hal_rcc_ex.c **** }
 4756              		.loc 1 2641 1
 4757 0010 00BF     		nop
 4758 0012 BD46     		mov	sp, r7
 4759              		.cfi_def_cfa_register 13
 4760              		@ sp needed
 4761 0014 5DF8047B 		ldr	r7, [sp], #4
 4762              		.cfi_restore 7
 4763              		.cfi_def_cfa_offset 0
 4764 0018 7047     		bx	lr
 4765              	.L415:
 4766 001a 00BF     		.align	2
 4767              	.L414:
 4768 001c 00600040 		.word	1073766400
 4769              		.cfi_endproc
 4770              	.LFE341:
 4772              		.section	.text.HAL_RCCEx_CRSGetSynchronizationInfo,"ax",%progbits
 4773              		.align	1
 4774              		.global	HAL_RCCEx_CRSGetSynchronizationInfo
 4775              		.syntax unified
 4776              		.thumb
 4777              		.thumb_func
 4779              	HAL_RCCEx_CRSGetSynchronizationInfo:
 4780              	.LFB342:
2642:Drivers/STM32L4xx_HAL_Driver/Src/stm32l4xx_hal_rcc_ex.c **** 
2643:Drivers/STM32L4xx_HAL_Driver/Src/stm32l4xx_hal_rcc_ex.c **** /**
2644:Drivers/STM32L4xx_HAL_Driver/Src/stm32l4xx_hal_rcc_ex.c ****   * @brief  Return synchronization info
2645:Drivers/STM32L4xx_HAL_Driver/Src/stm32l4xx_hal_rcc_ex.c ****   * @param  pSynchroInfo Pointer on RCC_CRSSynchroInfoTypeDef structure
2646:Drivers/STM32L4xx_HAL_Driver/Src/stm32l4xx_hal_rcc_ex.c ****   * @retval None
2647:Drivers/STM32L4xx_HAL_Driver/Src/stm32l4xx_hal_rcc_ex.c ****   */
2648:Drivers/STM32L4xx_HAL_Driver/Src/stm32l4xx_hal_rcc_ex.c **** void HAL_RCCEx_CRSGetSynchronizationInfo(RCC_CRSSynchroInfoTypeDef *pSynchroInfo)
2649:Drivers/STM32L4xx_HAL_Driver/Src/stm32l4xx_hal_rcc_ex.c **** {
 4781              		.loc 1 2649 1
ARM GAS  C:\Users\Morroway\AppData\Local\Temp\ccOmimY8.s 			page 139


 4782              		.cfi_startproc
 4783              		@ args = 0, pretend = 0, frame = 8
 4784              		@ frame_needed = 1, uses_anonymous_args = 0
 4785              		@ link register save eliminated.
 4786 0000 80B4     		push	{r7}
 4787              		.cfi_def_cfa_offset 4
 4788              		.cfi_offset 7, -4
 4789 0002 83B0     		sub	sp, sp, #12
 4790              		.cfi_def_cfa_offset 16
 4791 0004 00AF     		add	r7, sp, #0
 4792              		.cfi_def_cfa_register 7
 4793 0006 7860     		str	r0, [r7, #4]
2650:Drivers/STM32L4xx_HAL_Driver/Src/stm32l4xx_hal_rcc_ex.c ****   /* Check the parameter */
2651:Drivers/STM32L4xx_HAL_Driver/Src/stm32l4xx_hal_rcc_ex.c ****   assert_param(pSynchroInfo != (void *)NULL);
2652:Drivers/STM32L4xx_HAL_Driver/Src/stm32l4xx_hal_rcc_ex.c **** 
2653:Drivers/STM32L4xx_HAL_Driver/Src/stm32l4xx_hal_rcc_ex.c ****   /* Get the reload value */
2654:Drivers/STM32L4xx_HAL_Driver/Src/stm32l4xx_hal_rcc_ex.c ****   pSynchroInfo->ReloadValue = (READ_BIT(CRS->CFGR, CRS_CFGR_RELOAD));
 4794              		.loc 1 2654 32
 4795 0008 0E4B     		ldr	r3, .L417
 4796 000a 5B68     		ldr	r3, [r3, #4]
 4797 000c 9AB2     		uxth	r2, r3
 4798              		.loc 1 2654 29
 4799 000e 7B68     		ldr	r3, [r7, #4]
 4800 0010 1A60     		str	r2, [r3]
2655:Drivers/STM32L4xx_HAL_Driver/Src/stm32l4xx_hal_rcc_ex.c **** 
2656:Drivers/STM32L4xx_HAL_Driver/Src/stm32l4xx_hal_rcc_ex.c ****   /* Get HSI48 oscillator smooth trimming */
2657:Drivers/STM32L4xx_HAL_Driver/Src/stm32l4xx_hal_rcc_ex.c ****   pSynchroInfo->HSI48CalibrationValue = (READ_BIT(CRS->CR, CRS_CR_TRIM) >> CRS_CR_TRIM_Pos);
 4801              		.loc 1 2657 42
 4802 0012 0C4B     		ldr	r3, .L417
 4803 0014 1B68     		ldr	r3, [r3]
 4804              		.loc 1 2657 73
 4805 0016 1B0A     		lsrs	r3, r3, #8
 4806 0018 03F03F02 		and	r2, r3, #63
 4807              		.loc 1 2657 39
 4808 001c 7B68     		ldr	r3, [r7, #4]
 4809 001e 5A60     		str	r2, [r3, #4]
2658:Drivers/STM32L4xx_HAL_Driver/Src/stm32l4xx_hal_rcc_ex.c **** 
2659:Drivers/STM32L4xx_HAL_Driver/Src/stm32l4xx_hal_rcc_ex.c ****   /* Get Frequency error capture */
2660:Drivers/STM32L4xx_HAL_Driver/Src/stm32l4xx_hal_rcc_ex.c ****   pSynchroInfo->FreqErrorCapture = (READ_BIT(CRS->ISR, CRS_ISR_FECAP) >> CRS_ISR_FECAP_Pos);
 4810              		.loc 1 2660 37
 4811 0020 084B     		ldr	r3, .L417
 4812 0022 9B68     		ldr	r3, [r3, #8]
 4813              		.loc 1 2660 71
 4814 0024 1B0C     		lsrs	r3, r3, #16
 4815 0026 9AB2     		uxth	r2, r3
 4816              		.loc 1 2660 34
 4817 0028 7B68     		ldr	r3, [r7, #4]
 4818 002a 9A60     		str	r2, [r3, #8]
2661:Drivers/STM32L4xx_HAL_Driver/Src/stm32l4xx_hal_rcc_ex.c **** 
2662:Drivers/STM32L4xx_HAL_Driver/Src/stm32l4xx_hal_rcc_ex.c ****   /* Get Frequency error direction */
2663:Drivers/STM32L4xx_HAL_Driver/Src/stm32l4xx_hal_rcc_ex.c ****   pSynchroInfo->FreqErrorDirection = (READ_BIT(CRS->ISR, CRS_ISR_FEDIR));
 4819              		.loc 1 2663 39
 4820 002c 054B     		ldr	r3, .L417
 4821 002e 9B68     		ldr	r3, [r3, #8]
 4822 0030 03F40042 		and	r2, r3, #32768
 4823              		.loc 1 2663 36
 4824 0034 7B68     		ldr	r3, [r7, #4]
ARM GAS  C:\Users\Morroway\AppData\Local\Temp\ccOmimY8.s 			page 140


 4825 0036 DA60     		str	r2, [r3, #12]
2664:Drivers/STM32L4xx_HAL_Driver/Src/stm32l4xx_hal_rcc_ex.c **** }
 4826              		.loc 1 2664 1
 4827 0038 00BF     		nop
 4828 003a 0C37     		adds	r7, r7, #12
 4829              		.cfi_def_cfa_offset 4
 4830 003c BD46     		mov	sp, r7
 4831              		.cfi_def_cfa_register 13
 4832              		@ sp needed
 4833 003e 5DF8047B 		ldr	r7, [sp], #4
 4834              		.cfi_restore 7
 4835              		.cfi_def_cfa_offset 0
 4836 0042 7047     		bx	lr
 4837              	.L418:
 4838              		.align	2
 4839              	.L417:
 4840 0044 00600040 		.word	1073766400
 4841              		.cfi_endproc
 4842              	.LFE342:
 4844              		.section	.text.HAL_RCCEx_CRSWaitSynchronization,"ax",%progbits
 4845              		.align	1
 4846              		.global	HAL_RCCEx_CRSWaitSynchronization
 4847              		.syntax unified
 4848              		.thumb
 4849              		.thumb_func
 4851              	HAL_RCCEx_CRSWaitSynchronization:
 4852              	.LFB343:
2665:Drivers/STM32L4xx_HAL_Driver/Src/stm32l4xx_hal_rcc_ex.c **** 
2666:Drivers/STM32L4xx_HAL_Driver/Src/stm32l4xx_hal_rcc_ex.c **** /**
2667:Drivers/STM32L4xx_HAL_Driver/Src/stm32l4xx_hal_rcc_ex.c **** * @brief Wait for CRS Synchronization status.
2668:Drivers/STM32L4xx_HAL_Driver/Src/stm32l4xx_hal_rcc_ex.c **** * @param Timeout  Duration of the timeout
2669:Drivers/STM32L4xx_HAL_Driver/Src/stm32l4xx_hal_rcc_ex.c **** * @note  Timeout is based on the maximum time to receive a SYNC event based on synchronization
2670:Drivers/STM32L4xx_HAL_Driver/Src/stm32l4xx_hal_rcc_ex.c **** *        frequency.
2671:Drivers/STM32L4xx_HAL_Driver/Src/stm32l4xx_hal_rcc_ex.c **** * @note    If Timeout set to HAL_MAX_DELAY, HAL_TIMEOUT will be never returned.
2672:Drivers/STM32L4xx_HAL_Driver/Src/stm32l4xx_hal_rcc_ex.c **** * @retval Combination of Synchronization status
2673:Drivers/STM32L4xx_HAL_Driver/Src/stm32l4xx_hal_rcc_ex.c **** *          This parameter can be a combination of the following values:
2674:Drivers/STM32L4xx_HAL_Driver/Src/stm32l4xx_hal_rcc_ex.c **** *            @arg @ref RCC_CRS_TIMEOUT
2675:Drivers/STM32L4xx_HAL_Driver/Src/stm32l4xx_hal_rcc_ex.c **** *            @arg @ref RCC_CRS_SYNCOK
2676:Drivers/STM32L4xx_HAL_Driver/Src/stm32l4xx_hal_rcc_ex.c **** *            @arg @ref RCC_CRS_SYNCWARN
2677:Drivers/STM32L4xx_HAL_Driver/Src/stm32l4xx_hal_rcc_ex.c **** *            @arg @ref RCC_CRS_SYNCERR
2678:Drivers/STM32L4xx_HAL_Driver/Src/stm32l4xx_hal_rcc_ex.c **** *            @arg @ref RCC_CRS_SYNCMISS
2679:Drivers/STM32L4xx_HAL_Driver/Src/stm32l4xx_hal_rcc_ex.c **** *            @arg @ref RCC_CRS_TRIMOVF
2680:Drivers/STM32L4xx_HAL_Driver/Src/stm32l4xx_hal_rcc_ex.c **** */
2681:Drivers/STM32L4xx_HAL_Driver/Src/stm32l4xx_hal_rcc_ex.c **** uint32_t HAL_RCCEx_CRSWaitSynchronization(uint32_t Timeout)
2682:Drivers/STM32L4xx_HAL_Driver/Src/stm32l4xx_hal_rcc_ex.c **** {
 4853              		.loc 1 2682 1
 4854              		.cfi_startproc
 4855              		@ args = 0, pretend = 0, frame = 16
 4856              		@ frame_needed = 1, uses_anonymous_args = 0
 4857 0000 80B5     		push	{r7, lr}
 4858              		.cfi_def_cfa_offset 8
 4859              		.cfi_offset 7, -8
 4860              		.cfi_offset 14, -4
 4861 0002 84B0     		sub	sp, sp, #16
 4862              		.cfi_def_cfa_offset 24
 4863 0004 00AF     		add	r7, sp, #0
 4864              		.cfi_def_cfa_register 7
ARM GAS  C:\Users\Morroway\AppData\Local\Temp\ccOmimY8.s 			page 141


 4865 0006 7860     		str	r0, [r7, #4]
2683:Drivers/STM32L4xx_HAL_Driver/Src/stm32l4xx_hal_rcc_ex.c ****   uint32_t crsstatus = RCC_CRS_NONE;
 4866              		.loc 1 2683 12
 4867 0008 0023     		movs	r3, #0
 4868 000a FB60     		str	r3, [r7, #12]
2684:Drivers/STM32L4xx_HAL_Driver/Src/stm32l4xx_hal_rcc_ex.c ****   uint32_t tickstart;
2685:Drivers/STM32L4xx_HAL_Driver/Src/stm32l4xx_hal_rcc_ex.c **** 
2686:Drivers/STM32L4xx_HAL_Driver/Src/stm32l4xx_hal_rcc_ex.c ****   /* Get timeout */
2687:Drivers/STM32L4xx_HAL_Driver/Src/stm32l4xx_hal_rcc_ex.c ****   tickstart = HAL_GetTick();
 4869              		.loc 1 2687 15
 4870 000c FFF7FEFF 		bl	HAL_GetTick
 4871 0010 B860     		str	r0, [r7, #8]
 4872              	.L428:
2688:Drivers/STM32L4xx_HAL_Driver/Src/stm32l4xx_hal_rcc_ex.c **** 
2689:Drivers/STM32L4xx_HAL_Driver/Src/stm32l4xx_hal_rcc_ex.c ****   /* Wait for CRS flag or timeout detection */
2690:Drivers/STM32L4xx_HAL_Driver/Src/stm32l4xx_hal_rcc_ex.c ****   do
2691:Drivers/STM32L4xx_HAL_Driver/Src/stm32l4xx_hal_rcc_ex.c ****   {
2692:Drivers/STM32L4xx_HAL_Driver/Src/stm32l4xx_hal_rcc_ex.c ****     if(Timeout != HAL_MAX_DELAY)
 4873              		.loc 1 2692 7
 4874 0012 7B68     		ldr	r3, [r7, #4]
 4875 0014 B3F1FF3F 		cmp	r3, #-1
 4876 0018 0CD0     		beq	.L420
2693:Drivers/STM32L4xx_HAL_Driver/Src/stm32l4xx_hal_rcc_ex.c ****     {
2694:Drivers/STM32L4xx_HAL_Driver/Src/stm32l4xx_hal_rcc_ex.c ****       if(((HAL_GetTick() - tickstart) > Timeout) || (Timeout == 0U))
 4877              		.loc 1 2694 12
 4878 001a FFF7FEFF 		bl	HAL_GetTick
 4879 001e 0246     		mov	r2, r0
 4880              		.loc 1 2694 26
 4881 0020 BB68     		ldr	r3, [r7, #8]
 4882 0022 D31A     		subs	r3, r2, r3
 4883              		.loc 1 2694 9
 4884 0024 7A68     		ldr	r2, [r7, #4]
 4885 0026 9A42     		cmp	r2, r3
 4886 0028 02D3     		bcc	.L421
 4887              		.loc 1 2694 50 discriminator 1
 4888 002a 7B68     		ldr	r3, [r7, #4]
 4889 002c 002B     		cmp	r3, #0
 4890 002e 01D1     		bne	.L420
 4891              	.L421:
2695:Drivers/STM32L4xx_HAL_Driver/Src/stm32l4xx_hal_rcc_ex.c ****       {
2696:Drivers/STM32L4xx_HAL_Driver/Src/stm32l4xx_hal_rcc_ex.c ****         crsstatus = RCC_CRS_TIMEOUT;
 4892              		.loc 1 2696 19
 4893 0030 0123     		movs	r3, #1
 4894 0032 FB60     		str	r3, [r7, #12]
 4895              	.L420:
2697:Drivers/STM32L4xx_HAL_Driver/Src/stm32l4xx_hal_rcc_ex.c ****       }
2698:Drivers/STM32L4xx_HAL_Driver/Src/stm32l4xx_hal_rcc_ex.c ****     }
2699:Drivers/STM32L4xx_HAL_Driver/Src/stm32l4xx_hal_rcc_ex.c ****     /* Check CRS SYNCOK flag  */
2700:Drivers/STM32L4xx_HAL_Driver/Src/stm32l4xx_hal_rcc_ex.c ****     if(__HAL_RCC_CRS_GET_FLAG(RCC_CRS_FLAG_SYNCOK))
 4896              		.loc 1 2700 8
 4897 0034 2A4B     		ldr	r3, .L430
 4898 0036 9B68     		ldr	r3, [r3, #8]
 4899 0038 03F00103 		and	r3, r3, #1
 4900              		.loc 1 2700 7
 4901 003c 012B     		cmp	r3, #1
 4902 003e 06D1     		bne	.L422
2701:Drivers/STM32L4xx_HAL_Driver/Src/stm32l4xx_hal_rcc_ex.c ****     {
ARM GAS  C:\Users\Morroway\AppData\Local\Temp\ccOmimY8.s 			page 142


2702:Drivers/STM32L4xx_HAL_Driver/Src/stm32l4xx_hal_rcc_ex.c ****       /* CRS SYNC event OK */
2703:Drivers/STM32L4xx_HAL_Driver/Src/stm32l4xx_hal_rcc_ex.c ****       crsstatus |= RCC_CRS_SYNCOK;
 4903              		.loc 1 2703 17
 4904 0040 FB68     		ldr	r3, [r7, #12]
 4905 0042 43F00203 		orr	r3, r3, #2
 4906 0046 FB60     		str	r3, [r7, #12]
2704:Drivers/STM32L4xx_HAL_Driver/Src/stm32l4xx_hal_rcc_ex.c **** 
2705:Drivers/STM32L4xx_HAL_Driver/Src/stm32l4xx_hal_rcc_ex.c ****       /* Clear CRS SYNC event OK bit */
2706:Drivers/STM32L4xx_HAL_Driver/Src/stm32l4xx_hal_rcc_ex.c ****       __HAL_RCC_CRS_CLEAR_FLAG(RCC_CRS_FLAG_SYNCOK);
 4907              		.loc 1 2706 7
 4908 0048 254B     		ldr	r3, .L430
 4909 004a 0122     		movs	r2, #1
 4910 004c DA60     		str	r2, [r3, #12]
 4911              	.L422:
2707:Drivers/STM32L4xx_HAL_Driver/Src/stm32l4xx_hal_rcc_ex.c ****     }
2708:Drivers/STM32L4xx_HAL_Driver/Src/stm32l4xx_hal_rcc_ex.c **** 
2709:Drivers/STM32L4xx_HAL_Driver/Src/stm32l4xx_hal_rcc_ex.c ****     /* Check CRS SYNCWARN flag  */
2710:Drivers/STM32L4xx_HAL_Driver/Src/stm32l4xx_hal_rcc_ex.c ****     if(__HAL_RCC_CRS_GET_FLAG(RCC_CRS_FLAG_SYNCWARN))
 4912              		.loc 1 2710 8
 4913 004e 244B     		ldr	r3, .L430
 4914 0050 9B68     		ldr	r3, [r3, #8]
 4915 0052 03F00203 		and	r3, r3, #2
 4916              		.loc 1 2710 7
 4917 0056 022B     		cmp	r3, #2
 4918 0058 06D1     		bne	.L423
2711:Drivers/STM32L4xx_HAL_Driver/Src/stm32l4xx_hal_rcc_ex.c ****     {
2712:Drivers/STM32L4xx_HAL_Driver/Src/stm32l4xx_hal_rcc_ex.c ****       /* CRS SYNC warning */
2713:Drivers/STM32L4xx_HAL_Driver/Src/stm32l4xx_hal_rcc_ex.c ****       crsstatus |= RCC_CRS_SYNCWARN;
 4919              		.loc 1 2713 17
 4920 005a FB68     		ldr	r3, [r7, #12]
 4921 005c 43F00403 		orr	r3, r3, #4
 4922 0060 FB60     		str	r3, [r7, #12]
2714:Drivers/STM32L4xx_HAL_Driver/Src/stm32l4xx_hal_rcc_ex.c **** 
2715:Drivers/STM32L4xx_HAL_Driver/Src/stm32l4xx_hal_rcc_ex.c ****       /* Clear CRS SYNCWARN bit */
2716:Drivers/STM32L4xx_HAL_Driver/Src/stm32l4xx_hal_rcc_ex.c ****       __HAL_RCC_CRS_CLEAR_FLAG(RCC_CRS_FLAG_SYNCWARN);
 4923              		.loc 1 2716 7
 4924 0062 1F4B     		ldr	r3, .L430
 4925 0064 0222     		movs	r2, #2
 4926 0066 DA60     		str	r2, [r3, #12]
 4927              	.L423:
2717:Drivers/STM32L4xx_HAL_Driver/Src/stm32l4xx_hal_rcc_ex.c ****     }
2718:Drivers/STM32L4xx_HAL_Driver/Src/stm32l4xx_hal_rcc_ex.c **** 
2719:Drivers/STM32L4xx_HAL_Driver/Src/stm32l4xx_hal_rcc_ex.c ****     /* Check CRS TRIM overflow flag  */
2720:Drivers/STM32L4xx_HAL_Driver/Src/stm32l4xx_hal_rcc_ex.c ****     if(__HAL_RCC_CRS_GET_FLAG(RCC_CRS_FLAG_TRIMOVF))
 4928              		.loc 1 2720 8
 4929 0068 1D4B     		ldr	r3, .L430
 4930 006a 9B68     		ldr	r3, [r3, #8]
 4931 006c 03F48063 		and	r3, r3, #1024
 4932              		.loc 1 2720 7
 4933 0070 B3F5806F 		cmp	r3, #1024
 4934 0074 06D1     		bne	.L424
2721:Drivers/STM32L4xx_HAL_Driver/Src/stm32l4xx_hal_rcc_ex.c ****     {
2722:Drivers/STM32L4xx_HAL_Driver/Src/stm32l4xx_hal_rcc_ex.c ****       /* CRS SYNC Error */
2723:Drivers/STM32L4xx_HAL_Driver/Src/stm32l4xx_hal_rcc_ex.c ****       crsstatus |= RCC_CRS_TRIMOVF;
 4935              		.loc 1 2723 17
 4936 0076 FB68     		ldr	r3, [r7, #12]
 4937 0078 43F02003 		orr	r3, r3, #32
ARM GAS  C:\Users\Morroway\AppData\Local\Temp\ccOmimY8.s 			page 143


 4938 007c FB60     		str	r3, [r7, #12]
2724:Drivers/STM32L4xx_HAL_Driver/Src/stm32l4xx_hal_rcc_ex.c **** 
2725:Drivers/STM32L4xx_HAL_Driver/Src/stm32l4xx_hal_rcc_ex.c ****       /* Clear CRS Error bit */
2726:Drivers/STM32L4xx_HAL_Driver/Src/stm32l4xx_hal_rcc_ex.c ****       __HAL_RCC_CRS_CLEAR_FLAG(RCC_CRS_FLAG_TRIMOVF);
 4939              		.loc 1 2726 7
 4940 007e 184B     		ldr	r3, .L430
 4941 0080 0422     		movs	r2, #4
 4942 0082 DA60     		str	r2, [r3, #12]
 4943              	.L424:
2727:Drivers/STM32L4xx_HAL_Driver/Src/stm32l4xx_hal_rcc_ex.c ****     }
2728:Drivers/STM32L4xx_HAL_Driver/Src/stm32l4xx_hal_rcc_ex.c **** 
2729:Drivers/STM32L4xx_HAL_Driver/Src/stm32l4xx_hal_rcc_ex.c ****     /* Check CRS Error flag  */
2730:Drivers/STM32L4xx_HAL_Driver/Src/stm32l4xx_hal_rcc_ex.c ****     if(__HAL_RCC_CRS_GET_FLAG(RCC_CRS_FLAG_SYNCERR))
 4944              		.loc 1 2730 8
 4945 0084 164B     		ldr	r3, .L430
 4946 0086 9B68     		ldr	r3, [r3, #8]
 4947 0088 03F48073 		and	r3, r3, #256
 4948              		.loc 1 2730 7
 4949 008c B3F5807F 		cmp	r3, #256
 4950 0090 06D1     		bne	.L425
2731:Drivers/STM32L4xx_HAL_Driver/Src/stm32l4xx_hal_rcc_ex.c ****     {
2732:Drivers/STM32L4xx_HAL_Driver/Src/stm32l4xx_hal_rcc_ex.c ****       /* CRS SYNC Error */
2733:Drivers/STM32L4xx_HAL_Driver/Src/stm32l4xx_hal_rcc_ex.c ****       crsstatus |= RCC_CRS_SYNCERR;
 4951              		.loc 1 2733 17
 4952 0092 FB68     		ldr	r3, [r7, #12]
 4953 0094 43F00803 		orr	r3, r3, #8
 4954 0098 FB60     		str	r3, [r7, #12]
2734:Drivers/STM32L4xx_HAL_Driver/Src/stm32l4xx_hal_rcc_ex.c **** 
2735:Drivers/STM32L4xx_HAL_Driver/Src/stm32l4xx_hal_rcc_ex.c ****       /* Clear CRS Error bit */
2736:Drivers/STM32L4xx_HAL_Driver/Src/stm32l4xx_hal_rcc_ex.c ****       __HAL_RCC_CRS_CLEAR_FLAG(RCC_CRS_FLAG_SYNCERR);
 4955              		.loc 1 2736 7
 4956 009a 114B     		ldr	r3, .L430
 4957 009c 0422     		movs	r2, #4
 4958 009e DA60     		str	r2, [r3, #12]
 4959              	.L425:
2737:Drivers/STM32L4xx_HAL_Driver/Src/stm32l4xx_hal_rcc_ex.c ****     }
2738:Drivers/STM32L4xx_HAL_Driver/Src/stm32l4xx_hal_rcc_ex.c **** 
2739:Drivers/STM32L4xx_HAL_Driver/Src/stm32l4xx_hal_rcc_ex.c ****     /* Check CRS SYNC Missed flag  */
2740:Drivers/STM32L4xx_HAL_Driver/Src/stm32l4xx_hal_rcc_ex.c ****     if(__HAL_RCC_CRS_GET_FLAG(RCC_CRS_FLAG_SYNCMISS))
 4960              		.loc 1 2740 8
 4961 00a0 0F4B     		ldr	r3, .L430
 4962 00a2 9B68     		ldr	r3, [r3, #8]
 4963 00a4 03F40073 		and	r3, r3, #512
 4964              		.loc 1 2740 7
 4965 00a8 B3F5007F 		cmp	r3, #512
 4966 00ac 06D1     		bne	.L426
2741:Drivers/STM32L4xx_HAL_Driver/Src/stm32l4xx_hal_rcc_ex.c ****     {
2742:Drivers/STM32L4xx_HAL_Driver/Src/stm32l4xx_hal_rcc_ex.c ****       /* CRS SYNC Missed */
2743:Drivers/STM32L4xx_HAL_Driver/Src/stm32l4xx_hal_rcc_ex.c ****       crsstatus |= RCC_CRS_SYNCMISS;
 4967              		.loc 1 2743 17
 4968 00ae FB68     		ldr	r3, [r7, #12]
 4969 00b0 43F01003 		orr	r3, r3, #16
 4970 00b4 FB60     		str	r3, [r7, #12]
2744:Drivers/STM32L4xx_HAL_Driver/Src/stm32l4xx_hal_rcc_ex.c **** 
2745:Drivers/STM32L4xx_HAL_Driver/Src/stm32l4xx_hal_rcc_ex.c ****       /* Clear CRS SYNC Missed bit */
2746:Drivers/STM32L4xx_HAL_Driver/Src/stm32l4xx_hal_rcc_ex.c ****       __HAL_RCC_CRS_CLEAR_FLAG(RCC_CRS_FLAG_SYNCMISS);
 4971              		.loc 1 2746 7
ARM GAS  C:\Users\Morroway\AppData\Local\Temp\ccOmimY8.s 			page 144


 4972 00b6 0A4B     		ldr	r3, .L430
 4973 00b8 0422     		movs	r2, #4
 4974 00ba DA60     		str	r2, [r3, #12]
 4975              	.L426:
2747:Drivers/STM32L4xx_HAL_Driver/Src/stm32l4xx_hal_rcc_ex.c ****     }
2748:Drivers/STM32L4xx_HAL_Driver/Src/stm32l4xx_hal_rcc_ex.c **** 
2749:Drivers/STM32L4xx_HAL_Driver/Src/stm32l4xx_hal_rcc_ex.c ****     /* Check CRS Expected SYNC flag  */
2750:Drivers/STM32L4xx_HAL_Driver/Src/stm32l4xx_hal_rcc_ex.c ****     if(__HAL_RCC_CRS_GET_FLAG(RCC_CRS_FLAG_ESYNC))
 4976              		.loc 1 2750 8
 4977 00bc 084B     		ldr	r3, .L430
 4978 00be 9B68     		ldr	r3, [r3, #8]
 4979 00c0 03F00803 		and	r3, r3, #8
 4980              		.loc 1 2750 7
 4981 00c4 082B     		cmp	r3, #8
 4982 00c6 02D1     		bne	.L427
2751:Drivers/STM32L4xx_HAL_Driver/Src/stm32l4xx_hal_rcc_ex.c ****     {
2752:Drivers/STM32L4xx_HAL_Driver/Src/stm32l4xx_hal_rcc_ex.c ****       /* frequency error counter reached a zero value */
2753:Drivers/STM32L4xx_HAL_Driver/Src/stm32l4xx_hal_rcc_ex.c ****       __HAL_RCC_CRS_CLEAR_FLAG(RCC_CRS_FLAG_ESYNC);
 4983              		.loc 1 2753 7 discriminator 2
 4984 00c8 054B     		ldr	r3, .L430
 4985 00ca 0822     		movs	r2, #8
 4986 00cc DA60     		str	r2, [r3, #12]
 4987              	.L427:
2754:Drivers/STM32L4xx_HAL_Driver/Src/stm32l4xx_hal_rcc_ex.c ****     }
2755:Drivers/STM32L4xx_HAL_Driver/Src/stm32l4xx_hal_rcc_ex.c ****   } while(RCC_CRS_NONE == crsstatus);
 4988              		.loc 1 2755 24
 4989 00ce FB68     		ldr	r3, [r7, #12]
 4990 00d0 002B     		cmp	r3, #0
 4991 00d2 9ED0     		beq	.L428
2756:Drivers/STM32L4xx_HAL_Driver/Src/stm32l4xx_hal_rcc_ex.c **** 
2757:Drivers/STM32L4xx_HAL_Driver/Src/stm32l4xx_hal_rcc_ex.c ****   return crsstatus;
 4992              		.loc 1 2757 10
 4993 00d4 FB68     		ldr	r3, [r7, #12]
2758:Drivers/STM32L4xx_HAL_Driver/Src/stm32l4xx_hal_rcc_ex.c **** }
 4994              		.loc 1 2758 1
 4995 00d6 1846     		mov	r0, r3
 4996 00d8 1037     		adds	r7, r7, #16
 4997              		.cfi_def_cfa_offset 8
 4998 00da BD46     		mov	sp, r7
 4999              		.cfi_def_cfa_register 13
 5000              		@ sp needed
 5001 00dc 80BD     		pop	{r7, pc}
 5002              	.L431:
 5003 00de 00BF     		.align	2
 5004              	.L430:
 5005 00e0 00600040 		.word	1073766400
 5006              		.cfi_endproc
 5007              	.LFE343:
 5009              		.section	.text.HAL_RCCEx_CRS_IRQHandler,"ax",%progbits
 5010              		.align	1
 5011              		.global	HAL_RCCEx_CRS_IRQHandler
 5012              		.syntax unified
 5013              		.thumb
 5014              		.thumb_func
 5016              	HAL_RCCEx_CRS_IRQHandler:
 5017              	.LFB344:
2759:Drivers/STM32L4xx_HAL_Driver/Src/stm32l4xx_hal_rcc_ex.c **** 
ARM GAS  C:\Users\Morroway\AppData\Local\Temp\ccOmimY8.s 			page 145


2760:Drivers/STM32L4xx_HAL_Driver/Src/stm32l4xx_hal_rcc_ex.c **** /**
2761:Drivers/STM32L4xx_HAL_Driver/Src/stm32l4xx_hal_rcc_ex.c ****   * @brief Handle the Clock Recovery System interrupt request.
2762:Drivers/STM32L4xx_HAL_Driver/Src/stm32l4xx_hal_rcc_ex.c ****   * @retval None
2763:Drivers/STM32L4xx_HAL_Driver/Src/stm32l4xx_hal_rcc_ex.c ****   */
2764:Drivers/STM32L4xx_HAL_Driver/Src/stm32l4xx_hal_rcc_ex.c **** void HAL_RCCEx_CRS_IRQHandler(void)
2765:Drivers/STM32L4xx_HAL_Driver/Src/stm32l4xx_hal_rcc_ex.c **** {
 5018              		.loc 1 2765 1
 5019              		.cfi_startproc
 5020              		@ args = 0, pretend = 0, frame = 16
 5021              		@ frame_needed = 1, uses_anonymous_args = 0
 5022 0000 80B5     		push	{r7, lr}
 5023              		.cfi_def_cfa_offset 8
 5024              		.cfi_offset 7, -8
 5025              		.cfi_offset 14, -4
 5026 0002 84B0     		sub	sp, sp, #16
 5027              		.cfi_def_cfa_offset 24
 5028 0004 00AF     		add	r7, sp, #0
 5029              		.cfi_def_cfa_register 7
2766:Drivers/STM32L4xx_HAL_Driver/Src/stm32l4xx_hal_rcc_ex.c ****   uint32_t crserror = RCC_CRS_NONE;
 5030              		.loc 1 2766 12
 5031 0006 0023     		movs	r3, #0
 5032 0008 FB60     		str	r3, [r7, #12]
2767:Drivers/STM32L4xx_HAL_Driver/Src/stm32l4xx_hal_rcc_ex.c ****   /* Get current IT flags and IT sources values */
2768:Drivers/STM32L4xx_HAL_Driver/Src/stm32l4xx_hal_rcc_ex.c ****   uint32_t itflags = READ_REG(CRS->ISR);
 5033              		.loc 1 2768 22
 5034 000a 334B     		ldr	r3, .L441
 5035              		.loc 1 2768 12
 5036 000c 9B68     		ldr	r3, [r3, #8]
 5037 000e BB60     		str	r3, [r7, #8]
2769:Drivers/STM32L4xx_HAL_Driver/Src/stm32l4xx_hal_rcc_ex.c ****   uint32_t itsources = READ_REG(CRS->CR);
 5038              		.loc 1 2769 24
 5039 0010 314B     		ldr	r3, .L441
 5040              		.loc 1 2769 12
 5041 0012 1B68     		ldr	r3, [r3]
 5042 0014 7B60     		str	r3, [r7, #4]
2770:Drivers/STM32L4xx_HAL_Driver/Src/stm32l4xx_hal_rcc_ex.c **** 
2771:Drivers/STM32L4xx_HAL_Driver/Src/stm32l4xx_hal_rcc_ex.c ****   /* Check CRS SYNCOK flag  */
2772:Drivers/STM32L4xx_HAL_Driver/Src/stm32l4xx_hal_rcc_ex.c ****   if(((itflags & RCC_CRS_FLAG_SYNCOK) != 0U) && ((itsources & RCC_CRS_IT_SYNCOK) != 0U))
 5043              		.loc 1 2772 16
 5044 0016 BB68     		ldr	r3, [r7, #8]
 5045 0018 03F00103 		and	r3, r3, #1
 5046              		.loc 1 2772 5
 5047 001c 002B     		cmp	r3, #0
 5048 001e 0AD0     		beq	.L433
 5049              		.loc 1 2772 61 discriminator 1
 5050 0020 7B68     		ldr	r3, [r7, #4]
 5051 0022 03F00103 		and	r3, r3, #1
 5052              		.loc 1 2772 46 discriminator 1
 5053 0026 002B     		cmp	r3, #0
 5054 0028 05D0     		beq	.L433
2773:Drivers/STM32L4xx_HAL_Driver/Src/stm32l4xx_hal_rcc_ex.c ****   {
2774:Drivers/STM32L4xx_HAL_Driver/Src/stm32l4xx_hal_rcc_ex.c ****     /* Clear CRS SYNC event OK flag */
2775:Drivers/STM32L4xx_HAL_Driver/Src/stm32l4xx_hal_rcc_ex.c ****     WRITE_REG(CRS->ICR, CRS_ICR_SYNCOKC);
 5055              		.loc 1 2775 5
 5056 002a 2B4B     		ldr	r3, .L441
 5057 002c 0122     		movs	r2, #1
 5058 002e DA60     		str	r2, [r3, #12]
ARM GAS  C:\Users\Morroway\AppData\Local\Temp\ccOmimY8.s 			page 146


2776:Drivers/STM32L4xx_HAL_Driver/Src/stm32l4xx_hal_rcc_ex.c **** 
2777:Drivers/STM32L4xx_HAL_Driver/Src/stm32l4xx_hal_rcc_ex.c ****     /* user callback */
2778:Drivers/STM32L4xx_HAL_Driver/Src/stm32l4xx_hal_rcc_ex.c ****     HAL_RCCEx_CRS_SyncOkCallback();
 5059              		.loc 1 2778 5
 5060 0030 FFF7FEFF 		bl	HAL_RCCEx_CRS_SyncOkCallback
 5061 0034 4BE0     		b	.L434
 5062              	.L433:
2779:Drivers/STM32L4xx_HAL_Driver/Src/stm32l4xx_hal_rcc_ex.c ****   }
2780:Drivers/STM32L4xx_HAL_Driver/Src/stm32l4xx_hal_rcc_ex.c ****   /* Check CRS SYNCWARN flag  */
2781:Drivers/STM32L4xx_HAL_Driver/Src/stm32l4xx_hal_rcc_ex.c ****   else if(((itflags & RCC_CRS_FLAG_SYNCWARN) != 0U) && ((itsources & RCC_CRS_IT_SYNCWARN) != 0U))
 5063              		.loc 1 2781 21
 5064 0036 BB68     		ldr	r3, [r7, #8]
 5065 0038 03F00203 		and	r3, r3, #2
 5066              		.loc 1 2781 10
 5067 003c 002B     		cmp	r3, #0
 5068 003e 0AD0     		beq	.L435
 5069              		.loc 1 2781 68 discriminator 1
 5070 0040 7B68     		ldr	r3, [r7, #4]
 5071 0042 03F00203 		and	r3, r3, #2
 5072              		.loc 1 2781 53 discriminator 1
 5073 0046 002B     		cmp	r3, #0
 5074 0048 05D0     		beq	.L435
2782:Drivers/STM32L4xx_HAL_Driver/Src/stm32l4xx_hal_rcc_ex.c ****   {
2783:Drivers/STM32L4xx_HAL_Driver/Src/stm32l4xx_hal_rcc_ex.c ****     /* Clear CRS SYNCWARN flag */
2784:Drivers/STM32L4xx_HAL_Driver/Src/stm32l4xx_hal_rcc_ex.c ****     WRITE_REG(CRS->ICR, CRS_ICR_SYNCWARNC);
 5075              		.loc 1 2784 5
 5076 004a 234B     		ldr	r3, .L441
 5077 004c 0222     		movs	r2, #2
 5078 004e DA60     		str	r2, [r3, #12]
2785:Drivers/STM32L4xx_HAL_Driver/Src/stm32l4xx_hal_rcc_ex.c **** 
2786:Drivers/STM32L4xx_HAL_Driver/Src/stm32l4xx_hal_rcc_ex.c ****     /* user callback */
2787:Drivers/STM32L4xx_HAL_Driver/Src/stm32l4xx_hal_rcc_ex.c ****     HAL_RCCEx_CRS_SyncWarnCallback();
 5079              		.loc 1 2787 5
 5080 0050 FFF7FEFF 		bl	HAL_RCCEx_CRS_SyncWarnCallback
 5081 0054 3BE0     		b	.L434
 5082              	.L435:
2788:Drivers/STM32L4xx_HAL_Driver/Src/stm32l4xx_hal_rcc_ex.c ****   }
2789:Drivers/STM32L4xx_HAL_Driver/Src/stm32l4xx_hal_rcc_ex.c ****   /* Check CRS Expected SYNC flag  */
2790:Drivers/STM32L4xx_HAL_Driver/Src/stm32l4xx_hal_rcc_ex.c ****   else if(((itflags & RCC_CRS_FLAG_ESYNC) != 0U) && ((itsources & RCC_CRS_IT_ESYNC) != 0U))
 5083              		.loc 1 2790 21
 5084 0056 BB68     		ldr	r3, [r7, #8]
 5085 0058 03F00803 		and	r3, r3, #8
 5086              		.loc 1 2790 10
 5087 005c 002B     		cmp	r3, #0
 5088 005e 0AD0     		beq	.L436
 5089              		.loc 1 2790 65 discriminator 1
 5090 0060 7B68     		ldr	r3, [r7, #4]
 5091 0062 03F00803 		and	r3, r3, #8
 5092              		.loc 1 2790 50 discriminator 1
 5093 0066 002B     		cmp	r3, #0
 5094 0068 05D0     		beq	.L436
2791:Drivers/STM32L4xx_HAL_Driver/Src/stm32l4xx_hal_rcc_ex.c ****   {
2792:Drivers/STM32L4xx_HAL_Driver/Src/stm32l4xx_hal_rcc_ex.c ****     /* frequency error counter reached a zero value */
2793:Drivers/STM32L4xx_HAL_Driver/Src/stm32l4xx_hal_rcc_ex.c ****     WRITE_REG(CRS->ICR, CRS_ICR_ESYNCC);
 5095              		.loc 1 2793 5
 5096 006a 1B4B     		ldr	r3, .L441
 5097 006c 0822     		movs	r2, #8
ARM GAS  C:\Users\Morroway\AppData\Local\Temp\ccOmimY8.s 			page 147


 5098 006e DA60     		str	r2, [r3, #12]
2794:Drivers/STM32L4xx_HAL_Driver/Src/stm32l4xx_hal_rcc_ex.c **** 
2795:Drivers/STM32L4xx_HAL_Driver/Src/stm32l4xx_hal_rcc_ex.c ****     /* user callback */
2796:Drivers/STM32L4xx_HAL_Driver/Src/stm32l4xx_hal_rcc_ex.c ****     HAL_RCCEx_CRS_ExpectedSyncCallback();
 5099              		.loc 1 2796 5
 5100 0070 FFF7FEFF 		bl	HAL_RCCEx_CRS_ExpectedSyncCallback
 5101 0074 2BE0     		b	.L434
 5102              	.L436:
2797:Drivers/STM32L4xx_HAL_Driver/Src/stm32l4xx_hal_rcc_ex.c ****   }
2798:Drivers/STM32L4xx_HAL_Driver/Src/stm32l4xx_hal_rcc_ex.c ****   /* Check CRS Error flags  */
2799:Drivers/STM32L4xx_HAL_Driver/Src/stm32l4xx_hal_rcc_ex.c ****   else
2800:Drivers/STM32L4xx_HAL_Driver/Src/stm32l4xx_hal_rcc_ex.c ****   {
2801:Drivers/STM32L4xx_HAL_Driver/Src/stm32l4xx_hal_rcc_ex.c ****     if(((itflags & RCC_CRS_FLAG_ERR) != 0U) && ((itsources & RCC_CRS_IT_ERR) != 0U))
 5103              		.loc 1 2801 18
 5104 0076 BB68     		ldr	r3, [r7, #8]
 5105 0078 03F00403 		and	r3, r3, #4
 5106              		.loc 1 2801 7
 5107 007c 002B     		cmp	r3, #0
 5108 007e 26D0     		beq	.L440
 5109              		.loc 1 2801 60 discriminator 1
 5110 0080 7B68     		ldr	r3, [r7, #4]
 5111 0082 03F00403 		and	r3, r3, #4
 5112              		.loc 1 2801 45 discriminator 1
 5113 0086 002B     		cmp	r3, #0
 5114 0088 21D0     		beq	.L440
2802:Drivers/STM32L4xx_HAL_Driver/Src/stm32l4xx_hal_rcc_ex.c ****     {
2803:Drivers/STM32L4xx_HAL_Driver/Src/stm32l4xx_hal_rcc_ex.c ****       if((itflags & RCC_CRS_FLAG_SYNCERR) != 0U)
 5115              		.loc 1 2803 19
 5116 008a BB68     		ldr	r3, [r7, #8]
 5117 008c 03F48073 		and	r3, r3, #256
 5118              		.loc 1 2803 9
 5119 0090 002B     		cmp	r3, #0
 5120 0092 03D0     		beq	.L437
2804:Drivers/STM32L4xx_HAL_Driver/Src/stm32l4xx_hal_rcc_ex.c ****       {
2805:Drivers/STM32L4xx_HAL_Driver/Src/stm32l4xx_hal_rcc_ex.c ****         crserror |= RCC_CRS_SYNCERR;
 5121              		.loc 1 2805 18
 5122 0094 FB68     		ldr	r3, [r7, #12]
 5123 0096 43F00803 		orr	r3, r3, #8
 5124 009a FB60     		str	r3, [r7, #12]
 5125              	.L437:
2806:Drivers/STM32L4xx_HAL_Driver/Src/stm32l4xx_hal_rcc_ex.c ****       }
2807:Drivers/STM32L4xx_HAL_Driver/Src/stm32l4xx_hal_rcc_ex.c ****       if((itflags & RCC_CRS_FLAG_SYNCMISS) != 0U)
 5126              		.loc 1 2807 19
 5127 009c BB68     		ldr	r3, [r7, #8]
 5128 009e 03F40073 		and	r3, r3, #512
 5129              		.loc 1 2807 9
 5130 00a2 002B     		cmp	r3, #0
 5131 00a4 03D0     		beq	.L438
2808:Drivers/STM32L4xx_HAL_Driver/Src/stm32l4xx_hal_rcc_ex.c ****       {
2809:Drivers/STM32L4xx_HAL_Driver/Src/stm32l4xx_hal_rcc_ex.c ****         crserror |= RCC_CRS_SYNCMISS;
 5132              		.loc 1 2809 18
 5133 00a6 FB68     		ldr	r3, [r7, #12]
 5134 00a8 43F01003 		orr	r3, r3, #16
 5135 00ac FB60     		str	r3, [r7, #12]
 5136              	.L438:
2810:Drivers/STM32L4xx_HAL_Driver/Src/stm32l4xx_hal_rcc_ex.c ****       }
2811:Drivers/STM32L4xx_HAL_Driver/Src/stm32l4xx_hal_rcc_ex.c ****       if((itflags & RCC_CRS_FLAG_TRIMOVF) != 0U)
ARM GAS  C:\Users\Morroway\AppData\Local\Temp\ccOmimY8.s 			page 148


 5137              		.loc 1 2811 19
 5138 00ae BB68     		ldr	r3, [r7, #8]
 5139 00b0 03F48063 		and	r3, r3, #1024
 5140              		.loc 1 2811 9
 5141 00b4 002B     		cmp	r3, #0
 5142 00b6 03D0     		beq	.L439
2812:Drivers/STM32L4xx_HAL_Driver/Src/stm32l4xx_hal_rcc_ex.c ****       {
2813:Drivers/STM32L4xx_HAL_Driver/Src/stm32l4xx_hal_rcc_ex.c ****         crserror |= RCC_CRS_TRIMOVF;
 5143              		.loc 1 2813 18
 5144 00b8 FB68     		ldr	r3, [r7, #12]
 5145 00ba 43F02003 		orr	r3, r3, #32
 5146 00be FB60     		str	r3, [r7, #12]
 5147              	.L439:
2814:Drivers/STM32L4xx_HAL_Driver/Src/stm32l4xx_hal_rcc_ex.c ****       }
2815:Drivers/STM32L4xx_HAL_Driver/Src/stm32l4xx_hal_rcc_ex.c **** 
2816:Drivers/STM32L4xx_HAL_Driver/Src/stm32l4xx_hal_rcc_ex.c ****       /* Clear CRS Error flags */
2817:Drivers/STM32L4xx_HAL_Driver/Src/stm32l4xx_hal_rcc_ex.c ****       WRITE_REG(CRS->ICR, CRS_ICR_ERRC);
 5148              		.loc 1 2817 7
 5149 00c0 054B     		ldr	r3, .L441
 5150 00c2 0422     		movs	r2, #4
 5151 00c4 DA60     		str	r2, [r3, #12]
2818:Drivers/STM32L4xx_HAL_Driver/Src/stm32l4xx_hal_rcc_ex.c **** 
2819:Drivers/STM32L4xx_HAL_Driver/Src/stm32l4xx_hal_rcc_ex.c ****       /* user error callback */
2820:Drivers/STM32L4xx_HAL_Driver/Src/stm32l4xx_hal_rcc_ex.c ****       HAL_RCCEx_CRS_ErrorCallback(crserror);
 5152              		.loc 1 2820 7
 5153 00c6 F868     		ldr	r0, [r7, #12]
 5154 00c8 FFF7FEFF 		bl	HAL_RCCEx_CRS_ErrorCallback
2821:Drivers/STM32L4xx_HAL_Driver/Src/stm32l4xx_hal_rcc_ex.c ****     }
2822:Drivers/STM32L4xx_HAL_Driver/Src/stm32l4xx_hal_rcc_ex.c ****   }
2823:Drivers/STM32L4xx_HAL_Driver/Src/stm32l4xx_hal_rcc_ex.c **** }
 5155              		.loc 1 2823 1
 5156 00cc FFE7     		b	.L440
 5157              	.L434:
 5158              	.L440:
 5159 00ce 00BF     		nop
 5160 00d0 1037     		adds	r7, r7, #16
 5161              		.cfi_def_cfa_offset 8
 5162 00d2 BD46     		mov	sp, r7
 5163              		.cfi_def_cfa_register 13
 5164              		@ sp needed
 5165 00d4 80BD     		pop	{r7, pc}
 5166              	.L442:
 5167 00d6 00BF     		.align	2
 5168              	.L441:
 5169 00d8 00600040 		.word	1073766400
 5170              		.cfi_endproc
 5171              	.LFE344:
 5173              		.section	.text.HAL_RCCEx_CRS_SyncOkCallback,"ax",%progbits
 5174              		.align	1
 5175              		.weak	HAL_RCCEx_CRS_SyncOkCallback
 5176              		.syntax unified
 5177              		.thumb
 5178              		.thumb_func
 5180              	HAL_RCCEx_CRS_SyncOkCallback:
 5181              	.LFB345:
2824:Drivers/STM32L4xx_HAL_Driver/Src/stm32l4xx_hal_rcc_ex.c **** 
2825:Drivers/STM32L4xx_HAL_Driver/Src/stm32l4xx_hal_rcc_ex.c **** /**
ARM GAS  C:\Users\Morroway\AppData\Local\Temp\ccOmimY8.s 			page 149


2826:Drivers/STM32L4xx_HAL_Driver/Src/stm32l4xx_hal_rcc_ex.c ****   * @brief  RCCEx Clock Recovery System SYNCOK interrupt callback.
2827:Drivers/STM32L4xx_HAL_Driver/Src/stm32l4xx_hal_rcc_ex.c ****   * @retval none
2828:Drivers/STM32L4xx_HAL_Driver/Src/stm32l4xx_hal_rcc_ex.c ****   */
2829:Drivers/STM32L4xx_HAL_Driver/Src/stm32l4xx_hal_rcc_ex.c **** __weak void HAL_RCCEx_CRS_SyncOkCallback(void)
2830:Drivers/STM32L4xx_HAL_Driver/Src/stm32l4xx_hal_rcc_ex.c **** {
 5182              		.loc 1 2830 1
 5183              		.cfi_startproc
 5184              		@ args = 0, pretend = 0, frame = 0
 5185              		@ frame_needed = 1, uses_anonymous_args = 0
 5186              		@ link register save eliminated.
 5187 0000 80B4     		push	{r7}
 5188              		.cfi_def_cfa_offset 4
 5189              		.cfi_offset 7, -4
 5190 0002 00AF     		add	r7, sp, #0
 5191              		.cfi_def_cfa_register 7
2831:Drivers/STM32L4xx_HAL_Driver/Src/stm32l4xx_hal_rcc_ex.c ****   /* NOTE : This function should not be modified, when the callback is needed,
2832:Drivers/STM32L4xx_HAL_Driver/Src/stm32l4xx_hal_rcc_ex.c ****             the @ref HAL_RCCEx_CRS_SyncOkCallback should be implemented in the user file
2833:Drivers/STM32L4xx_HAL_Driver/Src/stm32l4xx_hal_rcc_ex.c ****    */
2834:Drivers/STM32L4xx_HAL_Driver/Src/stm32l4xx_hal_rcc_ex.c **** }
 5192              		.loc 1 2834 1
 5193 0004 00BF     		nop
 5194 0006 BD46     		mov	sp, r7
 5195              		.cfi_def_cfa_register 13
 5196              		@ sp needed
 5197 0008 5DF8047B 		ldr	r7, [sp], #4
 5198              		.cfi_restore 7
 5199              		.cfi_def_cfa_offset 0
 5200 000c 7047     		bx	lr
 5201              		.cfi_endproc
 5202              	.LFE345:
 5204              		.section	.text.HAL_RCCEx_CRS_SyncWarnCallback,"ax",%progbits
 5205              		.align	1
 5206              		.weak	HAL_RCCEx_CRS_SyncWarnCallback
 5207              		.syntax unified
 5208              		.thumb
 5209              		.thumb_func
 5211              	HAL_RCCEx_CRS_SyncWarnCallback:
 5212              	.LFB346:
2835:Drivers/STM32L4xx_HAL_Driver/Src/stm32l4xx_hal_rcc_ex.c **** 
2836:Drivers/STM32L4xx_HAL_Driver/Src/stm32l4xx_hal_rcc_ex.c **** /**
2837:Drivers/STM32L4xx_HAL_Driver/Src/stm32l4xx_hal_rcc_ex.c ****   * @brief  RCCEx Clock Recovery System SYNCWARN interrupt callback.
2838:Drivers/STM32L4xx_HAL_Driver/Src/stm32l4xx_hal_rcc_ex.c ****   * @retval none
2839:Drivers/STM32L4xx_HAL_Driver/Src/stm32l4xx_hal_rcc_ex.c ****   */
2840:Drivers/STM32L4xx_HAL_Driver/Src/stm32l4xx_hal_rcc_ex.c **** __weak void HAL_RCCEx_CRS_SyncWarnCallback(void)
2841:Drivers/STM32L4xx_HAL_Driver/Src/stm32l4xx_hal_rcc_ex.c **** {
 5213              		.loc 1 2841 1
 5214              		.cfi_startproc
 5215              		@ args = 0, pretend = 0, frame = 0
 5216              		@ frame_needed = 1, uses_anonymous_args = 0
 5217              		@ link register save eliminated.
 5218 0000 80B4     		push	{r7}
 5219              		.cfi_def_cfa_offset 4
 5220              		.cfi_offset 7, -4
 5221 0002 00AF     		add	r7, sp, #0
 5222              		.cfi_def_cfa_register 7
2842:Drivers/STM32L4xx_HAL_Driver/Src/stm32l4xx_hal_rcc_ex.c ****   /* NOTE : This function should not be modified, when the callback is needed,
2843:Drivers/STM32L4xx_HAL_Driver/Src/stm32l4xx_hal_rcc_ex.c ****             the @ref HAL_RCCEx_CRS_SyncWarnCallback should be implemented in the user file
ARM GAS  C:\Users\Morroway\AppData\Local\Temp\ccOmimY8.s 			page 150


2844:Drivers/STM32L4xx_HAL_Driver/Src/stm32l4xx_hal_rcc_ex.c ****    */
2845:Drivers/STM32L4xx_HAL_Driver/Src/stm32l4xx_hal_rcc_ex.c **** }
 5223              		.loc 1 2845 1
 5224 0004 00BF     		nop
 5225 0006 BD46     		mov	sp, r7
 5226              		.cfi_def_cfa_register 13
 5227              		@ sp needed
 5228 0008 5DF8047B 		ldr	r7, [sp], #4
 5229              		.cfi_restore 7
 5230              		.cfi_def_cfa_offset 0
 5231 000c 7047     		bx	lr
 5232              		.cfi_endproc
 5233              	.LFE346:
 5235              		.section	.text.HAL_RCCEx_CRS_ExpectedSyncCallback,"ax",%progbits
 5236              		.align	1
 5237              		.weak	HAL_RCCEx_CRS_ExpectedSyncCallback
 5238              		.syntax unified
 5239              		.thumb
 5240              		.thumb_func
 5242              	HAL_RCCEx_CRS_ExpectedSyncCallback:
 5243              	.LFB347:
2846:Drivers/STM32L4xx_HAL_Driver/Src/stm32l4xx_hal_rcc_ex.c **** 
2847:Drivers/STM32L4xx_HAL_Driver/Src/stm32l4xx_hal_rcc_ex.c **** /**
2848:Drivers/STM32L4xx_HAL_Driver/Src/stm32l4xx_hal_rcc_ex.c ****   * @brief  RCCEx Clock Recovery System Expected SYNC interrupt callback.
2849:Drivers/STM32L4xx_HAL_Driver/Src/stm32l4xx_hal_rcc_ex.c ****   * @retval none
2850:Drivers/STM32L4xx_HAL_Driver/Src/stm32l4xx_hal_rcc_ex.c ****   */
2851:Drivers/STM32L4xx_HAL_Driver/Src/stm32l4xx_hal_rcc_ex.c **** __weak void HAL_RCCEx_CRS_ExpectedSyncCallback(void)
2852:Drivers/STM32L4xx_HAL_Driver/Src/stm32l4xx_hal_rcc_ex.c **** {
 5244              		.loc 1 2852 1
 5245              		.cfi_startproc
 5246              		@ args = 0, pretend = 0, frame = 0
 5247              		@ frame_needed = 1, uses_anonymous_args = 0
 5248              		@ link register save eliminated.
 5249 0000 80B4     		push	{r7}
 5250              		.cfi_def_cfa_offset 4
 5251              		.cfi_offset 7, -4
 5252 0002 00AF     		add	r7, sp, #0
 5253              		.cfi_def_cfa_register 7
2853:Drivers/STM32L4xx_HAL_Driver/Src/stm32l4xx_hal_rcc_ex.c ****   /* NOTE : This function should not be modified, when the callback is needed,
2854:Drivers/STM32L4xx_HAL_Driver/Src/stm32l4xx_hal_rcc_ex.c ****             the @ref HAL_RCCEx_CRS_ExpectedSyncCallback should be implemented in the user file
2855:Drivers/STM32L4xx_HAL_Driver/Src/stm32l4xx_hal_rcc_ex.c ****    */
2856:Drivers/STM32L4xx_HAL_Driver/Src/stm32l4xx_hal_rcc_ex.c **** }
 5254              		.loc 1 2856 1
 5255 0004 00BF     		nop
 5256 0006 BD46     		mov	sp, r7
 5257              		.cfi_def_cfa_register 13
 5258              		@ sp needed
 5259 0008 5DF8047B 		ldr	r7, [sp], #4
 5260              		.cfi_restore 7
 5261              		.cfi_def_cfa_offset 0
 5262 000c 7047     		bx	lr
 5263              		.cfi_endproc
 5264              	.LFE347:
 5266              		.section	.text.HAL_RCCEx_CRS_ErrorCallback,"ax",%progbits
 5267              		.align	1
 5268              		.weak	HAL_RCCEx_CRS_ErrorCallback
 5269              		.syntax unified
ARM GAS  C:\Users\Morroway\AppData\Local\Temp\ccOmimY8.s 			page 151


 5270              		.thumb
 5271              		.thumb_func
 5273              	HAL_RCCEx_CRS_ErrorCallback:
 5274              	.LFB348:
2857:Drivers/STM32L4xx_HAL_Driver/Src/stm32l4xx_hal_rcc_ex.c **** 
2858:Drivers/STM32L4xx_HAL_Driver/Src/stm32l4xx_hal_rcc_ex.c **** /**
2859:Drivers/STM32L4xx_HAL_Driver/Src/stm32l4xx_hal_rcc_ex.c ****   * @brief  RCCEx Clock Recovery System Error interrupt callback.
2860:Drivers/STM32L4xx_HAL_Driver/Src/stm32l4xx_hal_rcc_ex.c ****   * @param  Error Combination of Error status.
2861:Drivers/STM32L4xx_HAL_Driver/Src/stm32l4xx_hal_rcc_ex.c ****   *         This parameter can be a combination of the following values:
2862:Drivers/STM32L4xx_HAL_Driver/Src/stm32l4xx_hal_rcc_ex.c ****   *           @arg @ref RCC_CRS_SYNCERR
2863:Drivers/STM32L4xx_HAL_Driver/Src/stm32l4xx_hal_rcc_ex.c ****   *           @arg @ref RCC_CRS_SYNCMISS
2864:Drivers/STM32L4xx_HAL_Driver/Src/stm32l4xx_hal_rcc_ex.c ****   *           @arg @ref RCC_CRS_TRIMOVF
2865:Drivers/STM32L4xx_HAL_Driver/Src/stm32l4xx_hal_rcc_ex.c ****   * @retval none
2866:Drivers/STM32L4xx_HAL_Driver/Src/stm32l4xx_hal_rcc_ex.c ****   */
2867:Drivers/STM32L4xx_HAL_Driver/Src/stm32l4xx_hal_rcc_ex.c **** __weak void HAL_RCCEx_CRS_ErrorCallback(uint32_t Error)
2868:Drivers/STM32L4xx_HAL_Driver/Src/stm32l4xx_hal_rcc_ex.c **** {
 5275              		.loc 1 2868 1
 5276              		.cfi_startproc
 5277              		@ args = 0, pretend = 0, frame = 8
 5278              		@ frame_needed = 1, uses_anonymous_args = 0
 5279              		@ link register save eliminated.
 5280 0000 80B4     		push	{r7}
 5281              		.cfi_def_cfa_offset 4
 5282              		.cfi_offset 7, -4
 5283 0002 83B0     		sub	sp, sp, #12
 5284              		.cfi_def_cfa_offset 16
 5285 0004 00AF     		add	r7, sp, #0
 5286              		.cfi_def_cfa_register 7
 5287 0006 7860     		str	r0, [r7, #4]
2869:Drivers/STM32L4xx_HAL_Driver/Src/stm32l4xx_hal_rcc_ex.c ****   /* Prevent unused argument(s) compilation warning */
2870:Drivers/STM32L4xx_HAL_Driver/Src/stm32l4xx_hal_rcc_ex.c ****   UNUSED(Error);
2871:Drivers/STM32L4xx_HAL_Driver/Src/stm32l4xx_hal_rcc_ex.c **** 
2872:Drivers/STM32L4xx_HAL_Driver/Src/stm32l4xx_hal_rcc_ex.c ****   /* NOTE : This function should not be modified, when the callback is needed,
2873:Drivers/STM32L4xx_HAL_Driver/Src/stm32l4xx_hal_rcc_ex.c ****             the @ref HAL_RCCEx_CRS_ErrorCallback should be implemented in the user file
2874:Drivers/STM32L4xx_HAL_Driver/Src/stm32l4xx_hal_rcc_ex.c ****    */
2875:Drivers/STM32L4xx_HAL_Driver/Src/stm32l4xx_hal_rcc_ex.c **** }
 5288              		.loc 1 2875 1
 5289 0008 00BF     		nop
 5290 000a 0C37     		adds	r7, r7, #12
 5291              		.cfi_def_cfa_offset 4
 5292 000c BD46     		mov	sp, r7
 5293              		.cfi_def_cfa_register 13
 5294              		@ sp needed
 5295 000e 5DF8047B 		ldr	r7, [sp], #4
 5296              		.cfi_restore 7
 5297              		.cfi_def_cfa_offset 0
 5298 0012 7047     		bx	lr
 5299              		.cfi_endproc
 5300              	.LFE348:
 5302              		.section	.text.RCCEx_PLLSAI1_Config,"ax",%progbits
 5303              		.align	1
 5304              		.syntax unified
 5305              		.thumb
 5306              		.thumb_func
 5308              	RCCEx_PLLSAI1_Config:
 5309              	.LFB349:
2876:Drivers/STM32L4xx_HAL_Driver/Src/stm32l4xx_hal_rcc_ex.c **** 
ARM GAS  C:\Users\Morroway\AppData\Local\Temp\ccOmimY8.s 			page 152


2877:Drivers/STM32L4xx_HAL_Driver/Src/stm32l4xx_hal_rcc_ex.c **** /**
2878:Drivers/STM32L4xx_HAL_Driver/Src/stm32l4xx_hal_rcc_ex.c ****   * @}
2879:Drivers/STM32L4xx_HAL_Driver/Src/stm32l4xx_hal_rcc_ex.c ****   */
2880:Drivers/STM32L4xx_HAL_Driver/Src/stm32l4xx_hal_rcc_ex.c **** 
2881:Drivers/STM32L4xx_HAL_Driver/Src/stm32l4xx_hal_rcc_ex.c **** #endif /* CRS */
2882:Drivers/STM32L4xx_HAL_Driver/Src/stm32l4xx_hal_rcc_ex.c **** 
2883:Drivers/STM32L4xx_HAL_Driver/Src/stm32l4xx_hal_rcc_ex.c **** /**
2884:Drivers/STM32L4xx_HAL_Driver/Src/stm32l4xx_hal_rcc_ex.c ****   * @}
2885:Drivers/STM32L4xx_HAL_Driver/Src/stm32l4xx_hal_rcc_ex.c ****   */
2886:Drivers/STM32L4xx_HAL_Driver/Src/stm32l4xx_hal_rcc_ex.c **** 
2887:Drivers/STM32L4xx_HAL_Driver/Src/stm32l4xx_hal_rcc_ex.c **** /** @addtogroup RCCEx_Private_Functions
2888:Drivers/STM32L4xx_HAL_Driver/Src/stm32l4xx_hal_rcc_ex.c ****  * @{
2889:Drivers/STM32L4xx_HAL_Driver/Src/stm32l4xx_hal_rcc_ex.c ****  */
2890:Drivers/STM32L4xx_HAL_Driver/Src/stm32l4xx_hal_rcc_ex.c **** 
2891:Drivers/STM32L4xx_HAL_Driver/Src/stm32l4xx_hal_rcc_ex.c **** #if defined(RCC_PLLSAI1_SUPPORT)
2892:Drivers/STM32L4xx_HAL_Driver/Src/stm32l4xx_hal_rcc_ex.c **** 
2893:Drivers/STM32L4xx_HAL_Driver/Src/stm32l4xx_hal_rcc_ex.c **** /**
2894:Drivers/STM32L4xx_HAL_Driver/Src/stm32l4xx_hal_rcc_ex.c ****   * @brief  Configure the parameters N & P & optionally M of PLLSAI1 and enable PLLSAI1 output cloc
2895:Drivers/STM32L4xx_HAL_Driver/Src/stm32l4xx_hal_rcc_ex.c ****   * @param  PllSai1  pointer to an RCC_PLLSAI1InitTypeDef structure that
2896:Drivers/STM32L4xx_HAL_Driver/Src/stm32l4xx_hal_rcc_ex.c ****   *         contains the configuration parameters N & P & optionally M as well as PLLSAI1 output cl
2897:Drivers/STM32L4xx_HAL_Driver/Src/stm32l4xx_hal_rcc_ex.c ****   * @param  Divider  divider parameter to be updated
2898:Drivers/STM32L4xx_HAL_Driver/Src/stm32l4xx_hal_rcc_ex.c ****   *
2899:Drivers/STM32L4xx_HAL_Driver/Src/stm32l4xx_hal_rcc_ex.c ****   * @note   PLLSAI1 is temporary disable to apply new parameters
2900:Drivers/STM32L4xx_HAL_Driver/Src/stm32l4xx_hal_rcc_ex.c ****   *
2901:Drivers/STM32L4xx_HAL_Driver/Src/stm32l4xx_hal_rcc_ex.c ****   * @retval HAL status
2902:Drivers/STM32L4xx_HAL_Driver/Src/stm32l4xx_hal_rcc_ex.c ****   */
2903:Drivers/STM32L4xx_HAL_Driver/Src/stm32l4xx_hal_rcc_ex.c **** static HAL_StatusTypeDef RCCEx_PLLSAI1_Config(RCC_PLLSAI1InitTypeDef *PllSai1, uint32_t Divider)
2904:Drivers/STM32L4xx_HAL_Driver/Src/stm32l4xx_hal_rcc_ex.c **** {
 5310              		.loc 1 2904 1
 5311              		.cfi_startproc
 5312              		@ args = 0, pretend = 0, frame = 16
 5313              		@ frame_needed = 1, uses_anonymous_args = 0
 5314 0000 80B5     		push	{r7, lr}
 5315              		.cfi_def_cfa_offset 8
 5316              		.cfi_offset 7, -8
 5317              		.cfi_offset 14, -4
 5318 0002 84B0     		sub	sp, sp, #16
 5319              		.cfi_def_cfa_offset 24
 5320 0004 00AF     		add	r7, sp, #0
 5321              		.cfi_def_cfa_register 7
 5322 0006 7860     		str	r0, [r7, #4]
 5323 0008 3960     		str	r1, [r7]
2905:Drivers/STM32L4xx_HAL_Driver/Src/stm32l4xx_hal_rcc_ex.c ****   uint32_t tickstart;
2906:Drivers/STM32L4xx_HAL_Driver/Src/stm32l4xx_hal_rcc_ex.c ****   HAL_StatusTypeDef status = HAL_OK;
 5324              		.loc 1 2906 21
 5325 000a 0023     		movs	r3, #0
 5326 000c FB73     		strb	r3, [r7, #15]
2907:Drivers/STM32L4xx_HAL_Driver/Src/stm32l4xx_hal_rcc_ex.c **** 
2908:Drivers/STM32L4xx_HAL_Driver/Src/stm32l4xx_hal_rcc_ex.c ****   /* check for PLLSAI1 Parameters used to output PLLSAI1CLK */
2909:Drivers/STM32L4xx_HAL_Driver/Src/stm32l4xx_hal_rcc_ex.c ****   /* P, Q and R dividers are verified in each specific divider case below */
2910:Drivers/STM32L4xx_HAL_Driver/Src/stm32l4xx_hal_rcc_ex.c ****   assert_param(IS_RCC_PLLSAI1SOURCE(PllSai1->PLLSAI1Source));
2911:Drivers/STM32L4xx_HAL_Driver/Src/stm32l4xx_hal_rcc_ex.c ****   assert_param(IS_RCC_PLLSAI1M_VALUE(PllSai1->PLLSAI1M));
2912:Drivers/STM32L4xx_HAL_Driver/Src/stm32l4xx_hal_rcc_ex.c ****   assert_param(IS_RCC_PLLSAI1N_VALUE(PllSai1->PLLSAI1N));
2913:Drivers/STM32L4xx_HAL_Driver/Src/stm32l4xx_hal_rcc_ex.c ****   assert_param(IS_RCC_PLLSAI1CLOCKOUT_VALUE(PllSai1->PLLSAI1ClockOut));
2914:Drivers/STM32L4xx_HAL_Driver/Src/stm32l4xx_hal_rcc_ex.c **** 
2915:Drivers/STM32L4xx_HAL_Driver/Src/stm32l4xx_hal_rcc_ex.c ****   /* Check that PLLSAI1 clock source and divider M can be applied */
2916:Drivers/STM32L4xx_HAL_Driver/Src/stm32l4xx_hal_rcc_ex.c ****   if(__HAL_RCC_GET_PLL_OSCSOURCE() != RCC_PLLSOURCE_NONE)
ARM GAS  C:\Users\Morroway\AppData\Local\Temp\ccOmimY8.s 			page 153


 5327              		.loc 1 2916 6
 5328 000e 724B     		ldr	r3, .L473
 5329 0010 DB68     		ldr	r3, [r3, #12]
 5330 0012 03F00303 		and	r3, r3, #3
 5331              		.loc 1 2916 5
 5332 0016 002B     		cmp	r3, #0
 5333 0018 0ED0     		beq	.L448
2917:Drivers/STM32L4xx_HAL_Driver/Src/stm32l4xx_hal_rcc_ex.c ****   {
2918:Drivers/STM32L4xx_HAL_Driver/Src/stm32l4xx_hal_rcc_ex.c ****     /* PLL clock source and divider M already set, check that no request for change  */
2919:Drivers/STM32L4xx_HAL_Driver/Src/stm32l4xx_hal_rcc_ex.c ****     if((__HAL_RCC_GET_PLL_OSCSOURCE() != PllSai1->PLLSAI1Source)
 5334              		.loc 1 2919 9
 5335 001a 6F4B     		ldr	r3, .L473
 5336 001c DB68     		ldr	r3, [r3, #12]
 5337 001e 03F00302 		and	r2, r3, #3
 5338              		.loc 1 2919 49
 5339 0022 7B68     		ldr	r3, [r7, #4]
 5340 0024 1B68     		ldr	r3, [r3]
 5341              		.loc 1 2919 7
 5342 0026 9A42     		cmp	r2, r3
 5343 0028 03D1     		bne	.L449
2920:Drivers/STM32L4xx_HAL_Driver/Src/stm32l4xx_hal_rcc_ex.c ****        ||
2921:Drivers/STM32L4xx_HAL_Driver/Src/stm32l4xx_hal_rcc_ex.c ****        (PllSai1->PLLSAI1Source == RCC_PLLSOURCE_NONE)
 5344              		.loc 1 2921 16
 5345 002a 7B68     		ldr	r3, [r7, #4]
 5346 002c 1B68     		ldr	r3, [r3]
2920:Drivers/STM32L4xx_HAL_Driver/Src/stm32l4xx_hal_rcc_ex.c ****        ||
 5347              		.loc 1 2920 8
 5348 002e 002B     		cmp	r3, #0
 5349 0030 42D1     		bne	.L450
 5350              	.L449:
2922:Drivers/STM32L4xx_HAL_Driver/Src/stm32l4xx_hal_rcc_ex.c **** #if !defined(RCC_PLLSAI1M_DIV_1_16_SUPPORT)
2923:Drivers/STM32L4xx_HAL_Driver/Src/stm32l4xx_hal_rcc_ex.c ****        ||
2924:Drivers/STM32L4xx_HAL_Driver/Src/stm32l4xx_hal_rcc_ex.c ****        (((READ_BIT(RCC->PLLCFGR, RCC_PLLCFGR_PLLM) >> RCC_PLLCFGR_PLLM_Pos) + 1U) != PllSai1->PLLSA
2925:Drivers/STM32L4xx_HAL_Driver/Src/stm32l4xx_hal_rcc_ex.c **** #endif
2926:Drivers/STM32L4xx_HAL_Driver/Src/stm32l4xx_hal_rcc_ex.c ****       )
2927:Drivers/STM32L4xx_HAL_Driver/Src/stm32l4xx_hal_rcc_ex.c ****     {
2928:Drivers/STM32L4xx_HAL_Driver/Src/stm32l4xx_hal_rcc_ex.c ****       status = HAL_ERROR;
 5351              		.loc 1 2928 14
 5352 0032 0123     		movs	r3, #1
 5353 0034 FB73     		strb	r3, [r7, #15]
 5354 0036 3FE0     		b	.L450
 5355              	.L448:
2929:Drivers/STM32L4xx_HAL_Driver/Src/stm32l4xx_hal_rcc_ex.c ****     }
2930:Drivers/STM32L4xx_HAL_Driver/Src/stm32l4xx_hal_rcc_ex.c ****   }
2931:Drivers/STM32L4xx_HAL_Driver/Src/stm32l4xx_hal_rcc_ex.c ****   else
2932:Drivers/STM32L4xx_HAL_Driver/Src/stm32l4xx_hal_rcc_ex.c ****   {
2933:Drivers/STM32L4xx_HAL_Driver/Src/stm32l4xx_hal_rcc_ex.c ****     /* Check PLLSAI1 clock source availability */
2934:Drivers/STM32L4xx_HAL_Driver/Src/stm32l4xx_hal_rcc_ex.c ****     switch(PllSai1->PLLSAI1Source)
 5356              		.loc 1 2934 19
 5357 0038 7B68     		ldr	r3, [r7, #4]
 5358 003a 1B68     		ldr	r3, [r3]
 5359              		.loc 1 2934 5
 5360 003c 032B     		cmp	r3, #3
 5361 003e 18D0     		beq	.L451
 5362 0040 032B     		cmp	r3, #3
 5363 0042 25D8     		bhi	.L452
 5364 0044 012B     		cmp	r3, #1
ARM GAS  C:\Users\Morroway\AppData\Local\Temp\ccOmimY8.s 			page 154


 5365 0046 02D0     		beq	.L453
 5366 0048 022B     		cmp	r3, #2
 5367 004a 09D0     		beq	.L454
 5368 004c 20E0     		b	.L452
 5369              	.L453:
2935:Drivers/STM32L4xx_HAL_Driver/Src/stm32l4xx_hal_rcc_ex.c ****     {
2936:Drivers/STM32L4xx_HAL_Driver/Src/stm32l4xx_hal_rcc_ex.c ****     case RCC_PLLSOURCE_MSI:
2937:Drivers/STM32L4xx_HAL_Driver/Src/stm32l4xx_hal_rcc_ex.c ****       if(HAL_IS_BIT_CLR(RCC->CR, RCC_CR_MSIRDY))
 5370              		.loc 1 2937 10
 5371 004e 624B     		ldr	r3, .L473
 5372 0050 1B68     		ldr	r3, [r3]
 5373 0052 03F00203 		and	r3, r3, #2
 5374              		.loc 1 2937 9
 5375 0056 002B     		cmp	r3, #0
 5376 0058 1DD1     		bne	.L470
2938:Drivers/STM32L4xx_HAL_Driver/Src/stm32l4xx_hal_rcc_ex.c ****       {
2939:Drivers/STM32L4xx_HAL_Driver/Src/stm32l4xx_hal_rcc_ex.c ****         status = HAL_ERROR;
 5377              		.loc 1 2939 16
 5378 005a 0123     		movs	r3, #1
 5379 005c FB73     		strb	r3, [r7, #15]
2940:Drivers/STM32L4xx_HAL_Driver/Src/stm32l4xx_hal_rcc_ex.c ****       }
2941:Drivers/STM32L4xx_HAL_Driver/Src/stm32l4xx_hal_rcc_ex.c ****       break;
 5380              		.loc 1 2941 7
 5381 005e 1AE0     		b	.L470
 5382              	.L454:
2942:Drivers/STM32L4xx_HAL_Driver/Src/stm32l4xx_hal_rcc_ex.c ****     case RCC_PLLSOURCE_HSI:
2943:Drivers/STM32L4xx_HAL_Driver/Src/stm32l4xx_hal_rcc_ex.c ****       if(HAL_IS_BIT_CLR(RCC->CR, RCC_CR_HSIRDY))
 5383              		.loc 1 2943 10
 5384 0060 5D4B     		ldr	r3, .L473
 5385 0062 1B68     		ldr	r3, [r3]
 5386 0064 03F48063 		and	r3, r3, #1024
 5387              		.loc 1 2943 9
 5388 0068 002B     		cmp	r3, #0
 5389 006a 16D1     		bne	.L471
2944:Drivers/STM32L4xx_HAL_Driver/Src/stm32l4xx_hal_rcc_ex.c ****       {
2945:Drivers/STM32L4xx_HAL_Driver/Src/stm32l4xx_hal_rcc_ex.c ****         status = HAL_ERROR;
 5390              		.loc 1 2945 16
 5391 006c 0123     		movs	r3, #1
 5392 006e FB73     		strb	r3, [r7, #15]
2946:Drivers/STM32L4xx_HAL_Driver/Src/stm32l4xx_hal_rcc_ex.c ****       }
2947:Drivers/STM32L4xx_HAL_Driver/Src/stm32l4xx_hal_rcc_ex.c ****       break;
 5393              		.loc 1 2947 7
 5394 0070 13E0     		b	.L471
 5395              	.L451:
2948:Drivers/STM32L4xx_HAL_Driver/Src/stm32l4xx_hal_rcc_ex.c ****     case RCC_PLLSOURCE_HSE:
2949:Drivers/STM32L4xx_HAL_Driver/Src/stm32l4xx_hal_rcc_ex.c ****       if(HAL_IS_BIT_CLR(RCC->CR, RCC_CR_HSERDY))
 5396              		.loc 1 2949 10
 5397 0072 594B     		ldr	r3, .L473
 5398 0074 1B68     		ldr	r3, [r3]
 5399 0076 03F40033 		and	r3, r3, #131072
 5400              		.loc 1 2949 9
 5401 007a 002B     		cmp	r3, #0
 5402 007c 0FD1     		bne	.L472
2950:Drivers/STM32L4xx_HAL_Driver/Src/stm32l4xx_hal_rcc_ex.c ****       {
2951:Drivers/STM32L4xx_HAL_Driver/Src/stm32l4xx_hal_rcc_ex.c ****         if(HAL_IS_BIT_CLR(RCC->CR, RCC_CR_HSEBYP))
 5403              		.loc 1 2951 12
 5404 007e 564B     		ldr	r3, .L473
ARM GAS  C:\Users\Morroway\AppData\Local\Temp\ccOmimY8.s 			page 155


 5405 0080 1B68     		ldr	r3, [r3]
 5406 0082 03F48023 		and	r3, r3, #262144
 5407              		.loc 1 2951 11
 5408 0086 002B     		cmp	r3, #0
 5409 0088 09D1     		bne	.L472
2952:Drivers/STM32L4xx_HAL_Driver/Src/stm32l4xx_hal_rcc_ex.c ****         {
2953:Drivers/STM32L4xx_HAL_Driver/Src/stm32l4xx_hal_rcc_ex.c ****           status = HAL_ERROR;
 5410              		.loc 1 2953 18
 5411 008a 0123     		movs	r3, #1
 5412 008c FB73     		strb	r3, [r7, #15]
2954:Drivers/STM32L4xx_HAL_Driver/Src/stm32l4xx_hal_rcc_ex.c ****         }
2955:Drivers/STM32L4xx_HAL_Driver/Src/stm32l4xx_hal_rcc_ex.c ****       }
2956:Drivers/STM32L4xx_HAL_Driver/Src/stm32l4xx_hal_rcc_ex.c ****       break;
 5413              		.loc 1 2956 7
 5414 008e 06E0     		b	.L472
 5415              	.L452:
2957:Drivers/STM32L4xx_HAL_Driver/Src/stm32l4xx_hal_rcc_ex.c ****     default:
2958:Drivers/STM32L4xx_HAL_Driver/Src/stm32l4xx_hal_rcc_ex.c ****       status = HAL_ERROR;
 5416              		.loc 1 2958 14
 5417 0090 0123     		movs	r3, #1
 5418 0092 FB73     		strb	r3, [r7, #15]
2959:Drivers/STM32L4xx_HAL_Driver/Src/stm32l4xx_hal_rcc_ex.c ****       break;
 5419              		.loc 1 2959 7
 5420 0094 04E0     		b	.L456
 5421              	.L470:
2941:Drivers/STM32L4xx_HAL_Driver/Src/stm32l4xx_hal_rcc_ex.c ****     case RCC_PLLSOURCE_HSI:
 5422              		.loc 1 2941 7
 5423 0096 00BF     		nop
 5424 0098 02E0     		b	.L456
 5425              	.L471:
2947:Drivers/STM32L4xx_HAL_Driver/Src/stm32l4xx_hal_rcc_ex.c ****     case RCC_PLLSOURCE_HSE:
 5426              		.loc 1 2947 7
 5427 009a 00BF     		nop
 5428 009c 00E0     		b	.L456
 5429              	.L472:
2956:Drivers/STM32L4xx_HAL_Driver/Src/stm32l4xx_hal_rcc_ex.c ****     default:
 5430              		.loc 1 2956 7
 5431 009e 00BF     		nop
 5432              	.L456:
2960:Drivers/STM32L4xx_HAL_Driver/Src/stm32l4xx_hal_rcc_ex.c ****     }
2961:Drivers/STM32L4xx_HAL_Driver/Src/stm32l4xx_hal_rcc_ex.c **** 
2962:Drivers/STM32L4xx_HAL_Driver/Src/stm32l4xx_hal_rcc_ex.c ****     if(status == HAL_OK)
 5433              		.loc 1 2962 7
 5434 00a0 FB7B     		ldrb	r3, [r7, #15]	@ zero_extendqisi2
 5435 00a2 002B     		cmp	r3, #0
 5436 00a4 08D1     		bne	.L450
2963:Drivers/STM32L4xx_HAL_Driver/Src/stm32l4xx_hal_rcc_ex.c ****     {
2964:Drivers/STM32L4xx_HAL_Driver/Src/stm32l4xx_hal_rcc_ex.c **** #if defined(RCC_PLLSAI1M_DIV_1_16_SUPPORT)
2965:Drivers/STM32L4xx_HAL_Driver/Src/stm32l4xx_hal_rcc_ex.c ****       /* Set PLLSAI1 clock source */
2966:Drivers/STM32L4xx_HAL_Driver/Src/stm32l4xx_hal_rcc_ex.c ****       MODIFY_REG(RCC->PLLCFGR, RCC_PLLCFGR_PLLSRC, PllSai1->PLLSAI1Source);
 5437              		.loc 1 2966 7
 5438 00a6 4C4B     		ldr	r3, .L473
 5439 00a8 DB68     		ldr	r3, [r3, #12]
 5440 00aa 23F00302 		bic	r2, r3, #3
 5441 00ae 7B68     		ldr	r3, [r7, #4]
 5442 00b0 1B68     		ldr	r3, [r3]
 5443 00b2 4949     		ldr	r1, .L473
ARM GAS  C:\Users\Morroway\AppData\Local\Temp\ccOmimY8.s 			page 156


 5444 00b4 1343     		orrs	r3, r3, r2
 5445 00b6 CB60     		str	r3, [r1, #12]
 5446              	.L450:
2967:Drivers/STM32L4xx_HAL_Driver/Src/stm32l4xx_hal_rcc_ex.c **** #else
2968:Drivers/STM32L4xx_HAL_Driver/Src/stm32l4xx_hal_rcc_ex.c ****       /* Set PLLSAI1 clock source and divider M */
2969:Drivers/STM32L4xx_HAL_Driver/Src/stm32l4xx_hal_rcc_ex.c ****       MODIFY_REG(RCC->PLLCFGR, RCC_PLLCFGR_PLLSRC | RCC_PLLCFGR_PLLM, PllSai1->PLLSAI1Source | (Pll
2970:Drivers/STM32L4xx_HAL_Driver/Src/stm32l4xx_hal_rcc_ex.c **** #endif
2971:Drivers/STM32L4xx_HAL_Driver/Src/stm32l4xx_hal_rcc_ex.c ****     }
2972:Drivers/STM32L4xx_HAL_Driver/Src/stm32l4xx_hal_rcc_ex.c ****   }
2973:Drivers/STM32L4xx_HAL_Driver/Src/stm32l4xx_hal_rcc_ex.c **** 
2974:Drivers/STM32L4xx_HAL_Driver/Src/stm32l4xx_hal_rcc_ex.c ****   if(status == HAL_OK)
 5447              		.loc 1 2974 5
 5448 00b8 FB7B     		ldrb	r3, [r7, #15]	@ zero_extendqisi2
 5449 00ba 002B     		cmp	r3, #0
 5450 00bc 40F08680 		bne	.L459
2975:Drivers/STM32L4xx_HAL_Driver/Src/stm32l4xx_hal_rcc_ex.c ****   {
2976:Drivers/STM32L4xx_HAL_Driver/Src/stm32l4xx_hal_rcc_ex.c ****     /* Disable the PLLSAI1 */
2977:Drivers/STM32L4xx_HAL_Driver/Src/stm32l4xx_hal_rcc_ex.c ****     __HAL_RCC_PLLSAI1_DISABLE();
 5451              		.loc 1 2977 5
 5452 00c0 454B     		ldr	r3, .L473
 5453 00c2 1B68     		ldr	r3, [r3]
 5454 00c4 444A     		ldr	r2, .L473
 5455 00c6 23F08063 		bic	r3, r3, #67108864
 5456 00ca 1360     		str	r3, [r2]
2978:Drivers/STM32L4xx_HAL_Driver/Src/stm32l4xx_hal_rcc_ex.c **** 
2979:Drivers/STM32L4xx_HAL_Driver/Src/stm32l4xx_hal_rcc_ex.c ****     /* Get Start Tick*/
2980:Drivers/STM32L4xx_HAL_Driver/Src/stm32l4xx_hal_rcc_ex.c ****     tickstart = HAL_GetTick();
 5457              		.loc 1 2980 17
 5458 00cc FFF7FEFF 		bl	HAL_GetTick
 5459 00d0 B860     		str	r0, [r7, #8]
2981:Drivers/STM32L4xx_HAL_Driver/Src/stm32l4xx_hal_rcc_ex.c **** 
2982:Drivers/STM32L4xx_HAL_Driver/Src/stm32l4xx_hal_rcc_ex.c ****     /* Wait till PLLSAI1 is ready to be updated */
2983:Drivers/STM32L4xx_HAL_Driver/Src/stm32l4xx_hal_rcc_ex.c ****     while(READ_BIT(RCC->CR, RCC_CR_PLLSAI1RDY) != 0U)
 5460              		.loc 1 2983 10
 5461 00d2 09E0     		b	.L460
 5462              	.L462:
2984:Drivers/STM32L4xx_HAL_Driver/Src/stm32l4xx_hal_rcc_ex.c ****     {
2985:Drivers/STM32L4xx_HAL_Driver/Src/stm32l4xx_hal_rcc_ex.c ****       if((HAL_GetTick() - tickstart) > PLLSAI1_TIMEOUT_VALUE)
 5463              		.loc 1 2985 11
 5464 00d4 FFF7FEFF 		bl	HAL_GetTick
 5465 00d8 0246     		mov	r2, r0
 5466              		.loc 1 2985 25
 5467 00da BB68     		ldr	r3, [r7, #8]
 5468 00dc D31A     		subs	r3, r2, r3
 5469              		.loc 1 2985 9
 5470 00de 022B     		cmp	r3, #2
 5471 00e0 02D9     		bls	.L460
2986:Drivers/STM32L4xx_HAL_Driver/Src/stm32l4xx_hal_rcc_ex.c ****       {
2987:Drivers/STM32L4xx_HAL_Driver/Src/stm32l4xx_hal_rcc_ex.c ****         status = HAL_TIMEOUT;
 5472              		.loc 1 2987 16
 5473 00e2 0323     		movs	r3, #3
 5474 00e4 FB73     		strb	r3, [r7, #15]
2988:Drivers/STM32L4xx_HAL_Driver/Src/stm32l4xx_hal_rcc_ex.c ****         break;
 5475              		.loc 1 2988 9
 5476 00e6 05E0     		b	.L461
 5477              	.L460:
2983:Drivers/STM32L4xx_HAL_Driver/Src/stm32l4xx_hal_rcc_ex.c ****     {
ARM GAS  C:\Users\Morroway\AppData\Local\Temp\ccOmimY8.s 			page 157


 5478              		.loc 1 2983 11
 5479 00e8 3B4B     		ldr	r3, .L473
 5480 00ea 1B68     		ldr	r3, [r3]
 5481 00ec 03F00063 		and	r3, r3, #134217728
2983:Drivers/STM32L4xx_HAL_Driver/Src/stm32l4xx_hal_rcc_ex.c ****     {
 5482              		.loc 1 2983 48
 5483 00f0 002B     		cmp	r3, #0
 5484 00f2 EFD1     		bne	.L462
 5485              	.L461:
2989:Drivers/STM32L4xx_HAL_Driver/Src/stm32l4xx_hal_rcc_ex.c ****       }
2990:Drivers/STM32L4xx_HAL_Driver/Src/stm32l4xx_hal_rcc_ex.c ****     }
2991:Drivers/STM32L4xx_HAL_Driver/Src/stm32l4xx_hal_rcc_ex.c **** 
2992:Drivers/STM32L4xx_HAL_Driver/Src/stm32l4xx_hal_rcc_ex.c ****     if(status == HAL_OK)
 5486              		.loc 1 2992 7
 5487 00f4 FB7B     		ldrb	r3, [r7, #15]	@ zero_extendqisi2
 5488 00f6 002B     		cmp	r3, #0
 5489 00f8 68D1     		bne	.L459
2993:Drivers/STM32L4xx_HAL_Driver/Src/stm32l4xx_hal_rcc_ex.c ****     {
2994:Drivers/STM32L4xx_HAL_Driver/Src/stm32l4xx_hal_rcc_ex.c ****       if(Divider == DIVIDER_P_UPDATE)
 5490              		.loc 1 2994 9
 5491 00fa 3B68     		ldr	r3, [r7]
 5492 00fc 002B     		cmp	r3, #0
 5493 00fe 13D1     		bne	.L463
2995:Drivers/STM32L4xx_HAL_Driver/Src/stm32l4xx_hal_rcc_ex.c ****       {
2996:Drivers/STM32L4xx_HAL_Driver/Src/stm32l4xx_hal_rcc_ex.c ****         assert_param(IS_RCC_PLLSAI1P_VALUE(PllSai1->PLLSAI1P));
2997:Drivers/STM32L4xx_HAL_Driver/Src/stm32l4xx_hal_rcc_ex.c **** #if defined(RCC_PLLSAI1M_DIV_1_16_SUPPORT)
2998:Drivers/STM32L4xx_HAL_Driver/Src/stm32l4xx_hal_rcc_ex.c **** 
2999:Drivers/STM32L4xx_HAL_Driver/Src/stm32l4xx_hal_rcc_ex.c ****         /* Configure the PLLSAI1 Division factor M, P and Multiplication factor N*/
3000:Drivers/STM32L4xx_HAL_Driver/Src/stm32l4xx_hal_rcc_ex.c **** #if defined(RCC_PLLSAI1P_DIV_2_31_SUPPORT)
3001:Drivers/STM32L4xx_HAL_Driver/Src/stm32l4xx_hal_rcc_ex.c ****         MODIFY_REG(RCC->PLLSAI1CFGR,
 5494              		.loc 1 3001 9
 5495 0100 354B     		ldr	r3, .L473
 5496 0102 1A69     		ldr	r2, [r3, #16]
 5497 0104 354B     		ldr	r3, .L473+4
 5498 0106 1340     		ands	r3, r3, r2
 5499 0108 7A68     		ldr	r2, [r7, #4]
 5500 010a 9268     		ldr	r2, [r2, #8]
 5501 010c 1102     		lsls	r1, r2, #8
 5502 010e 7A68     		ldr	r2, [r7, #4]
 5503 0110 D268     		ldr	r2, [r2, #12]
 5504 0112 D206     		lsls	r2, r2, #27
 5505 0114 1143     		orrs	r1, r1, r2
 5506 0116 7A68     		ldr	r2, [r7, #4]
 5507 0118 5268     		ldr	r2, [r2, #4]
 5508 011a 013A     		subs	r2, r2, #1
 5509 011c 1201     		lsls	r2, r2, #4
 5510 011e 0A43     		orrs	r2, r2, r1
 5511 0120 2D49     		ldr	r1, .L473
 5512 0122 1343     		orrs	r3, r3, r2
 5513 0124 0B61     		str	r3, [r1, #16]
 5514 0126 2DE0     		b	.L464
 5515              	.L463:
3002:Drivers/STM32L4xx_HAL_Driver/Src/stm32l4xx_hal_rcc_ex.c ****                    RCC_PLLSAI1CFGR_PLLSAI1N | RCC_PLLSAI1CFGR_PLLSAI1PDIV | RCC_PLLSAI1CFGR_PLLSAI1
3003:Drivers/STM32L4xx_HAL_Driver/Src/stm32l4xx_hal_rcc_ex.c ****                    (PllSai1->PLLSAI1N << RCC_PLLSAI1CFGR_PLLSAI1N_Pos) |
3004:Drivers/STM32L4xx_HAL_Driver/Src/stm32l4xx_hal_rcc_ex.c ****                    (PllSai1->PLLSAI1P << RCC_PLLSAI1CFGR_PLLSAI1PDIV_Pos) |
3005:Drivers/STM32L4xx_HAL_Driver/Src/stm32l4xx_hal_rcc_ex.c ****                    ((PllSai1->PLLSAI1M - 1U) << RCC_PLLSAI1CFGR_PLLSAI1M_Pos));
3006:Drivers/STM32L4xx_HAL_Driver/Src/stm32l4xx_hal_rcc_ex.c **** #else
ARM GAS  C:\Users\Morroway\AppData\Local\Temp\ccOmimY8.s 			page 158


3007:Drivers/STM32L4xx_HAL_Driver/Src/stm32l4xx_hal_rcc_ex.c ****         MODIFY_REG(RCC->PLLSAI1CFGR,
3008:Drivers/STM32L4xx_HAL_Driver/Src/stm32l4xx_hal_rcc_ex.c ****                    RCC_PLLSAI1CFGR_PLLSAI1N | RCC_PLLSAI1CFGR_PLLSAI1P | RCC_PLLSAI1CFGR_PLLSAI1M,
3009:Drivers/STM32L4xx_HAL_Driver/Src/stm32l4xx_hal_rcc_ex.c ****                    (PllSai1->PLLSAI1N << RCC_PLLSAI1CFGR_PLLSAI1N_Pos) |
3010:Drivers/STM32L4xx_HAL_Driver/Src/stm32l4xx_hal_rcc_ex.c ****                    ((PllSai1->PLLSAI1P >> 4U) << RCC_PLLSAI1CFGR_PLLSAI1P_Pos) |
3011:Drivers/STM32L4xx_HAL_Driver/Src/stm32l4xx_hal_rcc_ex.c ****                    ((PllSai1->PLLSAI1M - 1U) << RCC_PLLSAI1CFGR_PLLSAI1M_Pos));
3012:Drivers/STM32L4xx_HAL_Driver/Src/stm32l4xx_hal_rcc_ex.c **** #endif /* RCC_PLLSAI1P_DIV_2_31_SUPPORT */
3013:Drivers/STM32L4xx_HAL_Driver/Src/stm32l4xx_hal_rcc_ex.c **** 
3014:Drivers/STM32L4xx_HAL_Driver/Src/stm32l4xx_hal_rcc_ex.c **** #else
3015:Drivers/STM32L4xx_HAL_Driver/Src/stm32l4xx_hal_rcc_ex.c ****         /* Configure the PLLSAI1 Division factor P and Multiplication factor N*/
3016:Drivers/STM32L4xx_HAL_Driver/Src/stm32l4xx_hal_rcc_ex.c **** #if defined(RCC_PLLSAI1P_DIV_2_31_SUPPORT)
3017:Drivers/STM32L4xx_HAL_Driver/Src/stm32l4xx_hal_rcc_ex.c ****         MODIFY_REG(RCC->PLLSAI1CFGR,
3018:Drivers/STM32L4xx_HAL_Driver/Src/stm32l4xx_hal_rcc_ex.c ****                    RCC_PLLSAI1CFGR_PLLSAI1N | RCC_PLLSAI1CFGR_PLLSAI1PDIV,
3019:Drivers/STM32L4xx_HAL_Driver/Src/stm32l4xx_hal_rcc_ex.c ****                    (PllSai1->PLLSAI1N << RCC_PLLSAI1CFGR_PLLSAI1N_Pos) |
3020:Drivers/STM32L4xx_HAL_Driver/Src/stm32l4xx_hal_rcc_ex.c ****                    (PllSai1->PLLSAI1P << RCC_PLLSAI1CFGR_PLLSAI1PDIV_Pos));
3021:Drivers/STM32L4xx_HAL_Driver/Src/stm32l4xx_hal_rcc_ex.c **** #else
3022:Drivers/STM32L4xx_HAL_Driver/Src/stm32l4xx_hal_rcc_ex.c ****         MODIFY_REG(RCC->PLLSAI1CFGR,
3023:Drivers/STM32L4xx_HAL_Driver/Src/stm32l4xx_hal_rcc_ex.c ****                    RCC_PLLSAI1CFGR_PLLSAI1N | RCC_PLLSAI1CFGR_PLLSAI1P,
3024:Drivers/STM32L4xx_HAL_Driver/Src/stm32l4xx_hal_rcc_ex.c ****                    (PllSai1->PLLSAI1N << RCC_PLLSAI1CFGR_PLLSAI1N_Pos) |
3025:Drivers/STM32L4xx_HAL_Driver/Src/stm32l4xx_hal_rcc_ex.c ****                    ((PllSai1->PLLSAI1P >> 4U) << RCC_PLLSAI1CFGR_PLLSAI1P_Pos));
3026:Drivers/STM32L4xx_HAL_Driver/Src/stm32l4xx_hal_rcc_ex.c **** #endif /* RCC_PLLSAI1P_DIV_2_31_SUPPORT */
3027:Drivers/STM32L4xx_HAL_Driver/Src/stm32l4xx_hal_rcc_ex.c **** 
3028:Drivers/STM32L4xx_HAL_Driver/Src/stm32l4xx_hal_rcc_ex.c **** #endif /* RCC_PLLSAI1M_DIV_1_16_SUPPORT */
3029:Drivers/STM32L4xx_HAL_Driver/Src/stm32l4xx_hal_rcc_ex.c ****       }
3030:Drivers/STM32L4xx_HAL_Driver/Src/stm32l4xx_hal_rcc_ex.c ****       else if(Divider == DIVIDER_Q_UPDATE)
 5516              		.loc 1 3030 14
 5517 0128 3B68     		ldr	r3, [r7]
 5518 012a 012B     		cmp	r3, #1
 5519 012c 15D1     		bne	.L465
3031:Drivers/STM32L4xx_HAL_Driver/Src/stm32l4xx_hal_rcc_ex.c ****       {
3032:Drivers/STM32L4xx_HAL_Driver/Src/stm32l4xx_hal_rcc_ex.c ****         assert_param(IS_RCC_PLLSAI1Q_VALUE(PllSai1->PLLSAI1Q));
3033:Drivers/STM32L4xx_HAL_Driver/Src/stm32l4xx_hal_rcc_ex.c **** #if defined(RCC_PLLSAI1M_DIV_1_16_SUPPORT)
3034:Drivers/STM32L4xx_HAL_Driver/Src/stm32l4xx_hal_rcc_ex.c ****         /* Configure the PLLSAI1 Division factor M, Q and Multiplication factor N*/
3035:Drivers/STM32L4xx_HAL_Driver/Src/stm32l4xx_hal_rcc_ex.c ****         MODIFY_REG(RCC->PLLSAI1CFGR,
 5520              		.loc 1 3035 9
 5521 012e 2A4B     		ldr	r3, .L473
 5522 0130 1A69     		ldr	r2, [r3, #16]
 5523 0132 2B4B     		ldr	r3, .L473+8
 5524 0134 1340     		ands	r3, r3, r2
 5525 0136 7A68     		ldr	r2, [r7, #4]
 5526 0138 9268     		ldr	r2, [r2, #8]
 5527 013a 1102     		lsls	r1, r2, #8
 5528 013c 7A68     		ldr	r2, [r7, #4]
 5529 013e 1269     		ldr	r2, [r2, #16]
 5530 0140 5208     		lsrs	r2, r2, #1
 5531 0142 013A     		subs	r2, r2, #1
 5532 0144 5205     		lsls	r2, r2, #21
 5533 0146 1143     		orrs	r1, r1, r2
 5534 0148 7A68     		ldr	r2, [r7, #4]
 5535 014a 5268     		ldr	r2, [r2, #4]
 5536 014c 013A     		subs	r2, r2, #1
 5537 014e 1201     		lsls	r2, r2, #4
 5538 0150 0A43     		orrs	r2, r2, r1
 5539 0152 2149     		ldr	r1, .L473
 5540 0154 1343     		orrs	r3, r3, r2
 5541 0156 0B61     		str	r3, [r1, #16]
 5542 0158 14E0     		b	.L464
 5543              	.L465:
ARM GAS  C:\Users\Morroway\AppData\Local\Temp\ccOmimY8.s 			page 159


3036:Drivers/STM32L4xx_HAL_Driver/Src/stm32l4xx_hal_rcc_ex.c ****                    RCC_PLLSAI1CFGR_PLLSAI1N | RCC_PLLSAI1CFGR_PLLSAI1Q | RCC_PLLSAI1CFGR_PLLSAI1M,
3037:Drivers/STM32L4xx_HAL_Driver/Src/stm32l4xx_hal_rcc_ex.c ****                    (PllSai1->PLLSAI1N << RCC_PLLSAI1CFGR_PLLSAI1N_Pos) |
3038:Drivers/STM32L4xx_HAL_Driver/Src/stm32l4xx_hal_rcc_ex.c ****                    (((PllSai1->PLLSAI1Q >> 1U) - 1U) << RCC_PLLSAI1CFGR_PLLSAI1Q_Pos) |
3039:Drivers/STM32L4xx_HAL_Driver/Src/stm32l4xx_hal_rcc_ex.c ****                    ((PllSai1->PLLSAI1M - 1U) << RCC_PLLSAI1CFGR_PLLSAI1M_Pos));
3040:Drivers/STM32L4xx_HAL_Driver/Src/stm32l4xx_hal_rcc_ex.c **** #else
3041:Drivers/STM32L4xx_HAL_Driver/Src/stm32l4xx_hal_rcc_ex.c ****         /* Configure the PLLSAI1 Division factor Q and Multiplication factor N*/
3042:Drivers/STM32L4xx_HAL_Driver/Src/stm32l4xx_hal_rcc_ex.c ****         MODIFY_REG(RCC->PLLSAI1CFGR,
3043:Drivers/STM32L4xx_HAL_Driver/Src/stm32l4xx_hal_rcc_ex.c ****                    RCC_PLLSAI1CFGR_PLLSAI1N | RCC_PLLSAI1CFGR_PLLSAI1Q,
3044:Drivers/STM32L4xx_HAL_Driver/Src/stm32l4xx_hal_rcc_ex.c ****                    (PllSai1->PLLSAI1N << RCC_PLLSAI1CFGR_PLLSAI1N_Pos) |
3045:Drivers/STM32L4xx_HAL_Driver/Src/stm32l4xx_hal_rcc_ex.c ****                    (((PllSai1->PLLSAI1Q >> 1U) - 1U) << RCC_PLLSAI1CFGR_PLLSAI1Q_Pos));
3046:Drivers/STM32L4xx_HAL_Driver/Src/stm32l4xx_hal_rcc_ex.c **** #endif /* RCC_PLLSAI1M_DIV_1_16_SUPPORT */
3047:Drivers/STM32L4xx_HAL_Driver/Src/stm32l4xx_hal_rcc_ex.c ****       }
3048:Drivers/STM32L4xx_HAL_Driver/Src/stm32l4xx_hal_rcc_ex.c ****       else
3049:Drivers/STM32L4xx_HAL_Driver/Src/stm32l4xx_hal_rcc_ex.c ****       {
3050:Drivers/STM32L4xx_HAL_Driver/Src/stm32l4xx_hal_rcc_ex.c ****         assert_param(IS_RCC_PLLSAI1R_VALUE(PllSai1->PLLSAI1R));
3051:Drivers/STM32L4xx_HAL_Driver/Src/stm32l4xx_hal_rcc_ex.c **** #if defined(RCC_PLLSAI1M_DIV_1_16_SUPPORT)
3052:Drivers/STM32L4xx_HAL_Driver/Src/stm32l4xx_hal_rcc_ex.c ****         /* Configure the PLLSAI1 Division factor M, R and Multiplication factor N*/
3053:Drivers/STM32L4xx_HAL_Driver/Src/stm32l4xx_hal_rcc_ex.c ****         MODIFY_REG(RCC->PLLSAI1CFGR,
 5544              		.loc 1 3053 9
 5545 015a 1F4B     		ldr	r3, .L473
 5546 015c 1A69     		ldr	r2, [r3, #16]
 5547 015e 214B     		ldr	r3, .L473+12
 5548 0160 1340     		ands	r3, r3, r2
 5549 0162 7A68     		ldr	r2, [r7, #4]
 5550 0164 9268     		ldr	r2, [r2, #8]
 5551 0166 1102     		lsls	r1, r2, #8
 5552 0168 7A68     		ldr	r2, [r7, #4]
 5553 016a 5269     		ldr	r2, [r2, #20]
 5554 016c 5208     		lsrs	r2, r2, #1
 5555 016e 013A     		subs	r2, r2, #1
 5556 0170 5206     		lsls	r2, r2, #25
 5557 0172 1143     		orrs	r1, r1, r2
 5558 0174 7A68     		ldr	r2, [r7, #4]
 5559 0176 5268     		ldr	r2, [r2, #4]
 5560 0178 013A     		subs	r2, r2, #1
 5561 017a 1201     		lsls	r2, r2, #4
 5562 017c 0A43     		orrs	r2, r2, r1
 5563 017e 1649     		ldr	r1, .L473
 5564 0180 1343     		orrs	r3, r3, r2
 5565 0182 0B61     		str	r3, [r1, #16]
 5566              	.L464:
3054:Drivers/STM32L4xx_HAL_Driver/Src/stm32l4xx_hal_rcc_ex.c ****                    RCC_PLLSAI1CFGR_PLLSAI1N | RCC_PLLSAI1CFGR_PLLSAI1R | RCC_PLLSAI1CFGR_PLLSAI1M,
3055:Drivers/STM32L4xx_HAL_Driver/Src/stm32l4xx_hal_rcc_ex.c ****                    (PllSai1->PLLSAI1N << RCC_PLLSAI1CFGR_PLLSAI1N_Pos) |
3056:Drivers/STM32L4xx_HAL_Driver/Src/stm32l4xx_hal_rcc_ex.c ****                    (((PllSai1->PLLSAI1R >> 1U) - 1U) << RCC_PLLSAI1CFGR_PLLSAI1R_Pos) |
3057:Drivers/STM32L4xx_HAL_Driver/Src/stm32l4xx_hal_rcc_ex.c ****                    ((PllSai1->PLLSAI1M - 1U) << RCC_PLLSAI1CFGR_PLLSAI1M_Pos));
3058:Drivers/STM32L4xx_HAL_Driver/Src/stm32l4xx_hal_rcc_ex.c **** #else
3059:Drivers/STM32L4xx_HAL_Driver/Src/stm32l4xx_hal_rcc_ex.c ****         /* Configure the PLLSAI1 Division factor R and Multiplication factor N*/
3060:Drivers/STM32L4xx_HAL_Driver/Src/stm32l4xx_hal_rcc_ex.c ****         MODIFY_REG(RCC->PLLSAI1CFGR,
3061:Drivers/STM32L4xx_HAL_Driver/Src/stm32l4xx_hal_rcc_ex.c ****                    RCC_PLLSAI1CFGR_PLLSAI1N | RCC_PLLSAI1CFGR_PLLSAI1R,
3062:Drivers/STM32L4xx_HAL_Driver/Src/stm32l4xx_hal_rcc_ex.c ****                    (PllSai1->PLLSAI1N << RCC_PLLSAI1CFGR_PLLSAI1N_Pos) |
3063:Drivers/STM32L4xx_HAL_Driver/Src/stm32l4xx_hal_rcc_ex.c ****                    (((PllSai1->PLLSAI1R >> 1U) - 1U) << RCC_PLLSAI1CFGR_PLLSAI1R_Pos));
3064:Drivers/STM32L4xx_HAL_Driver/Src/stm32l4xx_hal_rcc_ex.c **** #endif /* RCC_PLLSAI1M_DIV_1_16_SUPPORT */
3065:Drivers/STM32L4xx_HAL_Driver/Src/stm32l4xx_hal_rcc_ex.c ****       }
3066:Drivers/STM32L4xx_HAL_Driver/Src/stm32l4xx_hal_rcc_ex.c **** 
3067:Drivers/STM32L4xx_HAL_Driver/Src/stm32l4xx_hal_rcc_ex.c ****       /* Enable the PLLSAI1 again by setting PLLSAI1ON to 1*/
3068:Drivers/STM32L4xx_HAL_Driver/Src/stm32l4xx_hal_rcc_ex.c ****       __HAL_RCC_PLLSAI1_ENABLE();
 5567              		.loc 1 3068 7
ARM GAS  C:\Users\Morroway\AppData\Local\Temp\ccOmimY8.s 			page 160


 5568 0184 144B     		ldr	r3, .L473
 5569 0186 1B68     		ldr	r3, [r3]
 5570 0188 134A     		ldr	r2, .L473
 5571 018a 43F08063 		orr	r3, r3, #67108864
 5572 018e 1360     		str	r3, [r2]
3069:Drivers/STM32L4xx_HAL_Driver/Src/stm32l4xx_hal_rcc_ex.c **** 
3070:Drivers/STM32L4xx_HAL_Driver/Src/stm32l4xx_hal_rcc_ex.c ****       /* Get Start Tick*/
3071:Drivers/STM32L4xx_HAL_Driver/Src/stm32l4xx_hal_rcc_ex.c ****       tickstart = HAL_GetTick();
 5573              		.loc 1 3071 19
 5574 0190 FFF7FEFF 		bl	HAL_GetTick
 5575 0194 B860     		str	r0, [r7, #8]
3072:Drivers/STM32L4xx_HAL_Driver/Src/stm32l4xx_hal_rcc_ex.c **** 
3073:Drivers/STM32L4xx_HAL_Driver/Src/stm32l4xx_hal_rcc_ex.c ****       /* Wait till PLLSAI1 is ready */
3074:Drivers/STM32L4xx_HAL_Driver/Src/stm32l4xx_hal_rcc_ex.c ****       while(READ_BIT(RCC->CR, RCC_CR_PLLSAI1RDY) == 0U)
 5576              		.loc 1 3074 12
 5577 0196 09E0     		b	.L466
 5578              	.L468:
3075:Drivers/STM32L4xx_HAL_Driver/Src/stm32l4xx_hal_rcc_ex.c ****       {
3076:Drivers/STM32L4xx_HAL_Driver/Src/stm32l4xx_hal_rcc_ex.c ****         if((HAL_GetTick() - tickstart) > PLLSAI1_TIMEOUT_VALUE)
 5579              		.loc 1 3076 13
 5580 0198 FFF7FEFF 		bl	HAL_GetTick
 5581 019c 0246     		mov	r2, r0
 5582              		.loc 1 3076 27
 5583 019e BB68     		ldr	r3, [r7, #8]
 5584 01a0 D31A     		subs	r3, r2, r3
 5585              		.loc 1 3076 11
 5586 01a2 022B     		cmp	r3, #2
 5587 01a4 02D9     		bls	.L466
3077:Drivers/STM32L4xx_HAL_Driver/Src/stm32l4xx_hal_rcc_ex.c ****         {
3078:Drivers/STM32L4xx_HAL_Driver/Src/stm32l4xx_hal_rcc_ex.c ****           status = HAL_TIMEOUT;
 5588              		.loc 1 3078 18
 5589 01a6 0323     		movs	r3, #3
 5590 01a8 FB73     		strb	r3, [r7, #15]
3079:Drivers/STM32L4xx_HAL_Driver/Src/stm32l4xx_hal_rcc_ex.c ****           break;
 5591              		.loc 1 3079 11
 5592 01aa 05E0     		b	.L467
 5593              	.L466:
3074:Drivers/STM32L4xx_HAL_Driver/Src/stm32l4xx_hal_rcc_ex.c ****       {
 5594              		.loc 1 3074 13
 5595 01ac 0A4B     		ldr	r3, .L473
 5596 01ae 1B68     		ldr	r3, [r3]
 5597 01b0 03F00063 		and	r3, r3, #134217728
3074:Drivers/STM32L4xx_HAL_Driver/Src/stm32l4xx_hal_rcc_ex.c ****       {
 5598              		.loc 1 3074 50
 5599 01b4 002B     		cmp	r3, #0
 5600 01b6 EFD0     		beq	.L468
 5601              	.L467:
3080:Drivers/STM32L4xx_HAL_Driver/Src/stm32l4xx_hal_rcc_ex.c ****         }
3081:Drivers/STM32L4xx_HAL_Driver/Src/stm32l4xx_hal_rcc_ex.c ****       }
3082:Drivers/STM32L4xx_HAL_Driver/Src/stm32l4xx_hal_rcc_ex.c **** 
3083:Drivers/STM32L4xx_HAL_Driver/Src/stm32l4xx_hal_rcc_ex.c ****       if(status == HAL_OK)
 5602              		.loc 1 3083 9
 5603 01b8 FB7B     		ldrb	r3, [r7, #15]	@ zero_extendqisi2
 5604 01ba 002B     		cmp	r3, #0
 5605 01bc 06D1     		bne	.L459
3084:Drivers/STM32L4xx_HAL_Driver/Src/stm32l4xx_hal_rcc_ex.c ****       {
3085:Drivers/STM32L4xx_HAL_Driver/Src/stm32l4xx_hal_rcc_ex.c ****         /* Configure the PLLSAI1 Clock output(s) */
ARM GAS  C:\Users\Morroway\AppData\Local\Temp\ccOmimY8.s 			page 161


3086:Drivers/STM32L4xx_HAL_Driver/Src/stm32l4xx_hal_rcc_ex.c ****         __HAL_RCC_PLLSAI1CLKOUT_ENABLE(PllSai1->PLLSAI1ClockOut);
 5606              		.loc 1 3086 9
 5607 01be 064B     		ldr	r3, .L473
 5608 01c0 1A69     		ldr	r2, [r3, #16]
 5609 01c2 7B68     		ldr	r3, [r7, #4]
 5610 01c4 9B69     		ldr	r3, [r3, #24]
 5611 01c6 0449     		ldr	r1, .L473
 5612 01c8 1343     		orrs	r3, r3, r2
 5613 01ca 0B61     		str	r3, [r1, #16]
 5614              	.L459:
3087:Drivers/STM32L4xx_HAL_Driver/Src/stm32l4xx_hal_rcc_ex.c ****       }
3088:Drivers/STM32L4xx_HAL_Driver/Src/stm32l4xx_hal_rcc_ex.c ****     }
3089:Drivers/STM32L4xx_HAL_Driver/Src/stm32l4xx_hal_rcc_ex.c ****   }
3090:Drivers/STM32L4xx_HAL_Driver/Src/stm32l4xx_hal_rcc_ex.c **** 
3091:Drivers/STM32L4xx_HAL_Driver/Src/stm32l4xx_hal_rcc_ex.c ****   return status;
 5615              		.loc 1 3091 10
 5616 01cc FB7B     		ldrb	r3, [r7, #15]	@ zero_extendqisi2
3092:Drivers/STM32L4xx_HAL_Driver/Src/stm32l4xx_hal_rcc_ex.c **** }
 5617              		.loc 1 3092 1
 5618 01ce 1846     		mov	r0, r3
 5619 01d0 1037     		adds	r7, r7, #16
 5620              		.cfi_def_cfa_offset 8
 5621 01d2 BD46     		mov	sp, r7
 5622              		.cfi_def_cfa_register 13
 5623              		@ sp needed
 5624 01d4 80BD     		pop	{r7, pc}
 5625              	.L474:
 5626 01d6 00BF     		.align	2
 5627              	.L473:
 5628 01d8 00100240 		.word	1073876992
 5629 01dc 0F80FF07 		.word	134184975
 5630 01e0 0F809FFF 		.word	-6324209
 5631 01e4 0F80FFF9 		.word	-100696049
 5632              		.cfi_endproc
 5633              	.LFE349:
 5635              		.section	.text.RCCEx_PLLSAI2_Config,"ax",%progbits
 5636              		.align	1
 5637              		.syntax unified
 5638              		.thumb
 5639              		.thumb_func
 5641              	RCCEx_PLLSAI2_Config:
 5642              	.LFB350:
3093:Drivers/STM32L4xx_HAL_Driver/Src/stm32l4xx_hal_rcc_ex.c **** 
3094:Drivers/STM32L4xx_HAL_Driver/Src/stm32l4xx_hal_rcc_ex.c **** #endif /* RCC_PLLSAI1_SUPPORT */
3095:Drivers/STM32L4xx_HAL_Driver/Src/stm32l4xx_hal_rcc_ex.c **** 
3096:Drivers/STM32L4xx_HAL_Driver/Src/stm32l4xx_hal_rcc_ex.c **** #if defined(RCC_PLLSAI2_SUPPORT)
3097:Drivers/STM32L4xx_HAL_Driver/Src/stm32l4xx_hal_rcc_ex.c **** 
3098:Drivers/STM32L4xx_HAL_Driver/Src/stm32l4xx_hal_rcc_ex.c **** /**
3099:Drivers/STM32L4xx_HAL_Driver/Src/stm32l4xx_hal_rcc_ex.c ****   * @brief  Configure the parameters N & P & optionally M of PLLSAI2 and enable PLLSAI2 output cloc
3100:Drivers/STM32L4xx_HAL_Driver/Src/stm32l4xx_hal_rcc_ex.c ****   * @param  PllSai2  pointer to an RCC_PLLSAI2InitTypeDef structure that
3101:Drivers/STM32L4xx_HAL_Driver/Src/stm32l4xx_hal_rcc_ex.c ****   *         contains the configuration parameters N & P & optionally M as well as PLLSAI2 output cl
3102:Drivers/STM32L4xx_HAL_Driver/Src/stm32l4xx_hal_rcc_ex.c ****   * @param  Divider  divider parameter to be updated
3103:Drivers/STM32L4xx_HAL_Driver/Src/stm32l4xx_hal_rcc_ex.c ****   *
3104:Drivers/STM32L4xx_HAL_Driver/Src/stm32l4xx_hal_rcc_ex.c ****   * @note   PLLSAI2 is temporary disable to apply new parameters
3105:Drivers/STM32L4xx_HAL_Driver/Src/stm32l4xx_hal_rcc_ex.c ****   *
3106:Drivers/STM32L4xx_HAL_Driver/Src/stm32l4xx_hal_rcc_ex.c ****   * @retval HAL status
3107:Drivers/STM32L4xx_HAL_Driver/Src/stm32l4xx_hal_rcc_ex.c ****   */
ARM GAS  C:\Users\Morroway\AppData\Local\Temp\ccOmimY8.s 			page 162


3108:Drivers/STM32L4xx_HAL_Driver/Src/stm32l4xx_hal_rcc_ex.c **** static HAL_StatusTypeDef RCCEx_PLLSAI2_Config(RCC_PLLSAI2InitTypeDef *PllSai2, uint32_t Divider)
3109:Drivers/STM32L4xx_HAL_Driver/Src/stm32l4xx_hal_rcc_ex.c **** {
 5643              		.loc 1 3109 1
 5644              		.cfi_startproc
 5645              		@ args = 0, pretend = 0, frame = 16
 5646              		@ frame_needed = 1, uses_anonymous_args = 0
 5647 0000 80B5     		push	{r7, lr}
 5648              		.cfi_def_cfa_offset 8
 5649              		.cfi_offset 7, -8
 5650              		.cfi_offset 14, -4
 5651 0002 84B0     		sub	sp, sp, #16
 5652              		.cfi_def_cfa_offset 24
 5653 0004 00AF     		add	r7, sp, #0
 5654              		.cfi_def_cfa_register 7
 5655 0006 7860     		str	r0, [r7, #4]
 5656 0008 3960     		str	r1, [r7]
3110:Drivers/STM32L4xx_HAL_Driver/Src/stm32l4xx_hal_rcc_ex.c ****   uint32_t tickstart;
3111:Drivers/STM32L4xx_HAL_Driver/Src/stm32l4xx_hal_rcc_ex.c ****   HAL_StatusTypeDef status = HAL_OK;
 5657              		.loc 1 3111 21
 5658 000a 0023     		movs	r3, #0
 5659 000c FB73     		strb	r3, [r7, #15]
3112:Drivers/STM32L4xx_HAL_Driver/Src/stm32l4xx_hal_rcc_ex.c **** 
3113:Drivers/STM32L4xx_HAL_Driver/Src/stm32l4xx_hal_rcc_ex.c ****   /* check for PLLSAI2 Parameters used to output PLLSAI2CLK */
3114:Drivers/STM32L4xx_HAL_Driver/Src/stm32l4xx_hal_rcc_ex.c ****   /* P, Q and R dividers are verified in each specific divider case below */
3115:Drivers/STM32L4xx_HAL_Driver/Src/stm32l4xx_hal_rcc_ex.c ****   assert_param(IS_RCC_PLLSAI2SOURCE(PllSai2->PLLSAI2Source));
3116:Drivers/STM32L4xx_HAL_Driver/Src/stm32l4xx_hal_rcc_ex.c ****   assert_param(IS_RCC_PLLSAI2M_VALUE(PllSai2->PLLSAI2M));
3117:Drivers/STM32L4xx_HAL_Driver/Src/stm32l4xx_hal_rcc_ex.c ****   assert_param(IS_RCC_PLLSAI2N_VALUE(PllSai2->PLLSAI2N));
3118:Drivers/STM32L4xx_HAL_Driver/Src/stm32l4xx_hal_rcc_ex.c ****   assert_param(IS_RCC_PLLSAI2CLOCKOUT_VALUE(PllSai2->PLLSAI2ClockOut));
3119:Drivers/STM32L4xx_HAL_Driver/Src/stm32l4xx_hal_rcc_ex.c **** 
3120:Drivers/STM32L4xx_HAL_Driver/Src/stm32l4xx_hal_rcc_ex.c ****   /* Check that PLLSAI2 clock source and divider M can be applied */
3121:Drivers/STM32L4xx_HAL_Driver/Src/stm32l4xx_hal_rcc_ex.c ****   if(__HAL_RCC_GET_PLL_OSCSOURCE() != RCC_PLLSOURCE_NONE)
 5660              		.loc 1 3121 6
 5661 000e 724B     		ldr	r3, .L501
 5662 0010 DB68     		ldr	r3, [r3, #12]
 5663 0012 03F00303 		and	r3, r3, #3
 5664              		.loc 1 3121 5
 5665 0016 002B     		cmp	r3, #0
 5666 0018 0ED0     		beq	.L476
3122:Drivers/STM32L4xx_HAL_Driver/Src/stm32l4xx_hal_rcc_ex.c ****   {
3123:Drivers/STM32L4xx_HAL_Driver/Src/stm32l4xx_hal_rcc_ex.c ****     /* PLL clock source and divider M already set, check that no request for change  */
3124:Drivers/STM32L4xx_HAL_Driver/Src/stm32l4xx_hal_rcc_ex.c ****     if((__HAL_RCC_GET_PLL_OSCSOURCE() != PllSai2->PLLSAI2Source)
 5667              		.loc 1 3124 9
 5668 001a 6F4B     		ldr	r3, .L501
 5669 001c DB68     		ldr	r3, [r3, #12]
 5670 001e 03F00302 		and	r2, r3, #3
 5671              		.loc 1 3124 49
 5672 0022 7B68     		ldr	r3, [r7, #4]
 5673 0024 1B68     		ldr	r3, [r3]
 5674              		.loc 1 3124 7
 5675 0026 9A42     		cmp	r2, r3
 5676 0028 03D1     		bne	.L477
3125:Drivers/STM32L4xx_HAL_Driver/Src/stm32l4xx_hal_rcc_ex.c ****        ||
3126:Drivers/STM32L4xx_HAL_Driver/Src/stm32l4xx_hal_rcc_ex.c ****        (PllSai2->PLLSAI2Source == RCC_PLLSOURCE_NONE)
 5677              		.loc 1 3126 16
 5678 002a 7B68     		ldr	r3, [r7, #4]
 5679 002c 1B68     		ldr	r3, [r3]
3125:Drivers/STM32L4xx_HAL_Driver/Src/stm32l4xx_hal_rcc_ex.c ****        ||
ARM GAS  C:\Users\Morroway\AppData\Local\Temp\ccOmimY8.s 			page 163


 5680              		.loc 1 3125 8
 5681 002e 002B     		cmp	r3, #0
 5682 0030 42D1     		bne	.L478
 5683              	.L477:
3127:Drivers/STM32L4xx_HAL_Driver/Src/stm32l4xx_hal_rcc_ex.c **** #if !defined(RCC_PLLSAI2M_DIV_1_16_SUPPORT)
3128:Drivers/STM32L4xx_HAL_Driver/Src/stm32l4xx_hal_rcc_ex.c ****        ||
3129:Drivers/STM32L4xx_HAL_Driver/Src/stm32l4xx_hal_rcc_ex.c ****        (((READ_BIT(RCC->PLLCFGR, RCC_PLLCFGR_PLLM) >> RCC_PLLCFGR_PLLM_Pos) + 1U) != PllSai2->PLLSA
3130:Drivers/STM32L4xx_HAL_Driver/Src/stm32l4xx_hal_rcc_ex.c **** #endif
3131:Drivers/STM32L4xx_HAL_Driver/Src/stm32l4xx_hal_rcc_ex.c ****       )
3132:Drivers/STM32L4xx_HAL_Driver/Src/stm32l4xx_hal_rcc_ex.c ****     {
3133:Drivers/STM32L4xx_HAL_Driver/Src/stm32l4xx_hal_rcc_ex.c ****       status = HAL_ERROR;
 5684              		.loc 1 3133 14
 5685 0032 0123     		movs	r3, #1
 5686 0034 FB73     		strb	r3, [r7, #15]
 5687 0036 3FE0     		b	.L478
 5688              	.L476:
3134:Drivers/STM32L4xx_HAL_Driver/Src/stm32l4xx_hal_rcc_ex.c ****     }
3135:Drivers/STM32L4xx_HAL_Driver/Src/stm32l4xx_hal_rcc_ex.c ****   }
3136:Drivers/STM32L4xx_HAL_Driver/Src/stm32l4xx_hal_rcc_ex.c ****   else
3137:Drivers/STM32L4xx_HAL_Driver/Src/stm32l4xx_hal_rcc_ex.c ****   {
3138:Drivers/STM32L4xx_HAL_Driver/Src/stm32l4xx_hal_rcc_ex.c ****     /* Check PLLSAI2 clock source availability */
3139:Drivers/STM32L4xx_HAL_Driver/Src/stm32l4xx_hal_rcc_ex.c ****     switch(PllSai2->PLLSAI2Source)
 5689              		.loc 1 3139 19
 5690 0038 7B68     		ldr	r3, [r7, #4]
 5691 003a 1B68     		ldr	r3, [r3]
 5692              		.loc 1 3139 5
 5693 003c 032B     		cmp	r3, #3
 5694 003e 18D0     		beq	.L479
 5695 0040 032B     		cmp	r3, #3
 5696 0042 25D8     		bhi	.L480
 5697 0044 012B     		cmp	r3, #1
 5698 0046 02D0     		beq	.L481
 5699 0048 022B     		cmp	r3, #2
 5700 004a 09D0     		beq	.L482
 5701 004c 20E0     		b	.L480
 5702              	.L481:
3140:Drivers/STM32L4xx_HAL_Driver/Src/stm32l4xx_hal_rcc_ex.c ****     {
3141:Drivers/STM32L4xx_HAL_Driver/Src/stm32l4xx_hal_rcc_ex.c ****     case RCC_PLLSOURCE_MSI:
3142:Drivers/STM32L4xx_HAL_Driver/Src/stm32l4xx_hal_rcc_ex.c ****       if(HAL_IS_BIT_CLR(RCC->CR, RCC_CR_MSIRDY))
 5703              		.loc 1 3142 10
 5704 004e 624B     		ldr	r3, .L501
 5705 0050 1B68     		ldr	r3, [r3]
 5706 0052 03F00203 		and	r3, r3, #2
 5707              		.loc 1 3142 9
 5708 0056 002B     		cmp	r3, #0
 5709 0058 1DD1     		bne	.L498
3143:Drivers/STM32L4xx_HAL_Driver/Src/stm32l4xx_hal_rcc_ex.c ****       {
3144:Drivers/STM32L4xx_HAL_Driver/Src/stm32l4xx_hal_rcc_ex.c ****         status = HAL_ERROR;
 5710              		.loc 1 3144 16
 5711 005a 0123     		movs	r3, #1
 5712 005c FB73     		strb	r3, [r7, #15]
3145:Drivers/STM32L4xx_HAL_Driver/Src/stm32l4xx_hal_rcc_ex.c ****       }
3146:Drivers/STM32L4xx_HAL_Driver/Src/stm32l4xx_hal_rcc_ex.c ****       break;
 5713              		.loc 1 3146 7
 5714 005e 1AE0     		b	.L498
 5715              	.L482:
3147:Drivers/STM32L4xx_HAL_Driver/Src/stm32l4xx_hal_rcc_ex.c ****     case RCC_PLLSOURCE_HSI:
ARM GAS  C:\Users\Morroway\AppData\Local\Temp\ccOmimY8.s 			page 164


3148:Drivers/STM32L4xx_HAL_Driver/Src/stm32l4xx_hal_rcc_ex.c ****       if(HAL_IS_BIT_CLR(RCC->CR, RCC_CR_HSIRDY))
 5716              		.loc 1 3148 10
 5717 0060 5D4B     		ldr	r3, .L501
 5718 0062 1B68     		ldr	r3, [r3]
 5719 0064 03F48063 		and	r3, r3, #1024
 5720              		.loc 1 3148 9
 5721 0068 002B     		cmp	r3, #0
 5722 006a 16D1     		bne	.L499
3149:Drivers/STM32L4xx_HAL_Driver/Src/stm32l4xx_hal_rcc_ex.c ****       {
3150:Drivers/STM32L4xx_HAL_Driver/Src/stm32l4xx_hal_rcc_ex.c ****         status = HAL_ERROR;
 5723              		.loc 1 3150 16
 5724 006c 0123     		movs	r3, #1
 5725 006e FB73     		strb	r3, [r7, #15]
3151:Drivers/STM32L4xx_HAL_Driver/Src/stm32l4xx_hal_rcc_ex.c ****       }
3152:Drivers/STM32L4xx_HAL_Driver/Src/stm32l4xx_hal_rcc_ex.c ****       break;
 5726              		.loc 1 3152 7
 5727 0070 13E0     		b	.L499
 5728              	.L479:
3153:Drivers/STM32L4xx_HAL_Driver/Src/stm32l4xx_hal_rcc_ex.c ****     case RCC_PLLSOURCE_HSE:
3154:Drivers/STM32L4xx_HAL_Driver/Src/stm32l4xx_hal_rcc_ex.c ****       if(HAL_IS_BIT_CLR(RCC->CR, RCC_CR_HSERDY))
 5729              		.loc 1 3154 10
 5730 0072 594B     		ldr	r3, .L501
 5731 0074 1B68     		ldr	r3, [r3]
 5732 0076 03F40033 		and	r3, r3, #131072
 5733              		.loc 1 3154 9
 5734 007a 002B     		cmp	r3, #0
 5735 007c 0FD1     		bne	.L500
3155:Drivers/STM32L4xx_HAL_Driver/Src/stm32l4xx_hal_rcc_ex.c ****       {
3156:Drivers/STM32L4xx_HAL_Driver/Src/stm32l4xx_hal_rcc_ex.c ****         if(HAL_IS_BIT_CLR(RCC->CR, RCC_CR_HSEBYP))
 5736              		.loc 1 3156 12
 5737 007e 564B     		ldr	r3, .L501
 5738 0080 1B68     		ldr	r3, [r3]
 5739 0082 03F48023 		and	r3, r3, #262144
 5740              		.loc 1 3156 11
 5741 0086 002B     		cmp	r3, #0
 5742 0088 09D1     		bne	.L500
3157:Drivers/STM32L4xx_HAL_Driver/Src/stm32l4xx_hal_rcc_ex.c ****         {
3158:Drivers/STM32L4xx_HAL_Driver/Src/stm32l4xx_hal_rcc_ex.c ****           status = HAL_ERROR;
 5743              		.loc 1 3158 18
 5744 008a 0123     		movs	r3, #1
 5745 008c FB73     		strb	r3, [r7, #15]
3159:Drivers/STM32L4xx_HAL_Driver/Src/stm32l4xx_hal_rcc_ex.c ****         }
3160:Drivers/STM32L4xx_HAL_Driver/Src/stm32l4xx_hal_rcc_ex.c ****       }
3161:Drivers/STM32L4xx_HAL_Driver/Src/stm32l4xx_hal_rcc_ex.c ****       break;
 5746              		.loc 1 3161 7
 5747 008e 06E0     		b	.L500
 5748              	.L480:
3162:Drivers/STM32L4xx_HAL_Driver/Src/stm32l4xx_hal_rcc_ex.c ****     default:
3163:Drivers/STM32L4xx_HAL_Driver/Src/stm32l4xx_hal_rcc_ex.c ****       status = HAL_ERROR;
 5749              		.loc 1 3163 14
 5750 0090 0123     		movs	r3, #1
 5751 0092 FB73     		strb	r3, [r7, #15]
3164:Drivers/STM32L4xx_HAL_Driver/Src/stm32l4xx_hal_rcc_ex.c ****       break;
 5752              		.loc 1 3164 7
 5753 0094 04E0     		b	.L484
 5754              	.L498:
3146:Drivers/STM32L4xx_HAL_Driver/Src/stm32l4xx_hal_rcc_ex.c ****     case RCC_PLLSOURCE_HSI:
ARM GAS  C:\Users\Morroway\AppData\Local\Temp\ccOmimY8.s 			page 165


 5755              		.loc 1 3146 7
 5756 0096 00BF     		nop
 5757 0098 02E0     		b	.L484
 5758              	.L499:
3152:Drivers/STM32L4xx_HAL_Driver/Src/stm32l4xx_hal_rcc_ex.c ****     case RCC_PLLSOURCE_HSE:
 5759              		.loc 1 3152 7
 5760 009a 00BF     		nop
 5761 009c 00E0     		b	.L484
 5762              	.L500:
3161:Drivers/STM32L4xx_HAL_Driver/Src/stm32l4xx_hal_rcc_ex.c ****     default:
 5763              		.loc 1 3161 7
 5764 009e 00BF     		nop
 5765              	.L484:
3165:Drivers/STM32L4xx_HAL_Driver/Src/stm32l4xx_hal_rcc_ex.c ****     }
3166:Drivers/STM32L4xx_HAL_Driver/Src/stm32l4xx_hal_rcc_ex.c **** 
3167:Drivers/STM32L4xx_HAL_Driver/Src/stm32l4xx_hal_rcc_ex.c ****     if(status == HAL_OK)
 5766              		.loc 1 3167 7
 5767 00a0 FB7B     		ldrb	r3, [r7, #15]	@ zero_extendqisi2
 5768 00a2 002B     		cmp	r3, #0
 5769 00a4 08D1     		bne	.L478
3168:Drivers/STM32L4xx_HAL_Driver/Src/stm32l4xx_hal_rcc_ex.c ****     {
3169:Drivers/STM32L4xx_HAL_Driver/Src/stm32l4xx_hal_rcc_ex.c **** #if defined(RCC_PLLSAI2M_DIV_1_16_SUPPORT)
3170:Drivers/STM32L4xx_HAL_Driver/Src/stm32l4xx_hal_rcc_ex.c ****       /* Set PLLSAI2 clock source */
3171:Drivers/STM32L4xx_HAL_Driver/Src/stm32l4xx_hal_rcc_ex.c ****       MODIFY_REG(RCC->PLLCFGR, RCC_PLLCFGR_PLLSRC, PllSai2->PLLSAI2Source);
 5770              		.loc 1 3171 7
 5771 00a6 4C4B     		ldr	r3, .L501
 5772 00a8 DB68     		ldr	r3, [r3, #12]
 5773 00aa 23F00302 		bic	r2, r3, #3
 5774 00ae 7B68     		ldr	r3, [r7, #4]
 5775 00b0 1B68     		ldr	r3, [r3]
 5776 00b2 4949     		ldr	r1, .L501
 5777 00b4 1343     		orrs	r3, r3, r2
 5778 00b6 CB60     		str	r3, [r1, #12]
 5779              	.L478:
3172:Drivers/STM32L4xx_HAL_Driver/Src/stm32l4xx_hal_rcc_ex.c **** #else
3173:Drivers/STM32L4xx_HAL_Driver/Src/stm32l4xx_hal_rcc_ex.c ****       /* Set PLLSAI2 clock source and divider M */
3174:Drivers/STM32L4xx_HAL_Driver/Src/stm32l4xx_hal_rcc_ex.c ****       MODIFY_REG(RCC->PLLCFGR, RCC_PLLCFGR_PLLSRC | RCC_PLLCFGR_PLLM, PllSai2->PLLSAI2Source | (Pll
3175:Drivers/STM32L4xx_HAL_Driver/Src/stm32l4xx_hal_rcc_ex.c **** #endif
3176:Drivers/STM32L4xx_HAL_Driver/Src/stm32l4xx_hal_rcc_ex.c ****     }
3177:Drivers/STM32L4xx_HAL_Driver/Src/stm32l4xx_hal_rcc_ex.c ****   }
3178:Drivers/STM32L4xx_HAL_Driver/Src/stm32l4xx_hal_rcc_ex.c **** 
3179:Drivers/STM32L4xx_HAL_Driver/Src/stm32l4xx_hal_rcc_ex.c ****   if(status == HAL_OK)
 5780              		.loc 1 3179 5
 5781 00b8 FB7B     		ldrb	r3, [r7, #15]	@ zero_extendqisi2
 5782 00ba 002B     		cmp	r3, #0
 5783 00bc 40F08680 		bne	.L487
3180:Drivers/STM32L4xx_HAL_Driver/Src/stm32l4xx_hal_rcc_ex.c ****   {
3181:Drivers/STM32L4xx_HAL_Driver/Src/stm32l4xx_hal_rcc_ex.c ****     /* Disable the PLLSAI2 */
3182:Drivers/STM32L4xx_HAL_Driver/Src/stm32l4xx_hal_rcc_ex.c ****     __HAL_RCC_PLLSAI2_DISABLE();
 5784              		.loc 1 3182 5
 5785 00c0 454B     		ldr	r3, .L501
 5786 00c2 1B68     		ldr	r3, [r3]
 5787 00c4 444A     		ldr	r2, .L501
 5788 00c6 23F08053 		bic	r3, r3, #268435456
 5789 00ca 1360     		str	r3, [r2]
3183:Drivers/STM32L4xx_HAL_Driver/Src/stm32l4xx_hal_rcc_ex.c **** 
3184:Drivers/STM32L4xx_HAL_Driver/Src/stm32l4xx_hal_rcc_ex.c ****     /* Get Start Tick*/
ARM GAS  C:\Users\Morroway\AppData\Local\Temp\ccOmimY8.s 			page 166


3185:Drivers/STM32L4xx_HAL_Driver/Src/stm32l4xx_hal_rcc_ex.c ****     tickstart = HAL_GetTick();
 5790              		.loc 1 3185 17
 5791 00cc FFF7FEFF 		bl	HAL_GetTick
 5792 00d0 B860     		str	r0, [r7, #8]
3186:Drivers/STM32L4xx_HAL_Driver/Src/stm32l4xx_hal_rcc_ex.c **** 
3187:Drivers/STM32L4xx_HAL_Driver/Src/stm32l4xx_hal_rcc_ex.c ****     /* Wait till PLLSAI2 is ready to be updated */
3188:Drivers/STM32L4xx_HAL_Driver/Src/stm32l4xx_hal_rcc_ex.c ****     while(READ_BIT(RCC->CR, RCC_CR_PLLSAI2RDY) != 0U)
 5793              		.loc 1 3188 10
 5794 00d2 09E0     		b	.L488
 5795              	.L490:
3189:Drivers/STM32L4xx_HAL_Driver/Src/stm32l4xx_hal_rcc_ex.c ****     {
3190:Drivers/STM32L4xx_HAL_Driver/Src/stm32l4xx_hal_rcc_ex.c ****       if((HAL_GetTick() - tickstart) > PLLSAI2_TIMEOUT_VALUE)
 5796              		.loc 1 3190 11
 5797 00d4 FFF7FEFF 		bl	HAL_GetTick
 5798 00d8 0246     		mov	r2, r0
 5799              		.loc 1 3190 25
 5800 00da BB68     		ldr	r3, [r7, #8]
 5801 00dc D31A     		subs	r3, r2, r3
 5802              		.loc 1 3190 9
 5803 00de 022B     		cmp	r3, #2
 5804 00e0 02D9     		bls	.L488
3191:Drivers/STM32L4xx_HAL_Driver/Src/stm32l4xx_hal_rcc_ex.c ****       {
3192:Drivers/STM32L4xx_HAL_Driver/Src/stm32l4xx_hal_rcc_ex.c ****         status = HAL_TIMEOUT;
 5805              		.loc 1 3192 16
 5806 00e2 0323     		movs	r3, #3
 5807 00e4 FB73     		strb	r3, [r7, #15]
3193:Drivers/STM32L4xx_HAL_Driver/Src/stm32l4xx_hal_rcc_ex.c ****         break;
 5808              		.loc 1 3193 9
 5809 00e6 05E0     		b	.L489
 5810              	.L488:
3188:Drivers/STM32L4xx_HAL_Driver/Src/stm32l4xx_hal_rcc_ex.c ****     {
 5811              		.loc 1 3188 11
 5812 00e8 3B4B     		ldr	r3, .L501
 5813 00ea 1B68     		ldr	r3, [r3]
 5814 00ec 03F00053 		and	r3, r3, #536870912
3188:Drivers/STM32L4xx_HAL_Driver/Src/stm32l4xx_hal_rcc_ex.c ****     {
 5815              		.loc 1 3188 48
 5816 00f0 002B     		cmp	r3, #0
 5817 00f2 EFD1     		bne	.L490
 5818              	.L489:
3194:Drivers/STM32L4xx_HAL_Driver/Src/stm32l4xx_hal_rcc_ex.c ****       }
3195:Drivers/STM32L4xx_HAL_Driver/Src/stm32l4xx_hal_rcc_ex.c ****     }
3196:Drivers/STM32L4xx_HAL_Driver/Src/stm32l4xx_hal_rcc_ex.c **** 
3197:Drivers/STM32L4xx_HAL_Driver/Src/stm32l4xx_hal_rcc_ex.c ****     if(status == HAL_OK)
 5819              		.loc 1 3197 7
 5820 00f4 FB7B     		ldrb	r3, [r7, #15]	@ zero_extendqisi2
 5821 00f6 002B     		cmp	r3, #0
 5822 00f8 68D1     		bne	.L487
3198:Drivers/STM32L4xx_HAL_Driver/Src/stm32l4xx_hal_rcc_ex.c ****     {
3199:Drivers/STM32L4xx_HAL_Driver/Src/stm32l4xx_hal_rcc_ex.c ****       if(Divider == DIVIDER_P_UPDATE)
 5823              		.loc 1 3199 9
 5824 00fa 3B68     		ldr	r3, [r7]
 5825 00fc 002B     		cmp	r3, #0
 5826 00fe 13D1     		bne	.L491
3200:Drivers/STM32L4xx_HAL_Driver/Src/stm32l4xx_hal_rcc_ex.c ****       {
3201:Drivers/STM32L4xx_HAL_Driver/Src/stm32l4xx_hal_rcc_ex.c ****         assert_param(IS_RCC_PLLSAI2P_VALUE(PllSai2->PLLSAI2P));
3202:Drivers/STM32L4xx_HAL_Driver/Src/stm32l4xx_hal_rcc_ex.c **** #if defined(RCC_PLLSAI2M_DIV_1_16_SUPPORT)
ARM GAS  C:\Users\Morroway\AppData\Local\Temp\ccOmimY8.s 			page 167


3203:Drivers/STM32L4xx_HAL_Driver/Src/stm32l4xx_hal_rcc_ex.c **** 
3204:Drivers/STM32L4xx_HAL_Driver/Src/stm32l4xx_hal_rcc_ex.c ****         /* Configure the PLLSAI2 Division factor M, P and Multiplication factor N*/
3205:Drivers/STM32L4xx_HAL_Driver/Src/stm32l4xx_hal_rcc_ex.c **** #if defined(RCC_PLLSAI2P_DIV_2_31_SUPPORT)
3206:Drivers/STM32L4xx_HAL_Driver/Src/stm32l4xx_hal_rcc_ex.c ****         MODIFY_REG(RCC->PLLSAI2CFGR,
 5827              		.loc 1 3206 9
 5828 0100 354B     		ldr	r3, .L501
 5829 0102 5A69     		ldr	r2, [r3, #20]
 5830 0104 354B     		ldr	r3, .L501+4
 5831 0106 1340     		ands	r3, r3, r2
 5832 0108 7A68     		ldr	r2, [r7, #4]
 5833 010a 9268     		ldr	r2, [r2, #8]
 5834 010c 1102     		lsls	r1, r2, #8
 5835 010e 7A68     		ldr	r2, [r7, #4]
 5836 0110 D268     		ldr	r2, [r2, #12]
 5837 0112 D206     		lsls	r2, r2, #27
 5838 0114 1143     		orrs	r1, r1, r2
 5839 0116 7A68     		ldr	r2, [r7, #4]
 5840 0118 5268     		ldr	r2, [r2, #4]
 5841 011a 013A     		subs	r2, r2, #1
 5842 011c 1201     		lsls	r2, r2, #4
 5843 011e 0A43     		orrs	r2, r2, r1
 5844 0120 2D49     		ldr	r1, .L501
 5845 0122 1343     		orrs	r3, r3, r2
 5846 0124 4B61     		str	r3, [r1, #20]
 5847 0126 2DE0     		b	.L492
 5848              	.L491:
3207:Drivers/STM32L4xx_HAL_Driver/Src/stm32l4xx_hal_rcc_ex.c ****                    RCC_PLLSAI2CFGR_PLLSAI2N | RCC_PLLSAI2CFGR_PLLSAI2PDIV | RCC_PLLSAI2CFGR_PLLSAI2
3208:Drivers/STM32L4xx_HAL_Driver/Src/stm32l4xx_hal_rcc_ex.c ****                    (PllSai2->PLLSAI2N << RCC_PLLSAI2CFGR_PLLSAI2N_Pos) |
3209:Drivers/STM32L4xx_HAL_Driver/Src/stm32l4xx_hal_rcc_ex.c ****                    (PllSai2->PLLSAI2P << RCC_PLLSAI2CFGR_PLLSAI2PDIV_Pos) |
3210:Drivers/STM32L4xx_HAL_Driver/Src/stm32l4xx_hal_rcc_ex.c ****                    ((PllSai2->PLLSAI2M - 1U) << RCC_PLLSAI2CFGR_PLLSAI2M_Pos));
3211:Drivers/STM32L4xx_HAL_Driver/Src/stm32l4xx_hal_rcc_ex.c **** #else
3212:Drivers/STM32L4xx_HAL_Driver/Src/stm32l4xx_hal_rcc_ex.c ****         MODIFY_REG(RCC->PLLSAI2CFGR,
3213:Drivers/STM32L4xx_HAL_Driver/Src/stm32l4xx_hal_rcc_ex.c ****                    RCC_PLLSAI2CFGR_PLLSAI2N | RCC_PLLSAI2CFGR_PLLSAI2P | RCC_PLLSAI2CFGR_PLLSAI2M,
3214:Drivers/STM32L4xx_HAL_Driver/Src/stm32l4xx_hal_rcc_ex.c ****                    (PllSai2->PLLSAI2N << RCC_PLLSAI2CFGR_PLLSAI2N_Pos) |
3215:Drivers/STM32L4xx_HAL_Driver/Src/stm32l4xx_hal_rcc_ex.c ****                    ((PllSai2->PLLSAI2P >> 4U) << RCC_PLLSAI2CFGR_PLLSAI2P_Pos) |
3216:Drivers/STM32L4xx_HAL_Driver/Src/stm32l4xx_hal_rcc_ex.c ****                    ((PllSai2->PLLSAI2M - 1U) << RCC_PLLSAI2CFGR_PLLSAI2M_Pos));
3217:Drivers/STM32L4xx_HAL_Driver/Src/stm32l4xx_hal_rcc_ex.c **** #endif /* RCC_PLLSAI2P_DIV_2_31_SUPPORT */
3218:Drivers/STM32L4xx_HAL_Driver/Src/stm32l4xx_hal_rcc_ex.c **** 
3219:Drivers/STM32L4xx_HAL_Driver/Src/stm32l4xx_hal_rcc_ex.c **** #else
3220:Drivers/STM32L4xx_HAL_Driver/Src/stm32l4xx_hal_rcc_ex.c ****         /* Configure the PLLSAI2 Division factor P and Multiplication factor N*/
3221:Drivers/STM32L4xx_HAL_Driver/Src/stm32l4xx_hal_rcc_ex.c **** #if defined(RCC_PLLSAI2P_DIV_2_31_SUPPORT)
3222:Drivers/STM32L4xx_HAL_Driver/Src/stm32l4xx_hal_rcc_ex.c ****         MODIFY_REG(RCC->PLLSAI2CFGR,
3223:Drivers/STM32L4xx_HAL_Driver/Src/stm32l4xx_hal_rcc_ex.c ****                    RCC_PLLSAI2CFGR_PLLSAI2N | RCC_PLLSAI2CFGR_PLLSAI2PDIV,
3224:Drivers/STM32L4xx_HAL_Driver/Src/stm32l4xx_hal_rcc_ex.c ****                    (PllSai2->PLLSAI2N << RCC_PLLSAI2CFGR_PLLSAI2N_Pos) |
3225:Drivers/STM32L4xx_HAL_Driver/Src/stm32l4xx_hal_rcc_ex.c ****                    (PllSai2->PLLSAI2P << RCC_PLLSAI2CFGR_PLLSAI2PDIV_Pos));
3226:Drivers/STM32L4xx_HAL_Driver/Src/stm32l4xx_hal_rcc_ex.c **** #else
3227:Drivers/STM32L4xx_HAL_Driver/Src/stm32l4xx_hal_rcc_ex.c ****         MODIFY_REG(RCC->PLLSAI2CFGR,
3228:Drivers/STM32L4xx_HAL_Driver/Src/stm32l4xx_hal_rcc_ex.c ****                    RCC_PLLSAI2CFGR_PLLSAI2N | RCC_PLLSAI2CFGR_PLLSAI2P,
3229:Drivers/STM32L4xx_HAL_Driver/Src/stm32l4xx_hal_rcc_ex.c ****                    (PllSai2->PLLSAI2N << RCC_PLLSAI2CFGR_PLLSAI2N_Pos) |
3230:Drivers/STM32L4xx_HAL_Driver/Src/stm32l4xx_hal_rcc_ex.c ****                    ((PllSai2->PLLSAI2P >> 4U) << RCC_PLLSAI2CFGR_PLLSAI2P_Pos));
3231:Drivers/STM32L4xx_HAL_Driver/Src/stm32l4xx_hal_rcc_ex.c **** #endif /* RCC_PLLSAI2P_DIV_2_31_SUPPORT */
3232:Drivers/STM32L4xx_HAL_Driver/Src/stm32l4xx_hal_rcc_ex.c **** 
3233:Drivers/STM32L4xx_HAL_Driver/Src/stm32l4xx_hal_rcc_ex.c **** #endif /* RCC_PLLSAI2M_DIV_1_16_SUPPORT */
3234:Drivers/STM32L4xx_HAL_Driver/Src/stm32l4xx_hal_rcc_ex.c ****       }
3235:Drivers/STM32L4xx_HAL_Driver/Src/stm32l4xx_hal_rcc_ex.c **** #if defined(RCC_PLLSAI2Q_DIV_SUPPORT)
3236:Drivers/STM32L4xx_HAL_Driver/Src/stm32l4xx_hal_rcc_ex.c ****       else if(Divider == DIVIDER_Q_UPDATE)
 5849              		.loc 1 3236 14
ARM GAS  C:\Users\Morroway\AppData\Local\Temp\ccOmimY8.s 			page 168


 5850 0128 3B68     		ldr	r3, [r7]
 5851 012a 012B     		cmp	r3, #1
 5852 012c 15D1     		bne	.L493
3237:Drivers/STM32L4xx_HAL_Driver/Src/stm32l4xx_hal_rcc_ex.c ****       {
3238:Drivers/STM32L4xx_HAL_Driver/Src/stm32l4xx_hal_rcc_ex.c ****         assert_param(IS_RCC_PLLSAI2Q_VALUE(PllSai2->PLLSAI2Q));
3239:Drivers/STM32L4xx_HAL_Driver/Src/stm32l4xx_hal_rcc_ex.c **** #if defined(RCC_PLLSAI2M_DIV_1_16_SUPPORT)
3240:Drivers/STM32L4xx_HAL_Driver/Src/stm32l4xx_hal_rcc_ex.c ****         /* Configure the PLLSAI2 Division factor M, Q and Multiplication factor N*/
3241:Drivers/STM32L4xx_HAL_Driver/Src/stm32l4xx_hal_rcc_ex.c ****         MODIFY_REG(RCC->PLLSAI2CFGR,
 5853              		.loc 1 3241 9
 5854 012e 2A4B     		ldr	r3, .L501
 5855 0130 5A69     		ldr	r2, [r3, #20]
 5856 0132 2B4B     		ldr	r3, .L501+8
 5857 0134 1340     		ands	r3, r3, r2
 5858 0136 7A68     		ldr	r2, [r7, #4]
 5859 0138 9268     		ldr	r2, [r2, #8]
 5860 013a 1102     		lsls	r1, r2, #8
 5861 013c 7A68     		ldr	r2, [r7, #4]
 5862 013e 1269     		ldr	r2, [r2, #16]
 5863 0140 5208     		lsrs	r2, r2, #1
 5864 0142 013A     		subs	r2, r2, #1
 5865 0144 5205     		lsls	r2, r2, #21
 5866 0146 1143     		orrs	r1, r1, r2
 5867 0148 7A68     		ldr	r2, [r7, #4]
 5868 014a 5268     		ldr	r2, [r2, #4]
 5869 014c 013A     		subs	r2, r2, #1
 5870 014e 1201     		lsls	r2, r2, #4
 5871 0150 0A43     		orrs	r2, r2, r1
 5872 0152 2149     		ldr	r1, .L501
 5873 0154 1343     		orrs	r3, r3, r2
 5874 0156 4B61     		str	r3, [r1, #20]
 5875 0158 14E0     		b	.L492
 5876              	.L493:
3242:Drivers/STM32L4xx_HAL_Driver/Src/stm32l4xx_hal_rcc_ex.c ****                    RCC_PLLSAI2CFGR_PLLSAI2N | RCC_PLLSAI2CFGR_PLLSAI2Q | RCC_PLLSAI2CFGR_PLLSAI2M,
3243:Drivers/STM32L4xx_HAL_Driver/Src/stm32l4xx_hal_rcc_ex.c ****                    (PllSai2->PLLSAI2N << RCC_PLLSAI2CFGR_PLLSAI2N_Pos) |
3244:Drivers/STM32L4xx_HAL_Driver/Src/stm32l4xx_hal_rcc_ex.c ****                    (((PllSai2->PLLSAI2Q >> 1U) - 1U) << RCC_PLLSAI2CFGR_PLLSAI2Q_Pos) |
3245:Drivers/STM32L4xx_HAL_Driver/Src/stm32l4xx_hal_rcc_ex.c ****                    ((PllSai2->PLLSAI2M - 1U) << RCC_PLLSAI2CFGR_PLLSAI2M_Pos));
3246:Drivers/STM32L4xx_HAL_Driver/Src/stm32l4xx_hal_rcc_ex.c **** #else
3247:Drivers/STM32L4xx_HAL_Driver/Src/stm32l4xx_hal_rcc_ex.c ****         /* Configure the PLLSAI2 Division factor Q and Multiplication factor N*/
3248:Drivers/STM32L4xx_HAL_Driver/Src/stm32l4xx_hal_rcc_ex.c ****         MODIFY_REG(RCC->PLLSAI2CFGR,
3249:Drivers/STM32L4xx_HAL_Driver/Src/stm32l4xx_hal_rcc_ex.c ****                    RCC_PLLSAI2CFGR_PLLSAI2N | RCC_PLLSAI2CFGR_PLLSAI2Q,
3250:Drivers/STM32L4xx_HAL_Driver/Src/stm32l4xx_hal_rcc_ex.c ****                    (PllSai2->PLLSAI2N << RCC_PLLSAI2CFGR_PLLSAI2N_Pos) |
3251:Drivers/STM32L4xx_HAL_Driver/Src/stm32l4xx_hal_rcc_ex.c ****                    (((PllSai2->PLLSAI2Q >> 1U) - 1U) << RCC_PLLSAI2CFGR_PLLSAI2Q_Pos));
3252:Drivers/STM32L4xx_HAL_Driver/Src/stm32l4xx_hal_rcc_ex.c **** #endif /* RCC_PLLSAI2M_DIV_1_16_SUPPORT */
3253:Drivers/STM32L4xx_HAL_Driver/Src/stm32l4xx_hal_rcc_ex.c ****       }
3254:Drivers/STM32L4xx_HAL_Driver/Src/stm32l4xx_hal_rcc_ex.c **** #endif /* RCC_PLLSAI2Q_DIV_SUPPORT */
3255:Drivers/STM32L4xx_HAL_Driver/Src/stm32l4xx_hal_rcc_ex.c ****       else
3256:Drivers/STM32L4xx_HAL_Driver/Src/stm32l4xx_hal_rcc_ex.c ****       {
3257:Drivers/STM32L4xx_HAL_Driver/Src/stm32l4xx_hal_rcc_ex.c ****         assert_param(IS_RCC_PLLSAI2R_VALUE(PllSai2->PLLSAI2R));
3258:Drivers/STM32L4xx_HAL_Driver/Src/stm32l4xx_hal_rcc_ex.c **** #if defined(RCC_PLLSAI2M_DIV_1_16_SUPPORT)
3259:Drivers/STM32L4xx_HAL_Driver/Src/stm32l4xx_hal_rcc_ex.c ****         /* Configure the PLLSAI2 Division factor M, R and Multiplication factor N*/
3260:Drivers/STM32L4xx_HAL_Driver/Src/stm32l4xx_hal_rcc_ex.c ****         MODIFY_REG(RCC->PLLSAI2CFGR,
 5877              		.loc 1 3260 9
 5878 015a 1F4B     		ldr	r3, .L501
 5879 015c 5A69     		ldr	r2, [r3, #20]
 5880 015e 214B     		ldr	r3, .L501+12
 5881 0160 1340     		ands	r3, r3, r2
 5882 0162 7A68     		ldr	r2, [r7, #4]
ARM GAS  C:\Users\Morroway\AppData\Local\Temp\ccOmimY8.s 			page 169


 5883 0164 9268     		ldr	r2, [r2, #8]
 5884 0166 1102     		lsls	r1, r2, #8
 5885 0168 7A68     		ldr	r2, [r7, #4]
 5886 016a 5269     		ldr	r2, [r2, #20]
 5887 016c 5208     		lsrs	r2, r2, #1
 5888 016e 013A     		subs	r2, r2, #1
 5889 0170 5206     		lsls	r2, r2, #25
 5890 0172 1143     		orrs	r1, r1, r2
 5891 0174 7A68     		ldr	r2, [r7, #4]
 5892 0176 5268     		ldr	r2, [r2, #4]
 5893 0178 013A     		subs	r2, r2, #1
 5894 017a 1201     		lsls	r2, r2, #4
 5895 017c 0A43     		orrs	r2, r2, r1
 5896 017e 1649     		ldr	r1, .L501
 5897 0180 1343     		orrs	r3, r3, r2
 5898 0182 4B61     		str	r3, [r1, #20]
 5899              	.L492:
3261:Drivers/STM32L4xx_HAL_Driver/Src/stm32l4xx_hal_rcc_ex.c ****                    RCC_PLLSAI2CFGR_PLLSAI2N | RCC_PLLSAI2CFGR_PLLSAI2R | RCC_PLLSAI2CFGR_PLLSAI2M,
3262:Drivers/STM32L4xx_HAL_Driver/Src/stm32l4xx_hal_rcc_ex.c ****                    (PllSai2->PLLSAI2N << RCC_PLLSAI2CFGR_PLLSAI2N_Pos) |
3263:Drivers/STM32L4xx_HAL_Driver/Src/stm32l4xx_hal_rcc_ex.c ****                    (((PllSai2->PLLSAI2R >> 1U) - 1U) << RCC_PLLSAI2CFGR_PLLSAI2R_Pos) |
3264:Drivers/STM32L4xx_HAL_Driver/Src/stm32l4xx_hal_rcc_ex.c ****                    ((PllSai2->PLLSAI2M - 1U) << RCC_PLLSAI2CFGR_PLLSAI2M_Pos));
3265:Drivers/STM32L4xx_HAL_Driver/Src/stm32l4xx_hal_rcc_ex.c **** #else
3266:Drivers/STM32L4xx_HAL_Driver/Src/stm32l4xx_hal_rcc_ex.c ****         /* Configure the PLLSAI2 Division factor R and Multiplication factor N*/
3267:Drivers/STM32L4xx_HAL_Driver/Src/stm32l4xx_hal_rcc_ex.c ****         MODIFY_REG(RCC->PLLSAI2CFGR,
3268:Drivers/STM32L4xx_HAL_Driver/Src/stm32l4xx_hal_rcc_ex.c ****                    RCC_PLLSAI2CFGR_PLLSAI2N | RCC_PLLSAI2CFGR_PLLSAI2R,
3269:Drivers/STM32L4xx_HAL_Driver/Src/stm32l4xx_hal_rcc_ex.c ****                    (PllSai2->PLLSAI2N << RCC_PLLSAI2CFGR_PLLSAI2N_Pos) |
3270:Drivers/STM32L4xx_HAL_Driver/Src/stm32l4xx_hal_rcc_ex.c ****                    (((PllSai2->PLLSAI2R >> 1U) - 1U) << RCC_PLLSAI2CFGR_PLLSAI2R_Pos));
3271:Drivers/STM32L4xx_HAL_Driver/Src/stm32l4xx_hal_rcc_ex.c **** #endif /* RCC_PLLSAI2M_DIV_1_16_SUPPORT */
3272:Drivers/STM32L4xx_HAL_Driver/Src/stm32l4xx_hal_rcc_ex.c ****       }
3273:Drivers/STM32L4xx_HAL_Driver/Src/stm32l4xx_hal_rcc_ex.c **** 
3274:Drivers/STM32L4xx_HAL_Driver/Src/stm32l4xx_hal_rcc_ex.c ****       /* Enable the PLLSAI2 again by setting PLLSAI2ON to 1*/
3275:Drivers/STM32L4xx_HAL_Driver/Src/stm32l4xx_hal_rcc_ex.c ****       __HAL_RCC_PLLSAI2_ENABLE();
 5900              		.loc 1 3275 7
 5901 0184 144B     		ldr	r3, .L501
 5902 0186 1B68     		ldr	r3, [r3]
 5903 0188 134A     		ldr	r2, .L501
 5904 018a 43F08053 		orr	r3, r3, #268435456
 5905 018e 1360     		str	r3, [r2]
3276:Drivers/STM32L4xx_HAL_Driver/Src/stm32l4xx_hal_rcc_ex.c **** 
3277:Drivers/STM32L4xx_HAL_Driver/Src/stm32l4xx_hal_rcc_ex.c ****       /* Get Start Tick*/
3278:Drivers/STM32L4xx_HAL_Driver/Src/stm32l4xx_hal_rcc_ex.c ****       tickstart = HAL_GetTick();
 5906              		.loc 1 3278 19
 5907 0190 FFF7FEFF 		bl	HAL_GetTick
 5908 0194 B860     		str	r0, [r7, #8]
3279:Drivers/STM32L4xx_HAL_Driver/Src/stm32l4xx_hal_rcc_ex.c **** 
3280:Drivers/STM32L4xx_HAL_Driver/Src/stm32l4xx_hal_rcc_ex.c ****       /* Wait till PLLSAI2 is ready */
3281:Drivers/STM32L4xx_HAL_Driver/Src/stm32l4xx_hal_rcc_ex.c ****       while(READ_BIT(RCC->CR, RCC_CR_PLLSAI2RDY) == 0U)
 5909              		.loc 1 3281 12
 5910 0196 09E0     		b	.L494
 5911              	.L496:
3282:Drivers/STM32L4xx_HAL_Driver/Src/stm32l4xx_hal_rcc_ex.c ****       {
3283:Drivers/STM32L4xx_HAL_Driver/Src/stm32l4xx_hal_rcc_ex.c ****         if((HAL_GetTick() - tickstart) > PLLSAI2_TIMEOUT_VALUE)
 5912              		.loc 1 3283 13
 5913 0198 FFF7FEFF 		bl	HAL_GetTick
 5914 019c 0246     		mov	r2, r0
 5915              		.loc 1 3283 27
 5916 019e BB68     		ldr	r3, [r7, #8]
ARM GAS  C:\Users\Morroway\AppData\Local\Temp\ccOmimY8.s 			page 170


 5917 01a0 D31A     		subs	r3, r2, r3
 5918              		.loc 1 3283 11
 5919 01a2 022B     		cmp	r3, #2
 5920 01a4 02D9     		bls	.L494
3284:Drivers/STM32L4xx_HAL_Driver/Src/stm32l4xx_hal_rcc_ex.c ****         {
3285:Drivers/STM32L4xx_HAL_Driver/Src/stm32l4xx_hal_rcc_ex.c ****           status = HAL_TIMEOUT;
 5921              		.loc 1 3285 18
 5922 01a6 0323     		movs	r3, #3
 5923 01a8 FB73     		strb	r3, [r7, #15]
3286:Drivers/STM32L4xx_HAL_Driver/Src/stm32l4xx_hal_rcc_ex.c ****           break;
 5924              		.loc 1 3286 11
 5925 01aa 05E0     		b	.L495
 5926              	.L494:
3281:Drivers/STM32L4xx_HAL_Driver/Src/stm32l4xx_hal_rcc_ex.c ****       {
 5927              		.loc 1 3281 13
 5928 01ac 0A4B     		ldr	r3, .L501
 5929 01ae 1B68     		ldr	r3, [r3]
 5930 01b0 03F00053 		and	r3, r3, #536870912
3281:Drivers/STM32L4xx_HAL_Driver/Src/stm32l4xx_hal_rcc_ex.c ****       {
 5931              		.loc 1 3281 50
 5932 01b4 002B     		cmp	r3, #0
 5933 01b6 EFD0     		beq	.L496
 5934              	.L495:
3287:Drivers/STM32L4xx_HAL_Driver/Src/stm32l4xx_hal_rcc_ex.c ****         }
3288:Drivers/STM32L4xx_HAL_Driver/Src/stm32l4xx_hal_rcc_ex.c ****       }
3289:Drivers/STM32L4xx_HAL_Driver/Src/stm32l4xx_hal_rcc_ex.c **** 
3290:Drivers/STM32L4xx_HAL_Driver/Src/stm32l4xx_hal_rcc_ex.c ****       if(status == HAL_OK)
 5935              		.loc 1 3290 9
 5936 01b8 FB7B     		ldrb	r3, [r7, #15]	@ zero_extendqisi2
 5937 01ba 002B     		cmp	r3, #0
 5938 01bc 06D1     		bne	.L487
3291:Drivers/STM32L4xx_HAL_Driver/Src/stm32l4xx_hal_rcc_ex.c ****       {
3292:Drivers/STM32L4xx_HAL_Driver/Src/stm32l4xx_hal_rcc_ex.c ****         /* Configure the PLLSAI2 Clock output(s) */
3293:Drivers/STM32L4xx_HAL_Driver/Src/stm32l4xx_hal_rcc_ex.c ****         __HAL_RCC_PLLSAI2CLKOUT_ENABLE(PllSai2->PLLSAI2ClockOut);
 5939              		.loc 1 3293 9
 5940 01be 064B     		ldr	r3, .L501
 5941 01c0 5A69     		ldr	r2, [r3, #20]
 5942 01c2 7B68     		ldr	r3, [r7, #4]
 5943 01c4 9B69     		ldr	r3, [r3, #24]
 5944 01c6 0449     		ldr	r1, .L501
 5945 01c8 1343     		orrs	r3, r3, r2
 5946 01ca 4B61     		str	r3, [r1, #20]
 5947              	.L487:
3294:Drivers/STM32L4xx_HAL_Driver/Src/stm32l4xx_hal_rcc_ex.c ****       }
3295:Drivers/STM32L4xx_HAL_Driver/Src/stm32l4xx_hal_rcc_ex.c ****     }
3296:Drivers/STM32L4xx_HAL_Driver/Src/stm32l4xx_hal_rcc_ex.c ****   }
3297:Drivers/STM32L4xx_HAL_Driver/Src/stm32l4xx_hal_rcc_ex.c **** 
3298:Drivers/STM32L4xx_HAL_Driver/Src/stm32l4xx_hal_rcc_ex.c ****   return status;
 5948              		.loc 1 3298 10
 5949 01cc FB7B     		ldrb	r3, [r7, #15]	@ zero_extendqisi2
3299:Drivers/STM32L4xx_HAL_Driver/Src/stm32l4xx_hal_rcc_ex.c **** }
 5950              		.loc 1 3299 1
 5951 01ce 1846     		mov	r0, r3
 5952 01d0 1037     		adds	r7, r7, #16
 5953              		.cfi_def_cfa_offset 8
 5954 01d2 BD46     		mov	sp, r7
 5955              		.cfi_def_cfa_register 13
ARM GAS  C:\Users\Morroway\AppData\Local\Temp\ccOmimY8.s 			page 171


 5956              		@ sp needed
 5957 01d4 80BD     		pop	{r7, pc}
 5958              	.L502:
 5959 01d6 00BF     		.align	2
 5960              	.L501:
 5961 01d8 00100240 		.word	1073876992
 5962 01dc 0F80FF07 		.word	134184975
 5963 01e0 0F809FFF 		.word	-6324209
 5964 01e4 0F80FFF9 		.word	-100696049
 5965              		.cfi_endproc
 5966              	.LFE350:
 5968              		.section	.text.RCCEx_GetSAIxPeriphCLKFreq,"ax",%progbits
 5969              		.align	1
 5970              		.syntax unified
 5971              		.thumb
 5972              		.thumb_func
 5974              	RCCEx_GetSAIxPeriphCLKFreq:
 5975              	.LFB351:
3300:Drivers/STM32L4xx_HAL_Driver/Src/stm32l4xx_hal_rcc_ex.c **** 
3301:Drivers/STM32L4xx_HAL_Driver/Src/stm32l4xx_hal_rcc_ex.c **** #endif /* RCC_PLLSAI2_SUPPORT */
3302:Drivers/STM32L4xx_HAL_Driver/Src/stm32l4xx_hal_rcc_ex.c **** 
3303:Drivers/STM32L4xx_HAL_Driver/Src/stm32l4xx_hal_rcc_ex.c **** #if defined(SAI1)
3304:Drivers/STM32L4xx_HAL_Driver/Src/stm32l4xx_hal_rcc_ex.c **** 
3305:Drivers/STM32L4xx_HAL_Driver/Src/stm32l4xx_hal_rcc_ex.c **** static uint32_t RCCEx_GetSAIxPeriphCLKFreq(uint32_t PeriphClk, uint32_t InputFrequency)
3306:Drivers/STM32L4xx_HAL_Driver/Src/stm32l4xx_hal_rcc_ex.c **** {
 5976              		.loc 1 3306 1
 5977              		.cfi_startproc
 5978              		@ args = 0, pretend = 0, frame = 32
 5979              		@ frame_needed = 1, uses_anonymous_args = 0
 5980              		@ link register save eliminated.
 5981 0000 80B4     		push	{r7}
 5982              		.cfi_def_cfa_offset 4
 5983              		.cfi_offset 7, -4
 5984 0002 89B0     		sub	sp, sp, #36
 5985              		.cfi_def_cfa_offset 40
 5986 0004 00AF     		add	r7, sp, #0
 5987              		.cfi_def_cfa_register 7
 5988 0006 7860     		str	r0, [r7, #4]
 5989 0008 3960     		str	r1, [r7]
3307:Drivers/STM32L4xx_HAL_Driver/Src/stm32l4xx_hal_rcc_ex.c ****   uint32_t frequency = 0U;
 5990              		.loc 1 3307 12
 5991 000a 0023     		movs	r3, #0
 5992 000c FB61     		str	r3, [r7, #28]
3308:Drivers/STM32L4xx_HAL_Driver/Src/stm32l4xx_hal_rcc_ex.c ****   uint32_t srcclk = 0U;
 5993              		.loc 1 3308 12
 5994 000e 0023     		movs	r3, #0
 5995 0010 BB61     		str	r3, [r7, #24]
3309:Drivers/STM32L4xx_HAL_Driver/Src/stm32l4xx_hal_rcc_ex.c ****   uint32_t pllvco, plln;    /* no init needed */
3310:Drivers/STM32L4xx_HAL_Driver/Src/stm32l4xx_hal_rcc_ex.c **** #if defined(RCC_PLLP_SUPPORT)
3311:Drivers/STM32L4xx_HAL_Driver/Src/stm32l4xx_hal_rcc_ex.c ****   uint32_t pllp = 0U;
 5996              		.loc 1 3311 12
 5997 0012 0023     		movs	r3, #0
 5998 0014 7B61     		str	r3, [r7, #20]
3312:Drivers/STM32L4xx_HAL_Driver/Src/stm32l4xx_hal_rcc_ex.c **** #endif /* RCC_PLLP_SUPPORT */
3313:Drivers/STM32L4xx_HAL_Driver/Src/stm32l4xx_hal_rcc_ex.c **** 
3314:Drivers/STM32L4xx_HAL_Driver/Src/stm32l4xx_hal_rcc_ex.c ****   /* Handle SAIs */
3315:Drivers/STM32L4xx_HAL_Driver/Src/stm32l4xx_hal_rcc_ex.c ****   if(PeriphClk == RCC_PERIPHCLK_SAI1)
ARM GAS  C:\Users\Morroway\AppData\Local\Temp\ccOmimY8.s 			page 172


 5999              		.loc 1 3315 5
 6000 0016 7B68     		ldr	r3, [r7, #4]
 6001 0018 B3F5006F 		cmp	r3, #2048
 6002 001c 0BD1     		bne	.L504
3316:Drivers/STM32L4xx_HAL_Driver/Src/stm32l4xx_hal_rcc_ex.c ****   {
3317:Drivers/STM32L4xx_HAL_Driver/Src/stm32l4xx_hal_rcc_ex.c ****     srcclk = __HAL_RCC_GET_SAI1_SOURCE();
 6003              		.loc 1 3317 14
 6004 001e 7E4B     		ldr	r3, .L523
 6005 0020 D3F89C30 		ldr	r3, [r3, #156]
 6006              		.loc 1 3317 12
 6007 0024 03F0E003 		and	r3, r3, #224
 6008 0028 BB61     		str	r3, [r7, #24]
3318:Drivers/STM32L4xx_HAL_Driver/Src/stm32l4xx_hal_rcc_ex.c ****     if(srcclk == RCC_SAI1CLKSOURCE_PIN)
 6009              		.loc 1 3318 7
 6010 002a BB69     		ldr	r3, [r7, #24]
 6011 002c 602B     		cmp	r3, #96
 6012 002e 12D1     		bne	.L505
3319:Drivers/STM32L4xx_HAL_Driver/Src/stm32l4xx_hal_rcc_ex.c ****     {
3320:Drivers/STM32L4xx_HAL_Driver/Src/stm32l4xx_hal_rcc_ex.c ****       frequency = EXTERNAL_SAI1_CLOCK_VALUE;
 6013              		.loc 1 3320 17
 6014 0030 7A4B     		ldr	r3, .L523+4
 6015 0032 FB61     		str	r3, [r7, #28]
 6016 0034 0FE0     		b	.L505
 6017              	.L504:
3321:Drivers/STM32L4xx_HAL_Driver/Src/stm32l4xx_hal_rcc_ex.c ****     }
3322:Drivers/STM32L4xx_HAL_Driver/Src/stm32l4xx_hal_rcc_ex.c ****     /* Else, PLL clock output to check below */
3323:Drivers/STM32L4xx_HAL_Driver/Src/stm32l4xx_hal_rcc_ex.c ****   }
3324:Drivers/STM32L4xx_HAL_Driver/Src/stm32l4xx_hal_rcc_ex.c **** #if defined(SAI2)
3325:Drivers/STM32L4xx_HAL_Driver/Src/stm32l4xx_hal_rcc_ex.c ****   else
3326:Drivers/STM32L4xx_HAL_Driver/Src/stm32l4xx_hal_rcc_ex.c ****   {
3327:Drivers/STM32L4xx_HAL_Driver/Src/stm32l4xx_hal_rcc_ex.c ****     if(PeriphClk == RCC_PERIPHCLK_SAI2)
 6018              		.loc 1 3327 7
 6019 0036 7B68     		ldr	r3, [r7, #4]
 6020 0038 B3F5805F 		cmp	r3, #4096
 6021 003c 0BD1     		bne	.L505
3328:Drivers/STM32L4xx_HAL_Driver/Src/stm32l4xx_hal_rcc_ex.c ****     {
3329:Drivers/STM32L4xx_HAL_Driver/Src/stm32l4xx_hal_rcc_ex.c ****       srcclk = __HAL_RCC_GET_SAI2_SOURCE();
 6022              		.loc 1 3329 16
 6023 003e 764B     		ldr	r3, .L523
 6024 0040 D3F89C30 		ldr	r3, [r3, #156]
 6025              		.loc 1 3329 14
 6026 0044 03F4E063 		and	r3, r3, #1792
 6027 0048 BB61     		str	r3, [r7, #24]
3330:Drivers/STM32L4xx_HAL_Driver/Src/stm32l4xx_hal_rcc_ex.c ****       if(srcclk == RCC_SAI2CLKSOURCE_PIN)
 6028              		.loc 1 3330 9
 6029 004a BB69     		ldr	r3, [r7, #24]
 6030 004c B3F5407F 		cmp	r3, #768
 6031 0050 01D1     		bne	.L505
3331:Drivers/STM32L4xx_HAL_Driver/Src/stm32l4xx_hal_rcc_ex.c ****       {
3332:Drivers/STM32L4xx_HAL_Driver/Src/stm32l4xx_hal_rcc_ex.c ****         frequency = EXTERNAL_SAI2_CLOCK_VALUE;
 6032              		.loc 1 3332 19
 6033 0052 724B     		ldr	r3, .L523+4
 6034 0054 FB61     		str	r3, [r7, #28]
 6035              	.L505:
3333:Drivers/STM32L4xx_HAL_Driver/Src/stm32l4xx_hal_rcc_ex.c ****       }
3334:Drivers/STM32L4xx_HAL_Driver/Src/stm32l4xx_hal_rcc_ex.c ****       /* Else, PLL clock output to check below */
3335:Drivers/STM32L4xx_HAL_Driver/Src/stm32l4xx_hal_rcc_ex.c ****     }
ARM GAS  C:\Users\Morroway\AppData\Local\Temp\ccOmimY8.s 			page 173


3336:Drivers/STM32L4xx_HAL_Driver/Src/stm32l4xx_hal_rcc_ex.c ****   }
3337:Drivers/STM32L4xx_HAL_Driver/Src/stm32l4xx_hal_rcc_ex.c **** #endif /* SAI2 */
3338:Drivers/STM32L4xx_HAL_Driver/Src/stm32l4xx_hal_rcc_ex.c **** 
3339:Drivers/STM32L4xx_HAL_Driver/Src/stm32l4xx_hal_rcc_ex.c ****   if(frequency == 0U)
 6036              		.loc 1 3339 5
 6037 0056 FB69     		ldr	r3, [r7, #28]
 6038 0058 002B     		cmp	r3, #0
 6039 005a 40F0D680 		bne	.L506
3340:Drivers/STM32L4xx_HAL_Driver/Src/stm32l4xx_hal_rcc_ex.c ****   {
3341:Drivers/STM32L4xx_HAL_Driver/Src/stm32l4xx_hal_rcc_ex.c ****     pllvco = InputFrequency;
 6040              		.loc 1 3341 12
 6041 005e 3B68     		ldr	r3, [r7]
 6042 0060 3B61     		str	r3, [r7, #16]
3342:Drivers/STM32L4xx_HAL_Driver/Src/stm32l4xx_hal_rcc_ex.c **** 
3343:Drivers/STM32L4xx_HAL_Driver/Src/stm32l4xx_hal_rcc_ex.c **** #if defined(SAI2)
3344:Drivers/STM32L4xx_HAL_Driver/Src/stm32l4xx_hal_rcc_ex.c ****     if((srcclk == RCC_SAI1CLKSOURCE_PLL) || (srcclk == RCC_SAI2CLKSOURCE_PLL))
 6043              		.loc 1 3344 7
 6044 0062 BB69     		ldr	r3, [r7, #24]
 6045 0064 402B     		cmp	r3, #64
 6046 0066 03D0     		beq	.L507
 6047              		.loc 1 3344 42 discriminator 1
 6048 0068 BB69     		ldr	r3, [r7, #24]
 6049 006a B3F5007F 		cmp	r3, #512
 6050 006e 3BD1     		bne	.L508
 6051              	.L507:
3345:Drivers/STM32L4xx_HAL_Driver/Src/stm32l4xx_hal_rcc_ex.c ****     {
3346:Drivers/STM32L4xx_HAL_Driver/Src/stm32l4xx_hal_rcc_ex.c ****       if(HAL_IS_BIT_SET(RCC->CR, RCC_CR_PLLRDY) && (__HAL_RCC_GET_PLLCLKOUT_CONFIG(RCC_PLL_SAI3CLK)
 6052              		.loc 1 3346 10
 6053 0070 694B     		ldr	r3, .L523
 6054 0072 1B68     		ldr	r3, [r3]
 6055 0074 03F00073 		and	r3, r3, #33554432
 6056              		.loc 1 3346 9
 6057 0078 B3F1007F 		cmp	r3, #33554432
 6058 007c 40F0C480 		bne	.L522
 6059              		.loc 1 3346 53 discriminator 1
 6060 0080 654B     		ldr	r3, .L523
 6061 0082 DB68     		ldr	r3, [r3, #12]
 6062 0084 03F48033 		and	r3, r3, #65536
 6063              		.loc 1 3346 49 discriminator 1
 6064 0088 002B     		cmp	r3, #0
 6065 008a 00F0BD80 		beq	.L522
3347:Drivers/STM32L4xx_HAL_Driver/Src/stm32l4xx_hal_rcc_ex.c ****       {
3348:Drivers/STM32L4xx_HAL_Driver/Src/stm32l4xx_hal_rcc_ex.c ****         /* f(PLL Source) / PLLM */
3349:Drivers/STM32L4xx_HAL_Driver/Src/stm32l4xx_hal_rcc_ex.c ****         pllvco = (pllvco / ((READ_BIT(RCC->PLLCFGR, RCC_PLLCFGR_PLLM) >> RCC_PLLCFGR_PLLM_Pos) + 1U
 6066              		.loc 1 3349 30
 6067 008e 624B     		ldr	r3, .L523
 6068 0090 DB68     		ldr	r3, [r3, #12]
 6069              		.loc 1 3349 71
 6070 0092 1B09     		lsrs	r3, r3, #4
 6071 0094 03F00F03 		and	r3, r3, #15
 6072              		.loc 1 3349 96
 6073 0098 0133     		adds	r3, r3, #1
 6074              		.loc 1 3349 16
 6075 009a 3A69     		ldr	r2, [r7, #16]
 6076 009c B2FBF3F3 		udiv	r3, r2, r3
 6077 00a0 3B61     		str	r3, [r7, #16]
3350:Drivers/STM32L4xx_HAL_Driver/Src/stm32l4xx_hal_rcc_ex.c ****         /* f(PLLSAI3CLK) = f(VCO input) * PLLN / PLLP */
ARM GAS  C:\Users\Morroway\AppData\Local\Temp\ccOmimY8.s 			page 174


3351:Drivers/STM32L4xx_HAL_Driver/Src/stm32l4xx_hal_rcc_ex.c ****         plln = READ_BIT(RCC->PLLCFGR, RCC_PLLCFGR_PLLN) >> RCC_PLLCFGR_PLLN_Pos;
 6078              		.loc 1 3351 16
 6079 00a2 5D4B     		ldr	r3, .L523
 6080 00a4 DB68     		ldr	r3, [r3, #12]
 6081              		.loc 1 3351 57
 6082 00a6 1B0A     		lsrs	r3, r3, #8
 6083              		.loc 1 3351 14
 6084 00a8 03F07F03 		and	r3, r3, #127
 6085 00ac FB60     		str	r3, [r7, #12]
3352:Drivers/STM32L4xx_HAL_Driver/Src/stm32l4xx_hal_rcc_ex.c **** #if defined(RCC_PLLP_DIV_2_31_SUPPORT)
3353:Drivers/STM32L4xx_HAL_Driver/Src/stm32l4xx_hal_rcc_ex.c ****         pllp = READ_BIT(RCC->PLLCFGR, RCC_PLLCFGR_PLLPDIV) >> RCC_PLLCFGR_PLLPDIV_Pos;
 6086              		.loc 1 3353 16
 6087 00ae 5A4B     		ldr	r3, .L523
 6088 00b0 DB68     		ldr	r3, [r3, #12]
 6089              		.loc 1 3353 60
 6090 00b2 DB0E     		lsrs	r3, r3, #27
 6091              		.loc 1 3353 14
 6092 00b4 03F01F03 		and	r3, r3, #31
 6093 00b8 7B61     		str	r3, [r7, #20]
3354:Drivers/STM32L4xx_HAL_Driver/Src/stm32l4xx_hal_rcc_ex.c **** #endif
3355:Drivers/STM32L4xx_HAL_Driver/Src/stm32l4xx_hal_rcc_ex.c ****         if(pllp == 0U)
 6094              		.loc 1 3355 11
 6095 00ba 7B69     		ldr	r3, [r7, #20]
 6096 00bc 002B     		cmp	r3, #0
 6097 00be 0AD1     		bne	.L510
3356:Drivers/STM32L4xx_HAL_Driver/Src/stm32l4xx_hal_rcc_ex.c ****         {
3357:Drivers/STM32L4xx_HAL_Driver/Src/stm32l4xx_hal_rcc_ex.c ****           if(READ_BIT(RCC->PLLCFGR, RCC_PLLCFGR_PLLP) != 0U)
 6098              		.loc 1 3357 14
 6099 00c0 554B     		ldr	r3, .L523
 6100 00c2 DB68     		ldr	r3, [r3, #12]
 6101 00c4 03F40033 		and	r3, r3, #131072
 6102              		.loc 1 3357 13
 6103 00c8 002B     		cmp	r3, #0
 6104 00ca 02D0     		beq	.L511
3358:Drivers/STM32L4xx_HAL_Driver/Src/stm32l4xx_hal_rcc_ex.c ****           {
3359:Drivers/STM32L4xx_HAL_Driver/Src/stm32l4xx_hal_rcc_ex.c ****             pllp = 17U;
 6105              		.loc 1 3359 18
 6106 00cc 1123     		movs	r3, #17
 6107 00ce 7B61     		str	r3, [r7, #20]
 6108 00d0 01E0     		b	.L510
 6109              	.L511:
3360:Drivers/STM32L4xx_HAL_Driver/Src/stm32l4xx_hal_rcc_ex.c ****           }
3361:Drivers/STM32L4xx_HAL_Driver/Src/stm32l4xx_hal_rcc_ex.c ****           else
3362:Drivers/STM32L4xx_HAL_Driver/Src/stm32l4xx_hal_rcc_ex.c ****           {
3363:Drivers/STM32L4xx_HAL_Driver/Src/stm32l4xx_hal_rcc_ex.c ****             pllp = 7U;
 6110              		.loc 1 3363 18
 6111 00d2 0723     		movs	r3, #7
 6112 00d4 7B61     		str	r3, [r7, #20]
 6113              	.L510:
3364:Drivers/STM32L4xx_HAL_Driver/Src/stm32l4xx_hal_rcc_ex.c ****           }
3365:Drivers/STM32L4xx_HAL_Driver/Src/stm32l4xx_hal_rcc_ex.c ****         }
3366:Drivers/STM32L4xx_HAL_Driver/Src/stm32l4xx_hal_rcc_ex.c ****         frequency = (pllvco * plln) / pllp;
 6114              		.loc 1 3366 29
 6115 00d6 3B69     		ldr	r3, [r7, #16]
 6116 00d8 FA68     		ldr	r2, [r7, #12]
 6117 00da 03FB02F2 		mul	r2, r3, r2
 6118              		.loc 1 3366 19
ARM GAS  C:\Users\Morroway\AppData\Local\Temp\ccOmimY8.s 			page 175


 6119 00de 7B69     		ldr	r3, [r7, #20]
 6120 00e0 B2FBF3F3 		udiv	r3, r2, r3
 6121 00e4 FB61     		str	r3, [r7, #28]
3346:Drivers/STM32L4xx_HAL_Driver/Src/stm32l4xx_hal_rcc_ex.c ****       {
 6122              		.loc 1 3346 9
 6123 00e6 8FE0     		b	.L522
 6124              	.L508:
3367:Drivers/STM32L4xx_HAL_Driver/Src/stm32l4xx_hal_rcc_ex.c ****       }
3368:Drivers/STM32L4xx_HAL_Driver/Src/stm32l4xx_hal_rcc_ex.c ****     }
3369:Drivers/STM32L4xx_HAL_Driver/Src/stm32l4xx_hal_rcc_ex.c ****     else if(srcclk == 0U)  /* RCC_SAI1CLKSOURCE_PLLSAI1 || RCC_SAI2CLKSOURCE_PLLSAI1 */
 6125              		.loc 1 3369 12
 6126 00e8 BB69     		ldr	r3, [r7, #24]
 6127 00ea 002B     		cmp	r3, #0
 6128 00ec 3AD1     		bne	.L512
3370:Drivers/STM32L4xx_HAL_Driver/Src/stm32l4xx_hal_rcc_ex.c ****     {
3371:Drivers/STM32L4xx_HAL_Driver/Src/stm32l4xx_hal_rcc_ex.c ****       if(HAL_IS_BIT_SET(RCC->CR, RCC_CR_PLLSAI1RDY) && (__HAL_RCC_GET_PLLSAI1CLKOUT_CONFIG(RCC_PLLS
 6129              		.loc 1 3371 10
 6130 00ee 4A4B     		ldr	r3, .L523
 6131 00f0 1B68     		ldr	r3, [r3]
 6132 00f2 03F00063 		and	r3, r3, #134217728
 6133              		.loc 1 3371 9
 6134 00f6 B3F1006F 		cmp	r3, #134217728
 6135 00fa 40F08680 		bne	.L506
 6136              		.loc 1 3371 57 discriminator 1
 6137 00fe 464B     		ldr	r3, .L523
 6138 0100 1B69     		ldr	r3, [r3, #16]
 6139 0102 03F48033 		and	r3, r3, #65536
 6140              		.loc 1 3371 53 discriminator 1
 6141 0106 002B     		cmp	r3, #0
 6142 0108 7FD0     		beq	.L506
3372:Drivers/STM32L4xx_HAL_Driver/Src/stm32l4xx_hal_rcc_ex.c ****       {
3373:Drivers/STM32L4xx_HAL_Driver/Src/stm32l4xx_hal_rcc_ex.c **** #if defined(RCC_PLLSAI1M_DIV_1_16_SUPPORT)
3374:Drivers/STM32L4xx_HAL_Driver/Src/stm32l4xx_hal_rcc_ex.c ****         /* PLLSAI1M exists: apply PLLSAI1M divider for PLLSAI1 output computation */
3375:Drivers/STM32L4xx_HAL_Driver/Src/stm32l4xx_hal_rcc_ex.c ****         /* f(PLLSAI1 Source) / PLLSAI1M */
3376:Drivers/STM32L4xx_HAL_Driver/Src/stm32l4xx_hal_rcc_ex.c ****         pllvco = (pllvco / ((READ_BIT(RCC->PLLSAI1CFGR, RCC_PLLSAI1CFGR_PLLSAI1M) >> RCC_PLLSAI1CFG
 6143              		.loc 1 3376 30
 6144 010a 434B     		ldr	r3, .L523
 6145 010c 1B69     		ldr	r3, [r3, #16]
 6146              		.loc 1 3376 83
 6147 010e 1B09     		lsrs	r3, r3, #4
 6148 0110 03F00F03 		and	r3, r3, #15
 6149              		.loc 1 3376 116
 6150 0114 0133     		adds	r3, r3, #1
 6151              		.loc 1 3376 16
 6152 0116 3A69     		ldr	r2, [r7, #16]
 6153 0118 B2FBF3F3 		udiv	r3, r2, r3
 6154 011c 3B61     		str	r3, [r7, #16]
3377:Drivers/STM32L4xx_HAL_Driver/Src/stm32l4xx_hal_rcc_ex.c **** #else
3378:Drivers/STM32L4xx_HAL_Driver/Src/stm32l4xx_hal_rcc_ex.c ****         /* f(PLL Source) / PLLM */
3379:Drivers/STM32L4xx_HAL_Driver/Src/stm32l4xx_hal_rcc_ex.c ****         pllvco = (pllvco / ((READ_BIT(RCC->PLLCFGR, RCC_PLLCFGR_PLLM) >> RCC_PLLCFGR_PLLM_Pos) + 1U
3380:Drivers/STM32L4xx_HAL_Driver/Src/stm32l4xx_hal_rcc_ex.c **** #endif
3381:Drivers/STM32L4xx_HAL_Driver/Src/stm32l4xx_hal_rcc_ex.c ****         /* f(PLLSAI1CLK) = f(VCOSAI1 input) * PLLSAI1N / PLLSAI1P */
3382:Drivers/STM32L4xx_HAL_Driver/Src/stm32l4xx_hal_rcc_ex.c ****         plln = READ_BIT(RCC->PLLSAI1CFGR, RCC_PLLSAI1CFGR_PLLSAI1N) >> RCC_PLLSAI1CFGR_PLLSAI1N_Pos
 6155              		.loc 1 3382 16
 6156 011e 3E4B     		ldr	r3, .L523
 6157 0120 1B69     		ldr	r3, [r3, #16]
 6158              		.loc 1 3382 69
ARM GAS  C:\Users\Morroway\AppData\Local\Temp\ccOmimY8.s 			page 176


 6159 0122 1B0A     		lsrs	r3, r3, #8
 6160              		.loc 1 3382 14
 6161 0124 03F07F03 		and	r3, r3, #127
 6162 0128 FB60     		str	r3, [r7, #12]
3383:Drivers/STM32L4xx_HAL_Driver/Src/stm32l4xx_hal_rcc_ex.c **** #if defined(RCC_PLLSAI1P_DIV_2_31_SUPPORT)
3384:Drivers/STM32L4xx_HAL_Driver/Src/stm32l4xx_hal_rcc_ex.c ****         pllp = READ_BIT(RCC->PLLSAI1CFGR, RCC_PLLSAI1CFGR_PLLSAI1PDIV) >> RCC_PLLSAI1CFGR_PLLSAI1PD
 6163              		.loc 1 3384 16
 6164 012a 3B4B     		ldr	r3, .L523
 6165 012c 1B69     		ldr	r3, [r3, #16]
 6166              		.loc 1 3384 72
 6167 012e DB0E     		lsrs	r3, r3, #27
 6168              		.loc 1 3384 14
 6169 0130 03F01F03 		and	r3, r3, #31
 6170 0134 7B61     		str	r3, [r7, #20]
3385:Drivers/STM32L4xx_HAL_Driver/Src/stm32l4xx_hal_rcc_ex.c **** #endif
3386:Drivers/STM32L4xx_HAL_Driver/Src/stm32l4xx_hal_rcc_ex.c ****         if(pllp == 0U)
 6171              		.loc 1 3386 11
 6172 0136 7B69     		ldr	r3, [r7, #20]
 6173 0138 002B     		cmp	r3, #0
 6174 013a 0AD1     		bne	.L513
3387:Drivers/STM32L4xx_HAL_Driver/Src/stm32l4xx_hal_rcc_ex.c ****         {
3388:Drivers/STM32L4xx_HAL_Driver/Src/stm32l4xx_hal_rcc_ex.c ****           if(READ_BIT(RCC->PLLSAI1CFGR, RCC_PLLSAI1CFGR_PLLSAI1P) != 0U)
 6175              		.loc 1 3388 14
 6176 013c 364B     		ldr	r3, .L523
 6177 013e 1B69     		ldr	r3, [r3, #16]
 6178 0140 03F40033 		and	r3, r3, #131072
 6179              		.loc 1 3388 13
 6180 0144 002B     		cmp	r3, #0
 6181 0146 02D0     		beq	.L514
3389:Drivers/STM32L4xx_HAL_Driver/Src/stm32l4xx_hal_rcc_ex.c ****           {
3390:Drivers/STM32L4xx_HAL_Driver/Src/stm32l4xx_hal_rcc_ex.c ****             pllp = 17U;
 6182              		.loc 1 3390 18
 6183 0148 1123     		movs	r3, #17
 6184 014a 7B61     		str	r3, [r7, #20]
 6185 014c 01E0     		b	.L513
 6186              	.L514:
3391:Drivers/STM32L4xx_HAL_Driver/Src/stm32l4xx_hal_rcc_ex.c ****           }
3392:Drivers/STM32L4xx_HAL_Driver/Src/stm32l4xx_hal_rcc_ex.c ****           else
3393:Drivers/STM32L4xx_HAL_Driver/Src/stm32l4xx_hal_rcc_ex.c ****           {
3394:Drivers/STM32L4xx_HAL_Driver/Src/stm32l4xx_hal_rcc_ex.c ****             pllp = 7U;
 6187              		.loc 1 3394 18
 6188 014e 0723     		movs	r3, #7
 6189 0150 7B61     		str	r3, [r7, #20]
 6190              	.L513:
3395:Drivers/STM32L4xx_HAL_Driver/Src/stm32l4xx_hal_rcc_ex.c ****           }
3396:Drivers/STM32L4xx_HAL_Driver/Src/stm32l4xx_hal_rcc_ex.c ****         }
3397:Drivers/STM32L4xx_HAL_Driver/Src/stm32l4xx_hal_rcc_ex.c ****         frequency = (pllvco * plln) / pllp;
 6191              		.loc 1 3397 29
 6192 0152 3B69     		ldr	r3, [r7, #16]
 6193 0154 FA68     		ldr	r2, [r7, #12]
 6194 0156 03FB02F2 		mul	r2, r3, r2
 6195              		.loc 1 3397 19
 6196 015a 7B69     		ldr	r3, [r7, #20]
 6197 015c B2FBF3F3 		udiv	r3, r2, r3
 6198 0160 FB61     		str	r3, [r7, #28]
 6199 0162 52E0     		b	.L506
 6200              	.L512:
ARM GAS  C:\Users\Morroway\AppData\Local\Temp\ccOmimY8.s 			page 177


3398:Drivers/STM32L4xx_HAL_Driver/Src/stm32l4xx_hal_rcc_ex.c ****       }
3399:Drivers/STM32L4xx_HAL_Driver/Src/stm32l4xx_hal_rcc_ex.c ****     }
3400:Drivers/STM32L4xx_HAL_Driver/Src/stm32l4xx_hal_rcc_ex.c **** #if defined(STM32L4P5xx) || defined(STM32L4Q5xx) || defined(STM32L4R5xx) || defined(STM32L4R7xx) ||
3401:Drivers/STM32L4xx_HAL_Driver/Src/stm32l4xx_hal_rcc_ex.c ****     else if((srcclk == RCC_SAI1CLKSOURCE_HSI) || (srcclk == RCC_SAI2CLKSOURCE_HSI))
 6201              		.loc 1 3401 12
 6202 0164 BB69     		ldr	r3, [r7, #24]
 6203 0166 802B     		cmp	r3, #128
 6204 0168 03D0     		beq	.L515
 6205              		.loc 1 3401 47 discriminator 1
 6206 016a BB69     		ldr	r3, [r7, #24]
 6207 016c B3F5806F 		cmp	r3, #1024
 6208 0170 09D1     		bne	.L516
 6209              	.L515:
3402:Drivers/STM32L4xx_HAL_Driver/Src/stm32l4xx_hal_rcc_ex.c ****     {
3403:Drivers/STM32L4xx_HAL_Driver/Src/stm32l4xx_hal_rcc_ex.c ****       if(HAL_IS_BIT_SET(RCC->CR, RCC_CR_HSIRDY))
 6210              		.loc 1 3403 10
 6211 0172 294B     		ldr	r3, .L523
 6212 0174 1B68     		ldr	r3, [r3]
 6213 0176 03F48063 		and	r3, r3, #1024
 6214              		.loc 1 3403 9
 6215 017a B3F5806F 		cmp	r3, #1024
 6216 017e 44D1     		bne	.L506
3404:Drivers/STM32L4xx_HAL_Driver/Src/stm32l4xx_hal_rcc_ex.c ****       {
3405:Drivers/STM32L4xx_HAL_Driver/Src/stm32l4xx_hal_rcc_ex.c ****         frequency = HSI_VALUE;
 6217              		.loc 1 3405 19
 6218 0180 274B     		ldr	r3, .L523+8
 6219 0182 FB61     		str	r3, [r7, #28]
3403:Drivers/STM32L4xx_HAL_Driver/Src/stm32l4xx_hal_rcc_ex.c ****       {
 6220              		.loc 1 3403 9
 6221 0184 41E0     		b	.L506
 6222              	.L516:
3406:Drivers/STM32L4xx_HAL_Driver/Src/stm32l4xx_hal_rcc_ex.c ****       }
3407:Drivers/STM32L4xx_HAL_Driver/Src/stm32l4xx_hal_rcc_ex.c ****     }
3408:Drivers/STM32L4xx_HAL_Driver/Src/stm32l4xx_hal_rcc_ex.c **** #endif /* STM32L4P5xx || STM32L4Q5xx || STM32L4R5xx || STM32L4R7xx || STM32L4R9xx || STM32L4S5xx ||
3409:Drivers/STM32L4xx_HAL_Driver/Src/stm32l4xx_hal_rcc_ex.c **** 
3410:Drivers/STM32L4xx_HAL_Driver/Src/stm32l4xx_hal_rcc_ex.c **** #else
3411:Drivers/STM32L4xx_HAL_Driver/Src/stm32l4xx_hal_rcc_ex.c ****     if(srcclk == RCC_SAI1CLKSOURCE_PLL)
3412:Drivers/STM32L4xx_HAL_Driver/Src/stm32l4xx_hal_rcc_ex.c ****     {
3413:Drivers/STM32L4xx_HAL_Driver/Src/stm32l4xx_hal_rcc_ex.c ****       if(HAL_IS_BIT_SET(RCC->CR, RCC_CR_PLLRDY) && (__HAL_RCC_GET_PLLCLKOUT_CONFIG(RCC_PLL_SAI2CLK)
3414:Drivers/STM32L4xx_HAL_Driver/Src/stm32l4xx_hal_rcc_ex.c ****       {
3415:Drivers/STM32L4xx_HAL_Driver/Src/stm32l4xx_hal_rcc_ex.c ****         /* f(PLL Source) / PLLM */
3416:Drivers/STM32L4xx_HAL_Driver/Src/stm32l4xx_hal_rcc_ex.c ****         pllvco = (pllvco / ((READ_BIT(RCC->PLLCFGR, RCC_PLLCFGR_PLLM) >> RCC_PLLCFGR_PLLM_Pos) + 1U
3417:Drivers/STM32L4xx_HAL_Driver/Src/stm32l4xx_hal_rcc_ex.c ****         /* f(PLLSAI2CLK) = f(VCO input) * PLLN / PLLP */
3418:Drivers/STM32L4xx_HAL_Driver/Src/stm32l4xx_hal_rcc_ex.c ****         plln = READ_BIT(RCC->PLLCFGR, RCC_PLLCFGR_PLLN) >> RCC_PLLCFGR_PLLN_Pos;
3419:Drivers/STM32L4xx_HAL_Driver/Src/stm32l4xx_hal_rcc_ex.c **** #if defined(RCC_PLLP_DIV_2_31_SUPPORT)
3420:Drivers/STM32L4xx_HAL_Driver/Src/stm32l4xx_hal_rcc_ex.c ****         pllp = READ_BIT(RCC->PLLCFGR, RCC_PLLCFGR_PLLPDIV) >> RCC_PLLCFGR_PLLPDIV_Pos;
3421:Drivers/STM32L4xx_HAL_Driver/Src/stm32l4xx_hal_rcc_ex.c **** #endif
3422:Drivers/STM32L4xx_HAL_Driver/Src/stm32l4xx_hal_rcc_ex.c ****         if(pllp == 0U)
3423:Drivers/STM32L4xx_HAL_Driver/Src/stm32l4xx_hal_rcc_ex.c ****         {
3424:Drivers/STM32L4xx_HAL_Driver/Src/stm32l4xx_hal_rcc_ex.c ****           if(READ_BIT(RCC->PLLCFGR, RCC_PLLCFGR_PLLP) != 0U)
3425:Drivers/STM32L4xx_HAL_Driver/Src/stm32l4xx_hal_rcc_ex.c ****           {
3426:Drivers/STM32L4xx_HAL_Driver/Src/stm32l4xx_hal_rcc_ex.c ****             pllp = 17U;
3427:Drivers/STM32L4xx_HAL_Driver/Src/stm32l4xx_hal_rcc_ex.c ****           }
3428:Drivers/STM32L4xx_HAL_Driver/Src/stm32l4xx_hal_rcc_ex.c ****           else
3429:Drivers/STM32L4xx_HAL_Driver/Src/stm32l4xx_hal_rcc_ex.c ****           {
3430:Drivers/STM32L4xx_HAL_Driver/Src/stm32l4xx_hal_rcc_ex.c ****             pllp = 7U;
3431:Drivers/STM32L4xx_HAL_Driver/Src/stm32l4xx_hal_rcc_ex.c ****           }
ARM GAS  C:\Users\Morroway\AppData\Local\Temp\ccOmimY8.s 			page 178


3432:Drivers/STM32L4xx_HAL_Driver/Src/stm32l4xx_hal_rcc_ex.c ****         }
3433:Drivers/STM32L4xx_HAL_Driver/Src/stm32l4xx_hal_rcc_ex.c ****         frequency = (pllvco * plln) / pllp;
3434:Drivers/STM32L4xx_HAL_Driver/Src/stm32l4xx_hal_rcc_ex.c ****       }
3435:Drivers/STM32L4xx_HAL_Driver/Src/stm32l4xx_hal_rcc_ex.c ****       else if(HAL_IS_BIT_SET(RCC->CR, RCC_CR_HSIRDY))
3436:Drivers/STM32L4xx_HAL_Driver/Src/stm32l4xx_hal_rcc_ex.c ****       {
3437:Drivers/STM32L4xx_HAL_Driver/Src/stm32l4xx_hal_rcc_ex.c ****         /* HSI automatically selected as clock source if PLLs not enabled */
3438:Drivers/STM32L4xx_HAL_Driver/Src/stm32l4xx_hal_rcc_ex.c ****         frequency = HSI_VALUE;
3439:Drivers/STM32L4xx_HAL_Driver/Src/stm32l4xx_hal_rcc_ex.c ****       }
3440:Drivers/STM32L4xx_HAL_Driver/Src/stm32l4xx_hal_rcc_ex.c ****       else
3441:Drivers/STM32L4xx_HAL_Driver/Src/stm32l4xx_hal_rcc_ex.c ****       {
3442:Drivers/STM32L4xx_HAL_Driver/Src/stm32l4xx_hal_rcc_ex.c ****         /* No clock source, frequency default init at 0 */
3443:Drivers/STM32L4xx_HAL_Driver/Src/stm32l4xx_hal_rcc_ex.c ****       }
3444:Drivers/STM32L4xx_HAL_Driver/Src/stm32l4xx_hal_rcc_ex.c ****     }
3445:Drivers/STM32L4xx_HAL_Driver/Src/stm32l4xx_hal_rcc_ex.c ****     else if(srcclk == RCC_SAI1CLKSOURCE_PLLSAI1)
3446:Drivers/STM32L4xx_HAL_Driver/Src/stm32l4xx_hal_rcc_ex.c ****     {
3447:Drivers/STM32L4xx_HAL_Driver/Src/stm32l4xx_hal_rcc_ex.c ****       if(HAL_IS_BIT_SET(RCC->CR, RCC_CR_PLLSAI1RDY) && (__HAL_RCC_GET_PLLSAI1CLKOUT_CONFIG(RCC_PLLS
3448:Drivers/STM32L4xx_HAL_Driver/Src/stm32l4xx_hal_rcc_ex.c ****       {
3449:Drivers/STM32L4xx_HAL_Driver/Src/stm32l4xx_hal_rcc_ex.c **** #if defined(RCC_PLLSAI1M_DIV_1_16_SUPPORT)
3450:Drivers/STM32L4xx_HAL_Driver/Src/stm32l4xx_hal_rcc_ex.c ****         /* PLLSAI1M exists: apply PLLSAI1M divider for PLLSAI1 output computation */
3451:Drivers/STM32L4xx_HAL_Driver/Src/stm32l4xx_hal_rcc_ex.c ****         /* f(PLLSAI1 Source) / PLLSAI1M */
3452:Drivers/STM32L4xx_HAL_Driver/Src/stm32l4xx_hal_rcc_ex.c ****         pllvco = (pllvco / ((READ_BIT(RCC->PLLSAI1CFGR, RCC_PLLSAI1CFGR_PLLSAI1M) >> RCC_PLLSAI1CFG
3453:Drivers/STM32L4xx_HAL_Driver/Src/stm32l4xx_hal_rcc_ex.c **** #else
3454:Drivers/STM32L4xx_HAL_Driver/Src/stm32l4xx_hal_rcc_ex.c ****         /* f(PLL Source) / PLLM */
3455:Drivers/STM32L4xx_HAL_Driver/Src/stm32l4xx_hal_rcc_ex.c ****         pllvco = (pllvco / ((READ_BIT(RCC->PLLCFGR, RCC_PLLCFGR_PLLM) >> RCC_PLLCFGR_PLLM_Pos) + 1U
3456:Drivers/STM32L4xx_HAL_Driver/Src/stm32l4xx_hal_rcc_ex.c **** #endif
3457:Drivers/STM32L4xx_HAL_Driver/Src/stm32l4xx_hal_rcc_ex.c ****         /* f(PLLSAI1CLK) = f(VCOSAI1 input) * PLLSAI1N / PLLSAI1P */
3458:Drivers/STM32L4xx_HAL_Driver/Src/stm32l4xx_hal_rcc_ex.c ****         plln = READ_BIT(RCC->PLLSAI1CFGR, RCC_PLLSAI1CFGR_PLLSAI1N) >> RCC_PLLSAI1CFGR_PLLSAI1N_Pos
3459:Drivers/STM32L4xx_HAL_Driver/Src/stm32l4xx_hal_rcc_ex.c **** #if defined(RCC_PLLSAI1P_DIV_2_31_SUPPORT)
3460:Drivers/STM32L4xx_HAL_Driver/Src/stm32l4xx_hal_rcc_ex.c ****         pllp = READ_BIT(RCC->PLLSAI1CFGR, RCC_PLLSAI1CFGR_PLLSAI1PDIV) >> RCC_PLLSAI1CFGR_PLLSAI1PD
3461:Drivers/STM32L4xx_HAL_Driver/Src/stm32l4xx_hal_rcc_ex.c **** #endif
3462:Drivers/STM32L4xx_HAL_Driver/Src/stm32l4xx_hal_rcc_ex.c ****         if(pllp == 0U)
3463:Drivers/STM32L4xx_HAL_Driver/Src/stm32l4xx_hal_rcc_ex.c ****         {
3464:Drivers/STM32L4xx_HAL_Driver/Src/stm32l4xx_hal_rcc_ex.c ****           if(READ_BIT(RCC->PLLSAI1CFGR, RCC_PLLSAI1CFGR_PLLSAI1P) != 0U)
3465:Drivers/STM32L4xx_HAL_Driver/Src/stm32l4xx_hal_rcc_ex.c ****           {
3466:Drivers/STM32L4xx_HAL_Driver/Src/stm32l4xx_hal_rcc_ex.c ****             pllp = 17U;
3467:Drivers/STM32L4xx_HAL_Driver/Src/stm32l4xx_hal_rcc_ex.c ****           }
3468:Drivers/STM32L4xx_HAL_Driver/Src/stm32l4xx_hal_rcc_ex.c ****           else
3469:Drivers/STM32L4xx_HAL_Driver/Src/stm32l4xx_hal_rcc_ex.c ****           {
3470:Drivers/STM32L4xx_HAL_Driver/Src/stm32l4xx_hal_rcc_ex.c ****             pllp = 7U;
3471:Drivers/STM32L4xx_HAL_Driver/Src/stm32l4xx_hal_rcc_ex.c ****           }
3472:Drivers/STM32L4xx_HAL_Driver/Src/stm32l4xx_hal_rcc_ex.c ****         }
3473:Drivers/STM32L4xx_HAL_Driver/Src/stm32l4xx_hal_rcc_ex.c ****         frequency = (pllvco * plln) / pllp;
3474:Drivers/STM32L4xx_HAL_Driver/Src/stm32l4xx_hal_rcc_ex.c ****       }
3475:Drivers/STM32L4xx_HAL_Driver/Src/stm32l4xx_hal_rcc_ex.c ****       else if(HAL_IS_BIT_SET(RCC->CR, RCC_CR_HSIRDY))
3476:Drivers/STM32L4xx_HAL_Driver/Src/stm32l4xx_hal_rcc_ex.c ****       {
3477:Drivers/STM32L4xx_HAL_Driver/Src/stm32l4xx_hal_rcc_ex.c ****         /* HSI automatically selected as clock source if PLLs not enabled */
3478:Drivers/STM32L4xx_HAL_Driver/Src/stm32l4xx_hal_rcc_ex.c ****         frequency = HSI_VALUE;
3479:Drivers/STM32L4xx_HAL_Driver/Src/stm32l4xx_hal_rcc_ex.c ****       }
3480:Drivers/STM32L4xx_HAL_Driver/Src/stm32l4xx_hal_rcc_ex.c ****       else
3481:Drivers/STM32L4xx_HAL_Driver/Src/stm32l4xx_hal_rcc_ex.c ****       {
3482:Drivers/STM32L4xx_HAL_Driver/Src/stm32l4xx_hal_rcc_ex.c ****         /* No clock source, frequency default init at 0 */
3483:Drivers/STM32L4xx_HAL_Driver/Src/stm32l4xx_hal_rcc_ex.c ****       }
3484:Drivers/STM32L4xx_HAL_Driver/Src/stm32l4xx_hal_rcc_ex.c ****     }
3485:Drivers/STM32L4xx_HAL_Driver/Src/stm32l4xx_hal_rcc_ex.c **** #endif /* SAI2 */
3486:Drivers/STM32L4xx_HAL_Driver/Src/stm32l4xx_hal_rcc_ex.c **** 
3487:Drivers/STM32L4xx_HAL_Driver/Src/stm32l4xx_hal_rcc_ex.c **** #if defined(RCC_PLLSAI2_SUPPORT)
3488:Drivers/STM32L4xx_HAL_Driver/Src/stm32l4xx_hal_rcc_ex.c **** 
ARM GAS  C:\Users\Morroway\AppData\Local\Temp\ccOmimY8.s 			page 179


3489:Drivers/STM32L4xx_HAL_Driver/Src/stm32l4xx_hal_rcc_ex.c ****     else if((srcclk == RCC_SAI1CLKSOURCE_PLLSAI2) || (srcclk == RCC_SAI2CLKSOURCE_PLLSAI2))
 6223              		.loc 1 3489 12
 6224 0186 BB69     		ldr	r3, [r7, #24]
 6225 0188 202B     		cmp	r3, #32
 6226 018a 03D0     		beq	.L518
 6227              		.loc 1 3489 51 discriminator 1
 6228 018c BB69     		ldr	r3, [r7, #24]
 6229 018e B3F5807F 		cmp	r3, #256
 6230 0192 3AD1     		bne	.L506
 6231              	.L518:
3490:Drivers/STM32L4xx_HAL_Driver/Src/stm32l4xx_hal_rcc_ex.c ****     {
3491:Drivers/STM32L4xx_HAL_Driver/Src/stm32l4xx_hal_rcc_ex.c ****       if(HAL_IS_BIT_SET(RCC->CR, RCC_CR_PLLSAI2RDY) && (__HAL_RCC_GET_PLLSAI2CLKOUT_CONFIG(RCC_PLLS
 6232              		.loc 1 3491 10
 6233 0194 204B     		ldr	r3, .L523
 6234 0196 1B68     		ldr	r3, [r3]
 6235 0198 03F00053 		and	r3, r3, #536870912
 6236              		.loc 1 3491 9
 6237 019c B3F1005F 		cmp	r3, #536870912
 6238 01a0 33D1     		bne	.L506
 6239              		.loc 1 3491 57 discriminator 1
 6240 01a2 1D4B     		ldr	r3, .L523
 6241 01a4 5B69     		ldr	r3, [r3, #20]
 6242 01a6 03F48033 		and	r3, r3, #65536
 6243              		.loc 1 3491 53 discriminator 1
 6244 01aa 002B     		cmp	r3, #0
 6245 01ac 2DD0     		beq	.L506
3492:Drivers/STM32L4xx_HAL_Driver/Src/stm32l4xx_hal_rcc_ex.c ****       {
3493:Drivers/STM32L4xx_HAL_Driver/Src/stm32l4xx_hal_rcc_ex.c **** #if defined(RCC_PLLSAI2M_DIV_1_16_SUPPORT)
3494:Drivers/STM32L4xx_HAL_Driver/Src/stm32l4xx_hal_rcc_ex.c ****         /* PLLSAI2M exists: apply PLLSAI2M divider for PLLSAI2 output computation */
3495:Drivers/STM32L4xx_HAL_Driver/Src/stm32l4xx_hal_rcc_ex.c ****         /* f(PLLSAI2 Source) / PLLSAI2M */
3496:Drivers/STM32L4xx_HAL_Driver/Src/stm32l4xx_hal_rcc_ex.c ****         pllvco = (pllvco / ((READ_BIT(RCC->PLLSAI2CFGR, RCC_PLLSAI2CFGR_PLLSAI2M) >> RCC_PLLSAI2CFG
 6246              		.loc 1 3496 30
 6247 01ae 1A4B     		ldr	r3, .L523
 6248 01b0 5B69     		ldr	r3, [r3, #20]
 6249              		.loc 1 3496 83
 6250 01b2 1B09     		lsrs	r3, r3, #4
 6251 01b4 03F00F03 		and	r3, r3, #15
 6252              		.loc 1 3496 116
 6253 01b8 0133     		adds	r3, r3, #1
 6254              		.loc 1 3496 16
 6255 01ba 3A69     		ldr	r2, [r7, #16]
 6256 01bc B2FBF3F3 		udiv	r3, r2, r3
 6257 01c0 3B61     		str	r3, [r7, #16]
3497:Drivers/STM32L4xx_HAL_Driver/Src/stm32l4xx_hal_rcc_ex.c **** #else
3498:Drivers/STM32L4xx_HAL_Driver/Src/stm32l4xx_hal_rcc_ex.c ****         /* f(PLL Source) / PLLM */
3499:Drivers/STM32L4xx_HAL_Driver/Src/stm32l4xx_hal_rcc_ex.c ****         pllvco = (pllvco / ((READ_BIT(RCC->PLLCFGR, RCC_PLLCFGR_PLLM) >> RCC_PLLCFGR_PLLM_Pos) + 1U
3500:Drivers/STM32L4xx_HAL_Driver/Src/stm32l4xx_hal_rcc_ex.c **** #endif
3501:Drivers/STM32L4xx_HAL_Driver/Src/stm32l4xx_hal_rcc_ex.c ****         /* f(PLLSAI2CLK) = f(VCOSAI2 input) * PLLSAI2N / PLLSAI2P */
3502:Drivers/STM32L4xx_HAL_Driver/Src/stm32l4xx_hal_rcc_ex.c ****         plln = READ_BIT(RCC->PLLSAI2CFGR, RCC_PLLSAI2CFGR_PLLSAI2N) >> RCC_PLLSAI2CFGR_PLLSAI2N_Pos
 6258              		.loc 1 3502 16
 6259 01c2 154B     		ldr	r3, .L523
 6260 01c4 5B69     		ldr	r3, [r3, #20]
 6261              		.loc 1 3502 69
 6262 01c6 1B0A     		lsrs	r3, r3, #8
 6263              		.loc 1 3502 14
 6264 01c8 03F07F03 		and	r3, r3, #127
 6265 01cc FB60     		str	r3, [r7, #12]
ARM GAS  C:\Users\Morroway\AppData\Local\Temp\ccOmimY8.s 			page 180


3503:Drivers/STM32L4xx_HAL_Driver/Src/stm32l4xx_hal_rcc_ex.c **** #if defined(RCC_PLLSAI2P_DIV_2_31_SUPPORT)
3504:Drivers/STM32L4xx_HAL_Driver/Src/stm32l4xx_hal_rcc_ex.c ****         pllp = READ_BIT(RCC->PLLSAI2CFGR, RCC_PLLSAI2CFGR_PLLSAI2PDIV) >> RCC_PLLSAI2CFGR_PLLSAI2PD
 6266              		.loc 1 3504 16
 6267 01ce 124B     		ldr	r3, .L523
 6268 01d0 5B69     		ldr	r3, [r3, #20]
 6269              		.loc 1 3504 72
 6270 01d2 DB0E     		lsrs	r3, r3, #27
 6271              		.loc 1 3504 14
 6272 01d4 03F01F03 		and	r3, r3, #31
 6273 01d8 7B61     		str	r3, [r7, #20]
3505:Drivers/STM32L4xx_HAL_Driver/Src/stm32l4xx_hal_rcc_ex.c **** #endif
3506:Drivers/STM32L4xx_HAL_Driver/Src/stm32l4xx_hal_rcc_ex.c ****         if(pllp == 0U)
 6274              		.loc 1 3506 11
 6275 01da 7B69     		ldr	r3, [r7, #20]
 6276 01dc 002B     		cmp	r3, #0
 6277 01de 0AD1     		bne	.L519
3507:Drivers/STM32L4xx_HAL_Driver/Src/stm32l4xx_hal_rcc_ex.c ****         {
3508:Drivers/STM32L4xx_HAL_Driver/Src/stm32l4xx_hal_rcc_ex.c ****           if(READ_BIT(RCC->PLLSAI2CFGR, RCC_PLLSAI2CFGR_PLLSAI2P) != 0U)
 6278              		.loc 1 3508 14
 6279 01e0 0D4B     		ldr	r3, .L523
 6280 01e2 5B69     		ldr	r3, [r3, #20]
 6281 01e4 03F40033 		and	r3, r3, #131072
 6282              		.loc 1 3508 13
 6283 01e8 002B     		cmp	r3, #0
 6284 01ea 02D0     		beq	.L520
3509:Drivers/STM32L4xx_HAL_Driver/Src/stm32l4xx_hal_rcc_ex.c ****           {
3510:Drivers/STM32L4xx_HAL_Driver/Src/stm32l4xx_hal_rcc_ex.c ****             pllp = 17U;
 6285              		.loc 1 3510 18
 6286 01ec 1123     		movs	r3, #17
 6287 01ee 7B61     		str	r3, [r7, #20]
 6288 01f0 01E0     		b	.L519
 6289              	.L520:
3511:Drivers/STM32L4xx_HAL_Driver/Src/stm32l4xx_hal_rcc_ex.c ****           }
3512:Drivers/STM32L4xx_HAL_Driver/Src/stm32l4xx_hal_rcc_ex.c ****           else
3513:Drivers/STM32L4xx_HAL_Driver/Src/stm32l4xx_hal_rcc_ex.c ****           {
3514:Drivers/STM32L4xx_HAL_Driver/Src/stm32l4xx_hal_rcc_ex.c ****             pllp = 7U;
 6290              		.loc 1 3514 18
 6291 01f2 0723     		movs	r3, #7
 6292 01f4 7B61     		str	r3, [r7, #20]
 6293              	.L519:
3515:Drivers/STM32L4xx_HAL_Driver/Src/stm32l4xx_hal_rcc_ex.c ****           }
3516:Drivers/STM32L4xx_HAL_Driver/Src/stm32l4xx_hal_rcc_ex.c ****         }
3517:Drivers/STM32L4xx_HAL_Driver/Src/stm32l4xx_hal_rcc_ex.c ****         frequency = (pllvco * plln) / pllp;
 6294              		.loc 1 3517 29
 6295 01f6 3B69     		ldr	r3, [r7, #16]
 6296 01f8 FA68     		ldr	r2, [r7, #12]
 6297 01fa 03FB02F2 		mul	r2, r3, r2
 6298              		.loc 1 3517 19
 6299 01fe 7B69     		ldr	r3, [r7, #20]
 6300 0200 B2FBF3F3 		udiv	r3, r2, r3
 6301 0204 FB61     		str	r3, [r7, #28]
 6302 0206 00E0     		b	.L506
 6303              	.L522:
3346:Drivers/STM32L4xx_HAL_Driver/Src/stm32l4xx_hal_rcc_ex.c ****       {
 6304              		.loc 1 3346 9
 6305 0208 00BF     		nop
 6306              	.L506:
ARM GAS  C:\Users\Morroway\AppData\Local\Temp\ccOmimY8.s 			page 181


3518:Drivers/STM32L4xx_HAL_Driver/Src/stm32l4xx_hal_rcc_ex.c ****       }
3519:Drivers/STM32L4xx_HAL_Driver/Src/stm32l4xx_hal_rcc_ex.c ****     }
3520:Drivers/STM32L4xx_HAL_Driver/Src/stm32l4xx_hal_rcc_ex.c **** 
3521:Drivers/STM32L4xx_HAL_Driver/Src/stm32l4xx_hal_rcc_ex.c **** #endif /* RCC_PLLSAI2_SUPPORT */
3522:Drivers/STM32L4xx_HAL_Driver/Src/stm32l4xx_hal_rcc_ex.c **** 
3523:Drivers/STM32L4xx_HAL_Driver/Src/stm32l4xx_hal_rcc_ex.c ****     else
3524:Drivers/STM32L4xx_HAL_Driver/Src/stm32l4xx_hal_rcc_ex.c ****     {
3525:Drivers/STM32L4xx_HAL_Driver/Src/stm32l4xx_hal_rcc_ex.c ****       /* No clock source, frequency default init at 0 */
3526:Drivers/STM32L4xx_HAL_Driver/Src/stm32l4xx_hal_rcc_ex.c ****     }
3527:Drivers/STM32L4xx_HAL_Driver/Src/stm32l4xx_hal_rcc_ex.c ****   }
3528:Drivers/STM32L4xx_HAL_Driver/Src/stm32l4xx_hal_rcc_ex.c **** 
3529:Drivers/STM32L4xx_HAL_Driver/Src/stm32l4xx_hal_rcc_ex.c **** 
3530:Drivers/STM32L4xx_HAL_Driver/Src/stm32l4xx_hal_rcc_ex.c ****   return frequency;
 6307              		.loc 1 3530 10
 6308 020a FB69     		ldr	r3, [r7, #28]
3531:Drivers/STM32L4xx_HAL_Driver/Src/stm32l4xx_hal_rcc_ex.c **** }
 6309              		.loc 1 3531 1
 6310 020c 1846     		mov	r0, r3
 6311 020e 2437     		adds	r7, r7, #36
 6312              		.cfi_def_cfa_offset 4
 6313 0210 BD46     		mov	sp, r7
 6314              		.cfi_def_cfa_register 13
 6315              		@ sp needed
 6316 0212 5DF8047B 		ldr	r7, [sp], #4
 6317              		.cfi_restore 7
 6318              		.cfi_def_cfa_offset 0
 6319 0216 7047     		bx	lr
 6320              	.L524:
 6321              		.align	2
 6322              	.L523:
 6323 0218 00100240 		.word	1073876992
 6324 021c 68FF1F00 		.word	2097000
 6325 0220 0024F400 		.word	16000000
 6326              		.cfi_endproc
 6327              	.LFE351:
 6329              		.text
 6330              	.Letext0:
 6331              		.file 2 "c:\\users\\morroway\\appdata\\roaming\\code\\user\\globalstorage\\bmd.stm32-for-vscode\\@
 6332              		.file 3 "c:\\users\\morroway\\appdata\\roaming\\code\\user\\globalstorage\\bmd.stm32-for-vscode\\@
 6333              		.file 4 "Drivers/CMSIS/Device/ST/STM32L4xx/Include/stm32l4p5xx.h"
 6334              		.file 5 "Drivers/CMSIS/Device/ST/STM32L4xx/Include/stm32l4xx.h"
 6335              		.file 6 "Drivers/STM32L4xx_HAL_Driver/Inc/stm32l4xx_hal_def.h"
 6336              		.file 7 "Drivers/STM32L4xx_HAL_Driver/Inc/stm32l4xx_hal_rcc_ex.h"
 6337              		.file 8 "Drivers/STM32L4xx_HAL_Driver/Inc/stm32l4xx_hal_gpio.h"
 6338              		.file 9 "Drivers/STM32L4xx_HAL_Driver/Inc/stm32l4xx_hal_pwr.h"
 6339              		.file 10 "Drivers/STM32L4xx_HAL_Driver/Inc/stm32l4xx_hal_rcc.h"
 6340              		.file 11 "Drivers/STM32L4xx_HAL_Driver/Inc/stm32l4xx_hal.h"
 6341              		.file 12 "Drivers/CMSIS/Device/ST/STM32L4xx/Include/system_stm32l4xx.h"
ARM GAS  C:\Users\Morroway\AppData\Local\Temp\ccOmimY8.s 			page 182


DEFINED SYMBOLS
                            *ABS*:0000000000000000 stm32l4xx_hal_rcc_ex.c
C:\Users\Morroway\AppData\Local\Temp\ccOmimY8.s:20     .text.HAL_RCCEx_PeriphCLKConfig:0000000000000000 $t
C:\Users\Morroway\AppData\Local\Temp\ccOmimY8.s:26     .text.HAL_RCCEx_PeriphCLKConfig:0000000000000000 HAL_RCCEx_PeriphCLKConfig
C:\Users\Morroway\AppData\Local\Temp\ccOmimY8.s:5308   .text.RCCEx_PLLSAI1_Config:0000000000000000 RCCEx_PLLSAI1_Config
C:\Users\Morroway\AppData\Local\Temp\ccOmimY8.s:5641   .text.RCCEx_PLLSAI2_Config:0000000000000000 RCCEx_PLLSAI2_Config
C:\Users\Morroway\AppData\Local\Temp\ccOmimY8.s:410    .text.HAL_RCCEx_PeriphCLKConfig:0000000000000268 $d
C:\Users\Morroway\AppData\Local\Temp\ccOmimY8.s:414    .text.HAL_RCCEx_PeriphCLKConfig:0000000000000270 $t
C:\Users\Morroway\AppData\Local\Temp\ccOmimY8.s:764    .text.HAL_RCCEx_PeriphCLKConfig:00000000000004fc $d
C:\Users\Morroway\AppData\Local\Temp\ccOmimY8.s:767    .text.HAL_RCCEx_PeriphCLKConfig:0000000000000500 $t
C:\Users\Morroway\AppData\Local\Temp\ccOmimY8.s:1032   .text.HAL_RCCEx_PeriphCLKConfig:00000000000006d4 $d
C:\Users\Morroway\AppData\Local\Temp\ccOmimY8.s:1037   .text.HAL_RCCEx_GetPeriphCLKConfig:0000000000000000 $t
C:\Users\Morroway\AppData\Local\Temp\ccOmimY8.s:1043   .text.HAL_RCCEx_GetPeriphCLKConfig:0000000000000000 HAL_RCCEx_GetPeriphCLKConfig
C:\Users\Morroway\AppData\Local\Temp\ccOmimY8.s:1369   .text.HAL_RCCEx_GetPeriphCLKConfig:0000000000000224 $d
C:\Users\Morroway\AppData\Local\Temp\ccOmimY8.s:1374   .text.HAL_RCCEx_GetPeriphCLKFreq:0000000000000000 $t
C:\Users\Morroway\AppData\Local\Temp\ccOmimY8.s:1380   .text.HAL_RCCEx_GetPeriphCLKFreq:0000000000000000 HAL_RCCEx_GetPeriphCLKFreq
C:\Users\Morroway\AppData\Local\Temp\ccOmimY8.s:1676   .text.HAL_RCCEx_GetPeriphCLKFreq:0000000000000264 $d
C:\Users\Morroway\AppData\Local\Temp\ccOmimY8.s:1712   .text.HAL_RCCEx_GetPeriphCLKFreq:00000000000002e4 $d
C:\Users\Morroway\AppData\Local\Temp\ccOmimY8.s:1718   .text.HAL_RCCEx_GetPeriphCLKFreq:00000000000002f8 $t
C:\Users\Morroway\AppData\Local\Temp\ccOmimY8.s:5974   .text.RCCEx_GetSAIxPeriphCLKFreq:0000000000000000 RCCEx_GetSAIxPeriphCLKFreq
C:\Users\Morroway\AppData\Local\Temp\ccOmimY8.s:2090   .text.HAL_RCCEx_GetPeriphCLKFreq:0000000000000590 $d
C:\Users\Morroway\AppData\Local\Temp\ccOmimY8.s:2095   .text.HAL_RCCEx_GetPeriphCLKFreq:000000000000059c $t
C:\Users\Morroway\AppData\Local\Temp\ccOmimY8.s:2249   .text.HAL_RCCEx_GetPeriphCLKFreq:0000000000000690 $d
C:\Users\Morroway\AppData\Local\Temp\ccOmimY8.s:2253   .text.HAL_RCCEx_GetPeriphCLKFreq:00000000000006a0 $t
C:\Users\Morroway\AppData\Local\Temp\ccOmimY8.s:2320   .text.HAL_RCCEx_GetPeriphCLKFreq:0000000000000700 $d
C:\Users\Morroway\AppData\Local\Temp\ccOmimY8.s:2333   .text.HAL_RCCEx_GetPeriphCLKFreq:0000000000000734 $t
C:\Users\Morroway\AppData\Local\Temp\ccOmimY8.s:2507   .text.HAL_RCCEx_GetPeriphCLKFreq:0000000000000834 $d
C:\Users\Morroway\AppData\Local\Temp\ccOmimY8.s:2512   .text.HAL_RCCEx_GetPeriphCLKFreq:0000000000000840 $t
C:\Users\Morroway\AppData\Local\Temp\ccOmimY8.s:2904   .text.HAL_RCCEx_GetPeriphCLKFreq:0000000000000ab4 $d
C:\Users\Morroway\AppData\Local\Temp\ccOmimY8.s:2908   .text.HAL_RCCEx_GetPeriphCLKFreq:0000000000000abc $t
C:\Users\Morroway\AppData\Local\Temp\ccOmimY8.s:3299   .text.HAL_RCCEx_GetPeriphCLKFreq:0000000000000d2c $d
C:\Users\Morroway\AppData\Local\Temp\ccOmimY8.s:3303   .text.HAL_RCCEx_GetPeriphCLKFreq:0000000000000d34 $t
C:\Users\Morroway\AppData\Local\Temp\ccOmimY8.s:3420   .text.HAL_RCCEx_GetPeriphCLKFreq:0000000000000dd0 $d
C:\Users\Morroway\AppData\Local\Temp\ccOmimY8.s:3426   .text.HAL_RCCEx_EnablePLLSAI1:0000000000000000 $t
C:\Users\Morroway\AppData\Local\Temp\ccOmimY8.s:3432   .text.HAL_RCCEx_EnablePLLSAI1:0000000000000000 HAL_RCCEx_EnablePLLSAI1
C:\Users\Morroway\AppData\Local\Temp\ccOmimY8.s:3577   .text.HAL_RCCEx_EnablePLLSAI1:00000000000000d0 $d
C:\Users\Morroway\AppData\Local\Temp\ccOmimY8.s:3583   .text.HAL_RCCEx_DisablePLLSAI1:0000000000000000 $t
C:\Users\Morroway\AppData\Local\Temp\ccOmimY8.s:3589   .text.HAL_RCCEx_DisablePLLSAI1:0000000000000000 HAL_RCCEx_DisablePLLSAI1
C:\Users\Morroway\AppData\Local\Temp\ccOmimY8.s:3675   .text.HAL_RCCEx_DisablePLLSAI1:0000000000000070 $d
C:\Users\Morroway\AppData\Local\Temp\ccOmimY8.s:3680   .text.HAL_RCCEx_EnablePLLSAI2:0000000000000000 $t
C:\Users\Morroway\AppData\Local\Temp\ccOmimY8.s:3686   .text.HAL_RCCEx_EnablePLLSAI2:0000000000000000 HAL_RCCEx_EnablePLLSAI2
C:\Users\Morroway\AppData\Local\Temp\ccOmimY8.s:3831   .text.HAL_RCCEx_EnablePLLSAI2:00000000000000d0 $d
C:\Users\Morroway\AppData\Local\Temp\ccOmimY8.s:3837   .text.HAL_RCCEx_DisablePLLSAI2:0000000000000000 $t
C:\Users\Morroway\AppData\Local\Temp\ccOmimY8.s:3843   .text.HAL_RCCEx_DisablePLLSAI2:0000000000000000 HAL_RCCEx_DisablePLLSAI2
C:\Users\Morroway\AppData\Local\Temp\ccOmimY8.s:3929   .text.HAL_RCCEx_DisablePLLSAI2:0000000000000070 $d
C:\Users\Morroway\AppData\Local\Temp\ccOmimY8.s:3934   .text.HAL_RCCEx_WakeUpStopCLKConfig:0000000000000000 $t
C:\Users\Morroway\AppData\Local\Temp\ccOmimY8.s:3940   .text.HAL_RCCEx_WakeUpStopCLKConfig:0000000000000000 HAL_RCCEx_WakeUpStopCLKConfig
C:\Users\Morroway\AppData\Local\Temp\ccOmimY8.s:3977   .text.HAL_RCCEx_WakeUpStopCLKConfig:0000000000000024 $d
C:\Users\Morroway\AppData\Local\Temp\ccOmimY8.s:3982   .text.HAL_RCCEx_StandbyMSIRangeConfig:0000000000000000 $t
C:\Users\Morroway\AppData\Local\Temp\ccOmimY8.s:3988   .text.HAL_RCCEx_StandbyMSIRangeConfig:0000000000000000 HAL_RCCEx_StandbyMSIRangeConfig
C:\Users\Morroway\AppData\Local\Temp\ccOmimY8.s:4026   .text.HAL_RCCEx_StandbyMSIRangeConfig:000000000000002c $d
C:\Users\Morroway\AppData\Local\Temp\ccOmimY8.s:4031   .text.HAL_RCCEx_EnableLSECSS:0000000000000000 $t
C:\Users\Morroway\AppData\Local\Temp\ccOmimY8.s:4037   .text.HAL_RCCEx_EnableLSECSS:0000000000000000 HAL_RCCEx_EnableLSECSS
C:\Users\Morroway\AppData\Local\Temp\ccOmimY8.s:4067   .text.HAL_RCCEx_EnableLSECSS:0000000000000020 $d
C:\Users\Morroway\AppData\Local\Temp\ccOmimY8.s:4072   .text.HAL_RCCEx_DisableLSECSS:0000000000000000 $t
C:\Users\Morroway\AppData\Local\Temp\ccOmimY8.s:4078   .text.HAL_RCCEx_DisableLSECSS:0000000000000000 HAL_RCCEx_DisableLSECSS
C:\Users\Morroway\AppData\Local\Temp\ccOmimY8.s:4114   .text.HAL_RCCEx_DisableLSECSS:000000000000002c $d
ARM GAS  C:\Users\Morroway\AppData\Local\Temp\ccOmimY8.s 			page 183


C:\Users\Morroway\AppData\Local\Temp\ccOmimY8.s:4119   .text.HAL_RCCEx_EnableLSECSS_IT:0000000000000000 $t
C:\Users\Morroway\AppData\Local\Temp\ccOmimY8.s:4125   .text.HAL_RCCEx_EnableLSECSS_IT:0000000000000000 HAL_RCCEx_EnableLSECSS_IT
C:\Users\Morroway\AppData\Local\Temp\ccOmimY8.s:4173   .text.HAL_RCCEx_EnableLSECSS_IT:0000000000000044 $d
C:\Users\Morroway\AppData\Local\Temp\ccOmimY8.s:4179   .text.HAL_RCCEx_LSECSS_IRQHandler:0000000000000000 $t
C:\Users\Morroway\AppData\Local\Temp\ccOmimY8.s:4185   .text.HAL_RCCEx_LSECSS_IRQHandler:0000000000000000 HAL_RCCEx_LSECSS_IRQHandler
C:\Users\Morroway\AppData\Local\Temp\ccOmimY8.s:4228   .text.HAL_RCCEx_LSECSS_Callback:0000000000000000 HAL_RCCEx_LSECSS_Callback
C:\Users\Morroway\AppData\Local\Temp\ccOmimY8.s:4217   .text.HAL_RCCEx_LSECSS_IRQHandler:0000000000000024 $d
C:\Users\Morroway\AppData\Local\Temp\ccOmimY8.s:4222   .text.HAL_RCCEx_LSECSS_Callback:0000000000000000 $t
C:\Users\Morroway\AppData\Local\Temp\ccOmimY8.s:4253   .text.HAL_RCCEx_EnableLSCO:0000000000000000 $t
C:\Users\Morroway\AppData\Local\Temp\ccOmimY8.s:4259   .text.HAL_RCCEx_EnableLSCO:0000000000000000 HAL_RCCEx_EnableLSCO
C:\Users\Morroway\AppData\Local\Temp\ccOmimY8.s:4385   .text.HAL_RCCEx_EnableLSCO:00000000000000cc $d
C:\Users\Morroway\AppData\Local\Temp\ccOmimY8.s:4391   .text.HAL_RCCEx_DisableLSCO:0000000000000000 $t
C:\Users\Morroway\AppData\Local\Temp\ccOmimY8.s:4397   .text.HAL_RCCEx_DisableLSCO:0000000000000000 HAL_RCCEx_DisableLSCO
C:\Users\Morroway\AppData\Local\Temp\ccOmimY8.s:4489   .text.HAL_RCCEx_DisableLSCO:0000000000000080 $d
C:\Users\Morroway\AppData\Local\Temp\ccOmimY8.s:4495   .text.HAL_RCCEx_EnableMSIPLLMode:0000000000000000 $t
C:\Users\Morroway\AppData\Local\Temp\ccOmimY8.s:4501   .text.HAL_RCCEx_EnableMSIPLLMode:0000000000000000 HAL_RCCEx_EnableMSIPLLMode
C:\Users\Morroway\AppData\Local\Temp\ccOmimY8.s:4531   .text.HAL_RCCEx_EnableMSIPLLMode:000000000000001c $d
C:\Users\Morroway\AppData\Local\Temp\ccOmimY8.s:4536   .text.HAL_RCCEx_DisableMSIPLLMode:0000000000000000 $t
C:\Users\Morroway\AppData\Local\Temp\ccOmimY8.s:4542   .text.HAL_RCCEx_DisableMSIPLLMode:0000000000000000 HAL_RCCEx_DisableMSIPLLMode
C:\Users\Morroway\AppData\Local\Temp\ccOmimY8.s:4572   .text.HAL_RCCEx_DisableMSIPLLMode:000000000000001c $d
C:\Users\Morroway\AppData\Local\Temp\ccOmimY8.s:4577   .text.HAL_RCCEx_OCTOSPIDelayConfig:0000000000000000 $t
C:\Users\Morroway\AppData\Local\Temp\ccOmimY8.s:4583   .text.HAL_RCCEx_OCTOSPIDelayConfig:0000000000000000 HAL_RCCEx_OCTOSPIDelayConfig
C:\Users\Morroway\AppData\Local\Temp\ccOmimY8.s:4624   .text.HAL_RCCEx_OCTOSPIDelayConfig:0000000000000030 $d
C:\Users\Morroway\AppData\Local\Temp\ccOmimY8.s:4629   .text.HAL_RCCEx_CRSConfig:0000000000000000 $t
C:\Users\Morroway\AppData\Local\Temp\ccOmimY8.s:4635   .text.HAL_RCCEx_CRSConfig:0000000000000000 HAL_RCCEx_CRSConfig
C:\Users\Morroway\AppData\Local\Temp\ccOmimY8.s:4726   .text.HAL_RCCEx_CRSConfig:000000000000007c $d
C:\Users\Morroway\AppData\Local\Temp\ccOmimY8.s:4732   .text.HAL_RCCEx_CRSSoftwareSynchronizationGenerate:0000000000000000 $t
C:\Users\Morroway\AppData\Local\Temp\ccOmimY8.s:4738   .text.HAL_RCCEx_CRSSoftwareSynchronizationGenerate:0000000000000000 HAL_RCCEx_CRSSoftwareSynchronizationGenerate
C:\Users\Morroway\AppData\Local\Temp\ccOmimY8.s:4768   .text.HAL_RCCEx_CRSSoftwareSynchronizationGenerate:000000000000001c $d
C:\Users\Morroway\AppData\Local\Temp\ccOmimY8.s:4773   .text.HAL_RCCEx_CRSGetSynchronizationInfo:0000000000000000 $t
C:\Users\Morroway\AppData\Local\Temp\ccOmimY8.s:4779   .text.HAL_RCCEx_CRSGetSynchronizationInfo:0000000000000000 HAL_RCCEx_CRSGetSynchronizationInfo
C:\Users\Morroway\AppData\Local\Temp\ccOmimY8.s:4840   .text.HAL_RCCEx_CRSGetSynchronizationInfo:0000000000000044 $d
C:\Users\Morroway\AppData\Local\Temp\ccOmimY8.s:4845   .text.HAL_RCCEx_CRSWaitSynchronization:0000000000000000 $t
C:\Users\Morroway\AppData\Local\Temp\ccOmimY8.s:4851   .text.HAL_RCCEx_CRSWaitSynchronization:0000000000000000 HAL_RCCEx_CRSWaitSynchronization
C:\Users\Morroway\AppData\Local\Temp\ccOmimY8.s:5005   .text.HAL_RCCEx_CRSWaitSynchronization:00000000000000e0 $d
C:\Users\Morroway\AppData\Local\Temp\ccOmimY8.s:5010   .text.HAL_RCCEx_CRS_IRQHandler:0000000000000000 $t
C:\Users\Morroway\AppData\Local\Temp\ccOmimY8.s:5016   .text.HAL_RCCEx_CRS_IRQHandler:0000000000000000 HAL_RCCEx_CRS_IRQHandler
C:\Users\Morroway\AppData\Local\Temp\ccOmimY8.s:5180   .text.HAL_RCCEx_CRS_SyncOkCallback:0000000000000000 HAL_RCCEx_CRS_SyncOkCallback
C:\Users\Morroway\AppData\Local\Temp\ccOmimY8.s:5211   .text.HAL_RCCEx_CRS_SyncWarnCallback:0000000000000000 HAL_RCCEx_CRS_SyncWarnCallback
C:\Users\Morroway\AppData\Local\Temp\ccOmimY8.s:5242   .text.HAL_RCCEx_CRS_ExpectedSyncCallback:0000000000000000 HAL_RCCEx_CRS_ExpectedSyncCallback
C:\Users\Morroway\AppData\Local\Temp\ccOmimY8.s:5273   .text.HAL_RCCEx_CRS_ErrorCallback:0000000000000000 HAL_RCCEx_CRS_ErrorCallback
C:\Users\Morroway\AppData\Local\Temp\ccOmimY8.s:5169   .text.HAL_RCCEx_CRS_IRQHandler:00000000000000d8 $d
C:\Users\Morroway\AppData\Local\Temp\ccOmimY8.s:5174   .text.HAL_RCCEx_CRS_SyncOkCallback:0000000000000000 $t
C:\Users\Morroway\AppData\Local\Temp\ccOmimY8.s:5205   .text.HAL_RCCEx_CRS_SyncWarnCallback:0000000000000000 $t
C:\Users\Morroway\AppData\Local\Temp\ccOmimY8.s:5236   .text.HAL_RCCEx_CRS_ExpectedSyncCallback:0000000000000000 $t
C:\Users\Morroway\AppData\Local\Temp\ccOmimY8.s:5267   .text.HAL_RCCEx_CRS_ErrorCallback:0000000000000000 $t
C:\Users\Morroway\AppData\Local\Temp\ccOmimY8.s:5303   .text.RCCEx_PLLSAI1_Config:0000000000000000 $t
C:\Users\Morroway\AppData\Local\Temp\ccOmimY8.s:5628   .text.RCCEx_PLLSAI1_Config:00000000000001d8 $d
C:\Users\Morroway\AppData\Local\Temp\ccOmimY8.s:5636   .text.RCCEx_PLLSAI2_Config:0000000000000000 $t
C:\Users\Morroway\AppData\Local\Temp\ccOmimY8.s:5961   .text.RCCEx_PLLSAI2_Config:00000000000001d8 $d
C:\Users\Morroway\AppData\Local\Temp\ccOmimY8.s:5969   .text.RCCEx_GetSAIxPeriphCLKFreq:0000000000000000 $t
C:\Users\Morroway\AppData\Local\Temp\ccOmimY8.s:6323   .text.RCCEx_GetSAIxPeriphCLKFreq:0000000000000218 $d

UNDEFINED SYMBOLS
HAL_GetTick
MSIRangeTable
HAL_RCC_GetPCLK2Freq
ARM GAS  C:\Users\Morroway\AppData\Local\Temp\ccOmimY8.s 			page 184


HAL_RCC_GetSysClockFreq
HAL_RCC_GetPCLK1Freq
HAL_GPIO_Init
HAL_PWR_EnableBkUpAccess
HAL_PWR_DisableBkUpAccess
