ARM GAS  C:\Users\Morroway\AppData\Local\Temp\cckX7YxH.s 			page 1


   1              		.cpu cortex-m4
   2              		.arch armv7e-m
   3              		.fpu fpv4-sp-d16
   4              		.eabi_attribute 27, 1
   5              		.eabi_attribute 28, 1
   6              		.eabi_attribute 20, 1
   7              		.eabi_attribute 21, 1
   8              		.eabi_attribute 23, 3
   9              		.eabi_attribute 24, 1
  10              		.eabi_attribute 25, 1
  11              		.eabi_attribute 26, 1
  12              		.eabi_attribute 30, 6
  13              		.eabi_attribute 34, 1
  14              		.eabi_attribute 18, 4
  15              		.file	"stm32l4xx_hal_sd_ex.c"
  16              		.text
  17              	.Ltext0:
  18              		.cfi_sections	.debug_frame
  19              		.section	.text.HAL_SDEx_HighSpeed,"ax",%progbits
  20              		.align	1
  21              		.global	HAL_SDEx_HighSpeed
  22              		.syntax unified
  23              		.thumb
  24              		.thumb_func
  26              	HAL_SDEx_HighSpeed:
  27              	.LFB321:
  28              		.file 1 "Drivers/STM32L4xx_HAL_Driver/Src/stm32l4xx_hal_sd_ex.c"
   1:Drivers/STM32L4xx_HAL_Driver/Src/stm32l4xx_hal_sd_ex.c **** /**
   2:Drivers/STM32L4xx_HAL_Driver/Src/stm32l4xx_hal_sd_ex.c ****   ******************************************************************************
   3:Drivers/STM32L4xx_HAL_Driver/Src/stm32l4xx_hal_sd_ex.c ****   * @file    stm32l4xx_hal_sd_ex.c
   4:Drivers/STM32L4xx_HAL_Driver/Src/stm32l4xx_hal_sd_ex.c ****   * @author  MCD Application Team
   5:Drivers/STM32L4xx_HAL_Driver/Src/stm32l4xx_hal_sd_ex.c ****   * @brief   SD card Extended HAL module driver.
   6:Drivers/STM32L4xx_HAL_Driver/Src/stm32l4xx_hal_sd_ex.c ****   *          This file provides firmware functions to manage the following
   7:Drivers/STM32L4xx_HAL_Driver/Src/stm32l4xx_hal_sd_ex.c ****   *          functionalities of the Secure Digital (SD) peripheral:
   8:Drivers/STM32L4xx_HAL_Driver/Src/stm32l4xx_hal_sd_ex.c ****   *           + Extended features functions
   9:Drivers/STM32L4xx_HAL_Driver/Src/stm32l4xx_hal_sd_ex.c ****   *
  10:Drivers/STM32L4xx_HAL_Driver/Src/stm32l4xx_hal_sd_ex.c ****   ******************************************************************************
  11:Drivers/STM32L4xx_HAL_Driver/Src/stm32l4xx_hal_sd_ex.c ****   * @attention
  12:Drivers/STM32L4xx_HAL_Driver/Src/stm32l4xx_hal_sd_ex.c ****   *
  13:Drivers/STM32L4xx_HAL_Driver/Src/stm32l4xx_hal_sd_ex.c ****   * Copyright (c) 2017 STMicroelectronics.
  14:Drivers/STM32L4xx_HAL_Driver/Src/stm32l4xx_hal_sd_ex.c ****   * All rights reserved.
  15:Drivers/STM32L4xx_HAL_Driver/Src/stm32l4xx_hal_sd_ex.c ****   *
  16:Drivers/STM32L4xx_HAL_Driver/Src/stm32l4xx_hal_sd_ex.c ****   * This software is licensed under terms that can be found in the LICENSE file
  17:Drivers/STM32L4xx_HAL_Driver/Src/stm32l4xx_hal_sd_ex.c ****   * in the root directory of this software component.
  18:Drivers/STM32L4xx_HAL_Driver/Src/stm32l4xx_hal_sd_ex.c ****   * If no LICENSE file comes with this software, it is provided AS-IS.
  19:Drivers/STM32L4xx_HAL_Driver/Src/stm32l4xx_hal_sd_ex.c ****   *
  20:Drivers/STM32L4xx_HAL_Driver/Src/stm32l4xx_hal_sd_ex.c ****   ******************************************************************************
  21:Drivers/STM32L4xx_HAL_Driver/Src/stm32l4xx_hal_sd_ex.c ****   @verbatim
  22:Drivers/STM32L4xx_HAL_Driver/Src/stm32l4xx_hal_sd_ex.c ****   ==============================================================================
  23:Drivers/STM32L4xx_HAL_Driver/Src/stm32l4xx_hal_sd_ex.c ****                         ##### How to use this driver #####
  24:Drivers/STM32L4xx_HAL_Driver/Src/stm32l4xx_hal_sd_ex.c ****   ==============================================================================
  25:Drivers/STM32L4xx_HAL_Driver/Src/stm32l4xx_hal_sd_ex.c ****   [..]
  26:Drivers/STM32L4xx_HAL_Driver/Src/stm32l4xx_hal_sd_ex.c ****    The SD Extension HAL driver can be used as follows:
  27:Drivers/STM32L4xx_HAL_Driver/Src/stm32l4xx_hal_sd_ex.c ****    (+) Set card in High Speed mode using HAL_SDEx_HighSpeed() function.
  28:Drivers/STM32L4xx_HAL_Driver/Src/stm32l4xx_hal_sd_ex.c ****    (+) Configure Buffer0 and Buffer1 start address and Buffer size using HAL_SDEx_ConfigDMAMultiBuf
  29:Drivers/STM32L4xx_HAL_Driver/Src/stm32l4xx_hal_sd_ex.c ****    (+) Start Read and Write for multibuffer mode using HAL_SDEx_ReadBlocksDMAMultiBuffer() and HAL_
  30:Drivers/STM32L4xx_HAL_Driver/Src/stm32l4xx_hal_sd_ex.c **** 
ARM GAS  C:\Users\Morroway\AppData\Local\Temp\cckX7YxH.s 			page 2


  31:Drivers/STM32L4xx_HAL_Driver/Src/stm32l4xx_hal_sd_ex.c ****   @endverbatim
  32:Drivers/STM32L4xx_HAL_Driver/Src/stm32l4xx_hal_sd_ex.c ****   ******************************************************************************
  33:Drivers/STM32L4xx_HAL_Driver/Src/stm32l4xx_hal_sd_ex.c ****   */
  34:Drivers/STM32L4xx_HAL_Driver/Src/stm32l4xx_hal_sd_ex.c **** 
  35:Drivers/STM32L4xx_HAL_Driver/Src/stm32l4xx_hal_sd_ex.c **** /* Includes ------------------------------------------------------------------*/
  36:Drivers/STM32L4xx_HAL_Driver/Src/stm32l4xx_hal_sd_ex.c **** #include "stm32l4xx_hal.h"
  37:Drivers/STM32L4xx_HAL_Driver/Src/stm32l4xx_hal_sd_ex.c **** 
  38:Drivers/STM32L4xx_HAL_Driver/Src/stm32l4xx_hal_sd_ex.c **** #if defined(STM32L4P5xx) || defined(STM32L4Q5xx) || defined(STM32L4R5xx) || defined(STM32L4R7xx) ||
  39:Drivers/STM32L4xx_HAL_Driver/Src/stm32l4xx_hal_sd_ex.c **** 
  40:Drivers/STM32L4xx_HAL_Driver/Src/stm32l4xx_hal_sd_ex.c **** /** @addtogroup STM32L4xx_HAL_Driver
  41:Drivers/STM32L4xx_HAL_Driver/Src/stm32l4xx_hal_sd_ex.c ****   * @{
  42:Drivers/STM32L4xx_HAL_Driver/Src/stm32l4xx_hal_sd_ex.c ****   */
  43:Drivers/STM32L4xx_HAL_Driver/Src/stm32l4xx_hal_sd_ex.c **** 
  44:Drivers/STM32L4xx_HAL_Driver/Src/stm32l4xx_hal_sd_ex.c **** /** @defgroup SDEx SDEx
  45:Drivers/STM32L4xx_HAL_Driver/Src/stm32l4xx_hal_sd_ex.c ****   * @brief SD Extended HAL module driver
  46:Drivers/STM32L4xx_HAL_Driver/Src/stm32l4xx_hal_sd_ex.c ****   * @{
  47:Drivers/STM32L4xx_HAL_Driver/Src/stm32l4xx_hal_sd_ex.c ****   */
  48:Drivers/STM32L4xx_HAL_Driver/Src/stm32l4xx_hal_sd_ex.c **** 
  49:Drivers/STM32L4xx_HAL_Driver/Src/stm32l4xx_hal_sd_ex.c **** #ifdef HAL_SD_MODULE_ENABLED
  50:Drivers/STM32L4xx_HAL_Driver/Src/stm32l4xx_hal_sd_ex.c **** 
  51:Drivers/STM32L4xx_HAL_Driver/Src/stm32l4xx_hal_sd_ex.c **** /* Private typedef -----------------------------------------------------------*/
  52:Drivers/STM32L4xx_HAL_Driver/Src/stm32l4xx_hal_sd_ex.c **** /* Private define ------------------------------------------------------------*/
  53:Drivers/STM32L4xx_HAL_Driver/Src/stm32l4xx_hal_sd_ex.c **** /* Private macro -------------------------------------------------------------*/
  54:Drivers/STM32L4xx_HAL_Driver/Src/stm32l4xx_hal_sd_ex.c **** /* Private variables ---------------------------------------------------------*/
  55:Drivers/STM32L4xx_HAL_Driver/Src/stm32l4xx_hal_sd_ex.c **** /* Private function prototypes -----------------------------------------------*/
  56:Drivers/STM32L4xx_HAL_Driver/Src/stm32l4xx_hal_sd_ex.c **** /* Private functions ---------------------------------------------------------*/
  57:Drivers/STM32L4xx_HAL_Driver/Src/stm32l4xx_hal_sd_ex.c **** extern uint32_t SD_HighSpeed(SD_HandleTypeDef *hsd);
  58:Drivers/STM32L4xx_HAL_Driver/Src/stm32l4xx_hal_sd_ex.c **** /* Exported functions --------------------------------------------------------*/
  59:Drivers/STM32L4xx_HAL_Driver/Src/stm32l4xx_hal_sd_ex.c **** /** @addtogroup SDEx_Exported_Functions
  60:Drivers/STM32L4xx_HAL_Driver/Src/stm32l4xx_hal_sd_ex.c ****   * @{
  61:Drivers/STM32L4xx_HAL_Driver/Src/stm32l4xx_hal_sd_ex.c ****   */
  62:Drivers/STM32L4xx_HAL_Driver/Src/stm32l4xx_hal_sd_ex.c **** 
  63:Drivers/STM32L4xx_HAL_Driver/Src/stm32l4xx_hal_sd_ex.c **** /** @addtogroup SDEx_Exported_Functions_Group1
  64:Drivers/STM32L4xx_HAL_Driver/Src/stm32l4xx_hal_sd_ex.c ****  *  @brief   High Speed function
  65:Drivers/STM32L4xx_HAL_Driver/Src/stm32l4xx_hal_sd_ex.c ****  *
  66:Drivers/STM32L4xx_HAL_Driver/Src/stm32l4xx_hal_sd_ex.c **** @verbatim
  67:Drivers/STM32L4xx_HAL_Driver/Src/stm32l4xx_hal_sd_ex.c ****   ==============================================================================
  68:Drivers/STM32L4xx_HAL_Driver/Src/stm32l4xx_hal_sd_ex.c ****           ##### High Speed function #####
  69:Drivers/STM32L4xx_HAL_Driver/Src/stm32l4xx_hal_sd_ex.c ****   ==============================================================================
  70:Drivers/STM32L4xx_HAL_Driver/Src/stm32l4xx_hal_sd_ex.c ****   [..]
  71:Drivers/STM32L4xx_HAL_Driver/Src/stm32l4xx_hal_sd_ex.c ****     This section provides function allowing to configure the card in High Speed mode.
  72:Drivers/STM32L4xx_HAL_Driver/Src/stm32l4xx_hal_sd_ex.c **** 
  73:Drivers/STM32L4xx_HAL_Driver/Src/stm32l4xx_hal_sd_ex.c **** @endverbatim
  74:Drivers/STM32L4xx_HAL_Driver/Src/stm32l4xx_hal_sd_ex.c ****   * @{
  75:Drivers/STM32L4xx_HAL_Driver/Src/stm32l4xx_hal_sd_ex.c ****   */
  76:Drivers/STM32L4xx_HAL_Driver/Src/stm32l4xx_hal_sd_ex.c **** 
  77:Drivers/STM32L4xx_HAL_Driver/Src/stm32l4xx_hal_sd_ex.c **** /**
  78:Drivers/STM32L4xx_HAL_Driver/Src/stm32l4xx_hal_sd_ex.c ****   * @brief  Switches the SD card to High Speed mode.
  79:Drivers/STM32L4xx_HAL_Driver/Src/stm32l4xx_hal_sd_ex.c ****   *         This API must be used after "Transfer State"
  80:Drivers/STM32L4xx_HAL_Driver/Src/stm32l4xx_hal_sd_ex.c ****   * @note   This operation should be followed by the configuration
  81:Drivers/STM32L4xx_HAL_Driver/Src/stm32l4xx_hal_sd_ex.c ****   *         of PLL to have SDMMCCK clock between 50 and 120 MHz
  82:Drivers/STM32L4xx_HAL_Driver/Src/stm32l4xx_hal_sd_ex.c ****   * @param  hsd SD handle
  83:Drivers/STM32L4xx_HAL_Driver/Src/stm32l4xx_hal_sd_ex.c ****   * @retval SD Card error state
  84:Drivers/STM32L4xx_HAL_Driver/Src/stm32l4xx_hal_sd_ex.c ****   */
  85:Drivers/STM32L4xx_HAL_Driver/Src/stm32l4xx_hal_sd_ex.c **** uint32_t HAL_SDEx_HighSpeed(SD_HandleTypeDef *hsd)
  86:Drivers/STM32L4xx_HAL_Driver/Src/stm32l4xx_hal_sd_ex.c **** {
  29              		.loc 1 86 1
ARM GAS  C:\Users\Morroway\AppData\Local\Temp\cckX7YxH.s 			page 3


  30              		.cfi_startproc
  31              		@ args = 0, pretend = 0, frame = 8
  32              		@ frame_needed = 1, uses_anonymous_args = 0
  33 0000 80B5     		push	{r7, lr}
  34              		.cfi_def_cfa_offset 8
  35              		.cfi_offset 7, -8
  36              		.cfi_offset 14, -4
  37 0002 82B0     		sub	sp, sp, #8
  38              		.cfi_def_cfa_offset 16
  39 0004 00AF     		add	r7, sp, #0
  40              		.cfi_def_cfa_register 7
  41 0006 7860     		str	r0, [r7, #4]
  87:Drivers/STM32L4xx_HAL_Driver/Src/stm32l4xx_hal_sd_ex.c ****   return SD_HighSpeed (hsd);
  42              		.loc 1 87 10
  43 0008 7868     		ldr	r0, [r7, #4]
  44 000a FFF7FEFF 		bl	SD_HighSpeed
  45 000e 0346     		mov	r3, r0
  88:Drivers/STM32L4xx_HAL_Driver/Src/stm32l4xx_hal_sd_ex.c **** }
  46              		.loc 1 88 1
  47 0010 1846     		mov	r0, r3
  48 0012 0837     		adds	r7, r7, #8
  49              		.cfi_def_cfa_offset 8
  50 0014 BD46     		mov	sp, r7
  51              		.cfi_def_cfa_register 13
  52              		@ sp needed
  53 0016 80BD     		pop	{r7, pc}
  54              		.cfi_endproc
  55              	.LFE321:
  57              		.section	.text.HAL_SDEx_DriveTransceiver_1_8V_Callback,"ax",%progbits
  58              		.align	1
  59              		.weak	HAL_SDEx_DriveTransceiver_1_8V_Callback
  60              		.syntax unified
  61              		.thumb
  62              		.thumb_func
  64              	HAL_SDEx_DriveTransceiver_1_8V_Callback:
  65              	.LFB322:
  89:Drivers/STM32L4xx_HAL_Driver/Src/stm32l4xx_hal_sd_ex.c **** 
  90:Drivers/STM32L4xx_HAL_Driver/Src/stm32l4xx_hal_sd_ex.c **** /**
  91:Drivers/STM32L4xx_HAL_Driver/Src/stm32l4xx_hal_sd_ex.c ****   * @brief  Enable/Disable the SD Transceiver 1.8V Mode Callback.
  92:Drivers/STM32L4xx_HAL_Driver/Src/stm32l4xx_hal_sd_ex.c ****   * @param  status Voltage Switch State
  93:Drivers/STM32L4xx_HAL_Driver/Src/stm32l4xx_hal_sd_ex.c ****   * @retval None
  94:Drivers/STM32L4xx_HAL_Driver/Src/stm32l4xx_hal_sd_ex.c ****   */
  95:Drivers/STM32L4xx_HAL_Driver/Src/stm32l4xx_hal_sd_ex.c **** __weak void HAL_SDEx_DriveTransceiver_1_8V_Callback(FlagStatus status)
  96:Drivers/STM32L4xx_HAL_Driver/Src/stm32l4xx_hal_sd_ex.c **** {
  66              		.loc 1 96 1
  67              		.cfi_startproc
  68              		@ args = 0, pretend = 0, frame = 8
  69              		@ frame_needed = 1, uses_anonymous_args = 0
  70              		@ link register save eliminated.
  71 0000 80B4     		push	{r7}
  72              		.cfi_def_cfa_offset 4
  73              		.cfi_offset 7, -4
  74 0002 83B0     		sub	sp, sp, #12
  75              		.cfi_def_cfa_offset 16
  76 0004 00AF     		add	r7, sp, #0
  77              		.cfi_def_cfa_register 7
  78 0006 0346     		mov	r3, r0
ARM GAS  C:\Users\Morroway\AppData\Local\Temp\cckX7YxH.s 			page 4


  79 0008 FB71     		strb	r3, [r7, #7]
  97:Drivers/STM32L4xx_HAL_Driver/Src/stm32l4xx_hal_sd_ex.c ****   /* Prevent unused argument(s) compilation warning */
  98:Drivers/STM32L4xx_HAL_Driver/Src/stm32l4xx_hal_sd_ex.c ****   UNUSED(status);
  99:Drivers/STM32L4xx_HAL_Driver/Src/stm32l4xx_hal_sd_ex.c **** 
 100:Drivers/STM32L4xx_HAL_Driver/Src/stm32l4xx_hal_sd_ex.c ****   /* NOTE : This function Should not be modified, when the callback is needed,
 101:Drivers/STM32L4xx_HAL_Driver/Src/stm32l4xx_hal_sd_ex.c ****             the HAL_SD_EnableTransciver could be implemented in the user file
 102:Drivers/STM32L4xx_HAL_Driver/Src/stm32l4xx_hal_sd_ex.c ****    */
 103:Drivers/STM32L4xx_HAL_Driver/Src/stm32l4xx_hal_sd_ex.c **** }
  80              		.loc 1 103 1
  81 000a 00BF     		nop
  82 000c 0C37     		adds	r7, r7, #12
  83              		.cfi_def_cfa_offset 4
  84 000e BD46     		mov	sp, r7
  85              		.cfi_def_cfa_register 13
  86              		@ sp needed
  87 0010 5DF8047B 		ldr	r7, [sp], #4
  88              		.cfi_restore 7
  89              		.cfi_def_cfa_offset 0
  90 0014 7047     		bx	lr
  91              		.cfi_endproc
  92              	.LFE322:
  94              		.section	.text.HAL_SDEx_ConfigDMAMultiBuffer,"ax",%progbits
  95              		.align	1
  96              		.global	HAL_SDEx_ConfigDMAMultiBuffer
  97              		.syntax unified
  98              		.thumb
  99              		.thumb_func
 101              	HAL_SDEx_ConfigDMAMultiBuffer:
 102              	.LFB323:
 104:Drivers/STM32L4xx_HAL_Driver/Src/stm32l4xx_hal_sd_ex.c **** 
 105:Drivers/STM32L4xx_HAL_Driver/Src/stm32l4xx_hal_sd_ex.c **** /**
 106:Drivers/STM32L4xx_HAL_Driver/Src/stm32l4xx_hal_sd_ex.c ****   * @}
 107:Drivers/STM32L4xx_HAL_Driver/Src/stm32l4xx_hal_sd_ex.c ****   */
 108:Drivers/STM32L4xx_HAL_Driver/Src/stm32l4xx_hal_sd_ex.c **** 
 109:Drivers/STM32L4xx_HAL_Driver/Src/stm32l4xx_hal_sd_ex.c **** /** @addtogroup SDEx_Exported_Functions_Group2
 110:Drivers/STM32L4xx_HAL_Driver/Src/stm32l4xx_hal_sd_ex.c ****  *  @brief   Multibuffer functions
 111:Drivers/STM32L4xx_HAL_Driver/Src/stm32l4xx_hal_sd_ex.c ****  *
 112:Drivers/STM32L4xx_HAL_Driver/Src/stm32l4xx_hal_sd_ex.c **** @verbatim
 113:Drivers/STM32L4xx_HAL_Driver/Src/stm32l4xx_hal_sd_ex.c ****   ==============================================================================
 114:Drivers/STM32L4xx_HAL_Driver/Src/stm32l4xx_hal_sd_ex.c ****           ##### Multibuffer functions #####
 115:Drivers/STM32L4xx_HAL_Driver/Src/stm32l4xx_hal_sd_ex.c ****   ==============================================================================
 116:Drivers/STM32L4xx_HAL_Driver/Src/stm32l4xx_hal_sd_ex.c ****   [..]
 117:Drivers/STM32L4xx_HAL_Driver/Src/stm32l4xx_hal_sd_ex.c ****     This section provides functions allowing to configure the multibuffer mode and start read and w
 118:Drivers/STM32L4xx_HAL_Driver/Src/stm32l4xx_hal_sd_ex.c ****     multibuffer mode for SD HAL driver.
 119:Drivers/STM32L4xx_HAL_Driver/Src/stm32l4xx_hal_sd_ex.c **** 
 120:Drivers/STM32L4xx_HAL_Driver/Src/stm32l4xx_hal_sd_ex.c **** @endverbatim
 121:Drivers/STM32L4xx_HAL_Driver/Src/stm32l4xx_hal_sd_ex.c ****   * @{
 122:Drivers/STM32L4xx_HAL_Driver/Src/stm32l4xx_hal_sd_ex.c ****   */
 123:Drivers/STM32L4xx_HAL_Driver/Src/stm32l4xx_hal_sd_ex.c **** 
 124:Drivers/STM32L4xx_HAL_Driver/Src/stm32l4xx_hal_sd_ex.c **** /**
 125:Drivers/STM32L4xx_HAL_Driver/Src/stm32l4xx_hal_sd_ex.c ****   * @brief  Configure DMA Dual Buffer mode. The Data transfer is managed by an Internal DMA.
 126:Drivers/STM32L4xx_HAL_Driver/Src/stm32l4xx_hal_sd_ex.c ****   * @param  hsd SD handle
 127:Drivers/STM32L4xx_HAL_Driver/Src/stm32l4xx_hal_sd_ex.c ****   * @param  pDataBuffer0 Pointer to the buffer0 that will contain/receive the transferred data
 128:Drivers/STM32L4xx_HAL_Driver/Src/stm32l4xx_hal_sd_ex.c ****   * @param  pDataBuffer1 Pointer to the buffer1 that will contain/receive the transferred data
 129:Drivers/STM32L4xx_HAL_Driver/Src/stm32l4xx_hal_sd_ex.c ****   * @param  BufferSize Size of Buffer0 in Blocks. Buffer0 and Buffer1 must have the same size.
 130:Drivers/STM32L4xx_HAL_Driver/Src/stm32l4xx_hal_sd_ex.c ****   * @retval HAL status
 131:Drivers/STM32L4xx_HAL_Driver/Src/stm32l4xx_hal_sd_ex.c ****   */
ARM GAS  C:\Users\Morroway\AppData\Local\Temp\cckX7YxH.s 			page 5


 132:Drivers/STM32L4xx_HAL_Driver/Src/stm32l4xx_hal_sd_ex.c **** HAL_StatusTypeDef HAL_SDEx_ConfigDMAMultiBuffer(SD_HandleTypeDef *hsd, uint32_t *pDataBuffer0, uint
 133:Drivers/STM32L4xx_HAL_Driver/Src/stm32l4xx_hal_sd_ex.c **** {
 103              		.loc 1 133 1
 104              		.cfi_startproc
 105              		@ args = 0, pretend = 0, frame = 16
 106              		@ frame_needed = 1, uses_anonymous_args = 0
 107              		@ link register save eliminated.
 108 0000 80B4     		push	{r7}
 109              		.cfi_def_cfa_offset 4
 110              		.cfi_offset 7, -4
 111 0002 85B0     		sub	sp, sp, #20
 112              		.cfi_def_cfa_offset 24
 113 0004 00AF     		add	r7, sp, #0
 114              		.cfi_def_cfa_register 7
 115 0006 F860     		str	r0, [r7, #12]
 116 0008 B960     		str	r1, [r7, #8]
 117 000a 7A60     		str	r2, [r7, #4]
 118 000c 3B60     		str	r3, [r7]
 134:Drivers/STM32L4xx_HAL_Driver/Src/stm32l4xx_hal_sd_ex.c ****   if(hsd->State == HAL_SD_STATE_READY)
 119              		.loc 1 134 9
 120 000e FB68     		ldr	r3, [r7, #12]
 121 0010 93F83430 		ldrb	r3, [r3, #52]
 122 0014 DBB2     		uxtb	r3, r3
 123              		.loc 1 134 5
 124 0016 012B     		cmp	r3, #1
 125 0018 0ED1     		bne	.L5
 135:Drivers/STM32L4xx_HAL_Driver/Src/stm32l4xx_hal_sd_ex.c ****   {
 136:Drivers/STM32L4xx_HAL_Driver/Src/stm32l4xx_hal_sd_ex.c ****     hsd->Instance->IDMABASE0= (uint32_t) pDataBuffer0;
 126              		.loc 1 136 8
 127 001a FB68     		ldr	r3, [r7, #12]
 128 001c 1B68     		ldr	r3, [r3]
 129              		.loc 1 136 31
 130 001e BA68     		ldr	r2, [r7, #8]
 131              		.loc 1 136 29
 132 0020 9A65     		str	r2, [r3, #88]
 137:Drivers/STM32L4xx_HAL_Driver/Src/stm32l4xx_hal_sd_ex.c ****     hsd->Instance->IDMABASE1= (uint32_t) pDataBuffer1;
 133              		.loc 1 137 8
 134 0022 FB68     		ldr	r3, [r7, #12]
 135 0024 1B68     		ldr	r3, [r3]
 136              		.loc 1 137 31
 137 0026 7A68     		ldr	r2, [r7, #4]
 138              		.loc 1 137 29
 139 0028 DA65     		str	r2, [r3, #92]
 138:Drivers/STM32L4xx_HAL_Driver/Src/stm32l4xx_hal_sd_ex.c ****     hsd->Instance->IDMABSIZE= (uint32_t) (BLOCKSIZE * BufferSize);
 140              		.loc 1 138 8
 141 002a FB68     		ldr	r3, [r7, #12]
 142 002c 1B68     		ldr	r3, [r3]
 143              		.loc 1 138 31
 144 002e 3A68     		ldr	r2, [r7]
 145 0030 5202     		lsls	r2, r2, #9
 146              		.loc 1 138 29
 147 0032 5A65     		str	r2, [r3, #84]
 139:Drivers/STM32L4xx_HAL_Driver/Src/stm32l4xx_hal_sd_ex.c **** 
 140:Drivers/STM32L4xx_HAL_Driver/Src/stm32l4xx_hal_sd_ex.c ****     return HAL_OK;
 148              		.loc 1 140 12
 149 0034 0023     		movs	r3, #0
 150 0036 00E0     		b	.L6
ARM GAS  C:\Users\Morroway\AppData\Local\Temp\cckX7YxH.s 			page 6


 151              	.L5:
 141:Drivers/STM32L4xx_HAL_Driver/Src/stm32l4xx_hal_sd_ex.c ****   }
 142:Drivers/STM32L4xx_HAL_Driver/Src/stm32l4xx_hal_sd_ex.c ****   else
 143:Drivers/STM32L4xx_HAL_Driver/Src/stm32l4xx_hal_sd_ex.c ****   {
 144:Drivers/STM32L4xx_HAL_Driver/Src/stm32l4xx_hal_sd_ex.c ****     return HAL_BUSY;
 152              		.loc 1 144 12
 153 0038 0223     		movs	r3, #2
 154              	.L6:
 145:Drivers/STM32L4xx_HAL_Driver/Src/stm32l4xx_hal_sd_ex.c ****   }
 146:Drivers/STM32L4xx_HAL_Driver/Src/stm32l4xx_hal_sd_ex.c **** }
 155              		.loc 1 146 1
 156 003a 1846     		mov	r0, r3
 157 003c 1437     		adds	r7, r7, #20
 158              		.cfi_def_cfa_offset 4
 159 003e BD46     		mov	sp, r7
 160              		.cfi_def_cfa_register 13
 161              		@ sp needed
 162 0040 5DF8047B 		ldr	r7, [sp], #4
 163              		.cfi_restore 7
 164              		.cfi_def_cfa_offset 0
 165 0044 7047     		bx	lr
 166              		.cfi_endproc
 167              	.LFE323:
 169              		.section	.text.HAL_SDEx_ReadBlocksDMAMultiBuffer,"ax",%progbits
 170              		.align	1
 171              		.global	HAL_SDEx_ReadBlocksDMAMultiBuffer
 172              		.syntax unified
 173              		.thumb
 174              		.thumb_func
 176              	HAL_SDEx_ReadBlocksDMAMultiBuffer:
 177              	.LFB324:
 147:Drivers/STM32L4xx_HAL_Driver/Src/stm32l4xx_hal_sd_ex.c **** 
 148:Drivers/STM32L4xx_HAL_Driver/Src/stm32l4xx_hal_sd_ex.c **** /**
 149:Drivers/STM32L4xx_HAL_Driver/Src/stm32l4xx_hal_sd_ex.c ****   * @brief  Reads block(s) from a specified address in a card. The received Data will be stored in 
 150:Drivers/STM32L4xx_HAL_Driver/Src/stm32l4xx_hal_sd_ex.c ****   *         Buffer0, Buffer1 and BufferSize need to be configured by function HAL_SDEx_ConfigDMAMul
 151:Drivers/STM32L4xx_HAL_Driver/Src/stm32l4xx_hal_sd_ex.c ****   * @param  hsd SD handle
 152:Drivers/STM32L4xx_HAL_Driver/Src/stm32l4xx_hal_sd_ex.c ****   * @param  BlockAdd Block Address from where data is to be read
 153:Drivers/STM32L4xx_HAL_Driver/Src/stm32l4xx_hal_sd_ex.c ****   * @param  NumberOfBlocks Total number of blocks to read
 154:Drivers/STM32L4xx_HAL_Driver/Src/stm32l4xx_hal_sd_ex.c ****   * @retval HAL status
 155:Drivers/STM32L4xx_HAL_Driver/Src/stm32l4xx_hal_sd_ex.c ****   */
 156:Drivers/STM32L4xx_HAL_Driver/Src/stm32l4xx_hal_sd_ex.c **** HAL_StatusTypeDef HAL_SDEx_ReadBlocksDMAMultiBuffer(SD_HandleTypeDef *hsd, uint32_t BlockAdd, uint3
 157:Drivers/STM32L4xx_HAL_Driver/Src/stm32l4xx_hal_sd_ex.c **** {
 178              		.loc 1 157 1
 179              		.cfi_startproc
 180              		@ args = 0, pretend = 0, frame = 56
 181              		@ frame_needed = 1, uses_anonymous_args = 0
 182 0000 80B5     		push	{r7, lr}
 183              		.cfi_def_cfa_offset 8
 184              		.cfi_offset 7, -8
 185              		.cfi_offset 14, -4
 186 0002 8EB0     		sub	sp, sp, #56
 187              		.cfi_def_cfa_offset 64
 188 0004 00AF     		add	r7, sp, #0
 189              		.cfi_def_cfa_register 7
 190 0006 F860     		str	r0, [r7, #12]
 191 0008 B960     		str	r1, [r7, #8]
 192 000a 7A60     		str	r2, [r7, #4]
ARM GAS  C:\Users\Morroway\AppData\Local\Temp\cckX7YxH.s 			page 7


 158:Drivers/STM32L4xx_HAL_Driver/Src/stm32l4xx_hal_sd_ex.c ****   SDMMC_DataInitTypeDef config;
 159:Drivers/STM32L4xx_HAL_Driver/Src/stm32l4xx_hal_sd_ex.c ****   uint32_t errorstate;
 160:Drivers/STM32L4xx_HAL_Driver/Src/stm32l4xx_hal_sd_ex.c ****   uint32_t DmaBase0_reg, DmaBase1_reg;
 161:Drivers/STM32L4xx_HAL_Driver/Src/stm32l4xx_hal_sd_ex.c ****   uint32_t add = BlockAdd;
 193              		.loc 1 161 12
 194 000c BB68     		ldr	r3, [r7, #8]
 195 000e 7B63     		str	r3, [r7, #52]
 162:Drivers/STM32L4xx_HAL_Driver/Src/stm32l4xx_hal_sd_ex.c **** 
 163:Drivers/STM32L4xx_HAL_Driver/Src/stm32l4xx_hal_sd_ex.c ****   if(hsd->State == HAL_SD_STATE_READY)
 196              		.loc 1 163 9
 197 0010 FB68     		ldr	r3, [r7, #12]
 198 0012 93F83430 		ldrb	r3, [r3, #52]
 199 0016 DBB2     		uxtb	r3, r3
 200              		.loc 1 163 5
 201 0018 012B     		cmp	r3, #1
 202 001a 40F08D80 		bne	.L8
 164:Drivers/STM32L4xx_HAL_Driver/Src/stm32l4xx_hal_sd_ex.c ****   {
 165:Drivers/STM32L4xx_HAL_Driver/Src/stm32l4xx_hal_sd_ex.c ****     if((add + NumberOfBlocks) > (hsd->SdCard.LogBlockNbr))
 203              		.loc 1 165 13
 204 001e 7A6B     		ldr	r2, [r7, #52]
 205 0020 7B68     		ldr	r3, [r7, #4]
 206 0022 1A44     		add	r2, r2, r3
 207              		.loc 1 165 45
 208 0024 FB68     		ldr	r3, [r7, #12]
 209 0026 5B6D     		ldr	r3, [r3, #84]
 210              		.loc 1 165 7
 211 0028 9A42     		cmp	r2, r3
 212 002a 07D9     		bls	.L9
 166:Drivers/STM32L4xx_HAL_Driver/Src/stm32l4xx_hal_sd_ex.c ****     {
 167:Drivers/STM32L4xx_HAL_Driver/Src/stm32l4xx_hal_sd_ex.c ****       hsd->ErrorCode |= HAL_SD_ERROR_ADDR_OUT_OF_RANGE;
 213              		.loc 1 167 22
 214 002c FB68     		ldr	r3, [r7, #12]
 215 002e 9B6B     		ldr	r3, [r3, #56]
 216 0030 43F00072 		orr	r2, r3, #33554432
 217 0034 FB68     		ldr	r3, [r7, #12]
 218 0036 9A63     		str	r2, [r3, #56]
 168:Drivers/STM32L4xx_HAL_Driver/Src/stm32l4xx_hal_sd_ex.c ****       return HAL_ERROR;
 219              		.loc 1 168 14
 220 0038 0123     		movs	r3, #1
 221 003a 7EE0     		b	.L15
 222              	.L9:
 169:Drivers/STM32L4xx_HAL_Driver/Src/stm32l4xx_hal_sd_ex.c ****     }
 170:Drivers/STM32L4xx_HAL_Driver/Src/stm32l4xx_hal_sd_ex.c **** 
 171:Drivers/STM32L4xx_HAL_Driver/Src/stm32l4xx_hal_sd_ex.c ****     DmaBase0_reg = hsd->Instance->IDMABASE0;
 223              		.loc 1 171 23
 224 003c FB68     		ldr	r3, [r7, #12]
 225 003e 1B68     		ldr	r3, [r3]
 226              		.loc 1 171 18
 227 0040 9B6D     		ldr	r3, [r3, #88]
 228 0042 3B63     		str	r3, [r7, #48]
 172:Drivers/STM32L4xx_HAL_Driver/Src/stm32l4xx_hal_sd_ex.c ****     DmaBase1_reg = hsd->Instance->IDMABASE1;
 229              		.loc 1 172 23
 230 0044 FB68     		ldr	r3, [r7, #12]
 231 0046 1B68     		ldr	r3, [r3]
 232              		.loc 1 172 18
 233 0048 DB6D     		ldr	r3, [r3, #92]
 234 004a FB62     		str	r3, [r7, #44]
ARM GAS  C:\Users\Morroway\AppData\Local\Temp\cckX7YxH.s 			page 8


 173:Drivers/STM32L4xx_HAL_Driver/Src/stm32l4xx_hal_sd_ex.c ****     if ((hsd->Instance->IDMABSIZE == 0U) || (DmaBase0_reg == 0U) || (DmaBase1_reg == 0U))
 235              		.loc 1 173 13
 236 004c FB68     		ldr	r3, [r7, #12]
 237 004e 1B68     		ldr	r3, [r3]
 238              		.loc 1 173 23
 239 0050 5B6D     		ldr	r3, [r3, #84]
 240              		.loc 1 173 8
 241 0052 002B     		cmp	r3, #0
 242 0054 05D0     		beq	.L11
 243              		.loc 1 173 42 discriminator 1
 244 0056 3B6B     		ldr	r3, [r7, #48]
 245 0058 002B     		cmp	r3, #0
 246 005a 02D0     		beq	.L11
 247              		.loc 1 173 66 discriminator 2
 248 005c FB6A     		ldr	r3, [r7, #44]
 249 005e 002B     		cmp	r3, #0
 250 0060 05D1     		bne	.L12
 251              	.L11:
 174:Drivers/STM32L4xx_HAL_Driver/Src/stm32l4xx_hal_sd_ex.c ****     {
 175:Drivers/STM32L4xx_HAL_Driver/Src/stm32l4xx_hal_sd_ex.c ****       hsd->ErrorCode = HAL_SD_ERROR_ADDR_OUT_OF_RANGE;
 252              		.loc 1 175 22
 253 0062 FB68     		ldr	r3, [r7, #12]
 254 0064 4FF00072 		mov	r2, #33554432
 255 0068 9A63     		str	r2, [r3, #56]
 176:Drivers/STM32L4xx_HAL_Driver/Src/stm32l4xx_hal_sd_ex.c ****       return HAL_ERROR;
 256              		.loc 1 176 14
 257 006a 0123     		movs	r3, #1
 258 006c 65E0     		b	.L15
 259              	.L12:
 177:Drivers/STM32L4xx_HAL_Driver/Src/stm32l4xx_hal_sd_ex.c ****     }
 178:Drivers/STM32L4xx_HAL_Driver/Src/stm32l4xx_hal_sd_ex.c **** 
 179:Drivers/STM32L4xx_HAL_Driver/Src/stm32l4xx_hal_sd_ex.c ****     /* Initialize data control register */
 180:Drivers/STM32L4xx_HAL_Driver/Src/stm32l4xx_hal_sd_ex.c ****     hsd->Instance->DCTRL = 0;
 260              		.loc 1 180 8
 261 006e FB68     		ldr	r3, [r7, #12]
 262 0070 1B68     		ldr	r3, [r3]
 263              		.loc 1 180 26
 264 0072 0022     		movs	r2, #0
 265 0074 DA62     		str	r2, [r3, #44]
 181:Drivers/STM32L4xx_HAL_Driver/Src/stm32l4xx_hal_sd_ex.c ****     /* Clear old Flags*/
 182:Drivers/STM32L4xx_HAL_Driver/Src/stm32l4xx_hal_sd_ex.c ****     __HAL_SD_CLEAR_FLAG(hsd, SDMMC_STATIC_DATA_FLAGS);
 266              		.loc 1 182 5
 267 0076 FB68     		ldr	r3, [r7, #12]
 268 0078 1B68     		ldr	r3, [r3]
 269 007a 324A     		ldr	r2, .L16
 270 007c 9A63     		str	r2, [r3, #56]
 183:Drivers/STM32L4xx_HAL_Driver/Src/stm32l4xx_hal_sd_ex.c **** 
 184:Drivers/STM32L4xx_HAL_Driver/Src/stm32l4xx_hal_sd_ex.c ****     hsd->ErrorCode = HAL_SD_ERROR_NONE;
 271              		.loc 1 184 20
 272 007e FB68     		ldr	r3, [r7, #12]
 273 0080 0022     		movs	r2, #0
 274 0082 9A63     		str	r2, [r3, #56]
 185:Drivers/STM32L4xx_HAL_Driver/Src/stm32l4xx_hal_sd_ex.c ****     hsd->State = HAL_SD_STATE_BUSY;
 275              		.loc 1 185 16
 276 0084 FB68     		ldr	r3, [r7, #12]
 277 0086 0322     		movs	r2, #3
 278 0088 83F83420 		strb	r2, [r3, #52]
ARM GAS  C:\Users\Morroway\AppData\Local\Temp\cckX7YxH.s 			page 9


 186:Drivers/STM32L4xx_HAL_Driver/Src/stm32l4xx_hal_sd_ex.c **** 
 187:Drivers/STM32L4xx_HAL_Driver/Src/stm32l4xx_hal_sd_ex.c ****     if(hsd->SdCard.CardType != CARD_SDHC_SDXC)
 279              		.loc 1 187 19
 280 008c FB68     		ldr	r3, [r7, #12]
 281 008e DB6B     		ldr	r3, [r3, #60]
 282              		.loc 1 187 7
 283 0090 012B     		cmp	r3, #1
 284 0092 02D0     		beq	.L13
 188:Drivers/STM32L4xx_HAL_Driver/Src/stm32l4xx_hal_sd_ex.c ****     {
 189:Drivers/STM32L4xx_HAL_Driver/Src/stm32l4xx_hal_sd_ex.c ****       add *= 512U;
 285              		.loc 1 189 11
 286 0094 7B6B     		ldr	r3, [r7, #52]
 287 0096 5B02     		lsls	r3, r3, #9
 288 0098 7B63     		str	r3, [r7, #52]
 289              	.L13:
 190:Drivers/STM32L4xx_HAL_Driver/Src/stm32l4xx_hal_sd_ex.c ****     }
 191:Drivers/STM32L4xx_HAL_Driver/Src/stm32l4xx_hal_sd_ex.c **** 
 192:Drivers/STM32L4xx_HAL_Driver/Src/stm32l4xx_hal_sd_ex.c ****     /* Configure the SD DPSM (Data Path State Machine) */
 193:Drivers/STM32L4xx_HAL_Driver/Src/stm32l4xx_hal_sd_ex.c ****     config.DataTimeOut   = SDMMC_DATATIMEOUT;
 290              		.loc 1 193 26
 291 009a 4FF0FF33 		mov	r3, #-1
 292 009e 3B61     		str	r3, [r7, #16]
 194:Drivers/STM32L4xx_HAL_Driver/Src/stm32l4xx_hal_sd_ex.c ****     config.DataLength    = BLOCKSIZE * NumberOfBlocks;
 293              		.loc 1 194 38
 294 00a0 7B68     		ldr	r3, [r7, #4]
 295 00a2 5B02     		lsls	r3, r3, #9
 296              		.loc 1 194 26
 297 00a4 7B61     		str	r3, [r7, #20]
 195:Drivers/STM32L4xx_HAL_Driver/Src/stm32l4xx_hal_sd_ex.c ****     config.DataBlockSize = SDMMC_DATABLOCK_SIZE_512B;
 298              		.loc 1 195 26
 299 00a6 9023     		movs	r3, #144
 300 00a8 BB61     		str	r3, [r7, #24]
 196:Drivers/STM32L4xx_HAL_Driver/Src/stm32l4xx_hal_sd_ex.c ****     config.TransferDir   = SDMMC_TRANSFER_DIR_TO_SDMMC;
 301              		.loc 1 196 26
 302 00aa 0223     		movs	r3, #2
 303 00ac FB61     		str	r3, [r7, #28]
 197:Drivers/STM32L4xx_HAL_Driver/Src/stm32l4xx_hal_sd_ex.c ****     config.TransferMode  = SDMMC_TRANSFER_MODE_BLOCK;
 304              		.loc 1 197 26
 305 00ae 0023     		movs	r3, #0
 306 00b0 3B62     		str	r3, [r7, #32]
 198:Drivers/STM32L4xx_HAL_Driver/Src/stm32l4xx_hal_sd_ex.c ****     config.DPSM          = SDMMC_DPSM_DISABLE;
 307              		.loc 1 198 26
 308 00b2 0023     		movs	r3, #0
 309 00b4 7B62     		str	r3, [r7, #36]
 199:Drivers/STM32L4xx_HAL_Driver/Src/stm32l4xx_hal_sd_ex.c ****     (void)SDMMC_ConfigData(hsd->Instance, &config);
 310              		.loc 1 199 11
 311 00b6 FB68     		ldr	r3, [r7, #12]
 312 00b8 1B68     		ldr	r3, [r3]
 313 00ba 07F11002 		add	r2, r7, #16
 314 00be 1146     		mov	r1, r2
 315 00c0 1846     		mov	r0, r3
 316 00c2 FFF7FEFF 		bl	SDMMC_ConfigData
 200:Drivers/STM32L4xx_HAL_Driver/Src/stm32l4xx_hal_sd_ex.c **** 
 201:Drivers/STM32L4xx_HAL_Driver/Src/stm32l4xx_hal_sd_ex.c ****     hsd->Instance->DCTRL |= SDMMC_DCTRL_FIFORST;
 317              		.loc 1 201 8
 318 00c6 FB68     		ldr	r3, [r7, #12]
 319 00c8 1B68     		ldr	r3, [r3]
ARM GAS  C:\Users\Morroway\AppData\Local\Temp\cckX7YxH.s 			page 10


 320              		.loc 1 201 26
 321 00ca DA6A     		ldr	r2, [r3, #44]
 322              		.loc 1 201 8
 323 00cc FB68     		ldr	r3, [r7, #12]
 324 00ce 1B68     		ldr	r3, [r3]
 325              		.loc 1 201 26
 326 00d0 42F40052 		orr	r2, r2, #8192
 327 00d4 DA62     		str	r2, [r3, #44]
 202:Drivers/STM32L4xx_HAL_Driver/Src/stm32l4xx_hal_sd_ex.c **** 
 203:Drivers/STM32L4xx_HAL_Driver/Src/stm32l4xx_hal_sd_ex.c ****     __SDMMC_CMDTRANS_ENABLE( hsd->Instance);
 328              		.loc 1 203 5
 329 00d6 FB68     		ldr	r3, [r7, #12]
 330 00d8 1B68     		ldr	r3, [r3]
 331 00da DA68     		ldr	r2, [r3, #12]
 332 00dc FB68     		ldr	r3, [r7, #12]
 333 00de 1B68     		ldr	r3, [r3]
 334 00e0 42F04002 		orr	r2, r2, #64
 335 00e4 DA60     		str	r2, [r3, #12]
 204:Drivers/STM32L4xx_HAL_Driver/Src/stm32l4xx_hal_sd_ex.c **** 
 205:Drivers/STM32L4xx_HAL_Driver/Src/stm32l4xx_hal_sd_ex.c ****     hsd->Instance->IDMACTRL = SDMMC_ENABLE_IDMA_DOUBLE_BUFF0;
 336              		.loc 1 205 8
 337 00e6 FB68     		ldr	r3, [r7, #12]
 338 00e8 1B68     		ldr	r3, [r3]
 339              		.loc 1 205 29
 340 00ea 0322     		movs	r2, #3
 341 00ec 1A65     		str	r2, [r3, #80]
 206:Drivers/STM32L4xx_HAL_Driver/Src/stm32l4xx_hal_sd_ex.c **** 
 207:Drivers/STM32L4xx_HAL_Driver/Src/stm32l4xx_hal_sd_ex.c ****     /* Read Blocks in DMA mode */
 208:Drivers/STM32L4xx_HAL_Driver/Src/stm32l4xx_hal_sd_ex.c ****     hsd->Context = (SD_CONTEXT_READ_MULTIPLE_BLOCK | SD_CONTEXT_DMA);
 342              		.loc 1 208 18
 343 00ee FB68     		ldr	r3, [r7, #12]
 344 00f0 8222     		movs	r2, #130
 345 00f2 1A63     		str	r2, [r3, #48]
 209:Drivers/STM32L4xx_HAL_Driver/Src/stm32l4xx_hal_sd_ex.c **** 
 210:Drivers/STM32L4xx_HAL_Driver/Src/stm32l4xx_hal_sd_ex.c ****     /* Read Multi Block command */
 211:Drivers/STM32L4xx_HAL_Driver/Src/stm32l4xx_hal_sd_ex.c ****     errorstate = SDMMC_CmdReadMultiBlock(hsd->Instance, add);
 346              		.loc 1 211 18
 347 00f4 FB68     		ldr	r3, [r7, #12]
 348 00f6 1B68     		ldr	r3, [r3]
 349 00f8 796B     		ldr	r1, [r7, #52]
 350 00fa 1846     		mov	r0, r3
 351 00fc FFF7FEFF 		bl	SDMMC_CmdReadMultiBlock
 352 0100 B862     		str	r0, [r7, #40]
 212:Drivers/STM32L4xx_HAL_Driver/Src/stm32l4xx_hal_sd_ex.c ****     if(errorstate != HAL_SD_ERROR_NONE)
 353              		.loc 1 212 7
 354 0102 BB6A     		ldr	r3, [r7, #40]
 355 0104 002B     		cmp	r3, #0
 356 0106 0BD0     		beq	.L14
 213:Drivers/STM32L4xx_HAL_Driver/Src/stm32l4xx_hal_sd_ex.c ****     {
 214:Drivers/STM32L4xx_HAL_Driver/Src/stm32l4xx_hal_sd_ex.c ****       hsd->State = HAL_SD_STATE_READY;
 357              		.loc 1 214 18
 358 0108 FB68     		ldr	r3, [r7, #12]
 359 010a 0122     		movs	r2, #1
 360 010c 83F83420 		strb	r2, [r3, #52]
 215:Drivers/STM32L4xx_HAL_Driver/Src/stm32l4xx_hal_sd_ex.c ****       hsd->ErrorCode |= errorstate;
 361              		.loc 1 215 22
 362 0110 FB68     		ldr	r3, [r7, #12]
ARM GAS  C:\Users\Morroway\AppData\Local\Temp\cckX7YxH.s 			page 11


 363 0112 9A6B     		ldr	r2, [r3, #56]
 364 0114 BB6A     		ldr	r3, [r7, #40]
 365 0116 1A43     		orrs	r2, r2, r3
 366 0118 FB68     		ldr	r3, [r7, #12]
 367 011a 9A63     		str	r2, [r3, #56]
 216:Drivers/STM32L4xx_HAL_Driver/Src/stm32l4xx_hal_sd_ex.c ****       return HAL_ERROR;
 368              		.loc 1 216 14
 369 011c 0123     		movs	r3, #1
 370 011e 0CE0     		b	.L15
 371              	.L14:
 217:Drivers/STM32L4xx_HAL_Driver/Src/stm32l4xx_hal_sd_ex.c ****     }
 218:Drivers/STM32L4xx_HAL_Driver/Src/stm32l4xx_hal_sd_ex.c **** 
 219:Drivers/STM32L4xx_HAL_Driver/Src/stm32l4xx_hal_sd_ex.c ****     __HAL_SD_ENABLE_IT(hsd, (SDMMC_IT_DCRCFAIL | SDMMC_IT_DTIMEOUT | SDMMC_IT_RXOVERR | SDMMC_IT_DA
 372              		.loc 1 219 5
 373 0120 FB68     		ldr	r3, [r7, #12]
 374 0122 1B68     		ldr	r3, [r3]
 375 0124 DB6B     		ldr	r3, [r3, #60]
 376 0126 FA68     		ldr	r2, [r7, #12]
 377 0128 1268     		ldr	r2, [r2]
 378 012a 43F08053 		orr	r3, r3, #268435456
 379 012e 43F49573 		orr	r3, r3, #298
 380 0132 D363     		str	r3, [r2, #60]
 220:Drivers/STM32L4xx_HAL_Driver/Src/stm32l4xx_hal_sd_ex.c **** 
 221:Drivers/STM32L4xx_HAL_Driver/Src/stm32l4xx_hal_sd_ex.c ****     return HAL_OK;
 381              		.loc 1 221 12
 382 0134 0023     		movs	r3, #0
 383 0136 00E0     		b	.L15
 384              	.L8:
 222:Drivers/STM32L4xx_HAL_Driver/Src/stm32l4xx_hal_sd_ex.c ****   }
 223:Drivers/STM32L4xx_HAL_Driver/Src/stm32l4xx_hal_sd_ex.c ****   else
 224:Drivers/STM32L4xx_HAL_Driver/Src/stm32l4xx_hal_sd_ex.c ****   {
 225:Drivers/STM32L4xx_HAL_Driver/Src/stm32l4xx_hal_sd_ex.c ****     return HAL_BUSY;
 385              		.loc 1 225 12
 386 0138 0223     		movs	r3, #2
 387              	.L15:
 226:Drivers/STM32L4xx_HAL_Driver/Src/stm32l4xx_hal_sd_ex.c ****   }
 227:Drivers/STM32L4xx_HAL_Driver/Src/stm32l4xx_hal_sd_ex.c **** 
 228:Drivers/STM32L4xx_HAL_Driver/Src/stm32l4xx_hal_sd_ex.c **** }
 388              		.loc 1 228 1 discriminator 1
 389 013a 1846     		mov	r0, r3
 390 013c 3837     		adds	r7, r7, #56
 391              		.cfi_def_cfa_offset 8
 392 013e BD46     		mov	sp, r7
 393              		.cfi_def_cfa_register 13
 394              		@ sp needed
 395 0140 80BD     		pop	{r7, pc}
 396              	.L17:
 397 0142 00BF     		.align	2
 398              	.L16:
 399 0144 3A0F0018 		.word	402657082
 400              		.cfi_endproc
 401              	.LFE324:
 403              		.section	.text.HAL_SDEx_WriteBlocksDMAMultiBuffer,"ax",%progbits
 404              		.align	1
 405              		.global	HAL_SDEx_WriteBlocksDMAMultiBuffer
 406              		.syntax unified
 407              		.thumb
ARM GAS  C:\Users\Morroway\AppData\Local\Temp\cckX7YxH.s 			page 12


 408              		.thumb_func
 410              	HAL_SDEx_WriteBlocksDMAMultiBuffer:
 411              	.LFB325:
 229:Drivers/STM32L4xx_HAL_Driver/Src/stm32l4xx_hal_sd_ex.c **** 
 230:Drivers/STM32L4xx_HAL_Driver/Src/stm32l4xx_hal_sd_ex.c **** /**
 231:Drivers/STM32L4xx_HAL_Driver/Src/stm32l4xx_hal_sd_ex.c ****   * @brief  Write block(s) to a specified address in a card. The transferred Data are stored in Buf
 232:Drivers/STM32L4xx_HAL_Driver/Src/stm32l4xx_hal_sd_ex.c ****   *         Buffer0, Buffer1 and BufferSize need to be configured by function HAL_SDEx_ConfigDMAMul
 233:Drivers/STM32L4xx_HAL_Driver/Src/stm32l4xx_hal_sd_ex.c ****   * @param  hsd SD handle
 234:Drivers/STM32L4xx_HAL_Driver/Src/stm32l4xx_hal_sd_ex.c ****   * @param  BlockAdd Block Address from where data is to be read
 235:Drivers/STM32L4xx_HAL_Driver/Src/stm32l4xx_hal_sd_ex.c ****   * @param  NumberOfBlocks Total number of blocks to read
 236:Drivers/STM32L4xx_HAL_Driver/Src/stm32l4xx_hal_sd_ex.c ****   * @retval HAL status
 237:Drivers/STM32L4xx_HAL_Driver/Src/stm32l4xx_hal_sd_ex.c **** */
 238:Drivers/STM32L4xx_HAL_Driver/Src/stm32l4xx_hal_sd_ex.c **** HAL_StatusTypeDef HAL_SDEx_WriteBlocksDMAMultiBuffer(SD_HandleTypeDef *hsd, uint32_t BlockAdd, uint
 239:Drivers/STM32L4xx_HAL_Driver/Src/stm32l4xx_hal_sd_ex.c **** {
 412              		.loc 1 239 1
 413              		.cfi_startproc
 414              		@ args = 0, pretend = 0, frame = 56
 415              		@ frame_needed = 1, uses_anonymous_args = 0
 416 0000 80B5     		push	{r7, lr}
 417              		.cfi_def_cfa_offset 8
 418              		.cfi_offset 7, -8
 419              		.cfi_offset 14, -4
 420 0002 8EB0     		sub	sp, sp, #56
 421              		.cfi_def_cfa_offset 64
 422 0004 00AF     		add	r7, sp, #0
 423              		.cfi_def_cfa_register 7
 424 0006 F860     		str	r0, [r7, #12]
 425 0008 B960     		str	r1, [r7, #8]
 426 000a 7A60     		str	r2, [r7, #4]
 240:Drivers/STM32L4xx_HAL_Driver/Src/stm32l4xx_hal_sd_ex.c ****   SDMMC_DataInitTypeDef config;
 241:Drivers/STM32L4xx_HAL_Driver/Src/stm32l4xx_hal_sd_ex.c ****   uint32_t errorstate;
 242:Drivers/STM32L4xx_HAL_Driver/Src/stm32l4xx_hal_sd_ex.c ****   uint32_t DmaBase0_reg, DmaBase1_reg;
 243:Drivers/STM32L4xx_HAL_Driver/Src/stm32l4xx_hal_sd_ex.c ****   uint32_t add = BlockAdd;
 427              		.loc 1 243 12
 428 000c BB68     		ldr	r3, [r7, #8]
 429 000e 7B63     		str	r3, [r7, #52]
 244:Drivers/STM32L4xx_HAL_Driver/Src/stm32l4xx_hal_sd_ex.c **** 
 245:Drivers/STM32L4xx_HAL_Driver/Src/stm32l4xx_hal_sd_ex.c ****   if(hsd->State == HAL_SD_STATE_READY)
 430              		.loc 1 245 9
 431 0010 FB68     		ldr	r3, [r7, #12]
 432 0012 93F83430 		ldrb	r3, [r3, #52]
 433 0016 DBB2     		uxtb	r3, r3
 434              		.loc 1 245 5
 435 0018 012B     		cmp	r3, #1
 436 001a 40F08180 		bne	.L19
 246:Drivers/STM32L4xx_HAL_Driver/Src/stm32l4xx_hal_sd_ex.c ****   {
 247:Drivers/STM32L4xx_HAL_Driver/Src/stm32l4xx_hal_sd_ex.c ****     if((add + NumberOfBlocks) > (hsd->SdCard.LogBlockNbr))
 437              		.loc 1 247 13
 438 001e 7A6B     		ldr	r2, [r7, #52]
 439 0020 7B68     		ldr	r3, [r7, #4]
 440 0022 1A44     		add	r2, r2, r3
 441              		.loc 1 247 45
 442 0024 FB68     		ldr	r3, [r7, #12]
 443 0026 5B6D     		ldr	r3, [r3, #84]
 444              		.loc 1 247 7
 445 0028 9A42     		cmp	r2, r3
 446 002a 07D9     		bls	.L20
ARM GAS  C:\Users\Morroway\AppData\Local\Temp\cckX7YxH.s 			page 13


 248:Drivers/STM32L4xx_HAL_Driver/Src/stm32l4xx_hal_sd_ex.c ****     {
 249:Drivers/STM32L4xx_HAL_Driver/Src/stm32l4xx_hal_sd_ex.c ****       hsd->ErrorCode |= HAL_SD_ERROR_ADDR_OUT_OF_RANGE;
 447              		.loc 1 249 22
 448 002c FB68     		ldr	r3, [r7, #12]
 449 002e 9B6B     		ldr	r3, [r3, #56]
 450 0030 43F00072 		orr	r2, r3, #33554432
 451 0034 FB68     		ldr	r3, [r7, #12]
 452 0036 9A63     		str	r2, [r3, #56]
 250:Drivers/STM32L4xx_HAL_Driver/Src/stm32l4xx_hal_sd_ex.c ****       return HAL_ERROR;
 453              		.loc 1 250 14
 454 0038 0123     		movs	r3, #1
 455 003a 72E0     		b	.L26
 456              	.L20:
 251:Drivers/STM32L4xx_HAL_Driver/Src/stm32l4xx_hal_sd_ex.c ****     }
 252:Drivers/STM32L4xx_HAL_Driver/Src/stm32l4xx_hal_sd_ex.c **** 
 253:Drivers/STM32L4xx_HAL_Driver/Src/stm32l4xx_hal_sd_ex.c ****     DmaBase0_reg = hsd->Instance->IDMABASE0;
 457              		.loc 1 253 23
 458 003c FB68     		ldr	r3, [r7, #12]
 459 003e 1B68     		ldr	r3, [r3]
 460              		.loc 1 253 18
 461 0040 9B6D     		ldr	r3, [r3, #88]
 462 0042 3B63     		str	r3, [r7, #48]
 254:Drivers/STM32L4xx_HAL_Driver/Src/stm32l4xx_hal_sd_ex.c ****     DmaBase1_reg = hsd->Instance->IDMABASE1;
 463              		.loc 1 254 23
 464 0044 FB68     		ldr	r3, [r7, #12]
 465 0046 1B68     		ldr	r3, [r3]
 466              		.loc 1 254 18
 467 0048 DB6D     		ldr	r3, [r3, #92]
 468 004a FB62     		str	r3, [r7, #44]
 255:Drivers/STM32L4xx_HAL_Driver/Src/stm32l4xx_hal_sd_ex.c ****     if ((hsd->Instance->IDMABSIZE == 0U) || (DmaBase0_reg == 0U) || (DmaBase1_reg == 0U))
 469              		.loc 1 255 13
 470 004c FB68     		ldr	r3, [r7, #12]
 471 004e 1B68     		ldr	r3, [r3]
 472              		.loc 1 255 23
 473 0050 5B6D     		ldr	r3, [r3, #84]
 474              		.loc 1 255 8
 475 0052 002B     		cmp	r3, #0
 476 0054 05D0     		beq	.L22
 477              		.loc 1 255 42 discriminator 1
 478 0056 3B6B     		ldr	r3, [r7, #48]
 479 0058 002B     		cmp	r3, #0
 480 005a 02D0     		beq	.L22
 481              		.loc 1 255 66 discriminator 2
 482 005c FB6A     		ldr	r3, [r7, #44]
 483 005e 002B     		cmp	r3, #0
 484 0060 05D1     		bne	.L23
 485              	.L22:
 256:Drivers/STM32L4xx_HAL_Driver/Src/stm32l4xx_hal_sd_ex.c ****     {
 257:Drivers/STM32L4xx_HAL_Driver/Src/stm32l4xx_hal_sd_ex.c ****       hsd->ErrorCode = HAL_SD_ERROR_ADDR_OUT_OF_RANGE;
 486              		.loc 1 257 22
 487 0062 FB68     		ldr	r3, [r7, #12]
 488 0064 4FF00072 		mov	r2, #33554432
 489 0068 9A63     		str	r2, [r3, #56]
 258:Drivers/STM32L4xx_HAL_Driver/Src/stm32l4xx_hal_sd_ex.c ****       return HAL_ERROR;
 490              		.loc 1 258 14
 491 006a 0123     		movs	r3, #1
 492 006c 59E0     		b	.L26
ARM GAS  C:\Users\Morroway\AppData\Local\Temp\cckX7YxH.s 			page 14


 493              	.L23:
 259:Drivers/STM32L4xx_HAL_Driver/Src/stm32l4xx_hal_sd_ex.c ****     }
 260:Drivers/STM32L4xx_HAL_Driver/Src/stm32l4xx_hal_sd_ex.c **** 
 261:Drivers/STM32L4xx_HAL_Driver/Src/stm32l4xx_hal_sd_ex.c ****     /* Initialize data control register */
 262:Drivers/STM32L4xx_HAL_Driver/Src/stm32l4xx_hal_sd_ex.c ****     hsd->Instance->DCTRL = 0;
 494              		.loc 1 262 8
 495 006e FB68     		ldr	r3, [r7, #12]
 496 0070 1B68     		ldr	r3, [r3]
 497              		.loc 1 262 26
 498 0072 0022     		movs	r2, #0
 499 0074 DA62     		str	r2, [r3, #44]
 263:Drivers/STM32L4xx_HAL_Driver/Src/stm32l4xx_hal_sd_ex.c **** 
 264:Drivers/STM32L4xx_HAL_Driver/Src/stm32l4xx_hal_sd_ex.c ****     hsd->ErrorCode = HAL_SD_ERROR_NONE;
 500              		.loc 1 264 20
 501 0076 FB68     		ldr	r3, [r7, #12]
 502 0078 0022     		movs	r2, #0
 503 007a 9A63     		str	r2, [r3, #56]
 265:Drivers/STM32L4xx_HAL_Driver/Src/stm32l4xx_hal_sd_ex.c **** 
 266:Drivers/STM32L4xx_HAL_Driver/Src/stm32l4xx_hal_sd_ex.c ****     hsd->State = HAL_SD_STATE_BUSY;
 504              		.loc 1 266 16
 505 007c FB68     		ldr	r3, [r7, #12]
 506 007e 0322     		movs	r2, #3
 507 0080 83F83420 		strb	r2, [r3, #52]
 267:Drivers/STM32L4xx_HAL_Driver/Src/stm32l4xx_hal_sd_ex.c **** 
 268:Drivers/STM32L4xx_HAL_Driver/Src/stm32l4xx_hal_sd_ex.c ****     if(hsd->SdCard.CardType != CARD_SDHC_SDXC)
 508              		.loc 1 268 19
 509 0084 FB68     		ldr	r3, [r7, #12]
 510 0086 DB6B     		ldr	r3, [r3, #60]
 511              		.loc 1 268 7
 512 0088 012B     		cmp	r3, #1
 513 008a 02D0     		beq	.L24
 269:Drivers/STM32L4xx_HAL_Driver/Src/stm32l4xx_hal_sd_ex.c ****     {
 270:Drivers/STM32L4xx_HAL_Driver/Src/stm32l4xx_hal_sd_ex.c ****       add *= 512U;
 514              		.loc 1 270 11
 515 008c 7B6B     		ldr	r3, [r7, #52]
 516 008e 5B02     		lsls	r3, r3, #9
 517 0090 7B63     		str	r3, [r7, #52]
 518              	.L24:
 271:Drivers/STM32L4xx_HAL_Driver/Src/stm32l4xx_hal_sd_ex.c ****     }
 272:Drivers/STM32L4xx_HAL_Driver/Src/stm32l4xx_hal_sd_ex.c **** 
 273:Drivers/STM32L4xx_HAL_Driver/Src/stm32l4xx_hal_sd_ex.c ****     /* Configure the SD DPSM (Data Path State Machine) */
 274:Drivers/STM32L4xx_HAL_Driver/Src/stm32l4xx_hal_sd_ex.c ****     config.DataTimeOut   = SDMMC_DATATIMEOUT;
 519              		.loc 1 274 26
 520 0092 4FF0FF33 		mov	r3, #-1
 521 0096 3B61     		str	r3, [r7, #16]
 275:Drivers/STM32L4xx_HAL_Driver/Src/stm32l4xx_hal_sd_ex.c ****     config.DataLength    = BLOCKSIZE * NumberOfBlocks;
 522              		.loc 1 275 38
 523 0098 7B68     		ldr	r3, [r7, #4]
 524 009a 5B02     		lsls	r3, r3, #9
 525              		.loc 1 275 26
 526 009c 7B61     		str	r3, [r7, #20]
 276:Drivers/STM32L4xx_HAL_Driver/Src/stm32l4xx_hal_sd_ex.c ****     config.DataBlockSize = SDMMC_DATABLOCK_SIZE_512B;
 527              		.loc 1 276 26
 528 009e 9023     		movs	r3, #144
 529 00a0 BB61     		str	r3, [r7, #24]
 277:Drivers/STM32L4xx_HAL_Driver/Src/stm32l4xx_hal_sd_ex.c ****     config.TransferDir   = SDMMC_TRANSFER_DIR_TO_CARD;
 530              		.loc 1 277 26
ARM GAS  C:\Users\Morroway\AppData\Local\Temp\cckX7YxH.s 			page 15


 531 00a2 0023     		movs	r3, #0
 532 00a4 FB61     		str	r3, [r7, #28]
 278:Drivers/STM32L4xx_HAL_Driver/Src/stm32l4xx_hal_sd_ex.c ****     config.TransferMode  = SDMMC_TRANSFER_MODE_BLOCK;
 533              		.loc 1 278 26
 534 00a6 0023     		movs	r3, #0
 535 00a8 3B62     		str	r3, [r7, #32]
 279:Drivers/STM32L4xx_HAL_Driver/Src/stm32l4xx_hal_sd_ex.c ****     config.DPSM          = SDMMC_DPSM_DISABLE;
 536              		.loc 1 279 26
 537 00aa 0023     		movs	r3, #0
 538 00ac 7B62     		str	r3, [r7, #36]
 280:Drivers/STM32L4xx_HAL_Driver/Src/stm32l4xx_hal_sd_ex.c ****     (void)SDMMC_ConfigData(hsd->Instance, &config);
 539              		.loc 1 280 11
 540 00ae FB68     		ldr	r3, [r7, #12]
 541 00b0 1B68     		ldr	r3, [r3]
 542 00b2 07F11002 		add	r2, r7, #16
 543 00b6 1146     		mov	r1, r2
 544 00b8 1846     		mov	r0, r3
 545 00ba FFF7FEFF 		bl	SDMMC_ConfigData
 281:Drivers/STM32L4xx_HAL_Driver/Src/stm32l4xx_hal_sd_ex.c **** 
 282:Drivers/STM32L4xx_HAL_Driver/Src/stm32l4xx_hal_sd_ex.c ****     __SDMMC_CMDTRANS_ENABLE( hsd->Instance);
 546              		.loc 1 282 5
 547 00be FB68     		ldr	r3, [r7, #12]
 548 00c0 1B68     		ldr	r3, [r3]
 549 00c2 DA68     		ldr	r2, [r3, #12]
 550 00c4 FB68     		ldr	r3, [r7, #12]
 551 00c6 1B68     		ldr	r3, [r3]
 552 00c8 42F04002 		orr	r2, r2, #64
 553 00cc DA60     		str	r2, [r3, #12]
 283:Drivers/STM32L4xx_HAL_Driver/Src/stm32l4xx_hal_sd_ex.c **** 
 284:Drivers/STM32L4xx_HAL_Driver/Src/stm32l4xx_hal_sd_ex.c ****     hsd->Instance->IDMACTRL = SDMMC_ENABLE_IDMA_DOUBLE_BUFF0;
 554              		.loc 1 284 8
 555 00ce FB68     		ldr	r3, [r7, #12]
 556 00d0 1B68     		ldr	r3, [r3]
 557              		.loc 1 284 29
 558 00d2 0322     		movs	r2, #3
 559 00d4 1A65     		str	r2, [r3, #80]
 285:Drivers/STM32L4xx_HAL_Driver/Src/stm32l4xx_hal_sd_ex.c **** 
 286:Drivers/STM32L4xx_HAL_Driver/Src/stm32l4xx_hal_sd_ex.c ****     /* Write Blocks in DMA mode */
 287:Drivers/STM32L4xx_HAL_Driver/Src/stm32l4xx_hal_sd_ex.c ****     hsd->Context = (SD_CONTEXT_WRITE_MULTIPLE_BLOCK | SD_CONTEXT_DMA);
 560              		.loc 1 287 18
 561 00d6 FB68     		ldr	r3, [r7, #12]
 562 00d8 A022     		movs	r2, #160
 563 00da 1A63     		str	r2, [r3, #48]
 288:Drivers/STM32L4xx_HAL_Driver/Src/stm32l4xx_hal_sd_ex.c **** 
 289:Drivers/STM32L4xx_HAL_Driver/Src/stm32l4xx_hal_sd_ex.c ****     /* Write Multi Block command */
 290:Drivers/STM32L4xx_HAL_Driver/Src/stm32l4xx_hal_sd_ex.c ****     errorstate = SDMMC_CmdWriteMultiBlock(hsd->Instance, add);
 564              		.loc 1 290 18
 565 00dc FB68     		ldr	r3, [r7, #12]
 566 00de 1B68     		ldr	r3, [r3]
 567 00e0 796B     		ldr	r1, [r7, #52]
 568 00e2 1846     		mov	r0, r3
 569 00e4 FFF7FEFF 		bl	SDMMC_CmdWriteMultiBlock
 570 00e8 B862     		str	r0, [r7, #40]
 291:Drivers/STM32L4xx_HAL_Driver/Src/stm32l4xx_hal_sd_ex.c ****     if(errorstate != HAL_SD_ERROR_NONE)
 571              		.loc 1 291 7
 572 00ea BB6A     		ldr	r3, [r7, #40]
 573 00ec 002B     		cmp	r3, #0
ARM GAS  C:\Users\Morroway\AppData\Local\Temp\cckX7YxH.s 			page 16


 574 00ee 0BD0     		beq	.L25
 292:Drivers/STM32L4xx_HAL_Driver/Src/stm32l4xx_hal_sd_ex.c ****     {
 293:Drivers/STM32L4xx_HAL_Driver/Src/stm32l4xx_hal_sd_ex.c ****       hsd->State = HAL_SD_STATE_READY;
 575              		.loc 1 293 18
 576 00f0 FB68     		ldr	r3, [r7, #12]
 577 00f2 0122     		movs	r2, #1
 578 00f4 83F83420 		strb	r2, [r3, #52]
 294:Drivers/STM32L4xx_HAL_Driver/Src/stm32l4xx_hal_sd_ex.c ****       hsd->ErrorCode |= errorstate;
 579              		.loc 1 294 22
 580 00f8 FB68     		ldr	r3, [r7, #12]
 581 00fa 9A6B     		ldr	r2, [r3, #56]
 582 00fc BB6A     		ldr	r3, [r7, #40]
 583 00fe 1A43     		orrs	r2, r2, r3
 584 0100 FB68     		ldr	r3, [r7, #12]
 585 0102 9A63     		str	r2, [r3, #56]
 295:Drivers/STM32L4xx_HAL_Driver/Src/stm32l4xx_hal_sd_ex.c ****       return HAL_ERROR;
 586              		.loc 1 295 14
 587 0104 0123     		movs	r3, #1
 588 0106 0CE0     		b	.L26
 589              	.L25:
 296:Drivers/STM32L4xx_HAL_Driver/Src/stm32l4xx_hal_sd_ex.c ****     }
 297:Drivers/STM32L4xx_HAL_Driver/Src/stm32l4xx_hal_sd_ex.c **** 
 298:Drivers/STM32L4xx_HAL_Driver/Src/stm32l4xx_hal_sd_ex.c ****     __HAL_SD_ENABLE_IT(hsd, (SDMMC_IT_DCRCFAIL | SDMMC_IT_DTIMEOUT | SDMMC_IT_TXUNDERR | SDMMC_IT_D
 590              		.loc 1 298 5
 591 0108 FB68     		ldr	r3, [r7, #12]
 592 010a 1B68     		ldr	r3, [r3]
 593 010c DB6B     		ldr	r3, [r3, #60]
 594 010e FA68     		ldr	r2, [r7, #12]
 595 0110 1268     		ldr	r2, [r2]
 596 0112 43F08053 		orr	r3, r3, #268435456
 597 0116 43F48D73 		orr	r3, r3, #282
 598 011a D363     		str	r3, [r2, #60]
 299:Drivers/STM32L4xx_HAL_Driver/Src/stm32l4xx_hal_sd_ex.c **** 
 300:Drivers/STM32L4xx_HAL_Driver/Src/stm32l4xx_hal_sd_ex.c ****     return HAL_OK;
 599              		.loc 1 300 12
 600 011c 0023     		movs	r3, #0
 601 011e 00E0     		b	.L26
 602              	.L19:
 301:Drivers/STM32L4xx_HAL_Driver/Src/stm32l4xx_hal_sd_ex.c ****   }
 302:Drivers/STM32L4xx_HAL_Driver/Src/stm32l4xx_hal_sd_ex.c ****   else
 303:Drivers/STM32L4xx_HAL_Driver/Src/stm32l4xx_hal_sd_ex.c ****   {
 304:Drivers/STM32L4xx_HAL_Driver/Src/stm32l4xx_hal_sd_ex.c ****     return HAL_BUSY;
 603              		.loc 1 304 12
 604 0120 0223     		movs	r3, #2
 605              	.L26:
 305:Drivers/STM32L4xx_HAL_Driver/Src/stm32l4xx_hal_sd_ex.c ****   }
 306:Drivers/STM32L4xx_HAL_Driver/Src/stm32l4xx_hal_sd_ex.c **** }
 606              		.loc 1 306 1 discriminator 1
 607 0122 1846     		mov	r0, r3
 608 0124 3837     		adds	r7, r7, #56
 609              		.cfi_def_cfa_offset 8
 610 0126 BD46     		mov	sp, r7
 611              		.cfi_def_cfa_register 13
 612              		@ sp needed
 613 0128 80BD     		pop	{r7, pc}
 614              		.cfi_endproc
 615              	.LFE325:
ARM GAS  C:\Users\Morroway\AppData\Local\Temp\cckX7YxH.s 			page 17


 617              		.section	.text.HAL_SDEx_ChangeDMABuffer,"ax",%progbits
 618              		.align	1
 619              		.global	HAL_SDEx_ChangeDMABuffer
 620              		.syntax unified
 621              		.thumb
 622              		.thumb_func
 624              	HAL_SDEx_ChangeDMABuffer:
 625              	.LFB326:
 307:Drivers/STM32L4xx_HAL_Driver/Src/stm32l4xx_hal_sd_ex.c **** 
 308:Drivers/STM32L4xx_HAL_Driver/Src/stm32l4xx_hal_sd_ex.c **** 
 309:Drivers/STM32L4xx_HAL_Driver/Src/stm32l4xx_hal_sd_ex.c **** /**
 310:Drivers/STM32L4xx_HAL_Driver/Src/stm32l4xx_hal_sd_ex.c ****   * @brief  Change the DMA Buffer0 or Buffer1 address on the fly.
 311:Drivers/STM32L4xx_HAL_Driver/Src/stm32l4xx_hal_sd_ex.c ****   * @param  hsd            pointer to a SD_HandleTypeDef structure.
 312:Drivers/STM32L4xx_HAL_Driver/Src/stm32l4xx_hal_sd_ex.c ****   * @param  Buffer         the buffer to be changed, This parameter can be one of
 313:Drivers/STM32L4xx_HAL_Driver/Src/stm32l4xx_hal_sd_ex.c ****   *                        the following values: SD_DMA_BUFFER0 or SD_DMA_BUFFER1
 314:Drivers/STM32L4xx_HAL_Driver/Src/stm32l4xx_hal_sd_ex.c ****   * @param  pDataBuffer    The new address
 315:Drivers/STM32L4xx_HAL_Driver/Src/stm32l4xx_hal_sd_ex.c ****   * @note   The BUFFER0 address can be changed only when the current transfer use
 316:Drivers/STM32L4xx_HAL_Driver/Src/stm32l4xx_hal_sd_ex.c ****   *         BUFFER1 and the BUFFER1 address can be changed only when the current
 317:Drivers/STM32L4xx_HAL_Driver/Src/stm32l4xx_hal_sd_ex.c ****   *         transfer use BUFFER0.
 318:Drivers/STM32L4xx_HAL_Driver/Src/stm32l4xx_hal_sd_ex.c ****   * @retval HAL status
 319:Drivers/STM32L4xx_HAL_Driver/Src/stm32l4xx_hal_sd_ex.c ****   */
 320:Drivers/STM32L4xx_HAL_Driver/Src/stm32l4xx_hal_sd_ex.c **** HAL_StatusTypeDef HAL_SDEx_ChangeDMABuffer(SD_HandleTypeDef *hsd, HAL_SDEx_DMABuffer_MemoryTypeDef 
 321:Drivers/STM32L4xx_HAL_Driver/Src/stm32l4xx_hal_sd_ex.c **** {
 626              		.loc 1 321 1
 627              		.cfi_startproc
 628              		@ args = 0, pretend = 0, frame = 16
 629              		@ frame_needed = 1, uses_anonymous_args = 0
 630              		@ link register save eliminated.
 631 0000 80B4     		push	{r7}
 632              		.cfi_def_cfa_offset 4
 633              		.cfi_offset 7, -4
 634 0002 85B0     		sub	sp, sp, #20
 635              		.cfi_def_cfa_offset 24
 636 0004 00AF     		add	r7, sp, #0
 637              		.cfi_def_cfa_register 7
 638 0006 F860     		str	r0, [r7, #12]
 639 0008 0B46     		mov	r3, r1
 640 000a 7A60     		str	r2, [r7, #4]
 641 000c FB72     		strb	r3, [r7, #11]
 322:Drivers/STM32L4xx_HAL_Driver/Src/stm32l4xx_hal_sd_ex.c ****   if(Buffer == SD_DMA_BUFFER0)
 642              		.loc 1 322 5
 643 000e FB7A     		ldrb	r3, [r7, #11]	@ zero_extendqisi2
 644 0010 002B     		cmp	r3, #0
 645 0012 04D1     		bne	.L28
 323:Drivers/STM32L4xx_HAL_Driver/Src/stm32l4xx_hal_sd_ex.c ****   {
 324:Drivers/STM32L4xx_HAL_Driver/Src/stm32l4xx_hal_sd_ex.c ****     /* change the buffer0 address */
 325:Drivers/STM32L4xx_HAL_Driver/Src/stm32l4xx_hal_sd_ex.c ****     hsd->Instance->IDMABASE0 = (uint32_t)pDataBuffer;
 646              		.loc 1 325 8
 647 0014 FB68     		ldr	r3, [r7, #12]
 648 0016 1B68     		ldr	r3, [r3]
 649              		.loc 1 325 32
 650 0018 7A68     		ldr	r2, [r7, #4]
 651              		.loc 1 325 30
 652 001a 9A65     		str	r2, [r3, #88]
 653 001c 03E0     		b	.L29
 654              	.L28:
 326:Drivers/STM32L4xx_HAL_Driver/Src/stm32l4xx_hal_sd_ex.c ****   }
ARM GAS  C:\Users\Morroway\AppData\Local\Temp\cckX7YxH.s 			page 18


 327:Drivers/STM32L4xx_HAL_Driver/Src/stm32l4xx_hal_sd_ex.c ****   else
 328:Drivers/STM32L4xx_HAL_Driver/Src/stm32l4xx_hal_sd_ex.c ****   {
 329:Drivers/STM32L4xx_HAL_Driver/Src/stm32l4xx_hal_sd_ex.c ****     /* change the memory1 address */
 330:Drivers/STM32L4xx_HAL_Driver/Src/stm32l4xx_hal_sd_ex.c ****     hsd->Instance->IDMABASE1 = (uint32_t)pDataBuffer;
 655              		.loc 1 330 8
 656 001e FB68     		ldr	r3, [r7, #12]
 657 0020 1B68     		ldr	r3, [r3]
 658              		.loc 1 330 32
 659 0022 7A68     		ldr	r2, [r7, #4]
 660              		.loc 1 330 30
 661 0024 DA65     		str	r2, [r3, #92]
 662              	.L29:
 331:Drivers/STM32L4xx_HAL_Driver/Src/stm32l4xx_hal_sd_ex.c ****   }
 332:Drivers/STM32L4xx_HAL_Driver/Src/stm32l4xx_hal_sd_ex.c **** 
 333:Drivers/STM32L4xx_HAL_Driver/Src/stm32l4xx_hal_sd_ex.c ****   return HAL_OK;
 663              		.loc 1 333 10
 664 0026 0023     		movs	r3, #0
 334:Drivers/STM32L4xx_HAL_Driver/Src/stm32l4xx_hal_sd_ex.c **** }
 665              		.loc 1 334 1
 666 0028 1846     		mov	r0, r3
 667 002a 1437     		adds	r7, r7, #20
 668              		.cfi_def_cfa_offset 4
 669 002c BD46     		mov	sp, r7
 670              		.cfi_def_cfa_register 13
 671              		@ sp needed
 672 002e 5DF8047B 		ldr	r7, [sp], #4
 673              		.cfi_restore 7
 674              		.cfi_def_cfa_offset 0
 675 0032 7047     		bx	lr
 676              		.cfi_endproc
 677              	.LFE326:
 679              		.section	.text.HAL_SDEx_Read_DMADoubleBuffer0CpltCallback,"ax",%progbits
 680              		.align	1
 681              		.weak	HAL_SDEx_Read_DMADoubleBuffer0CpltCallback
 682              		.syntax unified
 683              		.thumb
 684              		.thumb_func
 686              	HAL_SDEx_Read_DMADoubleBuffer0CpltCallback:
 687              	.LFB327:
 335:Drivers/STM32L4xx_HAL_Driver/Src/stm32l4xx_hal_sd_ex.c **** 
 336:Drivers/STM32L4xx_HAL_Driver/Src/stm32l4xx_hal_sd_ex.c **** /**
 337:Drivers/STM32L4xx_HAL_Driver/Src/stm32l4xx_hal_sd_ex.c ****   * @brief Read DMA Buffer 0 Transfer completed callbacks
 338:Drivers/STM32L4xx_HAL_Driver/Src/stm32l4xx_hal_sd_ex.c ****   * @param hsd: SD handle
 339:Drivers/STM32L4xx_HAL_Driver/Src/stm32l4xx_hal_sd_ex.c ****   * @retval None
 340:Drivers/STM32L4xx_HAL_Driver/Src/stm32l4xx_hal_sd_ex.c ****   */
 341:Drivers/STM32L4xx_HAL_Driver/Src/stm32l4xx_hal_sd_ex.c **** __weak void HAL_SDEx_Read_DMADoubleBuffer0CpltCallback(SD_HandleTypeDef *hsd)
 342:Drivers/STM32L4xx_HAL_Driver/Src/stm32l4xx_hal_sd_ex.c **** {
 688              		.loc 1 342 1
 689              		.cfi_startproc
 690              		@ args = 0, pretend = 0, frame = 8
 691              		@ frame_needed = 1, uses_anonymous_args = 0
 692              		@ link register save eliminated.
 693 0000 80B4     		push	{r7}
 694              		.cfi_def_cfa_offset 4
 695              		.cfi_offset 7, -4
 696 0002 83B0     		sub	sp, sp, #12
 697              		.cfi_def_cfa_offset 16
ARM GAS  C:\Users\Morroway\AppData\Local\Temp\cckX7YxH.s 			page 19


 698 0004 00AF     		add	r7, sp, #0
 699              		.cfi_def_cfa_register 7
 700 0006 7860     		str	r0, [r7, #4]
 343:Drivers/STM32L4xx_HAL_Driver/Src/stm32l4xx_hal_sd_ex.c ****   /* Prevent unused argument(s) compilation warning */
 344:Drivers/STM32L4xx_HAL_Driver/Src/stm32l4xx_hal_sd_ex.c ****   UNUSED(hsd);
 345:Drivers/STM32L4xx_HAL_Driver/Src/stm32l4xx_hal_sd_ex.c **** 
 346:Drivers/STM32L4xx_HAL_Driver/Src/stm32l4xx_hal_sd_ex.c ****   /* NOTE : This function should not be modified, when the callback is needed,
 347:Drivers/STM32L4xx_HAL_Driver/Src/stm32l4xx_hal_sd_ex.c ****             the HAL_SDEx_Read_DMADoubleBuffer0CpltCallback can be implemented in the user file
 348:Drivers/STM32L4xx_HAL_Driver/Src/stm32l4xx_hal_sd_ex.c ****    */
 349:Drivers/STM32L4xx_HAL_Driver/Src/stm32l4xx_hal_sd_ex.c **** }
 701              		.loc 1 349 1
 702 0008 00BF     		nop
 703 000a 0C37     		adds	r7, r7, #12
 704              		.cfi_def_cfa_offset 4
 705 000c BD46     		mov	sp, r7
 706              		.cfi_def_cfa_register 13
 707              		@ sp needed
 708 000e 5DF8047B 		ldr	r7, [sp], #4
 709              		.cfi_restore 7
 710              		.cfi_def_cfa_offset 0
 711 0012 7047     		bx	lr
 712              		.cfi_endproc
 713              	.LFE327:
 715              		.section	.text.HAL_SDEx_Read_DMADoubleBuffer1CpltCallback,"ax",%progbits
 716              		.align	1
 717              		.weak	HAL_SDEx_Read_DMADoubleBuffer1CpltCallback
 718              		.syntax unified
 719              		.thumb
 720              		.thumb_func
 722              	HAL_SDEx_Read_DMADoubleBuffer1CpltCallback:
 723              	.LFB328:
 350:Drivers/STM32L4xx_HAL_Driver/Src/stm32l4xx_hal_sd_ex.c **** 
 351:Drivers/STM32L4xx_HAL_Driver/Src/stm32l4xx_hal_sd_ex.c **** /**
 352:Drivers/STM32L4xx_HAL_Driver/Src/stm32l4xx_hal_sd_ex.c ****   * @brief Read DMA Buffer 1 Transfer completed callbacks
 353:Drivers/STM32L4xx_HAL_Driver/Src/stm32l4xx_hal_sd_ex.c ****   * @param hsd: SD handle
 354:Drivers/STM32L4xx_HAL_Driver/Src/stm32l4xx_hal_sd_ex.c ****   * @retval None
 355:Drivers/STM32L4xx_HAL_Driver/Src/stm32l4xx_hal_sd_ex.c ****   */
 356:Drivers/STM32L4xx_HAL_Driver/Src/stm32l4xx_hal_sd_ex.c **** __weak void HAL_SDEx_Read_DMADoubleBuffer1CpltCallback(SD_HandleTypeDef *hsd)
 357:Drivers/STM32L4xx_HAL_Driver/Src/stm32l4xx_hal_sd_ex.c **** {
 724              		.loc 1 357 1
 725              		.cfi_startproc
 726              		@ args = 0, pretend = 0, frame = 8
 727              		@ frame_needed = 1, uses_anonymous_args = 0
 728              		@ link register save eliminated.
 729 0000 80B4     		push	{r7}
 730              		.cfi_def_cfa_offset 4
 731              		.cfi_offset 7, -4
 732 0002 83B0     		sub	sp, sp, #12
 733              		.cfi_def_cfa_offset 16
 734 0004 00AF     		add	r7, sp, #0
 735              		.cfi_def_cfa_register 7
 736 0006 7860     		str	r0, [r7, #4]
 358:Drivers/STM32L4xx_HAL_Driver/Src/stm32l4xx_hal_sd_ex.c ****   /* Prevent unused argument(s) compilation warning */
 359:Drivers/STM32L4xx_HAL_Driver/Src/stm32l4xx_hal_sd_ex.c ****   UNUSED(hsd);
 360:Drivers/STM32L4xx_HAL_Driver/Src/stm32l4xx_hal_sd_ex.c **** 
 361:Drivers/STM32L4xx_HAL_Driver/Src/stm32l4xx_hal_sd_ex.c ****   /* NOTE : This function should not be modified, when the callback is needed,
 362:Drivers/STM32L4xx_HAL_Driver/Src/stm32l4xx_hal_sd_ex.c ****             the HAL_SDEx_Read_DMADoubleBuffer1CpltCallback can be implemented in the user file
ARM GAS  C:\Users\Morroway\AppData\Local\Temp\cckX7YxH.s 			page 20


 363:Drivers/STM32L4xx_HAL_Driver/Src/stm32l4xx_hal_sd_ex.c ****    */
 364:Drivers/STM32L4xx_HAL_Driver/Src/stm32l4xx_hal_sd_ex.c **** }
 737              		.loc 1 364 1
 738 0008 00BF     		nop
 739 000a 0C37     		adds	r7, r7, #12
 740              		.cfi_def_cfa_offset 4
 741 000c BD46     		mov	sp, r7
 742              		.cfi_def_cfa_register 13
 743              		@ sp needed
 744 000e 5DF8047B 		ldr	r7, [sp], #4
 745              		.cfi_restore 7
 746              		.cfi_def_cfa_offset 0
 747 0012 7047     		bx	lr
 748              		.cfi_endproc
 749              	.LFE328:
 751              		.section	.text.HAL_SDEx_Write_DMADoubleBuffer0CpltCallback,"ax",%progbits
 752              		.align	1
 753              		.weak	HAL_SDEx_Write_DMADoubleBuffer0CpltCallback
 754              		.syntax unified
 755              		.thumb
 756              		.thumb_func
 758              	HAL_SDEx_Write_DMADoubleBuffer0CpltCallback:
 759              	.LFB329:
 365:Drivers/STM32L4xx_HAL_Driver/Src/stm32l4xx_hal_sd_ex.c **** 
 366:Drivers/STM32L4xx_HAL_Driver/Src/stm32l4xx_hal_sd_ex.c **** /**
 367:Drivers/STM32L4xx_HAL_Driver/Src/stm32l4xx_hal_sd_ex.c ****   * @brief Write DMA Buffer 0 Transfer completed callbacks
 368:Drivers/STM32L4xx_HAL_Driver/Src/stm32l4xx_hal_sd_ex.c ****   * @param hsd: SD handle
 369:Drivers/STM32L4xx_HAL_Driver/Src/stm32l4xx_hal_sd_ex.c ****   * @retval None
 370:Drivers/STM32L4xx_HAL_Driver/Src/stm32l4xx_hal_sd_ex.c ****   */
 371:Drivers/STM32L4xx_HAL_Driver/Src/stm32l4xx_hal_sd_ex.c **** __weak void HAL_SDEx_Write_DMADoubleBuffer0CpltCallback(SD_HandleTypeDef *hsd)
 372:Drivers/STM32L4xx_HAL_Driver/Src/stm32l4xx_hal_sd_ex.c **** {
 760              		.loc 1 372 1
 761              		.cfi_startproc
 762              		@ args = 0, pretend = 0, frame = 8
 763              		@ frame_needed = 1, uses_anonymous_args = 0
 764              		@ link register save eliminated.
 765 0000 80B4     		push	{r7}
 766              		.cfi_def_cfa_offset 4
 767              		.cfi_offset 7, -4
 768 0002 83B0     		sub	sp, sp, #12
 769              		.cfi_def_cfa_offset 16
 770 0004 00AF     		add	r7, sp, #0
 771              		.cfi_def_cfa_register 7
 772 0006 7860     		str	r0, [r7, #4]
 373:Drivers/STM32L4xx_HAL_Driver/Src/stm32l4xx_hal_sd_ex.c ****   /* Prevent unused argument(s) compilation warning */
 374:Drivers/STM32L4xx_HAL_Driver/Src/stm32l4xx_hal_sd_ex.c ****   UNUSED(hsd);
 375:Drivers/STM32L4xx_HAL_Driver/Src/stm32l4xx_hal_sd_ex.c **** 
 376:Drivers/STM32L4xx_HAL_Driver/Src/stm32l4xx_hal_sd_ex.c ****   /* NOTE : This function should not be modified, when the callback is needed,
 377:Drivers/STM32L4xx_HAL_Driver/Src/stm32l4xx_hal_sd_ex.c ****             the HAL_SDEx_Write_DMADoubleBuffer0CpltCallback can be implemented in the user file
 378:Drivers/STM32L4xx_HAL_Driver/Src/stm32l4xx_hal_sd_ex.c ****    */
 379:Drivers/STM32L4xx_HAL_Driver/Src/stm32l4xx_hal_sd_ex.c **** }
 773              		.loc 1 379 1
 774 0008 00BF     		nop
 775 000a 0C37     		adds	r7, r7, #12
 776              		.cfi_def_cfa_offset 4
 777 000c BD46     		mov	sp, r7
 778              		.cfi_def_cfa_register 13
ARM GAS  C:\Users\Morroway\AppData\Local\Temp\cckX7YxH.s 			page 21


 779              		@ sp needed
 780 000e 5DF8047B 		ldr	r7, [sp], #4
 781              		.cfi_restore 7
 782              		.cfi_def_cfa_offset 0
 783 0012 7047     		bx	lr
 784              		.cfi_endproc
 785              	.LFE329:
 787              		.section	.text.HAL_SDEx_Write_DMADoubleBuffer1CpltCallback,"ax",%progbits
 788              		.align	1
 789              		.weak	HAL_SDEx_Write_DMADoubleBuffer1CpltCallback
 790              		.syntax unified
 791              		.thumb
 792              		.thumb_func
 794              	HAL_SDEx_Write_DMADoubleBuffer1CpltCallback:
 795              	.LFB330:
 380:Drivers/STM32L4xx_HAL_Driver/Src/stm32l4xx_hal_sd_ex.c **** 
 381:Drivers/STM32L4xx_HAL_Driver/Src/stm32l4xx_hal_sd_ex.c **** /**
 382:Drivers/STM32L4xx_HAL_Driver/Src/stm32l4xx_hal_sd_ex.c ****   * @brief Write DMA Buffer 1 Transfer completed callbacks
 383:Drivers/STM32L4xx_HAL_Driver/Src/stm32l4xx_hal_sd_ex.c ****   * @param hsd: SD handle
 384:Drivers/STM32L4xx_HAL_Driver/Src/stm32l4xx_hal_sd_ex.c ****   * @retval None
 385:Drivers/STM32L4xx_HAL_Driver/Src/stm32l4xx_hal_sd_ex.c ****   */
 386:Drivers/STM32L4xx_HAL_Driver/Src/stm32l4xx_hal_sd_ex.c **** __weak void HAL_SDEx_Write_DMADoubleBuffer1CpltCallback(SD_HandleTypeDef *hsd)
 387:Drivers/STM32L4xx_HAL_Driver/Src/stm32l4xx_hal_sd_ex.c **** {
 796              		.loc 1 387 1
 797              		.cfi_startproc
 798              		@ args = 0, pretend = 0, frame = 8
 799              		@ frame_needed = 1, uses_anonymous_args = 0
 800              		@ link register save eliminated.
 801 0000 80B4     		push	{r7}
 802              		.cfi_def_cfa_offset 4
 803              		.cfi_offset 7, -4
 804 0002 83B0     		sub	sp, sp, #12
 805              		.cfi_def_cfa_offset 16
 806 0004 00AF     		add	r7, sp, #0
 807              		.cfi_def_cfa_register 7
 808 0006 7860     		str	r0, [r7, #4]
 388:Drivers/STM32L4xx_HAL_Driver/Src/stm32l4xx_hal_sd_ex.c ****   /* Prevent unused argument(s) compilation warning */
 389:Drivers/STM32L4xx_HAL_Driver/Src/stm32l4xx_hal_sd_ex.c ****   UNUSED(hsd);
 390:Drivers/STM32L4xx_HAL_Driver/Src/stm32l4xx_hal_sd_ex.c **** 
 391:Drivers/STM32L4xx_HAL_Driver/Src/stm32l4xx_hal_sd_ex.c ****   /* NOTE : This function should not be modified, when the callback is needed,
 392:Drivers/STM32L4xx_HAL_Driver/Src/stm32l4xx_hal_sd_ex.c ****             the HAL_SDEx_Write_DMADoubleBuffer0CpltCallback can be implemented in the user file
 393:Drivers/STM32L4xx_HAL_Driver/Src/stm32l4xx_hal_sd_ex.c ****    */
 394:Drivers/STM32L4xx_HAL_Driver/Src/stm32l4xx_hal_sd_ex.c **** }
 809              		.loc 1 394 1
 810 0008 00BF     		nop
 811 000a 0C37     		adds	r7, r7, #12
 812              		.cfi_def_cfa_offset 4
 813 000c BD46     		mov	sp, r7
 814              		.cfi_def_cfa_register 13
 815              		@ sp needed
 816 000e 5DF8047B 		ldr	r7, [sp], #4
 817              		.cfi_restore 7
 818              		.cfi_def_cfa_offset 0
 819 0012 7047     		bx	lr
 820              		.cfi_endproc
 821              	.LFE330:
 823              		.text
ARM GAS  C:\Users\Morroway\AppData\Local\Temp\cckX7YxH.s 			page 22


 824              	.Letext0:
 825              		.file 2 "c:\\users\\morroway\\appdata\\roaming\\code\\user\\globalstorage\\bmd.stm32-for-vscode\\@
 826              		.file 3 "c:\\users\\morroway\\appdata\\roaming\\code\\user\\globalstorage\\bmd.stm32-for-vscode\\@
 827              		.file 4 "Drivers/CMSIS/Device/ST/STM32L4xx/Include/stm32l4p5xx.h"
 828              		.file 5 "Drivers/CMSIS/Device/ST/STM32L4xx/Include/stm32l4xx.h"
 829              		.file 6 "Drivers/STM32L4xx_HAL_Driver/Inc/stm32l4xx_hal_def.h"
 830              		.file 7 "Drivers/STM32L4xx_HAL_Driver/Inc/stm32l4xx_ll_sdmmc.h"
 831              		.file 8 "Drivers/STM32L4xx_HAL_Driver/Inc/stm32l4xx_hal_sd.h"
 832              		.file 9 "Drivers/STM32L4xx_HAL_Driver/Inc/stm32l4xx_hal_sd_ex.h"
ARM GAS  C:\Users\Morroway\AppData\Local\Temp\cckX7YxH.s 			page 23

