ARM GAS  C:\Users\Morroway\AppData\Local\Temp\ccxQAUQ3.s 			page 1


   1              		.cpu cortex-m4
   2              		.arch armv7e-m
   3              		.fpu fpv4-sp-d16
   4              		.eabi_attribute 27, 1
   5              		.eabi_attribute 28, 1
   6              		.eabi_attribute 20, 1
   7              		.eabi_attribute 21, 1
   8              		.eabi_attribute 23, 3
   9              		.eabi_attribute 24, 1
  10              		.eabi_attribute 25, 1
  11              		.eabi_attribute 26, 1
  12              		.eabi_attribute 30, 6
  13              		.eabi_attribute 34, 1
  14              		.eabi_attribute 18, 4
  15              		.file	"stm32l4xx_hal_ospi.c"
  16              		.text
  17              	.Ltext0:
  18              		.cfi_sections	.debug_frame
  19              		.section	.text.HAL_OSPI_Init,"ax",%progbits
  20              		.align	1
  21              		.global	HAL_OSPI_Init
  22              		.syntax unified
  23              		.thumb
  24              		.thumb_func
  26              	HAL_OSPI_Init:
  27              	.LFB321:
  28              		.file 1 "Drivers/STM32L4xx_HAL_Driver/Src/stm32l4xx_hal_ospi.c"
   1:Drivers/STM32L4xx_HAL_Driver/Src/stm32l4xx_hal_ospi.c **** /**
   2:Drivers/STM32L4xx_HAL_Driver/Src/stm32l4xx_hal_ospi.c ****   ******************************************************************************
   3:Drivers/STM32L4xx_HAL_Driver/Src/stm32l4xx_hal_ospi.c ****   * @file    stm32l4xx_hal_ospi.c
   4:Drivers/STM32L4xx_HAL_Driver/Src/stm32l4xx_hal_ospi.c ****   * @author  MCD Application Team
   5:Drivers/STM32L4xx_HAL_Driver/Src/stm32l4xx_hal_ospi.c ****   * @brief   OSPI HAL module driver.
   6:Drivers/STM32L4xx_HAL_Driver/Src/stm32l4xx_hal_ospi.c ****              This file provides firmware functions to manage the following
   7:Drivers/STM32L4xx_HAL_Driver/Src/stm32l4xx_hal_ospi.c ****              functionalities of the OctoSPI interface (OSPI).
   8:Drivers/STM32L4xx_HAL_Driver/Src/stm32l4xx_hal_ospi.c ****               + Initialization and de-initialization functions
   9:Drivers/STM32L4xx_HAL_Driver/Src/stm32l4xx_hal_ospi.c ****               + Hyperbus configuration
  10:Drivers/STM32L4xx_HAL_Driver/Src/stm32l4xx_hal_ospi.c ****               + Indirect functional mode management
  11:Drivers/STM32L4xx_HAL_Driver/Src/stm32l4xx_hal_ospi.c ****               + Memory-mapped functional mode management
  12:Drivers/STM32L4xx_HAL_Driver/Src/stm32l4xx_hal_ospi.c ****               + Auto-polling functional mode management
  13:Drivers/STM32L4xx_HAL_Driver/Src/stm32l4xx_hal_ospi.c ****               + Interrupts and flags management
  14:Drivers/STM32L4xx_HAL_Driver/Src/stm32l4xx_hal_ospi.c ****               + DMA channel configuration for indirect functional mode
  15:Drivers/STM32L4xx_HAL_Driver/Src/stm32l4xx_hal_ospi.c ****               + Errors management and abort functionality
  16:Drivers/STM32L4xx_HAL_Driver/Src/stm32l4xx_hal_ospi.c ****               + IO manager configuration
  17:Drivers/STM32L4xx_HAL_Driver/Src/stm32l4xx_hal_ospi.c **** 
  18:Drivers/STM32L4xx_HAL_Driver/Src/stm32l4xx_hal_ospi.c ****   ******************************************************************************
  19:Drivers/STM32L4xx_HAL_Driver/Src/stm32l4xx_hal_ospi.c ****   * @attention
  20:Drivers/STM32L4xx_HAL_Driver/Src/stm32l4xx_hal_ospi.c ****   *
  21:Drivers/STM32L4xx_HAL_Driver/Src/stm32l4xx_hal_ospi.c ****   * Copyright (c) 2017 STMicroelectronics.
  22:Drivers/STM32L4xx_HAL_Driver/Src/stm32l4xx_hal_ospi.c ****   * All rights reserved.
  23:Drivers/STM32L4xx_HAL_Driver/Src/stm32l4xx_hal_ospi.c ****   *
  24:Drivers/STM32L4xx_HAL_Driver/Src/stm32l4xx_hal_ospi.c ****   * This software is licensed under terms that can be found in the LICENSE file
  25:Drivers/STM32L4xx_HAL_Driver/Src/stm32l4xx_hal_ospi.c ****   * in the root directory of this software component.
  26:Drivers/STM32L4xx_HAL_Driver/Src/stm32l4xx_hal_ospi.c ****   * If no LICENSE file comes with this software, it is provided AS-IS.
  27:Drivers/STM32L4xx_HAL_Driver/Src/stm32l4xx_hal_ospi.c ****   *
  28:Drivers/STM32L4xx_HAL_Driver/Src/stm32l4xx_hal_ospi.c ****   ******************************************************************************
  29:Drivers/STM32L4xx_HAL_Driver/Src/stm32l4xx_hal_ospi.c ****   @verbatim
  30:Drivers/STM32L4xx_HAL_Driver/Src/stm32l4xx_hal_ospi.c ****  ===============================================================================
ARM GAS  C:\Users\Morroway\AppData\Local\Temp\ccxQAUQ3.s 			page 2


  31:Drivers/STM32L4xx_HAL_Driver/Src/stm32l4xx_hal_ospi.c ****                         ##### How to use this driver #####
  32:Drivers/STM32L4xx_HAL_Driver/Src/stm32l4xx_hal_ospi.c ****  ===============================================================================
  33:Drivers/STM32L4xx_HAL_Driver/Src/stm32l4xx_hal_ospi.c ****   [..]
  34:Drivers/STM32L4xx_HAL_Driver/Src/stm32l4xx_hal_ospi.c ****     *** Initialization ***
  35:Drivers/STM32L4xx_HAL_Driver/Src/stm32l4xx_hal_ospi.c ****     ======================
  36:Drivers/STM32L4xx_HAL_Driver/Src/stm32l4xx_hal_ospi.c ****     [..]
  37:Drivers/STM32L4xx_HAL_Driver/Src/stm32l4xx_hal_ospi.c ****      As prerequisite, fill in the HAL_OSPI_MspInit() :
  38:Drivers/STM32L4xx_HAL_Driver/Src/stm32l4xx_hal_ospi.c ****      (+) Enable OctoSPI and OctoSPIM clocks interface with __HAL_RCC_OSPIx_CLK_ENABLE().
  39:Drivers/STM32L4xx_HAL_Driver/Src/stm32l4xx_hal_ospi.c ****      (+) Reset OctoSPI Peripheral with __HAL_RCC_OSPIx_FORCE_RESET() and __HAL_RCC_OSPIx_RELEASE_RE
  40:Drivers/STM32L4xx_HAL_Driver/Src/stm32l4xx_hal_ospi.c ****      (+) Enable the clocks for the OctoSPI GPIOS with __HAL_RCC_GPIOx_CLK_ENABLE().
  41:Drivers/STM32L4xx_HAL_Driver/Src/stm32l4xx_hal_ospi.c ****      (+) Configure these OctoSPI pins in alternate mode using HAL_GPIO_Init().
  42:Drivers/STM32L4xx_HAL_Driver/Src/stm32l4xx_hal_ospi.c ****      (+) If interrupt or DMA mode is used, enable and configure OctoSPI global
  43:Drivers/STM32L4xx_HAL_Driver/Src/stm32l4xx_hal_ospi.c ****          interrupt with HAL_NVIC_SetPriority() and HAL_NVIC_EnableIRQ().
  44:Drivers/STM32L4xx_HAL_Driver/Src/stm32l4xx_hal_ospi.c ****      (+) If DMA mode is used, enable the clocks for the OctoSPI DMA channel
  45:Drivers/STM32L4xx_HAL_Driver/Src/stm32l4xx_hal_ospi.c ****          with __HAL_RCC_DMAx_CLK_ENABLE(), configure DMA with HAL_DMA_Init(),
  46:Drivers/STM32L4xx_HAL_Driver/Src/stm32l4xx_hal_ospi.c ****          link it with OctoSPI handle using __HAL_LINKDMA(), enable and configure
  47:Drivers/STM32L4xx_HAL_Driver/Src/stm32l4xx_hal_ospi.c ****          DMA channel global interrupt with HAL_NVIC_SetPriority() and HAL_NVIC_EnableIRQ().
  48:Drivers/STM32L4xx_HAL_Driver/Src/stm32l4xx_hal_ospi.c ****     [..]
  49:Drivers/STM32L4xx_HAL_Driver/Src/stm32l4xx_hal_ospi.c ****      Configure the fifo threshold, the dual-quad mode, the memory type, the
  50:Drivers/STM32L4xx_HAL_Driver/Src/stm32l4xx_hal_ospi.c ****      device size, the CS high time, the free running clock, the clock mode,
  51:Drivers/STM32L4xx_HAL_Driver/Src/stm32l4xx_hal_ospi.c ****      the wrap size, the clock prescaler, the sample shifting, the hold delay
  52:Drivers/STM32L4xx_HAL_Driver/Src/stm32l4xx_hal_ospi.c ****      and the CS boundary using the HAL_OSPI_Init() function.
  53:Drivers/STM32L4xx_HAL_Driver/Src/stm32l4xx_hal_ospi.c ****     [..]
  54:Drivers/STM32L4xx_HAL_Driver/Src/stm32l4xx_hal_ospi.c ****      When using Hyperbus, configure the RW recovery time, the access time,
  55:Drivers/STM32L4xx_HAL_Driver/Src/stm32l4xx_hal_ospi.c ****      the write latency and the latency mode unsing the HAL_OSPI_HyperbusCfg()
  56:Drivers/STM32L4xx_HAL_Driver/Src/stm32l4xx_hal_ospi.c ****      function.
  57:Drivers/STM32L4xx_HAL_Driver/Src/stm32l4xx_hal_ospi.c **** 
  58:Drivers/STM32L4xx_HAL_Driver/Src/stm32l4xx_hal_ospi.c ****     *** Indirect functional mode ***
  59:Drivers/STM32L4xx_HAL_Driver/Src/stm32l4xx_hal_ospi.c ****     ================================
  60:Drivers/STM32L4xx_HAL_Driver/Src/stm32l4xx_hal_ospi.c ****     [..]
  61:Drivers/STM32L4xx_HAL_Driver/Src/stm32l4xx_hal_ospi.c ****      In regular mode, configure the command sequence using the HAL_OSPI_Command()
  62:Drivers/STM32L4xx_HAL_Driver/Src/stm32l4xx_hal_ospi.c ****      or HAL_OSPI_Command_IT() functions :
  63:Drivers/STM32L4xx_HAL_Driver/Src/stm32l4xx_hal_ospi.c ****      (+) Instruction phase : the mode used and if present the size, the instruction
  64:Drivers/STM32L4xx_HAL_Driver/Src/stm32l4xx_hal_ospi.c ****          opcode and the DTR mode.
  65:Drivers/STM32L4xx_HAL_Driver/Src/stm32l4xx_hal_ospi.c ****      (+) Address phase : the mode used and if present the size, the address
  66:Drivers/STM32L4xx_HAL_Driver/Src/stm32l4xx_hal_ospi.c ****          value and the DTR mode.
  67:Drivers/STM32L4xx_HAL_Driver/Src/stm32l4xx_hal_ospi.c ****      (+) Alternate-bytes phase : the mode used and if present the size, the
  68:Drivers/STM32L4xx_HAL_Driver/Src/stm32l4xx_hal_ospi.c ****          alternate bytes values and the DTR mode.
  69:Drivers/STM32L4xx_HAL_Driver/Src/stm32l4xx_hal_ospi.c ****      (+) Dummy-cycles phase : the number of dummy cycles (mode used is same as data phase).
  70:Drivers/STM32L4xx_HAL_Driver/Src/stm32l4xx_hal_ospi.c ****      (+) Data phase : the mode used and if present the number of bytes and the DTR mode.
  71:Drivers/STM32L4xx_HAL_Driver/Src/stm32l4xx_hal_ospi.c ****      (+) Data strobe (DQS) mode : the activation (or not) of this mode
  72:Drivers/STM32L4xx_HAL_Driver/Src/stm32l4xx_hal_ospi.c ****      (+) Sending Instruction Only Once (SIOO) mode : the activation (or not) of this mode.
  73:Drivers/STM32L4xx_HAL_Driver/Src/stm32l4xx_hal_ospi.c ****      (+) Flash identifier : in dual-quad mode, indicates which flash is concerned
  74:Drivers/STM32L4xx_HAL_Driver/Src/stm32l4xx_hal_ospi.c ****      (+) Operation type : always common configuration
  75:Drivers/STM32L4xx_HAL_Driver/Src/stm32l4xx_hal_ospi.c ****     [..]
  76:Drivers/STM32L4xx_HAL_Driver/Src/stm32l4xx_hal_ospi.c ****      In Hyperbus mode, configure the command sequence using the HAL_OSPI_HyperbusCmd()
  77:Drivers/STM32L4xx_HAL_Driver/Src/stm32l4xx_hal_ospi.c ****      function :
  78:Drivers/STM32L4xx_HAL_Driver/Src/stm32l4xx_hal_ospi.c ****      (+) Address space : indicate if the access will be done in register or memory
  79:Drivers/STM32L4xx_HAL_Driver/Src/stm32l4xx_hal_ospi.c ****      (+) Address size
  80:Drivers/STM32L4xx_HAL_Driver/Src/stm32l4xx_hal_ospi.c ****      (+) Number of data
  81:Drivers/STM32L4xx_HAL_Driver/Src/stm32l4xx_hal_ospi.c ****      (+) Data strobe (DQS) mode : the activation (or not) of this mode
  82:Drivers/STM32L4xx_HAL_Driver/Src/stm32l4xx_hal_ospi.c ****     [..]
  83:Drivers/STM32L4xx_HAL_Driver/Src/stm32l4xx_hal_ospi.c ****      If no data is required for the command (only for regular mode, not for
  84:Drivers/STM32L4xx_HAL_Driver/Src/stm32l4xx_hal_ospi.c ****      Hyperbus mode), it is sent directly to the memory :
  85:Drivers/STM32L4xx_HAL_Driver/Src/stm32l4xx_hal_ospi.c ****      (+) In polling mode, the output of the function is done when the transfer is complete.
  86:Drivers/STM32L4xx_HAL_Driver/Src/stm32l4xx_hal_ospi.c ****      (+) In interrupt mode, HAL_OSPI_CmdCpltCallback() will be called when the transfer is complete
  87:Drivers/STM32L4xx_HAL_Driver/Src/stm32l4xx_hal_ospi.c ****     [..]
ARM GAS  C:\Users\Morroway\AppData\Local\Temp\ccxQAUQ3.s 			page 3


  88:Drivers/STM32L4xx_HAL_Driver/Src/stm32l4xx_hal_ospi.c ****      For the indirect write mode, use HAL_OSPI_Transmit(), HAL_OSPI_Transmit_DMA() or
  89:Drivers/STM32L4xx_HAL_Driver/Src/stm32l4xx_hal_ospi.c ****      HAL_OSPI_Transmit_IT() after the command configuration :
  90:Drivers/STM32L4xx_HAL_Driver/Src/stm32l4xx_hal_ospi.c ****      (+) In polling mode, the output of the function is done when the transfer is complete.
  91:Drivers/STM32L4xx_HAL_Driver/Src/stm32l4xx_hal_ospi.c ****      (+) In interrupt mode, HAL_OSPI_FifoThresholdCallback() will be called when the fifo threshold
  92:Drivers/STM32L4xx_HAL_Driver/Src/stm32l4xx_hal_ospi.c ****          is reached and HAL_OSPI_TxCpltCallback() will be called when the transfer is complete.
  93:Drivers/STM32L4xx_HAL_Driver/Src/stm32l4xx_hal_ospi.c ****      (+) In DMA mode, HAL_OSPI_TxHalfCpltCallback() will be called at the half transfer and
  94:Drivers/STM32L4xx_HAL_Driver/Src/stm32l4xx_hal_ospi.c ****          HAL_OSPI_TxCpltCallback() will be called when the transfer is complete.
  95:Drivers/STM32L4xx_HAL_Driver/Src/stm32l4xx_hal_ospi.c ****     [..]
  96:Drivers/STM32L4xx_HAL_Driver/Src/stm32l4xx_hal_ospi.c ****      For the indirect read mode, use HAL_OSPI_Receive(), HAL_OSPI_Receive_DMA() or
  97:Drivers/STM32L4xx_HAL_Driver/Src/stm32l4xx_hal_ospi.c ****      HAL_OSPI_Receive_IT() after the command configuration :
  98:Drivers/STM32L4xx_HAL_Driver/Src/stm32l4xx_hal_ospi.c ****      (+) In polling mode, the output of the function is done when the transfer is complete.
  99:Drivers/STM32L4xx_HAL_Driver/Src/stm32l4xx_hal_ospi.c ****      (+) In interrupt mode, HAL_OSPI_FifoThresholdCallback() will be called when the fifo threshold
 100:Drivers/STM32L4xx_HAL_Driver/Src/stm32l4xx_hal_ospi.c ****          is reached and HAL_OSPI_RxCpltCallback() will be called when the transfer is complete.
 101:Drivers/STM32L4xx_HAL_Driver/Src/stm32l4xx_hal_ospi.c ****      (+) In DMA mode, HAL_OSPI_RxHalfCpltCallback() will be called at the half transfer and
 102:Drivers/STM32L4xx_HAL_Driver/Src/stm32l4xx_hal_ospi.c ****          HAL_OSPI_RxCpltCallback() will be called when the transfer is complete.
 103:Drivers/STM32L4xx_HAL_Driver/Src/stm32l4xx_hal_ospi.c **** 
 104:Drivers/STM32L4xx_HAL_Driver/Src/stm32l4xx_hal_ospi.c ****     *** Auto-polling functional mode ***
 105:Drivers/STM32L4xx_HAL_Driver/Src/stm32l4xx_hal_ospi.c ****     ====================================
 106:Drivers/STM32L4xx_HAL_Driver/Src/stm32l4xx_hal_ospi.c ****     [..]
 107:Drivers/STM32L4xx_HAL_Driver/Src/stm32l4xx_hal_ospi.c ****      Configure the command sequence by the same way than the indirect mode
 108:Drivers/STM32L4xx_HAL_Driver/Src/stm32l4xx_hal_ospi.c ****     [..]
 109:Drivers/STM32L4xx_HAL_Driver/Src/stm32l4xx_hal_ospi.c ****      Configure the auto-polling functional mode using the HAL_OSPI_AutoPolling()
 110:Drivers/STM32L4xx_HAL_Driver/Src/stm32l4xx_hal_ospi.c ****      or HAL_OSPI_AutoPolling_IT() functions :
 111:Drivers/STM32L4xx_HAL_Driver/Src/stm32l4xx_hal_ospi.c ****      (+) The size of the status bytes, the match value, the mask used, the match mode (OR/AND),
 112:Drivers/STM32L4xx_HAL_Driver/Src/stm32l4xx_hal_ospi.c ****          the polling interval and the automatic stop activation.
 113:Drivers/STM32L4xx_HAL_Driver/Src/stm32l4xx_hal_ospi.c ****     [..]
 114:Drivers/STM32L4xx_HAL_Driver/Src/stm32l4xx_hal_ospi.c ****      After the configuration :
 115:Drivers/STM32L4xx_HAL_Driver/Src/stm32l4xx_hal_ospi.c ****      (+) In polling mode, the output of the function is done when the status match is reached. The
 116:Drivers/STM32L4xx_HAL_Driver/Src/stm32l4xx_hal_ospi.c ****          automatic stop is activated to avoid an infinite loop.
 117:Drivers/STM32L4xx_HAL_Driver/Src/stm32l4xx_hal_ospi.c ****      (+) In interrupt mode, HAL_OSPI_StatusMatchCallback() will be called each time the status matc
 118:Drivers/STM32L4xx_HAL_Driver/Src/stm32l4xx_hal_ospi.c **** 
 119:Drivers/STM32L4xx_HAL_Driver/Src/stm32l4xx_hal_ospi.c ****     *** Memory-mapped functional mode ***
 120:Drivers/STM32L4xx_HAL_Driver/Src/stm32l4xx_hal_ospi.c ****     =====================================
 121:Drivers/STM32L4xx_HAL_Driver/Src/stm32l4xx_hal_ospi.c ****     [..]
 122:Drivers/STM32L4xx_HAL_Driver/Src/stm32l4xx_hal_ospi.c ****      Configure the command sequence by the same way than the indirect mode except
 123:Drivers/STM32L4xx_HAL_Driver/Src/stm32l4xx_hal_ospi.c ****      for the operation type in regular mode :
 124:Drivers/STM32L4xx_HAL_Driver/Src/stm32l4xx_hal_ospi.c ****      (+) Operation type equals to read configuration : the command configuration
 125:Drivers/STM32L4xx_HAL_Driver/Src/stm32l4xx_hal_ospi.c ****          applies to read access in memory-mapped mode
 126:Drivers/STM32L4xx_HAL_Driver/Src/stm32l4xx_hal_ospi.c ****      (+) Operation type equals to write configuration : the command configuration
 127:Drivers/STM32L4xx_HAL_Driver/Src/stm32l4xx_hal_ospi.c ****          applies to write access in memory-mapped mode
 128:Drivers/STM32L4xx_HAL_Driver/Src/stm32l4xx_hal_ospi.c ****      (+) Both read and write configuration should be performed before activating
 129:Drivers/STM32L4xx_HAL_Driver/Src/stm32l4xx_hal_ospi.c ****          memory-mapped mode
 130:Drivers/STM32L4xx_HAL_Driver/Src/stm32l4xx_hal_ospi.c ****     [..]
 131:Drivers/STM32L4xx_HAL_Driver/Src/stm32l4xx_hal_ospi.c ****      Configure the memory-mapped functional mode using the HAL_OSPI_MemoryMapped()
 132:Drivers/STM32L4xx_HAL_Driver/Src/stm32l4xx_hal_ospi.c ****      functions :
 133:Drivers/STM32L4xx_HAL_Driver/Src/stm32l4xx_hal_ospi.c ****      (+) The timeout activation and the timeout period.
 134:Drivers/STM32L4xx_HAL_Driver/Src/stm32l4xx_hal_ospi.c ****     [..]
 135:Drivers/STM32L4xx_HAL_Driver/Src/stm32l4xx_hal_ospi.c ****      After the configuration, the OctoSPI will be used as soon as an access on the AHB is done on
 136:Drivers/STM32L4xx_HAL_Driver/Src/stm32l4xx_hal_ospi.c ****      the address range. HAL_OSPI_TimeOutCallback() will be called when the timeout expires.
 137:Drivers/STM32L4xx_HAL_Driver/Src/stm32l4xx_hal_ospi.c **** 
 138:Drivers/STM32L4xx_HAL_Driver/Src/stm32l4xx_hal_ospi.c ****     *** Errors management and abort functionality ***
 139:Drivers/STM32L4xx_HAL_Driver/Src/stm32l4xx_hal_ospi.c ****     =================================================
 140:Drivers/STM32L4xx_HAL_Driver/Src/stm32l4xx_hal_ospi.c ****     [..]
 141:Drivers/STM32L4xx_HAL_Driver/Src/stm32l4xx_hal_ospi.c ****      HAL_OSPI_GetError() function gives the error raised during the last operation.
 142:Drivers/STM32L4xx_HAL_Driver/Src/stm32l4xx_hal_ospi.c ****     [..]
 143:Drivers/STM32L4xx_HAL_Driver/Src/stm32l4xx_hal_ospi.c ****      HAL_OSPI_Abort() and HAL_OSPI_AbortIT() functions aborts any on-going operation and
 144:Drivers/STM32L4xx_HAL_Driver/Src/stm32l4xx_hal_ospi.c ****      flushes the fifo :
ARM GAS  C:\Users\Morroway\AppData\Local\Temp\ccxQAUQ3.s 			page 4


 145:Drivers/STM32L4xx_HAL_Driver/Src/stm32l4xx_hal_ospi.c ****      (+) In polling mode, the output of the function is done when the transfer
 146:Drivers/STM32L4xx_HAL_Driver/Src/stm32l4xx_hal_ospi.c ****          complete bit is set and the busy bit cleared.
 147:Drivers/STM32L4xx_HAL_Driver/Src/stm32l4xx_hal_ospi.c ****      (+) In interrupt mode, HAL_OSPI_AbortCpltCallback() will be called when
 148:Drivers/STM32L4xx_HAL_Driver/Src/stm32l4xx_hal_ospi.c ****          the transfer complete bit is set.
 149:Drivers/STM32L4xx_HAL_Driver/Src/stm32l4xx_hal_ospi.c **** 
 150:Drivers/STM32L4xx_HAL_Driver/Src/stm32l4xx_hal_ospi.c ****     *** Control functions ***
 151:Drivers/STM32L4xx_HAL_Driver/Src/stm32l4xx_hal_ospi.c ****     =========================
 152:Drivers/STM32L4xx_HAL_Driver/Src/stm32l4xx_hal_ospi.c ****     [..]
 153:Drivers/STM32L4xx_HAL_Driver/Src/stm32l4xx_hal_ospi.c ****      HAL_OSPI_GetState() function gives the current state of the HAL OctoSPI driver.
 154:Drivers/STM32L4xx_HAL_Driver/Src/stm32l4xx_hal_ospi.c ****     [..]
 155:Drivers/STM32L4xx_HAL_Driver/Src/stm32l4xx_hal_ospi.c ****      HAL_OSPI_SetTimeout() function configures the timeout value used in the driver.
 156:Drivers/STM32L4xx_HAL_Driver/Src/stm32l4xx_hal_ospi.c ****     [..]
 157:Drivers/STM32L4xx_HAL_Driver/Src/stm32l4xx_hal_ospi.c ****      HAL_OSPI_SetFifoThreshold() function configures the threshold on the Fifo of the OSPI Peripher
 158:Drivers/STM32L4xx_HAL_Driver/Src/stm32l4xx_hal_ospi.c ****     [..]
 159:Drivers/STM32L4xx_HAL_Driver/Src/stm32l4xx_hal_ospi.c ****      HAL_OSPI_GetFifoThreshold() function gives the current of the Fifo's threshold
 160:Drivers/STM32L4xx_HAL_Driver/Src/stm32l4xx_hal_ospi.c **** 
 161:Drivers/STM32L4xx_HAL_Driver/Src/stm32l4xx_hal_ospi.c ****     *** IO manager configuration functions ***
 162:Drivers/STM32L4xx_HAL_Driver/Src/stm32l4xx_hal_ospi.c ****     ==========================================
 163:Drivers/STM32L4xx_HAL_Driver/Src/stm32l4xx_hal_ospi.c ****     [..]
 164:Drivers/STM32L4xx_HAL_Driver/Src/stm32l4xx_hal_ospi.c ****      HAL_OSPIM_Config() function configures the IO manager for the OctoSPI instance.
 165:Drivers/STM32L4xx_HAL_Driver/Src/stm32l4xx_hal_ospi.c **** 
 166:Drivers/STM32L4xx_HAL_Driver/Src/stm32l4xx_hal_ospi.c ****     *** Callback registration ***
 167:Drivers/STM32L4xx_HAL_Driver/Src/stm32l4xx_hal_ospi.c ****     =============================================
 168:Drivers/STM32L4xx_HAL_Driver/Src/stm32l4xx_hal_ospi.c ****     [..]
 169:Drivers/STM32L4xx_HAL_Driver/Src/stm32l4xx_hal_ospi.c ****      The compilation define  USE_HAL_OSPI_REGISTER_CALLBACKS when set to 1
 170:Drivers/STM32L4xx_HAL_Driver/Src/stm32l4xx_hal_ospi.c ****      allows the user to configure dynamically the driver callbacks.
 171:Drivers/STM32L4xx_HAL_Driver/Src/stm32l4xx_hal_ospi.c **** 
 172:Drivers/STM32L4xx_HAL_Driver/Src/stm32l4xx_hal_ospi.c ****     [..]
 173:Drivers/STM32L4xx_HAL_Driver/Src/stm32l4xx_hal_ospi.c ****      Use function HAL_OSPI_RegisterCallback() to register a user callback,
 174:Drivers/STM32L4xx_HAL_Driver/Src/stm32l4xx_hal_ospi.c ****      it allows to register following callbacks:
 175:Drivers/STM32L4xx_HAL_Driver/Src/stm32l4xx_hal_ospi.c ****      (+) ErrorCallback : callback when error occurs.
 176:Drivers/STM32L4xx_HAL_Driver/Src/stm32l4xx_hal_ospi.c ****      (+) AbortCpltCallback : callback when abort is completed.
 177:Drivers/STM32L4xx_HAL_Driver/Src/stm32l4xx_hal_ospi.c ****      (+) FifoThresholdCallback : callback when the fifo threshold is reached.
 178:Drivers/STM32L4xx_HAL_Driver/Src/stm32l4xx_hal_ospi.c ****      (+) CmdCpltCallback : callback when a command without data is completed.
 179:Drivers/STM32L4xx_HAL_Driver/Src/stm32l4xx_hal_ospi.c ****      (+) RxCpltCallback : callback when a reception transfer is completed.
 180:Drivers/STM32L4xx_HAL_Driver/Src/stm32l4xx_hal_ospi.c ****      (+) TxCpltCallback : callback when a transmission transfer is completed.
 181:Drivers/STM32L4xx_HAL_Driver/Src/stm32l4xx_hal_ospi.c ****      (+) RxHalfCpltCallback : callback when half of the reception transfer is completed.
 182:Drivers/STM32L4xx_HAL_Driver/Src/stm32l4xx_hal_ospi.c ****      (+) TxHalfCpltCallback : callback when half of the transmission transfer is completed.
 183:Drivers/STM32L4xx_HAL_Driver/Src/stm32l4xx_hal_ospi.c ****      (+) StatusMatchCallback : callback when a status match occurs.
 184:Drivers/STM32L4xx_HAL_Driver/Src/stm32l4xx_hal_ospi.c ****      (+) TimeOutCallback : callback when the timeout perioed expires.
 185:Drivers/STM32L4xx_HAL_Driver/Src/stm32l4xx_hal_ospi.c ****      (+) MspInitCallback    : OSPI MspInit.
 186:Drivers/STM32L4xx_HAL_Driver/Src/stm32l4xx_hal_ospi.c ****      (+) MspDeInitCallback  : OSPI MspDeInit.
 187:Drivers/STM32L4xx_HAL_Driver/Src/stm32l4xx_hal_ospi.c ****     [..]
 188:Drivers/STM32L4xx_HAL_Driver/Src/stm32l4xx_hal_ospi.c ****      This function takes as parameters the HAL peripheral handle, the Callback ID
 189:Drivers/STM32L4xx_HAL_Driver/Src/stm32l4xx_hal_ospi.c ****      and a pointer to the user callback function.
 190:Drivers/STM32L4xx_HAL_Driver/Src/stm32l4xx_hal_ospi.c **** 
 191:Drivers/STM32L4xx_HAL_Driver/Src/stm32l4xx_hal_ospi.c ****     [..]
 192:Drivers/STM32L4xx_HAL_Driver/Src/stm32l4xx_hal_ospi.c ****      Use function HAL_OSPI_UnRegisterCallback() to reset a callback to the default
 193:Drivers/STM32L4xx_HAL_Driver/Src/stm32l4xx_hal_ospi.c ****      weak (surcharged) function. It allows to reset following callbacks:
 194:Drivers/STM32L4xx_HAL_Driver/Src/stm32l4xx_hal_ospi.c ****      (+) ErrorCallback : callback when error occurs.
 195:Drivers/STM32L4xx_HAL_Driver/Src/stm32l4xx_hal_ospi.c ****      (+) AbortCpltCallback : callback when abort is completed.
 196:Drivers/STM32L4xx_HAL_Driver/Src/stm32l4xx_hal_ospi.c ****      (+) FifoThresholdCallback : callback when the fifo threshold is reached.
 197:Drivers/STM32L4xx_HAL_Driver/Src/stm32l4xx_hal_ospi.c ****      (+) CmdCpltCallback : callback when a command without data is completed.
 198:Drivers/STM32L4xx_HAL_Driver/Src/stm32l4xx_hal_ospi.c ****      (+) RxCpltCallback : callback when a reception transfer is completed.
 199:Drivers/STM32L4xx_HAL_Driver/Src/stm32l4xx_hal_ospi.c ****      (+) TxCpltCallback : callback when a transmission transfer is completed.
 200:Drivers/STM32L4xx_HAL_Driver/Src/stm32l4xx_hal_ospi.c ****      (+) RxHalfCpltCallback : callback when half of the reception transfer is completed.
 201:Drivers/STM32L4xx_HAL_Driver/Src/stm32l4xx_hal_ospi.c ****      (+) TxHalfCpltCallback : callback when half of the transmission transfer is completed.
ARM GAS  C:\Users\Morroway\AppData\Local\Temp\ccxQAUQ3.s 			page 5


 202:Drivers/STM32L4xx_HAL_Driver/Src/stm32l4xx_hal_ospi.c ****      (+) StatusMatchCallback : callback when a status match occurs.
 203:Drivers/STM32L4xx_HAL_Driver/Src/stm32l4xx_hal_ospi.c ****      (+) TimeOutCallback : callback when the timeout perioed expires.
 204:Drivers/STM32L4xx_HAL_Driver/Src/stm32l4xx_hal_ospi.c ****      (+) MspInitCallback    : OSPI MspInit.
 205:Drivers/STM32L4xx_HAL_Driver/Src/stm32l4xx_hal_ospi.c ****      (+) MspDeInitCallback  : OSPI MspDeInit.
 206:Drivers/STM32L4xx_HAL_Driver/Src/stm32l4xx_hal_ospi.c ****     [..]
 207:Drivers/STM32L4xx_HAL_Driver/Src/stm32l4xx_hal_ospi.c ****      This function) takes as parameters the HAL peripheral handle and the Callback ID.
 208:Drivers/STM32L4xx_HAL_Driver/Src/stm32l4xx_hal_ospi.c **** 
 209:Drivers/STM32L4xx_HAL_Driver/Src/stm32l4xx_hal_ospi.c ****     [..]
 210:Drivers/STM32L4xx_HAL_Driver/Src/stm32l4xx_hal_ospi.c ****      By default, after the HAL_OSPI_Init() and if the state is HAL_OSPI_STATE_RESET
 211:Drivers/STM32L4xx_HAL_Driver/Src/stm32l4xx_hal_ospi.c ****      all callbacks are reset to the corresponding legacy weak (surcharged) functions.
 212:Drivers/STM32L4xx_HAL_Driver/Src/stm32l4xx_hal_ospi.c ****      Exception done for MspInit and MspDeInit callbacks that are respectively
 213:Drivers/STM32L4xx_HAL_Driver/Src/stm32l4xx_hal_ospi.c ****      reset to the legacy weak (surcharged) functions in the HAL_OSPI_Init()
 214:Drivers/STM32L4xx_HAL_Driver/Src/stm32l4xx_hal_ospi.c ****      and HAL_OSPI_DeInit() only when these callbacks are null (not registered beforehand).
 215:Drivers/STM32L4xx_HAL_Driver/Src/stm32l4xx_hal_ospi.c ****      If not, MspInit or MspDeInit are not null, the HAL_OSPI_Init() and HAL_OSPI_DeInit()
 216:Drivers/STM32L4xx_HAL_Driver/Src/stm32l4xx_hal_ospi.c ****      keep and use the user MspInit/MspDeInit callbacks (registered beforehand)
 217:Drivers/STM32L4xx_HAL_Driver/Src/stm32l4xx_hal_ospi.c **** 
 218:Drivers/STM32L4xx_HAL_Driver/Src/stm32l4xx_hal_ospi.c ****     [..]
 219:Drivers/STM32L4xx_HAL_Driver/Src/stm32l4xx_hal_ospi.c ****      Callbacks can be registered/unregistered in READY state only.
 220:Drivers/STM32L4xx_HAL_Driver/Src/stm32l4xx_hal_ospi.c ****      Exception done for MspInit/MspDeInit callbacks that can be registered/unregistered
 221:Drivers/STM32L4xx_HAL_Driver/Src/stm32l4xx_hal_ospi.c ****      in READY or RESET state, thus registered (user) MspInit/DeInit callbacks can be used
 222:Drivers/STM32L4xx_HAL_Driver/Src/stm32l4xx_hal_ospi.c ****      during the Init/DeInit.
 223:Drivers/STM32L4xx_HAL_Driver/Src/stm32l4xx_hal_ospi.c ****      In that case first register the MspInit/MspDeInit user callbacks
 224:Drivers/STM32L4xx_HAL_Driver/Src/stm32l4xx_hal_ospi.c ****      using HAL_OSPI_RegisterCallback() before calling HAL_OSPI_DeInit()
 225:Drivers/STM32L4xx_HAL_Driver/Src/stm32l4xx_hal_ospi.c ****      or HAL_OSPI_Init() function.
 226:Drivers/STM32L4xx_HAL_Driver/Src/stm32l4xx_hal_ospi.c **** 
 227:Drivers/STM32L4xx_HAL_Driver/Src/stm32l4xx_hal_ospi.c ****     [..]
 228:Drivers/STM32L4xx_HAL_Driver/Src/stm32l4xx_hal_ospi.c ****      When The compilation define USE_HAL_OSPI_REGISTER_CALLBACKS is set to 0 or
 229:Drivers/STM32L4xx_HAL_Driver/Src/stm32l4xx_hal_ospi.c ****      not defined, the callback registering feature is not available
 230:Drivers/STM32L4xx_HAL_Driver/Src/stm32l4xx_hal_ospi.c ****      and weak (surcharged) callbacks are used.
 231:Drivers/STM32L4xx_HAL_Driver/Src/stm32l4xx_hal_ospi.c **** 
 232:Drivers/STM32L4xx_HAL_Driver/Src/stm32l4xx_hal_ospi.c ****   @endverbatim
 233:Drivers/STM32L4xx_HAL_Driver/Src/stm32l4xx_hal_ospi.c ****   ******************************************************************************
 234:Drivers/STM32L4xx_HAL_Driver/Src/stm32l4xx_hal_ospi.c ****   */
 235:Drivers/STM32L4xx_HAL_Driver/Src/stm32l4xx_hal_ospi.c **** 
 236:Drivers/STM32L4xx_HAL_Driver/Src/stm32l4xx_hal_ospi.c **** /* Includes ------------------------------------------------------------------*/
 237:Drivers/STM32L4xx_HAL_Driver/Src/stm32l4xx_hal_ospi.c **** #include "stm32l4xx_hal.h"
 238:Drivers/STM32L4xx_HAL_Driver/Src/stm32l4xx_hal_ospi.c **** 
 239:Drivers/STM32L4xx_HAL_Driver/Src/stm32l4xx_hal_ospi.c **** #if defined(OCTOSPI) || defined(OCTOSPI1) || defined(OCTOSPI2)
 240:Drivers/STM32L4xx_HAL_Driver/Src/stm32l4xx_hal_ospi.c **** 
 241:Drivers/STM32L4xx_HAL_Driver/Src/stm32l4xx_hal_ospi.c **** /** @addtogroup STM32L4xx_HAL_Driver
 242:Drivers/STM32L4xx_HAL_Driver/Src/stm32l4xx_hal_ospi.c ****   * @{
 243:Drivers/STM32L4xx_HAL_Driver/Src/stm32l4xx_hal_ospi.c ****   */
 244:Drivers/STM32L4xx_HAL_Driver/Src/stm32l4xx_hal_ospi.c **** 
 245:Drivers/STM32L4xx_HAL_Driver/Src/stm32l4xx_hal_ospi.c **** /** @defgroup OSPI OSPI
 246:Drivers/STM32L4xx_HAL_Driver/Src/stm32l4xx_hal_ospi.c ****   * @brief OSPI HAL module driver
 247:Drivers/STM32L4xx_HAL_Driver/Src/stm32l4xx_hal_ospi.c ****   * @{
 248:Drivers/STM32L4xx_HAL_Driver/Src/stm32l4xx_hal_ospi.c ****   */
 249:Drivers/STM32L4xx_HAL_Driver/Src/stm32l4xx_hal_ospi.c **** 
 250:Drivers/STM32L4xx_HAL_Driver/Src/stm32l4xx_hal_ospi.c **** #ifdef HAL_OSPI_MODULE_ENABLED
 251:Drivers/STM32L4xx_HAL_Driver/Src/stm32l4xx_hal_ospi.c **** 
 252:Drivers/STM32L4xx_HAL_Driver/Src/stm32l4xx_hal_ospi.c **** /**
 253:Drivers/STM32L4xx_HAL_Driver/Src/stm32l4xx_hal_ospi.c ****   @cond 0
 254:Drivers/STM32L4xx_HAL_Driver/Src/stm32l4xx_hal_ospi.c ****   */
 255:Drivers/STM32L4xx_HAL_Driver/Src/stm32l4xx_hal_ospi.c **** /* Private typedef -----------------------------------------------------------*/
 256:Drivers/STM32L4xx_HAL_Driver/Src/stm32l4xx_hal_ospi.c **** 
 257:Drivers/STM32L4xx_HAL_Driver/Src/stm32l4xx_hal_ospi.c **** /* Private define ------------------------------------------------------------*/
 258:Drivers/STM32L4xx_HAL_Driver/Src/stm32l4xx_hal_ospi.c **** #define OSPI_FUNCTIONAL_MODE_INDIRECT_WRITE ((uint32_t)0x00000000)         /*!< Indirect write mode
ARM GAS  C:\Users\Morroway\AppData\Local\Temp\ccxQAUQ3.s 			page 6


 259:Drivers/STM32L4xx_HAL_Driver/Src/stm32l4xx_hal_ospi.c **** #define OSPI_FUNCTIONAL_MODE_INDIRECT_READ  ((uint32_t)OCTOSPI_CR_FMODE_0) /*!< Indirect read mode 
 260:Drivers/STM32L4xx_HAL_Driver/Src/stm32l4xx_hal_ospi.c **** #define OSPI_FUNCTIONAL_MODE_AUTO_POLLING   ((uint32_t)OCTOSPI_CR_FMODE_1) /*!< Automatic polling m
 261:Drivers/STM32L4xx_HAL_Driver/Src/stm32l4xx_hal_ospi.c **** #define OSPI_FUNCTIONAL_MODE_MEMORY_MAPPED  ((uint32_t)OCTOSPI_CR_FMODE)   /*!< Memory-mapped mode 
 262:Drivers/STM32L4xx_HAL_Driver/Src/stm32l4xx_hal_ospi.c **** 
 263:Drivers/STM32L4xx_HAL_Driver/Src/stm32l4xx_hal_ospi.c **** #define OSPI_CFG_STATE_MASK  0x00000004U
 264:Drivers/STM32L4xx_HAL_Driver/Src/stm32l4xx_hal_ospi.c **** #define OSPI_BUSY_STATE_MASK 0x00000008U
 265:Drivers/STM32L4xx_HAL_Driver/Src/stm32l4xx_hal_ospi.c **** 
 266:Drivers/STM32L4xx_HAL_Driver/Src/stm32l4xx_hal_ospi.c **** #define OSPI_NB_INSTANCE   2U
 267:Drivers/STM32L4xx_HAL_Driver/Src/stm32l4xx_hal_ospi.c **** #define OSPI_IOM_NB_PORTS  2U
 268:Drivers/STM32L4xx_HAL_Driver/Src/stm32l4xx_hal_ospi.c **** #define OSPI_IOM_PORT_MASK 0x1U
 269:Drivers/STM32L4xx_HAL_Driver/Src/stm32l4xx_hal_ospi.c **** 
 270:Drivers/STM32L4xx_HAL_Driver/Src/stm32l4xx_hal_ospi.c **** /* Private macro -------------------------------------------------------------*/
 271:Drivers/STM32L4xx_HAL_Driver/Src/stm32l4xx_hal_ospi.c **** #define IS_OSPI_FUNCTIONAL_MODE(MODE) (((MODE) == OSPI_FUNCTIONAL_MODE_INDIRECT_WRITE) || \
 272:Drivers/STM32L4xx_HAL_Driver/Src/stm32l4xx_hal_ospi.c ****                                        ((MODE) == OSPI_FUNCTIONAL_MODE_INDIRECT_READ)  || \
 273:Drivers/STM32L4xx_HAL_Driver/Src/stm32l4xx_hal_ospi.c ****                                        ((MODE) == OSPI_FUNCTIONAL_MODE_AUTO_POLLING)   || \
 274:Drivers/STM32L4xx_HAL_Driver/Src/stm32l4xx_hal_ospi.c ****                                        ((MODE) == OSPI_FUNCTIONAL_MODE_MEMORY_MAPPED))
 275:Drivers/STM32L4xx_HAL_Driver/Src/stm32l4xx_hal_ospi.c **** 
 276:Drivers/STM32L4xx_HAL_Driver/Src/stm32l4xx_hal_ospi.c **** /* Private variables ---------------------------------------------------------*/
 277:Drivers/STM32L4xx_HAL_Driver/Src/stm32l4xx_hal_ospi.c **** 
 278:Drivers/STM32L4xx_HAL_Driver/Src/stm32l4xx_hal_ospi.c **** /* Private function prototypes -----------------------------------------------*/
 279:Drivers/STM32L4xx_HAL_Driver/Src/stm32l4xx_hal_ospi.c **** static void              OSPI_DMACplt                  (DMA_HandleTypeDef *hdma);
 280:Drivers/STM32L4xx_HAL_Driver/Src/stm32l4xx_hal_ospi.c **** static void              OSPI_DMAHalfCplt              (DMA_HandleTypeDef *hdma);
 281:Drivers/STM32L4xx_HAL_Driver/Src/stm32l4xx_hal_ospi.c **** static void              OSPI_DMAError                 (DMA_HandleTypeDef *hdma);
 282:Drivers/STM32L4xx_HAL_Driver/Src/stm32l4xx_hal_ospi.c **** static void              OSPI_DMAAbortCplt             (DMA_HandleTypeDef *hdma);
 283:Drivers/STM32L4xx_HAL_Driver/Src/stm32l4xx_hal_ospi.c **** static HAL_StatusTypeDef OSPI_WaitFlagStateUntilTimeout(OSPI_HandleTypeDef *hospi, uint32_t Flag, F
 284:Drivers/STM32L4xx_HAL_Driver/Src/stm32l4xx_hal_ospi.c ****                                                         uint32_t Tickstart, uint32_t Timeout);
 285:Drivers/STM32L4xx_HAL_Driver/Src/stm32l4xx_hal_ospi.c **** static HAL_StatusTypeDef OSPI_ConfigCmd                (OSPI_HandleTypeDef *hospi, OSPI_RegularCmdT
 286:Drivers/STM32L4xx_HAL_Driver/Src/stm32l4xx_hal_ospi.c **** static HAL_StatusTypeDef OSPIM_GetConfig               (uint8_t instance_nb, OSPIM_CfgTypeDef *cfg)
 287:Drivers/STM32L4xx_HAL_Driver/Src/stm32l4xx_hal_ospi.c **** /**
 288:Drivers/STM32L4xx_HAL_Driver/Src/stm32l4xx_hal_ospi.c ****   @endcond
 289:Drivers/STM32L4xx_HAL_Driver/Src/stm32l4xx_hal_ospi.c ****   */
 290:Drivers/STM32L4xx_HAL_Driver/Src/stm32l4xx_hal_ospi.c **** 
 291:Drivers/STM32L4xx_HAL_Driver/Src/stm32l4xx_hal_ospi.c **** /* Exported functions --------------------------------------------------------*/
 292:Drivers/STM32L4xx_HAL_Driver/Src/stm32l4xx_hal_ospi.c **** 
 293:Drivers/STM32L4xx_HAL_Driver/Src/stm32l4xx_hal_ospi.c **** /** @defgroup OSPI_Exported_Functions OSPI Exported Functions
 294:Drivers/STM32L4xx_HAL_Driver/Src/stm32l4xx_hal_ospi.c ****   * @{
 295:Drivers/STM32L4xx_HAL_Driver/Src/stm32l4xx_hal_ospi.c ****   */
 296:Drivers/STM32L4xx_HAL_Driver/Src/stm32l4xx_hal_ospi.c **** 
 297:Drivers/STM32L4xx_HAL_Driver/Src/stm32l4xx_hal_ospi.c **** /** @defgroup OSPI_Exported_Functions_Group1 Initialization/de-initialization functions
 298:Drivers/STM32L4xx_HAL_Driver/Src/stm32l4xx_hal_ospi.c ****   * @brief    Initialization and Configuration functions
 299:Drivers/STM32L4xx_HAL_Driver/Src/stm32l4xx_hal_ospi.c ****   *
 300:Drivers/STM32L4xx_HAL_Driver/Src/stm32l4xx_hal_ospi.c **** @verbatim
 301:Drivers/STM32L4xx_HAL_Driver/Src/stm32l4xx_hal_ospi.c **** ===============================================================================
 302:Drivers/STM32L4xx_HAL_Driver/Src/stm32l4xx_hal_ospi.c ****             ##### Initialization and Configuration functions #####
 303:Drivers/STM32L4xx_HAL_Driver/Src/stm32l4xx_hal_ospi.c ****  ===============================================================================
 304:Drivers/STM32L4xx_HAL_Driver/Src/stm32l4xx_hal_ospi.c ****     [..]
 305:Drivers/STM32L4xx_HAL_Driver/Src/stm32l4xx_hal_ospi.c ****     This subsection provides a set of functions allowing to :
 306:Drivers/STM32L4xx_HAL_Driver/Src/stm32l4xx_hal_ospi.c ****       (+) Initialize the OctoSPI.
 307:Drivers/STM32L4xx_HAL_Driver/Src/stm32l4xx_hal_ospi.c ****       (+) De-initialize the OctoSPI.
 308:Drivers/STM32L4xx_HAL_Driver/Src/stm32l4xx_hal_ospi.c **** 
 309:Drivers/STM32L4xx_HAL_Driver/Src/stm32l4xx_hal_ospi.c **** @endverbatim
 310:Drivers/STM32L4xx_HAL_Driver/Src/stm32l4xx_hal_ospi.c ****   * @{
 311:Drivers/STM32L4xx_HAL_Driver/Src/stm32l4xx_hal_ospi.c ****   */
 312:Drivers/STM32L4xx_HAL_Driver/Src/stm32l4xx_hal_ospi.c **** 
 313:Drivers/STM32L4xx_HAL_Driver/Src/stm32l4xx_hal_ospi.c **** /**
 314:Drivers/STM32L4xx_HAL_Driver/Src/stm32l4xx_hal_ospi.c ****   * @brief  Initialize the OSPI mode according to the specified parameters
 315:Drivers/STM32L4xx_HAL_Driver/Src/stm32l4xx_hal_ospi.c ****   *         in the OSPI_InitTypeDef and initialize the associated handle.
ARM GAS  C:\Users\Morroway\AppData\Local\Temp\ccxQAUQ3.s 			page 7


 316:Drivers/STM32L4xx_HAL_Driver/Src/stm32l4xx_hal_ospi.c ****   * @param  hospi : OSPI handle
 317:Drivers/STM32L4xx_HAL_Driver/Src/stm32l4xx_hal_ospi.c ****   * @retval HAL status
 318:Drivers/STM32L4xx_HAL_Driver/Src/stm32l4xx_hal_ospi.c ****   */
 319:Drivers/STM32L4xx_HAL_Driver/Src/stm32l4xx_hal_ospi.c **** HAL_StatusTypeDef HAL_OSPI_Init (OSPI_HandleTypeDef *hospi)
 320:Drivers/STM32L4xx_HAL_Driver/Src/stm32l4xx_hal_ospi.c **** {
  29              		.loc 1 320 1
  30              		.cfi_startproc
  31              		@ args = 0, pretend = 0, frame = 16
  32              		@ frame_needed = 1, uses_anonymous_args = 0
  33 0000 80B5     		push	{r7, lr}
  34              		.cfi_def_cfa_offset 8
  35              		.cfi_offset 7, -8
  36              		.cfi_offset 14, -4
  37 0002 86B0     		sub	sp, sp, #24
  38              		.cfi_def_cfa_offset 32
  39 0004 02AF     		add	r7, sp, #8
  40              		.cfi_def_cfa 7, 24
  41 0006 7860     		str	r0, [r7, #4]
 321:Drivers/STM32L4xx_HAL_Driver/Src/stm32l4xx_hal_ospi.c ****   HAL_StatusTypeDef status = HAL_OK;
  42              		.loc 1 321 21
  43 0008 0023     		movs	r3, #0
  44 000a FB73     		strb	r3, [r7, #15]
 322:Drivers/STM32L4xx_HAL_Driver/Src/stm32l4xx_hal_ospi.c ****   uint32_t tickstart = HAL_GetTick();
  45              		.loc 1 322 24
  46 000c FFF7FEFF 		bl	HAL_GetTick
  47 0010 B860     		str	r0, [r7, #8]
 323:Drivers/STM32L4xx_HAL_Driver/Src/stm32l4xx_hal_ospi.c **** 
 324:Drivers/STM32L4xx_HAL_Driver/Src/stm32l4xx_hal_ospi.c ****   /* Check the OSPI handle allocation */
 325:Drivers/STM32L4xx_HAL_Driver/Src/stm32l4xx_hal_ospi.c ****   if (hospi == NULL)
  48              		.loc 1 325 6
  49 0012 7B68     		ldr	r3, [r7, #4]
  50 0014 002B     		cmp	r3, #0
  51 0016 02D1     		bne	.L2
 326:Drivers/STM32L4xx_HAL_Driver/Src/stm32l4xx_hal_ospi.c ****   {
 327:Drivers/STM32L4xx_HAL_Driver/Src/stm32l4xx_hal_ospi.c ****     status = HAL_ERROR;
  52              		.loc 1 327 12
  53 0018 0123     		movs	r3, #1
  54 001a FB73     		strb	r3, [r7, #15]
  55 001c 9AE0     		b	.L3
  56              	.L2:
 328:Drivers/STM32L4xx_HAL_Driver/Src/stm32l4xx_hal_ospi.c ****     /* No error code can be set set as the handler is null */
 329:Drivers/STM32L4xx_HAL_Driver/Src/stm32l4xx_hal_ospi.c ****   }
 330:Drivers/STM32L4xx_HAL_Driver/Src/stm32l4xx_hal_ospi.c ****   else
 331:Drivers/STM32L4xx_HAL_Driver/Src/stm32l4xx_hal_ospi.c ****   {
 332:Drivers/STM32L4xx_HAL_Driver/Src/stm32l4xx_hal_ospi.c ****     /* Check the parameters of the initialization structure */
 333:Drivers/STM32L4xx_HAL_Driver/Src/stm32l4xx_hal_ospi.c ****     assert_param(IS_OSPI_FIFO_THRESHOLD (hospi->Init.FifoThreshold));
 334:Drivers/STM32L4xx_HAL_Driver/Src/stm32l4xx_hal_ospi.c ****     assert_param(IS_OSPI_DUALQUAD_MODE  (hospi->Init.DualQuad));
 335:Drivers/STM32L4xx_HAL_Driver/Src/stm32l4xx_hal_ospi.c ****     assert_param(IS_OSPI_MEMORY_TYPE    (hospi->Init.MemoryType));
 336:Drivers/STM32L4xx_HAL_Driver/Src/stm32l4xx_hal_ospi.c ****     assert_param(IS_OSPI_DEVICE_SIZE    (hospi->Init.DeviceSize));
 337:Drivers/STM32L4xx_HAL_Driver/Src/stm32l4xx_hal_ospi.c ****     assert_param(IS_OSPI_CS_HIGH_TIME   (hospi->Init.ChipSelectHighTime));
 338:Drivers/STM32L4xx_HAL_Driver/Src/stm32l4xx_hal_ospi.c ****     assert_param(IS_OSPI_FREE_RUN_CLK   (hospi->Init.FreeRunningClock));
 339:Drivers/STM32L4xx_HAL_Driver/Src/stm32l4xx_hal_ospi.c ****     assert_param(IS_OSPI_CLOCK_MODE     (hospi->Init.ClockMode));
 340:Drivers/STM32L4xx_HAL_Driver/Src/stm32l4xx_hal_ospi.c ****     assert_param(IS_OSPI_CLK_PRESCALER  (hospi->Init.ClockPrescaler));
 341:Drivers/STM32L4xx_HAL_Driver/Src/stm32l4xx_hal_ospi.c ****     assert_param(IS_OSPI_SAMPLE_SHIFTING(hospi->Init.SampleShifting));
 342:Drivers/STM32L4xx_HAL_Driver/Src/stm32l4xx_hal_ospi.c ****     assert_param(IS_OSPI_DHQC           (hospi->Init.DelayHoldQuarterCycle));
 343:Drivers/STM32L4xx_HAL_Driver/Src/stm32l4xx_hal_ospi.c ****     assert_param(IS_OSPI_CS_BOUNDARY    (hospi->Init.ChipSelectBoundary));
 344:Drivers/STM32L4xx_HAL_Driver/Src/stm32l4xx_hal_ospi.c ****     assert_param(IS_OSPI_DLYBYP         (hospi->Init.DelayBlockBypass));
ARM GAS  C:\Users\Morroway\AppData\Local\Temp\ccxQAUQ3.s 			page 8


 345:Drivers/STM32L4xx_HAL_Driver/Src/stm32l4xx_hal_ospi.c **** #if   defined (OCTOSPI_DCR3_MAXTRAN)
 346:Drivers/STM32L4xx_HAL_Driver/Src/stm32l4xx_hal_ospi.c ****     assert_param(IS_OSPI_MAXTRAN        (hospi->Init.MaxTran));
 347:Drivers/STM32L4xx_HAL_Driver/Src/stm32l4xx_hal_ospi.c **** #endif
 348:Drivers/STM32L4xx_HAL_Driver/Src/stm32l4xx_hal_ospi.c **** 
 349:Drivers/STM32L4xx_HAL_Driver/Src/stm32l4xx_hal_ospi.c ****     /* Initialize error code */
 350:Drivers/STM32L4xx_HAL_Driver/Src/stm32l4xx_hal_ospi.c ****     hospi->ErrorCode = HAL_OSPI_ERROR_NONE;
  57              		.loc 1 350 22
  58 001e 7B68     		ldr	r3, [r7, #4]
  59 0020 0022     		movs	r2, #0
  60 0022 1A65     		str	r2, [r3, #80]
 351:Drivers/STM32L4xx_HAL_Driver/Src/stm32l4xx_hal_ospi.c **** 
 352:Drivers/STM32L4xx_HAL_Driver/Src/stm32l4xx_hal_ospi.c ****     /* Check if the state is the reset state */
 353:Drivers/STM32L4xx_HAL_Driver/Src/stm32l4xx_hal_ospi.c ****     if (hospi->State == HAL_OSPI_STATE_RESET)
  61              		.loc 1 353 14
  62 0024 7B68     		ldr	r3, [r7, #4]
  63 0026 DB6C     		ldr	r3, [r3, #76]
  64              		.loc 1 353 8
  65 0028 002B     		cmp	r3, #0
  66 002a 40F09380 		bne	.L3
 354:Drivers/STM32L4xx_HAL_Driver/Src/stm32l4xx_hal_ospi.c ****     {
 355:Drivers/STM32L4xx_HAL_Driver/Src/stm32l4xx_hal_ospi.c **** #if defined (USE_HAL_OSPI_REGISTER_CALLBACKS) && (USE_HAL_OSPI_REGISTER_CALLBACKS == 1U)
 356:Drivers/STM32L4xx_HAL_Driver/Src/stm32l4xx_hal_ospi.c ****       /* Reset Callback pointers in HAL_OSPI_STATE_RESET only */
 357:Drivers/STM32L4xx_HAL_Driver/Src/stm32l4xx_hal_ospi.c ****       hospi->ErrorCallback         = HAL_OSPI_ErrorCallback;
 358:Drivers/STM32L4xx_HAL_Driver/Src/stm32l4xx_hal_ospi.c ****       hospi->AbortCpltCallback     = HAL_OSPI_AbortCpltCallback;
 359:Drivers/STM32L4xx_HAL_Driver/Src/stm32l4xx_hal_ospi.c ****       hospi->FifoThresholdCallback = HAL_OSPI_FifoThresholdCallback;
 360:Drivers/STM32L4xx_HAL_Driver/Src/stm32l4xx_hal_ospi.c ****       hospi->CmdCpltCallback       = HAL_OSPI_CmdCpltCallback;
 361:Drivers/STM32L4xx_HAL_Driver/Src/stm32l4xx_hal_ospi.c ****       hospi->RxCpltCallback        = HAL_OSPI_RxCpltCallback;
 362:Drivers/STM32L4xx_HAL_Driver/Src/stm32l4xx_hal_ospi.c ****       hospi->TxCpltCallback        = HAL_OSPI_TxCpltCallback;
 363:Drivers/STM32L4xx_HAL_Driver/Src/stm32l4xx_hal_ospi.c ****       hospi->RxHalfCpltCallback    = HAL_OSPI_RxHalfCpltCallback;
 364:Drivers/STM32L4xx_HAL_Driver/Src/stm32l4xx_hal_ospi.c ****       hospi->TxHalfCpltCallback    = HAL_OSPI_TxHalfCpltCallback;
 365:Drivers/STM32L4xx_HAL_Driver/Src/stm32l4xx_hal_ospi.c ****       hospi->StatusMatchCallback   = HAL_OSPI_StatusMatchCallback;
 366:Drivers/STM32L4xx_HAL_Driver/Src/stm32l4xx_hal_ospi.c ****       hospi->TimeOutCallback       = HAL_OSPI_TimeOutCallback;
 367:Drivers/STM32L4xx_HAL_Driver/Src/stm32l4xx_hal_ospi.c **** 
 368:Drivers/STM32L4xx_HAL_Driver/Src/stm32l4xx_hal_ospi.c ****       if(hospi->MspInitCallback == NULL)
 369:Drivers/STM32L4xx_HAL_Driver/Src/stm32l4xx_hal_ospi.c ****       {
 370:Drivers/STM32L4xx_HAL_Driver/Src/stm32l4xx_hal_ospi.c ****         hospi->MspInitCallback = HAL_OSPI_MspInit;
 371:Drivers/STM32L4xx_HAL_Driver/Src/stm32l4xx_hal_ospi.c ****       }
 372:Drivers/STM32L4xx_HAL_Driver/Src/stm32l4xx_hal_ospi.c **** 
 373:Drivers/STM32L4xx_HAL_Driver/Src/stm32l4xx_hal_ospi.c ****       /* Init the low level hardware */
 374:Drivers/STM32L4xx_HAL_Driver/Src/stm32l4xx_hal_ospi.c ****       hospi->MspInitCallback(hospi);
 375:Drivers/STM32L4xx_HAL_Driver/Src/stm32l4xx_hal_ospi.c **** #else
 376:Drivers/STM32L4xx_HAL_Driver/Src/stm32l4xx_hal_ospi.c ****       /* Initialization of the low level hardware */
 377:Drivers/STM32L4xx_HAL_Driver/Src/stm32l4xx_hal_ospi.c ****       HAL_OSPI_MspInit(hospi);
  67              		.loc 1 377 7
  68 002e 7868     		ldr	r0, [r7, #4]
  69 0030 FFF7FEFF 		bl	HAL_OSPI_MspInit
 378:Drivers/STM32L4xx_HAL_Driver/Src/stm32l4xx_hal_ospi.c **** #endif /* defined (USE_HAL_OSPI_REGISTER_CALLBACKS) && (USE_HAL_OSPI_REGISTER_CALLBACKS == 1U) */
 379:Drivers/STM32L4xx_HAL_Driver/Src/stm32l4xx_hal_ospi.c **** 
 380:Drivers/STM32L4xx_HAL_Driver/Src/stm32l4xx_hal_ospi.c ****       /* Configure the default timeout for the OSPI memory access */
 381:Drivers/STM32L4xx_HAL_Driver/Src/stm32l4xx_hal_ospi.c ****       (void)HAL_OSPI_SetTimeout(hospi, HAL_OSPI_TIMEOUT_DEFAULT_VALUE);
  70              		.loc 1 381 13
  71 0034 41F28831 		movw	r1, #5000
  72 0038 7868     		ldr	r0, [r7, #4]
  73 003a FFF7FEFF 		bl	HAL_OSPI_SetTimeout
 382:Drivers/STM32L4xx_HAL_Driver/Src/stm32l4xx_hal_ospi.c **** 
 383:Drivers/STM32L4xx_HAL_Driver/Src/stm32l4xx_hal_ospi.c ****       /* Configure memory type, device size, chip select high time, delay block bypass,
 384:Drivers/STM32L4xx_HAL_Driver/Src/stm32l4xx_hal_ospi.c ****          free running clock, clock mode */
ARM GAS  C:\Users\Morroway\AppData\Local\Temp\ccxQAUQ3.s 			page 9


 385:Drivers/STM32L4xx_HAL_Driver/Src/stm32l4xx_hal_ospi.c ****       MODIFY_REG(hospi->Instance->DCR1,
  74              		.loc 1 385 7
  75 003e 7B68     		ldr	r3, [r7, #4]
  76 0040 1B68     		ldr	r3, [r3]
  77 0042 9A68     		ldr	r2, [r3, #8]
  78 0044 464B     		ldr	r3, .L7
  79 0046 1340     		ands	r3, r3, r2
  80 0048 7A68     		ldr	r2, [r7, #4]
  81 004a D168     		ldr	r1, [r2, #12]
  82 004c 7A68     		ldr	r2, [r7, #4]
  83 004e 1269     		ldr	r2, [r2, #16]
  84 0050 013A     		subs	r2, r2, #1
  85 0052 1204     		lsls	r2, r2, #16
  86 0054 1143     		orrs	r1, r1, r2
  87 0056 7A68     		ldr	r2, [r7, #4]
  88 0058 5269     		ldr	r2, [r2, #20]
  89 005a 013A     		subs	r2, r2, #1
  90 005c 1202     		lsls	r2, r2, #8
  91 005e 1143     		orrs	r1, r1, r2
  92 0060 7A68     		ldr	r2, [r7, #4]
  93 0062 126B     		ldr	r2, [r2, #48]
  94 0064 1143     		orrs	r1, r1, r2
  95 0066 7A68     		ldr	r2, [r7, #4]
  96 0068 D269     		ldr	r2, [r2, #28]
  97 006a 1143     		orrs	r1, r1, r2
  98 006c 7A68     		ldr	r2, [r7, #4]
  99 006e 1268     		ldr	r2, [r2]
 100 0070 0B43     		orrs	r3, r3, r1
 101 0072 9360     		str	r3, [r2, #8]
 386:Drivers/STM32L4xx_HAL_Driver/Src/stm32l4xx_hal_ospi.c ****                  (OCTOSPI_DCR1_MTYP | OCTOSPI_DCR1_DEVSIZE | OCTOSPI_DCR1_CSHT | OCTOSPI_DCR1_DLYBY
 387:Drivers/STM32L4xx_HAL_Driver/Src/stm32l4xx_hal_ospi.c ****                   OCTOSPI_DCR1_FRCK | OCTOSPI_DCR1_CKMODE),
 388:Drivers/STM32L4xx_HAL_Driver/Src/stm32l4xx_hal_ospi.c ****                  (hospi->Init.MemoryType | ((hospi->Init.DeviceSize - 1U) << OCTOSPI_DCR1_DEVSIZE_P
 389:Drivers/STM32L4xx_HAL_Driver/Src/stm32l4xx_hal_ospi.c ****                   ((hospi->Init.ChipSelectHighTime - 1U) << OCTOSPI_DCR1_CSHT_Pos) |
 390:Drivers/STM32L4xx_HAL_Driver/Src/stm32l4xx_hal_ospi.c ****                   hospi->Init.DelayBlockBypass | hospi->Init.ClockMode));
 391:Drivers/STM32L4xx_HAL_Driver/Src/stm32l4xx_hal_ospi.c **** 
 392:Drivers/STM32L4xx_HAL_Driver/Src/stm32l4xx_hal_ospi.c **** #if   defined (OCTOSPI_DCR3_MAXTRAN)
 393:Drivers/STM32L4xx_HAL_Driver/Src/stm32l4xx_hal_ospi.c ****       /* Configure chip select boundary and maximum transfer */
 394:Drivers/STM32L4xx_HAL_Driver/Src/stm32l4xx_hal_ospi.c ****       hospi->Instance->DCR3 = ((hospi->Init.ChipSelectBoundary << OCTOSPI_DCR3_CSBOUND_Pos) |
 102              		.loc 1 394 44
 103 0074 7B68     		ldr	r3, [r7, #4]
 104 0076 DB6A     		ldr	r3, [r3, #44]
 105              		.loc 1 394 64
 106 0078 1904     		lsls	r1, r3, #16
 395:Drivers/STM32L4xx_HAL_Driver/Src/stm32l4xx_hal_ospi.c ****                                (hospi->Init.MaxTran << OCTOSPI_DCR3_MAXTRAN_Pos));
 107              		.loc 1 395 53
 108 007a 7B68     		ldr	r3, [r7, #4]
 109 007c 5A6B     		ldr	r2, [r3, #52]
 394:Drivers/STM32L4xx_HAL_Driver/Src/stm32l4xx_hal_ospi.c ****                                (hospi->Init.MaxTran << OCTOSPI_DCR3_MAXTRAN_Pos));
 110              		.loc 1 394 12
 111 007e 7B68     		ldr	r3, [r7, #4]
 112 0080 1B68     		ldr	r3, [r3]
 394:Drivers/STM32L4xx_HAL_Driver/Src/stm32l4xx_hal_ospi.c ****                                (hospi->Init.MaxTran << OCTOSPI_DCR3_MAXTRAN_Pos));
 113              		.loc 1 394 93
 114 0082 0A43     		orrs	r2, r2, r1
 394:Drivers/STM32L4xx_HAL_Driver/Src/stm32l4xx_hal_ospi.c ****                                (hospi->Init.MaxTran << OCTOSPI_DCR3_MAXTRAN_Pos));
 115              		.loc 1 394 29
 116 0084 1A61     		str	r2, [r3, #16]
ARM GAS  C:\Users\Morroway\AppData\Local\Temp\ccxQAUQ3.s 			page 10


 396:Drivers/STM32L4xx_HAL_Driver/Src/stm32l4xx_hal_ospi.c **** #else
 397:Drivers/STM32L4xx_HAL_Driver/Src/stm32l4xx_hal_ospi.c ****       /* Configure chip select boundary */
 398:Drivers/STM32L4xx_HAL_Driver/Src/stm32l4xx_hal_ospi.c ****       hospi->Instance->DCR3 = (hospi->Init.ChipSelectBoundary << OCTOSPI_DCR3_CSBOUND_Pos);
 399:Drivers/STM32L4xx_HAL_Driver/Src/stm32l4xx_hal_ospi.c **** #endif
 400:Drivers/STM32L4xx_HAL_Driver/Src/stm32l4xx_hal_ospi.c **** 
 401:Drivers/STM32L4xx_HAL_Driver/Src/stm32l4xx_hal_ospi.c **** #if   defined (OCTOSPI_DCR4_REFRESH)
 402:Drivers/STM32L4xx_HAL_Driver/Src/stm32l4xx_hal_ospi.c ****       /* Configure refresh */
 403:Drivers/STM32L4xx_HAL_Driver/Src/stm32l4xx_hal_ospi.c ****       hospi->Instance->DCR4 = hospi->Init.Refresh;
 117              		.loc 1 403 12
 118 0086 7B68     		ldr	r3, [r7, #4]
 119 0088 1B68     		ldr	r3, [r3]
 120              		.loc 1 403 42
 121 008a 7A68     		ldr	r2, [r7, #4]
 122 008c 926B     		ldr	r2, [r2, #56]
 123              		.loc 1 403 29
 124 008e 5A61     		str	r2, [r3, #20]
 404:Drivers/STM32L4xx_HAL_Driver/Src/stm32l4xx_hal_ospi.c **** #endif
 405:Drivers/STM32L4xx_HAL_Driver/Src/stm32l4xx_hal_ospi.c **** 
 406:Drivers/STM32L4xx_HAL_Driver/Src/stm32l4xx_hal_ospi.c ****       /* Configure FIFO threshold */
 407:Drivers/STM32L4xx_HAL_Driver/Src/stm32l4xx_hal_ospi.c ****       MODIFY_REG(hospi->Instance->CR, OCTOSPI_CR_FTHRES, ((hospi->Init.FifoThreshold - 1U) << OCTOS
 125              		.loc 1 407 7
 126 0090 7B68     		ldr	r3, [r7, #4]
 127 0092 1B68     		ldr	r3, [r3]
 128 0094 1B68     		ldr	r3, [r3]
 129 0096 23F4F851 		bic	r1, r3, #7936
 130 009a 7B68     		ldr	r3, [r7, #4]
 131 009c 5B68     		ldr	r3, [r3, #4]
 132 009e 013B     		subs	r3, r3, #1
 133 00a0 1A02     		lsls	r2, r3, #8
 134 00a2 7B68     		ldr	r3, [r7, #4]
 135 00a4 1B68     		ldr	r3, [r3]
 136 00a6 0A43     		orrs	r2, r2, r1
 137 00a8 1A60     		str	r2, [r3]
 408:Drivers/STM32L4xx_HAL_Driver/Src/stm32l4xx_hal_ospi.c **** 
 409:Drivers/STM32L4xx_HAL_Driver/Src/stm32l4xx_hal_ospi.c ****       /* Wait till busy flag is reset */
 410:Drivers/STM32L4xx_HAL_Driver/Src/stm32l4xx_hal_ospi.c ****       status = OSPI_WaitFlagStateUntilTimeout(hospi, HAL_OSPI_FLAG_BUSY, RESET, tickstart, hospi->T
 138              		.loc 1 410 16
 139 00aa 7B68     		ldr	r3, [r7, #4]
 140 00ac 5B6D     		ldr	r3, [r3, #84]
 141 00ae 0093     		str	r3, [sp]
 142 00b0 BB68     		ldr	r3, [r7, #8]
 143 00b2 0022     		movs	r2, #0
 144 00b4 2021     		movs	r1, #32
 145 00b6 7868     		ldr	r0, [r7, #4]
 146 00b8 FFF7FEFF 		bl	OSPI_WaitFlagStateUntilTimeout
 147 00bc 0346     		mov	r3, r0
 148 00be FB73     		strb	r3, [r7, #15]
 411:Drivers/STM32L4xx_HAL_Driver/Src/stm32l4xx_hal_ospi.c **** 
 412:Drivers/STM32L4xx_HAL_Driver/Src/stm32l4xx_hal_ospi.c ****       if (status == HAL_OK)
 149              		.loc 1 412 10
 150 00c0 FB7B     		ldrb	r3, [r7, #15]	@ zero_extendqisi2
 151 00c2 002B     		cmp	r3, #0
 152 00c4 46D1     		bne	.L3
 413:Drivers/STM32L4xx_HAL_Driver/Src/stm32l4xx_hal_ospi.c ****       {
 414:Drivers/STM32L4xx_HAL_Driver/Src/stm32l4xx_hal_ospi.c ****         /* Configure clock prescaler */
 415:Drivers/STM32L4xx_HAL_Driver/Src/stm32l4xx_hal_ospi.c ****         MODIFY_REG(hospi->Instance->DCR2, OCTOSPI_DCR2_PRESCALER,
 153              		.loc 1 415 9
ARM GAS  C:\Users\Morroway\AppData\Local\Temp\ccxQAUQ3.s 			page 11


 154 00c6 7B68     		ldr	r3, [r7, #4]
 155 00c8 1B68     		ldr	r3, [r3]
 156 00ca DB68     		ldr	r3, [r3, #12]
 157 00cc 23F0FF01 		bic	r1, r3, #255
 158 00d0 7B68     		ldr	r3, [r7, #4]
 159 00d2 1B6A     		ldr	r3, [r3, #32]
 160 00d4 5A1E     		subs	r2, r3, #1
 161 00d6 7B68     		ldr	r3, [r7, #4]
 162 00d8 1B68     		ldr	r3, [r3]
 163 00da 0A43     		orrs	r2, r2, r1
 164 00dc DA60     		str	r2, [r3, #12]
 416:Drivers/STM32L4xx_HAL_Driver/Src/stm32l4xx_hal_ospi.c ****                   ((hospi->Init.ClockPrescaler - 1U) << OCTOSPI_DCR2_PRESCALER_Pos));
 417:Drivers/STM32L4xx_HAL_Driver/Src/stm32l4xx_hal_ospi.c **** 
 418:Drivers/STM32L4xx_HAL_Driver/Src/stm32l4xx_hal_ospi.c ****         /* Configure Dual Quad mode */
 419:Drivers/STM32L4xx_HAL_Driver/Src/stm32l4xx_hal_ospi.c ****         MODIFY_REG(hospi->Instance->CR, OCTOSPI_CR_DQM, hospi->Init.DualQuad);
 165              		.loc 1 419 9
 166 00de 7B68     		ldr	r3, [r7, #4]
 167 00e0 1B68     		ldr	r3, [r3]
 168 00e2 1B68     		ldr	r3, [r3]
 169 00e4 23F04001 		bic	r1, r3, #64
 170 00e8 7B68     		ldr	r3, [r7, #4]
 171 00ea 9A68     		ldr	r2, [r3, #8]
 172 00ec 7B68     		ldr	r3, [r7, #4]
 173 00ee 1B68     		ldr	r3, [r3]
 174 00f0 0A43     		orrs	r2, r2, r1
 175 00f2 1A60     		str	r2, [r3]
 420:Drivers/STM32L4xx_HAL_Driver/Src/stm32l4xx_hal_ospi.c **** 
 421:Drivers/STM32L4xx_HAL_Driver/Src/stm32l4xx_hal_ospi.c ****         /* Configure sample shifting and delay hold quarter cycle */
 422:Drivers/STM32L4xx_HAL_Driver/Src/stm32l4xx_hal_ospi.c ****         MODIFY_REG(hospi->Instance->TCR, (OCTOSPI_TCR_SSHIFT | OCTOSPI_TCR_DHQC),
 176              		.loc 1 422 9
 177 00f4 7B68     		ldr	r3, [r7, #4]
 178 00f6 1B68     		ldr	r3, [r3]
 179 00f8 D3F80831 		ldr	r3, [r3, #264]
 180 00fc 23F0A041 		bic	r1, r3, #1342177280
 181 0100 7B68     		ldr	r3, [r7, #4]
 182 0102 5A6A     		ldr	r2, [r3, #36]
 183 0104 7B68     		ldr	r3, [r7, #4]
 184 0106 9B6A     		ldr	r3, [r3, #40]
 185 0108 1A43     		orrs	r2, r2, r3
 186 010a 7B68     		ldr	r3, [r7, #4]
 187 010c 1B68     		ldr	r3, [r3]
 188 010e 0A43     		orrs	r2, r2, r1
 189 0110 C3F80821 		str	r2, [r3, #264]
 423:Drivers/STM32L4xx_HAL_Driver/Src/stm32l4xx_hal_ospi.c ****                   (hospi->Init.SampleShifting | hospi->Init.DelayHoldQuarterCycle));
 424:Drivers/STM32L4xx_HAL_Driver/Src/stm32l4xx_hal_ospi.c **** 
 425:Drivers/STM32L4xx_HAL_Driver/Src/stm32l4xx_hal_ospi.c ****         /* Enable OctoSPI */
 426:Drivers/STM32L4xx_HAL_Driver/Src/stm32l4xx_hal_ospi.c ****         __HAL_OSPI_ENABLE(hospi);
 190              		.loc 1 426 9
 191 0114 7B68     		ldr	r3, [r7, #4]
 192 0116 1B68     		ldr	r3, [r3]
 193 0118 1A68     		ldr	r2, [r3]
 194 011a 7B68     		ldr	r3, [r7, #4]
 195 011c 1B68     		ldr	r3, [r3]
 196 011e 42F00102 		orr	r2, r2, #1
 197 0122 1A60     		str	r2, [r3]
 427:Drivers/STM32L4xx_HAL_Driver/Src/stm32l4xx_hal_ospi.c **** 
 428:Drivers/STM32L4xx_HAL_Driver/Src/stm32l4xx_hal_ospi.c ****         /* Enable free running clock if needed : must be done after OSPI enable */
ARM GAS  C:\Users\Morroway\AppData\Local\Temp\ccxQAUQ3.s 			page 12


 429:Drivers/STM32L4xx_HAL_Driver/Src/stm32l4xx_hal_ospi.c ****         if (hospi->Init.FreeRunningClock == HAL_OSPI_FREERUNCLK_ENABLE)
 198              		.loc 1 429 24
 199 0124 7B68     		ldr	r3, [r7, #4]
 200 0126 9B69     		ldr	r3, [r3, #24]
 201              		.loc 1 429 12
 202 0128 022B     		cmp	r3, #2
 203 012a 07D1     		bne	.L4
 430:Drivers/STM32L4xx_HAL_Driver/Src/stm32l4xx_hal_ospi.c ****         {
 431:Drivers/STM32L4xx_HAL_Driver/Src/stm32l4xx_hal_ospi.c ****           SET_BIT(hospi->Instance->DCR1, OCTOSPI_DCR1_FRCK);
 204              		.loc 1 431 11
 205 012c 7B68     		ldr	r3, [r7, #4]
 206 012e 1B68     		ldr	r3, [r3]
 207 0130 9A68     		ldr	r2, [r3, #8]
 208 0132 7B68     		ldr	r3, [r7, #4]
 209 0134 1B68     		ldr	r3, [r3]
 210 0136 42F00202 		orr	r2, r2, #2
 211 013a 9A60     		str	r2, [r3, #8]
 212              	.L4:
 432:Drivers/STM32L4xx_HAL_Driver/Src/stm32l4xx_hal_ospi.c ****         }
 433:Drivers/STM32L4xx_HAL_Driver/Src/stm32l4xx_hal_ospi.c **** 
 434:Drivers/STM32L4xx_HAL_Driver/Src/stm32l4xx_hal_ospi.c ****         /* Initialize the OSPI state */
 435:Drivers/STM32L4xx_HAL_Driver/Src/stm32l4xx_hal_ospi.c ****         if (hospi->Init.MemoryType == HAL_OSPI_MEMTYPE_HYPERBUS)
 213              		.loc 1 435 24
 214 013c 7B68     		ldr	r3, [r7, #4]
 215 013e DB68     		ldr	r3, [r3, #12]
 216              		.loc 1 435 12
 217 0140 B3F1806F 		cmp	r3, #67108864
 218 0144 03D1     		bne	.L5
 436:Drivers/STM32L4xx_HAL_Driver/Src/stm32l4xx_hal_ospi.c ****         {
 437:Drivers/STM32L4xx_HAL_Driver/Src/stm32l4xx_hal_ospi.c ****           hospi->State = HAL_OSPI_STATE_HYPERBUS_INIT;
 219              		.loc 1 437 24
 220 0146 7B68     		ldr	r3, [r7, #4]
 221 0148 0122     		movs	r2, #1
 222 014a DA64     		str	r2, [r3, #76]
 223 014c 02E0     		b	.L3
 224              	.L5:
 438:Drivers/STM32L4xx_HAL_Driver/Src/stm32l4xx_hal_ospi.c ****         }
 439:Drivers/STM32L4xx_HAL_Driver/Src/stm32l4xx_hal_ospi.c ****         else
 440:Drivers/STM32L4xx_HAL_Driver/Src/stm32l4xx_hal_ospi.c ****         {
 441:Drivers/STM32L4xx_HAL_Driver/Src/stm32l4xx_hal_ospi.c ****           hospi->State = HAL_OSPI_STATE_READY;
 225              		.loc 1 441 24
 226 014e 7B68     		ldr	r3, [r7, #4]
 227 0150 0222     		movs	r2, #2
 228 0152 DA64     		str	r2, [r3, #76]
 229              	.L3:
 442:Drivers/STM32L4xx_HAL_Driver/Src/stm32l4xx_hal_ospi.c ****         }
 443:Drivers/STM32L4xx_HAL_Driver/Src/stm32l4xx_hal_ospi.c ****       }
 444:Drivers/STM32L4xx_HAL_Driver/Src/stm32l4xx_hal_ospi.c ****     }
 445:Drivers/STM32L4xx_HAL_Driver/Src/stm32l4xx_hal_ospi.c ****   }
 446:Drivers/STM32L4xx_HAL_Driver/Src/stm32l4xx_hal_ospi.c **** 
 447:Drivers/STM32L4xx_HAL_Driver/Src/stm32l4xx_hal_ospi.c ****   /* Return function status */
 448:Drivers/STM32L4xx_HAL_Driver/Src/stm32l4xx_hal_ospi.c ****   return status;
 230              		.loc 1 448 10
 231 0154 FB7B     		ldrb	r3, [r7, #15]	@ zero_extendqisi2
 449:Drivers/STM32L4xx_HAL_Driver/Src/stm32l4xx_hal_ospi.c **** }
 232              		.loc 1 449 1
 233 0156 1846     		mov	r0, r3
ARM GAS  C:\Users\Morroway\AppData\Local\Temp\ccxQAUQ3.s 			page 13


 234 0158 1037     		adds	r7, r7, #16
 235              		.cfi_def_cfa_offset 8
 236 015a BD46     		mov	sp, r7
 237              		.cfi_def_cfa_register 13
 238              		@ sp needed
 239 015c 80BD     		pop	{r7, pc}
 240              	.L8:
 241 015e 00BF     		.align	2
 242              	.L7:
 243 0160 F4C0E0F8 		.word	-119488268
 244              		.cfi_endproc
 245              	.LFE321:
 247              		.section	.text.HAL_OSPI_MspInit,"ax",%progbits
 248              		.align	1
 249              		.weak	HAL_OSPI_MspInit
 250              		.syntax unified
 251              		.thumb
 252              		.thumb_func
 254              	HAL_OSPI_MspInit:
 255              	.LFB322:
 450:Drivers/STM32L4xx_HAL_Driver/Src/stm32l4xx_hal_ospi.c **** 
 451:Drivers/STM32L4xx_HAL_Driver/Src/stm32l4xx_hal_ospi.c **** /**
 452:Drivers/STM32L4xx_HAL_Driver/Src/stm32l4xx_hal_ospi.c ****   * @brief  Initialize the OSPI MSP.
 453:Drivers/STM32L4xx_HAL_Driver/Src/stm32l4xx_hal_ospi.c ****   * @param  hospi : OSPI handle
 454:Drivers/STM32L4xx_HAL_Driver/Src/stm32l4xx_hal_ospi.c ****   * @retval None
 455:Drivers/STM32L4xx_HAL_Driver/Src/stm32l4xx_hal_ospi.c ****   */
 456:Drivers/STM32L4xx_HAL_Driver/Src/stm32l4xx_hal_ospi.c **** __weak void HAL_OSPI_MspInit(OSPI_HandleTypeDef *hospi)
 457:Drivers/STM32L4xx_HAL_Driver/Src/stm32l4xx_hal_ospi.c **** {
 256              		.loc 1 457 1
 257              		.cfi_startproc
 258              		@ args = 0, pretend = 0, frame = 8
 259              		@ frame_needed = 1, uses_anonymous_args = 0
 260              		@ link register save eliminated.
 261 0000 80B4     		push	{r7}
 262              		.cfi_def_cfa_offset 4
 263              		.cfi_offset 7, -4
 264 0002 83B0     		sub	sp, sp, #12
 265              		.cfi_def_cfa_offset 16
 266 0004 00AF     		add	r7, sp, #0
 267              		.cfi_def_cfa_register 7
 268 0006 7860     		str	r0, [r7, #4]
 458:Drivers/STM32L4xx_HAL_Driver/Src/stm32l4xx_hal_ospi.c ****   /* Prevent unused argument(s) compilation warning */
 459:Drivers/STM32L4xx_HAL_Driver/Src/stm32l4xx_hal_ospi.c ****   UNUSED(hospi);
 460:Drivers/STM32L4xx_HAL_Driver/Src/stm32l4xx_hal_ospi.c **** 
 461:Drivers/STM32L4xx_HAL_Driver/Src/stm32l4xx_hal_ospi.c ****   /* NOTE : This function should not be modified, when the callback is needed,
 462:Drivers/STM32L4xx_HAL_Driver/Src/stm32l4xx_hal_ospi.c ****             the HAL_OSPI_MspInit can be implemented in the user file
 463:Drivers/STM32L4xx_HAL_Driver/Src/stm32l4xx_hal_ospi.c ****    */
 464:Drivers/STM32L4xx_HAL_Driver/Src/stm32l4xx_hal_ospi.c **** }
 269              		.loc 1 464 1
 270 0008 00BF     		nop
 271 000a 0C37     		adds	r7, r7, #12
 272              		.cfi_def_cfa_offset 4
 273 000c BD46     		mov	sp, r7
 274              		.cfi_def_cfa_register 13
 275              		@ sp needed
 276 000e 5DF8047B 		ldr	r7, [sp], #4
 277              		.cfi_restore 7
ARM GAS  C:\Users\Morroway\AppData\Local\Temp\ccxQAUQ3.s 			page 14


 278              		.cfi_def_cfa_offset 0
 279 0012 7047     		bx	lr
 280              		.cfi_endproc
 281              	.LFE322:
 283              		.section	.text.HAL_OSPI_DeInit,"ax",%progbits
 284              		.align	1
 285              		.global	HAL_OSPI_DeInit
 286              		.syntax unified
 287              		.thumb
 288              		.thumb_func
 290              	HAL_OSPI_DeInit:
 291              	.LFB323:
 465:Drivers/STM32L4xx_HAL_Driver/Src/stm32l4xx_hal_ospi.c **** 
 466:Drivers/STM32L4xx_HAL_Driver/Src/stm32l4xx_hal_ospi.c **** /**
 467:Drivers/STM32L4xx_HAL_Driver/Src/stm32l4xx_hal_ospi.c ****   * @brief  De-Initialize the OSPI peripheral.
 468:Drivers/STM32L4xx_HAL_Driver/Src/stm32l4xx_hal_ospi.c ****   * @param  hospi : OSPI handle
 469:Drivers/STM32L4xx_HAL_Driver/Src/stm32l4xx_hal_ospi.c ****   * @retval HAL status
 470:Drivers/STM32L4xx_HAL_Driver/Src/stm32l4xx_hal_ospi.c ****   */
 471:Drivers/STM32L4xx_HAL_Driver/Src/stm32l4xx_hal_ospi.c **** HAL_StatusTypeDef HAL_OSPI_DeInit(OSPI_HandleTypeDef *hospi)
 472:Drivers/STM32L4xx_HAL_Driver/Src/stm32l4xx_hal_ospi.c **** {
 292              		.loc 1 472 1
 293              		.cfi_startproc
 294              		@ args = 0, pretend = 0, frame = 16
 295              		@ frame_needed = 1, uses_anonymous_args = 0
 296 0000 80B5     		push	{r7, lr}
 297              		.cfi_def_cfa_offset 8
 298              		.cfi_offset 7, -8
 299              		.cfi_offset 14, -4
 300 0002 84B0     		sub	sp, sp, #16
 301              		.cfi_def_cfa_offset 24
 302 0004 00AF     		add	r7, sp, #0
 303              		.cfi_def_cfa_register 7
 304 0006 7860     		str	r0, [r7, #4]
 473:Drivers/STM32L4xx_HAL_Driver/Src/stm32l4xx_hal_ospi.c ****   HAL_StatusTypeDef status = HAL_OK;
 305              		.loc 1 473 21
 306 0008 0023     		movs	r3, #0
 307 000a FB73     		strb	r3, [r7, #15]
 474:Drivers/STM32L4xx_HAL_Driver/Src/stm32l4xx_hal_ospi.c **** 
 475:Drivers/STM32L4xx_HAL_Driver/Src/stm32l4xx_hal_ospi.c ****   /* Check the OSPI handle allocation */
 476:Drivers/STM32L4xx_HAL_Driver/Src/stm32l4xx_hal_ospi.c ****   if (hospi == NULL)
 308              		.loc 1 476 6
 309 000c 7B68     		ldr	r3, [r7, #4]
 310 000e 002B     		cmp	r3, #0
 311 0010 02D1     		bne	.L11
 477:Drivers/STM32L4xx_HAL_Driver/Src/stm32l4xx_hal_ospi.c ****   {
 478:Drivers/STM32L4xx_HAL_Driver/Src/stm32l4xx_hal_ospi.c ****     status = HAL_ERROR;
 312              		.loc 1 478 12
 313 0012 0123     		movs	r3, #1
 314 0014 FB73     		strb	r3, [r7, #15]
 315 0016 15E0     		b	.L12
 316              	.L11:
 479:Drivers/STM32L4xx_HAL_Driver/Src/stm32l4xx_hal_ospi.c ****     /* No error code can be set set as the handler is null */
 480:Drivers/STM32L4xx_HAL_Driver/Src/stm32l4xx_hal_ospi.c ****   }
 481:Drivers/STM32L4xx_HAL_Driver/Src/stm32l4xx_hal_ospi.c ****   else
 482:Drivers/STM32L4xx_HAL_Driver/Src/stm32l4xx_hal_ospi.c ****   {
 483:Drivers/STM32L4xx_HAL_Driver/Src/stm32l4xx_hal_ospi.c ****      /* Disable OctoSPI */
 484:Drivers/STM32L4xx_HAL_Driver/Src/stm32l4xx_hal_ospi.c ****      __HAL_OSPI_DISABLE(hospi);
ARM GAS  C:\Users\Morroway\AppData\Local\Temp\ccxQAUQ3.s 			page 15


 317              		.loc 1 484 6
 318 0018 7B68     		ldr	r3, [r7, #4]
 319 001a 1B68     		ldr	r3, [r3]
 320 001c 1A68     		ldr	r2, [r3]
 321 001e 7B68     		ldr	r3, [r7, #4]
 322 0020 1B68     		ldr	r3, [r3]
 323 0022 22F00102 		bic	r2, r2, #1
 324 0026 1A60     		str	r2, [r3]
 485:Drivers/STM32L4xx_HAL_Driver/Src/stm32l4xx_hal_ospi.c **** 
 486:Drivers/STM32L4xx_HAL_Driver/Src/stm32l4xx_hal_ospi.c ****      /* Disable free running clock if needed : must be done after OSPI disable */
 487:Drivers/STM32L4xx_HAL_Driver/Src/stm32l4xx_hal_ospi.c ****      CLEAR_BIT(hospi->Instance->DCR1, OCTOSPI_DCR1_FRCK);
 325              		.loc 1 487 6
 326 0028 7B68     		ldr	r3, [r7, #4]
 327 002a 1B68     		ldr	r3, [r3]
 328 002c 9A68     		ldr	r2, [r3, #8]
 329 002e 7B68     		ldr	r3, [r7, #4]
 330 0030 1B68     		ldr	r3, [r3]
 331 0032 22F00202 		bic	r2, r2, #2
 332 0036 9A60     		str	r2, [r3, #8]
 488:Drivers/STM32L4xx_HAL_Driver/Src/stm32l4xx_hal_ospi.c **** 
 489:Drivers/STM32L4xx_HAL_Driver/Src/stm32l4xx_hal_ospi.c **** #if defined (USE_HAL_OSPI_REGISTER_CALLBACKS) && (USE_HAL_OSPI_REGISTER_CALLBACKS == 1U)
 490:Drivers/STM32L4xx_HAL_Driver/Src/stm32l4xx_hal_ospi.c ****      if(hospi->MspDeInitCallback == NULL)
 491:Drivers/STM32L4xx_HAL_Driver/Src/stm32l4xx_hal_ospi.c ****      {
 492:Drivers/STM32L4xx_HAL_Driver/Src/stm32l4xx_hal_ospi.c ****        hospi->MspDeInitCallback = HAL_OSPI_MspDeInit;
 493:Drivers/STM32L4xx_HAL_Driver/Src/stm32l4xx_hal_ospi.c ****      }
 494:Drivers/STM32L4xx_HAL_Driver/Src/stm32l4xx_hal_ospi.c **** 
 495:Drivers/STM32L4xx_HAL_Driver/Src/stm32l4xx_hal_ospi.c ****      /* DeInit the low level hardware */
 496:Drivers/STM32L4xx_HAL_Driver/Src/stm32l4xx_hal_ospi.c ****      hospi->MspDeInitCallback(hospi);
 497:Drivers/STM32L4xx_HAL_Driver/Src/stm32l4xx_hal_ospi.c **** #else
 498:Drivers/STM32L4xx_HAL_Driver/Src/stm32l4xx_hal_ospi.c ****      /* De-initialize the low-level hardware */
 499:Drivers/STM32L4xx_HAL_Driver/Src/stm32l4xx_hal_ospi.c ****      HAL_OSPI_MspDeInit(hospi);
 333              		.loc 1 499 6
 334 0038 7868     		ldr	r0, [r7, #4]
 335 003a FFF7FEFF 		bl	HAL_OSPI_MspDeInit
 500:Drivers/STM32L4xx_HAL_Driver/Src/stm32l4xx_hal_ospi.c **** #endif /* (USE_HAL_OSPI_REGISTER_CALLBACKS) && (USE_HAL_OSPI_REGISTER_CALLBACKS == 1U) */
 501:Drivers/STM32L4xx_HAL_Driver/Src/stm32l4xx_hal_ospi.c **** 
 502:Drivers/STM32L4xx_HAL_Driver/Src/stm32l4xx_hal_ospi.c ****      /* Reset the driver state */
 503:Drivers/STM32L4xx_HAL_Driver/Src/stm32l4xx_hal_ospi.c ****      hospi->State = HAL_OSPI_STATE_RESET;
 336              		.loc 1 503 19
 337 003e 7B68     		ldr	r3, [r7, #4]
 338 0040 0022     		movs	r2, #0
 339 0042 DA64     		str	r2, [r3, #76]
 340              	.L12:
 504:Drivers/STM32L4xx_HAL_Driver/Src/stm32l4xx_hal_ospi.c ****   }
 505:Drivers/STM32L4xx_HAL_Driver/Src/stm32l4xx_hal_ospi.c **** 
 506:Drivers/STM32L4xx_HAL_Driver/Src/stm32l4xx_hal_ospi.c ****   return status;
 341              		.loc 1 506 10
 342 0044 FB7B     		ldrb	r3, [r7, #15]	@ zero_extendqisi2
 507:Drivers/STM32L4xx_HAL_Driver/Src/stm32l4xx_hal_ospi.c **** }
 343              		.loc 1 507 1
 344 0046 1846     		mov	r0, r3
 345 0048 1037     		adds	r7, r7, #16
 346              		.cfi_def_cfa_offset 8
 347 004a BD46     		mov	sp, r7
 348              		.cfi_def_cfa_register 13
 349              		@ sp needed
 350 004c 80BD     		pop	{r7, pc}
ARM GAS  C:\Users\Morroway\AppData\Local\Temp\ccxQAUQ3.s 			page 16


 351              		.cfi_endproc
 352              	.LFE323:
 354              		.section	.text.HAL_OSPI_MspDeInit,"ax",%progbits
 355              		.align	1
 356              		.weak	HAL_OSPI_MspDeInit
 357              		.syntax unified
 358              		.thumb
 359              		.thumb_func
 361              	HAL_OSPI_MspDeInit:
 362              	.LFB324:
 508:Drivers/STM32L4xx_HAL_Driver/Src/stm32l4xx_hal_ospi.c **** 
 509:Drivers/STM32L4xx_HAL_Driver/Src/stm32l4xx_hal_ospi.c **** /**
 510:Drivers/STM32L4xx_HAL_Driver/Src/stm32l4xx_hal_ospi.c ****   * @brief  DeInitialize the OSPI MSP.
 511:Drivers/STM32L4xx_HAL_Driver/Src/stm32l4xx_hal_ospi.c ****   * @param  hospi : OSPI handle
 512:Drivers/STM32L4xx_HAL_Driver/Src/stm32l4xx_hal_ospi.c ****   * @retval None
 513:Drivers/STM32L4xx_HAL_Driver/Src/stm32l4xx_hal_ospi.c ****   */
 514:Drivers/STM32L4xx_HAL_Driver/Src/stm32l4xx_hal_ospi.c **** __weak void HAL_OSPI_MspDeInit(OSPI_HandleTypeDef *hospi)
 515:Drivers/STM32L4xx_HAL_Driver/Src/stm32l4xx_hal_ospi.c **** {
 363              		.loc 1 515 1
 364              		.cfi_startproc
 365              		@ args = 0, pretend = 0, frame = 8
 366              		@ frame_needed = 1, uses_anonymous_args = 0
 367              		@ link register save eliminated.
 368 0000 80B4     		push	{r7}
 369              		.cfi_def_cfa_offset 4
 370              		.cfi_offset 7, -4
 371 0002 83B0     		sub	sp, sp, #12
 372              		.cfi_def_cfa_offset 16
 373 0004 00AF     		add	r7, sp, #0
 374              		.cfi_def_cfa_register 7
 375 0006 7860     		str	r0, [r7, #4]
 516:Drivers/STM32L4xx_HAL_Driver/Src/stm32l4xx_hal_ospi.c ****   /* Prevent unused argument(s) compilation warning */
 517:Drivers/STM32L4xx_HAL_Driver/Src/stm32l4xx_hal_ospi.c ****   UNUSED(hospi);
 518:Drivers/STM32L4xx_HAL_Driver/Src/stm32l4xx_hal_ospi.c **** 
 519:Drivers/STM32L4xx_HAL_Driver/Src/stm32l4xx_hal_ospi.c ****   /* NOTE : This function should not be modified, when the callback is needed,
 520:Drivers/STM32L4xx_HAL_Driver/Src/stm32l4xx_hal_ospi.c ****             the HAL_OSPI_MspDeInit can be implemented in the user file
 521:Drivers/STM32L4xx_HAL_Driver/Src/stm32l4xx_hal_ospi.c ****    */
 522:Drivers/STM32L4xx_HAL_Driver/Src/stm32l4xx_hal_ospi.c **** }
 376              		.loc 1 522 1
 377 0008 00BF     		nop
 378 000a 0C37     		adds	r7, r7, #12
 379              		.cfi_def_cfa_offset 4
 380 000c BD46     		mov	sp, r7
 381              		.cfi_def_cfa_register 13
 382              		@ sp needed
 383 000e 5DF8047B 		ldr	r7, [sp], #4
 384              		.cfi_restore 7
 385              		.cfi_def_cfa_offset 0
 386 0012 7047     		bx	lr
 387              		.cfi_endproc
 388              	.LFE324:
 390              		.section	.text.HAL_OSPI_IRQHandler,"ax",%progbits
 391              		.align	1
 392              		.global	HAL_OSPI_IRQHandler
 393              		.syntax unified
 394              		.thumb
 395              		.thumb_func
ARM GAS  C:\Users\Morroway\AppData\Local\Temp\ccxQAUQ3.s 			page 17


 397              	HAL_OSPI_IRQHandler:
 398              	.LFB325:
 523:Drivers/STM32L4xx_HAL_Driver/Src/stm32l4xx_hal_ospi.c **** 
 524:Drivers/STM32L4xx_HAL_Driver/Src/stm32l4xx_hal_ospi.c **** /**
 525:Drivers/STM32L4xx_HAL_Driver/Src/stm32l4xx_hal_ospi.c ****   * @}
 526:Drivers/STM32L4xx_HAL_Driver/Src/stm32l4xx_hal_ospi.c ****   */
 527:Drivers/STM32L4xx_HAL_Driver/Src/stm32l4xx_hal_ospi.c **** 
 528:Drivers/STM32L4xx_HAL_Driver/Src/stm32l4xx_hal_ospi.c **** /** @defgroup OSPI_Exported_Functions_Group2 Input and Output operation functions
 529:Drivers/STM32L4xx_HAL_Driver/Src/stm32l4xx_hal_ospi.c ****   *  @brief OSPI Transmit/Receive functions
 530:Drivers/STM32L4xx_HAL_Driver/Src/stm32l4xx_hal_ospi.c ****   *
 531:Drivers/STM32L4xx_HAL_Driver/Src/stm32l4xx_hal_ospi.c **** @verbatim
 532:Drivers/STM32L4xx_HAL_Driver/Src/stm32l4xx_hal_ospi.c ****  ===============================================================================
 533:Drivers/STM32L4xx_HAL_Driver/Src/stm32l4xx_hal_ospi.c ****                       ##### IO operation functions #####
 534:Drivers/STM32L4xx_HAL_Driver/Src/stm32l4xx_hal_ospi.c ****  ===============================================================================
 535:Drivers/STM32L4xx_HAL_Driver/Src/stm32l4xx_hal_ospi.c ****     [..]
 536:Drivers/STM32L4xx_HAL_Driver/Src/stm32l4xx_hal_ospi.c ****     This subsection provides a set of functions allowing to :
 537:Drivers/STM32L4xx_HAL_Driver/Src/stm32l4xx_hal_ospi.c ****       (+) Handle the interrupts.
 538:Drivers/STM32L4xx_HAL_Driver/Src/stm32l4xx_hal_ospi.c ****       (+) Handle the command sequence (regular and Hyperbus).
 539:Drivers/STM32L4xx_HAL_Driver/Src/stm32l4xx_hal_ospi.c ****       (+) Handle the Hyperbus configuration.
 540:Drivers/STM32L4xx_HAL_Driver/Src/stm32l4xx_hal_ospi.c ****       (+) Transmit data in blocking, interrupt or DMA mode.
 541:Drivers/STM32L4xx_HAL_Driver/Src/stm32l4xx_hal_ospi.c ****       (+) Receive data in blocking, interrupt or DMA mode.
 542:Drivers/STM32L4xx_HAL_Driver/Src/stm32l4xx_hal_ospi.c ****       (+) Manage the auto-polling functional mode.
 543:Drivers/STM32L4xx_HAL_Driver/Src/stm32l4xx_hal_ospi.c ****       (+) Manage the memory-mapped functional mode.
 544:Drivers/STM32L4xx_HAL_Driver/Src/stm32l4xx_hal_ospi.c **** 
 545:Drivers/STM32L4xx_HAL_Driver/Src/stm32l4xx_hal_ospi.c **** @endverbatim
 546:Drivers/STM32L4xx_HAL_Driver/Src/stm32l4xx_hal_ospi.c ****   * @{
 547:Drivers/STM32L4xx_HAL_Driver/Src/stm32l4xx_hal_ospi.c ****   */
 548:Drivers/STM32L4xx_HAL_Driver/Src/stm32l4xx_hal_ospi.c **** 
 549:Drivers/STM32L4xx_HAL_Driver/Src/stm32l4xx_hal_ospi.c **** /**
 550:Drivers/STM32L4xx_HAL_Driver/Src/stm32l4xx_hal_ospi.c ****   * @brief  Handle OSPI interrupt request.
 551:Drivers/STM32L4xx_HAL_Driver/Src/stm32l4xx_hal_ospi.c ****   * @param  hospi : OSPI handle
 552:Drivers/STM32L4xx_HAL_Driver/Src/stm32l4xx_hal_ospi.c ****   * @retval None
 553:Drivers/STM32L4xx_HAL_Driver/Src/stm32l4xx_hal_ospi.c ****   */
 554:Drivers/STM32L4xx_HAL_Driver/Src/stm32l4xx_hal_ospi.c **** void HAL_OSPI_IRQHandler(OSPI_HandleTypeDef *hospi)
 555:Drivers/STM32L4xx_HAL_Driver/Src/stm32l4xx_hal_ospi.c **** {
 399              		.loc 1 555 1
 400              		.cfi_startproc
 401              		@ args = 0, pretend = 0, frame = 24
 402              		@ frame_needed = 1, uses_anonymous_args = 0
 403 0000 80B5     		push	{r7, lr}
 404              		.cfi_def_cfa_offset 8
 405              		.cfi_offset 7, -8
 406              		.cfi_offset 14, -4
 407 0002 86B0     		sub	sp, sp, #24
 408              		.cfi_def_cfa_offset 32
 409 0004 00AF     		add	r7, sp, #0
 410              		.cfi_def_cfa_register 7
 411 0006 7860     		str	r0, [r7, #4]
 556:Drivers/STM32L4xx_HAL_Driver/Src/stm32l4xx_hal_ospi.c ****   __IO uint32_t *data_reg = &hospi->Instance->DR;
 412              		.loc 1 556 35
 413 0008 7B68     		ldr	r3, [r7, #4]
 414 000a 1B68     		ldr	r3, [r3]
 415              		.loc 1 556 18
 416 000c 5033     		adds	r3, r3, #80
 417 000e 7B61     		str	r3, [r7, #20]
 557:Drivers/STM32L4xx_HAL_Driver/Src/stm32l4xx_hal_ospi.c ****   uint32_t flag           = hospi->Instance->SR;
 418              		.loc 1 557 34
ARM GAS  C:\Users\Morroway\AppData\Local\Temp\ccxQAUQ3.s 			page 18


 419 0010 7B68     		ldr	r3, [r7, #4]
 420 0012 1B68     		ldr	r3, [r3]
 421              		.loc 1 557 12
 422 0014 1B6A     		ldr	r3, [r3, #32]
 423 0016 3B61     		str	r3, [r7, #16]
 558:Drivers/STM32L4xx_HAL_Driver/Src/stm32l4xx_hal_ospi.c ****   uint32_t itsource       = hospi->Instance->CR;
 424              		.loc 1 558 34
 425 0018 7B68     		ldr	r3, [r7, #4]
 426 001a 1B68     		ldr	r3, [r3]
 427              		.loc 1 558 12
 428 001c 1B68     		ldr	r3, [r3]
 429 001e FB60     		str	r3, [r7, #12]
 559:Drivers/STM32L4xx_HAL_Driver/Src/stm32l4xx_hal_ospi.c ****   uint32_t currentstate   = hospi->State;
 430              		.loc 1 559 12
 431 0020 7B68     		ldr	r3, [r7, #4]
 432 0022 DB6C     		ldr	r3, [r3, #76]
 433 0024 BB60     		str	r3, [r7, #8]
 560:Drivers/STM32L4xx_HAL_Driver/Src/stm32l4xx_hal_ospi.c **** 
 561:Drivers/STM32L4xx_HAL_Driver/Src/stm32l4xx_hal_ospi.c ****   /* OctoSPI fifo threshold interrupt occurred -------------------------------*/
 562:Drivers/STM32L4xx_HAL_Driver/Src/stm32l4xx_hal_ospi.c ****   if (((flag & HAL_OSPI_FLAG_FT) != 0U) && ((itsource & HAL_OSPI_IT_FT) != 0U))
 434              		.loc 1 562 14
 435 0026 3B69     		ldr	r3, [r7, #16]
 436 0028 03F00403 		and	r3, r3, #4
 437              		.loc 1 562 6
 438 002c 002B     		cmp	r3, #0
 439 002e 3AD0     		beq	.L16
 440              		.loc 1 562 55 discriminator 1
 441 0030 FB68     		ldr	r3, [r7, #12]
 442 0032 03F48023 		and	r3, r3, #262144
 443              		.loc 1 562 41 discriminator 1
 444 0036 002B     		cmp	r3, #0
 445 0038 35D0     		beq	.L16
 563:Drivers/STM32L4xx_HAL_Driver/Src/stm32l4xx_hal_ospi.c ****   {
 564:Drivers/STM32L4xx_HAL_Driver/Src/stm32l4xx_hal_ospi.c ****     if (currentstate == HAL_OSPI_STATE_BUSY_TX)
 446              		.loc 1 564 8
 447 003a BB68     		ldr	r3, [r7, #8]
 448 003c 182B     		cmp	r3, #24
 449 003e 0FD1     		bne	.L17
 565:Drivers/STM32L4xx_HAL_Driver/Src/stm32l4xx_hal_ospi.c ****     {
 566:Drivers/STM32L4xx_HAL_Driver/Src/stm32l4xx_hal_ospi.c ****       /* Write a data in the fifo */
 567:Drivers/STM32L4xx_HAL_Driver/Src/stm32l4xx_hal_ospi.c ****       *((__IO uint8_t *)data_reg) = *hospi->pBuffPtr;
 450              		.loc 1 567 43
 451 0040 7B68     		ldr	r3, [r7, #4]
 452 0042 DB6B     		ldr	r3, [r3, #60]
 453              		.loc 1 567 37
 454 0044 1A78     		ldrb	r2, [r3]	@ zero_extendqisi2
 455              		.loc 1 567 35
 456 0046 7B69     		ldr	r3, [r7, #20]
 457 0048 1A70     		strb	r2, [r3]
 568:Drivers/STM32L4xx_HAL_Driver/Src/stm32l4xx_hal_ospi.c ****       hospi->pBuffPtr++;
 458              		.loc 1 568 12
 459 004a 7B68     		ldr	r3, [r7, #4]
 460 004c DB6B     		ldr	r3, [r3, #60]
 461              		.loc 1 568 22
 462 004e 5A1C     		adds	r2, r3, #1
 463 0050 7B68     		ldr	r3, [r7, #4]
 464 0052 DA63     		str	r2, [r3, #60]
ARM GAS  C:\Users\Morroway\AppData\Local\Temp\ccxQAUQ3.s 			page 19


 569:Drivers/STM32L4xx_HAL_Driver/Src/stm32l4xx_hal_ospi.c ****       hospi->XferCount--;
 465              		.loc 1 569 12
 466 0054 7B68     		ldr	r3, [r7, #4]
 467 0056 5B6C     		ldr	r3, [r3, #68]
 468              		.loc 1 569 23
 469 0058 5A1E     		subs	r2, r3, #1
 470 005a 7B68     		ldr	r3, [r7, #4]
 471 005c 5A64     		str	r2, [r3, #68]
 472 005e 12E0     		b	.L18
 473              	.L17:
 570:Drivers/STM32L4xx_HAL_Driver/Src/stm32l4xx_hal_ospi.c ****     }
 571:Drivers/STM32L4xx_HAL_Driver/Src/stm32l4xx_hal_ospi.c ****     else if (currentstate == HAL_OSPI_STATE_BUSY_RX)
 474              		.loc 1 571 13
 475 0060 BB68     		ldr	r3, [r7, #8]
 476 0062 282B     		cmp	r3, #40
 477 0064 0FD1     		bne	.L18
 572:Drivers/STM32L4xx_HAL_Driver/Src/stm32l4xx_hal_ospi.c ****     {
 573:Drivers/STM32L4xx_HAL_Driver/Src/stm32l4xx_hal_ospi.c ****       /* Read a data from the fifo */
 574:Drivers/STM32L4xx_HAL_Driver/Src/stm32l4xx_hal_ospi.c ****       *hospi->pBuffPtr = *((__IO uint8_t *)data_reg);
 478              		.loc 1 574 13
 479 0066 7B68     		ldr	r3, [r7, #4]
 480 0068 DB6B     		ldr	r3, [r3, #60]
 481              		.loc 1 574 26
 482 006a 7A69     		ldr	r2, [r7, #20]
 483 006c 1278     		ldrb	r2, [r2]
 484 006e D2B2     		uxtb	r2, r2
 485              		.loc 1 574 24
 486 0070 1A70     		strb	r2, [r3]
 575:Drivers/STM32L4xx_HAL_Driver/Src/stm32l4xx_hal_ospi.c ****       hospi->pBuffPtr++;
 487              		.loc 1 575 12
 488 0072 7B68     		ldr	r3, [r7, #4]
 489 0074 DB6B     		ldr	r3, [r3, #60]
 490              		.loc 1 575 22
 491 0076 5A1C     		adds	r2, r3, #1
 492 0078 7B68     		ldr	r3, [r7, #4]
 493 007a DA63     		str	r2, [r3, #60]
 576:Drivers/STM32L4xx_HAL_Driver/Src/stm32l4xx_hal_ospi.c ****       hospi->XferCount--;
 494              		.loc 1 576 12
 495 007c 7B68     		ldr	r3, [r7, #4]
 496 007e 5B6C     		ldr	r3, [r3, #68]
 497              		.loc 1 576 23
 498 0080 5A1E     		subs	r2, r3, #1
 499 0082 7B68     		ldr	r3, [r7, #4]
 500 0084 5A64     		str	r2, [r3, #68]
 501              	.L18:
 577:Drivers/STM32L4xx_HAL_Driver/Src/stm32l4xx_hal_ospi.c ****     }
 578:Drivers/STM32L4xx_HAL_Driver/Src/stm32l4xx_hal_ospi.c ****     else
 579:Drivers/STM32L4xx_HAL_Driver/Src/stm32l4xx_hal_ospi.c ****     {
 580:Drivers/STM32L4xx_HAL_Driver/Src/stm32l4xx_hal_ospi.c ****       /* Nothing to do */
 581:Drivers/STM32L4xx_HAL_Driver/Src/stm32l4xx_hal_ospi.c ****     }
 582:Drivers/STM32L4xx_HAL_Driver/Src/stm32l4xx_hal_ospi.c **** 
 583:Drivers/STM32L4xx_HAL_Driver/Src/stm32l4xx_hal_ospi.c ****     if (hospi->XferCount == 0U)
 502              		.loc 1 583 14
 503 0086 7B68     		ldr	r3, [r7, #4]
 504 0088 5B6C     		ldr	r3, [r3, #68]
 505              		.loc 1 583 8
 506 008a 002B     		cmp	r3, #0
ARM GAS  C:\Users\Morroway\AppData\Local\Temp\ccxQAUQ3.s 			page 20


 507 008c 07D1     		bne	.L19
 584:Drivers/STM32L4xx_HAL_Driver/Src/stm32l4xx_hal_ospi.c ****     {
 585:Drivers/STM32L4xx_HAL_Driver/Src/stm32l4xx_hal_ospi.c ****       /* All data have been received or transmitted for the transfer */
 586:Drivers/STM32L4xx_HAL_Driver/Src/stm32l4xx_hal_ospi.c ****       /* Disable fifo threshold interrupt */
 587:Drivers/STM32L4xx_HAL_Driver/Src/stm32l4xx_hal_ospi.c ****       __HAL_OSPI_DISABLE_IT(hospi, HAL_OSPI_IT_FT);
 508              		.loc 1 587 7
 509 008e 7B68     		ldr	r3, [r7, #4]
 510 0090 1B68     		ldr	r3, [r3]
 511 0092 1A68     		ldr	r2, [r3]
 512 0094 7B68     		ldr	r3, [r7, #4]
 513 0096 1B68     		ldr	r3, [r3]
 514 0098 22F48022 		bic	r2, r2, #262144
 515 009c 1A60     		str	r2, [r3]
 516              	.L19:
 588:Drivers/STM32L4xx_HAL_Driver/Src/stm32l4xx_hal_ospi.c ****     }
 589:Drivers/STM32L4xx_HAL_Driver/Src/stm32l4xx_hal_ospi.c **** 
 590:Drivers/STM32L4xx_HAL_Driver/Src/stm32l4xx_hal_ospi.c ****     /* Fifo threshold callback */
 591:Drivers/STM32L4xx_HAL_Driver/Src/stm32l4xx_hal_ospi.c **** #if defined (USE_HAL_OSPI_REGISTER_CALLBACKS) && (USE_HAL_OSPI_REGISTER_CALLBACKS == 1U)
 592:Drivers/STM32L4xx_HAL_Driver/Src/stm32l4xx_hal_ospi.c ****     hospi->FifoThresholdCallback(hospi);
 593:Drivers/STM32L4xx_HAL_Driver/Src/stm32l4xx_hal_ospi.c **** #else
 594:Drivers/STM32L4xx_HAL_Driver/Src/stm32l4xx_hal_ospi.c ****     HAL_OSPI_FifoThresholdCallback(hospi);
 517              		.loc 1 594 5
 518 009e 7868     		ldr	r0, [r7, #4]
 519 00a0 FFF7FEFF 		bl	HAL_OSPI_FifoThresholdCallback
 520 00a4 E7E0     		b	.L20
 521              	.L16:
 595:Drivers/STM32L4xx_HAL_Driver/Src/stm32l4xx_hal_ospi.c **** #endif /* (USE_HAL_OSPI_REGISTER_CALLBACKS) && (USE_HAL_OSPI_REGISTER_CALLBACKS == 1U)*/
 596:Drivers/STM32L4xx_HAL_Driver/Src/stm32l4xx_hal_ospi.c ****   }
 597:Drivers/STM32L4xx_HAL_Driver/Src/stm32l4xx_hal_ospi.c ****   /* OctoSPI transfer complete interrupt occurred ----------------------------*/
 598:Drivers/STM32L4xx_HAL_Driver/Src/stm32l4xx_hal_ospi.c ****   else if (((flag & HAL_OSPI_FLAG_TC) != 0U) && ((itsource & HAL_OSPI_IT_TC) != 0U))
 522              		.loc 1 598 19
 523 00a6 3B69     		ldr	r3, [r7, #16]
 524 00a8 03F00203 		and	r3, r3, #2
 525              		.loc 1 598 11
 526 00ac 002B     		cmp	r3, #0
 527 00ae 67D0     		beq	.L21
 528              		.loc 1 598 60 discriminator 1
 529 00b0 FB68     		ldr	r3, [r7, #12]
 530 00b2 03F40033 		and	r3, r3, #131072
 531              		.loc 1 598 46 discriminator 1
 532 00b6 002B     		cmp	r3, #0
 533 00b8 62D0     		beq	.L21
 599:Drivers/STM32L4xx_HAL_Driver/Src/stm32l4xx_hal_ospi.c ****   {
 600:Drivers/STM32L4xx_HAL_Driver/Src/stm32l4xx_hal_ospi.c ****     if (currentstate == HAL_OSPI_STATE_BUSY_RX)
 534              		.loc 1 600 8
 535 00ba BB68     		ldr	r3, [r7, #8]
 536 00bc 282B     		cmp	r3, #40
 537 00be 31D1     		bne	.L22
 601:Drivers/STM32L4xx_HAL_Driver/Src/stm32l4xx_hal_ospi.c ****     {
 602:Drivers/STM32L4xx_HAL_Driver/Src/stm32l4xx_hal_ospi.c ****       if ((hospi->XferCount > 0U) && ((flag & OCTOSPI_SR_FLEVEL) != 0U))
 538              		.loc 1 602 17
 539 00c0 7B68     		ldr	r3, [r7, #4]
 540 00c2 5B6C     		ldr	r3, [r3, #68]
 541              		.loc 1 602 10
 542 00c4 002B     		cmp	r3, #0
 543 00c6 15D0     		beq	.L23
 544              		.loc 1 602 45 discriminator 1
ARM GAS  C:\Users\Morroway\AppData\Local\Temp\ccxQAUQ3.s 			page 21


 545 00c8 3B69     		ldr	r3, [r7, #16]
 546 00ca 03F47C53 		and	r3, r3, #16128
 547              		.loc 1 602 35 discriminator 1
 548 00ce 002B     		cmp	r3, #0
 549 00d0 10D0     		beq	.L23
 603:Drivers/STM32L4xx_HAL_Driver/Src/stm32l4xx_hal_ospi.c ****       {
 604:Drivers/STM32L4xx_HAL_Driver/Src/stm32l4xx_hal_ospi.c ****         /* Read the last data received in the fifo */
 605:Drivers/STM32L4xx_HAL_Driver/Src/stm32l4xx_hal_ospi.c ****         *hospi->pBuffPtr = *((__IO uint8_t *)data_reg);
 550              		.loc 1 605 15
 551 00d2 7B68     		ldr	r3, [r7, #4]
 552 00d4 DB6B     		ldr	r3, [r3, #60]
 553              		.loc 1 605 28
 554 00d6 7A69     		ldr	r2, [r7, #20]
 555 00d8 1278     		ldrb	r2, [r2]
 556 00da D2B2     		uxtb	r2, r2
 557              		.loc 1 605 26
 558 00dc 1A70     		strb	r2, [r3]
 606:Drivers/STM32L4xx_HAL_Driver/Src/stm32l4xx_hal_ospi.c ****         hospi->pBuffPtr++;
 559              		.loc 1 606 14
 560 00de 7B68     		ldr	r3, [r7, #4]
 561 00e0 DB6B     		ldr	r3, [r3, #60]
 562              		.loc 1 606 24
 563 00e2 5A1C     		adds	r2, r3, #1
 564 00e4 7B68     		ldr	r3, [r7, #4]
 565 00e6 DA63     		str	r2, [r3, #60]
 607:Drivers/STM32L4xx_HAL_Driver/Src/stm32l4xx_hal_ospi.c ****         hospi->XferCount--;
 566              		.loc 1 607 14
 567 00e8 7B68     		ldr	r3, [r7, #4]
 568 00ea 5B6C     		ldr	r3, [r3, #68]
 569              		.loc 1 607 25
 570 00ec 5A1E     		subs	r2, r3, #1
 571 00ee 7B68     		ldr	r3, [r7, #4]
 572 00f0 5A64     		str	r2, [r3, #68]
 600:Drivers/STM32L4xx_HAL_Driver/Src/stm32l4xx_hal_ospi.c ****     {
 573              		.loc 1 600 8
 574 00f2 BDE0     		b	.L34
 575              	.L23:
 608:Drivers/STM32L4xx_HAL_Driver/Src/stm32l4xx_hal_ospi.c ****       }
 609:Drivers/STM32L4xx_HAL_Driver/Src/stm32l4xx_hal_ospi.c ****       else if(hospi->XferCount == 0U)
 576              		.loc 1 609 20
 577 00f4 7B68     		ldr	r3, [r7, #4]
 578 00f6 5B6C     		ldr	r3, [r3, #68]
 579              		.loc 1 609 14
 580 00f8 002B     		cmp	r3, #0
 581 00fa 40F0B980 		bne	.L34
 610:Drivers/STM32L4xx_HAL_Driver/Src/stm32l4xx_hal_ospi.c ****       {
 611:Drivers/STM32L4xx_HAL_Driver/Src/stm32l4xx_hal_ospi.c ****         /* Clear flag */
 612:Drivers/STM32L4xx_HAL_Driver/Src/stm32l4xx_hal_ospi.c ****         hospi->Instance->FCR = HAL_OSPI_FLAG_TC;
 582              		.loc 1 612 14
 583 00fe 7B68     		ldr	r3, [r7, #4]
 584 0100 1B68     		ldr	r3, [r3]
 585              		.loc 1 612 30
 586 0102 0222     		movs	r2, #2
 587 0104 5A62     		str	r2, [r3, #36]
 613:Drivers/STM32L4xx_HAL_Driver/Src/stm32l4xx_hal_ospi.c **** 
 614:Drivers/STM32L4xx_HAL_Driver/Src/stm32l4xx_hal_ospi.c ****         /* Disable the interrupts */
 615:Drivers/STM32L4xx_HAL_Driver/Src/stm32l4xx_hal_ospi.c ****         __HAL_OSPI_DISABLE_IT(hospi, HAL_OSPI_IT_TC | HAL_OSPI_IT_FT | HAL_OSPI_IT_TE);
ARM GAS  C:\Users\Morroway\AppData\Local\Temp\ccxQAUQ3.s 			page 22


 588              		.loc 1 615 9
 589 0106 7B68     		ldr	r3, [r7, #4]
 590 0108 1B68     		ldr	r3, [r3]
 591 010a 1A68     		ldr	r2, [r3]
 592 010c 7B68     		ldr	r3, [r7, #4]
 593 010e 1B68     		ldr	r3, [r3]
 594 0110 22F4E022 		bic	r2, r2, #458752
 595 0114 1A60     		str	r2, [r3]
 616:Drivers/STM32L4xx_HAL_Driver/Src/stm32l4xx_hal_ospi.c **** 
 617:Drivers/STM32L4xx_HAL_Driver/Src/stm32l4xx_hal_ospi.c ****         /* Update state */
 618:Drivers/STM32L4xx_HAL_Driver/Src/stm32l4xx_hal_ospi.c ****         hospi->State = HAL_OSPI_STATE_READY;
 596              		.loc 1 618 22
 597 0116 7B68     		ldr	r3, [r7, #4]
 598 0118 0222     		movs	r2, #2
 599 011a DA64     		str	r2, [r3, #76]
 619:Drivers/STM32L4xx_HAL_Driver/Src/stm32l4xx_hal_ospi.c **** 
 620:Drivers/STM32L4xx_HAL_Driver/Src/stm32l4xx_hal_ospi.c ****         /* RX complete callback */
 621:Drivers/STM32L4xx_HAL_Driver/Src/stm32l4xx_hal_ospi.c **** #if defined (USE_HAL_OSPI_REGISTER_CALLBACKS) && (USE_HAL_OSPI_REGISTER_CALLBACKS == 1U)
 622:Drivers/STM32L4xx_HAL_Driver/Src/stm32l4xx_hal_ospi.c ****         hospi->RxCpltCallback(hospi);
 623:Drivers/STM32L4xx_HAL_Driver/Src/stm32l4xx_hal_ospi.c **** #else
 624:Drivers/STM32L4xx_HAL_Driver/Src/stm32l4xx_hal_ospi.c ****         HAL_OSPI_RxCpltCallback(hospi);
 600              		.loc 1 624 9
 601 011c 7868     		ldr	r0, [r7, #4]
 602 011e FFF7FEFF 		bl	HAL_OSPI_RxCpltCallback
 600:Drivers/STM32L4xx_HAL_Driver/Src/stm32l4xx_hal_ospi.c ****     {
 603              		.loc 1 600 8
 604 0122 A5E0     		b	.L34
 605              	.L22:
 625:Drivers/STM32L4xx_HAL_Driver/Src/stm32l4xx_hal_ospi.c **** #endif /* (USE_HAL_OSPI_REGISTER_CALLBACKS) && (USE_HAL_OSPI_REGISTER_CALLBACKS == 1U) */
 626:Drivers/STM32L4xx_HAL_Driver/Src/stm32l4xx_hal_ospi.c ****       }
 627:Drivers/STM32L4xx_HAL_Driver/Src/stm32l4xx_hal_ospi.c ****       else
 628:Drivers/STM32L4xx_HAL_Driver/Src/stm32l4xx_hal_ospi.c ****       {
 629:Drivers/STM32L4xx_HAL_Driver/Src/stm32l4xx_hal_ospi.c ****         /* Nothing to do */
 630:Drivers/STM32L4xx_HAL_Driver/Src/stm32l4xx_hal_ospi.c ****       }
 631:Drivers/STM32L4xx_HAL_Driver/Src/stm32l4xx_hal_ospi.c ****     }
 632:Drivers/STM32L4xx_HAL_Driver/Src/stm32l4xx_hal_ospi.c ****     else
 633:Drivers/STM32L4xx_HAL_Driver/Src/stm32l4xx_hal_ospi.c ****     {
 634:Drivers/STM32L4xx_HAL_Driver/Src/stm32l4xx_hal_ospi.c ****       /* Clear flag */
 635:Drivers/STM32L4xx_HAL_Driver/Src/stm32l4xx_hal_ospi.c ****       hospi->Instance->FCR = HAL_OSPI_FLAG_TC;
 606              		.loc 1 635 12
 607 0124 7B68     		ldr	r3, [r7, #4]
 608 0126 1B68     		ldr	r3, [r3]
 609              		.loc 1 635 28
 610 0128 0222     		movs	r2, #2
 611 012a 5A62     		str	r2, [r3, #36]
 636:Drivers/STM32L4xx_HAL_Driver/Src/stm32l4xx_hal_ospi.c **** 
 637:Drivers/STM32L4xx_HAL_Driver/Src/stm32l4xx_hal_ospi.c ****       /* Disable the interrupts */
 638:Drivers/STM32L4xx_HAL_Driver/Src/stm32l4xx_hal_ospi.c ****       __HAL_OSPI_DISABLE_IT(hospi, HAL_OSPI_IT_TC | HAL_OSPI_IT_FT | HAL_OSPI_IT_TE);
 612              		.loc 1 638 7
 613 012c 7B68     		ldr	r3, [r7, #4]
 614 012e 1B68     		ldr	r3, [r3]
 615 0130 1A68     		ldr	r2, [r3]
 616 0132 7B68     		ldr	r3, [r7, #4]
 617 0134 1B68     		ldr	r3, [r3]
 618 0136 22F4E022 		bic	r2, r2, #458752
 619 013a 1A60     		str	r2, [r3]
 639:Drivers/STM32L4xx_HAL_Driver/Src/stm32l4xx_hal_ospi.c **** 
ARM GAS  C:\Users\Morroway\AppData\Local\Temp\ccxQAUQ3.s 			page 23


 640:Drivers/STM32L4xx_HAL_Driver/Src/stm32l4xx_hal_ospi.c ****       /* Update state */
 641:Drivers/STM32L4xx_HAL_Driver/Src/stm32l4xx_hal_ospi.c ****       hospi->State = HAL_OSPI_STATE_READY;
 620              		.loc 1 641 20
 621 013c 7B68     		ldr	r3, [r7, #4]
 622 013e 0222     		movs	r2, #2
 623 0140 DA64     		str	r2, [r3, #76]
 642:Drivers/STM32L4xx_HAL_Driver/Src/stm32l4xx_hal_ospi.c **** 
 643:Drivers/STM32L4xx_HAL_Driver/Src/stm32l4xx_hal_ospi.c ****       if (currentstate == HAL_OSPI_STATE_BUSY_TX)
 624              		.loc 1 643 10
 625 0142 BB68     		ldr	r3, [r7, #8]
 626 0144 182B     		cmp	r3, #24
 627 0146 03D1     		bne	.L26
 644:Drivers/STM32L4xx_HAL_Driver/Src/stm32l4xx_hal_ospi.c ****       {
 645:Drivers/STM32L4xx_HAL_Driver/Src/stm32l4xx_hal_ospi.c ****         /* TX complete callback */
 646:Drivers/STM32L4xx_HAL_Driver/Src/stm32l4xx_hal_ospi.c **** #if defined (USE_HAL_OSPI_REGISTER_CALLBACKS) && (USE_HAL_OSPI_REGISTER_CALLBACKS == 1U)
 647:Drivers/STM32L4xx_HAL_Driver/Src/stm32l4xx_hal_ospi.c ****         hospi->TxCpltCallback(hospi);
 648:Drivers/STM32L4xx_HAL_Driver/Src/stm32l4xx_hal_ospi.c **** #else
 649:Drivers/STM32L4xx_HAL_Driver/Src/stm32l4xx_hal_ospi.c ****         HAL_OSPI_TxCpltCallback(hospi);
 628              		.loc 1 649 9
 629 0148 7868     		ldr	r0, [r7, #4]
 630 014a FFF7FEFF 		bl	HAL_OSPI_TxCpltCallback
 600:Drivers/STM32L4xx_HAL_Driver/Src/stm32l4xx_hal_ospi.c ****     {
 631              		.loc 1 600 8
 632 014e 8FE0     		b	.L34
 633              	.L26:
 650:Drivers/STM32L4xx_HAL_Driver/Src/stm32l4xx_hal_ospi.c **** #endif /* defined (USE_HAL_OSPI_REGISTER_CALLBACKS) && (USE_HAL_OSPI_REGISTER_CALLBACKS == 1U) */
 651:Drivers/STM32L4xx_HAL_Driver/Src/stm32l4xx_hal_ospi.c ****       }
 652:Drivers/STM32L4xx_HAL_Driver/Src/stm32l4xx_hal_ospi.c ****       else if (currentstate == HAL_OSPI_STATE_BUSY_CMD)
 634              		.loc 1 652 15
 635 0150 BB68     		ldr	r3, [r7, #8]
 636 0152 082B     		cmp	r3, #8
 637 0154 03D1     		bne	.L27
 653:Drivers/STM32L4xx_HAL_Driver/Src/stm32l4xx_hal_ospi.c ****       {
 654:Drivers/STM32L4xx_HAL_Driver/Src/stm32l4xx_hal_ospi.c ****         /* Command complete callback */
 655:Drivers/STM32L4xx_HAL_Driver/Src/stm32l4xx_hal_ospi.c **** #if defined (USE_HAL_OSPI_REGISTER_CALLBACKS) && (USE_HAL_OSPI_REGISTER_CALLBACKS == 1U)
 656:Drivers/STM32L4xx_HAL_Driver/Src/stm32l4xx_hal_ospi.c ****         hospi->CmdCpltCallback(hospi);
 657:Drivers/STM32L4xx_HAL_Driver/Src/stm32l4xx_hal_ospi.c **** #else
 658:Drivers/STM32L4xx_HAL_Driver/Src/stm32l4xx_hal_ospi.c ****         HAL_OSPI_CmdCpltCallback(hospi);
 638              		.loc 1 658 9
 639 0156 7868     		ldr	r0, [r7, #4]
 640 0158 FFF7FEFF 		bl	HAL_OSPI_CmdCpltCallback
 600:Drivers/STM32L4xx_HAL_Driver/Src/stm32l4xx_hal_ospi.c ****     {
 641              		.loc 1 600 8
 642 015c 88E0     		b	.L34
 643              	.L27:
 659:Drivers/STM32L4xx_HAL_Driver/Src/stm32l4xx_hal_ospi.c **** #endif /* (USE_HAL_OSPI_REGISTER_CALLBACKS) && (USE_HAL_OSPI_REGISTER_CALLBACKS == 1U) */
 660:Drivers/STM32L4xx_HAL_Driver/Src/stm32l4xx_hal_ospi.c ****       }
 661:Drivers/STM32L4xx_HAL_Driver/Src/stm32l4xx_hal_ospi.c ****       else if (currentstate == HAL_OSPI_STATE_ABORT)
 644              		.loc 1 661 15
 645 015e BB68     		ldr	r3, [r7, #8]
 646 0160 B3F5807F 		cmp	r3, #256
 647 0164 40F08480 		bne	.L34
 662:Drivers/STM32L4xx_HAL_Driver/Src/stm32l4xx_hal_ospi.c ****       {
 663:Drivers/STM32L4xx_HAL_Driver/Src/stm32l4xx_hal_ospi.c ****         if (hospi->ErrorCode == HAL_OSPI_ERROR_NONE)
 648              		.loc 1 663 18
 649 0168 7B68     		ldr	r3, [r7, #4]
 650 016a 1B6D     		ldr	r3, [r3, #80]
ARM GAS  C:\Users\Morroway\AppData\Local\Temp\ccxQAUQ3.s 			page 24


 651              		.loc 1 663 12
 652 016c 002B     		cmp	r3, #0
 653 016e 03D1     		bne	.L28
 664:Drivers/STM32L4xx_HAL_Driver/Src/stm32l4xx_hal_ospi.c ****         {
 665:Drivers/STM32L4xx_HAL_Driver/Src/stm32l4xx_hal_ospi.c ****           /* Abort called by the user */
 666:Drivers/STM32L4xx_HAL_Driver/Src/stm32l4xx_hal_ospi.c ****           /* Abort complete callback */
 667:Drivers/STM32L4xx_HAL_Driver/Src/stm32l4xx_hal_ospi.c **** #if defined (USE_HAL_OSPI_REGISTER_CALLBACKS) && (USE_HAL_OSPI_REGISTER_CALLBACKS == 1U)
 668:Drivers/STM32L4xx_HAL_Driver/Src/stm32l4xx_hal_ospi.c ****           hospi->AbortCpltCallback(hospi);
 669:Drivers/STM32L4xx_HAL_Driver/Src/stm32l4xx_hal_ospi.c **** #else
 670:Drivers/STM32L4xx_HAL_Driver/Src/stm32l4xx_hal_ospi.c ****           HAL_OSPI_AbortCpltCallback(hospi);
 654              		.loc 1 670 11
 655 0170 7868     		ldr	r0, [r7, #4]
 656 0172 FFF7FEFF 		bl	HAL_OSPI_AbortCpltCallback
 600:Drivers/STM32L4xx_HAL_Driver/Src/stm32l4xx_hal_ospi.c ****     {
 657              		.loc 1 600 8
 658 0176 7BE0     		b	.L34
 659              	.L28:
 671:Drivers/STM32L4xx_HAL_Driver/Src/stm32l4xx_hal_ospi.c **** #endif /* defined (USE_HAL_OSPI_REGISTER_CALLBACKS) && (USE_HAL_OSPI_REGISTER_CALLBACKS == 1U)*/
 672:Drivers/STM32L4xx_HAL_Driver/Src/stm32l4xx_hal_ospi.c ****         }
 673:Drivers/STM32L4xx_HAL_Driver/Src/stm32l4xx_hal_ospi.c ****         else
 674:Drivers/STM32L4xx_HAL_Driver/Src/stm32l4xx_hal_ospi.c ****         {
 675:Drivers/STM32L4xx_HAL_Driver/Src/stm32l4xx_hal_ospi.c ****           /* Abort due to an error (eg : DMA error) */
 676:Drivers/STM32L4xx_HAL_Driver/Src/stm32l4xx_hal_ospi.c ****           /* Error callback */
 677:Drivers/STM32L4xx_HAL_Driver/Src/stm32l4xx_hal_ospi.c **** #if defined (USE_HAL_OSPI_REGISTER_CALLBACKS) && (USE_HAL_OSPI_REGISTER_CALLBACKS == 1U)
 678:Drivers/STM32L4xx_HAL_Driver/Src/stm32l4xx_hal_ospi.c ****           hospi->ErrorCallback(hospi);
 679:Drivers/STM32L4xx_HAL_Driver/Src/stm32l4xx_hal_ospi.c **** #else
 680:Drivers/STM32L4xx_HAL_Driver/Src/stm32l4xx_hal_ospi.c ****           HAL_OSPI_ErrorCallback(hospi);
 660              		.loc 1 680 11
 661 0178 7868     		ldr	r0, [r7, #4]
 662 017a FFF7FEFF 		bl	HAL_OSPI_ErrorCallback
 600:Drivers/STM32L4xx_HAL_Driver/Src/stm32l4xx_hal_ospi.c ****     {
 663              		.loc 1 600 8
 664 017e 77E0     		b	.L34
 665              	.L21:
 681:Drivers/STM32L4xx_HAL_Driver/Src/stm32l4xx_hal_ospi.c **** #endif /* (USE_HAL_OSPI_REGISTER_CALLBACKS) && (USE_HAL_OSPI_REGISTER_CALLBACKS == 1U) */
 682:Drivers/STM32L4xx_HAL_Driver/Src/stm32l4xx_hal_ospi.c ****         }
 683:Drivers/STM32L4xx_HAL_Driver/Src/stm32l4xx_hal_ospi.c ****       }
 684:Drivers/STM32L4xx_HAL_Driver/Src/stm32l4xx_hal_ospi.c ****       else
 685:Drivers/STM32L4xx_HAL_Driver/Src/stm32l4xx_hal_ospi.c ****       {
 686:Drivers/STM32L4xx_HAL_Driver/Src/stm32l4xx_hal_ospi.c ****         /* Nothing to do */
 687:Drivers/STM32L4xx_HAL_Driver/Src/stm32l4xx_hal_ospi.c ****       }
 688:Drivers/STM32L4xx_HAL_Driver/Src/stm32l4xx_hal_ospi.c ****     }
 689:Drivers/STM32L4xx_HAL_Driver/Src/stm32l4xx_hal_ospi.c ****   }
 690:Drivers/STM32L4xx_HAL_Driver/Src/stm32l4xx_hal_ospi.c ****   /* OctoSPI status match interrupt occurred ---------------------------------*/
 691:Drivers/STM32L4xx_HAL_Driver/Src/stm32l4xx_hal_ospi.c ****   else if (((flag & HAL_OSPI_FLAG_SM) != 0U) && ((itsource & HAL_OSPI_IT_SM) != 0U))
 666              		.loc 1 691 19
 667 0180 3B69     		ldr	r3, [r7, #16]
 668 0182 03F00803 		and	r3, r3, #8
 669              		.loc 1 691 11
 670 0186 002B     		cmp	r3, #0
 671 0188 1ED0     		beq	.L29
 672              		.loc 1 691 60 discriminator 1
 673 018a FB68     		ldr	r3, [r7, #12]
 674 018c 03F40023 		and	r3, r3, #524288
 675              		.loc 1 691 46 discriminator 1
 676 0190 002B     		cmp	r3, #0
 677 0192 19D0     		beq	.L29
ARM GAS  C:\Users\Morroway\AppData\Local\Temp\ccxQAUQ3.s 			page 25


 692:Drivers/STM32L4xx_HAL_Driver/Src/stm32l4xx_hal_ospi.c ****   {
 693:Drivers/STM32L4xx_HAL_Driver/Src/stm32l4xx_hal_ospi.c ****     /* Clear flag */
 694:Drivers/STM32L4xx_HAL_Driver/Src/stm32l4xx_hal_ospi.c ****     hospi->Instance->FCR = HAL_OSPI_FLAG_SM;
 678              		.loc 1 694 10
 679 0194 7B68     		ldr	r3, [r7, #4]
 680 0196 1B68     		ldr	r3, [r3]
 681              		.loc 1 694 26
 682 0198 0822     		movs	r2, #8
 683 019a 5A62     		str	r2, [r3, #36]
 695:Drivers/STM32L4xx_HAL_Driver/Src/stm32l4xx_hal_ospi.c **** 
 696:Drivers/STM32L4xx_HAL_Driver/Src/stm32l4xx_hal_ospi.c ****     /* Check if automatic poll mode stop is activated */
 697:Drivers/STM32L4xx_HAL_Driver/Src/stm32l4xx_hal_ospi.c ****     if ((hospi->Instance->CR & OCTOSPI_CR_APMS) != 0U)
 684              		.loc 1 697 15
 685 019c 7B68     		ldr	r3, [r7, #4]
 686 019e 1B68     		ldr	r3, [r3]
 687              		.loc 1 697 25
 688 01a0 1B68     		ldr	r3, [r3]
 689              		.loc 1 697 30
 690 01a2 03F48003 		and	r3, r3, #4194304
 691              		.loc 1 697 8
 692 01a6 002B     		cmp	r3, #0
 693 01a8 0AD0     		beq	.L30
 698:Drivers/STM32L4xx_HAL_Driver/Src/stm32l4xx_hal_ospi.c ****     {
 699:Drivers/STM32L4xx_HAL_Driver/Src/stm32l4xx_hal_ospi.c ****       /* Disable the interrupts */
 700:Drivers/STM32L4xx_HAL_Driver/Src/stm32l4xx_hal_ospi.c ****       __HAL_OSPI_DISABLE_IT(hospi, HAL_OSPI_IT_SM | HAL_OSPI_IT_TE);
 694              		.loc 1 700 7
 695 01aa 7B68     		ldr	r3, [r7, #4]
 696 01ac 1B68     		ldr	r3, [r3]
 697 01ae 1A68     		ldr	r2, [r3]
 698 01b0 7B68     		ldr	r3, [r7, #4]
 699 01b2 1B68     		ldr	r3, [r3]
 700 01b4 22F41022 		bic	r2, r2, #589824
 701 01b8 1A60     		str	r2, [r3]
 701:Drivers/STM32L4xx_HAL_Driver/Src/stm32l4xx_hal_ospi.c **** 
 702:Drivers/STM32L4xx_HAL_Driver/Src/stm32l4xx_hal_ospi.c ****       /* Update state */
 703:Drivers/STM32L4xx_HAL_Driver/Src/stm32l4xx_hal_ospi.c ****       hospi->State = HAL_OSPI_STATE_READY;
 702              		.loc 1 703 20
 703 01ba 7B68     		ldr	r3, [r7, #4]
 704 01bc 0222     		movs	r2, #2
 705 01be DA64     		str	r2, [r3, #76]
 706              	.L30:
 704:Drivers/STM32L4xx_HAL_Driver/Src/stm32l4xx_hal_ospi.c ****     }
 705:Drivers/STM32L4xx_HAL_Driver/Src/stm32l4xx_hal_ospi.c **** 
 706:Drivers/STM32L4xx_HAL_Driver/Src/stm32l4xx_hal_ospi.c ****     /* Status match callback */
 707:Drivers/STM32L4xx_HAL_Driver/Src/stm32l4xx_hal_ospi.c **** #if defined (USE_HAL_OSPI_REGISTER_CALLBACKS) && (USE_HAL_OSPI_REGISTER_CALLBACKS == 1U)
 708:Drivers/STM32L4xx_HAL_Driver/Src/stm32l4xx_hal_ospi.c ****     hospi->StatusMatchCallback(hospi);
 709:Drivers/STM32L4xx_HAL_Driver/Src/stm32l4xx_hal_ospi.c **** #else
 710:Drivers/STM32L4xx_HAL_Driver/Src/stm32l4xx_hal_ospi.c ****     HAL_OSPI_StatusMatchCallback(hospi);
 707              		.loc 1 710 5
 708 01c0 7868     		ldr	r0, [r7, #4]
 709 01c2 FFF7FEFF 		bl	HAL_OSPI_StatusMatchCallback
 710 01c6 56E0     		b	.L20
 711              	.L29:
 711:Drivers/STM32L4xx_HAL_Driver/Src/stm32l4xx_hal_ospi.c **** #endif /* (USE_HAL_OSPI_REGISTER_CALLBACKS) && (USE_HAL_OSPI_REGISTER_CALLBACKS == 1U) */
 712:Drivers/STM32L4xx_HAL_Driver/Src/stm32l4xx_hal_ospi.c ****   }
 713:Drivers/STM32L4xx_HAL_Driver/Src/stm32l4xx_hal_ospi.c ****   /* OctoSPI transfer error interrupt occurred -------------------------------*/
 714:Drivers/STM32L4xx_HAL_Driver/Src/stm32l4xx_hal_ospi.c ****   else if (((flag & HAL_OSPI_FLAG_TE) != 0U) && ((itsource & HAL_OSPI_IT_TE) != 0U))
ARM GAS  C:\Users\Morroway\AppData\Local\Temp\ccxQAUQ3.s 			page 26


 712              		.loc 1 714 19
 713 01c8 3B69     		ldr	r3, [r7, #16]
 714 01ca 03F00103 		and	r3, r3, #1
 715              		.loc 1 714 11
 716 01ce 002B     		cmp	r3, #0
 717 01d0 3CD0     		beq	.L31
 718              		.loc 1 714 60 discriminator 1
 719 01d2 FB68     		ldr	r3, [r7, #12]
 720 01d4 03F48033 		and	r3, r3, #65536
 721              		.loc 1 714 46 discriminator 1
 722 01d8 002B     		cmp	r3, #0
 723 01da 37D0     		beq	.L31
 715:Drivers/STM32L4xx_HAL_Driver/Src/stm32l4xx_hal_ospi.c ****   {
 716:Drivers/STM32L4xx_HAL_Driver/Src/stm32l4xx_hal_ospi.c ****     /* Clear flag */
 717:Drivers/STM32L4xx_HAL_Driver/Src/stm32l4xx_hal_ospi.c ****     hospi->Instance->FCR = HAL_OSPI_FLAG_TE;
 724              		.loc 1 717 10
 725 01dc 7B68     		ldr	r3, [r7, #4]
 726 01de 1B68     		ldr	r3, [r3]
 727              		.loc 1 717 26
 728 01e0 0122     		movs	r2, #1
 729 01e2 5A62     		str	r2, [r3, #36]
 718:Drivers/STM32L4xx_HAL_Driver/Src/stm32l4xx_hal_ospi.c **** 
 719:Drivers/STM32L4xx_HAL_Driver/Src/stm32l4xx_hal_ospi.c ****     /* Disable all interrupts */
 720:Drivers/STM32L4xx_HAL_Driver/Src/stm32l4xx_hal_ospi.c ****     __HAL_OSPI_DISABLE_IT(hospi, (HAL_OSPI_IT_TO | HAL_OSPI_IT_SM | HAL_OSPI_IT_FT | HAL_OSPI_IT_TC
 730              		.loc 1 720 5
 731 01e4 7B68     		ldr	r3, [r7, #4]
 732 01e6 1B68     		ldr	r3, [r3]
 733 01e8 1A68     		ldr	r2, [r3]
 734 01ea 7B68     		ldr	r3, [r7, #4]
 735 01ec 1B68     		ldr	r3, [r3]
 736 01ee 22F4F812 		bic	r2, r2, #2031616
 737 01f2 1A60     		str	r2, [r3]
 721:Drivers/STM32L4xx_HAL_Driver/Src/stm32l4xx_hal_ospi.c **** 
 722:Drivers/STM32L4xx_HAL_Driver/Src/stm32l4xx_hal_ospi.c ****     /* Set error code */
 723:Drivers/STM32L4xx_HAL_Driver/Src/stm32l4xx_hal_ospi.c ****     hospi->ErrorCode = HAL_OSPI_ERROR_TRANSFER;
 738              		.loc 1 723 22
 739 01f4 7B68     		ldr	r3, [r7, #4]
 740 01f6 0222     		movs	r2, #2
 741 01f8 1A65     		str	r2, [r3, #80]
 724:Drivers/STM32L4xx_HAL_Driver/Src/stm32l4xx_hal_ospi.c **** 
 725:Drivers/STM32L4xx_HAL_Driver/Src/stm32l4xx_hal_ospi.c ****     /* Check if the DMA is enabled */
 726:Drivers/STM32L4xx_HAL_Driver/Src/stm32l4xx_hal_ospi.c ****     if ((hospi->Instance->CR & OCTOSPI_CR_DMAEN) != 0U)
 742              		.loc 1 726 15
 743 01fa 7B68     		ldr	r3, [r7, #4]
 744 01fc 1B68     		ldr	r3, [r3]
 745              		.loc 1 726 25
 746 01fe 1B68     		ldr	r3, [r3]
 747              		.loc 1 726 30
 748 0200 03F00403 		and	r3, r3, #4
 749              		.loc 1 726 8
 750 0204 002B     		cmp	r3, #0
 751 0206 1AD0     		beq	.L32
 727:Drivers/STM32L4xx_HAL_Driver/Src/stm32l4xx_hal_ospi.c ****     {
 728:Drivers/STM32L4xx_HAL_Driver/Src/stm32l4xx_hal_ospi.c ****       /* Disable the DMA transfer on the OctoSPI side */
 729:Drivers/STM32L4xx_HAL_Driver/Src/stm32l4xx_hal_ospi.c ****       CLEAR_BIT(hospi->Instance->CR, OCTOSPI_CR_DMAEN);
 752              		.loc 1 729 7
 753 0208 7B68     		ldr	r3, [r7, #4]
ARM GAS  C:\Users\Morroway\AppData\Local\Temp\ccxQAUQ3.s 			page 27


 754 020a 1B68     		ldr	r3, [r3]
 755 020c 1A68     		ldr	r2, [r3]
 756 020e 7B68     		ldr	r3, [r7, #4]
 757 0210 1B68     		ldr	r3, [r3]
 758 0212 22F00402 		bic	r2, r2, #4
 759 0216 1A60     		str	r2, [r3]
 730:Drivers/STM32L4xx_HAL_Driver/Src/stm32l4xx_hal_ospi.c **** 
 731:Drivers/STM32L4xx_HAL_Driver/Src/stm32l4xx_hal_ospi.c ****       /* Disable the DMA transfer on the DMA side */
 732:Drivers/STM32L4xx_HAL_Driver/Src/stm32l4xx_hal_ospi.c ****       hospi->hdma->XferAbortCallback = OSPI_DMAAbortCplt;
 760              		.loc 1 732 12
 761 0218 7B68     		ldr	r3, [r7, #4]
 762 021a 9B6C     		ldr	r3, [r3, #72]
 763              		.loc 1 732 38
 764 021c 184A     		ldr	r2, .L37
 765 021e 9A63     		str	r2, [r3, #56]
 733:Drivers/STM32L4xx_HAL_Driver/Src/stm32l4xx_hal_ospi.c ****       if (HAL_DMA_Abort_IT(hospi->hdma) != HAL_OK)
 766              		.loc 1 733 11
 767 0220 7B68     		ldr	r3, [r7, #4]
 768 0222 9B6C     		ldr	r3, [r3, #72]
 769 0224 1846     		mov	r0, r3
 770 0226 FFF7FEFF 		bl	HAL_DMA_Abort_IT
 771 022a 0346     		mov	r3, r0
 772              		.loc 1 733 10
 773 022c 002B     		cmp	r3, #0
 774 022e 21D0     		beq	.L35
 734:Drivers/STM32L4xx_HAL_Driver/Src/stm32l4xx_hal_ospi.c ****       {
 735:Drivers/STM32L4xx_HAL_Driver/Src/stm32l4xx_hal_ospi.c ****         /* Update state */
 736:Drivers/STM32L4xx_HAL_Driver/Src/stm32l4xx_hal_ospi.c ****         hospi->State = HAL_OSPI_STATE_READY;
 775              		.loc 1 736 22
 776 0230 7B68     		ldr	r3, [r7, #4]
 777 0232 0222     		movs	r2, #2
 778 0234 DA64     		str	r2, [r3, #76]
 737:Drivers/STM32L4xx_HAL_Driver/Src/stm32l4xx_hal_ospi.c **** 
 738:Drivers/STM32L4xx_HAL_Driver/Src/stm32l4xx_hal_ospi.c ****         /* Error callback */
 739:Drivers/STM32L4xx_HAL_Driver/Src/stm32l4xx_hal_ospi.c **** #if defined (USE_HAL_OSPI_REGISTER_CALLBACKS) && (USE_HAL_OSPI_REGISTER_CALLBACKS == 1U)
 740:Drivers/STM32L4xx_HAL_Driver/Src/stm32l4xx_hal_ospi.c ****         hospi->ErrorCallback(hospi);
 741:Drivers/STM32L4xx_HAL_Driver/Src/stm32l4xx_hal_ospi.c **** #else
 742:Drivers/STM32L4xx_HAL_Driver/Src/stm32l4xx_hal_ospi.c ****         HAL_OSPI_ErrorCallback(hospi);
 779              		.loc 1 742 9
 780 0236 7868     		ldr	r0, [r7, #4]
 781 0238 FFF7FEFF 		bl	HAL_OSPI_ErrorCallback
 726:Drivers/STM32L4xx_HAL_Driver/Src/stm32l4xx_hal_ospi.c ****     {
 782              		.loc 1 726 8
 783 023c 1AE0     		b	.L35
 784              	.L32:
 743:Drivers/STM32L4xx_HAL_Driver/Src/stm32l4xx_hal_ospi.c **** #endif /* (USE_HAL_OSPI_REGISTER_CALLBACKS) && (USE_HAL_OSPI_REGISTER_CALLBACKS == 1U)*/
 744:Drivers/STM32L4xx_HAL_Driver/Src/stm32l4xx_hal_ospi.c ****       }
 745:Drivers/STM32L4xx_HAL_Driver/Src/stm32l4xx_hal_ospi.c ****     }
 746:Drivers/STM32L4xx_HAL_Driver/Src/stm32l4xx_hal_ospi.c ****     else
 747:Drivers/STM32L4xx_HAL_Driver/Src/stm32l4xx_hal_ospi.c ****     {
 748:Drivers/STM32L4xx_HAL_Driver/Src/stm32l4xx_hal_ospi.c ****       /* Update state */
 749:Drivers/STM32L4xx_HAL_Driver/Src/stm32l4xx_hal_ospi.c ****       hospi->State = HAL_OSPI_STATE_READY;
 785              		.loc 1 749 20
 786 023e 7B68     		ldr	r3, [r7, #4]
 787 0240 0222     		movs	r2, #2
 788 0242 DA64     		str	r2, [r3, #76]
 750:Drivers/STM32L4xx_HAL_Driver/Src/stm32l4xx_hal_ospi.c **** 
ARM GAS  C:\Users\Morroway\AppData\Local\Temp\ccxQAUQ3.s 			page 28


 751:Drivers/STM32L4xx_HAL_Driver/Src/stm32l4xx_hal_ospi.c ****       /* Error callback */
 752:Drivers/STM32L4xx_HAL_Driver/Src/stm32l4xx_hal_ospi.c **** #if defined (USE_HAL_OSPI_REGISTER_CALLBACKS) && (USE_HAL_OSPI_REGISTER_CALLBACKS == 1U)
 753:Drivers/STM32L4xx_HAL_Driver/Src/stm32l4xx_hal_ospi.c ****       hospi->ErrorCallback(hospi);
 754:Drivers/STM32L4xx_HAL_Driver/Src/stm32l4xx_hal_ospi.c **** #else
 755:Drivers/STM32L4xx_HAL_Driver/Src/stm32l4xx_hal_ospi.c ****       HAL_OSPI_ErrorCallback(hospi);
 789              		.loc 1 755 7
 790 0244 7868     		ldr	r0, [r7, #4]
 791 0246 FFF7FEFF 		bl	HAL_OSPI_ErrorCallback
 726:Drivers/STM32L4xx_HAL_Driver/Src/stm32l4xx_hal_ospi.c ****     {
 792              		.loc 1 726 8
 793 024a 13E0     		b	.L35
 794              	.L31:
 756:Drivers/STM32L4xx_HAL_Driver/Src/stm32l4xx_hal_ospi.c **** #endif /* (USE_HAL_OSPI_REGISTER_CALLBACKS) && (USE_HAL_OSPI_REGISTER_CALLBACKS == 1U) */
 757:Drivers/STM32L4xx_HAL_Driver/Src/stm32l4xx_hal_ospi.c ****     }
 758:Drivers/STM32L4xx_HAL_Driver/Src/stm32l4xx_hal_ospi.c ****   }
 759:Drivers/STM32L4xx_HAL_Driver/Src/stm32l4xx_hal_ospi.c ****   /* OctoSPI timeout interrupt occurred --------------------------------------*/
 760:Drivers/STM32L4xx_HAL_Driver/Src/stm32l4xx_hal_ospi.c ****   else if (((flag & HAL_OSPI_FLAG_TO) != 0U) && ((itsource & HAL_OSPI_IT_TO) != 0U))
 795              		.loc 1 760 19
 796 024c 3B69     		ldr	r3, [r7, #16]
 797 024e 03F01003 		and	r3, r3, #16
 798              		.loc 1 760 11
 799 0252 002B     		cmp	r3, #0
 800 0254 0FD0     		beq	.L36
 801              		.loc 1 760 60 discriminator 1
 802 0256 FB68     		ldr	r3, [r7, #12]
 803 0258 03F48013 		and	r3, r3, #1048576
 804              		.loc 1 760 46 discriminator 1
 805 025c 002B     		cmp	r3, #0
 806 025e 0AD0     		beq	.L36
 761:Drivers/STM32L4xx_HAL_Driver/Src/stm32l4xx_hal_ospi.c ****   {
 762:Drivers/STM32L4xx_HAL_Driver/Src/stm32l4xx_hal_ospi.c ****     /* Clear flag */
 763:Drivers/STM32L4xx_HAL_Driver/Src/stm32l4xx_hal_ospi.c ****     hospi->Instance->FCR = HAL_OSPI_FLAG_TO;
 807              		.loc 1 763 10
 808 0260 7B68     		ldr	r3, [r7, #4]
 809 0262 1B68     		ldr	r3, [r3]
 810              		.loc 1 763 26
 811 0264 1022     		movs	r2, #16
 812 0266 5A62     		str	r2, [r3, #36]
 764:Drivers/STM32L4xx_HAL_Driver/Src/stm32l4xx_hal_ospi.c **** 
 765:Drivers/STM32L4xx_HAL_Driver/Src/stm32l4xx_hal_ospi.c ****     /* Timeout callback */
 766:Drivers/STM32L4xx_HAL_Driver/Src/stm32l4xx_hal_ospi.c **** #if defined (USE_HAL_OSPI_REGISTER_CALLBACKS) && (USE_HAL_OSPI_REGISTER_CALLBACKS == 1U)
 767:Drivers/STM32L4xx_HAL_Driver/Src/stm32l4xx_hal_ospi.c ****     hospi->TimeOutCallback(hospi);
 768:Drivers/STM32L4xx_HAL_Driver/Src/stm32l4xx_hal_ospi.c **** #else
 769:Drivers/STM32L4xx_HAL_Driver/Src/stm32l4xx_hal_ospi.c ****     HAL_OSPI_TimeOutCallback(hospi);
 813              		.loc 1 769 5
 814 0268 7868     		ldr	r0, [r7, #4]
 815 026a FFF7FEFF 		bl	HAL_OSPI_TimeOutCallback
 770:Drivers/STM32L4xx_HAL_Driver/Src/stm32l4xx_hal_ospi.c **** #endif /* (USE_HAL_OSPI_REGISTER_CALLBACKS) && (USE_HAL_OSPI_REGISTER_CALLBACKS == 1U) */
 771:Drivers/STM32L4xx_HAL_Driver/Src/stm32l4xx_hal_ospi.c ****   }
 772:Drivers/STM32L4xx_HAL_Driver/Src/stm32l4xx_hal_ospi.c ****   else
 773:Drivers/STM32L4xx_HAL_Driver/Src/stm32l4xx_hal_ospi.c ****   {
 774:Drivers/STM32L4xx_HAL_Driver/Src/stm32l4xx_hal_ospi.c ****     /* Nothing to do */
 775:Drivers/STM32L4xx_HAL_Driver/Src/stm32l4xx_hal_ospi.c ****   }
 776:Drivers/STM32L4xx_HAL_Driver/Src/stm32l4xx_hal_ospi.c **** }
 816              		.loc 1 776 1
 817 026e 02E0     		b	.L36
 818              	.L34:
ARM GAS  C:\Users\Morroway\AppData\Local\Temp\ccxQAUQ3.s 			page 29


 600:Drivers/STM32L4xx_HAL_Driver/Src/stm32l4xx_hal_ospi.c ****     {
 819              		.loc 1 600 8
 820 0270 00BF     		nop
 821 0272 00E0     		b	.L36
 822              	.L35:
 726:Drivers/STM32L4xx_HAL_Driver/Src/stm32l4xx_hal_ospi.c ****     {
 823              		.loc 1 726 8
 824 0274 00BF     		nop
 825              	.L20:
 826              	.L36:
 827              		.loc 1 776 1
 828 0276 00BF     		nop
 829 0278 1837     		adds	r7, r7, #24
 830              		.cfi_def_cfa_offset 8
 831 027a BD46     		mov	sp, r7
 832              		.cfi_def_cfa_register 13
 833              		@ sp needed
 834 027c 80BD     		pop	{r7, pc}
 835              	.L38:
 836 027e 00BF     		.align	2
 837              	.L37:
 838 0280 00000000 		.word	OSPI_DMAAbortCplt
 839              		.cfi_endproc
 840              	.LFE325:
 842              		.section	.text.HAL_OSPI_Command,"ax",%progbits
 843              		.align	1
 844              		.global	HAL_OSPI_Command
 845              		.syntax unified
 846              		.thumb
 847              		.thumb_func
 849              	HAL_OSPI_Command:
 850              	.LFB326:
 777:Drivers/STM32L4xx_HAL_Driver/Src/stm32l4xx_hal_ospi.c **** 
 778:Drivers/STM32L4xx_HAL_Driver/Src/stm32l4xx_hal_ospi.c **** /**
 779:Drivers/STM32L4xx_HAL_Driver/Src/stm32l4xx_hal_ospi.c ****   * @brief  Set the command configuration.
 780:Drivers/STM32L4xx_HAL_Driver/Src/stm32l4xx_hal_ospi.c ****   * @param  hospi   : OSPI handle
 781:Drivers/STM32L4xx_HAL_Driver/Src/stm32l4xx_hal_ospi.c ****   * @param  cmd     : structure that contains the command configuration information
 782:Drivers/STM32L4xx_HAL_Driver/Src/stm32l4xx_hal_ospi.c ****   * @param  Timeout : Timeout duration
 783:Drivers/STM32L4xx_HAL_Driver/Src/stm32l4xx_hal_ospi.c ****   * @retval HAL status
 784:Drivers/STM32L4xx_HAL_Driver/Src/stm32l4xx_hal_ospi.c ****   */
 785:Drivers/STM32L4xx_HAL_Driver/Src/stm32l4xx_hal_ospi.c **** HAL_StatusTypeDef HAL_OSPI_Command(OSPI_HandleTypeDef *hospi, OSPI_RegularCmdTypeDef *cmd, uint32_t
 786:Drivers/STM32L4xx_HAL_Driver/Src/stm32l4xx_hal_ospi.c **** {
 851              		.loc 1 786 1
 852              		.cfi_startproc
 853              		@ args = 0, pretend = 0, frame = 32
 854              		@ frame_needed = 1, uses_anonymous_args = 0
 855 0000 80B5     		push	{r7, lr}
 856              		.cfi_def_cfa_offset 8
 857              		.cfi_offset 7, -8
 858              		.cfi_offset 14, -4
 859 0002 8AB0     		sub	sp, sp, #40
 860              		.cfi_def_cfa_offset 48
 861 0004 02AF     		add	r7, sp, #8
 862              		.cfi_def_cfa 7, 40
 863 0006 F860     		str	r0, [r7, #12]
 864 0008 B960     		str	r1, [r7, #8]
 865 000a 7A60     		str	r2, [r7, #4]
ARM GAS  C:\Users\Morroway\AppData\Local\Temp\ccxQAUQ3.s 			page 30


 787:Drivers/STM32L4xx_HAL_Driver/Src/stm32l4xx_hal_ospi.c ****   HAL_StatusTypeDef status;
 788:Drivers/STM32L4xx_HAL_Driver/Src/stm32l4xx_hal_ospi.c ****   uint32_t state;
 789:Drivers/STM32L4xx_HAL_Driver/Src/stm32l4xx_hal_ospi.c ****   uint32_t tickstart = HAL_GetTick();
 866              		.loc 1 789 24
 867 000c FFF7FEFF 		bl	HAL_GetTick
 868 0010 B861     		str	r0, [r7, #24]
 790:Drivers/STM32L4xx_HAL_Driver/Src/stm32l4xx_hal_ospi.c **** 
 791:Drivers/STM32L4xx_HAL_Driver/Src/stm32l4xx_hal_ospi.c ****   /* Check the parameters of the command structure */
 792:Drivers/STM32L4xx_HAL_Driver/Src/stm32l4xx_hal_ospi.c ****   assert_param(IS_OSPI_OPERATION_TYPE(cmd->OperationType));
 793:Drivers/STM32L4xx_HAL_Driver/Src/stm32l4xx_hal_ospi.c **** 
 794:Drivers/STM32L4xx_HAL_Driver/Src/stm32l4xx_hal_ospi.c ****   if (hospi->Init.DualQuad == HAL_OSPI_DUALQUAD_DISABLE)
 795:Drivers/STM32L4xx_HAL_Driver/Src/stm32l4xx_hal_ospi.c ****   {
 796:Drivers/STM32L4xx_HAL_Driver/Src/stm32l4xx_hal_ospi.c ****     assert_param(IS_OSPI_FLASH_ID(cmd->FlashId));
 797:Drivers/STM32L4xx_HAL_Driver/Src/stm32l4xx_hal_ospi.c ****   }
 798:Drivers/STM32L4xx_HAL_Driver/Src/stm32l4xx_hal_ospi.c **** 
 799:Drivers/STM32L4xx_HAL_Driver/Src/stm32l4xx_hal_ospi.c ****   assert_param(IS_OSPI_INSTRUCTION_MODE(cmd->InstructionMode));
 800:Drivers/STM32L4xx_HAL_Driver/Src/stm32l4xx_hal_ospi.c ****   if (cmd->InstructionMode != HAL_OSPI_INSTRUCTION_NONE)
 801:Drivers/STM32L4xx_HAL_Driver/Src/stm32l4xx_hal_ospi.c ****   {
 802:Drivers/STM32L4xx_HAL_Driver/Src/stm32l4xx_hal_ospi.c ****     assert_param(IS_OSPI_INSTRUCTION_SIZE    (cmd->InstructionSize));
 803:Drivers/STM32L4xx_HAL_Driver/Src/stm32l4xx_hal_ospi.c ****     assert_param(IS_OSPI_INSTRUCTION_DTR_MODE(cmd->InstructionDtrMode));
 804:Drivers/STM32L4xx_HAL_Driver/Src/stm32l4xx_hal_ospi.c ****   }
 805:Drivers/STM32L4xx_HAL_Driver/Src/stm32l4xx_hal_ospi.c **** 
 806:Drivers/STM32L4xx_HAL_Driver/Src/stm32l4xx_hal_ospi.c ****   assert_param(IS_OSPI_ADDRESS_MODE(cmd->AddressMode));
 807:Drivers/STM32L4xx_HAL_Driver/Src/stm32l4xx_hal_ospi.c ****   if (cmd->AddressMode != HAL_OSPI_ADDRESS_NONE)
 808:Drivers/STM32L4xx_HAL_Driver/Src/stm32l4xx_hal_ospi.c ****   {
 809:Drivers/STM32L4xx_HAL_Driver/Src/stm32l4xx_hal_ospi.c ****     assert_param(IS_OSPI_ADDRESS_SIZE    (cmd->AddressSize));
 810:Drivers/STM32L4xx_HAL_Driver/Src/stm32l4xx_hal_ospi.c ****     assert_param(IS_OSPI_ADDRESS_DTR_MODE(cmd->AddressDtrMode));
 811:Drivers/STM32L4xx_HAL_Driver/Src/stm32l4xx_hal_ospi.c ****   }
 812:Drivers/STM32L4xx_HAL_Driver/Src/stm32l4xx_hal_ospi.c **** 
 813:Drivers/STM32L4xx_HAL_Driver/Src/stm32l4xx_hal_ospi.c ****   assert_param(IS_OSPI_ALT_BYTES_MODE(cmd->AlternateBytesMode));
 814:Drivers/STM32L4xx_HAL_Driver/Src/stm32l4xx_hal_ospi.c ****   if (cmd->AlternateBytesMode != HAL_OSPI_ALTERNATE_BYTES_NONE)
 815:Drivers/STM32L4xx_HAL_Driver/Src/stm32l4xx_hal_ospi.c ****   {
 816:Drivers/STM32L4xx_HAL_Driver/Src/stm32l4xx_hal_ospi.c ****     assert_param(IS_OSPI_ALT_BYTES_SIZE    (cmd->AlternateBytesSize));
 817:Drivers/STM32L4xx_HAL_Driver/Src/stm32l4xx_hal_ospi.c ****     assert_param(IS_OSPI_ALT_BYTES_DTR_MODE(cmd->AlternateBytesDtrMode));
 818:Drivers/STM32L4xx_HAL_Driver/Src/stm32l4xx_hal_ospi.c ****   }
 819:Drivers/STM32L4xx_HAL_Driver/Src/stm32l4xx_hal_ospi.c **** 
 820:Drivers/STM32L4xx_HAL_Driver/Src/stm32l4xx_hal_ospi.c ****   assert_param(IS_OSPI_DATA_MODE(cmd->DataMode));
 821:Drivers/STM32L4xx_HAL_Driver/Src/stm32l4xx_hal_ospi.c ****   if (cmd->DataMode != HAL_OSPI_DATA_NONE)
 869              		.loc 1 821 10
 870 0012 BB68     		ldr	r3, [r7, #8]
 871 0014 9B6B     		ldr	r3, [r3, #56]
 872              		.loc 1 821 6
 873 0016 002B     		cmp	r3, #0
 822:Drivers/STM32L4xx_HAL_Driver/Src/stm32l4xx_hal_ospi.c ****   {
 823:Drivers/STM32L4xx_HAL_Driver/Src/stm32l4xx_hal_ospi.c ****     if (cmd->OperationType == HAL_OSPI_OPTYPE_COMMON_CFG)
 824:Drivers/STM32L4xx_HAL_Driver/Src/stm32l4xx_hal_ospi.c ****     {
 825:Drivers/STM32L4xx_HAL_Driver/Src/stm32l4xx_hal_ospi.c ****       assert_param(IS_OSPI_NUMBER_DATA  (cmd->NbData));
 826:Drivers/STM32L4xx_HAL_Driver/Src/stm32l4xx_hal_ospi.c ****     }
 827:Drivers/STM32L4xx_HAL_Driver/Src/stm32l4xx_hal_ospi.c ****     assert_param(IS_OSPI_DATA_DTR_MODE(cmd->DataDtrMode));
 828:Drivers/STM32L4xx_HAL_Driver/Src/stm32l4xx_hal_ospi.c ****     assert_param(IS_OSPI_DUMMY_CYCLES (cmd->DummyCycles));
 829:Drivers/STM32L4xx_HAL_Driver/Src/stm32l4xx_hal_ospi.c ****   }
 830:Drivers/STM32L4xx_HAL_Driver/Src/stm32l4xx_hal_ospi.c **** 
 831:Drivers/STM32L4xx_HAL_Driver/Src/stm32l4xx_hal_ospi.c ****   assert_param(IS_OSPI_DQS_MODE (cmd->DQSMode));
 832:Drivers/STM32L4xx_HAL_Driver/Src/stm32l4xx_hal_ospi.c ****   assert_param(IS_OSPI_SIOO_MODE(cmd->SIOOMode));
 833:Drivers/STM32L4xx_HAL_Driver/Src/stm32l4xx_hal_ospi.c **** 
 834:Drivers/STM32L4xx_HAL_Driver/Src/stm32l4xx_hal_ospi.c ****   /* Check the state of the driver */
 835:Drivers/STM32L4xx_HAL_Driver/Src/stm32l4xx_hal_ospi.c ****   state = hospi->State;
ARM GAS  C:\Users\Morroway\AppData\Local\Temp\ccxQAUQ3.s 			page 31


 874              		.loc 1 835 9
 875 0018 FB68     		ldr	r3, [r7, #12]
 876 001a DB6C     		ldr	r3, [r3, #76]
 877 001c 7B61     		str	r3, [r7, #20]
 836:Drivers/STM32L4xx_HAL_Driver/Src/stm32l4xx_hal_ospi.c ****   if (((state == HAL_OSPI_STATE_READY)         && (hospi->Init.MemoryType != HAL_OSPI_MEMTYPE_HYPER
 878              		.loc 1 836 6
 879 001e 7B69     		ldr	r3, [r7, #20]
 880 0020 022B     		cmp	r3, #2
 881 0022 04D1     		bne	.L41
 882              		.loc 1 836 63 discriminator 1
 883 0024 FB68     		ldr	r3, [r7, #12]
 884 0026 DB68     		ldr	r3, [r3, #12]
 885              		.loc 1 836 48 discriminator 1
 886 0028 B3F1806F 		cmp	r3, #67108864
 887 002c 0DD1     		bne	.L42
 888              	.L41:
 889              		.loc 1 836 106 discriminator 3
 890 002e 7B69     		ldr	r3, [r7, #20]
 891 0030 142B     		cmp	r3, #20
 892 0032 03D1     		bne	.L43
 837:Drivers/STM32L4xx_HAL_Driver/Src/stm32l4xx_hal_ospi.c ****       ((state == HAL_OSPI_STATE_READ_CMD_CFG)  && (cmd->OperationType == HAL_OSPI_OPTYPE_WRITE_CFG)
 893              		.loc 1 837 55
 894 0034 BB68     		ldr	r3, [r7, #8]
 895 0036 1B68     		ldr	r3, [r3]
 896              		.loc 1 837 48
 897 0038 022B     		cmp	r3, #2
 898 003a 06D0     		beq	.L42
 899              	.L43:
 900              		.loc 1 837 106 discriminator 1
 901 003c 7B69     		ldr	r3, [r7, #20]
 902 003e 242B     		cmp	r3, #36
 903 0040 53D1     		bne	.L44
 838:Drivers/STM32L4xx_HAL_Driver/Src/stm32l4xx_hal_ospi.c ****       ((state == HAL_OSPI_STATE_WRITE_CMD_CFG) && (cmd->OperationType == HAL_OSPI_OPTYPE_READ_CFG))
 904              		.loc 1 838 55
 905 0042 BB68     		ldr	r3, [r7, #8]
 906 0044 1B68     		ldr	r3, [r3]
 907              		.loc 1 838 48
 908 0046 012B     		cmp	r3, #1
 909 0048 4FD1     		bne	.L44
 910              	.L42:
 839:Drivers/STM32L4xx_HAL_Driver/Src/stm32l4xx_hal_ospi.c ****   {
 840:Drivers/STM32L4xx_HAL_Driver/Src/stm32l4xx_hal_ospi.c ****     /* Wait till busy flag is reset */
 841:Drivers/STM32L4xx_HAL_Driver/Src/stm32l4xx_hal_ospi.c ****     status = OSPI_WaitFlagStateUntilTimeout(hospi, HAL_OSPI_FLAG_BUSY, RESET, tickstart, Timeout);
 911              		.loc 1 841 14
 912 004a 7B68     		ldr	r3, [r7, #4]
 913 004c 0093     		str	r3, [sp]
 914 004e BB69     		ldr	r3, [r7, #24]
 915 0050 0022     		movs	r2, #0
 916 0052 2021     		movs	r1, #32
 917 0054 F868     		ldr	r0, [r7, #12]
 918 0056 FFF7FEFF 		bl	OSPI_WaitFlagStateUntilTimeout
 919 005a 0346     		mov	r3, r0
 920 005c FB77     		strb	r3, [r7, #31]
 842:Drivers/STM32L4xx_HAL_Driver/Src/stm32l4xx_hal_ospi.c **** 
 843:Drivers/STM32L4xx_HAL_Driver/Src/stm32l4xx_hal_ospi.c ****     if (status == HAL_OK)
 921              		.loc 1 843 8
 922 005e FB7F     		ldrb	r3, [r7, #31]	@ zero_extendqisi2
ARM GAS  C:\Users\Morroway\AppData\Local\Temp\ccxQAUQ3.s 			page 32


 923 0060 002B     		cmp	r3, #0
 924 0062 48D1     		bne	.L53
 844:Drivers/STM32L4xx_HAL_Driver/Src/stm32l4xx_hal_ospi.c ****     {
 845:Drivers/STM32L4xx_HAL_Driver/Src/stm32l4xx_hal_ospi.c ****       /* Initialize error code */
 846:Drivers/STM32L4xx_HAL_Driver/Src/stm32l4xx_hal_ospi.c ****       hospi->ErrorCode = HAL_OSPI_ERROR_NONE;
 925              		.loc 1 846 24
 926 0064 FB68     		ldr	r3, [r7, #12]
 927 0066 0022     		movs	r2, #0
 928 0068 1A65     		str	r2, [r3, #80]
 847:Drivers/STM32L4xx_HAL_Driver/Src/stm32l4xx_hal_ospi.c **** 
 848:Drivers/STM32L4xx_HAL_Driver/Src/stm32l4xx_hal_ospi.c ****       /* Configure the registers */
 849:Drivers/STM32L4xx_HAL_Driver/Src/stm32l4xx_hal_ospi.c ****       status = OSPI_ConfigCmd(hospi, cmd);
 929              		.loc 1 849 16
 930 006a B968     		ldr	r1, [r7, #8]
 931 006c F868     		ldr	r0, [r7, #12]
 932 006e FFF7FEFF 		bl	OSPI_ConfigCmd
 933 0072 0346     		mov	r3, r0
 934 0074 FB77     		strb	r3, [r7, #31]
 850:Drivers/STM32L4xx_HAL_Driver/Src/stm32l4xx_hal_ospi.c **** 
 851:Drivers/STM32L4xx_HAL_Driver/Src/stm32l4xx_hal_ospi.c ****       if (status == HAL_OK)
 935              		.loc 1 851 10
 936 0076 FB7F     		ldrb	r3, [r7, #31]	@ zero_extendqisi2
 937 0078 002B     		cmp	r3, #0
 938 007a 3CD1     		bne	.L53
 852:Drivers/STM32L4xx_HAL_Driver/Src/stm32l4xx_hal_ospi.c ****       {
 853:Drivers/STM32L4xx_HAL_Driver/Src/stm32l4xx_hal_ospi.c ****         if (cmd->DataMode == HAL_OSPI_DATA_NONE)
 939              		.loc 1 853 16
 940 007c BB68     		ldr	r3, [r7, #8]
 941 007e 9B6B     		ldr	r3, [r3, #56]
 942              		.loc 1 853 12
 943 0080 002B     		cmp	r3, #0
 944 0082 0ED1     		bne	.L46
 854:Drivers/STM32L4xx_HAL_Driver/Src/stm32l4xx_hal_ospi.c ****         {
 855:Drivers/STM32L4xx_HAL_Driver/Src/stm32l4xx_hal_ospi.c ****           /* When there is no data phase, the transfer start as soon as the configuration is done
 856:Drivers/STM32L4xx_HAL_Driver/Src/stm32l4xx_hal_ospi.c ****              so wait until TC flag is set to go back in idle state */
 857:Drivers/STM32L4xx_HAL_Driver/Src/stm32l4xx_hal_ospi.c ****           status = OSPI_WaitFlagStateUntilTimeout(hospi, HAL_OSPI_FLAG_TC, SET, tickstart, Timeout)
 945              		.loc 1 857 20
 946 0084 7B68     		ldr	r3, [r7, #4]
 947 0086 0093     		str	r3, [sp]
 948 0088 BB69     		ldr	r3, [r7, #24]
 949 008a 0122     		movs	r2, #1
 950 008c 0221     		movs	r1, #2
 951 008e F868     		ldr	r0, [r7, #12]
 952 0090 FFF7FEFF 		bl	OSPI_WaitFlagStateUntilTimeout
 953 0094 0346     		mov	r3, r0
 954 0096 FB77     		strb	r3, [r7, #31]
 858:Drivers/STM32L4xx_HAL_Driver/Src/stm32l4xx_hal_ospi.c **** 
 859:Drivers/STM32L4xx_HAL_Driver/Src/stm32l4xx_hal_ospi.c ****           __HAL_OSPI_CLEAR_FLAG(hospi, HAL_OSPI_FLAG_TC);
 955              		.loc 1 859 11
 956 0098 FB68     		ldr	r3, [r7, #12]
 957 009a 1B68     		ldr	r3, [r3]
 958 009c 0222     		movs	r2, #2
 959 009e 5A62     		str	r2, [r3, #36]
 843:Drivers/STM32L4xx_HAL_Driver/Src/stm32l4xx_hal_ospi.c ****     {
 960              		.loc 1 843 8
 961 00a0 29E0     		b	.L53
 962              	.L46:
ARM GAS  C:\Users\Morroway\AppData\Local\Temp\ccxQAUQ3.s 			page 33


 860:Drivers/STM32L4xx_HAL_Driver/Src/stm32l4xx_hal_ospi.c ****         }
 861:Drivers/STM32L4xx_HAL_Driver/Src/stm32l4xx_hal_ospi.c ****         else
 862:Drivers/STM32L4xx_HAL_Driver/Src/stm32l4xx_hal_ospi.c ****         {
 863:Drivers/STM32L4xx_HAL_Driver/Src/stm32l4xx_hal_ospi.c ****           /* Update the state */
 864:Drivers/STM32L4xx_HAL_Driver/Src/stm32l4xx_hal_ospi.c ****           if (cmd->OperationType == HAL_OSPI_OPTYPE_COMMON_CFG)
 963              		.loc 1 864 18
 964 00a2 BB68     		ldr	r3, [r7, #8]
 965 00a4 1B68     		ldr	r3, [r3]
 966              		.loc 1 864 14
 967 00a6 002B     		cmp	r3, #0
 968 00a8 03D1     		bne	.L47
 865:Drivers/STM32L4xx_HAL_Driver/Src/stm32l4xx_hal_ospi.c ****           {
 866:Drivers/STM32L4xx_HAL_Driver/Src/stm32l4xx_hal_ospi.c ****             hospi->State = HAL_OSPI_STATE_CMD_CFG;
 969              		.loc 1 866 26
 970 00aa FB68     		ldr	r3, [r7, #12]
 971 00ac 0422     		movs	r2, #4
 972 00ae DA64     		str	r2, [r3, #76]
 843:Drivers/STM32L4xx_HAL_Driver/Src/stm32l4xx_hal_ospi.c ****     {
 973              		.loc 1 843 8
 974 00b0 21E0     		b	.L53
 975              	.L47:
 867:Drivers/STM32L4xx_HAL_Driver/Src/stm32l4xx_hal_ospi.c ****           }
 868:Drivers/STM32L4xx_HAL_Driver/Src/stm32l4xx_hal_ospi.c ****           else if (cmd->OperationType == HAL_OSPI_OPTYPE_READ_CFG)
 976              		.loc 1 868 23
 977 00b2 BB68     		ldr	r3, [r7, #8]
 978 00b4 1B68     		ldr	r3, [r3]
 979              		.loc 1 868 19
 980 00b6 012B     		cmp	r3, #1
 981 00b8 0BD1     		bne	.L48
 869:Drivers/STM32L4xx_HAL_Driver/Src/stm32l4xx_hal_ospi.c ****           {
 870:Drivers/STM32L4xx_HAL_Driver/Src/stm32l4xx_hal_ospi.c ****             if (hospi->State == HAL_OSPI_STATE_WRITE_CMD_CFG)
 982              		.loc 1 870 22
 983 00ba FB68     		ldr	r3, [r7, #12]
 984 00bc DB6C     		ldr	r3, [r3, #76]
 985              		.loc 1 870 16
 986 00be 242B     		cmp	r3, #36
 987 00c0 03D1     		bne	.L49
 871:Drivers/STM32L4xx_HAL_Driver/Src/stm32l4xx_hal_ospi.c ****             {
 872:Drivers/STM32L4xx_HAL_Driver/Src/stm32l4xx_hal_ospi.c ****               hospi->State = HAL_OSPI_STATE_CMD_CFG;
 988              		.loc 1 872 28
 989 00c2 FB68     		ldr	r3, [r7, #12]
 990 00c4 0422     		movs	r2, #4
 991 00c6 DA64     		str	r2, [r3, #76]
 843:Drivers/STM32L4xx_HAL_Driver/Src/stm32l4xx_hal_ospi.c ****     {
 992              		.loc 1 843 8
 993 00c8 15E0     		b	.L53
 994              	.L49:
 873:Drivers/STM32L4xx_HAL_Driver/Src/stm32l4xx_hal_ospi.c ****             }
 874:Drivers/STM32L4xx_HAL_Driver/Src/stm32l4xx_hal_ospi.c ****             else
 875:Drivers/STM32L4xx_HAL_Driver/Src/stm32l4xx_hal_ospi.c ****             {
 876:Drivers/STM32L4xx_HAL_Driver/Src/stm32l4xx_hal_ospi.c ****               hospi->State = HAL_OSPI_STATE_READ_CMD_CFG;
 995              		.loc 1 876 28
 996 00ca FB68     		ldr	r3, [r7, #12]
 997 00cc 1422     		movs	r2, #20
 998 00ce DA64     		str	r2, [r3, #76]
 843:Drivers/STM32L4xx_HAL_Driver/Src/stm32l4xx_hal_ospi.c ****     {
 999              		.loc 1 843 8
ARM GAS  C:\Users\Morroway\AppData\Local\Temp\ccxQAUQ3.s 			page 34


 1000 00d0 11E0     		b	.L53
 1001              	.L48:
 877:Drivers/STM32L4xx_HAL_Driver/Src/stm32l4xx_hal_ospi.c ****             }
 878:Drivers/STM32L4xx_HAL_Driver/Src/stm32l4xx_hal_ospi.c ****           }
 879:Drivers/STM32L4xx_HAL_Driver/Src/stm32l4xx_hal_ospi.c ****           else
 880:Drivers/STM32L4xx_HAL_Driver/Src/stm32l4xx_hal_ospi.c ****           {
 881:Drivers/STM32L4xx_HAL_Driver/Src/stm32l4xx_hal_ospi.c ****             if (hospi->State == HAL_OSPI_STATE_READ_CMD_CFG)
 1002              		.loc 1 881 22
 1003 00d2 FB68     		ldr	r3, [r7, #12]
 1004 00d4 DB6C     		ldr	r3, [r3, #76]
 1005              		.loc 1 881 16
 1006 00d6 142B     		cmp	r3, #20
 1007 00d8 03D1     		bne	.L50
 882:Drivers/STM32L4xx_HAL_Driver/Src/stm32l4xx_hal_ospi.c ****             {
 883:Drivers/STM32L4xx_HAL_Driver/Src/stm32l4xx_hal_ospi.c ****               hospi->State = HAL_OSPI_STATE_CMD_CFG;
 1008              		.loc 1 883 28
 1009 00da FB68     		ldr	r3, [r7, #12]
 1010 00dc 0422     		movs	r2, #4
 1011 00de DA64     		str	r2, [r3, #76]
 843:Drivers/STM32L4xx_HAL_Driver/Src/stm32l4xx_hal_ospi.c ****     {
 1012              		.loc 1 843 8
 1013 00e0 09E0     		b	.L53
 1014              	.L50:
 884:Drivers/STM32L4xx_HAL_Driver/Src/stm32l4xx_hal_ospi.c ****             }
 885:Drivers/STM32L4xx_HAL_Driver/Src/stm32l4xx_hal_ospi.c ****             else
 886:Drivers/STM32L4xx_HAL_Driver/Src/stm32l4xx_hal_ospi.c ****             {
 887:Drivers/STM32L4xx_HAL_Driver/Src/stm32l4xx_hal_ospi.c ****               hospi->State = HAL_OSPI_STATE_WRITE_CMD_CFG;
 1015              		.loc 1 887 28
 1016 00e2 FB68     		ldr	r3, [r7, #12]
 1017 00e4 2422     		movs	r2, #36
 1018 00e6 DA64     		str	r2, [r3, #76]
 843:Drivers/STM32L4xx_HAL_Driver/Src/stm32l4xx_hal_ospi.c ****     {
 1019              		.loc 1 843 8
 1020 00e8 05E0     		b	.L53
 1021              	.L44:
 888:Drivers/STM32L4xx_HAL_Driver/Src/stm32l4xx_hal_ospi.c ****             }
 889:Drivers/STM32L4xx_HAL_Driver/Src/stm32l4xx_hal_ospi.c ****           }
 890:Drivers/STM32L4xx_HAL_Driver/Src/stm32l4xx_hal_ospi.c ****         }
 891:Drivers/STM32L4xx_HAL_Driver/Src/stm32l4xx_hal_ospi.c ****       }
 892:Drivers/STM32L4xx_HAL_Driver/Src/stm32l4xx_hal_ospi.c ****     }
 893:Drivers/STM32L4xx_HAL_Driver/Src/stm32l4xx_hal_ospi.c ****   }
 894:Drivers/STM32L4xx_HAL_Driver/Src/stm32l4xx_hal_ospi.c ****   else
 895:Drivers/STM32L4xx_HAL_Driver/Src/stm32l4xx_hal_ospi.c ****   {
 896:Drivers/STM32L4xx_HAL_Driver/Src/stm32l4xx_hal_ospi.c ****     status = HAL_ERROR;
 1022              		.loc 1 896 12
 1023 00ea 0123     		movs	r3, #1
 1024 00ec FB77     		strb	r3, [r7, #31]
 897:Drivers/STM32L4xx_HAL_Driver/Src/stm32l4xx_hal_ospi.c ****     hospi->ErrorCode = HAL_OSPI_ERROR_INVALID_SEQUENCE;
 1025              		.loc 1 897 22
 1026 00ee FB68     		ldr	r3, [r7, #12]
 1027 00f0 1022     		movs	r2, #16
 1028 00f2 1A65     		str	r2, [r3, #80]
 1029 00f4 00E0     		b	.L51
 1030              	.L53:
 843:Drivers/STM32L4xx_HAL_Driver/Src/stm32l4xx_hal_ospi.c ****     {
 1031              		.loc 1 843 8
 1032 00f6 00BF     		nop
ARM GAS  C:\Users\Morroway\AppData\Local\Temp\ccxQAUQ3.s 			page 35


 1033              	.L51:
 898:Drivers/STM32L4xx_HAL_Driver/Src/stm32l4xx_hal_ospi.c ****   }
 899:Drivers/STM32L4xx_HAL_Driver/Src/stm32l4xx_hal_ospi.c **** 
 900:Drivers/STM32L4xx_HAL_Driver/Src/stm32l4xx_hal_ospi.c ****   /* Return function status */
 901:Drivers/STM32L4xx_HAL_Driver/Src/stm32l4xx_hal_ospi.c ****   return status;
 1034              		.loc 1 901 10
 1035 00f8 FB7F     		ldrb	r3, [r7, #31]	@ zero_extendqisi2
 902:Drivers/STM32L4xx_HAL_Driver/Src/stm32l4xx_hal_ospi.c **** }
 1036              		.loc 1 902 1
 1037 00fa 1846     		mov	r0, r3
 1038 00fc 2037     		adds	r7, r7, #32
 1039              		.cfi_def_cfa_offset 8
 1040 00fe BD46     		mov	sp, r7
 1041              		.cfi_def_cfa_register 13
 1042              		@ sp needed
 1043 0100 80BD     		pop	{r7, pc}
 1044              		.cfi_endproc
 1045              	.LFE326:
 1047              		.section	.text.HAL_OSPI_Command_IT,"ax",%progbits
 1048              		.align	1
 1049              		.global	HAL_OSPI_Command_IT
 1050              		.syntax unified
 1051              		.thumb
 1052              		.thumb_func
 1054              	HAL_OSPI_Command_IT:
 1055              	.LFB327:
 903:Drivers/STM32L4xx_HAL_Driver/Src/stm32l4xx_hal_ospi.c **** 
 904:Drivers/STM32L4xx_HAL_Driver/Src/stm32l4xx_hal_ospi.c **** /**
 905:Drivers/STM32L4xx_HAL_Driver/Src/stm32l4xx_hal_ospi.c ****   * @brief  Set the command configuration in interrupt mode.
 906:Drivers/STM32L4xx_HAL_Driver/Src/stm32l4xx_hal_ospi.c ****   * @param  hospi : OSPI handle
 907:Drivers/STM32L4xx_HAL_Driver/Src/stm32l4xx_hal_ospi.c ****   * @param  cmd   : structure that contains the command configuration information
 908:Drivers/STM32L4xx_HAL_Driver/Src/stm32l4xx_hal_ospi.c ****   * @note   This function is used only in Indirect Read or Write Modes
 909:Drivers/STM32L4xx_HAL_Driver/Src/stm32l4xx_hal_ospi.c ****   * @retval HAL status
 910:Drivers/STM32L4xx_HAL_Driver/Src/stm32l4xx_hal_ospi.c ****   */
 911:Drivers/STM32L4xx_HAL_Driver/Src/stm32l4xx_hal_ospi.c **** HAL_StatusTypeDef HAL_OSPI_Command_IT(OSPI_HandleTypeDef *hospi, OSPI_RegularCmdTypeDef *cmd)
 912:Drivers/STM32L4xx_HAL_Driver/Src/stm32l4xx_hal_ospi.c **** {
 1056              		.loc 1 912 1
 1057              		.cfi_startproc
 1058              		@ args = 0, pretend = 0, frame = 16
 1059              		@ frame_needed = 1, uses_anonymous_args = 0
 1060 0000 80B5     		push	{r7, lr}
 1061              		.cfi_def_cfa_offset 8
 1062              		.cfi_offset 7, -8
 1063              		.cfi_offset 14, -4
 1064 0002 86B0     		sub	sp, sp, #24
 1065              		.cfi_def_cfa_offset 32
 1066 0004 02AF     		add	r7, sp, #8
 1067              		.cfi_def_cfa 7, 24
 1068 0006 7860     		str	r0, [r7, #4]
 1069 0008 3960     		str	r1, [r7]
 913:Drivers/STM32L4xx_HAL_Driver/Src/stm32l4xx_hal_ospi.c ****   HAL_StatusTypeDef status;
 914:Drivers/STM32L4xx_HAL_Driver/Src/stm32l4xx_hal_ospi.c ****   uint32_t tickstart = HAL_GetTick();
 1070              		.loc 1 914 24
 1071 000a FFF7FEFF 		bl	HAL_GetTick
 1072 000e B860     		str	r0, [r7, #8]
 915:Drivers/STM32L4xx_HAL_Driver/Src/stm32l4xx_hal_ospi.c **** 
 916:Drivers/STM32L4xx_HAL_Driver/Src/stm32l4xx_hal_ospi.c ****   /* Check the parameters of the command structure */
ARM GAS  C:\Users\Morroway\AppData\Local\Temp\ccxQAUQ3.s 			page 36


 917:Drivers/STM32L4xx_HAL_Driver/Src/stm32l4xx_hal_ospi.c ****   assert_param(IS_OSPI_OPERATION_TYPE(cmd->OperationType));
 918:Drivers/STM32L4xx_HAL_Driver/Src/stm32l4xx_hal_ospi.c **** 
 919:Drivers/STM32L4xx_HAL_Driver/Src/stm32l4xx_hal_ospi.c ****   if (hospi->Init.DualQuad == HAL_OSPI_DUALQUAD_DISABLE)
 920:Drivers/STM32L4xx_HAL_Driver/Src/stm32l4xx_hal_ospi.c ****   {
 921:Drivers/STM32L4xx_HAL_Driver/Src/stm32l4xx_hal_ospi.c ****     assert_param(IS_OSPI_FLASH_ID(cmd->FlashId));
 922:Drivers/STM32L4xx_HAL_Driver/Src/stm32l4xx_hal_ospi.c ****   }
 923:Drivers/STM32L4xx_HAL_Driver/Src/stm32l4xx_hal_ospi.c **** 
 924:Drivers/STM32L4xx_HAL_Driver/Src/stm32l4xx_hal_ospi.c ****   assert_param(IS_OSPI_INSTRUCTION_MODE(cmd->InstructionMode));
 925:Drivers/STM32L4xx_HAL_Driver/Src/stm32l4xx_hal_ospi.c ****   if (cmd->InstructionMode != HAL_OSPI_INSTRUCTION_NONE)
 926:Drivers/STM32L4xx_HAL_Driver/Src/stm32l4xx_hal_ospi.c ****   {
 927:Drivers/STM32L4xx_HAL_Driver/Src/stm32l4xx_hal_ospi.c ****     assert_param(IS_OSPI_INSTRUCTION_SIZE    (cmd->InstructionSize));
 928:Drivers/STM32L4xx_HAL_Driver/Src/stm32l4xx_hal_ospi.c ****     assert_param(IS_OSPI_INSTRUCTION_DTR_MODE(cmd->InstructionDtrMode));
 929:Drivers/STM32L4xx_HAL_Driver/Src/stm32l4xx_hal_ospi.c ****   }
 930:Drivers/STM32L4xx_HAL_Driver/Src/stm32l4xx_hal_ospi.c **** 
 931:Drivers/STM32L4xx_HAL_Driver/Src/stm32l4xx_hal_ospi.c ****   assert_param(IS_OSPI_ADDRESS_MODE(cmd->AddressMode));
 932:Drivers/STM32L4xx_HAL_Driver/Src/stm32l4xx_hal_ospi.c ****   if (cmd->AddressMode != HAL_OSPI_ADDRESS_NONE)
 933:Drivers/STM32L4xx_HAL_Driver/Src/stm32l4xx_hal_ospi.c ****   {
 934:Drivers/STM32L4xx_HAL_Driver/Src/stm32l4xx_hal_ospi.c ****     assert_param(IS_OSPI_ADDRESS_SIZE    (cmd->AddressSize));
 935:Drivers/STM32L4xx_HAL_Driver/Src/stm32l4xx_hal_ospi.c ****     assert_param(IS_OSPI_ADDRESS_DTR_MODE(cmd->AddressDtrMode));
 936:Drivers/STM32L4xx_HAL_Driver/Src/stm32l4xx_hal_ospi.c ****   }
 937:Drivers/STM32L4xx_HAL_Driver/Src/stm32l4xx_hal_ospi.c **** 
 938:Drivers/STM32L4xx_HAL_Driver/Src/stm32l4xx_hal_ospi.c ****   assert_param(IS_OSPI_ALT_BYTES_MODE(cmd->AlternateBytesMode));
 939:Drivers/STM32L4xx_HAL_Driver/Src/stm32l4xx_hal_ospi.c ****   if (cmd->AlternateBytesMode != HAL_OSPI_ALTERNATE_BYTES_NONE)
 940:Drivers/STM32L4xx_HAL_Driver/Src/stm32l4xx_hal_ospi.c ****   {
 941:Drivers/STM32L4xx_HAL_Driver/Src/stm32l4xx_hal_ospi.c ****     assert_param(IS_OSPI_ALT_BYTES_SIZE    (cmd->AlternateBytesSize));
 942:Drivers/STM32L4xx_HAL_Driver/Src/stm32l4xx_hal_ospi.c ****     assert_param(IS_OSPI_ALT_BYTES_DTR_MODE(cmd->AlternateBytesDtrMode));
 943:Drivers/STM32L4xx_HAL_Driver/Src/stm32l4xx_hal_ospi.c ****   }
 944:Drivers/STM32L4xx_HAL_Driver/Src/stm32l4xx_hal_ospi.c **** 
 945:Drivers/STM32L4xx_HAL_Driver/Src/stm32l4xx_hal_ospi.c ****   assert_param(IS_OSPI_DATA_MODE(cmd->DataMode));
 946:Drivers/STM32L4xx_HAL_Driver/Src/stm32l4xx_hal_ospi.c ****   if (cmd->DataMode != HAL_OSPI_DATA_NONE)
 947:Drivers/STM32L4xx_HAL_Driver/Src/stm32l4xx_hal_ospi.c ****   {
 948:Drivers/STM32L4xx_HAL_Driver/Src/stm32l4xx_hal_ospi.c ****     assert_param(IS_OSPI_NUMBER_DATA  (cmd->NbData));
 949:Drivers/STM32L4xx_HAL_Driver/Src/stm32l4xx_hal_ospi.c ****     assert_param(IS_OSPI_DATA_DTR_MODE(cmd->DataDtrMode));
 950:Drivers/STM32L4xx_HAL_Driver/Src/stm32l4xx_hal_ospi.c ****     assert_param(IS_OSPI_DUMMY_CYCLES (cmd->DummyCycles));
 951:Drivers/STM32L4xx_HAL_Driver/Src/stm32l4xx_hal_ospi.c ****   }
 952:Drivers/STM32L4xx_HAL_Driver/Src/stm32l4xx_hal_ospi.c **** 
 953:Drivers/STM32L4xx_HAL_Driver/Src/stm32l4xx_hal_ospi.c ****   assert_param(IS_OSPI_DQS_MODE (cmd->DQSMode));
 954:Drivers/STM32L4xx_HAL_Driver/Src/stm32l4xx_hal_ospi.c ****   assert_param(IS_OSPI_SIOO_MODE(cmd->SIOOMode));
 955:Drivers/STM32L4xx_HAL_Driver/Src/stm32l4xx_hal_ospi.c **** 
 956:Drivers/STM32L4xx_HAL_Driver/Src/stm32l4xx_hal_ospi.c ****   /* Check the state of the driver */
 957:Drivers/STM32L4xx_HAL_Driver/Src/stm32l4xx_hal_ospi.c ****   if ((hospi->State  == HAL_OSPI_STATE_READY) && (cmd->OperationType     == HAL_OSPI_OPTYPE_COMMON_
 1073              		.loc 1 957 13
 1074 0010 7B68     		ldr	r3, [r7, #4]
 1075 0012 DB6C     		ldr	r3, [r3, #76]
 1076              		.loc 1 957 6
 1077 0014 022B     		cmp	r3, #2
 1078 0016 36D1     		bne	.L55
 1079              		.loc 1 957 54 discriminator 1
 1080 0018 3B68     		ldr	r3, [r7]
 1081 001a 1B68     		ldr	r3, [r3]
 1082              		.loc 1 957 47 discriminator 1
 1083 001c 002B     		cmp	r3, #0
 1084 001e 32D1     		bne	.L55
 958:Drivers/STM32L4xx_HAL_Driver/Src/stm32l4xx_hal_ospi.c ****       (cmd->DataMode == HAL_OSPI_DATA_NONE)   && (hospi->Init.MemoryType != HAL_OSPI_MEMTYPE_HYPERB
 1085              		.loc 1 958 11 discriminator 2
 1086 0020 3B68     		ldr	r3, [r7]
 1087 0022 9B6B     		ldr	r3, [r3, #56]
ARM GAS  C:\Users\Morroway\AppData\Local\Temp\ccxQAUQ3.s 			page 37


 957:Drivers/STM32L4xx_HAL_Driver/Src/stm32l4xx_hal_ospi.c ****       (cmd->DataMode == HAL_OSPI_DATA_NONE)   && (hospi->Init.MemoryType != HAL_OSPI_MEMTYPE_HYPERB
 1088              		.loc 1 957 105 discriminator 2
 1089 0024 002B     		cmp	r3, #0
 1090 0026 2ED1     		bne	.L55
 1091              		.loc 1 958 62
 1092 0028 7B68     		ldr	r3, [r7, #4]
 1093 002a DB68     		ldr	r3, [r3, #12]
 1094              		.loc 1 958 47
 1095 002c B3F1806F 		cmp	r3, #67108864
 1096 0030 29D0     		beq	.L55
 959:Drivers/STM32L4xx_HAL_Driver/Src/stm32l4xx_hal_ospi.c ****   {
 960:Drivers/STM32L4xx_HAL_Driver/Src/stm32l4xx_hal_ospi.c ****     /* Wait till busy flag is reset */
 961:Drivers/STM32L4xx_HAL_Driver/Src/stm32l4xx_hal_ospi.c ****     status = OSPI_WaitFlagStateUntilTimeout(hospi, HAL_OSPI_FLAG_BUSY, RESET, tickstart, hospi->Tim
 1097              		.loc 1 961 14
 1098 0032 7B68     		ldr	r3, [r7, #4]
 1099 0034 5B6D     		ldr	r3, [r3, #84]
 1100 0036 0093     		str	r3, [sp]
 1101 0038 BB68     		ldr	r3, [r7, #8]
 1102 003a 0022     		movs	r2, #0
 1103 003c 2021     		movs	r1, #32
 1104 003e 7868     		ldr	r0, [r7, #4]
 1105 0040 FFF7FEFF 		bl	OSPI_WaitFlagStateUntilTimeout
 1106 0044 0346     		mov	r3, r0
 1107 0046 FB73     		strb	r3, [r7, #15]
 962:Drivers/STM32L4xx_HAL_Driver/Src/stm32l4xx_hal_ospi.c **** 
 963:Drivers/STM32L4xx_HAL_Driver/Src/stm32l4xx_hal_ospi.c ****     if (status == HAL_OK)
 1108              		.loc 1 963 8
 1109 0048 FB7B     		ldrb	r3, [r7, #15]	@ zero_extendqisi2
 1110 004a 002B     		cmp	r3, #0
 1111 004c 21D1     		bne	.L59
 964:Drivers/STM32L4xx_HAL_Driver/Src/stm32l4xx_hal_ospi.c ****     {
 965:Drivers/STM32L4xx_HAL_Driver/Src/stm32l4xx_hal_ospi.c ****       /* Initialize error code */
 966:Drivers/STM32L4xx_HAL_Driver/Src/stm32l4xx_hal_ospi.c ****       hospi->ErrorCode = HAL_OSPI_ERROR_NONE;
 1112              		.loc 1 966 24
 1113 004e 7B68     		ldr	r3, [r7, #4]
 1114 0050 0022     		movs	r2, #0
 1115 0052 1A65     		str	r2, [r3, #80]
 967:Drivers/STM32L4xx_HAL_Driver/Src/stm32l4xx_hal_ospi.c **** 
 968:Drivers/STM32L4xx_HAL_Driver/Src/stm32l4xx_hal_ospi.c ****       /* Clear flags related to interrupt */
 969:Drivers/STM32L4xx_HAL_Driver/Src/stm32l4xx_hal_ospi.c ****       __HAL_OSPI_CLEAR_FLAG(hospi, HAL_OSPI_FLAG_TE | HAL_OSPI_FLAG_TC);
 1116              		.loc 1 969 7
 1117 0054 7B68     		ldr	r3, [r7, #4]
 1118 0056 1B68     		ldr	r3, [r3]
 1119 0058 0322     		movs	r2, #3
 1120 005a 5A62     		str	r2, [r3, #36]
 970:Drivers/STM32L4xx_HAL_Driver/Src/stm32l4xx_hal_ospi.c **** 
 971:Drivers/STM32L4xx_HAL_Driver/Src/stm32l4xx_hal_ospi.c ****       /* Configure the registers */
 972:Drivers/STM32L4xx_HAL_Driver/Src/stm32l4xx_hal_ospi.c ****       status = OSPI_ConfigCmd(hospi, cmd);
 1121              		.loc 1 972 16
 1122 005c 3968     		ldr	r1, [r7]
 1123 005e 7868     		ldr	r0, [r7, #4]
 1124 0060 FFF7FEFF 		bl	OSPI_ConfigCmd
 1125 0064 0346     		mov	r3, r0
 1126 0066 FB73     		strb	r3, [r7, #15]
 973:Drivers/STM32L4xx_HAL_Driver/Src/stm32l4xx_hal_ospi.c **** 
 974:Drivers/STM32L4xx_HAL_Driver/Src/stm32l4xx_hal_ospi.c ****       if (status == HAL_OK)
 1127              		.loc 1 974 10
ARM GAS  C:\Users\Morroway\AppData\Local\Temp\ccxQAUQ3.s 			page 38


 1128 0068 FB7B     		ldrb	r3, [r7, #15]	@ zero_extendqisi2
 1129 006a 002B     		cmp	r3, #0
 1130 006c 11D1     		bne	.L59
 975:Drivers/STM32L4xx_HAL_Driver/Src/stm32l4xx_hal_ospi.c ****       {
 976:Drivers/STM32L4xx_HAL_Driver/Src/stm32l4xx_hal_ospi.c ****         /* Update the state */
 977:Drivers/STM32L4xx_HAL_Driver/Src/stm32l4xx_hal_ospi.c ****           hospi->State = HAL_OSPI_STATE_BUSY_CMD;
 1131              		.loc 1 977 24
 1132 006e 7B68     		ldr	r3, [r7, #4]
 1133 0070 0822     		movs	r2, #8
 1134 0072 DA64     		str	r2, [r3, #76]
 978:Drivers/STM32L4xx_HAL_Driver/Src/stm32l4xx_hal_ospi.c **** 
 979:Drivers/STM32L4xx_HAL_Driver/Src/stm32l4xx_hal_ospi.c ****         /* Enable the transfer complete and transfer error interrupts */
 980:Drivers/STM32L4xx_HAL_Driver/Src/stm32l4xx_hal_ospi.c ****         __HAL_OSPI_ENABLE_IT(hospi, HAL_OSPI_IT_TC | HAL_OSPI_IT_TE);
 1135              		.loc 1 980 9
 1136 0074 7B68     		ldr	r3, [r7, #4]
 1137 0076 1B68     		ldr	r3, [r3]
 1138 0078 1A68     		ldr	r2, [r3]
 1139 007a 7B68     		ldr	r3, [r7, #4]
 1140 007c 1B68     		ldr	r3, [r3]
 1141 007e 42F44032 		orr	r2, r2, #196608
 1142 0082 1A60     		str	r2, [r3]
 963:Drivers/STM32L4xx_HAL_Driver/Src/stm32l4xx_hal_ospi.c ****     {
 1143              		.loc 1 963 8
 1144 0084 05E0     		b	.L59
 1145              	.L55:
 981:Drivers/STM32L4xx_HAL_Driver/Src/stm32l4xx_hal_ospi.c ****       }
 982:Drivers/STM32L4xx_HAL_Driver/Src/stm32l4xx_hal_ospi.c ****     }
 983:Drivers/STM32L4xx_HAL_Driver/Src/stm32l4xx_hal_ospi.c ****   }
 984:Drivers/STM32L4xx_HAL_Driver/Src/stm32l4xx_hal_ospi.c ****   else
 985:Drivers/STM32L4xx_HAL_Driver/Src/stm32l4xx_hal_ospi.c ****   {
 986:Drivers/STM32L4xx_HAL_Driver/Src/stm32l4xx_hal_ospi.c ****     status = HAL_ERROR;
 1146              		.loc 1 986 12
 1147 0086 0123     		movs	r3, #1
 1148 0088 FB73     		strb	r3, [r7, #15]
 987:Drivers/STM32L4xx_HAL_Driver/Src/stm32l4xx_hal_ospi.c ****     hospi->ErrorCode = HAL_OSPI_ERROR_INVALID_SEQUENCE;
 1149              		.loc 1 987 22
 1150 008a 7B68     		ldr	r3, [r7, #4]
 1151 008c 1022     		movs	r2, #16
 1152 008e 1A65     		str	r2, [r3, #80]
 1153 0090 00E0     		b	.L57
 1154              	.L59:
 963:Drivers/STM32L4xx_HAL_Driver/Src/stm32l4xx_hal_ospi.c ****     {
 1155              		.loc 1 963 8
 1156 0092 00BF     		nop
 1157              	.L57:
 988:Drivers/STM32L4xx_HAL_Driver/Src/stm32l4xx_hal_ospi.c ****   }
 989:Drivers/STM32L4xx_HAL_Driver/Src/stm32l4xx_hal_ospi.c **** 
 990:Drivers/STM32L4xx_HAL_Driver/Src/stm32l4xx_hal_ospi.c ****   /* Return function status */
 991:Drivers/STM32L4xx_HAL_Driver/Src/stm32l4xx_hal_ospi.c ****   return status;
 1158              		.loc 1 991 10
 1159 0094 FB7B     		ldrb	r3, [r7, #15]	@ zero_extendqisi2
 992:Drivers/STM32L4xx_HAL_Driver/Src/stm32l4xx_hal_ospi.c **** }
 1160              		.loc 1 992 1
 1161 0096 1846     		mov	r0, r3
 1162 0098 1037     		adds	r7, r7, #16
 1163              		.cfi_def_cfa_offset 8
 1164 009a BD46     		mov	sp, r7
ARM GAS  C:\Users\Morroway\AppData\Local\Temp\ccxQAUQ3.s 			page 39


 1165              		.cfi_def_cfa_register 13
 1166              		@ sp needed
 1167 009c 80BD     		pop	{r7, pc}
 1168              		.cfi_endproc
 1169              	.LFE327:
 1171              		.section	.text.HAL_OSPI_HyperbusCfg,"ax",%progbits
 1172              		.align	1
 1173              		.global	HAL_OSPI_HyperbusCfg
 1174              		.syntax unified
 1175              		.thumb
 1176              		.thumb_func
 1178              	HAL_OSPI_HyperbusCfg:
 1179              	.LFB328:
 993:Drivers/STM32L4xx_HAL_Driver/Src/stm32l4xx_hal_ospi.c **** 
 994:Drivers/STM32L4xx_HAL_Driver/Src/stm32l4xx_hal_ospi.c **** /**
 995:Drivers/STM32L4xx_HAL_Driver/Src/stm32l4xx_hal_ospi.c ****   * @brief  Configure the Hyperbus parameters.
 996:Drivers/STM32L4xx_HAL_Driver/Src/stm32l4xx_hal_ospi.c ****   * @param  hospi   : OSPI handle
 997:Drivers/STM32L4xx_HAL_Driver/Src/stm32l4xx_hal_ospi.c ****   * @param  cfg     : Structure containing the Hyperbus configuration
 998:Drivers/STM32L4xx_HAL_Driver/Src/stm32l4xx_hal_ospi.c ****   * @param  Timeout : Timeout duration
 999:Drivers/STM32L4xx_HAL_Driver/Src/stm32l4xx_hal_ospi.c ****   * @retval HAL status
1000:Drivers/STM32L4xx_HAL_Driver/Src/stm32l4xx_hal_ospi.c ****   */
1001:Drivers/STM32L4xx_HAL_Driver/Src/stm32l4xx_hal_ospi.c **** HAL_StatusTypeDef HAL_OSPI_HyperbusCfg(OSPI_HandleTypeDef *hospi, OSPI_HyperbusCfgTypeDef *cfg, uin
1002:Drivers/STM32L4xx_HAL_Driver/Src/stm32l4xx_hal_ospi.c **** {
 1180              		.loc 1 1002 1
 1181              		.cfi_startproc
 1182              		@ args = 0, pretend = 0, frame = 32
 1183              		@ frame_needed = 1, uses_anonymous_args = 0
 1184 0000 80B5     		push	{r7, lr}
 1185              		.cfi_def_cfa_offset 8
 1186              		.cfi_offset 7, -8
 1187              		.cfi_offset 14, -4
 1188 0002 8AB0     		sub	sp, sp, #40
 1189              		.cfi_def_cfa_offset 48
 1190 0004 02AF     		add	r7, sp, #8
 1191              		.cfi_def_cfa 7, 40
 1192 0006 F860     		str	r0, [r7, #12]
 1193 0008 B960     		str	r1, [r7, #8]
 1194 000a 7A60     		str	r2, [r7, #4]
1003:Drivers/STM32L4xx_HAL_Driver/Src/stm32l4xx_hal_ospi.c ****   HAL_StatusTypeDef status;
1004:Drivers/STM32L4xx_HAL_Driver/Src/stm32l4xx_hal_ospi.c ****   uint32_t state;
1005:Drivers/STM32L4xx_HAL_Driver/Src/stm32l4xx_hal_ospi.c ****   uint32_t tickstart = HAL_GetTick();
 1195              		.loc 1 1005 24
 1196 000c FFF7FEFF 		bl	HAL_GetTick
 1197 0010 B861     		str	r0, [r7, #24]
1006:Drivers/STM32L4xx_HAL_Driver/Src/stm32l4xx_hal_ospi.c **** 
1007:Drivers/STM32L4xx_HAL_Driver/Src/stm32l4xx_hal_ospi.c ****   /* Check the parameters of the hyperbus configuration structure */
1008:Drivers/STM32L4xx_HAL_Driver/Src/stm32l4xx_hal_ospi.c ****   assert_param(IS_OSPI_RW_RECOVERY_TIME  (cfg->RWRecoveryTime));
1009:Drivers/STM32L4xx_HAL_Driver/Src/stm32l4xx_hal_ospi.c ****   assert_param(IS_OSPI_ACCESS_TIME       (cfg->AccessTime));
1010:Drivers/STM32L4xx_HAL_Driver/Src/stm32l4xx_hal_ospi.c ****   assert_param(IS_OSPI_WRITE_ZERO_LATENCY(cfg->WriteZeroLatency));
1011:Drivers/STM32L4xx_HAL_Driver/Src/stm32l4xx_hal_ospi.c ****   assert_param(IS_OSPI_LATENCY_MODE      (cfg->LatencyMode));
1012:Drivers/STM32L4xx_HAL_Driver/Src/stm32l4xx_hal_ospi.c **** 
1013:Drivers/STM32L4xx_HAL_Driver/Src/stm32l4xx_hal_ospi.c ****   /* Check the state of the driver */
1014:Drivers/STM32L4xx_HAL_Driver/Src/stm32l4xx_hal_ospi.c ****   state = hospi->State;
 1198              		.loc 1 1014 9
 1199 0012 FB68     		ldr	r3, [r7, #12]
 1200 0014 DB6C     		ldr	r3, [r3, #76]
 1201 0016 7B61     		str	r3, [r7, #20]
ARM GAS  C:\Users\Morroway\AppData\Local\Temp\ccxQAUQ3.s 			page 40


1015:Drivers/STM32L4xx_HAL_Driver/Src/stm32l4xx_hal_ospi.c ****   if ((state == HAL_OSPI_STATE_HYPERBUS_INIT) || (state == HAL_OSPI_STATE_READY))
 1202              		.loc 1 1015 6
 1203 0018 7B69     		ldr	r3, [r7, #20]
 1204 001a 012B     		cmp	r3, #1
 1205 001c 02D0     		beq	.L61
 1206              		.loc 1 1015 47 discriminator 1
 1207 001e 7B69     		ldr	r3, [r7, #20]
 1208 0020 022B     		cmp	r3, #2
 1209 0022 22D1     		bne	.L62
 1210              	.L61:
1016:Drivers/STM32L4xx_HAL_Driver/Src/stm32l4xx_hal_ospi.c ****   {
1017:Drivers/STM32L4xx_HAL_Driver/Src/stm32l4xx_hal_ospi.c ****     /* Wait till busy flag is reset */
1018:Drivers/STM32L4xx_HAL_Driver/Src/stm32l4xx_hal_ospi.c ****     status = OSPI_WaitFlagStateUntilTimeout(hospi, HAL_OSPI_FLAG_BUSY, RESET, tickstart, Timeout);
 1211              		.loc 1 1018 14
 1212 0024 7B68     		ldr	r3, [r7, #4]
 1213 0026 0093     		str	r3, [sp]
 1214 0028 BB69     		ldr	r3, [r7, #24]
 1215 002a 0022     		movs	r2, #0
 1216 002c 2021     		movs	r1, #32
 1217 002e F868     		ldr	r0, [r7, #12]
 1218 0030 FFF7FEFF 		bl	OSPI_WaitFlagStateUntilTimeout
 1219 0034 0346     		mov	r3, r0
 1220 0036 FB77     		strb	r3, [r7, #31]
1019:Drivers/STM32L4xx_HAL_Driver/Src/stm32l4xx_hal_ospi.c **** 
1020:Drivers/STM32L4xx_HAL_Driver/Src/stm32l4xx_hal_ospi.c ****     if (status == HAL_OK)
 1221              		.loc 1 1020 8
 1222 0038 FB7F     		ldrb	r3, [r7, #31]	@ zero_extendqisi2
 1223 003a 002B     		cmp	r3, #0
 1224 003c 1AD1     		bne	.L64
1021:Drivers/STM32L4xx_HAL_Driver/Src/stm32l4xx_hal_ospi.c ****     {
1022:Drivers/STM32L4xx_HAL_Driver/Src/stm32l4xx_hal_ospi.c ****       /* Configure Hyperbus configuration Latency register */
1023:Drivers/STM32L4xx_HAL_Driver/Src/stm32l4xx_hal_ospi.c ****       WRITE_REG(hospi->Instance->HLCR, ((cfg->RWRecoveryTime << OCTOSPI_HLCR_TRWR_Pos) |
 1225              		.loc 1 1023 7
 1226 003e BB68     		ldr	r3, [r7, #8]
 1227 0040 1B68     		ldr	r3, [r3]
 1228 0042 1A04     		lsls	r2, r3, #16
 1229 0044 BB68     		ldr	r3, [r7, #8]
 1230 0046 5B68     		ldr	r3, [r3, #4]
 1231 0048 1B02     		lsls	r3, r3, #8
 1232 004a 1A43     		orrs	r2, r2, r3
 1233 004c BB68     		ldr	r3, [r7, #8]
 1234 004e 9B68     		ldr	r3, [r3, #8]
 1235 0050 42EA0301 		orr	r1, r2, r3
 1236 0054 BB68     		ldr	r3, [r7, #8]
 1237 0056 DA68     		ldr	r2, [r3, #12]
 1238 0058 FB68     		ldr	r3, [r7, #12]
 1239 005a 1B68     		ldr	r3, [r3]
 1240 005c 0A43     		orrs	r2, r2, r1
 1241 005e C3F80022 		str	r2, [r3, #512]
1024:Drivers/STM32L4xx_HAL_Driver/Src/stm32l4xx_hal_ospi.c ****                                         (cfg->AccessTime << OCTOSPI_HLCR_TACC_Pos)     |
1025:Drivers/STM32L4xx_HAL_Driver/Src/stm32l4xx_hal_ospi.c ****                                         cfg->WriteZeroLatency | cfg->LatencyMode));
1026:Drivers/STM32L4xx_HAL_Driver/Src/stm32l4xx_hal_ospi.c **** 
1027:Drivers/STM32L4xx_HAL_Driver/Src/stm32l4xx_hal_ospi.c ****       /* Update the state */
1028:Drivers/STM32L4xx_HAL_Driver/Src/stm32l4xx_hal_ospi.c ****       hospi->State = HAL_OSPI_STATE_READY;
 1242              		.loc 1 1028 20
 1243 0062 FB68     		ldr	r3, [r7, #12]
 1244 0064 0222     		movs	r2, #2
ARM GAS  C:\Users\Morroway\AppData\Local\Temp\ccxQAUQ3.s 			page 41


 1245 0066 DA64     		str	r2, [r3, #76]
1020:Drivers/STM32L4xx_HAL_Driver/Src/stm32l4xx_hal_ospi.c ****     {
 1246              		.loc 1 1020 8
 1247 0068 04E0     		b	.L64
 1248              	.L62:
1029:Drivers/STM32L4xx_HAL_Driver/Src/stm32l4xx_hal_ospi.c ****     }
1030:Drivers/STM32L4xx_HAL_Driver/Src/stm32l4xx_hal_ospi.c ****   }
1031:Drivers/STM32L4xx_HAL_Driver/Src/stm32l4xx_hal_ospi.c ****   else
1032:Drivers/STM32L4xx_HAL_Driver/Src/stm32l4xx_hal_ospi.c ****   {
1033:Drivers/STM32L4xx_HAL_Driver/Src/stm32l4xx_hal_ospi.c ****     status = HAL_ERROR;
 1249              		.loc 1 1033 12
 1250 006a 0123     		movs	r3, #1
 1251 006c FB77     		strb	r3, [r7, #31]
1034:Drivers/STM32L4xx_HAL_Driver/Src/stm32l4xx_hal_ospi.c ****     hospi->ErrorCode = HAL_OSPI_ERROR_INVALID_SEQUENCE;
 1252              		.loc 1 1034 22
 1253 006e FB68     		ldr	r3, [r7, #12]
 1254 0070 1022     		movs	r2, #16
 1255 0072 1A65     		str	r2, [r3, #80]
 1256              	.L64:
1035:Drivers/STM32L4xx_HAL_Driver/Src/stm32l4xx_hal_ospi.c ****   }
1036:Drivers/STM32L4xx_HAL_Driver/Src/stm32l4xx_hal_ospi.c **** 
1037:Drivers/STM32L4xx_HAL_Driver/Src/stm32l4xx_hal_ospi.c ****   /* Return function status */
1038:Drivers/STM32L4xx_HAL_Driver/Src/stm32l4xx_hal_ospi.c ****   return status;
 1257              		.loc 1 1038 10
 1258 0074 FB7F     		ldrb	r3, [r7, #31]	@ zero_extendqisi2
1039:Drivers/STM32L4xx_HAL_Driver/Src/stm32l4xx_hal_ospi.c **** }
 1259              		.loc 1 1039 1
 1260 0076 1846     		mov	r0, r3
 1261 0078 2037     		adds	r7, r7, #32
 1262              		.cfi_def_cfa_offset 8
 1263 007a BD46     		mov	sp, r7
 1264              		.cfi_def_cfa_register 13
 1265              		@ sp needed
 1266 007c 80BD     		pop	{r7, pc}
 1267              		.cfi_endproc
 1268              	.LFE328:
 1270              		.section	.text.HAL_OSPI_HyperbusCmd,"ax",%progbits
 1271              		.align	1
 1272              		.global	HAL_OSPI_HyperbusCmd
 1273              		.syntax unified
 1274              		.thumb
 1275              		.thumb_func
 1277              	HAL_OSPI_HyperbusCmd:
 1278              	.LFB329:
1040:Drivers/STM32L4xx_HAL_Driver/Src/stm32l4xx_hal_ospi.c **** 
1041:Drivers/STM32L4xx_HAL_Driver/Src/stm32l4xx_hal_ospi.c **** /**
1042:Drivers/STM32L4xx_HAL_Driver/Src/stm32l4xx_hal_ospi.c ****   * @brief  Set the Hyperbus command configuration.
1043:Drivers/STM32L4xx_HAL_Driver/Src/stm32l4xx_hal_ospi.c ****   * @param  hospi   : OSPI handle
1044:Drivers/STM32L4xx_HAL_Driver/Src/stm32l4xx_hal_ospi.c ****   * @param  cmd     : Structure containing the Hyperbus command
1045:Drivers/STM32L4xx_HAL_Driver/Src/stm32l4xx_hal_ospi.c ****   * @param  Timeout : Timeout duration
1046:Drivers/STM32L4xx_HAL_Driver/Src/stm32l4xx_hal_ospi.c ****   * @retval HAL status
1047:Drivers/STM32L4xx_HAL_Driver/Src/stm32l4xx_hal_ospi.c ****   */
1048:Drivers/STM32L4xx_HAL_Driver/Src/stm32l4xx_hal_ospi.c **** HAL_StatusTypeDef HAL_OSPI_HyperbusCmd(OSPI_HandleTypeDef *hospi, OSPI_HyperbusCmdTypeDef *cmd, uin
1049:Drivers/STM32L4xx_HAL_Driver/Src/stm32l4xx_hal_ospi.c **** {
 1279              		.loc 1 1049 1
 1280              		.cfi_startproc
 1281              		@ args = 0, pretend = 0, frame = 24
ARM GAS  C:\Users\Morroway\AppData\Local\Temp\ccxQAUQ3.s 			page 42


 1282              		@ frame_needed = 1, uses_anonymous_args = 0
 1283 0000 80B5     		push	{r7, lr}
 1284              		.cfi_def_cfa_offset 8
 1285              		.cfi_offset 7, -8
 1286              		.cfi_offset 14, -4
 1287 0002 88B0     		sub	sp, sp, #32
 1288              		.cfi_def_cfa_offset 40
 1289 0004 02AF     		add	r7, sp, #8
 1290              		.cfi_def_cfa 7, 32
 1291 0006 F860     		str	r0, [r7, #12]
 1292 0008 B960     		str	r1, [r7, #8]
 1293 000a 7A60     		str	r2, [r7, #4]
1050:Drivers/STM32L4xx_HAL_Driver/Src/stm32l4xx_hal_ospi.c ****   HAL_StatusTypeDef status;
1051:Drivers/STM32L4xx_HAL_Driver/Src/stm32l4xx_hal_ospi.c ****   uint32_t tickstart = HAL_GetTick();
 1294              		.loc 1 1051 24
 1295 000c FFF7FEFF 		bl	HAL_GetTick
 1296 0010 3861     		str	r0, [r7, #16]
1052:Drivers/STM32L4xx_HAL_Driver/Src/stm32l4xx_hal_ospi.c **** 
1053:Drivers/STM32L4xx_HAL_Driver/Src/stm32l4xx_hal_ospi.c ****   /* Check the parameters of the hyperbus command structure */
1054:Drivers/STM32L4xx_HAL_Driver/Src/stm32l4xx_hal_ospi.c ****   assert_param(IS_OSPI_ADDRESS_SPACE(cmd->AddressSpace));
1055:Drivers/STM32L4xx_HAL_Driver/Src/stm32l4xx_hal_ospi.c ****   assert_param(IS_OSPI_ADDRESS_SIZE (cmd->AddressSize));
1056:Drivers/STM32L4xx_HAL_Driver/Src/stm32l4xx_hal_ospi.c ****   assert_param(IS_OSPI_NUMBER_DATA  (cmd->NbData));
1057:Drivers/STM32L4xx_HAL_Driver/Src/stm32l4xx_hal_ospi.c ****   assert_param(IS_OSPI_DQS_MODE     (cmd->DQSMode));
1058:Drivers/STM32L4xx_HAL_Driver/Src/stm32l4xx_hal_ospi.c **** 
1059:Drivers/STM32L4xx_HAL_Driver/Src/stm32l4xx_hal_ospi.c ****   /* Check the state of the driver */
1060:Drivers/STM32L4xx_HAL_Driver/Src/stm32l4xx_hal_ospi.c ****   if ((hospi->State == HAL_OSPI_STATE_READY) && (hospi->Init.MemoryType == HAL_OSPI_MEMTYPE_HYPERBU
 1297              		.loc 1 1060 13
 1298 0012 FB68     		ldr	r3, [r7, #12]
 1299 0014 DB6C     		ldr	r3, [r3, #76]
 1300              		.loc 1 1060 6
 1301 0016 022B     		cmp	r3, #2
 1302 0018 49D1     		bne	.L67
 1303              		.loc 1 1060 61 discriminator 1
 1304 001a FB68     		ldr	r3, [r7, #12]
 1305 001c DB68     		ldr	r3, [r3, #12]
 1306              		.loc 1 1060 46 discriminator 1
 1307 001e B3F1806F 		cmp	r3, #67108864
 1308 0022 44D1     		bne	.L67
1061:Drivers/STM32L4xx_HAL_Driver/Src/stm32l4xx_hal_ospi.c ****   {
1062:Drivers/STM32L4xx_HAL_Driver/Src/stm32l4xx_hal_ospi.c ****     /* Wait till busy flag is reset */
1063:Drivers/STM32L4xx_HAL_Driver/Src/stm32l4xx_hal_ospi.c ****     status = OSPI_WaitFlagStateUntilTimeout(hospi, HAL_OSPI_FLAG_BUSY, RESET, tickstart, Timeout);
 1309              		.loc 1 1063 14
 1310 0024 7B68     		ldr	r3, [r7, #4]
 1311 0026 0093     		str	r3, [sp]
 1312 0028 3B69     		ldr	r3, [r7, #16]
 1313 002a 0022     		movs	r2, #0
 1314 002c 2021     		movs	r1, #32
 1315 002e F868     		ldr	r0, [r7, #12]
 1316 0030 FFF7FEFF 		bl	OSPI_WaitFlagStateUntilTimeout
 1317 0034 0346     		mov	r3, r0
 1318 0036 FB75     		strb	r3, [r7, #23]
1064:Drivers/STM32L4xx_HAL_Driver/Src/stm32l4xx_hal_ospi.c **** 
1065:Drivers/STM32L4xx_HAL_Driver/Src/stm32l4xx_hal_ospi.c ****     if (status == HAL_OK)
 1319              		.loc 1 1065 8
 1320 0038 FB7D     		ldrb	r3, [r7, #23]	@ zero_extendqisi2
 1321 003a 002B     		cmp	r3, #0
 1322 003c 3CD1     		bne	.L69
ARM GAS  C:\Users\Morroway\AppData\Local\Temp\ccxQAUQ3.s 			page 43


1066:Drivers/STM32L4xx_HAL_Driver/Src/stm32l4xx_hal_ospi.c ****     {
1067:Drivers/STM32L4xx_HAL_Driver/Src/stm32l4xx_hal_ospi.c ****       /* Re-initialize the value of the functional mode */
1068:Drivers/STM32L4xx_HAL_Driver/Src/stm32l4xx_hal_ospi.c ****       MODIFY_REG(hospi->Instance->CR, OCTOSPI_CR_FMODE, 0U);
 1323              		.loc 1 1068 7
 1324 003e FB68     		ldr	r3, [r7, #12]
 1325 0040 1B68     		ldr	r3, [r3]
 1326 0042 1A68     		ldr	r2, [r3]
 1327 0044 FB68     		ldr	r3, [r7, #12]
 1328 0046 1B68     		ldr	r3, [r3]
 1329 0048 22F04052 		bic	r2, r2, #805306368
 1330 004c 1A60     		str	r2, [r3]
1069:Drivers/STM32L4xx_HAL_Driver/Src/stm32l4xx_hal_ospi.c **** 
1070:Drivers/STM32L4xx_HAL_Driver/Src/stm32l4xx_hal_ospi.c ****       /* Configure the address space in the DCR1 register */
1071:Drivers/STM32L4xx_HAL_Driver/Src/stm32l4xx_hal_ospi.c ****       MODIFY_REG(hospi->Instance->DCR1, OCTOSPI_DCR1_MTYP_0, cmd->AddressSpace);
 1331              		.loc 1 1071 7
 1332 004e FB68     		ldr	r3, [r7, #12]
 1333 0050 1B68     		ldr	r3, [r3]
 1334 0052 9B68     		ldr	r3, [r3, #8]
 1335 0054 23F08071 		bic	r1, r3, #16777216
 1336 0058 BB68     		ldr	r3, [r7, #8]
 1337 005a 1A68     		ldr	r2, [r3]
 1338 005c FB68     		ldr	r3, [r7, #12]
 1339 005e 1B68     		ldr	r3, [r3]
 1340 0060 0A43     		orrs	r2, r2, r1
 1341 0062 9A60     		str	r2, [r3, #8]
1072:Drivers/STM32L4xx_HAL_Driver/Src/stm32l4xx_hal_ospi.c **** 
1073:Drivers/STM32L4xx_HAL_Driver/Src/stm32l4xx_hal_ospi.c ****       /* Configure the CCR and WCCR registers with the address size and the following configuration
1074:Drivers/STM32L4xx_HAL_Driver/Src/stm32l4xx_hal_ospi.c ****          - DQS signal enabled (used as RWDS)
1075:Drivers/STM32L4xx_HAL_Driver/Src/stm32l4xx_hal_ospi.c ****          - DTR mode enabled on address and data
1076:Drivers/STM32L4xx_HAL_Driver/Src/stm32l4xx_hal_ospi.c ****          - address and data on 8 lines */
1077:Drivers/STM32L4xx_HAL_Driver/Src/stm32l4xx_hal_ospi.c ****       WRITE_REG(hospi->Instance->CCR, (cmd->DQSMode | OCTOSPI_CCR_DDTR | OCTOSPI_CCR_DMODE_2 |
 1342              		.loc 1 1077 7
 1343 0064 BB68     		ldr	r3, [r7, #8]
 1344 0066 1A69     		ldr	r2, [r3, #16]
 1345 0068 BB68     		ldr	r3, [r7, #8]
 1346 006a 9B68     		ldr	r3, [r3, #8]
 1347 006c 1A43     		orrs	r2, r2, r3
 1348 006e FB68     		ldr	r3, [r7, #12]
 1349 0070 1B68     		ldr	r3, [r3]
 1350 0072 42F00C22 		orr	r2, r2, #201329664
 1351 0076 C3F80021 		str	r2, [r3, #256]
1078:Drivers/STM32L4xx_HAL_Driver/Src/stm32l4xx_hal_ospi.c ****                                        cmd->AddressSize | OCTOSPI_CCR_ADDTR | OCTOSPI_CCR_ADMODE_2)
1079:Drivers/STM32L4xx_HAL_Driver/Src/stm32l4xx_hal_ospi.c ****       WRITE_REG(hospi->Instance->WCCR, (cmd->DQSMode | OCTOSPI_WCCR_DDTR | OCTOSPI_WCCR_DMODE_2 |
 1352              		.loc 1 1079 7
 1353 007a BB68     		ldr	r3, [r7, #8]
 1354 007c 1A69     		ldr	r2, [r3, #16]
 1355 007e BB68     		ldr	r3, [r7, #8]
 1356 0080 9B68     		ldr	r3, [r3, #8]
 1357 0082 1A43     		orrs	r2, r2, r3
 1358 0084 FB68     		ldr	r3, [r7, #12]
 1359 0086 1B68     		ldr	r3, [r3]
 1360 0088 42F00C22 		orr	r2, r2, #201329664
 1361 008c C3F88021 		str	r2, [r3, #384]
1080:Drivers/STM32L4xx_HAL_Driver/Src/stm32l4xx_hal_ospi.c ****                                         cmd->AddressSize | OCTOSPI_WCCR_ADDTR | OCTOSPI_WCCR_ADMODE
1081:Drivers/STM32L4xx_HAL_Driver/Src/stm32l4xx_hal_ospi.c **** 
1082:Drivers/STM32L4xx_HAL_Driver/Src/stm32l4xx_hal_ospi.c ****       /* Configure the DLR register with the number of data */
1083:Drivers/STM32L4xx_HAL_Driver/Src/stm32l4xx_hal_ospi.c ****       WRITE_REG(hospi->Instance->DLR, (cmd->NbData - 1U));
ARM GAS  C:\Users\Morroway\AppData\Local\Temp\ccxQAUQ3.s 			page 44


 1362              		.loc 1 1083 7
 1363 0090 BB68     		ldr	r3, [r7, #8]
 1364 0092 DA68     		ldr	r2, [r3, #12]
 1365 0094 FB68     		ldr	r3, [r7, #12]
 1366 0096 1B68     		ldr	r3, [r3]
 1367 0098 013A     		subs	r2, r2, #1
 1368 009a 1A64     		str	r2, [r3, #64]
1084:Drivers/STM32L4xx_HAL_Driver/Src/stm32l4xx_hal_ospi.c **** 
1085:Drivers/STM32L4xx_HAL_Driver/Src/stm32l4xx_hal_ospi.c ****       /* Configure the AR register with the address value */
1086:Drivers/STM32L4xx_HAL_Driver/Src/stm32l4xx_hal_ospi.c ****       WRITE_REG(hospi->Instance->AR, cmd->Address);
 1369              		.loc 1 1086 7
 1370 009c FB68     		ldr	r3, [r7, #12]
 1371 009e 1B68     		ldr	r3, [r3]
 1372 00a0 BA68     		ldr	r2, [r7, #8]
 1373 00a2 5268     		ldr	r2, [r2, #4]
 1374 00a4 9A64     		str	r2, [r3, #72]
1087:Drivers/STM32L4xx_HAL_Driver/Src/stm32l4xx_hal_ospi.c **** 
1088:Drivers/STM32L4xx_HAL_Driver/Src/stm32l4xx_hal_ospi.c ****       /* Update the state */
1089:Drivers/STM32L4xx_HAL_Driver/Src/stm32l4xx_hal_ospi.c ****       hospi->State = HAL_OSPI_STATE_CMD_CFG;
 1375              		.loc 1 1089 20
 1376 00a6 FB68     		ldr	r3, [r7, #12]
 1377 00a8 0422     		movs	r2, #4
 1378 00aa DA64     		str	r2, [r3, #76]
1065:Drivers/STM32L4xx_HAL_Driver/Src/stm32l4xx_hal_ospi.c ****     {
 1379              		.loc 1 1065 8
 1380 00ac 04E0     		b	.L69
 1381              	.L67:
1090:Drivers/STM32L4xx_HAL_Driver/Src/stm32l4xx_hal_ospi.c ****     }
1091:Drivers/STM32L4xx_HAL_Driver/Src/stm32l4xx_hal_ospi.c ****   }
1092:Drivers/STM32L4xx_HAL_Driver/Src/stm32l4xx_hal_ospi.c ****   else
1093:Drivers/STM32L4xx_HAL_Driver/Src/stm32l4xx_hal_ospi.c ****   {
1094:Drivers/STM32L4xx_HAL_Driver/Src/stm32l4xx_hal_ospi.c ****     status = HAL_ERROR;
 1382              		.loc 1 1094 12
 1383 00ae 0123     		movs	r3, #1
 1384 00b0 FB75     		strb	r3, [r7, #23]
1095:Drivers/STM32L4xx_HAL_Driver/Src/stm32l4xx_hal_ospi.c ****     hospi->ErrorCode = HAL_OSPI_ERROR_INVALID_SEQUENCE;
 1385              		.loc 1 1095 22
 1386 00b2 FB68     		ldr	r3, [r7, #12]
 1387 00b4 1022     		movs	r2, #16
 1388 00b6 1A65     		str	r2, [r3, #80]
 1389              	.L69:
1096:Drivers/STM32L4xx_HAL_Driver/Src/stm32l4xx_hal_ospi.c ****   }
1097:Drivers/STM32L4xx_HAL_Driver/Src/stm32l4xx_hal_ospi.c **** 
1098:Drivers/STM32L4xx_HAL_Driver/Src/stm32l4xx_hal_ospi.c ****   /* Return function status */
1099:Drivers/STM32L4xx_HAL_Driver/Src/stm32l4xx_hal_ospi.c ****   return status;
 1390              		.loc 1 1099 10
 1391 00b8 FB7D     		ldrb	r3, [r7, #23]	@ zero_extendqisi2
1100:Drivers/STM32L4xx_HAL_Driver/Src/stm32l4xx_hal_ospi.c **** }
 1392              		.loc 1 1100 1
 1393 00ba 1846     		mov	r0, r3
 1394 00bc 1837     		adds	r7, r7, #24
 1395              		.cfi_def_cfa_offset 8
 1396 00be BD46     		mov	sp, r7
 1397              		.cfi_def_cfa_register 13
 1398              		@ sp needed
 1399 00c0 80BD     		pop	{r7, pc}
 1400              		.cfi_endproc
ARM GAS  C:\Users\Morroway\AppData\Local\Temp\ccxQAUQ3.s 			page 45


 1401              	.LFE329:
 1403              		.section	.text.HAL_OSPI_Transmit,"ax",%progbits
 1404              		.align	1
 1405              		.global	HAL_OSPI_Transmit
 1406              		.syntax unified
 1407              		.thumb
 1408              		.thumb_func
 1410              	HAL_OSPI_Transmit:
 1411              	.LFB330:
1101:Drivers/STM32L4xx_HAL_Driver/Src/stm32l4xx_hal_ospi.c **** 
1102:Drivers/STM32L4xx_HAL_Driver/Src/stm32l4xx_hal_ospi.c **** /**
1103:Drivers/STM32L4xx_HAL_Driver/Src/stm32l4xx_hal_ospi.c ****   * @brief  Transmit an amount of data in blocking mode.
1104:Drivers/STM32L4xx_HAL_Driver/Src/stm32l4xx_hal_ospi.c ****   * @param  hospi   : OSPI handle
1105:Drivers/STM32L4xx_HAL_Driver/Src/stm32l4xx_hal_ospi.c ****   * @param  pData   : pointer to data buffer
1106:Drivers/STM32L4xx_HAL_Driver/Src/stm32l4xx_hal_ospi.c ****   * @param  Timeout : Timeout duration
1107:Drivers/STM32L4xx_HAL_Driver/Src/stm32l4xx_hal_ospi.c ****   * @note   This function is used only in Indirect Write Mode
1108:Drivers/STM32L4xx_HAL_Driver/Src/stm32l4xx_hal_ospi.c ****   * @retval HAL status
1109:Drivers/STM32L4xx_HAL_Driver/Src/stm32l4xx_hal_ospi.c ****   */
1110:Drivers/STM32L4xx_HAL_Driver/Src/stm32l4xx_hal_ospi.c **** HAL_StatusTypeDef HAL_OSPI_Transmit(OSPI_HandleTypeDef *hospi, uint8_t *pData, uint32_t Timeout)
1111:Drivers/STM32L4xx_HAL_Driver/Src/stm32l4xx_hal_ospi.c **** {
 1412              		.loc 1 1111 1
 1413              		.cfi_startproc
 1414              		@ args = 0, pretend = 0, frame = 32
 1415              		@ frame_needed = 1, uses_anonymous_args = 0
 1416 0000 80B5     		push	{r7, lr}
 1417              		.cfi_def_cfa_offset 8
 1418              		.cfi_offset 7, -8
 1419              		.cfi_offset 14, -4
 1420 0002 8AB0     		sub	sp, sp, #40
 1421              		.cfi_def_cfa_offset 48
 1422 0004 02AF     		add	r7, sp, #8
 1423              		.cfi_def_cfa 7, 40
 1424 0006 F860     		str	r0, [r7, #12]
 1425 0008 B960     		str	r1, [r7, #8]
 1426 000a 7A60     		str	r2, [r7, #4]
1112:Drivers/STM32L4xx_HAL_Driver/Src/stm32l4xx_hal_ospi.c ****   HAL_StatusTypeDef status;
1113:Drivers/STM32L4xx_HAL_Driver/Src/stm32l4xx_hal_ospi.c ****   uint32_t tickstart = HAL_GetTick();
 1427              		.loc 1 1113 24
 1428 000c FFF7FEFF 		bl	HAL_GetTick
 1429 0010 B861     		str	r0, [r7, #24]
1114:Drivers/STM32L4xx_HAL_Driver/Src/stm32l4xx_hal_ospi.c ****   __IO uint32_t *data_reg = &hospi->Instance->DR;
 1430              		.loc 1 1114 35
 1431 0012 FB68     		ldr	r3, [r7, #12]
 1432 0014 1B68     		ldr	r3, [r3]
 1433              		.loc 1 1114 18
 1434 0016 5033     		adds	r3, r3, #80
 1435 0018 7B61     		str	r3, [r7, #20]
1115:Drivers/STM32L4xx_HAL_Driver/Src/stm32l4xx_hal_ospi.c **** 
1116:Drivers/STM32L4xx_HAL_Driver/Src/stm32l4xx_hal_ospi.c ****   /* Check the data pointer allocation */
1117:Drivers/STM32L4xx_HAL_Driver/Src/stm32l4xx_hal_ospi.c ****   if (pData == NULL)
 1436              		.loc 1 1117 6
 1437 001a BB68     		ldr	r3, [r7, #8]
 1438 001c 002B     		cmp	r3, #0
 1439 001e 05D1     		bne	.L72
1118:Drivers/STM32L4xx_HAL_Driver/Src/stm32l4xx_hal_ospi.c ****   {
1119:Drivers/STM32L4xx_HAL_Driver/Src/stm32l4xx_hal_ospi.c ****     status = HAL_ERROR;
 1440              		.loc 1 1119 12
ARM GAS  C:\Users\Morroway\AppData\Local\Temp\ccxQAUQ3.s 			page 46


 1441 0020 0123     		movs	r3, #1
 1442 0022 FB77     		strb	r3, [r7, #31]
1120:Drivers/STM32L4xx_HAL_Driver/Src/stm32l4xx_hal_ospi.c ****     hospi->ErrorCode = HAL_OSPI_ERROR_INVALID_PARAM;
 1443              		.loc 1 1120 22
 1444 0024 FB68     		ldr	r3, [r7, #12]
 1445 0026 0822     		movs	r2, #8
 1446 0028 1A65     		str	r2, [r3, #80]
 1447 002a 57E0     		b	.L73
 1448              	.L72:
1121:Drivers/STM32L4xx_HAL_Driver/Src/stm32l4xx_hal_ospi.c ****   }
1122:Drivers/STM32L4xx_HAL_Driver/Src/stm32l4xx_hal_ospi.c ****   else
1123:Drivers/STM32L4xx_HAL_Driver/Src/stm32l4xx_hal_ospi.c ****   {
1124:Drivers/STM32L4xx_HAL_Driver/Src/stm32l4xx_hal_ospi.c ****     /* Check the state */
1125:Drivers/STM32L4xx_HAL_Driver/Src/stm32l4xx_hal_ospi.c ****     if (hospi->State == HAL_OSPI_STATE_CMD_CFG)
 1449              		.loc 1 1125 14
 1450 002c FB68     		ldr	r3, [r7, #12]
 1451 002e DB6C     		ldr	r3, [r3, #76]
 1452              		.loc 1 1125 8
 1453 0030 042B     		cmp	r3, #4
 1454 0032 4ED1     		bne	.L74
1126:Drivers/STM32L4xx_HAL_Driver/Src/stm32l4xx_hal_ospi.c ****     {
1127:Drivers/STM32L4xx_HAL_Driver/Src/stm32l4xx_hal_ospi.c ****       /* Configure counters and size */
1128:Drivers/STM32L4xx_HAL_Driver/Src/stm32l4xx_hal_ospi.c ****       hospi->XferCount = READ_REG(hospi->Instance->DLR) + 1U;
 1455              		.loc 1 1128 26
 1456 0034 FB68     		ldr	r3, [r7, #12]
 1457 0036 1B68     		ldr	r3, [r3]
 1458 0038 1B6C     		ldr	r3, [r3, #64]
 1459              		.loc 1 1128 57
 1460 003a 5A1C     		adds	r2, r3, #1
 1461              		.loc 1 1128 24
 1462 003c FB68     		ldr	r3, [r7, #12]
 1463 003e 5A64     		str	r2, [r3, #68]
1129:Drivers/STM32L4xx_HAL_Driver/Src/stm32l4xx_hal_ospi.c ****       hospi->XferSize  = hospi->XferCount;
 1464              		.loc 1 1129 31
 1465 0040 FB68     		ldr	r3, [r7, #12]
 1466 0042 5A6C     		ldr	r2, [r3, #68]
 1467              		.loc 1 1129 24
 1468 0044 FB68     		ldr	r3, [r7, #12]
 1469 0046 1A64     		str	r2, [r3, #64]
1130:Drivers/STM32L4xx_HAL_Driver/Src/stm32l4xx_hal_ospi.c ****       hospi->pBuffPtr  = pData;
 1470              		.loc 1 1130 24
 1471 0048 FB68     		ldr	r3, [r7, #12]
 1472 004a BA68     		ldr	r2, [r7, #8]
 1473 004c DA63     		str	r2, [r3, #60]
1131:Drivers/STM32L4xx_HAL_Driver/Src/stm32l4xx_hal_ospi.c **** 
1132:Drivers/STM32L4xx_HAL_Driver/Src/stm32l4xx_hal_ospi.c ****       /* Configure CR register with functional mode as indirect write */
1133:Drivers/STM32L4xx_HAL_Driver/Src/stm32l4xx_hal_ospi.c ****       MODIFY_REG(hospi->Instance->CR, OCTOSPI_CR_FMODE, OSPI_FUNCTIONAL_MODE_INDIRECT_WRITE);
 1474              		.loc 1 1133 7
 1475 004e FB68     		ldr	r3, [r7, #12]
 1476 0050 1B68     		ldr	r3, [r3]
 1477 0052 1A68     		ldr	r2, [r3]
 1478 0054 FB68     		ldr	r3, [r7, #12]
 1479 0056 1B68     		ldr	r3, [r3]
 1480 0058 22F04052 		bic	r2, r2, #805306368
 1481 005c 1A60     		str	r2, [r3]
 1482              	.L77:
1134:Drivers/STM32L4xx_HAL_Driver/Src/stm32l4xx_hal_ospi.c **** 
ARM GAS  C:\Users\Morroway\AppData\Local\Temp\ccxQAUQ3.s 			page 47


1135:Drivers/STM32L4xx_HAL_Driver/Src/stm32l4xx_hal_ospi.c ****       do
1136:Drivers/STM32L4xx_HAL_Driver/Src/stm32l4xx_hal_ospi.c ****       {
1137:Drivers/STM32L4xx_HAL_Driver/Src/stm32l4xx_hal_ospi.c ****         /* Wait till fifo threshold flag is set to send data */
1138:Drivers/STM32L4xx_HAL_Driver/Src/stm32l4xx_hal_ospi.c ****         status = OSPI_WaitFlagStateUntilTimeout(hospi, HAL_OSPI_FLAG_FT, SET, tickstart, Timeout);
 1483              		.loc 1 1138 18
 1484 005e 7B68     		ldr	r3, [r7, #4]
 1485 0060 0093     		str	r3, [sp]
 1486 0062 BB69     		ldr	r3, [r7, #24]
 1487 0064 0122     		movs	r2, #1
 1488 0066 0421     		movs	r1, #4
 1489 0068 F868     		ldr	r0, [r7, #12]
 1490 006a FFF7FEFF 		bl	OSPI_WaitFlagStateUntilTimeout
 1491 006e 0346     		mov	r3, r0
 1492 0070 FB77     		strb	r3, [r7, #31]
1139:Drivers/STM32L4xx_HAL_Driver/Src/stm32l4xx_hal_ospi.c **** 
1140:Drivers/STM32L4xx_HAL_Driver/Src/stm32l4xx_hal_ospi.c ****         if (status != HAL_OK)
 1493              		.loc 1 1140 12
 1494 0072 FB7F     		ldrb	r3, [r7, #31]	@ zero_extendqisi2
 1495 0074 002B     		cmp	r3, #0
 1496 0076 13D1     		bne	.L79
1141:Drivers/STM32L4xx_HAL_Driver/Src/stm32l4xx_hal_ospi.c ****         {
1142:Drivers/STM32L4xx_HAL_Driver/Src/stm32l4xx_hal_ospi.c ****           break;
1143:Drivers/STM32L4xx_HAL_Driver/Src/stm32l4xx_hal_ospi.c ****         }
1144:Drivers/STM32L4xx_HAL_Driver/Src/stm32l4xx_hal_ospi.c **** 
1145:Drivers/STM32L4xx_HAL_Driver/Src/stm32l4xx_hal_ospi.c ****         *((__IO uint8_t *)data_reg) = *hospi->pBuffPtr;
 1497              		.loc 1 1145 45
 1498 0078 FB68     		ldr	r3, [r7, #12]
 1499 007a DB6B     		ldr	r3, [r3, #60]
 1500              		.loc 1 1145 39
 1501 007c 1A78     		ldrb	r2, [r3]	@ zero_extendqisi2
 1502              		.loc 1 1145 37
 1503 007e 7B69     		ldr	r3, [r7, #20]
 1504 0080 1A70     		strb	r2, [r3]
1146:Drivers/STM32L4xx_HAL_Driver/Src/stm32l4xx_hal_ospi.c ****         hospi->pBuffPtr++;
 1505              		.loc 1 1146 14
 1506 0082 FB68     		ldr	r3, [r7, #12]
 1507 0084 DB6B     		ldr	r3, [r3, #60]
 1508              		.loc 1 1146 24
 1509 0086 5A1C     		adds	r2, r3, #1
 1510 0088 FB68     		ldr	r3, [r7, #12]
 1511 008a DA63     		str	r2, [r3, #60]
1147:Drivers/STM32L4xx_HAL_Driver/Src/stm32l4xx_hal_ospi.c ****         hospi->XferCount--;
 1512              		.loc 1 1147 14
 1513 008c FB68     		ldr	r3, [r7, #12]
 1514 008e 5B6C     		ldr	r3, [r3, #68]
 1515              		.loc 1 1147 25
 1516 0090 5A1E     		subs	r2, r3, #1
 1517 0092 FB68     		ldr	r3, [r7, #12]
 1518 0094 5A64     		str	r2, [r3, #68]
1148:Drivers/STM32L4xx_HAL_Driver/Src/stm32l4xx_hal_ospi.c ****       } while (hospi->XferCount > 0U);
 1519              		.loc 1 1148 21
 1520 0096 FB68     		ldr	r3, [r7, #12]
 1521 0098 5B6C     		ldr	r3, [r3, #68]
 1522              		.loc 1 1148 33
 1523 009a 002B     		cmp	r3, #0
 1524 009c DFD1     		bne	.L77
 1525 009e 00E0     		b	.L76
ARM GAS  C:\Users\Morroway\AppData\Local\Temp\ccxQAUQ3.s 			page 48


 1526              	.L79:
1142:Drivers/STM32L4xx_HAL_Driver/Src/stm32l4xx_hal_ospi.c ****         }
 1527              		.loc 1 1142 11
 1528 00a0 00BF     		nop
 1529              	.L76:
1149:Drivers/STM32L4xx_HAL_Driver/Src/stm32l4xx_hal_ospi.c **** 
1150:Drivers/STM32L4xx_HAL_Driver/Src/stm32l4xx_hal_ospi.c ****       if (status == HAL_OK)
 1530              		.loc 1 1150 10
 1531 00a2 FB7F     		ldrb	r3, [r7, #31]	@ zero_extendqisi2
 1532 00a4 002B     		cmp	r3, #0
 1533 00a6 19D1     		bne	.L73
1151:Drivers/STM32L4xx_HAL_Driver/Src/stm32l4xx_hal_ospi.c ****       {
1152:Drivers/STM32L4xx_HAL_Driver/Src/stm32l4xx_hal_ospi.c ****         /* Wait till transfer complete flag is set to go back in idle state */
1153:Drivers/STM32L4xx_HAL_Driver/Src/stm32l4xx_hal_ospi.c ****         status = OSPI_WaitFlagStateUntilTimeout(hospi, HAL_OSPI_FLAG_TC, SET, tickstart, Timeout);
 1534              		.loc 1 1153 18
 1535 00a8 7B68     		ldr	r3, [r7, #4]
 1536 00aa 0093     		str	r3, [sp]
 1537 00ac BB69     		ldr	r3, [r7, #24]
 1538 00ae 0122     		movs	r2, #1
 1539 00b0 0221     		movs	r1, #2
 1540 00b2 F868     		ldr	r0, [r7, #12]
 1541 00b4 FFF7FEFF 		bl	OSPI_WaitFlagStateUntilTimeout
 1542 00b8 0346     		mov	r3, r0
 1543 00ba FB77     		strb	r3, [r7, #31]
1154:Drivers/STM32L4xx_HAL_Driver/Src/stm32l4xx_hal_ospi.c **** 
1155:Drivers/STM32L4xx_HAL_Driver/Src/stm32l4xx_hal_ospi.c ****         if (status == HAL_OK)
 1544              		.loc 1 1155 12
 1545 00bc FB7F     		ldrb	r3, [r7, #31]	@ zero_extendqisi2
 1546 00be 002B     		cmp	r3, #0
 1547 00c0 0CD1     		bne	.L73
1156:Drivers/STM32L4xx_HAL_Driver/Src/stm32l4xx_hal_ospi.c ****         {
1157:Drivers/STM32L4xx_HAL_Driver/Src/stm32l4xx_hal_ospi.c ****           /* Clear transfer complete flag */
1158:Drivers/STM32L4xx_HAL_Driver/Src/stm32l4xx_hal_ospi.c ****           __HAL_OSPI_CLEAR_FLAG(hospi, HAL_OSPI_FLAG_TC);
 1548              		.loc 1 1158 11
 1549 00c2 FB68     		ldr	r3, [r7, #12]
 1550 00c4 1B68     		ldr	r3, [r3]
 1551 00c6 0222     		movs	r2, #2
 1552 00c8 5A62     		str	r2, [r3, #36]
1159:Drivers/STM32L4xx_HAL_Driver/Src/stm32l4xx_hal_ospi.c **** 
1160:Drivers/STM32L4xx_HAL_Driver/Src/stm32l4xx_hal_ospi.c ****           /* Update state */
1161:Drivers/STM32L4xx_HAL_Driver/Src/stm32l4xx_hal_ospi.c ****           hospi->State = HAL_OSPI_STATE_READY;
 1553              		.loc 1 1161 24
 1554 00ca FB68     		ldr	r3, [r7, #12]
 1555 00cc 0222     		movs	r2, #2
 1556 00ce DA64     		str	r2, [r3, #76]
 1557 00d0 04E0     		b	.L73
 1558              	.L74:
1162:Drivers/STM32L4xx_HAL_Driver/Src/stm32l4xx_hal_ospi.c ****         }
1163:Drivers/STM32L4xx_HAL_Driver/Src/stm32l4xx_hal_ospi.c ****       }
1164:Drivers/STM32L4xx_HAL_Driver/Src/stm32l4xx_hal_ospi.c ****     }
1165:Drivers/STM32L4xx_HAL_Driver/Src/stm32l4xx_hal_ospi.c ****     else
1166:Drivers/STM32L4xx_HAL_Driver/Src/stm32l4xx_hal_ospi.c ****     {
1167:Drivers/STM32L4xx_HAL_Driver/Src/stm32l4xx_hal_ospi.c ****       status = HAL_ERROR;
 1559              		.loc 1 1167 14
 1560 00d2 0123     		movs	r3, #1
 1561 00d4 FB77     		strb	r3, [r7, #31]
1168:Drivers/STM32L4xx_HAL_Driver/Src/stm32l4xx_hal_ospi.c ****       hospi->ErrorCode = HAL_OSPI_ERROR_INVALID_SEQUENCE;
ARM GAS  C:\Users\Morroway\AppData\Local\Temp\ccxQAUQ3.s 			page 49


 1562              		.loc 1 1168 24
 1563 00d6 FB68     		ldr	r3, [r7, #12]
 1564 00d8 1022     		movs	r2, #16
 1565 00da 1A65     		str	r2, [r3, #80]
 1566              	.L73:
1169:Drivers/STM32L4xx_HAL_Driver/Src/stm32l4xx_hal_ospi.c ****     }
1170:Drivers/STM32L4xx_HAL_Driver/Src/stm32l4xx_hal_ospi.c ****   }
1171:Drivers/STM32L4xx_HAL_Driver/Src/stm32l4xx_hal_ospi.c **** 
1172:Drivers/STM32L4xx_HAL_Driver/Src/stm32l4xx_hal_ospi.c ****   /* Return function status */
1173:Drivers/STM32L4xx_HAL_Driver/Src/stm32l4xx_hal_ospi.c ****   return status;
 1567              		.loc 1 1173 10
 1568 00dc FB7F     		ldrb	r3, [r7, #31]	@ zero_extendqisi2
1174:Drivers/STM32L4xx_HAL_Driver/Src/stm32l4xx_hal_ospi.c **** }
 1569              		.loc 1 1174 1
 1570 00de 1846     		mov	r0, r3
 1571 00e0 2037     		adds	r7, r7, #32
 1572              		.cfi_def_cfa_offset 8
 1573 00e2 BD46     		mov	sp, r7
 1574              		.cfi_def_cfa_register 13
 1575              		@ sp needed
 1576 00e4 80BD     		pop	{r7, pc}
 1577              		.cfi_endproc
 1578              	.LFE330:
 1580              		.section	.text.HAL_OSPI_Receive,"ax",%progbits
 1581              		.align	1
 1582              		.global	HAL_OSPI_Receive
 1583              		.syntax unified
 1584              		.thumb
 1585              		.thumb_func
 1587              	HAL_OSPI_Receive:
 1588              	.LFB331:
1175:Drivers/STM32L4xx_HAL_Driver/Src/stm32l4xx_hal_ospi.c **** 
1176:Drivers/STM32L4xx_HAL_Driver/Src/stm32l4xx_hal_ospi.c **** /**
1177:Drivers/STM32L4xx_HAL_Driver/Src/stm32l4xx_hal_ospi.c ****   * @brief  Receive an amount of data in blocking mode.
1178:Drivers/STM32L4xx_HAL_Driver/Src/stm32l4xx_hal_ospi.c ****   * @param  hospi   : OSPI handle
1179:Drivers/STM32L4xx_HAL_Driver/Src/stm32l4xx_hal_ospi.c ****   * @param  pData   : pointer to data buffer
1180:Drivers/STM32L4xx_HAL_Driver/Src/stm32l4xx_hal_ospi.c ****   * @param  Timeout : Timeout duration
1181:Drivers/STM32L4xx_HAL_Driver/Src/stm32l4xx_hal_ospi.c ****   * @note   This function is used only in Indirect Read Mode
1182:Drivers/STM32L4xx_HAL_Driver/Src/stm32l4xx_hal_ospi.c ****   * @retval HAL status
1183:Drivers/STM32L4xx_HAL_Driver/Src/stm32l4xx_hal_ospi.c ****   */
1184:Drivers/STM32L4xx_HAL_Driver/Src/stm32l4xx_hal_ospi.c **** HAL_StatusTypeDef HAL_OSPI_Receive(OSPI_HandleTypeDef *hospi, uint8_t *pData, uint32_t Timeout)
1185:Drivers/STM32L4xx_HAL_Driver/Src/stm32l4xx_hal_ospi.c **** {
 1589              		.loc 1 1185 1
 1590              		.cfi_startproc
 1591              		@ args = 0, pretend = 0, frame = 40
 1592              		@ frame_needed = 1, uses_anonymous_args = 0
 1593 0000 80B5     		push	{r7, lr}
 1594              		.cfi_def_cfa_offset 8
 1595              		.cfi_offset 7, -8
 1596              		.cfi_offset 14, -4
 1597 0002 8CB0     		sub	sp, sp, #48
 1598              		.cfi_def_cfa_offset 56
 1599 0004 02AF     		add	r7, sp, #8
 1600              		.cfi_def_cfa 7, 48
 1601 0006 F860     		str	r0, [r7, #12]
 1602 0008 B960     		str	r1, [r7, #8]
 1603 000a 7A60     		str	r2, [r7, #4]
ARM GAS  C:\Users\Morroway\AppData\Local\Temp\ccxQAUQ3.s 			page 50


1186:Drivers/STM32L4xx_HAL_Driver/Src/stm32l4xx_hal_ospi.c ****   HAL_StatusTypeDef status;
1187:Drivers/STM32L4xx_HAL_Driver/Src/stm32l4xx_hal_ospi.c ****   uint32_t tickstart = HAL_GetTick();
 1604              		.loc 1 1187 24
 1605 000c FFF7FEFF 		bl	HAL_GetTick
 1606 0010 3862     		str	r0, [r7, #32]
1188:Drivers/STM32L4xx_HAL_Driver/Src/stm32l4xx_hal_ospi.c ****   __IO uint32_t *data_reg = &hospi->Instance->DR;
 1607              		.loc 1 1188 35
 1608 0012 FB68     		ldr	r3, [r7, #12]
 1609 0014 1B68     		ldr	r3, [r3]
 1610              		.loc 1 1188 18
 1611 0016 5033     		adds	r3, r3, #80
 1612 0018 FB61     		str	r3, [r7, #28]
1189:Drivers/STM32L4xx_HAL_Driver/Src/stm32l4xx_hal_ospi.c ****   uint32_t addr_reg = hospi->Instance->AR;
 1613              		.loc 1 1189 28
 1614 001a FB68     		ldr	r3, [r7, #12]
 1615 001c 1B68     		ldr	r3, [r3]
 1616              		.loc 1 1189 12
 1617 001e 9B6C     		ldr	r3, [r3, #72]
 1618 0020 BB61     		str	r3, [r7, #24]
1190:Drivers/STM32L4xx_HAL_Driver/Src/stm32l4xx_hal_ospi.c ****   uint32_t ir_reg = hospi->Instance->IR;
 1619              		.loc 1 1190 26
 1620 0022 FB68     		ldr	r3, [r7, #12]
 1621 0024 1B68     		ldr	r3, [r3]
 1622              		.loc 1 1190 12
 1623 0026 D3F81031 		ldr	r3, [r3, #272]
 1624 002a 7B61     		str	r3, [r7, #20]
1191:Drivers/STM32L4xx_HAL_Driver/Src/stm32l4xx_hal_ospi.c **** 
1192:Drivers/STM32L4xx_HAL_Driver/Src/stm32l4xx_hal_ospi.c ****   /* Check the data pointer allocation */
1193:Drivers/STM32L4xx_HAL_Driver/Src/stm32l4xx_hal_ospi.c ****   if (pData == NULL)
 1625              		.loc 1 1193 6
 1626 002c BB68     		ldr	r3, [r7, #8]
 1627 002e 002B     		cmp	r3, #0
 1628 0030 06D1     		bne	.L81
1194:Drivers/STM32L4xx_HAL_Driver/Src/stm32l4xx_hal_ospi.c ****   {
1195:Drivers/STM32L4xx_HAL_Driver/Src/stm32l4xx_hal_ospi.c ****     status = HAL_ERROR;
 1629              		.loc 1 1195 12
 1630 0032 0123     		movs	r3, #1
 1631 0034 87F82730 		strb	r3, [r7, #39]
1196:Drivers/STM32L4xx_HAL_Driver/Src/stm32l4xx_hal_ospi.c ****     hospi->ErrorCode = HAL_OSPI_ERROR_INVALID_PARAM;
 1632              		.loc 1 1196 22
 1633 0038 FB68     		ldr	r3, [r7, #12]
 1634 003a 0822     		movs	r2, #8
 1635 003c 1A65     		str	r2, [r3, #80]
 1636 003e 7CE0     		b	.L82
 1637              	.L81:
1197:Drivers/STM32L4xx_HAL_Driver/Src/stm32l4xx_hal_ospi.c ****   }
1198:Drivers/STM32L4xx_HAL_Driver/Src/stm32l4xx_hal_ospi.c ****   else
1199:Drivers/STM32L4xx_HAL_Driver/Src/stm32l4xx_hal_ospi.c ****   {
1200:Drivers/STM32L4xx_HAL_Driver/Src/stm32l4xx_hal_ospi.c ****     /* Check the state */
1201:Drivers/STM32L4xx_HAL_Driver/Src/stm32l4xx_hal_ospi.c ****     if (hospi->State == HAL_OSPI_STATE_CMD_CFG)
 1638              		.loc 1 1201 14
 1639 0040 FB68     		ldr	r3, [r7, #12]
 1640 0042 DB6C     		ldr	r3, [r3, #76]
 1641              		.loc 1 1201 8
 1642 0044 042B     		cmp	r3, #4
 1643 0046 72D1     		bne	.L83
1202:Drivers/STM32L4xx_HAL_Driver/Src/stm32l4xx_hal_ospi.c ****     {
ARM GAS  C:\Users\Morroway\AppData\Local\Temp\ccxQAUQ3.s 			page 51


1203:Drivers/STM32L4xx_HAL_Driver/Src/stm32l4xx_hal_ospi.c ****       /* Configure counters and size */
1204:Drivers/STM32L4xx_HAL_Driver/Src/stm32l4xx_hal_ospi.c ****       hospi->XferCount = READ_REG(hospi->Instance->DLR) + 1U;
 1644              		.loc 1 1204 26
 1645 0048 FB68     		ldr	r3, [r7, #12]
 1646 004a 1B68     		ldr	r3, [r3]
 1647 004c 1B6C     		ldr	r3, [r3, #64]
 1648              		.loc 1 1204 57
 1649 004e 5A1C     		adds	r2, r3, #1
 1650              		.loc 1 1204 24
 1651 0050 FB68     		ldr	r3, [r7, #12]
 1652 0052 5A64     		str	r2, [r3, #68]
1205:Drivers/STM32L4xx_HAL_Driver/Src/stm32l4xx_hal_ospi.c ****       hospi->XferSize  = hospi->XferCount;
 1653              		.loc 1 1205 31
 1654 0054 FB68     		ldr	r3, [r7, #12]
 1655 0056 5A6C     		ldr	r2, [r3, #68]
 1656              		.loc 1 1205 24
 1657 0058 FB68     		ldr	r3, [r7, #12]
 1658 005a 1A64     		str	r2, [r3, #64]
1206:Drivers/STM32L4xx_HAL_Driver/Src/stm32l4xx_hal_ospi.c ****       hospi->pBuffPtr  = pData;
 1659              		.loc 1 1206 24
 1660 005c FB68     		ldr	r3, [r7, #12]
 1661 005e BA68     		ldr	r2, [r7, #8]
 1662 0060 DA63     		str	r2, [r3, #60]
1207:Drivers/STM32L4xx_HAL_Driver/Src/stm32l4xx_hal_ospi.c **** 
1208:Drivers/STM32L4xx_HAL_Driver/Src/stm32l4xx_hal_ospi.c ****       /* Configure CR register with functional mode as indirect read */
1209:Drivers/STM32L4xx_HAL_Driver/Src/stm32l4xx_hal_ospi.c ****       MODIFY_REG(hospi->Instance->CR, OCTOSPI_CR_FMODE, OSPI_FUNCTIONAL_MODE_INDIRECT_READ);
 1663              		.loc 1 1209 7
 1664 0062 FB68     		ldr	r3, [r7, #12]
 1665 0064 1B68     		ldr	r3, [r3]
 1666 0066 1B68     		ldr	r3, [r3]
 1667 0068 23F04052 		bic	r2, r3, #805306368
 1668 006c FB68     		ldr	r3, [r7, #12]
 1669 006e 1B68     		ldr	r3, [r3]
 1670 0070 42F08052 		orr	r2, r2, #268435456
 1671 0074 1A60     		str	r2, [r3]
1210:Drivers/STM32L4xx_HAL_Driver/Src/stm32l4xx_hal_ospi.c **** 
1211:Drivers/STM32L4xx_HAL_Driver/Src/stm32l4xx_hal_ospi.c ****       /* Trig the transfer by re-writing address or instruction register */
1212:Drivers/STM32L4xx_HAL_Driver/Src/stm32l4xx_hal_ospi.c ****       if (hospi->Init.MemoryType == HAL_OSPI_MEMTYPE_HYPERBUS)
 1672              		.loc 1 1212 22
 1673 0076 FB68     		ldr	r3, [r7, #12]
 1674 0078 DB68     		ldr	r3, [r3, #12]
 1675              		.loc 1 1212 10
 1676 007a B3F1806F 		cmp	r3, #67108864
 1677 007e 04D1     		bne	.L84
1213:Drivers/STM32L4xx_HAL_Driver/Src/stm32l4xx_hal_ospi.c ****       {
1214:Drivers/STM32L4xx_HAL_Driver/Src/stm32l4xx_hal_ospi.c ****         WRITE_REG(hospi->Instance->AR, addr_reg);
 1678              		.loc 1 1214 9
 1679 0080 FB68     		ldr	r3, [r7, #12]
 1680 0082 1B68     		ldr	r3, [r3]
 1681 0084 BA69     		ldr	r2, [r7, #24]
 1682 0086 9A64     		str	r2, [r3, #72]
 1683 0088 11E0     		b	.L89
 1684              	.L84:
1215:Drivers/STM32L4xx_HAL_Driver/Src/stm32l4xx_hal_ospi.c ****       }
1216:Drivers/STM32L4xx_HAL_Driver/Src/stm32l4xx_hal_ospi.c ****       else
1217:Drivers/STM32L4xx_HAL_Driver/Src/stm32l4xx_hal_ospi.c ****       {
1218:Drivers/STM32L4xx_HAL_Driver/Src/stm32l4xx_hal_ospi.c ****         if (READ_BIT(hospi->Instance->CCR, OCTOSPI_CCR_ADMODE) != HAL_OSPI_ADDRESS_NONE)
ARM GAS  C:\Users\Morroway\AppData\Local\Temp\ccxQAUQ3.s 			page 52


 1685              		.loc 1 1218 13
 1686 008a FB68     		ldr	r3, [r7, #12]
 1687 008c 1B68     		ldr	r3, [r3]
 1688 008e D3F80031 		ldr	r3, [r3, #256]
 1689 0092 03F4E063 		and	r3, r3, #1792
 1690              		.loc 1 1218 12
 1691 0096 002B     		cmp	r3, #0
 1692 0098 04D0     		beq	.L86
1219:Drivers/STM32L4xx_HAL_Driver/Src/stm32l4xx_hal_ospi.c ****         {
1220:Drivers/STM32L4xx_HAL_Driver/Src/stm32l4xx_hal_ospi.c ****           WRITE_REG(hospi->Instance->AR, addr_reg);
 1693              		.loc 1 1220 11
 1694 009a FB68     		ldr	r3, [r7, #12]
 1695 009c 1B68     		ldr	r3, [r3]
 1696 009e BA69     		ldr	r2, [r7, #24]
 1697 00a0 9A64     		str	r2, [r3, #72]
 1698 00a2 04E0     		b	.L89
 1699              	.L86:
1221:Drivers/STM32L4xx_HAL_Driver/Src/stm32l4xx_hal_ospi.c ****         }
1222:Drivers/STM32L4xx_HAL_Driver/Src/stm32l4xx_hal_ospi.c ****         else
1223:Drivers/STM32L4xx_HAL_Driver/Src/stm32l4xx_hal_ospi.c ****         {
1224:Drivers/STM32L4xx_HAL_Driver/Src/stm32l4xx_hal_ospi.c ****           WRITE_REG(hospi->Instance->IR, ir_reg);
 1700              		.loc 1 1224 11
 1701 00a4 FB68     		ldr	r3, [r7, #12]
 1702 00a6 1B68     		ldr	r3, [r3]
 1703 00a8 7A69     		ldr	r2, [r7, #20]
 1704 00aa C3F81021 		str	r2, [r3, #272]
 1705              	.L89:
1225:Drivers/STM32L4xx_HAL_Driver/Src/stm32l4xx_hal_ospi.c ****         }
1226:Drivers/STM32L4xx_HAL_Driver/Src/stm32l4xx_hal_ospi.c ****       }
1227:Drivers/STM32L4xx_HAL_Driver/Src/stm32l4xx_hal_ospi.c **** 
1228:Drivers/STM32L4xx_HAL_Driver/Src/stm32l4xx_hal_ospi.c ****       do
1229:Drivers/STM32L4xx_HAL_Driver/Src/stm32l4xx_hal_ospi.c ****       {
1230:Drivers/STM32L4xx_HAL_Driver/Src/stm32l4xx_hal_ospi.c ****         /* Wait till fifo threshold or transfer complete flags are set to read received data */
1231:Drivers/STM32L4xx_HAL_Driver/Src/stm32l4xx_hal_ospi.c ****         status = OSPI_WaitFlagStateUntilTimeout(hospi, (HAL_OSPI_FLAG_FT | HAL_OSPI_FLAG_TC), SET, 
 1706              		.loc 1 1231 18
 1707 00ae 7B68     		ldr	r3, [r7, #4]
 1708 00b0 0093     		str	r3, [sp]
 1709 00b2 3B6A     		ldr	r3, [r7, #32]
 1710 00b4 0122     		movs	r2, #1
 1711 00b6 0621     		movs	r1, #6
 1712 00b8 F868     		ldr	r0, [r7, #12]
 1713 00ba FFF7FEFF 		bl	OSPI_WaitFlagStateUntilTimeout
 1714 00be 0346     		mov	r3, r0
 1715 00c0 87F82730 		strb	r3, [r7, #39]
1232:Drivers/STM32L4xx_HAL_Driver/Src/stm32l4xx_hal_ospi.c **** 
1233:Drivers/STM32L4xx_HAL_Driver/Src/stm32l4xx_hal_ospi.c ****         if (status != HAL_OK)
 1716              		.loc 1 1233 12
 1717 00c4 97F82730 		ldrb	r3, [r7, #39]	@ zero_extendqisi2
 1718 00c8 002B     		cmp	r3, #0
 1719 00ca 14D1     		bne	.L91
1234:Drivers/STM32L4xx_HAL_Driver/Src/stm32l4xx_hal_ospi.c ****         {
1235:Drivers/STM32L4xx_HAL_Driver/Src/stm32l4xx_hal_ospi.c ****           break;
1236:Drivers/STM32L4xx_HAL_Driver/Src/stm32l4xx_hal_ospi.c ****         }
1237:Drivers/STM32L4xx_HAL_Driver/Src/stm32l4xx_hal_ospi.c **** 
1238:Drivers/STM32L4xx_HAL_Driver/Src/stm32l4xx_hal_ospi.c ****         *hospi->pBuffPtr = *((__IO uint8_t *)data_reg);
 1720              		.loc 1 1238 15
 1721 00cc FB68     		ldr	r3, [r7, #12]
ARM GAS  C:\Users\Morroway\AppData\Local\Temp\ccxQAUQ3.s 			page 53


 1722 00ce DB6B     		ldr	r3, [r3, #60]
 1723              		.loc 1 1238 28
 1724 00d0 FA69     		ldr	r2, [r7, #28]
 1725 00d2 1278     		ldrb	r2, [r2]
 1726 00d4 D2B2     		uxtb	r2, r2
 1727              		.loc 1 1238 26
 1728 00d6 1A70     		strb	r2, [r3]
1239:Drivers/STM32L4xx_HAL_Driver/Src/stm32l4xx_hal_ospi.c ****         hospi->pBuffPtr++;
 1729              		.loc 1 1239 14
 1730 00d8 FB68     		ldr	r3, [r7, #12]
 1731 00da DB6B     		ldr	r3, [r3, #60]
 1732              		.loc 1 1239 24
 1733 00dc 5A1C     		adds	r2, r3, #1
 1734 00de FB68     		ldr	r3, [r7, #12]
 1735 00e0 DA63     		str	r2, [r3, #60]
1240:Drivers/STM32L4xx_HAL_Driver/Src/stm32l4xx_hal_ospi.c ****         hospi->XferCount--;
 1736              		.loc 1 1240 14
 1737 00e2 FB68     		ldr	r3, [r7, #12]
 1738 00e4 5B6C     		ldr	r3, [r3, #68]
 1739              		.loc 1 1240 25
 1740 00e6 5A1E     		subs	r2, r3, #1
 1741 00e8 FB68     		ldr	r3, [r7, #12]
 1742 00ea 5A64     		str	r2, [r3, #68]
1241:Drivers/STM32L4xx_HAL_Driver/Src/stm32l4xx_hal_ospi.c ****       } while(hospi->XferCount > 0U);
 1743              		.loc 1 1241 20
 1744 00ec FB68     		ldr	r3, [r7, #12]
 1745 00ee 5B6C     		ldr	r3, [r3, #68]
 1746              		.loc 1 1241 32
 1747 00f0 002B     		cmp	r3, #0
 1748 00f2 DCD1     		bne	.L89
 1749 00f4 00E0     		b	.L88
 1750              	.L91:
1235:Drivers/STM32L4xx_HAL_Driver/Src/stm32l4xx_hal_ospi.c ****         }
 1751              		.loc 1 1235 11
 1752 00f6 00BF     		nop
 1753              	.L88:
1242:Drivers/STM32L4xx_HAL_Driver/Src/stm32l4xx_hal_ospi.c **** 
1243:Drivers/STM32L4xx_HAL_Driver/Src/stm32l4xx_hal_ospi.c ****       if (status == HAL_OK)
 1754              		.loc 1 1243 10
 1755 00f8 97F82730 		ldrb	r3, [r7, #39]	@ zero_extendqisi2
 1756 00fc 002B     		cmp	r3, #0
 1757 00fe 1CD1     		bne	.L82
1244:Drivers/STM32L4xx_HAL_Driver/Src/stm32l4xx_hal_ospi.c ****       {
1245:Drivers/STM32L4xx_HAL_Driver/Src/stm32l4xx_hal_ospi.c ****         /* Wait till transfer complete flag is set to go back in idle state */
1246:Drivers/STM32L4xx_HAL_Driver/Src/stm32l4xx_hal_ospi.c ****         status = OSPI_WaitFlagStateUntilTimeout(hospi, HAL_OSPI_FLAG_TC, SET, tickstart, Timeout);
 1758              		.loc 1 1246 18
 1759 0100 7B68     		ldr	r3, [r7, #4]
 1760 0102 0093     		str	r3, [sp]
 1761 0104 3B6A     		ldr	r3, [r7, #32]
 1762 0106 0122     		movs	r2, #1
 1763 0108 0221     		movs	r1, #2
 1764 010a F868     		ldr	r0, [r7, #12]
 1765 010c FFF7FEFF 		bl	OSPI_WaitFlagStateUntilTimeout
 1766 0110 0346     		mov	r3, r0
 1767 0112 87F82730 		strb	r3, [r7, #39]
1247:Drivers/STM32L4xx_HAL_Driver/Src/stm32l4xx_hal_ospi.c **** 
1248:Drivers/STM32L4xx_HAL_Driver/Src/stm32l4xx_hal_ospi.c ****         if (status == HAL_OK)
ARM GAS  C:\Users\Morroway\AppData\Local\Temp\ccxQAUQ3.s 			page 54


 1768              		.loc 1 1248 12
 1769 0116 97F82730 		ldrb	r3, [r7, #39]	@ zero_extendqisi2
 1770 011a 002B     		cmp	r3, #0
 1771 011c 0DD1     		bne	.L82
1249:Drivers/STM32L4xx_HAL_Driver/Src/stm32l4xx_hal_ospi.c ****         {
1250:Drivers/STM32L4xx_HAL_Driver/Src/stm32l4xx_hal_ospi.c ****           /* Clear transfer complete flag */
1251:Drivers/STM32L4xx_HAL_Driver/Src/stm32l4xx_hal_ospi.c ****           __HAL_OSPI_CLEAR_FLAG(hospi, HAL_OSPI_FLAG_TC);
 1772              		.loc 1 1251 11
 1773 011e FB68     		ldr	r3, [r7, #12]
 1774 0120 1B68     		ldr	r3, [r3]
 1775 0122 0222     		movs	r2, #2
 1776 0124 5A62     		str	r2, [r3, #36]
1252:Drivers/STM32L4xx_HAL_Driver/Src/stm32l4xx_hal_ospi.c **** 
1253:Drivers/STM32L4xx_HAL_Driver/Src/stm32l4xx_hal_ospi.c ****           /* Update state */
1254:Drivers/STM32L4xx_HAL_Driver/Src/stm32l4xx_hal_ospi.c ****           hospi->State = HAL_OSPI_STATE_READY;
 1777              		.loc 1 1254 24
 1778 0126 FB68     		ldr	r3, [r7, #12]
 1779 0128 0222     		movs	r2, #2
 1780 012a DA64     		str	r2, [r3, #76]
 1781 012c 05E0     		b	.L82
 1782              	.L83:
1255:Drivers/STM32L4xx_HAL_Driver/Src/stm32l4xx_hal_ospi.c ****         }
1256:Drivers/STM32L4xx_HAL_Driver/Src/stm32l4xx_hal_ospi.c ****       }
1257:Drivers/STM32L4xx_HAL_Driver/Src/stm32l4xx_hal_ospi.c ****     }
1258:Drivers/STM32L4xx_HAL_Driver/Src/stm32l4xx_hal_ospi.c ****     else
1259:Drivers/STM32L4xx_HAL_Driver/Src/stm32l4xx_hal_ospi.c ****     {
1260:Drivers/STM32L4xx_HAL_Driver/Src/stm32l4xx_hal_ospi.c ****       status = HAL_ERROR;
 1783              		.loc 1 1260 14
 1784 012e 0123     		movs	r3, #1
 1785 0130 87F82730 		strb	r3, [r7, #39]
1261:Drivers/STM32L4xx_HAL_Driver/Src/stm32l4xx_hal_ospi.c ****       hospi->ErrorCode = HAL_OSPI_ERROR_INVALID_SEQUENCE;
 1786              		.loc 1 1261 24
 1787 0134 FB68     		ldr	r3, [r7, #12]
 1788 0136 1022     		movs	r2, #16
 1789 0138 1A65     		str	r2, [r3, #80]
 1790              	.L82:
1262:Drivers/STM32L4xx_HAL_Driver/Src/stm32l4xx_hal_ospi.c ****     }
1263:Drivers/STM32L4xx_HAL_Driver/Src/stm32l4xx_hal_ospi.c ****   }
1264:Drivers/STM32L4xx_HAL_Driver/Src/stm32l4xx_hal_ospi.c **** 
1265:Drivers/STM32L4xx_HAL_Driver/Src/stm32l4xx_hal_ospi.c ****   /* Return function status */
1266:Drivers/STM32L4xx_HAL_Driver/Src/stm32l4xx_hal_ospi.c ****   return status;
 1791              		.loc 1 1266 10
 1792 013a 97F82730 		ldrb	r3, [r7, #39]	@ zero_extendqisi2
1267:Drivers/STM32L4xx_HAL_Driver/Src/stm32l4xx_hal_ospi.c **** }
 1793              		.loc 1 1267 1
 1794 013e 1846     		mov	r0, r3
 1795 0140 2837     		adds	r7, r7, #40
 1796              		.cfi_def_cfa_offset 8
 1797 0142 BD46     		mov	sp, r7
 1798              		.cfi_def_cfa_register 13
 1799              		@ sp needed
 1800 0144 80BD     		pop	{r7, pc}
 1801              		.cfi_endproc
 1802              	.LFE331:
 1804              		.section	.text.HAL_OSPI_Transmit_IT,"ax",%progbits
 1805              		.align	1
 1806              		.global	HAL_OSPI_Transmit_IT
ARM GAS  C:\Users\Morroway\AppData\Local\Temp\ccxQAUQ3.s 			page 55


 1807              		.syntax unified
 1808              		.thumb
 1809              		.thumb_func
 1811              	HAL_OSPI_Transmit_IT:
 1812              	.LFB332:
1268:Drivers/STM32L4xx_HAL_Driver/Src/stm32l4xx_hal_ospi.c **** 
1269:Drivers/STM32L4xx_HAL_Driver/Src/stm32l4xx_hal_ospi.c **** /**
1270:Drivers/STM32L4xx_HAL_Driver/Src/stm32l4xx_hal_ospi.c ****   * @brief  Send an amount of data in non-blocking mode with interrupt.
1271:Drivers/STM32L4xx_HAL_Driver/Src/stm32l4xx_hal_ospi.c ****   * @param  hospi : OSPI handle
1272:Drivers/STM32L4xx_HAL_Driver/Src/stm32l4xx_hal_ospi.c ****   * @param  pData : pointer to data buffer
1273:Drivers/STM32L4xx_HAL_Driver/Src/stm32l4xx_hal_ospi.c ****   * @note   This function is used only in Indirect Write Mode
1274:Drivers/STM32L4xx_HAL_Driver/Src/stm32l4xx_hal_ospi.c ****   * @retval HAL status
1275:Drivers/STM32L4xx_HAL_Driver/Src/stm32l4xx_hal_ospi.c ****   */
1276:Drivers/STM32L4xx_HAL_Driver/Src/stm32l4xx_hal_ospi.c **** HAL_StatusTypeDef HAL_OSPI_Transmit_IT(OSPI_HandleTypeDef *hospi, uint8_t *pData)
1277:Drivers/STM32L4xx_HAL_Driver/Src/stm32l4xx_hal_ospi.c **** {
 1813              		.loc 1 1277 1
 1814              		.cfi_startproc
 1815              		@ args = 0, pretend = 0, frame = 16
 1816              		@ frame_needed = 1, uses_anonymous_args = 0
 1817              		@ link register save eliminated.
 1818 0000 80B4     		push	{r7}
 1819              		.cfi_def_cfa_offset 4
 1820              		.cfi_offset 7, -4
 1821 0002 85B0     		sub	sp, sp, #20
 1822              		.cfi_def_cfa_offset 24
 1823 0004 00AF     		add	r7, sp, #0
 1824              		.cfi_def_cfa_register 7
 1825 0006 7860     		str	r0, [r7, #4]
 1826 0008 3960     		str	r1, [r7]
1278:Drivers/STM32L4xx_HAL_Driver/Src/stm32l4xx_hal_ospi.c ****   HAL_StatusTypeDef status = HAL_OK;
 1827              		.loc 1 1278 21
 1828 000a 0023     		movs	r3, #0
 1829 000c FB73     		strb	r3, [r7, #15]
1279:Drivers/STM32L4xx_HAL_Driver/Src/stm32l4xx_hal_ospi.c **** 
1280:Drivers/STM32L4xx_HAL_Driver/Src/stm32l4xx_hal_ospi.c ****   /* Check the data pointer allocation */
1281:Drivers/STM32L4xx_HAL_Driver/Src/stm32l4xx_hal_ospi.c ****   if (pData == NULL)
 1830              		.loc 1 1281 6
 1831 000e 3B68     		ldr	r3, [r7]
 1832 0010 002B     		cmp	r3, #0
 1833 0012 05D1     		bne	.L93
1282:Drivers/STM32L4xx_HAL_Driver/Src/stm32l4xx_hal_ospi.c ****   {
1283:Drivers/STM32L4xx_HAL_Driver/Src/stm32l4xx_hal_ospi.c ****     status = HAL_ERROR;
 1834              		.loc 1 1283 12
 1835 0014 0123     		movs	r3, #1
 1836 0016 FB73     		strb	r3, [r7, #15]
1284:Drivers/STM32L4xx_HAL_Driver/Src/stm32l4xx_hal_ospi.c ****     hospi->ErrorCode = HAL_OSPI_ERROR_INVALID_PARAM;
 1837              		.loc 1 1284 22
 1838 0018 7B68     		ldr	r3, [r7, #4]
 1839 001a 0822     		movs	r2, #8
 1840 001c 1A65     		str	r2, [r3, #80]
 1841 001e 2DE0     		b	.L94
 1842              	.L93:
1285:Drivers/STM32L4xx_HAL_Driver/Src/stm32l4xx_hal_ospi.c ****   }
1286:Drivers/STM32L4xx_HAL_Driver/Src/stm32l4xx_hal_ospi.c ****   else
1287:Drivers/STM32L4xx_HAL_Driver/Src/stm32l4xx_hal_ospi.c ****   {
1288:Drivers/STM32L4xx_HAL_Driver/Src/stm32l4xx_hal_ospi.c ****     /* Check the state */
1289:Drivers/STM32L4xx_HAL_Driver/Src/stm32l4xx_hal_ospi.c ****     if (hospi->State == HAL_OSPI_STATE_CMD_CFG)
ARM GAS  C:\Users\Morroway\AppData\Local\Temp\ccxQAUQ3.s 			page 56


 1843              		.loc 1 1289 14
 1844 0020 7B68     		ldr	r3, [r7, #4]
 1845 0022 DB6C     		ldr	r3, [r3, #76]
 1846              		.loc 1 1289 8
 1847 0024 042B     		cmp	r3, #4
 1848 0026 24D1     		bne	.L95
1290:Drivers/STM32L4xx_HAL_Driver/Src/stm32l4xx_hal_ospi.c ****     {
1291:Drivers/STM32L4xx_HAL_Driver/Src/stm32l4xx_hal_ospi.c ****       /* Configure counters and size */
1292:Drivers/STM32L4xx_HAL_Driver/Src/stm32l4xx_hal_ospi.c ****       hospi->XferCount = READ_REG(hospi->Instance->DLR) + 1U;
 1849              		.loc 1 1292 26
 1850 0028 7B68     		ldr	r3, [r7, #4]
 1851 002a 1B68     		ldr	r3, [r3]
 1852 002c 1B6C     		ldr	r3, [r3, #64]
 1853              		.loc 1 1292 57
 1854 002e 5A1C     		adds	r2, r3, #1
 1855              		.loc 1 1292 24
 1856 0030 7B68     		ldr	r3, [r7, #4]
 1857 0032 5A64     		str	r2, [r3, #68]
1293:Drivers/STM32L4xx_HAL_Driver/Src/stm32l4xx_hal_ospi.c ****       hospi->XferSize  = hospi->XferCount;
 1858              		.loc 1 1293 31
 1859 0034 7B68     		ldr	r3, [r7, #4]
 1860 0036 5A6C     		ldr	r2, [r3, #68]
 1861              		.loc 1 1293 24
 1862 0038 7B68     		ldr	r3, [r7, #4]
 1863 003a 1A64     		str	r2, [r3, #64]
1294:Drivers/STM32L4xx_HAL_Driver/Src/stm32l4xx_hal_ospi.c ****       hospi->pBuffPtr  = pData;
 1864              		.loc 1 1294 24
 1865 003c 7B68     		ldr	r3, [r7, #4]
 1866 003e 3A68     		ldr	r2, [r7]
 1867 0040 DA63     		str	r2, [r3, #60]
1295:Drivers/STM32L4xx_HAL_Driver/Src/stm32l4xx_hal_ospi.c **** 
1296:Drivers/STM32L4xx_HAL_Driver/Src/stm32l4xx_hal_ospi.c ****       /* Configure CR register with functional mode as indirect write */
1297:Drivers/STM32L4xx_HAL_Driver/Src/stm32l4xx_hal_ospi.c ****       MODIFY_REG(hospi->Instance->CR, OCTOSPI_CR_FMODE, OSPI_FUNCTIONAL_MODE_INDIRECT_WRITE);
 1868              		.loc 1 1297 7
 1869 0042 7B68     		ldr	r3, [r7, #4]
 1870 0044 1B68     		ldr	r3, [r3]
 1871 0046 1A68     		ldr	r2, [r3]
 1872 0048 7B68     		ldr	r3, [r7, #4]
 1873 004a 1B68     		ldr	r3, [r3]
 1874 004c 22F04052 		bic	r2, r2, #805306368
 1875 0050 1A60     		str	r2, [r3]
1298:Drivers/STM32L4xx_HAL_Driver/Src/stm32l4xx_hal_ospi.c **** 
1299:Drivers/STM32L4xx_HAL_Driver/Src/stm32l4xx_hal_ospi.c ****       /* Clear flags related to interrupt */
1300:Drivers/STM32L4xx_HAL_Driver/Src/stm32l4xx_hal_ospi.c ****       __HAL_OSPI_CLEAR_FLAG(hospi, HAL_OSPI_FLAG_TE | HAL_OSPI_FLAG_TC);
 1876              		.loc 1 1300 7
 1877 0052 7B68     		ldr	r3, [r7, #4]
 1878 0054 1B68     		ldr	r3, [r3]
 1879 0056 0322     		movs	r2, #3
 1880 0058 5A62     		str	r2, [r3, #36]
1301:Drivers/STM32L4xx_HAL_Driver/Src/stm32l4xx_hal_ospi.c **** 
1302:Drivers/STM32L4xx_HAL_Driver/Src/stm32l4xx_hal_ospi.c ****       /* Update the state */
1303:Drivers/STM32L4xx_HAL_Driver/Src/stm32l4xx_hal_ospi.c ****       hospi->State = HAL_OSPI_STATE_BUSY_TX;
 1881              		.loc 1 1303 20
 1882 005a 7B68     		ldr	r3, [r7, #4]
 1883 005c 1822     		movs	r2, #24
 1884 005e DA64     		str	r2, [r3, #76]
1304:Drivers/STM32L4xx_HAL_Driver/Src/stm32l4xx_hal_ospi.c **** 
ARM GAS  C:\Users\Morroway\AppData\Local\Temp\ccxQAUQ3.s 			page 57


1305:Drivers/STM32L4xx_HAL_Driver/Src/stm32l4xx_hal_ospi.c ****       /* Enable the transfer complete, fifo threshold and transfer error interrupts */
1306:Drivers/STM32L4xx_HAL_Driver/Src/stm32l4xx_hal_ospi.c ****       __HAL_OSPI_ENABLE_IT(hospi, HAL_OSPI_IT_TC | HAL_OSPI_IT_FT | HAL_OSPI_IT_TE);
 1885              		.loc 1 1306 7
 1886 0060 7B68     		ldr	r3, [r7, #4]
 1887 0062 1B68     		ldr	r3, [r3]
 1888 0064 1A68     		ldr	r2, [r3]
 1889 0066 7B68     		ldr	r3, [r7, #4]
 1890 0068 1B68     		ldr	r3, [r3]
 1891 006a 42F4E022 		orr	r2, r2, #458752
 1892 006e 1A60     		str	r2, [r3]
 1893 0070 04E0     		b	.L94
 1894              	.L95:
1307:Drivers/STM32L4xx_HAL_Driver/Src/stm32l4xx_hal_ospi.c ****     }
1308:Drivers/STM32L4xx_HAL_Driver/Src/stm32l4xx_hal_ospi.c ****     else
1309:Drivers/STM32L4xx_HAL_Driver/Src/stm32l4xx_hal_ospi.c ****     {
1310:Drivers/STM32L4xx_HAL_Driver/Src/stm32l4xx_hal_ospi.c ****       status = HAL_ERROR;
 1895              		.loc 1 1310 14
 1896 0072 0123     		movs	r3, #1
 1897 0074 FB73     		strb	r3, [r7, #15]
1311:Drivers/STM32L4xx_HAL_Driver/Src/stm32l4xx_hal_ospi.c ****       hospi->ErrorCode = HAL_OSPI_ERROR_INVALID_SEQUENCE;
 1898              		.loc 1 1311 24
 1899 0076 7B68     		ldr	r3, [r7, #4]
 1900 0078 1022     		movs	r2, #16
 1901 007a 1A65     		str	r2, [r3, #80]
 1902              	.L94:
1312:Drivers/STM32L4xx_HAL_Driver/Src/stm32l4xx_hal_ospi.c ****     }
1313:Drivers/STM32L4xx_HAL_Driver/Src/stm32l4xx_hal_ospi.c ****   }
1314:Drivers/STM32L4xx_HAL_Driver/Src/stm32l4xx_hal_ospi.c **** 
1315:Drivers/STM32L4xx_HAL_Driver/Src/stm32l4xx_hal_ospi.c ****   /* Return function status */
1316:Drivers/STM32L4xx_HAL_Driver/Src/stm32l4xx_hal_ospi.c ****   return status;
 1903              		.loc 1 1316 10
 1904 007c FB7B     		ldrb	r3, [r7, #15]	@ zero_extendqisi2
1317:Drivers/STM32L4xx_HAL_Driver/Src/stm32l4xx_hal_ospi.c **** }
 1905              		.loc 1 1317 1
 1906 007e 1846     		mov	r0, r3
 1907 0080 1437     		adds	r7, r7, #20
 1908              		.cfi_def_cfa_offset 4
 1909 0082 BD46     		mov	sp, r7
 1910              		.cfi_def_cfa_register 13
 1911              		@ sp needed
 1912 0084 5DF8047B 		ldr	r7, [sp], #4
 1913              		.cfi_restore 7
 1914              		.cfi_def_cfa_offset 0
 1915 0088 7047     		bx	lr
 1916              		.cfi_endproc
 1917              	.LFE332:
 1919              		.section	.text.HAL_OSPI_Receive_IT,"ax",%progbits
 1920              		.align	1
 1921              		.global	HAL_OSPI_Receive_IT
 1922              		.syntax unified
 1923              		.thumb
 1924              		.thumb_func
 1926              	HAL_OSPI_Receive_IT:
 1927              	.LFB333:
1318:Drivers/STM32L4xx_HAL_Driver/Src/stm32l4xx_hal_ospi.c **** 
1319:Drivers/STM32L4xx_HAL_Driver/Src/stm32l4xx_hal_ospi.c **** /**
1320:Drivers/STM32L4xx_HAL_Driver/Src/stm32l4xx_hal_ospi.c ****   * @brief  Receive an amount of data in non-blocking mode with interrupt.
ARM GAS  C:\Users\Morroway\AppData\Local\Temp\ccxQAUQ3.s 			page 58


1321:Drivers/STM32L4xx_HAL_Driver/Src/stm32l4xx_hal_ospi.c ****   * @param  hospi : OSPI handle
1322:Drivers/STM32L4xx_HAL_Driver/Src/stm32l4xx_hal_ospi.c ****   * @param  pData : pointer to data buffer
1323:Drivers/STM32L4xx_HAL_Driver/Src/stm32l4xx_hal_ospi.c ****   * @note   This function is used only in Indirect Read Mode
1324:Drivers/STM32L4xx_HAL_Driver/Src/stm32l4xx_hal_ospi.c ****   * @retval HAL status
1325:Drivers/STM32L4xx_HAL_Driver/Src/stm32l4xx_hal_ospi.c ****   */
1326:Drivers/STM32L4xx_HAL_Driver/Src/stm32l4xx_hal_ospi.c **** HAL_StatusTypeDef HAL_OSPI_Receive_IT(OSPI_HandleTypeDef *hospi, uint8_t *pData)
1327:Drivers/STM32L4xx_HAL_Driver/Src/stm32l4xx_hal_ospi.c **** {
 1928              		.loc 1 1327 1
 1929              		.cfi_startproc
 1930              		@ args = 0, pretend = 0, frame = 24
 1931              		@ frame_needed = 1, uses_anonymous_args = 0
 1932              		@ link register save eliminated.
 1933 0000 80B4     		push	{r7}
 1934              		.cfi_def_cfa_offset 4
 1935              		.cfi_offset 7, -4
 1936 0002 87B0     		sub	sp, sp, #28
 1937              		.cfi_def_cfa_offset 32
 1938 0004 00AF     		add	r7, sp, #0
 1939              		.cfi_def_cfa_register 7
 1940 0006 7860     		str	r0, [r7, #4]
 1941 0008 3960     		str	r1, [r7]
1328:Drivers/STM32L4xx_HAL_Driver/Src/stm32l4xx_hal_ospi.c ****   HAL_StatusTypeDef status = HAL_OK;
 1942              		.loc 1 1328 21
 1943 000a 0023     		movs	r3, #0
 1944 000c FB75     		strb	r3, [r7, #23]
1329:Drivers/STM32L4xx_HAL_Driver/Src/stm32l4xx_hal_ospi.c ****   uint32_t addr_reg = hospi->Instance->AR;
 1945              		.loc 1 1329 28
 1946 000e 7B68     		ldr	r3, [r7, #4]
 1947 0010 1B68     		ldr	r3, [r3]
 1948              		.loc 1 1329 12
 1949 0012 9B6C     		ldr	r3, [r3, #72]
 1950 0014 3B61     		str	r3, [r7, #16]
1330:Drivers/STM32L4xx_HAL_Driver/Src/stm32l4xx_hal_ospi.c ****   uint32_t ir_reg = hospi->Instance->IR;
 1951              		.loc 1 1330 26
 1952 0016 7B68     		ldr	r3, [r7, #4]
 1953 0018 1B68     		ldr	r3, [r3]
 1954              		.loc 1 1330 12
 1955 001a D3F81031 		ldr	r3, [r3, #272]
 1956 001e FB60     		str	r3, [r7, #12]
1331:Drivers/STM32L4xx_HAL_Driver/Src/stm32l4xx_hal_ospi.c **** 
1332:Drivers/STM32L4xx_HAL_Driver/Src/stm32l4xx_hal_ospi.c ****   /* Check the data pointer allocation */
1333:Drivers/STM32L4xx_HAL_Driver/Src/stm32l4xx_hal_ospi.c ****   if (pData == NULL)
 1957              		.loc 1 1333 6
 1958 0020 3B68     		ldr	r3, [r7]
 1959 0022 002B     		cmp	r3, #0
 1960 0024 05D1     		bne	.L98
1334:Drivers/STM32L4xx_HAL_Driver/Src/stm32l4xx_hal_ospi.c ****   {
1335:Drivers/STM32L4xx_HAL_Driver/Src/stm32l4xx_hal_ospi.c ****     status = HAL_ERROR;
 1961              		.loc 1 1335 12
 1962 0026 0123     		movs	r3, #1
 1963 0028 FB75     		strb	r3, [r7, #23]
1336:Drivers/STM32L4xx_HAL_Driver/Src/stm32l4xx_hal_ospi.c ****     hospi->ErrorCode = HAL_OSPI_ERROR_INVALID_PARAM;
 1964              		.loc 1 1336 22
 1965 002a 7B68     		ldr	r3, [r7, #4]
 1966 002c 0822     		movs	r2, #8
 1967 002e 1A65     		str	r2, [r3, #80]
 1968 0030 4BE0     		b	.L99
ARM GAS  C:\Users\Morroway\AppData\Local\Temp\ccxQAUQ3.s 			page 59


 1969              	.L98:
1337:Drivers/STM32L4xx_HAL_Driver/Src/stm32l4xx_hal_ospi.c ****   }
1338:Drivers/STM32L4xx_HAL_Driver/Src/stm32l4xx_hal_ospi.c ****   else
1339:Drivers/STM32L4xx_HAL_Driver/Src/stm32l4xx_hal_ospi.c ****   {
1340:Drivers/STM32L4xx_HAL_Driver/Src/stm32l4xx_hal_ospi.c ****     /* Check the state */
1341:Drivers/STM32L4xx_HAL_Driver/Src/stm32l4xx_hal_ospi.c ****     if (hospi->State == HAL_OSPI_STATE_CMD_CFG)
 1970              		.loc 1 1341 14
 1971 0032 7B68     		ldr	r3, [r7, #4]
 1972 0034 DB6C     		ldr	r3, [r3, #76]
 1973              		.loc 1 1341 8
 1974 0036 042B     		cmp	r3, #4
 1975 0038 42D1     		bne	.L100
1342:Drivers/STM32L4xx_HAL_Driver/Src/stm32l4xx_hal_ospi.c ****     {
1343:Drivers/STM32L4xx_HAL_Driver/Src/stm32l4xx_hal_ospi.c ****       /* Configure counters and size */
1344:Drivers/STM32L4xx_HAL_Driver/Src/stm32l4xx_hal_ospi.c ****       hospi->XferCount = READ_REG(hospi->Instance->DLR) + 1U;
 1976              		.loc 1 1344 26
 1977 003a 7B68     		ldr	r3, [r7, #4]
 1978 003c 1B68     		ldr	r3, [r3]
 1979 003e 1B6C     		ldr	r3, [r3, #64]
 1980              		.loc 1 1344 57
 1981 0040 5A1C     		adds	r2, r3, #1
 1982              		.loc 1 1344 24
 1983 0042 7B68     		ldr	r3, [r7, #4]
 1984 0044 5A64     		str	r2, [r3, #68]
1345:Drivers/STM32L4xx_HAL_Driver/Src/stm32l4xx_hal_ospi.c ****       hospi->XferSize  = hospi->XferCount;
 1985              		.loc 1 1345 31
 1986 0046 7B68     		ldr	r3, [r7, #4]
 1987 0048 5A6C     		ldr	r2, [r3, #68]
 1988              		.loc 1 1345 24
 1989 004a 7B68     		ldr	r3, [r7, #4]
 1990 004c 1A64     		str	r2, [r3, #64]
1346:Drivers/STM32L4xx_HAL_Driver/Src/stm32l4xx_hal_ospi.c ****       hospi->pBuffPtr  = pData;
 1991              		.loc 1 1346 24
 1992 004e 7B68     		ldr	r3, [r7, #4]
 1993 0050 3A68     		ldr	r2, [r7]
 1994 0052 DA63     		str	r2, [r3, #60]
1347:Drivers/STM32L4xx_HAL_Driver/Src/stm32l4xx_hal_ospi.c **** 
1348:Drivers/STM32L4xx_HAL_Driver/Src/stm32l4xx_hal_ospi.c ****       /* Configure CR register with functional mode as indirect read */
1349:Drivers/STM32L4xx_HAL_Driver/Src/stm32l4xx_hal_ospi.c ****       MODIFY_REG(hospi->Instance->CR, OCTOSPI_CR_FMODE, OSPI_FUNCTIONAL_MODE_INDIRECT_READ);
 1995              		.loc 1 1349 7
 1996 0054 7B68     		ldr	r3, [r7, #4]
 1997 0056 1B68     		ldr	r3, [r3]
 1998 0058 1B68     		ldr	r3, [r3]
 1999 005a 23F04052 		bic	r2, r3, #805306368
 2000 005e 7B68     		ldr	r3, [r7, #4]
 2001 0060 1B68     		ldr	r3, [r3]
 2002 0062 42F08052 		orr	r2, r2, #268435456
 2003 0066 1A60     		str	r2, [r3]
1350:Drivers/STM32L4xx_HAL_Driver/Src/stm32l4xx_hal_ospi.c **** 
1351:Drivers/STM32L4xx_HAL_Driver/Src/stm32l4xx_hal_ospi.c ****       /* Clear flags related to interrupt */
1352:Drivers/STM32L4xx_HAL_Driver/Src/stm32l4xx_hal_ospi.c ****       __HAL_OSPI_CLEAR_FLAG(hospi, HAL_OSPI_FLAG_TE | HAL_OSPI_FLAG_TC);
 2004              		.loc 1 1352 7
 2005 0068 7B68     		ldr	r3, [r7, #4]
 2006 006a 1B68     		ldr	r3, [r3]
 2007 006c 0322     		movs	r2, #3
 2008 006e 5A62     		str	r2, [r3, #36]
1353:Drivers/STM32L4xx_HAL_Driver/Src/stm32l4xx_hal_ospi.c **** 
ARM GAS  C:\Users\Morroway\AppData\Local\Temp\ccxQAUQ3.s 			page 60


1354:Drivers/STM32L4xx_HAL_Driver/Src/stm32l4xx_hal_ospi.c ****       /* Update the state */
1355:Drivers/STM32L4xx_HAL_Driver/Src/stm32l4xx_hal_ospi.c ****       hospi->State = HAL_OSPI_STATE_BUSY_RX;
 2009              		.loc 1 1355 20
 2010 0070 7B68     		ldr	r3, [r7, #4]
 2011 0072 2822     		movs	r2, #40
 2012 0074 DA64     		str	r2, [r3, #76]
1356:Drivers/STM32L4xx_HAL_Driver/Src/stm32l4xx_hal_ospi.c **** 
1357:Drivers/STM32L4xx_HAL_Driver/Src/stm32l4xx_hal_ospi.c ****       /* Enable the transfer complete, fifo threshold and transfer error interrupts */
1358:Drivers/STM32L4xx_HAL_Driver/Src/stm32l4xx_hal_ospi.c ****       __HAL_OSPI_ENABLE_IT(hospi, HAL_OSPI_IT_TC | HAL_OSPI_IT_FT | HAL_OSPI_IT_TE);
 2013              		.loc 1 1358 7
 2014 0076 7B68     		ldr	r3, [r7, #4]
 2015 0078 1B68     		ldr	r3, [r3]
 2016 007a 1A68     		ldr	r2, [r3]
 2017 007c 7B68     		ldr	r3, [r7, #4]
 2018 007e 1B68     		ldr	r3, [r3]
 2019 0080 42F4E022 		orr	r2, r2, #458752
 2020 0084 1A60     		str	r2, [r3]
1359:Drivers/STM32L4xx_HAL_Driver/Src/stm32l4xx_hal_ospi.c **** 
1360:Drivers/STM32L4xx_HAL_Driver/Src/stm32l4xx_hal_ospi.c ****       /* Trig the transfer by re-writing address or instruction register */
1361:Drivers/STM32L4xx_HAL_Driver/Src/stm32l4xx_hal_ospi.c ****       if (hospi->Init.MemoryType == HAL_OSPI_MEMTYPE_HYPERBUS)
 2021              		.loc 1 1361 22
 2022 0086 7B68     		ldr	r3, [r7, #4]
 2023 0088 DB68     		ldr	r3, [r3, #12]
 2024              		.loc 1 1361 10
 2025 008a B3F1806F 		cmp	r3, #67108864
 2026 008e 04D1     		bne	.L101
1362:Drivers/STM32L4xx_HAL_Driver/Src/stm32l4xx_hal_ospi.c ****       {
1363:Drivers/STM32L4xx_HAL_Driver/Src/stm32l4xx_hal_ospi.c ****         WRITE_REG(hospi->Instance->AR, addr_reg);
 2027              		.loc 1 1363 9
 2028 0090 7B68     		ldr	r3, [r7, #4]
 2029 0092 1B68     		ldr	r3, [r3]
 2030 0094 3A69     		ldr	r2, [r7, #16]
 2031 0096 9A64     		str	r2, [r3, #72]
 2032 0098 17E0     		b	.L99
 2033              	.L101:
1364:Drivers/STM32L4xx_HAL_Driver/Src/stm32l4xx_hal_ospi.c ****       }
1365:Drivers/STM32L4xx_HAL_Driver/Src/stm32l4xx_hal_ospi.c ****       else
1366:Drivers/STM32L4xx_HAL_Driver/Src/stm32l4xx_hal_ospi.c ****       {
1367:Drivers/STM32L4xx_HAL_Driver/Src/stm32l4xx_hal_ospi.c ****         if (READ_BIT(hospi->Instance->CCR, OCTOSPI_CCR_ADMODE) != HAL_OSPI_ADDRESS_NONE)
 2034              		.loc 1 1367 13
 2035 009a 7B68     		ldr	r3, [r7, #4]
 2036 009c 1B68     		ldr	r3, [r3]
 2037 009e D3F80031 		ldr	r3, [r3, #256]
 2038 00a2 03F4E063 		and	r3, r3, #1792
 2039              		.loc 1 1367 12
 2040 00a6 002B     		cmp	r3, #0
 2041 00a8 04D0     		beq	.L102
1368:Drivers/STM32L4xx_HAL_Driver/Src/stm32l4xx_hal_ospi.c ****         {
1369:Drivers/STM32L4xx_HAL_Driver/Src/stm32l4xx_hal_ospi.c ****           WRITE_REG(hospi->Instance->AR, addr_reg);
 2042              		.loc 1 1369 11
 2043 00aa 7B68     		ldr	r3, [r7, #4]
 2044 00ac 1B68     		ldr	r3, [r3]
 2045 00ae 3A69     		ldr	r2, [r7, #16]
 2046 00b0 9A64     		str	r2, [r3, #72]
 2047 00b2 0AE0     		b	.L99
 2048              	.L102:
1370:Drivers/STM32L4xx_HAL_Driver/Src/stm32l4xx_hal_ospi.c ****         }
ARM GAS  C:\Users\Morroway\AppData\Local\Temp\ccxQAUQ3.s 			page 61


1371:Drivers/STM32L4xx_HAL_Driver/Src/stm32l4xx_hal_ospi.c ****         else
1372:Drivers/STM32L4xx_HAL_Driver/Src/stm32l4xx_hal_ospi.c ****         {
1373:Drivers/STM32L4xx_HAL_Driver/Src/stm32l4xx_hal_ospi.c ****           WRITE_REG(hospi->Instance->IR, ir_reg);
 2049              		.loc 1 1373 11
 2050 00b4 7B68     		ldr	r3, [r7, #4]
 2051 00b6 1B68     		ldr	r3, [r3]
 2052 00b8 FA68     		ldr	r2, [r7, #12]
 2053 00ba C3F81021 		str	r2, [r3, #272]
 2054 00be 04E0     		b	.L99
 2055              	.L100:
1374:Drivers/STM32L4xx_HAL_Driver/Src/stm32l4xx_hal_ospi.c ****         }
1375:Drivers/STM32L4xx_HAL_Driver/Src/stm32l4xx_hal_ospi.c ****       }
1376:Drivers/STM32L4xx_HAL_Driver/Src/stm32l4xx_hal_ospi.c ****     }
1377:Drivers/STM32L4xx_HAL_Driver/Src/stm32l4xx_hal_ospi.c ****     else
1378:Drivers/STM32L4xx_HAL_Driver/Src/stm32l4xx_hal_ospi.c ****     {
1379:Drivers/STM32L4xx_HAL_Driver/Src/stm32l4xx_hal_ospi.c ****       status = HAL_ERROR;
 2056              		.loc 1 1379 14
 2057 00c0 0123     		movs	r3, #1
 2058 00c2 FB75     		strb	r3, [r7, #23]
1380:Drivers/STM32L4xx_HAL_Driver/Src/stm32l4xx_hal_ospi.c ****       hospi->ErrorCode = HAL_OSPI_ERROR_INVALID_SEQUENCE;
 2059              		.loc 1 1380 24
 2060 00c4 7B68     		ldr	r3, [r7, #4]
 2061 00c6 1022     		movs	r2, #16
 2062 00c8 1A65     		str	r2, [r3, #80]
 2063              	.L99:
1381:Drivers/STM32L4xx_HAL_Driver/Src/stm32l4xx_hal_ospi.c ****     }
1382:Drivers/STM32L4xx_HAL_Driver/Src/stm32l4xx_hal_ospi.c ****   }
1383:Drivers/STM32L4xx_HAL_Driver/Src/stm32l4xx_hal_ospi.c **** 
1384:Drivers/STM32L4xx_HAL_Driver/Src/stm32l4xx_hal_ospi.c ****   /* Return function status */
1385:Drivers/STM32L4xx_HAL_Driver/Src/stm32l4xx_hal_ospi.c ****   return status;
 2064              		.loc 1 1385 10
 2065 00ca FB7D     		ldrb	r3, [r7, #23]	@ zero_extendqisi2
1386:Drivers/STM32L4xx_HAL_Driver/Src/stm32l4xx_hal_ospi.c **** }
 2066              		.loc 1 1386 1
 2067 00cc 1846     		mov	r0, r3
 2068 00ce 1C37     		adds	r7, r7, #28
 2069              		.cfi_def_cfa_offset 4
 2070 00d0 BD46     		mov	sp, r7
 2071              		.cfi_def_cfa_register 13
 2072              		@ sp needed
 2073 00d2 5DF8047B 		ldr	r7, [sp], #4
 2074              		.cfi_restore 7
 2075              		.cfi_def_cfa_offset 0
 2076 00d6 7047     		bx	lr
 2077              		.cfi_endproc
 2078              	.LFE333:
 2080              		.section	.text.HAL_OSPI_Transmit_DMA,"ax",%progbits
 2081              		.align	1
 2082              		.global	HAL_OSPI_Transmit_DMA
 2083              		.syntax unified
 2084              		.thumb
 2085              		.thumb_func
 2087              	HAL_OSPI_Transmit_DMA:
 2088              	.LFB334:
1387:Drivers/STM32L4xx_HAL_Driver/Src/stm32l4xx_hal_ospi.c **** 
1388:Drivers/STM32L4xx_HAL_Driver/Src/stm32l4xx_hal_ospi.c **** /**
1389:Drivers/STM32L4xx_HAL_Driver/Src/stm32l4xx_hal_ospi.c ****   * @brief  Send an amount of data in non-blocking mode with DMA.
ARM GAS  C:\Users\Morroway\AppData\Local\Temp\ccxQAUQ3.s 			page 62


1390:Drivers/STM32L4xx_HAL_Driver/Src/stm32l4xx_hal_ospi.c ****   * @param  hospi : OSPI handle
1391:Drivers/STM32L4xx_HAL_Driver/Src/stm32l4xx_hal_ospi.c ****   * @param  pData : pointer to data buffer
1392:Drivers/STM32L4xx_HAL_Driver/Src/stm32l4xx_hal_ospi.c ****   * @note   This function is used only in Indirect Write Mode
1393:Drivers/STM32L4xx_HAL_Driver/Src/stm32l4xx_hal_ospi.c ****   * @note   If DMA peripheral access is configured as halfword, the number
1394:Drivers/STM32L4xx_HAL_Driver/Src/stm32l4xx_hal_ospi.c ****   *         of data and the fifo threshold should be aligned on halfword
1395:Drivers/STM32L4xx_HAL_Driver/Src/stm32l4xx_hal_ospi.c ****   * @note   If DMA peripheral access is configured as word, the number
1396:Drivers/STM32L4xx_HAL_Driver/Src/stm32l4xx_hal_ospi.c ****   *         of data and the fifo threshold should be aligned on word
1397:Drivers/STM32L4xx_HAL_Driver/Src/stm32l4xx_hal_ospi.c ****   * @retval HAL status
1398:Drivers/STM32L4xx_HAL_Driver/Src/stm32l4xx_hal_ospi.c ****   */
1399:Drivers/STM32L4xx_HAL_Driver/Src/stm32l4xx_hal_ospi.c **** HAL_StatusTypeDef HAL_OSPI_Transmit_DMA(OSPI_HandleTypeDef *hospi, uint8_t *pData)
1400:Drivers/STM32L4xx_HAL_Driver/Src/stm32l4xx_hal_ospi.c **** {
 2089              		.loc 1 1400 1
 2090              		.cfi_startproc
 2091              		@ args = 0, pretend = 0, frame = 16
 2092              		@ frame_needed = 1, uses_anonymous_args = 0
 2093 0000 80B5     		push	{r7, lr}
 2094              		.cfi_def_cfa_offset 8
 2095              		.cfi_offset 7, -8
 2096              		.cfi_offset 14, -4
 2097 0002 84B0     		sub	sp, sp, #16
 2098              		.cfi_def_cfa_offset 24
 2099 0004 00AF     		add	r7, sp, #0
 2100              		.cfi_def_cfa_register 7
 2101 0006 7860     		str	r0, [r7, #4]
 2102 0008 3960     		str	r1, [r7]
1401:Drivers/STM32L4xx_HAL_Driver/Src/stm32l4xx_hal_ospi.c ****   HAL_StatusTypeDef status = HAL_OK;
 2103              		.loc 1 1401 21
 2104 000a 0023     		movs	r3, #0
 2105 000c FB73     		strb	r3, [r7, #15]
1402:Drivers/STM32L4xx_HAL_Driver/Src/stm32l4xx_hal_ospi.c ****   uint32_t data_size = hospi->Instance->DLR + 1U;
 2106              		.loc 1 1402 29
 2107 000e 7B68     		ldr	r3, [r7, #4]
 2108 0010 1B68     		ldr	r3, [r3]
 2109              		.loc 1 1402 39
 2110 0012 1B6C     		ldr	r3, [r3, #64]
 2111              		.loc 1 1402 12
 2112 0014 0133     		adds	r3, r3, #1
 2113 0016 BB60     		str	r3, [r7, #8]
1403:Drivers/STM32L4xx_HAL_Driver/Src/stm32l4xx_hal_ospi.c **** 
1404:Drivers/STM32L4xx_HAL_Driver/Src/stm32l4xx_hal_ospi.c ****   /* Check the data pointer allocation */
1405:Drivers/STM32L4xx_HAL_Driver/Src/stm32l4xx_hal_ospi.c ****   if (pData == NULL)
 2114              		.loc 1 1405 6
 2115 0018 3B68     		ldr	r3, [r7]
 2116 001a 002B     		cmp	r3, #0
 2117 001c 05D1     		bne	.L105
1406:Drivers/STM32L4xx_HAL_Driver/Src/stm32l4xx_hal_ospi.c ****   {
1407:Drivers/STM32L4xx_HAL_Driver/Src/stm32l4xx_hal_ospi.c ****     status = HAL_ERROR;
 2118              		.loc 1 1407 12
 2119 001e 0123     		movs	r3, #1
 2120 0020 FB73     		strb	r3, [r7, #15]
1408:Drivers/STM32L4xx_HAL_Driver/Src/stm32l4xx_hal_ospi.c ****     hospi->ErrorCode = HAL_OSPI_ERROR_INVALID_PARAM;
 2121              		.loc 1 1408 22
 2122 0022 7B68     		ldr	r3, [r7, #4]
 2123 0024 0822     		movs	r2, #8
 2124 0026 1A65     		str	r2, [r3, #80]
 2125 0028 ACE0     		b	.L106
 2126              	.L105:
ARM GAS  C:\Users\Morroway\AppData\Local\Temp\ccxQAUQ3.s 			page 63


1409:Drivers/STM32L4xx_HAL_Driver/Src/stm32l4xx_hal_ospi.c ****   }
1410:Drivers/STM32L4xx_HAL_Driver/Src/stm32l4xx_hal_ospi.c ****   else
1411:Drivers/STM32L4xx_HAL_Driver/Src/stm32l4xx_hal_ospi.c ****   {
1412:Drivers/STM32L4xx_HAL_Driver/Src/stm32l4xx_hal_ospi.c ****     /* Check the state */
1413:Drivers/STM32L4xx_HAL_Driver/Src/stm32l4xx_hal_ospi.c ****     if (hospi->State == HAL_OSPI_STATE_CMD_CFG)
 2127              		.loc 1 1413 14
 2128 002a 7B68     		ldr	r3, [r7, #4]
 2129 002c DB6C     		ldr	r3, [r3, #76]
 2130              		.loc 1 1413 8
 2131 002e 042B     		cmp	r3, #4
 2132 0030 40F0A380 		bne	.L107
1414:Drivers/STM32L4xx_HAL_Driver/Src/stm32l4xx_hal_ospi.c ****     {
1415:Drivers/STM32L4xx_HAL_Driver/Src/stm32l4xx_hal_ospi.c ****       /* Configure counters and size */
1416:Drivers/STM32L4xx_HAL_Driver/Src/stm32l4xx_hal_ospi.c ****       if (hospi->hdma->Init.PeriphDataAlignment == DMA_PDATAALIGN_BYTE)
 2133              		.loc 1 1416 16
 2134 0034 7B68     		ldr	r3, [r7, #4]
 2135 0036 9B6C     		ldr	r3, [r3, #72]
 2136              		.loc 1 1416 28
 2137 0038 5B69     		ldr	r3, [r3, #20]
 2138              		.loc 1 1416 10
 2139 003a 002B     		cmp	r3, #0
 2140 003c 03D1     		bne	.L108
1417:Drivers/STM32L4xx_HAL_Driver/Src/stm32l4xx_hal_ospi.c ****       {
1418:Drivers/STM32L4xx_HAL_Driver/Src/stm32l4xx_hal_ospi.c ****         hospi->XferCount = data_size;
 2141              		.loc 1 1418 26
 2142 003e 7B68     		ldr	r3, [r7, #4]
 2143 0040 BA68     		ldr	r2, [r7, #8]
 2144 0042 5A64     		str	r2, [r3, #68]
 2145 0044 36E0     		b	.L109
 2146              	.L108:
1419:Drivers/STM32L4xx_HAL_Driver/Src/stm32l4xx_hal_ospi.c ****       }
1420:Drivers/STM32L4xx_HAL_Driver/Src/stm32l4xx_hal_ospi.c ****       else if (hospi->hdma->Init.PeriphDataAlignment == DMA_PDATAALIGN_HALFWORD)
 2147              		.loc 1 1420 21
 2148 0046 7B68     		ldr	r3, [r7, #4]
 2149 0048 9B6C     		ldr	r3, [r3, #72]
 2150              		.loc 1 1420 33
 2151 004a 5B69     		ldr	r3, [r3, #20]
 2152              		.loc 1 1420 15
 2153 004c B3F5807F 		cmp	r3, #256
 2154 0050 15D1     		bne	.L110
1421:Drivers/STM32L4xx_HAL_Driver/Src/stm32l4xx_hal_ospi.c ****       {
1422:Drivers/STM32L4xx_HAL_Driver/Src/stm32l4xx_hal_ospi.c ****         if (((data_size % 2U) != 0U) || ((hospi->Init.FifoThreshold % 2U) != 0U))
 2155              		.loc 1 1422 25
 2156 0052 BB68     		ldr	r3, [r7, #8]
 2157 0054 03F00103 		and	r3, r3, #1
 2158              		.loc 1 1422 12
 2159 0058 002B     		cmp	r3, #0
 2160 005a 05D1     		bne	.L111
 2161              		.loc 1 1422 54 discriminator 1
 2162 005c 7B68     		ldr	r3, [r7, #4]
 2163 005e 5B68     		ldr	r3, [r3, #4]
 2164              		.loc 1 1422 69 discriminator 1
 2165 0060 03F00103 		and	r3, r3, #1
 2166              		.loc 1 1422 38 discriminator 1
 2167 0064 002B     		cmp	r3, #0
 2168 0066 05D0     		beq	.L112
 2169              	.L111:
ARM GAS  C:\Users\Morroway\AppData\Local\Temp\ccxQAUQ3.s 			page 64


1423:Drivers/STM32L4xx_HAL_Driver/Src/stm32l4xx_hal_ospi.c ****         {
1424:Drivers/STM32L4xx_HAL_Driver/Src/stm32l4xx_hal_ospi.c ****           /* The number of data or the fifo threshold is not aligned on halfword
1425:Drivers/STM32L4xx_HAL_Driver/Src/stm32l4xx_hal_ospi.c ****           => no transfer possible with DMA peripheral access configured as halfword */
1426:Drivers/STM32L4xx_HAL_Driver/Src/stm32l4xx_hal_ospi.c ****           hospi->ErrorCode = HAL_OSPI_ERROR_INVALID_PARAM;
 2170              		.loc 1 1426 28
 2171 0068 7B68     		ldr	r3, [r7, #4]
 2172 006a 0822     		movs	r2, #8
 2173 006c 1A65     		str	r2, [r3, #80]
1427:Drivers/STM32L4xx_HAL_Driver/Src/stm32l4xx_hal_ospi.c ****           status = HAL_ERROR;
 2174              		.loc 1 1427 18
 2175 006e 0123     		movs	r3, #1
 2176 0070 FB73     		strb	r3, [r7, #15]
 2177 0072 1FE0     		b	.L109
 2178              	.L112:
1428:Drivers/STM32L4xx_HAL_Driver/Src/stm32l4xx_hal_ospi.c ****         }
1429:Drivers/STM32L4xx_HAL_Driver/Src/stm32l4xx_hal_ospi.c ****         else
1430:Drivers/STM32L4xx_HAL_Driver/Src/stm32l4xx_hal_ospi.c ****         {
1431:Drivers/STM32L4xx_HAL_Driver/Src/stm32l4xx_hal_ospi.c ****           hospi->XferCount = (data_size >> 1);
 2179              		.loc 1 1431 41
 2180 0074 BB68     		ldr	r3, [r7, #8]
 2181 0076 5A08     		lsrs	r2, r3, #1
 2182              		.loc 1 1431 28
 2183 0078 7B68     		ldr	r3, [r7, #4]
 2184 007a 5A64     		str	r2, [r3, #68]
 2185 007c 1AE0     		b	.L109
 2186              	.L110:
1432:Drivers/STM32L4xx_HAL_Driver/Src/stm32l4xx_hal_ospi.c ****         }
1433:Drivers/STM32L4xx_HAL_Driver/Src/stm32l4xx_hal_ospi.c ****       }
1434:Drivers/STM32L4xx_HAL_Driver/Src/stm32l4xx_hal_ospi.c ****       else if (hospi->hdma->Init.PeriphDataAlignment == DMA_PDATAALIGN_WORD)
 2187              		.loc 1 1434 21
 2188 007e 7B68     		ldr	r3, [r7, #4]
 2189 0080 9B6C     		ldr	r3, [r3, #72]
 2190              		.loc 1 1434 33
 2191 0082 5B69     		ldr	r3, [r3, #20]
 2192              		.loc 1 1434 15
 2193 0084 B3F5007F 		cmp	r3, #512
 2194 0088 14D1     		bne	.L109
1435:Drivers/STM32L4xx_HAL_Driver/Src/stm32l4xx_hal_ospi.c ****       {
1436:Drivers/STM32L4xx_HAL_Driver/Src/stm32l4xx_hal_ospi.c ****         if (((data_size % 4U) != 0U) || ((hospi->Init.FifoThreshold % 4U) != 0U))
 2195              		.loc 1 1436 25
 2196 008a BB68     		ldr	r3, [r7, #8]
 2197 008c 03F00303 		and	r3, r3, #3
 2198              		.loc 1 1436 12
 2199 0090 002B     		cmp	r3, #0
 2200 0092 05D1     		bne	.L114
 2201              		.loc 1 1436 54 discriminator 1
 2202 0094 7B68     		ldr	r3, [r7, #4]
 2203 0096 5B68     		ldr	r3, [r3, #4]
 2204              		.loc 1 1436 69 discriminator 1
 2205 0098 03F00303 		and	r3, r3, #3
 2206              		.loc 1 1436 38 discriminator 1
 2207 009c 002B     		cmp	r3, #0
 2208 009e 05D0     		beq	.L115
 2209              	.L114:
1437:Drivers/STM32L4xx_HAL_Driver/Src/stm32l4xx_hal_ospi.c ****         {
1438:Drivers/STM32L4xx_HAL_Driver/Src/stm32l4xx_hal_ospi.c ****           /* The number of data or the fifo threshold is not aligned on word
1439:Drivers/STM32L4xx_HAL_Driver/Src/stm32l4xx_hal_ospi.c ****           => no transfer possible with DMA peripheral access configured as word */
ARM GAS  C:\Users\Morroway\AppData\Local\Temp\ccxQAUQ3.s 			page 65


1440:Drivers/STM32L4xx_HAL_Driver/Src/stm32l4xx_hal_ospi.c ****           hospi->ErrorCode = HAL_OSPI_ERROR_INVALID_PARAM;
 2210              		.loc 1 1440 28
 2211 00a0 7B68     		ldr	r3, [r7, #4]
 2212 00a2 0822     		movs	r2, #8
 2213 00a4 1A65     		str	r2, [r3, #80]
1441:Drivers/STM32L4xx_HAL_Driver/Src/stm32l4xx_hal_ospi.c ****           status = HAL_ERROR;
 2214              		.loc 1 1441 18
 2215 00a6 0123     		movs	r3, #1
 2216 00a8 FB73     		strb	r3, [r7, #15]
 2217 00aa 03E0     		b	.L109
 2218              	.L115:
1442:Drivers/STM32L4xx_HAL_Driver/Src/stm32l4xx_hal_ospi.c ****         }
1443:Drivers/STM32L4xx_HAL_Driver/Src/stm32l4xx_hal_ospi.c ****         else
1444:Drivers/STM32L4xx_HAL_Driver/Src/stm32l4xx_hal_ospi.c ****         {
1445:Drivers/STM32L4xx_HAL_Driver/Src/stm32l4xx_hal_ospi.c ****           hospi->XferCount = (data_size >> 2);
 2219              		.loc 1 1445 41
 2220 00ac BB68     		ldr	r3, [r7, #8]
 2221 00ae 9A08     		lsrs	r2, r3, #2
 2222              		.loc 1 1445 28
 2223 00b0 7B68     		ldr	r3, [r7, #4]
 2224 00b2 5A64     		str	r2, [r3, #68]
 2225              	.L109:
1446:Drivers/STM32L4xx_HAL_Driver/Src/stm32l4xx_hal_ospi.c ****         }
1447:Drivers/STM32L4xx_HAL_Driver/Src/stm32l4xx_hal_ospi.c ****       }
1448:Drivers/STM32L4xx_HAL_Driver/Src/stm32l4xx_hal_ospi.c ****       else
1449:Drivers/STM32L4xx_HAL_Driver/Src/stm32l4xx_hal_ospi.c ****       {
1450:Drivers/STM32L4xx_HAL_Driver/Src/stm32l4xx_hal_ospi.c ****         /* Nothing to do */
1451:Drivers/STM32L4xx_HAL_Driver/Src/stm32l4xx_hal_ospi.c ****       }
1452:Drivers/STM32L4xx_HAL_Driver/Src/stm32l4xx_hal_ospi.c **** 
1453:Drivers/STM32L4xx_HAL_Driver/Src/stm32l4xx_hal_ospi.c ****       if (status == HAL_OK)
 2226              		.loc 1 1453 10
 2227 00b4 FB7B     		ldrb	r3, [r7, #15]	@ zero_extendqisi2
 2228 00b6 002B     		cmp	r3, #0
 2229 00b8 64D1     		bne	.L106
1454:Drivers/STM32L4xx_HAL_Driver/Src/stm32l4xx_hal_ospi.c ****       {
1455:Drivers/STM32L4xx_HAL_Driver/Src/stm32l4xx_hal_ospi.c ****         hospi->XferSize = hospi->XferCount;
 2230              		.loc 1 1455 32
 2231 00ba 7B68     		ldr	r3, [r7, #4]
 2232 00bc 5A6C     		ldr	r2, [r3, #68]
 2233              		.loc 1 1455 25
 2234 00be 7B68     		ldr	r3, [r7, #4]
 2235 00c0 1A64     		str	r2, [r3, #64]
1456:Drivers/STM32L4xx_HAL_Driver/Src/stm32l4xx_hal_ospi.c ****         hospi->pBuffPtr = pData;
 2236              		.loc 1 1456 25
 2237 00c2 7B68     		ldr	r3, [r7, #4]
 2238 00c4 3A68     		ldr	r2, [r7]
 2239 00c6 DA63     		str	r2, [r3, #60]
1457:Drivers/STM32L4xx_HAL_Driver/Src/stm32l4xx_hal_ospi.c **** 
1458:Drivers/STM32L4xx_HAL_Driver/Src/stm32l4xx_hal_ospi.c ****         /* Configure CR register with functional mode as indirect write */
1459:Drivers/STM32L4xx_HAL_Driver/Src/stm32l4xx_hal_ospi.c ****         MODIFY_REG(hospi->Instance->CR, OCTOSPI_CR_FMODE, OSPI_FUNCTIONAL_MODE_INDIRECT_WRITE);
 2240              		.loc 1 1459 9
 2241 00c8 7B68     		ldr	r3, [r7, #4]
 2242 00ca 1B68     		ldr	r3, [r3]
 2243 00cc 1A68     		ldr	r2, [r3]
 2244 00ce 7B68     		ldr	r3, [r7, #4]
 2245 00d0 1B68     		ldr	r3, [r3]
 2246 00d2 22F04052 		bic	r2, r2, #805306368
ARM GAS  C:\Users\Morroway\AppData\Local\Temp\ccxQAUQ3.s 			page 66


 2247 00d6 1A60     		str	r2, [r3]
1460:Drivers/STM32L4xx_HAL_Driver/Src/stm32l4xx_hal_ospi.c **** 
1461:Drivers/STM32L4xx_HAL_Driver/Src/stm32l4xx_hal_ospi.c ****         /* Clear flags related to interrupt */
1462:Drivers/STM32L4xx_HAL_Driver/Src/stm32l4xx_hal_ospi.c ****         __HAL_OSPI_CLEAR_FLAG(hospi, HAL_OSPI_FLAG_TE | HAL_OSPI_FLAG_TC);
 2248              		.loc 1 1462 9
 2249 00d8 7B68     		ldr	r3, [r7, #4]
 2250 00da 1B68     		ldr	r3, [r3]
 2251 00dc 0322     		movs	r2, #3
 2252 00de 5A62     		str	r2, [r3, #36]
1463:Drivers/STM32L4xx_HAL_Driver/Src/stm32l4xx_hal_ospi.c **** 
1464:Drivers/STM32L4xx_HAL_Driver/Src/stm32l4xx_hal_ospi.c ****         /* Update the state */
1465:Drivers/STM32L4xx_HAL_Driver/Src/stm32l4xx_hal_ospi.c ****         hospi->State = HAL_OSPI_STATE_BUSY_TX;
 2253              		.loc 1 1465 22
 2254 00e0 7B68     		ldr	r3, [r7, #4]
 2255 00e2 1822     		movs	r2, #24
 2256 00e4 DA64     		str	r2, [r3, #76]
1466:Drivers/STM32L4xx_HAL_Driver/Src/stm32l4xx_hal_ospi.c **** 
1467:Drivers/STM32L4xx_HAL_Driver/Src/stm32l4xx_hal_ospi.c ****         /* Set the DMA transfer complete callback */
1468:Drivers/STM32L4xx_HAL_Driver/Src/stm32l4xx_hal_ospi.c ****         hospi->hdma->XferCpltCallback = OSPI_DMACplt;
 2257              		.loc 1 1468 14
 2258 00e6 7B68     		ldr	r3, [r7, #4]
 2259 00e8 9B6C     		ldr	r3, [r3, #72]
 2260              		.loc 1 1468 39
 2261 00ea 294A     		ldr	r2, .L119
 2262 00ec DA62     		str	r2, [r3, #44]
1469:Drivers/STM32L4xx_HAL_Driver/Src/stm32l4xx_hal_ospi.c **** 
1470:Drivers/STM32L4xx_HAL_Driver/Src/stm32l4xx_hal_ospi.c ****         /* Set the DMA Half transfer complete callback */
1471:Drivers/STM32L4xx_HAL_Driver/Src/stm32l4xx_hal_ospi.c ****         hospi->hdma->XferHalfCpltCallback = OSPI_DMAHalfCplt;
 2263              		.loc 1 1471 14
 2264 00ee 7B68     		ldr	r3, [r7, #4]
 2265 00f0 9B6C     		ldr	r3, [r3, #72]
 2266              		.loc 1 1471 43
 2267 00f2 284A     		ldr	r2, .L119+4
 2268 00f4 1A63     		str	r2, [r3, #48]
1472:Drivers/STM32L4xx_HAL_Driver/Src/stm32l4xx_hal_ospi.c **** 
1473:Drivers/STM32L4xx_HAL_Driver/Src/stm32l4xx_hal_ospi.c ****         /* Set the DMA error callback */
1474:Drivers/STM32L4xx_HAL_Driver/Src/stm32l4xx_hal_ospi.c ****         hospi->hdma->XferErrorCallback = OSPI_DMAError;
 2269              		.loc 1 1474 14
 2270 00f6 7B68     		ldr	r3, [r7, #4]
 2271 00f8 9B6C     		ldr	r3, [r3, #72]
 2272              		.loc 1 1474 40
 2273 00fa 274A     		ldr	r2, .L119+8
 2274 00fc 5A63     		str	r2, [r3, #52]
1475:Drivers/STM32L4xx_HAL_Driver/Src/stm32l4xx_hal_ospi.c **** 
1476:Drivers/STM32L4xx_HAL_Driver/Src/stm32l4xx_hal_ospi.c ****         /* Clear the DMA abort callback */
1477:Drivers/STM32L4xx_HAL_Driver/Src/stm32l4xx_hal_ospi.c ****         hospi->hdma->XferAbortCallback = NULL;
 2275              		.loc 1 1477 14
 2276 00fe 7B68     		ldr	r3, [r7, #4]
 2277 0100 9B6C     		ldr	r3, [r3, #72]
 2278              		.loc 1 1477 40
 2279 0102 0022     		movs	r2, #0
 2280 0104 9A63     		str	r2, [r3, #56]
1478:Drivers/STM32L4xx_HAL_Driver/Src/stm32l4xx_hal_ospi.c **** 
1479:Drivers/STM32L4xx_HAL_Driver/Src/stm32l4xx_hal_ospi.c ****         /* Configure the direction of the DMA */
1480:Drivers/STM32L4xx_HAL_Driver/Src/stm32l4xx_hal_ospi.c ****         hospi->hdma->Init.Direction = DMA_MEMORY_TO_PERIPH;
 2281              		.loc 1 1480 14
 2282 0106 7B68     		ldr	r3, [r7, #4]
ARM GAS  C:\Users\Morroway\AppData\Local\Temp\ccxQAUQ3.s 			page 67


 2283 0108 9B6C     		ldr	r3, [r3, #72]
 2284              		.loc 1 1480 37
 2285 010a 1022     		movs	r2, #16
 2286 010c 9A60     		str	r2, [r3, #8]
1481:Drivers/STM32L4xx_HAL_Driver/Src/stm32l4xx_hal_ospi.c ****         MODIFY_REG(hospi->hdma->Instance->CCR, DMA_CCR_DIR, hospi->hdma->Init.Direction);
 2287              		.loc 1 1481 9
 2288 010e 7B68     		ldr	r3, [r7, #4]
 2289 0110 9B6C     		ldr	r3, [r3, #72]
 2290 0112 1B68     		ldr	r3, [r3]
 2291 0114 1B68     		ldr	r3, [r3]
 2292 0116 23F01001 		bic	r1, r3, #16
 2293 011a 7B68     		ldr	r3, [r7, #4]
 2294 011c 9B6C     		ldr	r3, [r3, #72]
 2295 011e 9A68     		ldr	r2, [r3, #8]
 2296 0120 7B68     		ldr	r3, [r7, #4]
 2297 0122 9B6C     		ldr	r3, [r3, #72]
 2298 0124 1B68     		ldr	r3, [r3]
 2299 0126 0A43     		orrs	r2, r2, r1
 2300 0128 1A60     		str	r2, [r3]
1482:Drivers/STM32L4xx_HAL_Driver/Src/stm32l4xx_hal_ospi.c **** 
1483:Drivers/STM32L4xx_HAL_Driver/Src/stm32l4xx_hal_ospi.c ****             /* Enable the transmit DMA Channel */
1484:Drivers/STM32L4xx_HAL_Driver/Src/stm32l4xx_hal_ospi.c ****             if (HAL_DMA_Start_IT(hospi->hdma, (uint32_t)pData, (uint32_t)&hospi->Instance->DR, hosp
 2301              		.loc 1 1484 17
 2302 012a 7B68     		ldr	r3, [r7, #4]
 2303 012c 986C     		ldr	r0, [r3, #72]
 2304 012e 3968     		ldr	r1, [r7]
 2305              		.loc 1 1484 80
 2306 0130 7B68     		ldr	r3, [r7, #4]
 2307 0132 1B68     		ldr	r3, [r3]
 2308              		.loc 1 1484 74
 2309 0134 5033     		adds	r3, r3, #80
 2310              		.loc 1 1484 17
 2311 0136 1A46     		mov	r2, r3
 2312              		.loc 1 1484 101
 2313 0138 7B68     		ldr	r3, [r7, #4]
 2314 013a 1B6C     		ldr	r3, [r3, #64]
 2315              		.loc 1 1484 17
 2316 013c FFF7FEFF 		bl	HAL_DMA_Start_IT
 2317 0140 0346     		mov	r3, r0
 2318              		.loc 1 1484 16
 2319 0142 002B     		cmp	r3, #0
 2320 0144 10D1     		bne	.L117
1485:Drivers/STM32L4xx_HAL_Driver/Src/stm32l4xx_hal_ospi.c ****             {
1486:Drivers/STM32L4xx_HAL_Driver/Src/stm32l4xx_hal_ospi.c ****               /* Enable the transfer error interrupt */
1487:Drivers/STM32L4xx_HAL_Driver/Src/stm32l4xx_hal_ospi.c ****               __HAL_OSPI_ENABLE_IT(hospi, HAL_OSPI_IT_TE);
 2321              		.loc 1 1487 15
 2322 0146 7B68     		ldr	r3, [r7, #4]
 2323 0148 1B68     		ldr	r3, [r3]
 2324 014a 1A68     		ldr	r2, [r3]
 2325 014c 7B68     		ldr	r3, [r7, #4]
 2326 014e 1B68     		ldr	r3, [r3]
 2327 0150 42F48032 		orr	r2, r2, #65536
 2328 0154 1A60     		str	r2, [r3]
1488:Drivers/STM32L4xx_HAL_Driver/Src/stm32l4xx_hal_ospi.c **** 
1489:Drivers/STM32L4xx_HAL_Driver/Src/stm32l4xx_hal_ospi.c ****               /* Enable the DMA transfer by setting the DMAEN bit  */
1490:Drivers/STM32L4xx_HAL_Driver/Src/stm32l4xx_hal_ospi.c ****               SET_BIT(hospi->Instance->CR, OCTOSPI_CR_DMAEN);
 2329              		.loc 1 1490 15
ARM GAS  C:\Users\Morroway\AppData\Local\Temp\ccxQAUQ3.s 			page 68


 2330 0156 7B68     		ldr	r3, [r7, #4]
 2331 0158 1B68     		ldr	r3, [r3]
 2332 015a 1A68     		ldr	r2, [r3]
 2333 015c 7B68     		ldr	r3, [r7, #4]
 2334 015e 1B68     		ldr	r3, [r3]
 2335 0160 42F00402 		orr	r2, r2, #4
 2336 0164 1A60     		str	r2, [r3]
 2337 0166 0DE0     		b	.L106
 2338              	.L117:
1491:Drivers/STM32L4xx_HAL_Driver/Src/stm32l4xx_hal_ospi.c ****             }
1492:Drivers/STM32L4xx_HAL_Driver/Src/stm32l4xx_hal_ospi.c ****             else
1493:Drivers/STM32L4xx_HAL_Driver/Src/stm32l4xx_hal_ospi.c ****             {
1494:Drivers/STM32L4xx_HAL_Driver/Src/stm32l4xx_hal_ospi.c ****               status = HAL_ERROR;
 2339              		.loc 1 1494 22
 2340 0168 0123     		movs	r3, #1
 2341 016a FB73     		strb	r3, [r7, #15]
1495:Drivers/STM32L4xx_HAL_Driver/Src/stm32l4xx_hal_ospi.c ****               hospi->ErrorCode = HAL_OSPI_ERROR_DMA;
 2342              		.loc 1 1495 32
 2343 016c 7B68     		ldr	r3, [r7, #4]
 2344 016e 0422     		movs	r2, #4
 2345 0170 1A65     		str	r2, [r3, #80]
1496:Drivers/STM32L4xx_HAL_Driver/Src/stm32l4xx_hal_ospi.c ****               hospi->State = HAL_OSPI_STATE_READY;
 2346              		.loc 1 1496 28
 2347 0172 7B68     		ldr	r3, [r7, #4]
 2348 0174 0222     		movs	r2, #2
 2349 0176 DA64     		str	r2, [r3, #76]
 2350 0178 04E0     		b	.L106
 2351              	.L107:
1497:Drivers/STM32L4xx_HAL_Driver/Src/stm32l4xx_hal_ospi.c ****             }
1498:Drivers/STM32L4xx_HAL_Driver/Src/stm32l4xx_hal_ospi.c ****       }
1499:Drivers/STM32L4xx_HAL_Driver/Src/stm32l4xx_hal_ospi.c ****     }
1500:Drivers/STM32L4xx_HAL_Driver/Src/stm32l4xx_hal_ospi.c ****     else
1501:Drivers/STM32L4xx_HAL_Driver/Src/stm32l4xx_hal_ospi.c ****     {
1502:Drivers/STM32L4xx_HAL_Driver/Src/stm32l4xx_hal_ospi.c ****       status = HAL_ERROR;
 2352              		.loc 1 1502 14
 2353 017a 0123     		movs	r3, #1
 2354 017c FB73     		strb	r3, [r7, #15]
1503:Drivers/STM32L4xx_HAL_Driver/Src/stm32l4xx_hal_ospi.c ****       hospi->ErrorCode = HAL_OSPI_ERROR_INVALID_SEQUENCE;
 2355              		.loc 1 1503 24
 2356 017e 7B68     		ldr	r3, [r7, #4]
 2357 0180 1022     		movs	r2, #16
 2358 0182 1A65     		str	r2, [r3, #80]
 2359              	.L106:
1504:Drivers/STM32L4xx_HAL_Driver/Src/stm32l4xx_hal_ospi.c ****     }
1505:Drivers/STM32L4xx_HAL_Driver/Src/stm32l4xx_hal_ospi.c ****   }
1506:Drivers/STM32L4xx_HAL_Driver/Src/stm32l4xx_hal_ospi.c **** 
1507:Drivers/STM32L4xx_HAL_Driver/Src/stm32l4xx_hal_ospi.c ****   /* Return function status */
1508:Drivers/STM32L4xx_HAL_Driver/Src/stm32l4xx_hal_ospi.c ****   return status;
 2360              		.loc 1 1508 10
 2361 0184 FB7B     		ldrb	r3, [r7, #15]	@ zero_extendqisi2
1509:Drivers/STM32L4xx_HAL_Driver/Src/stm32l4xx_hal_ospi.c **** }
 2362              		.loc 1 1509 1
 2363 0186 1846     		mov	r0, r3
 2364 0188 1037     		adds	r7, r7, #16
 2365              		.cfi_def_cfa_offset 8
 2366 018a BD46     		mov	sp, r7
 2367              		.cfi_def_cfa_register 13
ARM GAS  C:\Users\Morroway\AppData\Local\Temp\ccxQAUQ3.s 			page 69


 2368              		@ sp needed
 2369 018c 80BD     		pop	{r7, pc}
 2370              	.L120:
 2371 018e 00BF     		.align	2
 2372              	.L119:
 2373 0190 00000000 		.word	OSPI_DMACplt
 2374 0194 00000000 		.word	OSPI_DMAHalfCplt
 2375 0198 00000000 		.word	OSPI_DMAError
 2376              		.cfi_endproc
 2377              	.LFE334:
 2379              		.section	.text.HAL_OSPI_Receive_DMA,"ax",%progbits
 2380              		.align	1
 2381              		.global	HAL_OSPI_Receive_DMA
 2382              		.syntax unified
 2383              		.thumb
 2384              		.thumb_func
 2386              	HAL_OSPI_Receive_DMA:
 2387              	.LFB335:
1510:Drivers/STM32L4xx_HAL_Driver/Src/stm32l4xx_hal_ospi.c **** 
1511:Drivers/STM32L4xx_HAL_Driver/Src/stm32l4xx_hal_ospi.c **** /**
1512:Drivers/STM32L4xx_HAL_Driver/Src/stm32l4xx_hal_ospi.c ****   * @brief  Receive an amount of data in non-blocking mode with DMA.
1513:Drivers/STM32L4xx_HAL_Driver/Src/stm32l4xx_hal_ospi.c ****   * @param  hospi : OSPI handle
1514:Drivers/STM32L4xx_HAL_Driver/Src/stm32l4xx_hal_ospi.c ****   * @param  pData : pointer to data buffer.
1515:Drivers/STM32L4xx_HAL_Driver/Src/stm32l4xx_hal_ospi.c ****   * @note   This function is used only in Indirect Read Mode
1516:Drivers/STM32L4xx_HAL_Driver/Src/stm32l4xx_hal_ospi.c ****   * @note   If DMA peripheral access is configured as halfword, the number
1517:Drivers/STM32L4xx_HAL_Driver/Src/stm32l4xx_hal_ospi.c ****   *         of data and the fifo threshold should be aligned on halfword
1518:Drivers/STM32L4xx_HAL_Driver/Src/stm32l4xx_hal_ospi.c ****   * @note   If DMA peripheral access is configured as word, the number
1519:Drivers/STM32L4xx_HAL_Driver/Src/stm32l4xx_hal_ospi.c ****   *         of data and the fifo threshold should be aligned on word
1520:Drivers/STM32L4xx_HAL_Driver/Src/stm32l4xx_hal_ospi.c ****   * @retval HAL status
1521:Drivers/STM32L4xx_HAL_Driver/Src/stm32l4xx_hal_ospi.c ****   */
1522:Drivers/STM32L4xx_HAL_Driver/Src/stm32l4xx_hal_ospi.c **** HAL_StatusTypeDef HAL_OSPI_Receive_DMA(OSPI_HandleTypeDef *hospi, uint8_t *pData)
1523:Drivers/STM32L4xx_HAL_Driver/Src/stm32l4xx_hal_ospi.c **** {
 2388              		.loc 1 1523 1
 2389              		.cfi_startproc
 2390              		@ args = 0, pretend = 0, frame = 24
 2391              		@ frame_needed = 1, uses_anonymous_args = 0
 2392 0000 80B5     		push	{r7, lr}
 2393              		.cfi_def_cfa_offset 8
 2394              		.cfi_offset 7, -8
 2395              		.cfi_offset 14, -4
 2396 0002 86B0     		sub	sp, sp, #24
 2397              		.cfi_def_cfa_offset 32
 2398 0004 00AF     		add	r7, sp, #0
 2399              		.cfi_def_cfa_register 7
 2400 0006 7860     		str	r0, [r7, #4]
 2401 0008 3960     		str	r1, [r7]
1524:Drivers/STM32L4xx_HAL_Driver/Src/stm32l4xx_hal_ospi.c ****   HAL_StatusTypeDef status = HAL_OK;
 2402              		.loc 1 1524 21
 2403 000a 0023     		movs	r3, #0
 2404 000c FB75     		strb	r3, [r7, #23]
1525:Drivers/STM32L4xx_HAL_Driver/Src/stm32l4xx_hal_ospi.c ****   uint32_t data_size = hospi->Instance->DLR + 1U;
 2405              		.loc 1 1525 29
 2406 000e 7B68     		ldr	r3, [r7, #4]
 2407 0010 1B68     		ldr	r3, [r3]
 2408              		.loc 1 1525 39
 2409 0012 1B6C     		ldr	r3, [r3, #64]
 2410              		.loc 1 1525 12
ARM GAS  C:\Users\Morroway\AppData\Local\Temp\ccxQAUQ3.s 			page 70


 2411 0014 0133     		adds	r3, r3, #1
 2412 0016 3B61     		str	r3, [r7, #16]
1526:Drivers/STM32L4xx_HAL_Driver/Src/stm32l4xx_hal_ospi.c ****   uint32_t addr_reg = hospi->Instance->AR;
 2413              		.loc 1 1526 28
 2414 0018 7B68     		ldr	r3, [r7, #4]
 2415 001a 1B68     		ldr	r3, [r3]
 2416              		.loc 1 1526 12
 2417 001c 9B6C     		ldr	r3, [r3, #72]
 2418 001e FB60     		str	r3, [r7, #12]
1527:Drivers/STM32L4xx_HAL_Driver/Src/stm32l4xx_hal_ospi.c ****   uint32_t ir_reg = hospi->Instance->IR;
 2419              		.loc 1 1527 26
 2420 0020 7B68     		ldr	r3, [r7, #4]
 2421 0022 1B68     		ldr	r3, [r3]
 2422              		.loc 1 1527 12
 2423 0024 D3F81031 		ldr	r3, [r3, #272]
 2424 0028 BB60     		str	r3, [r7, #8]
1528:Drivers/STM32L4xx_HAL_Driver/Src/stm32l4xx_hal_ospi.c ****   /* Check the data pointer allocation */
1529:Drivers/STM32L4xx_HAL_Driver/Src/stm32l4xx_hal_ospi.c ****   if (pData == NULL)
 2425              		.loc 1 1529 6
 2426 002a 3B68     		ldr	r3, [r7]
 2427 002c 002B     		cmp	r3, #0
 2428 002e 05D1     		bne	.L122
1530:Drivers/STM32L4xx_HAL_Driver/Src/stm32l4xx_hal_ospi.c ****   {
1531:Drivers/STM32L4xx_HAL_Driver/Src/stm32l4xx_hal_ospi.c ****     status = HAL_ERROR;
 2429              		.loc 1 1531 12
 2430 0030 0123     		movs	r3, #1
 2431 0032 FB75     		strb	r3, [r7, #23]
1532:Drivers/STM32L4xx_HAL_Driver/Src/stm32l4xx_hal_ospi.c ****     hospi->ErrorCode = HAL_OSPI_ERROR_INVALID_PARAM;
 2432              		.loc 1 1532 22
 2433 0034 7B68     		ldr	r3, [r7, #4]
 2434 0036 0822     		movs	r2, #8
 2435 0038 1A65     		str	r2, [r3, #80]
 2436 003a CBE0     		b	.L123
 2437              	.L122:
1533:Drivers/STM32L4xx_HAL_Driver/Src/stm32l4xx_hal_ospi.c ****   }
1534:Drivers/STM32L4xx_HAL_Driver/Src/stm32l4xx_hal_ospi.c ****   else
1535:Drivers/STM32L4xx_HAL_Driver/Src/stm32l4xx_hal_ospi.c ****   {
1536:Drivers/STM32L4xx_HAL_Driver/Src/stm32l4xx_hal_ospi.c ****     /* Check the state */
1537:Drivers/STM32L4xx_HAL_Driver/Src/stm32l4xx_hal_ospi.c ****     if (hospi->State == HAL_OSPI_STATE_CMD_CFG)
 2438              		.loc 1 1537 14
 2439 003c 7B68     		ldr	r3, [r7, #4]
 2440 003e DB6C     		ldr	r3, [r3, #76]
 2441              		.loc 1 1537 8
 2442 0040 042B     		cmp	r3, #4
 2443 0042 40F0C280 		bne	.L124
1538:Drivers/STM32L4xx_HAL_Driver/Src/stm32l4xx_hal_ospi.c ****     {
1539:Drivers/STM32L4xx_HAL_Driver/Src/stm32l4xx_hal_ospi.c ****       /* Configure counters and size */
1540:Drivers/STM32L4xx_HAL_Driver/Src/stm32l4xx_hal_ospi.c ****       if (hospi->hdma->Init.PeriphDataAlignment == DMA_PDATAALIGN_BYTE)
 2444              		.loc 1 1540 16
 2445 0046 7B68     		ldr	r3, [r7, #4]
 2446 0048 9B6C     		ldr	r3, [r3, #72]
 2447              		.loc 1 1540 28
 2448 004a 5B69     		ldr	r3, [r3, #20]
 2449              		.loc 1 1540 10
 2450 004c 002B     		cmp	r3, #0
 2451 004e 03D1     		bne	.L125
1541:Drivers/STM32L4xx_HAL_Driver/Src/stm32l4xx_hal_ospi.c ****       {
ARM GAS  C:\Users\Morroway\AppData\Local\Temp\ccxQAUQ3.s 			page 71


1542:Drivers/STM32L4xx_HAL_Driver/Src/stm32l4xx_hal_ospi.c ****         hospi->XferCount = data_size;
 2452              		.loc 1 1542 26
 2453 0050 7B68     		ldr	r3, [r7, #4]
 2454 0052 3A69     		ldr	r2, [r7, #16]
 2455 0054 5A64     		str	r2, [r3, #68]
 2456 0056 36E0     		b	.L126
 2457              	.L125:
1543:Drivers/STM32L4xx_HAL_Driver/Src/stm32l4xx_hal_ospi.c ****       }
1544:Drivers/STM32L4xx_HAL_Driver/Src/stm32l4xx_hal_ospi.c ****       else if (hospi->hdma->Init.PeriphDataAlignment == DMA_PDATAALIGN_HALFWORD)
 2458              		.loc 1 1544 21
 2459 0058 7B68     		ldr	r3, [r7, #4]
 2460 005a 9B6C     		ldr	r3, [r3, #72]
 2461              		.loc 1 1544 33
 2462 005c 5B69     		ldr	r3, [r3, #20]
 2463              		.loc 1 1544 15
 2464 005e B3F5807F 		cmp	r3, #256
 2465 0062 15D1     		bne	.L127
1545:Drivers/STM32L4xx_HAL_Driver/Src/stm32l4xx_hal_ospi.c ****       {
1546:Drivers/STM32L4xx_HAL_Driver/Src/stm32l4xx_hal_ospi.c ****         if (((data_size % 2U) != 0U) || ((hospi->Init.FifoThreshold % 2U) != 0U))
 2466              		.loc 1 1546 25
 2467 0064 3B69     		ldr	r3, [r7, #16]
 2468 0066 03F00103 		and	r3, r3, #1
 2469              		.loc 1 1546 12
 2470 006a 002B     		cmp	r3, #0
 2471 006c 05D1     		bne	.L128
 2472              		.loc 1 1546 54 discriminator 1
 2473 006e 7B68     		ldr	r3, [r7, #4]
 2474 0070 5B68     		ldr	r3, [r3, #4]
 2475              		.loc 1 1546 69 discriminator 1
 2476 0072 03F00103 		and	r3, r3, #1
 2477              		.loc 1 1546 38 discriminator 1
 2478 0076 002B     		cmp	r3, #0
 2479 0078 05D0     		beq	.L129
 2480              	.L128:
1547:Drivers/STM32L4xx_HAL_Driver/Src/stm32l4xx_hal_ospi.c ****         {
1548:Drivers/STM32L4xx_HAL_Driver/Src/stm32l4xx_hal_ospi.c ****           /* The number of data or the fifo threshold is not aligned on halfword
1549:Drivers/STM32L4xx_HAL_Driver/Src/stm32l4xx_hal_ospi.c ****           => no transfer possible with DMA peripheral access configured as halfword */
1550:Drivers/STM32L4xx_HAL_Driver/Src/stm32l4xx_hal_ospi.c ****           hospi->ErrorCode = HAL_OSPI_ERROR_INVALID_PARAM;
 2481              		.loc 1 1550 28
 2482 007a 7B68     		ldr	r3, [r7, #4]
 2483 007c 0822     		movs	r2, #8
 2484 007e 1A65     		str	r2, [r3, #80]
1551:Drivers/STM32L4xx_HAL_Driver/Src/stm32l4xx_hal_ospi.c ****           status = HAL_ERROR;
 2485              		.loc 1 1551 18
 2486 0080 0123     		movs	r3, #1
 2487 0082 FB75     		strb	r3, [r7, #23]
 2488 0084 1FE0     		b	.L126
 2489              	.L129:
1552:Drivers/STM32L4xx_HAL_Driver/Src/stm32l4xx_hal_ospi.c ****         }
1553:Drivers/STM32L4xx_HAL_Driver/Src/stm32l4xx_hal_ospi.c ****         else
1554:Drivers/STM32L4xx_HAL_Driver/Src/stm32l4xx_hal_ospi.c ****         {
1555:Drivers/STM32L4xx_HAL_Driver/Src/stm32l4xx_hal_ospi.c ****           hospi->XferCount = (data_size >> 1);
 2490              		.loc 1 1555 41
 2491 0086 3B69     		ldr	r3, [r7, #16]
 2492 0088 5A08     		lsrs	r2, r3, #1
 2493              		.loc 1 1555 28
 2494 008a 7B68     		ldr	r3, [r7, #4]
ARM GAS  C:\Users\Morroway\AppData\Local\Temp\ccxQAUQ3.s 			page 72


 2495 008c 5A64     		str	r2, [r3, #68]
 2496 008e 1AE0     		b	.L126
 2497              	.L127:
1556:Drivers/STM32L4xx_HAL_Driver/Src/stm32l4xx_hal_ospi.c ****         }
1557:Drivers/STM32L4xx_HAL_Driver/Src/stm32l4xx_hal_ospi.c ****       }
1558:Drivers/STM32L4xx_HAL_Driver/Src/stm32l4xx_hal_ospi.c ****       else if (hospi->hdma->Init.PeriphDataAlignment == DMA_PDATAALIGN_WORD)
 2498              		.loc 1 1558 21
 2499 0090 7B68     		ldr	r3, [r7, #4]
 2500 0092 9B6C     		ldr	r3, [r3, #72]
 2501              		.loc 1 1558 33
 2502 0094 5B69     		ldr	r3, [r3, #20]
 2503              		.loc 1 1558 15
 2504 0096 B3F5007F 		cmp	r3, #512
 2505 009a 14D1     		bne	.L126
1559:Drivers/STM32L4xx_HAL_Driver/Src/stm32l4xx_hal_ospi.c ****       {
1560:Drivers/STM32L4xx_HAL_Driver/Src/stm32l4xx_hal_ospi.c ****         if (((data_size % 4U) != 0U) || ((hospi->Init.FifoThreshold % 4U) != 0U))
 2506              		.loc 1 1560 25
 2507 009c 3B69     		ldr	r3, [r7, #16]
 2508 009e 03F00303 		and	r3, r3, #3
 2509              		.loc 1 1560 12
 2510 00a2 002B     		cmp	r3, #0
 2511 00a4 05D1     		bne	.L131
 2512              		.loc 1 1560 54 discriminator 1
 2513 00a6 7B68     		ldr	r3, [r7, #4]
 2514 00a8 5B68     		ldr	r3, [r3, #4]
 2515              		.loc 1 1560 69 discriminator 1
 2516 00aa 03F00303 		and	r3, r3, #3
 2517              		.loc 1 1560 38 discriminator 1
 2518 00ae 002B     		cmp	r3, #0
 2519 00b0 05D0     		beq	.L132
 2520              	.L131:
1561:Drivers/STM32L4xx_HAL_Driver/Src/stm32l4xx_hal_ospi.c ****         {
1562:Drivers/STM32L4xx_HAL_Driver/Src/stm32l4xx_hal_ospi.c ****           /* The number of data or the fifo threshold is not aligned on word
1563:Drivers/STM32L4xx_HAL_Driver/Src/stm32l4xx_hal_ospi.c ****           => no transfer possible with DMA peripheral access configured as word */
1564:Drivers/STM32L4xx_HAL_Driver/Src/stm32l4xx_hal_ospi.c ****           hospi->ErrorCode = HAL_OSPI_ERROR_INVALID_PARAM;
 2521              		.loc 1 1564 28
 2522 00b2 7B68     		ldr	r3, [r7, #4]
 2523 00b4 0822     		movs	r2, #8
 2524 00b6 1A65     		str	r2, [r3, #80]
1565:Drivers/STM32L4xx_HAL_Driver/Src/stm32l4xx_hal_ospi.c ****           status = HAL_ERROR;
 2525              		.loc 1 1565 18
 2526 00b8 0123     		movs	r3, #1
 2527 00ba FB75     		strb	r3, [r7, #23]
 2528 00bc 03E0     		b	.L126
 2529              	.L132:
1566:Drivers/STM32L4xx_HAL_Driver/Src/stm32l4xx_hal_ospi.c ****         }
1567:Drivers/STM32L4xx_HAL_Driver/Src/stm32l4xx_hal_ospi.c ****         else
1568:Drivers/STM32L4xx_HAL_Driver/Src/stm32l4xx_hal_ospi.c ****         {
1569:Drivers/STM32L4xx_HAL_Driver/Src/stm32l4xx_hal_ospi.c ****           hospi->XferCount = (data_size >> 2);
 2530              		.loc 1 1569 41
 2531 00be 3B69     		ldr	r3, [r7, #16]
 2532 00c0 9A08     		lsrs	r2, r3, #2
 2533              		.loc 1 1569 28
 2534 00c2 7B68     		ldr	r3, [r7, #4]
 2535 00c4 5A64     		str	r2, [r3, #68]
 2536              	.L126:
1570:Drivers/STM32L4xx_HAL_Driver/Src/stm32l4xx_hal_ospi.c ****         }
ARM GAS  C:\Users\Morroway\AppData\Local\Temp\ccxQAUQ3.s 			page 73


1571:Drivers/STM32L4xx_HAL_Driver/Src/stm32l4xx_hal_ospi.c ****       }
1572:Drivers/STM32L4xx_HAL_Driver/Src/stm32l4xx_hal_ospi.c ****       else
1573:Drivers/STM32L4xx_HAL_Driver/Src/stm32l4xx_hal_ospi.c ****       {
1574:Drivers/STM32L4xx_HAL_Driver/Src/stm32l4xx_hal_ospi.c ****         /* Nothing to do */
1575:Drivers/STM32L4xx_HAL_Driver/Src/stm32l4xx_hal_ospi.c ****       }
1576:Drivers/STM32L4xx_HAL_Driver/Src/stm32l4xx_hal_ospi.c **** 
1577:Drivers/STM32L4xx_HAL_Driver/Src/stm32l4xx_hal_ospi.c ****       if (status == HAL_OK)
 2537              		.loc 1 1577 10
 2538 00c6 FB7D     		ldrb	r3, [r7, #23]	@ zero_extendqisi2
 2539 00c8 002B     		cmp	r3, #0
 2540 00ca 40F08380 		bne	.L123
1578:Drivers/STM32L4xx_HAL_Driver/Src/stm32l4xx_hal_ospi.c ****       {
1579:Drivers/STM32L4xx_HAL_Driver/Src/stm32l4xx_hal_ospi.c ****         hospi->XferSize  = hospi->XferCount;
 2541              		.loc 1 1579 33
 2542 00ce 7B68     		ldr	r3, [r7, #4]
 2543 00d0 5A6C     		ldr	r2, [r3, #68]
 2544              		.loc 1 1579 26
 2545 00d2 7B68     		ldr	r3, [r7, #4]
 2546 00d4 1A64     		str	r2, [r3, #64]
1580:Drivers/STM32L4xx_HAL_Driver/Src/stm32l4xx_hal_ospi.c ****         hospi->pBuffPtr  = pData;
 2547              		.loc 1 1580 26
 2548 00d6 7B68     		ldr	r3, [r7, #4]
 2549 00d8 3A68     		ldr	r2, [r7]
 2550 00da DA63     		str	r2, [r3, #60]
1581:Drivers/STM32L4xx_HAL_Driver/Src/stm32l4xx_hal_ospi.c **** 
1582:Drivers/STM32L4xx_HAL_Driver/Src/stm32l4xx_hal_ospi.c ****         /* Configure CR register with functional mode as indirect read */
1583:Drivers/STM32L4xx_HAL_Driver/Src/stm32l4xx_hal_ospi.c ****         MODIFY_REG(hospi->Instance->CR, OCTOSPI_CR_FMODE, OSPI_FUNCTIONAL_MODE_INDIRECT_READ);
 2551              		.loc 1 1583 9
 2552 00dc 7B68     		ldr	r3, [r7, #4]
 2553 00de 1B68     		ldr	r3, [r3]
 2554 00e0 1B68     		ldr	r3, [r3]
 2555 00e2 23F04052 		bic	r2, r3, #805306368
 2556 00e6 7B68     		ldr	r3, [r7, #4]
 2557 00e8 1B68     		ldr	r3, [r3]
 2558 00ea 42F08052 		orr	r2, r2, #268435456
 2559 00ee 1A60     		str	r2, [r3]
1584:Drivers/STM32L4xx_HAL_Driver/Src/stm32l4xx_hal_ospi.c **** 
1585:Drivers/STM32L4xx_HAL_Driver/Src/stm32l4xx_hal_ospi.c ****         /* Clear flags related to interrupt */
1586:Drivers/STM32L4xx_HAL_Driver/Src/stm32l4xx_hal_ospi.c ****         __HAL_OSPI_CLEAR_FLAG(hospi, HAL_OSPI_FLAG_TE | HAL_OSPI_FLAG_TC);
 2560              		.loc 1 1586 9
 2561 00f0 7B68     		ldr	r3, [r7, #4]
 2562 00f2 1B68     		ldr	r3, [r3]
 2563 00f4 0322     		movs	r2, #3
 2564 00f6 5A62     		str	r2, [r3, #36]
1587:Drivers/STM32L4xx_HAL_Driver/Src/stm32l4xx_hal_ospi.c **** 
1588:Drivers/STM32L4xx_HAL_Driver/Src/stm32l4xx_hal_ospi.c ****         /* Update the state */
1589:Drivers/STM32L4xx_HAL_Driver/Src/stm32l4xx_hal_ospi.c ****         hospi->State = HAL_OSPI_STATE_BUSY_RX;
 2565              		.loc 1 1589 22
 2566 00f8 7B68     		ldr	r3, [r7, #4]
 2567 00fa 2822     		movs	r2, #40
 2568 00fc DA64     		str	r2, [r3, #76]
1590:Drivers/STM32L4xx_HAL_Driver/Src/stm32l4xx_hal_ospi.c **** 
1591:Drivers/STM32L4xx_HAL_Driver/Src/stm32l4xx_hal_ospi.c ****         /* Set the DMA transfer complete callback */
1592:Drivers/STM32L4xx_HAL_Driver/Src/stm32l4xx_hal_ospi.c ****         hospi->hdma->XferCpltCallback = OSPI_DMACplt;
 2569              		.loc 1 1592 14
 2570 00fe 7B68     		ldr	r3, [r7, #4]
 2571 0100 9B6C     		ldr	r3, [r3, #72]
ARM GAS  C:\Users\Morroway\AppData\Local\Temp\ccxQAUQ3.s 			page 74


 2572              		.loc 1 1592 39
 2573 0102 374A     		ldr	r2, .L139
 2574 0104 DA62     		str	r2, [r3, #44]
1593:Drivers/STM32L4xx_HAL_Driver/Src/stm32l4xx_hal_ospi.c **** 
1594:Drivers/STM32L4xx_HAL_Driver/Src/stm32l4xx_hal_ospi.c ****         /* Set the DMA Half transfer complete callback */
1595:Drivers/STM32L4xx_HAL_Driver/Src/stm32l4xx_hal_ospi.c ****         hospi->hdma->XferHalfCpltCallback = OSPI_DMAHalfCplt;
 2575              		.loc 1 1595 14
 2576 0106 7B68     		ldr	r3, [r7, #4]
 2577 0108 9B6C     		ldr	r3, [r3, #72]
 2578              		.loc 1 1595 43
 2579 010a 364A     		ldr	r2, .L139+4
 2580 010c 1A63     		str	r2, [r3, #48]
1596:Drivers/STM32L4xx_HAL_Driver/Src/stm32l4xx_hal_ospi.c **** 
1597:Drivers/STM32L4xx_HAL_Driver/Src/stm32l4xx_hal_ospi.c ****         /* Set the DMA error callback */
1598:Drivers/STM32L4xx_HAL_Driver/Src/stm32l4xx_hal_ospi.c ****         hospi->hdma->XferErrorCallback = OSPI_DMAError;
 2581              		.loc 1 1598 14
 2582 010e 7B68     		ldr	r3, [r7, #4]
 2583 0110 9B6C     		ldr	r3, [r3, #72]
 2584              		.loc 1 1598 40
 2585 0112 354A     		ldr	r2, .L139+8
 2586 0114 5A63     		str	r2, [r3, #52]
1599:Drivers/STM32L4xx_HAL_Driver/Src/stm32l4xx_hal_ospi.c **** 
1600:Drivers/STM32L4xx_HAL_Driver/Src/stm32l4xx_hal_ospi.c ****         /* Clear the DMA abort callback */
1601:Drivers/STM32L4xx_HAL_Driver/Src/stm32l4xx_hal_ospi.c ****         hospi->hdma->XferAbortCallback = NULL;
 2587              		.loc 1 1601 14
 2588 0116 7B68     		ldr	r3, [r7, #4]
 2589 0118 9B6C     		ldr	r3, [r3, #72]
 2590              		.loc 1 1601 40
 2591 011a 0022     		movs	r2, #0
 2592 011c 9A63     		str	r2, [r3, #56]
1602:Drivers/STM32L4xx_HAL_Driver/Src/stm32l4xx_hal_ospi.c **** 
1603:Drivers/STM32L4xx_HAL_Driver/Src/stm32l4xx_hal_ospi.c ****         /* Configure the direction of the DMA */
1604:Drivers/STM32L4xx_HAL_Driver/Src/stm32l4xx_hal_ospi.c ****         hospi->hdma->Init.Direction = DMA_PERIPH_TO_MEMORY;
 2593              		.loc 1 1604 14
 2594 011e 7B68     		ldr	r3, [r7, #4]
 2595 0120 9B6C     		ldr	r3, [r3, #72]
 2596              		.loc 1 1604 37
 2597 0122 0022     		movs	r2, #0
 2598 0124 9A60     		str	r2, [r3, #8]
1605:Drivers/STM32L4xx_HAL_Driver/Src/stm32l4xx_hal_ospi.c ****         MODIFY_REG(hospi->hdma->Instance->CCR, DMA_CCR_DIR, hospi->hdma->Init.Direction);
 2599              		.loc 1 1605 9
 2600 0126 7B68     		ldr	r3, [r7, #4]
 2601 0128 9B6C     		ldr	r3, [r3, #72]
 2602 012a 1B68     		ldr	r3, [r3]
 2603 012c 1B68     		ldr	r3, [r3]
 2604 012e 23F01001 		bic	r1, r3, #16
 2605 0132 7B68     		ldr	r3, [r7, #4]
 2606 0134 9B6C     		ldr	r3, [r3, #72]
 2607 0136 9A68     		ldr	r2, [r3, #8]
 2608 0138 7B68     		ldr	r3, [r7, #4]
 2609 013a 9B6C     		ldr	r3, [r3, #72]
 2610 013c 1B68     		ldr	r3, [r3]
 2611 013e 0A43     		orrs	r2, r2, r1
 2612 0140 1A60     		str	r2, [r3]
1606:Drivers/STM32L4xx_HAL_Driver/Src/stm32l4xx_hal_ospi.c **** 
1607:Drivers/STM32L4xx_HAL_Driver/Src/stm32l4xx_hal_ospi.c ****           /* Enable the transmit DMA Channel */
1608:Drivers/STM32L4xx_HAL_Driver/Src/stm32l4xx_hal_ospi.c ****           if (HAL_DMA_Start_IT(hospi->hdma, (uint32_t)&hospi->Instance->DR, (uint32_t)pData, hospi-
ARM GAS  C:\Users\Morroway\AppData\Local\Temp\ccxQAUQ3.s 			page 75


 2613              		.loc 1 1608 15
 2614 0142 7B68     		ldr	r3, [r7, #4]
 2615 0144 986C     		ldr	r0, [r3, #72]
 2616              		.loc 1 1608 61
 2617 0146 7B68     		ldr	r3, [r7, #4]
 2618 0148 1B68     		ldr	r3, [r3]
 2619              		.loc 1 1608 55
 2620 014a 5033     		adds	r3, r3, #80
 2621              		.loc 1 1608 15
 2622 014c 1946     		mov	r1, r3
 2623 014e 3A68     		ldr	r2, [r7]
 2624              		.loc 1 1608 99
 2625 0150 7B68     		ldr	r3, [r7, #4]
 2626 0152 1B6C     		ldr	r3, [r3, #64]
 2627              		.loc 1 1608 15
 2628 0154 FFF7FEFF 		bl	HAL_DMA_Start_IT
 2629 0158 0346     		mov	r3, r0
 2630              		.loc 1 1608 14
 2631 015a 002B     		cmp	r3, #0
 2632 015c 2CD1     		bne	.L134
1609:Drivers/STM32L4xx_HAL_Driver/Src/stm32l4xx_hal_ospi.c ****           {
1610:Drivers/STM32L4xx_HAL_Driver/Src/stm32l4xx_hal_ospi.c ****             /* Enable the transfer error interrupt */
1611:Drivers/STM32L4xx_HAL_Driver/Src/stm32l4xx_hal_ospi.c ****             __HAL_OSPI_ENABLE_IT(hospi, HAL_OSPI_IT_TE);
 2633              		.loc 1 1611 13
 2634 015e 7B68     		ldr	r3, [r7, #4]
 2635 0160 1B68     		ldr	r3, [r3]
 2636 0162 1A68     		ldr	r2, [r3]
 2637 0164 7B68     		ldr	r3, [r7, #4]
 2638 0166 1B68     		ldr	r3, [r3]
 2639 0168 42F48032 		orr	r2, r2, #65536
 2640 016c 1A60     		str	r2, [r3]
1612:Drivers/STM32L4xx_HAL_Driver/Src/stm32l4xx_hal_ospi.c **** 
1613:Drivers/STM32L4xx_HAL_Driver/Src/stm32l4xx_hal_ospi.c ****             /* Trig the transfer by re-writing address or instruction register */
1614:Drivers/STM32L4xx_HAL_Driver/Src/stm32l4xx_hal_ospi.c ****             if (hospi->Init.MemoryType == HAL_OSPI_MEMTYPE_HYPERBUS)
 2641              		.loc 1 1614 28
 2642 016e 7B68     		ldr	r3, [r7, #4]
 2643 0170 DB68     		ldr	r3, [r3, #12]
 2644              		.loc 1 1614 16
 2645 0172 B3F1806F 		cmp	r3, #67108864
 2646 0176 04D1     		bne	.L135
1615:Drivers/STM32L4xx_HAL_Driver/Src/stm32l4xx_hal_ospi.c ****             {
1616:Drivers/STM32L4xx_HAL_Driver/Src/stm32l4xx_hal_ospi.c ****               WRITE_REG(hospi->Instance->AR, addr_reg);
 2647              		.loc 1 1616 15
 2648 0178 7B68     		ldr	r3, [r7, #4]
 2649 017a 1B68     		ldr	r3, [r3]
 2650 017c FA68     		ldr	r2, [r7, #12]
 2651 017e 9A64     		str	r2, [r3, #72]
 2652 0180 11E0     		b	.L136
 2653              	.L135:
1617:Drivers/STM32L4xx_HAL_Driver/Src/stm32l4xx_hal_ospi.c ****             }
1618:Drivers/STM32L4xx_HAL_Driver/Src/stm32l4xx_hal_ospi.c ****             else
1619:Drivers/STM32L4xx_HAL_Driver/Src/stm32l4xx_hal_ospi.c ****             {
1620:Drivers/STM32L4xx_HAL_Driver/Src/stm32l4xx_hal_ospi.c ****               if (READ_BIT(hospi->Instance->CCR, OCTOSPI_CCR_ADMODE) != HAL_OSPI_ADDRESS_NONE)
 2654              		.loc 1 1620 19
 2655 0182 7B68     		ldr	r3, [r7, #4]
 2656 0184 1B68     		ldr	r3, [r3]
 2657 0186 D3F80031 		ldr	r3, [r3, #256]
ARM GAS  C:\Users\Morroway\AppData\Local\Temp\ccxQAUQ3.s 			page 76


 2658 018a 03F4E063 		and	r3, r3, #1792
 2659              		.loc 1 1620 18
 2660 018e 002B     		cmp	r3, #0
 2661 0190 04D0     		beq	.L137
1621:Drivers/STM32L4xx_HAL_Driver/Src/stm32l4xx_hal_ospi.c ****               {
1622:Drivers/STM32L4xx_HAL_Driver/Src/stm32l4xx_hal_ospi.c ****                 WRITE_REG(hospi->Instance->AR, addr_reg);
 2662              		.loc 1 1622 17
 2663 0192 7B68     		ldr	r3, [r7, #4]
 2664 0194 1B68     		ldr	r3, [r3]
 2665 0196 FA68     		ldr	r2, [r7, #12]
 2666 0198 9A64     		str	r2, [r3, #72]
 2667 019a 04E0     		b	.L136
 2668              	.L137:
1623:Drivers/STM32L4xx_HAL_Driver/Src/stm32l4xx_hal_ospi.c ****               }
1624:Drivers/STM32L4xx_HAL_Driver/Src/stm32l4xx_hal_ospi.c ****               else
1625:Drivers/STM32L4xx_HAL_Driver/Src/stm32l4xx_hal_ospi.c ****               {
1626:Drivers/STM32L4xx_HAL_Driver/Src/stm32l4xx_hal_ospi.c ****                 WRITE_REG(hospi->Instance->IR, ir_reg);
 2669              		.loc 1 1626 17
 2670 019c 7B68     		ldr	r3, [r7, #4]
 2671 019e 1B68     		ldr	r3, [r3]
 2672 01a0 BA68     		ldr	r2, [r7, #8]
 2673 01a2 C3F81021 		str	r2, [r3, #272]
 2674              	.L136:
1627:Drivers/STM32L4xx_HAL_Driver/Src/stm32l4xx_hal_ospi.c ****               }
1628:Drivers/STM32L4xx_HAL_Driver/Src/stm32l4xx_hal_ospi.c ****             }
1629:Drivers/STM32L4xx_HAL_Driver/Src/stm32l4xx_hal_ospi.c **** 
1630:Drivers/STM32L4xx_HAL_Driver/Src/stm32l4xx_hal_ospi.c ****             /* Enable the DMA transfer by setting the DMAEN bit  */
1631:Drivers/STM32L4xx_HAL_Driver/Src/stm32l4xx_hal_ospi.c ****             SET_BIT(hospi->Instance->CR, OCTOSPI_CR_DMAEN);
 2675              		.loc 1 1631 13
 2676 01a6 7B68     		ldr	r3, [r7, #4]
 2677 01a8 1B68     		ldr	r3, [r3]
 2678 01aa 1A68     		ldr	r2, [r3]
 2679 01ac 7B68     		ldr	r3, [r7, #4]
 2680 01ae 1B68     		ldr	r3, [r3]
 2681 01b0 42F00402 		orr	r2, r2, #4
 2682 01b4 1A60     		str	r2, [r3]
 2683 01b6 0DE0     		b	.L123
 2684              	.L134:
1632:Drivers/STM32L4xx_HAL_Driver/Src/stm32l4xx_hal_ospi.c ****           }
1633:Drivers/STM32L4xx_HAL_Driver/Src/stm32l4xx_hal_ospi.c ****           else
1634:Drivers/STM32L4xx_HAL_Driver/Src/stm32l4xx_hal_ospi.c ****           {
1635:Drivers/STM32L4xx_HAL_Driver/Src/stm32l4xx_hal_ospi.c ****             status = HAL_ERROR;
 2685              		.loc 1 1635 20
 2686 01b8 0123     		movs	r3, #1
 2687 01ba FB75     		strb	r3, [r7, #23]
1636:Drivers/STM32L4xx_HAL_Driver/Src/stm32l4xx_hal_ospi.c ****             hospi->ErrorCode = HAL_OSPI_ERROR_DMA;
 2688              		.loc 1 1636 30
 2689 01bc 7B68     		ldr	r3, [r7, #4]
 2690 01be 0422     		movs	r2, #4
 2691 01c0 1A65     		str	r2, [r3, #80]
1637:Drivers/STM32L4xx_HAL_Driver/Src/stm32l4xx_hal_ospi.c ****             hospi->State = HAL_OSPI_STATE_READY;
 2692              		.loc 1 1637 26
 2693 01c2 7B68     		ldr	r3, [r7, #4]
 2694 01c4 0222     		movs	r2, #2
 2695 01c6 DA64     		str	r2, [r3, #76]
 2696 01c8 04E0     		b	.L123
 2697              	.L124:
ARM GAS  C:\Users\Morroway\AppData\Local\Temp\ccxQAUQ3.s 			page 77


1638:Drivers/STM32L4xx_HAL_Driver/Src/stm32l4xx_hal_ospi.c ****           }
1639:Drivers/STM32L4xx_HAL_Driver/Src/stm32l4xx_hal_ospi.c ****       }
1640:Drivers/STM32L4xx_HAL_Driver/Src/stm32l4xx_hal_ospi.c ****     }
1641:Drivers/STM32L4xx_HAL_Driver/Src/stm32l4xx_hal_ospi.c ****     else
1642:Drivers/STM32L4xx_HAL_Driver/Src/stm32l4xx_hal_ospi.c ****     {
1643:Drivers/STM32L4xx_HAL_Driver/Src/stm32l4xx_hal_ospi.c ****       status = HAL_ERROR;
 2698              		.loc 1 1643 14
 2699 01ca 0123     		movs	r3, #1
 2700 01cc FB75     		strb	r3, [r7, #23]
1644:Drivers/STM32L4xx_HAL_Driver/Src/stm32l4xx_hal_ospi.c ****       hospi->ErrorCode = HAL_OSPI_ERROR_INVALID_SEQUENCE;
 2701              		.loc 1 1644 24
 2702 01ce 7B68     		ldr	r3, [r7, #4]
 2703 01d0 1022     		movs	r2, #16
 2704 01d2 1A65     		str	r2, [r3, #80]
 2705              	.L123:
1645:Drivers/STM32L4xx_HAL_Driver/Src/stm32l4xx_hal_ospi.c ****     }
1646:Drivers/STM32L4xx_HAL_Driver/Src/stm32l4xx_hal_ospi.c ****   }
1647:Drivers/STM32L4xx_HAL_Driver/Src/stm32l4xx_hal_ospi.c **** 
1648:Drivers/STM32L4xx_HAL_Driver/Src/stm32l4xx_hal_ospi.c ****   /* Return function status */
1649:Drivers/STM32L4xx_HAL_Driver/Src/stm32l4xx_hal_ospi.c ****   return status;
 2706              		.loc 1 1649 10
 2707 01d4 FB7D     		ldrb	r3, [r7, #23]	@ zero_extendqisi2
1650:Drivers/STM32L4xx_HAL_Driver/Src/stm32l4xx_hal_ospi.c **** }
 2708              		.loc 1 1650 1
 2709 01d6 1846     		mov	r0, r3
 2710 01d8 1837     		adds	r7, r7, #24
 2711              		.cfi_def_cfa_offset 8
 2712 01da BD46     		mov	sp, r7
 2713              		.cfi_def_cfa_register 13
 2714              		@ sp needed
 2715 01dc 80BD     		pop	{r7, pc}
 2716              	.L140:
 2717 01de 00BF     		.align	2
 2718              	.L139:
 2719 01e0 00000000 		.word	OSPI_DMACplt
 2720 01e4 00000000 		.word	OSPI_DMAHalfCplt
 2721 01e8 00000000 		.word	OSPI_DMAError
 2722              		.cfi_endproc
 2723              	.LFE335:
 2725              		.section	.text.HAL_OSPI_AutoPolling,"ax",%progbits
 2726              		.align	1
 2727              		.global	HAL_OSPI_AutoPolling
 2728              		.syntax unified
 2729              		.thumb
 2730              		.thumb_func
 2732              	HAL_OSPI_AutoPolling:
 2733              	.LFB336:
1651:Drivers/STM32L4xx_HAL_Driver/Src/stm32l4xx_hal_ospi.c **** 
1652:Drivers/STM32L4xx_HAL_Driver/Src/stm32l4xx_hal_ospi.c **** /**
1653:Drivers/STM32L4xx_HAL_Driver/Src/stm32l4xx_hal_ospi.c ****   * @brief  Configure the OSPI Automatic Polling Mode in blocking mode.
1654:Drivers/STM32L4xx_HAL_Driver/Src/stm32l4xx_hal_ospi.c ****   * @param  hospi   : OSPI handle
1655:Drivers/STM32L4xx_HAL_Driver/Src/stm32l4xx_hal_ospi.c ****   * @param  cfg     : structure that contains the polling configuration information.
1656:Drivers/STM32L4xx_HAL_Driver/Src/stm32l4xx_hal_ospi.c ****   * @param  Timeout : Timeout duration
1657:Drivers/STM32L4xx_HAL_Driver/Src/stm32l4xx_hal_ospi.c ****   * @note   This function is used only in Automatic Polling Mode
1658:Drivers/STM32L4xx_HAL_Driver/Src/stm32l4xx_hal_ospi.c ****   * @note   This function should not be used when the memory is in octal mode (see Errata Sheet)
1659:Drivers/STM32L4xx_HAL_Driver/Src/stm32l4xx_hal_ospi.c ****   * @retval HAL status
1660:Drivers/STM32L4xx_HAL_Driver/Src/stm32l4xx_hal_ospi.c ****   */
ARM GAS  C:\Users\Morroway\AppData\Local\Temp\ccxQAUQ3.s 			page 78


1661:Drivers/STM32L4xx_HAL_Driver/Src/stm32l4xx_hal_ospi.c **** HAL_StatusTypeDef HAL_OSPI_AutoPolling(OSPI_HandleTypeDef *hospi, OSPI_AutoPollingTypeDef *cfg, uin
1662:Drivers/STM32L4xx_HAL_Driver/Src/stm32l4xx_hal_ospi.c **** {
 2734              		.loc 1 1662 1
 2735              		.cfi_startproc
 2736              		@ args = 0, pretend = 0, frame = 32
 2737              		@ frame_needed = 1, uses_anonymous_args = 0
 2738 0000 80B5     		push	{r7, lr}
 2739              		.cfi_def_cfa_offset 8
 2740              		.cfi_offset 7, -8
 2741              		.cfi_offset 14, -4
 2742 0002 8AB0     		sub	sp, sp, #40
 2743              		.cfi_def_cfa_offset 48
 2744 0004 02AF     		add	r7, sp, #8
 2745              		.cfi_def_cfa 7, 40
 2746 0006 F860     		str	r0, [r7, #12]
 2747 0008 B960     		str	r1, [r7, #8]
 2748 000a 7A60     		str	r2, [r7, #4]
1663:Drivers/STM32L4xx_HAL_Driver/Src/stm32l4xx_hal_ospi.c ****   HAL_StatusTypeDef status;
1664:Drivers/STM32L4xx_HAL_Driver/Src/stm32l4xx_hal_ospi.c ****   uint32_t tickstart = HAL_GetTick();
 2749              		.loc 1 1664 24
 2750 000c FFF7FEFF 		bl	HAL_GetTick
 2751 0010 B861     		str	r0, [r7, #24]
1665:Drivers/STM32L4xx_HAL_Driver/Src/stm32l4xx_hal_ospi.c ****   uint32_t addr_reg = hospi->Instance->AR;
 2752              		.loc 1 1665 28
 2753 0012 FB68     		ldr	r3, [r7, #12]
 2754 0014 1B68     		ldr	r3, [r3]
 2755              		.loc 1 1665 12
 2756 0016 9B6C     		ldr	r3, [r3, #72]
 2757 0018 7B61     		str	r3, [r7, #20]
1666:Drivers/STM32L4xx_HAL_Driver/Src/stm32l4xx_hal_ospi.c ****   uint32_t ir_reg = hospi->Instance->IR;
 2758              		.loc 1 1666 26
 2759 001a FB68     		ldr	r3, [r7, #12]
 2760 001c 1B68     		ldr	r3, [r3]
 2761              		.loc 1 1666 12
 2762 001e D3F81031 		ldr	r3, [r3, #272]
 2763 0022 3B61     		str	r3, [r7, #16]
1667:Drivers/STM32L4xx_HAL_Driver/Src/stm32l4xx_hal_ospi.c **** #ifdef USE_FULL_ASSERT
1668:Drivers/STM32L4xx_HAL_Driver/Src/stm32l4xx_hal_ospi.c ****   uint32_t dlr_reg = hospi->Instance->DLR;
1669:Drivers/STM32L4xx_HAL_Driver/Src/stm32l4xx_hal_ospi.c **** #endif /* USE_FULL_ASSERT */
1670:Drivers/STM32L4xx_HAL_Driver/Src/stm32l4xx_hal_ospi.c **** 
1671:Drivers/STM32L4xx_HAL_Driver/Src/stm32l4xx_hal_ospi.c ****   /* Check the parameters of the autopolling configuration structure */
1672:Drivers/STM32L4xx_HAL_Driver/Src/stm32l4xx_hal_ospi.c ****   assert_param(IS_OSPI_MATCH_MODE       (cfg->MatchMode));
1673:Drivers/STM32L4xx_HAL_Driver/Src/stm32l4xx_hal_ospi.c ****   assert_param(IS_OSPI_AUTOMATIC_STOP   (cfg->AutomaticStop));
1674:Drivers/STM32L4xx_HAL_Driver/Src/stm32l4xx_hal_ospi.c ****   assert_param(IS_OSPI_INTERVAL         (cfg->Interval));
1675:Drivers/STM32L4xx_HAL_Driver/Src/stm32l4xx_hal_ospi.c ****   assert_param(IS_OSPI_STATUS_BYTES_SIZE(dlr_reg+1U));
1676:Drivers/STM32L4xx_HAL_Driver/Src/stm32l4xx_hal_ospi.c **** 
1677:Drivers/STM32L4xx_HAL_Driver/Src/stm32l4xx_hal_ospi.c ****   /* Check the state */
1678:Drivers/STM32L4xx_HAL_Driver/Src/stm32l4xx_hal_ospi.c ****   if ((hospi->State == HAL_OSPI_STATE_CMD_CFG) && (cfg->AutomaticStop == HAL_OSPI_AUTOMATIC_STOP_EN
 2764              		.loc 1 1678 13
 2765 0024 FB68     		ldr	r3, [r7, #12]
 2766 0026 DB6C     		ldr	r3, [r3, #76]
 2767              		.loc 1 1678 6
 2768 0028 042B     		cmp	r3, #4
 2769 002a 64D1     		bne	.L142
 2770              		.loc 1 1678 55 discriminator 1
 2771 002c BB68     		ldr	r3, [r7, #8]
 2772 002e DB68     		ldr	r3, [r3, #12]
ARM GAS  C:\Users\Morroway\AppData\Local\Temp\ccxQAUQ3.s 			page 79


 2773              		.loc 1 1678 48 discriminator 1
 2774 0030 B3F5800F 		cmp	r3, #4194304
 2775 0034 5FD1     		bne	.L142
1679:Drivers/STM32L4xx_HAL_Driver/Src/stm32l4xx_hal_ospi.c ****   {
1680:Drivers/STM32L4xx_HAL_Driver/Src/stm32l4xx_hal_ospi.c ****     /* Wait till busy flag is reset */
1681:Drivers/STM32L4xx_HAL_Driver/Src/stm32l4xx_hal_ospi.c ****     status = OSPI_WaitFlagStateUntilTimeout(hospi, HAL_OSPI_FLAG_BUSY, RESET, tickstart, Timeout);
 2776              		.loc 1 1681 14
 2777 0036 7B68     		ldr	r3, [r7, #4]
 2778 0038 0093     		str	r3, [sp]
 2779 003a BB69     		ldr	r3, [r7, #24]
 2780 003c 0022     		movs	r2, #0
 2781 003e 2021     		movs	r1, #32
 2782 0040 F868     		ldr	r0, [r7, #12]
 2783 0042 FFF7FEFF 		bl	OSPI_WaitFlagStateUntilTimeout
 2784 0046 0346     		mov	r3, r0
 2785 0048 FB77     		strb	r3, [r7, #31]
1682:Drivers/STM32L4xx_HAL_Driver/Src/stm32l4xx_hal_ospi.c **** 
1683:Drivers/STM32L4xx_HAL_Driver/Src/stm32l4xx_hal_ospi.c ****     if (status == HAL_OK)
 2786              		.loc 1 1683 8
 2787 004a FB7F     		ldrb	r3, [r7, #31]	@ zero_extendqisi2
 2788 004c 002B     		cmp	r3, #0
 2789 004e 58D1     		bne	.L149
1684:Drivers/STM32L4xx_HAL_Driver/Src/stm32l4xx_hal_ospi.c ****     {
1685:Drivers/STM32L4xx_HAL_Driver/Src/stm32l4xx_hal_ospi.c ****       /* Configure registers */
1686:Drivers/STM32L4xx_HAL_Driver/Src/stm32l4xx_hal_ospi.c ****       WRITE_REG (hospi->Instance->PSMAR, cfg->Match);
 2790              		.loc 1 1686 7
 2791 0050 FB68     		ldr	r3, [r7, #12]
 2792 0052 1B68     		ldr	r3, [r3]
 2793 0054 BA68     		ldr	r2, [r7, #8]
 2794 0056 1268     		ldr	r2, [r2]
 2795 0058 C3F88820 		str	r2, [r3, #136]
1687:Drivers/STM32L4xx_HAL_Driver/Src/stm32l4xx_hal_ospi.c ****       WRITE_REG (hospi->Instance->PSMKR, cfg->Mask);
 2796              		.loc 1 1687 7
 2797 005c FB68     		ldr	r3, [r7, #12]
 2798 005e 1B68     		ldr	r3, [r3]
 2799 0060 BA68     		ldr	r2, [r7, #8]
 2800 0062 5268     		ldr	r2, [r2, #4]
 2801 0064 C3F88020 		str	r2, [r3, #128]
1688:Drivers/STM32L4xx_HAL_Driver/Src/stm32l4xx_hal_ospi.c ****       WRITE_REG (hospi->Instance->PIR,   cfg->Interval);
 2802              		.loc 1 1688 7
 2803 0068 FB68     		ldr	r3, [r7, #12]
 2804 006a 1B68     		ldr	r3, [r3]
 2805 006c BA68     		ldr	r2, [r7, #8]
 2806 006e 1269     		ldr	r2, [r2, #16]
 2807 0070 C3F89020 		str	r2, [r3, #144]
1689:Drivers/STM32L4xx_HAL_Driver/Src/stm32l4xx_hal_ospi.c ****       MODIFY_REG(hospi->Instance->CR,    (OCTOSPI_CR_PMM | OCTOSPI_CR_APMS | OCTOSPI_CR_FMODE),
 2808              		.loc 1 1689 7
 2809 0074 FB68     		ldr	r3, [r7, #12]
 2810 0076 1B68     		ldr	r3, [r3]
 2811 0078 1B68     		ldr	r3, [r3]
 2812 007a 23F04352 		bic	r2, r3, #817889280
 2813 007e BB68     		ldr	r3, [r7, #8]
 2814 0080 9968     		ldr	r1, [r3, #8]
 2815 0082 BB68     		ldr	r3, [r7, #8]
 2816 0084 DB68     		ldr	r3, [r3, #12]
 2817 0086 0B43     		orrs	r3, r3, r1
 2818 0088 1A43     		orrs	r2, r2, r3
ARM GAS  C:\Users\Morroway\AppData\Local\Temp\ccxQAUQ3.s 			page 80


 2819 008a FB68     		ldr	r3, [r7, #12]
 2820 008c 1B68     		ldr	r3, [r3]
 2821 008e 42F00052 		orr	r2, r2, #536870912
 2822 0092 1A60     		str	r2, [r3]
1690:Drivers/STM32L4xx_HAL_Driver/Src/stm32l4xx_hal_ospi.c ****                  (cfg->MatchMode | cfg->AutomaticStop | OSPI_FUNCTIONAL_MODE_AUTO_POLLING));
1691:Drivers/STM32L4xx_HAL_Driver/Src/stm32l4xx_hal_ospi.c **** 
1692:Drivers/STM32L4xx_HAL_Driver/Src/stm32l4xx_hal_ospi.c ****       /* Trig the transfer by re-writing address or instruction register */
1693:Drivers/STM32L4xx_HAL_Driver/Src/stm32l4xx_hal_ospi.c ****       if (hospi->Init.MemoryType == HAL_OSPI_MEMTYPE_HYPERBUS)
 2823              		.loc 1 1693 22
 2824 0094 FB68     		ldr	r3, [r7, #12]
 2825 0096 DB68     		ldr	r3, [r3, #12]
 2826              		.loc 1 1693 10
 2827 0098 B3F1806F 		cmp	r3, #67108864
 2828 009c 04D1     		bne	.L144
1694:Drivers/STM32L4xx_HAL_Driver/Src/stm32l4xx_hal_ospi.c ****       {
1695:Drivers/STM32L4xx_HAL_Driver/Src/stm32l4xx_hal_ospi.c ****         WRITE_REG(hospi->Instance->AR, addr_reg);
 2829              		.loc 1 1695 9
 2830 009e FB68     		ldr	r3, [r7, #12]
 2831 00a0 1B68     		ldr	r3, [r3]
 2832 00a2 7A69     		ldr	r2, [r7, #20]
 2833 00a4 9A64     		str	r2, [r3, #72]
 2834 00a6 11E0     		b	.L145
 2835              	.L144:
1696:Drivers/STM32L4xx_HAL_Driver/Src/stm32l4xx_hal_ospi.c ****       }
1697:Drivers/STM32L4xx_HAL_Driver/Src/stm32l4xx_hal_ospi.c ****       else
1698:Drivers/STM32L4xx_HAL_Driver/Src/stm32l4xx_hal_ospi.c ****       {
1699:Drivers/STM32L4xx_HAL_Driver/Src/stm32l4xx_hal_ospi.c ****         if (READ_BIT(hospi->Instance->CCR, OCTOSPI_CCR_ADMODE) != HAL_OSPI_ADDRESS_NONE)
 2836              		.loc 1 1699 13
 2837 00a8 FB68     		ldr	r3, [r7, #12]
 2838 00aa 1B68     		ldr	r3, [r3]
 2839 00ac D3F80031 		ldr	r3, [r3, #256]
 2840 00b0 03F4E063 		and	r3, r3, #1792
 2841              		.loc 1 1699 12
 2842 00b4 002B     		cmp	r3, #0
 2843 00b6 04D0     		beq	.L146
1700:Drivers/STM32L4xx_HAL_Driver/Src/stm32l4xx_hal_ospi.c ****         {
1701:Drivers/STM32L4xx_HAL_Driver/Src/stm32l4xx_hal_ospi.c ****           WRITE_REG(hospi->Instance->AR, addr_reg);
 2844              		.loc 1 1701 11
 2845 00b8 FB68     		ldr	r3, [r7, #12]
 2846 00ba 1B68     		ldr	r3, [r3]
 2847 00bc 7A69     		ldr	r2, [r7, #20]
 2848 00be 9A64     		str	r2, [r3, #72]
 2849 00c0 04E0     		b	.L145
 2850              	.L146:
1702:Drivers/STM32L4xx_HAL_Driver/Src/stm32l4xx_hal_ospi.c ****         }
1703:Drivers/STM32L4xx_HAL_Driver/Src/stm32l4xx_hal_ospi.c ****         else
1704:Drivers/STM32L4xx_HAL_Driver/Src/stm32l4xx_hal_ospi.c ****         {
1705:Drivers/STM32L4xx_HAL_Driver/Src/stm32l4xx_hal_ospi.c ****           WRITE_REG(hospi->Instance->IR, ir_reg);
 2851              		.loc 1 1705 11
 2852 00c2 FB68     		ldr	r3, [r7, #12]
 2853 00c4 1B68     		ldr	r3, [r3]
 2854 00c6 3A69     		ldr	r2, [r7, #16]
 2855 00c8 C3F81021 		str	r2, [r3, #272]
 2856              	.L145:
1706:Drivers/STM32L4xx_HAL_Driver/Src/stm32l4xx_hal_ospi.c ****         }
1707:Drivers/STM32L4xx_HAL_Driver/Src/stm32l4xx_hal_ospi.c ****       }
1708:Drivers/STM32L4xx_HAL_Driver/Src/stm32l4xx_hal_ospi.c **** 
ARM GAS  C:\Users\Morroway\AppData\Local\Temp\ccxQAUQ3.s 			page 81


1709:Drivers/STM32L4xx_HAL_Driver/Src/stm32l4xx_hal_ospi.c ****       /* Wait till status match flag is set to go back in idle state */
1710:Drivers/STM32L4xx_HAL_Driver/Src/stm32l4xx_hal_ospi.c ****       status = OSPI_WaitFlagStateUntilTimeout(hospi, HAL_OSPI_FLAG_SM, SET, tickstart, Timeout);
 2857              		.loc 1 1710 16
 2858 00cc 7B68     		ldr	r3, [r7, #4]
 2859 00ce 0093     		str	r3, [sp]
 2860 00d0 BB69     		ldr	r3, [r7, #24]
 2861 00d2 0122     		movs	r2, #1
 2862 00d4 0821     		movs	r1, #8
 2863 00d6 F868     		ldr	r0, [r7, #12]
 2864 00d8 FFF7FEFF 		bl	OSPI_WaitFlagStateUntilTimeout
 2865 00dc 0346     		mov	r3, r0
 2866 00de FB77     		strb	r3, [r7, #31]
1711:Drivers/STM32L4xx_HAL_Driver/Src/stm32l4xx_hal_ospi.c **** 
1712:Drivers/STM32L4xx_HAL_Driver/Src/stm32l4xx_hal_ospi.c ****       if (status == HAL_OK)
 2867              		.loc 1 1712 10
 2868 00e0 FB7F     		ldrb	r3, [r7, #31]	@ zero_extendqisi2
 2869 00e2 002B     		cmp	r3, #0
 2870 00e4 0DD1     		bne	.L149
1713:Drivers/STM32L4xx_HAL_Driver/Src/stm32l4xx_hal_ospi.c ****       {
1714:Drivers/STM32L4xx_HAL_Driver/Src/stm32l4xx_hal_ospi.c ****         /* Clear status match flag */
1715:Drivers/STM32L4xx_HAL_Driver/Src/stm32l4xx_hal_ospi.c ****         __HAL_OSPI_CLEAR_FLAG(hospi, HAL_OSPI_FLAG_SM);
 2871              		.loc 1 1715 9
 2872 00e6 FB68     		ldr	r3, [r7, #12]
 2873 00e8 1B68     		ldr	r3, [r3]
 2874 00ea 0822     		movs	r2, #8
 2875 00ec 5A62     		str	r2, [r3, #36]
1716:Drivers/STM32L4xx_HAL_Driver/Src/stm32l4xx_hal_ospi.c **** 
1717:Drivers/STM32L4xx_HAL_Driver/Src/stm32l4xx_hal_ospi.c ****         /* Update state */
1718:Drivers/STM32L4xx_HAL_Driver/Src/stm32l4xx_hal_ospi.c ****         hospi->State = HAL_OSPI_STATE_READY;
 2876              		.loc 1 1718 22
 2877 00ee FB68     		ldr	r3, [r7, #12]
 2878 00f0 0222     		movs	r2, #2
 2879 00f2 DA64     		str	r2, [r3, #76]
1683:Drivers/STM32L4xx_HAL_Driver/Src/stm32l4xx_hal_ospi.c ****     {
 2880              		.loc 1 1683 8
 2881 00f4 05E0     		b	.L149
 2882              	.L142:
1719:Drivers/STM32L4xx_HAL_Driver/Src/stm32l4xx_hal_ospi.c ****       }
1720:Drivers/STM32L4xx_HAL_Driver/Src/stm32l4xx_hal_ospi.c ****     }
1721:Drivers/STM32L4xx_HAL_Driver/Src/stm32l4xx_hal_ospi.c ****   }
1722:Drivers/STM32L4xx_HAL_Driver/Src/stm32l4xx_hal_ospi.c ****   else
1723:Drivers/STM32L4xx_HAL_Driver/Src/stm32l4xx_hal_ospi.c ****   {
1724:Drivers/STM32L4xx_HAL_Driver/Src/stm32l4xx_hal_ospi.c ****     status = HAL_ERROR;
 2883              		.loc 1 1724 12
 2884 00f6 0123     		movs	r3, #1
 2885 00f8 FB77     		strb	r3, [r7, #31]
1725:Drivers/STM32L4xx_HAL_Driver/Src/stm32l4xx_hal_ospi.c ****     hospi->ErrorCode = HAL_OSPI_ERROR_INVALID_SEQUENCE;
 2886              		.loc 1 1725 22
 2887 00fa FB68     		ldr	r3, [r7, #12]
 2888 00fc 1022     		movs	r2, #16
 2889 00fe 1A65     		str	r2, [r3, #80]
 2890 0100 00E0     		b	.L147
 2891              	.L149:
1683:Drivers/STM32L4xx_HAL_Driver/Src/stm32l4xx_hal_ospi.c ****     {
 2892              		.loc 1 1683 8
 2893 0102 00BF     		nop
 2894              	.L147:
ARM GAS  C:\Users\Morroway\AppData\Local\Temp\ccxQAUQ3.s 			page 82


1726:Drivers/STM32L4xx_HAL_Driver/Src/stm32l4xx_hal_ospi.c ****   }
1727:Drivers/STM32L4xx_HAL_Driver/Src/stm32l4xx_hal_ospi.c **** 
1728:Drivers/STM32L4xx_HAL_Driver/Src/stm32l4xx_hal_ospi.c ****   /* Return function status */
1729:Drivers/STM32L4xx_HAL_Driver/Src/stm32l4xx_hal_ospi.c ****   return status;
 2895              		.loc 1 1729 10
 2896 0104 FB7F     		ldrb	r3, [r7, #31]	@ zero_extendqisi2
1730:Drivers/STM32L4xx_HAL_Driver/Src/stm32l4xx_hal_ospi.c **** }
 2897              		.loc 1 1730 1
 2898 0106 1846     		mov	r0, r3
 2899 0108 2037     		adds	r7, r7, #32
 2900              		.cfi_def_cfa_offset 8
 2901 010a BD46     		mov	sp, r7
 2902              		.cfi_def_cfa_register 13
 2903              		@ sp needed
 2904 010c 80BD     		pop	{r7, pc}
 2905              		.cfi_endproc
 2906              	.LFE336:
 2908              		.section	.text.HAL_OSPI_AutoPolling_IT,"ax",%progbits
 2909              		.align	1
 2910              		.global	HAL_OSPI_AutoPolling_IT
 2911              		.syntax unified
 2912              		.thumb
 2913              		.thumb_func
 2915              	HAL_OSPI_AutoPolling_IT:
 2916              	.LFB337:
1731:Drivers/STM32L4xx_HAL_Driver/Src/stm32l4xx_hal_ospi.c **** 
1732:Drivers/STM32L4xx_HAL_Driver/Src/stm32l4xx_hal_ospi.c **** /**
1733:Drivers/STM32L4xx_HAL_Driver/Src/stm32l4xx_hal_ospi.c ****   * @brief  Configure the OSPI Automatic Polling Mode in non-blocking mode.
1734:Drivers/STM32L4xx_HAL_Driver/Src/stm32l4xx_hal_ospi.c ****   * @param  hospi : OSPI handle
1735:Drivers/STM32L4xx_HAL_Driver/Src/stm32l4xx_hal_ospi.c ****   * @param  cfg   : structure that contains the polling configuration information.
1736:Drivers/STM32L4xx_HAL_Driver/Src/stm32l4xx_hal_ospi.c ****   * @note   This function is used only in Automatic Polling Mode
1737:Drivers/STM32L4xx_HAL_Driver/Src/stm32l4xx_hal_ospi.c ****   * @note   This function should not be used when the memory is in octal mode (see Errata Sheet)
1738:Drivers/STM32L4xx_HAL_Driver/Src/stm32l4xx_hal_ospi.c ****   * @retval HAL status
1739:Drivers/STM32L4xx_HAL_Driver/Src/stm32l4xx_hal_ospi.c ****   */
1740:Drivers/STM32L4xx_HAL_Driver/Src/stm32l4xx_hal_ospi.c **** HAL_StatusTypeDef HAL_OSPI_AutoPolling_IT(OSPI_HandleTypeDef *hospi, OSPI_AutoPollingTypeDef *cfg)
1741:Drivers/STM32L4xx_HAL_Driver/Src/stm32l4xx_hal_ospi.c **** {
 2917              		.loc 1 1741 1
 2918              		.cfi_startproc
 2919              		@ args = 0, pretend = 0, frame = 24
 2920              		@ frame_needed = 1, uses_anonymous_args = 0
 2921 0000 80B5     		push	{r7, lr}
 2922              		.cfi_def_cfa_offset 8
 2923              		.cfi_offset 7, -8
 2924              		.cfi_offset 14, -4
 2925 0002 88B0     		sub	sp, sp, #32
 2926              		.cfi_def_cfa_offset 40
 2927 0004 02AF     		add	r7, sp, #8
 2928              		.cfi_def_cfa 7, 32
 2929 0006 7860     		str	r0, [r7, #4]
 2930 0008 3960     		str	r1, [r7]
1742:Drivers/STM32L4xx_HAL_Driver/Src/stm32l4xx_hal_ospi.c ****   HAL_StatusTypeDef status;
1743:Drivers/STM32L4xx_HAL_Driver/Src/stm32l4xx_hal_ospi.c ****   uint32_t tickstart = HAL_GetTick();
 2931              		.loc 1 1743 24
 2932 000a FFF7FEFF 		bl	HAL_GetTick
 2933 000e 3861     		str	r0, [r7, #16]
1744:Drivers/STM32L4xx_HAL_Driver/Src/stm32l4xx_hal_ospi.c ****   uint32_t addr_reg = hospi->Instance->AR;
 2934              		.loc 1 1744 28
ARM GAS  C:\Users\Morroway\AppData\Local\Temp\ccxQAUQ3.s 			page 83


 2935 0010 7B68     		ldr	r3, [r7, #4]
 2936 0012 1B68     		ldr	r3, [r3]
 2937              		.loc 1 1744 12
 2938 0014 9B6C     		ldr	r3, [r3, #72]
 2939 0016 FB60     		str	r3, [r7, #12]
1745:Drivers/STM32L4xx_HAL_Driver/Src/stm32l4xx_hal_ospi.c ****   uint32_t ir_reg = hospi->Instance->IR;
 2940              		.loc 1 1745 26
 2941 0018 7B68     		ldr	r3, [r7, #4]
 2942 001a 1B68     		ldr	r3, [r3]
 2943              		.loc 1 1745 12
 2944 001c D3F81031 		ldr	r3, [r3, #272]
 2945 0020 BB60     		str	r3, [r7, #8]
1746:Drivers/STM32L4xx_HAL_Driver/Src/stm32l4xx_hal_ospi.c **** #ifdef USE_FULL_ASSERT
1747:Drivers/STM32L4xx_HAL_Driver/Src/stm32l4xx_hal_ospi.c ****   uint32_t dlr_reg = hospi->Instance->DLR;
1748:Drivers/STM32L4xx_HAL_Driver/Src/stm32l4xx_hal_ospi.c **** #endif /* USE_FULL_ASSERT */
1749:Drivers/STM32L4xx_HAL_Driver/Src/stm32l4xx_hal_ospi.c **** 
1750:Drivers/STM32L4xx_HAL_Driver/Src/stm32l4xx_hal_ospi.c ****   /* Check the parameters of the autopolling configuration structure */
1751:Drivers/STM32L4xx_HAL_Driver/Src/stm32l4xx_hal_ospi.c ****   assert_param(IS_OSPI_MATCH_MODE       (cfg->MatchMode));
1752:Drivers/STM32L4xx_HAL_Driver/Src/stm32l4xx_hal_ospi.c ****   assert_param(IS_OSPI_AUTOMATIC_STOP   (cfg->AutomaticStop));
1753:Drivers/STM32L4xx_HAL_Driver/Src/stm32l4xx_hal_ospi.c ****   assert_param(IS_OSPI_INTERVAL         (cfg->Interval));
1754:Drivers/STM32L4xx_HAL_Driver/Src/stm32l4xx_hal_ospi.c ****   assert_param(IS_OSPI_STATUS_BYTES_SIZE(dlr_reg+1U));
1755:Drivers/STM32L4xx_HAL_Driver/Src/stm32l4xx_hal_ospi.c **** 
1756:Drivers/STM32L4xx_HAL_Driver/Src/stm32l4xx_hal_ospi.c ****   /* Check the state */
1757:Drivers/STM32L4xx_HAL_Driver/Src/stm32l4xx_hal_ospi.c ****   if (hospi->State == HAL_OSPI_STATE_CMD_CFG)
 2946              		.loc 1 1757 12
 2947 0022 7B68     		ldr	r3, [r7, #4]
 2948 0024 DB6C     		ldr	r3, [r3, #76]
 2949              		.loc 1 1757 6
 2950 0026 042B     		cmp	r3, #4
 2951 0028 5BD1     		bne	.L151
1758:Drivers/STM32L4xx_HAL_Driver/Src/stm32l4xx_hal_ospi.c ****   {
1759:Drivers/STM32L4xx_HAL_Driver/Src/stm32l4xx_hal_ospi.c ****     /* Wait till busy flag is reset */
1760:Drivers/STM32L4xx_HAL_Driver/Src/stm32l4xx_hal_ospi.c ****     status = OSPI_WaitFlagStateUntilTimeout(hospi, HAL_OSPI_FLAG_BUSY, RESET, tickstart, hospi->Tim
 2952              		.loc 1 1760 14
 2953 002a 7B68     		ldr	r3, [r7, #4]
 2954 002c 5B6D     		ldr	r3, [r3, #84]
 2955 002e 0093     		str	r3, [sp]
 2956 0030 3B69     		ldr	r3, [r7, #16]
 2957 0032 0022     		movs	r2, #0
 2958 0034 2021     		movs	r1, #32
 2959 0036 7868     		ldr	r0, [r7, #4]
 2960 0038 FFF7FEFF 		bl	OSPI_WaitFlagStateUntilTimeout
 2961 003c 0346     		mov	r3, r0
 2962 003e FB75     		strb	r3, [r7, #23]
1761:Drivers/STM32L4xx_HAL_Driver/Src/stm32l4xx_hal_ospi.c **** 
1762:Drivers/STM32L4xx_HAL_Driver/Src/stm32l4xx_hal_ospi.c ****     if (status == HAL_OK)
 2963              		.loc 1 1762 8
 2964 0040 FB7D     		ldrb	r3, [r7, #23]	@ zero_extendqisi2
 2965 0042 002B     		cmp	r3, #0
 2966 0044 52D1     		bne	.L152
1763:Drivers/STM32L4xx_HAL_Driver/Src/stm32l4xx_hal_ospi.c ****     {
1764:Drivers/STM32L4xx_HAL_Driver/Src/stm32l4xx_hal_ospi.c ****       /* Configure registers */
1765:Drivers/STM32L4xx_HAL_Driver/Src/stm32l4xx_hal_ospi.c ****       WRITE_REG (hospi->Instance->PSMAR, cfg->Match);
 2967              		.loc 1 1765 7
 2968 0046 7B68     		ldr	r3, [r7, #4]
 2969 0048 1B68     		ldr	r3, [r3]
 2970 004a 3A68     		ldr	r2, [r7]
ARM GAS  C:\Users\Morroway\AppData\Local\Temp\ccxQAUQ3.s 			page 84


 2971 004c 1268     		ldr	r2, [r2]
 2972 004e C3F88820 		str	r2, [r3, #136]
1766:Drivers/STM32L4xx_HAL_Driver/Src/stm32l4xx_hal_ospi.c ****       WRITE_REG (hospi->Instance->PSMKR, cfg->Mask);
 2973              		.loc 1 1766 7
 2974 0052 7B68     		ldr	r3, [r7, #4]
 2975 0054 1B68     		ldr	r3, [r3]
 2976 0056 3A68     		ldr	r2, [r7]
 2977 0058 5268     		ldr	r2, [r2, #4]
 2978 005a C3F88020 		str	r2, [r3, #128]
1767:Drivers/STM32L4xx_HAL_Driver/Src/stm32l4xx_hal_ospi.c ****       WRITE_REG (hospi->Instance->PIR,   cfg->Interval);
 2979              		.loc 1 1767 7
 2980 005e 7B68     		ldr	r3, [r7, #4]
 2981 0060 1B68     		ldr	r3, [r3]
 2982 0062 3A68     		ldr	r2, [r7]
 2983 0064 1269     		ldr	r2, [r2, #16]
 2984 0066 C3F89020 		str	r2, [r3, #144]
1768:Drivers/STM32L4xx_HAL_Driver/Src/stm32l4xx_hal_ospi.c ****       MODIFY_REG(hospi->Instance->CR,    (OCTOSPI_CR_PMM | OCTOSPI_CR_APMS | OCTOSPI_CR_FMODE),
 2985              		.loc 1 1768 7
 2986 006a 7B68     		ldr	r3, [r7, #4]
 2987 006c 1B68     		ldr	r3, [r3]
 2988 006e 1B68     		ldr	r3, [r3]
 2989 0070 23F04352 		bic	r2, r3, #817889280
 2990 0074 3B68     		ldr	r3, [r7]
 2991 0076 9968     		ldr	r1, [r3, #8]
 2992 0078 3B68     		ldr	r3, [r7]
 2993 007a DB68     		ldr	r3, [r3, #12]
 2994 007c 0B43     		orrs	r3, r3, r1
 2995 007e 1A43     		orrs	r2, r2, r3
 2996 0080 7B68     		ldr	r3, [r7, #4]
 2997 0082 1B68     		ldr	r3, [r3]
 2998 0084 42F00052 		orr	r2, r2, #536870912
 2999 0088 1A60     		str	r2, [r3]
1769:Drivers/STM32L4xx_HAL_Driver/Src/stm32l4xx_hal_ospi.c ****                  (cfg->MatchMode | cfg->AutomaticStop | OSPI_FUNCTIONAL_MODE_AUTO_POLLING));
1770:Drivers/STM32L4xx_HAL_Driver/Src/stm32l4xx_hal_ospi.c **** 
1771:Drivers/STM32L4xx_HAL_Driver/Src/stm32l4xx_hal_ospi.c ****       /* Clear flags related to interrupt */
1772:Drivers/STM32L4xx_HAL_Driver/Src/stm32l4xx_hal_ospi.c ****       __HAL_OSPI_CLEAR_FLAG(hospi, HAL_OSPI_FLAG_TE | HAL_OSPI_FLAG_SM);
 3000              		.loc 1 1772 7
 3001 008a 7B68     		ldr	r3, [r7, #4]
 3002 008c 1B68     		ldr	r3, [r3]
 3003 008e 0922     		movs	r2, #9
 3004 0090 5A62     		str	r2, [r3, #36]
1773:Drivers/STM32L4xx_HAL_Driver/Src/stm32l4xx_hal_ospi.c **** 
1774:Drivers/STM32L4xx_HAL_Driver/Src/stm32l4xx_hal_ospi.c ****       /* Update state */
1775:Drivers/STM32L4xx_HAL_Driver/Src/stm32l4xx_hal_ospi.c ****       hospi->State = HAL_OSPI_STATE_BUSY_AUTO_POLLING;
 3005              		.loc 1 1775 20
 3006 0092 7B68     		ldr	r3, [r7, #4]
 3007 0094 4822     		movs	r2, #72
 3008 0096 DA64     		str	r2, [r3, #76]
1776:Drivers/STM32L4xx_HAL_Driver/Src/stm32l4xx_hal_ospi.c **** 
1777:Drivers/STM32L4xx_HAL_Driver/Src/stm32l4xx_hal_ospi.c ****       /* Enable the status match and transfer error interrupts */
1778:Drivers/STM32L4xx_HAL_Driver/Src/stm32l4xx_hal_ospi.c ****       __HAL_OSPI_ENABLE_IT(hospi, HAL_OSPI_IT_SM | HAL_OSPI_IT_TE);
 3009              		.loc 1 1778 7
 3010 0098 7B68     		ldr	r3, [r7, #4]
 3011 009a 1B68     		ldr	r3, [r3]
 3012 009c 1A68     		ldr	r2, [r3]
 3013 009e 7B68     		ldr	r3, [r7, #4]
 3014 00a0 1B68     		ldr	r3, [r3]
ARM GAS  C:\Users\Morroway\AppData\Local\Temp\ccxQAUQ3.s 			page 85


 3015 00a2 42F41022 		orr	r2, r2, #589824
 3016 00a6 1A60     		str	r2, [r3]
1779:Drivers/STM32L4xx_HAL_Driver/Src/stm32l4xx_hal_ospi.c **** 
1780:Drivers/STM32L4xx_HAL_Driver/Src/stm32l4xx_hal_ospi.c ****       /* Trig the transfer by re-writing address or instruction register */
1781:Drivers/STM32L4xx_HAL_Driver/Src/stm32l4xx_hal_ospi.c ****       if (hospi->Init.MemoryType == HAL_OSPI_MEMTYPE_HYPERBUS)
 3017              		.loc 1 1781 22
 3018 00a8 7B68     		ldr	r3, [r7, #4]
 3019 00aa DB68     		ldr	r3, [r3, #12]
 3020              		.loc 1 1781 10
 3021 00ac B3F1806F 		cmp	r3, #67108864
 3022 00b0 04D1     		bne	.L153
1782:Drivers/STM32L4xx_HAL_Driver/Src/stm32l4xx_hal_ospi.c ****       {
1783:Drivers/STM32L4xx_HAL_Driver/Src/stm32l4xx_hal_ospi.c ****         WRITE_REG(hospi->Instance->AR, addr_reg);
 3023              		.loc 1 1783 9
 3024 00b2 7B68     		ldr	r3, [r7, #4]
 3025 00b4 1B68     		ldr	r3, [r3]
 3026 00b6 FA68     		ldr	r2, [r7, #12]
 3027 00b8 9A64     		str	r2, [r3, #72]
 3028 00ba 17E0     		b	.L152
 3029              	.L153:
1784:Drivers/STM32L4xx_HAL_Driver/Src/stm32l4xx_hal_ospi.c ****       }
1785:Drivers/STM32L4xx_HAL_Driver/Src/stm32l4xx_hal_ospi.c ****       else
1786:Drivers/STM32L4xx_HAL_Driver/Src/stm32l4xx_hal_ospi.c ****       {
1787:Drivers/STM32L4xx_HAL_Driver/Src/stm32l4xx_hal_ospi.c ****         if (READ_BIT(hospi->Instance->CCR, OCTOSPI_CCR_ADMODE) != HAL_OSPI_ADDRESS_NONE)
 3030              		.loc 1 1787 13
 3031 00bc 7B68     		ldr	r3, [r7, #4]
 3032 00be 1B68     		ldr	r3, [r3]
 3033 00c0 D3F80031 		ldr	r3, [r3, #256]
 3034 00c4 03F4E063 		and	r3, r3, #1792
 3035              		.loc 1 1787 12
 3036 00c8 002B     		cmp	r3, #0
 3037 00ca 04D0     		beq	.L154
1788:Drivers/STM32L4xx_HAL_Driver/Src/stm32l4xx_hal_ospi.c ****         {
1789:Drivers/STM32L4xx_HAL_Driver/Src/stm32l4xx_hal_ospi.c ****           WRITE_REG(hospi->Instance->AR, addr_reg);
 3038              		.loc 1 1789 11
 3039 00cc 7B68     		ldr	r3, [r7, #4]
 3040 00ce 1B68     		ldr	r3, [r3]
 3041 00d0 FA68     		ldr	r2, [r7, #12]
 3042 00d2 9A64     		str	r2, [r3, #72]
 3043 00d4 0AE0     		b	.L152
 3044              	.L154:
1790:Drivers/STM32L4xx_HAL_Driver/Src/stm32l4xx_hal_ospi.c ****         }
1791:Drivers/STM32L4xx_HAL_Driver/Src/stm32l4xx_hal_ospi.c ****         else
1792:Drivers/STM32L4xx_HAL_Driver/Src/stm32l4xx_hal_ospi.c ****         {
1793:Drivers/STM32L4xx_HAL_Driver/Src/stm32l4xx_hal_ospi.c ****           WRITE_REG(hospi->Instance->IR, ir_reg);
 3045              		.loc 1 1793 11
 3046 00d6 7B68     		ldr	r3, [r7, #4]
 3047 00d8 1B68     		ldr	r3, [r3]
 3048 00da BA68     		ldr	r2, [r7, #8]
 3049 00dc C3F81021 		str	r2, [r3, #272]
 3050 00e0 04E0     		b	.L152
 3051              	.L151:
1794:Drivers/STM32L4xx_HAL_Driver/Src/stm32l4xx_hal_ospi.c ****         }
1795:Drivers/STM32L4xx_HAL_Driver/Src/stm32l4xx_hal_ospi.c ****       }
1796:Drivers/STM32L4xx_HAL_Driver/Src/stm32l4xx_hal_ospi.c ****     }
1797:Drivers/STM32L4xx_HAL_Driver/Src/stm32l4xx_hal_ospi.c ****   }
1798:Drivers/STM32L4xx_HAL_Driver/Src/stm32l4xx_hal_ospi.c ****   else
ARM GAS  C:\Users\Morroway\AppData\Local\Temp\ccxQAUQ3.s 			page 86


1799:Drivers/STM32L4xx_HAL_Driver/Src/stm32l4xx_hal_ospi.c ****   {
1800:Drivers/STM32L4xx_HAL_Driver/Src/stm32l4xx_hal_ospi.c ****     status = HAL_ERROR;
 3052              		.loc 1 1800 12
 3053 00e2 0123     		movs	r3, #1
 3054 00e4 FB75     		strb	r3, [r7, #23]
1801:Drivers/STM32L4xx_HAL_Driver/Src/stm32l4xx_hal_ospi.c ****     hospi->ErrorCode = HAL_OSPI_ERROR_INVALID_SEQUENCE;
 3055              		.loc 1 1801 22
 3056 00e6 7B68     		ldr	r3, [r7, #4]
 3057 00e8 1022     		movs	r2, #16
 3058 00ea 1A65     		str	r2, [r3, #80]
 3059              	.L152:
1802:Drivers/STM32L4xx_HAL_Driver/Src/stm32l4xx_hal_ospi.c ****   }
1803:Drivers/STM32L4xx_HAL_Driver/Src/stm32l4xx_hal_ospi.c **** 
1804:Drivers/STM32L4xx_HAL_Driver/Src/stm32l4xx_hal_ospi.c ****   /* Return function status */
1805:Drivers/STM32L4xx_HAL_Driver/Src/stm32l4xx_hal_ospi.c ****   return status;
 3060              		.loc 1 1805 10
 3061 00ec FB7D     		ldrb	r3, [r7, #23]	@ zero_extendqisi2
1806:Drivers/STM32L4xx_HAL_Driver/Src/stm32l4xx_hal_ospi.c **** }
 3062              		.loc 1 1806 1
 3063 00ee 1846     		mov	r0, r3
 3064 00f0 1837     		adds	r7, r7, #24
 3065              		.cfi_def_cfa_offset 8
 3066 00f2 BD46     		mov	sp, r7
 3067              		.cfi_def_cfa_register 13
 3068              		@ sp needed
 3069 00f4 80BD     		pop	{r7, pc}
 3070              		.cfi_endproc
 3071              	.LFE337:
 3073              		.section	.text.HAL_OSPI_MemoryMapped,"ax",%progbits
 3074              		.align	1
 3075              		.global	HAL_OSPI_MemoryMapped
 3076              		.syntax unified
 3077              		.thumb
 3078              		.thumb_func
 3080              	HAL_OSPI_MemoryMapped:
 3081              	.LFB338:
1807:Drivers/STM32L4xx_HAL_Driver/Src/stm32l4xx_hal_ospi.c **** 
1808:Drivers/STM32L4xx_HAL_Driver/Src/stm32l4xx_hal_ospi.c **** /**
1809:Drivers/STM32L4xx_HAL_Driver/Src/stm32l4xx_hal_ospi.c ****   * @brief  Configure the Memory Mapped mode.
1810:Drivers/STM32L4xx_HAL_Driver/Src/stm32l4xx_hal_ospi.c ****   * @param  hospi : OSPI handle
1811:Drivers/STM32L4xx_HAL_Driver/Src/stm32l4xx_hal_ospi.c ****   * @param  cfg   : structure that contains the memory mapped configuration information.
1812:Drivers/STM32L4xx_HAL_Driver/Src/stm32l4xx_hal_ospi.c ****   * @note   This function is used only in Memory mapped Mode
1813:Drivers/STM32L4xx_HAL_Driver/Src/stm32l4xx_hal_ospi.c ****   * @retval HAL status
1814:Drivers/STM32L4xx_HAL_Driver/Src/stm32l4xx_hal_ospi.c ****   */
1815:Drivers/STM32L4xx_HAL_Driver/Src/stm32l4xx_hal_ospi.c **** HAL_StatusTypeDef HAL_OSPI_MemoryMapped(OSPI_HandleTypeDef *hospi, OSPI_MemoryMappedTypeDef *cfg)
1816:Drivers/STM32L4xx_HAL_Driver/Src/stm32l4xx_hal_ospi.c **** {
 3082              		.loc 1 1816 1
 3083              		.cfi_startproc
 3084              		@ args = 0, pretend = 0, frame = 16
 3085              		@ frame_needed = 1, uses_anonymous_args = 0
 3086 0000 80B5     		push	{r7, lr}
 3087              		.cfi_def_cfa_offset 8
 3088              		.cfi_offset 7, -8
 3089              		.cfi_offset 14, -4
 3090 0002 86B0     		sub	sp, sp, #24
 3091              		.cfi_def_cfa_offset 32
 3092 0004 02AF     		add	r7, sp, #8
ARM GAS  C:\Users\Morroway\AppData\Local\Temp\ccxQAUQ3.s 			page 87


 3093              		.cfi_def_cfa 7, 24
 3094 0006 7860     		str	r0, [r7, #4]
 3095 0008 3960     		str	r1, [r7]
1817:Drivers/STM32L4xx_HAL_Driver/Src/stm32l4xx_hal_ospi.c ****   HAL_StatusTypeDef status;
1818:Drivers/STM32L4xx_HAL_Driver/Src/stm32l4xx_hal_ospi.c ****   uint32_t tickstart = HAL_GetTick();
 3096              		.loc 1 1818 24
 3097 000a FFF7FEFF 		bl	HAL_GetTick
 3098 000e B860     		str	r0, [r7, #8]
1819:Drivers/STM32L4xx_HAL_Driver/Src/stm32l4xx_hal_ospi.c **** 
1820:Drivers/STM32L4xx_HAL_Driver/Src/stm32l4xx_hal_ospi.c ****   /* Check the parameters of the memory-mapped configuration structure */
1821:Drivers/STM32L4xx_HAL_Driver/Src/stm32l4xx_hal_ospi.c ****   assert_param(IS_OSPI_TIMEOUT_ACTIVATION(cfg->TimeOutActivation));
1822:Drivers/STM32L4xx_HAL_Driver/Src/stm32l4xx_hal_ospi.c **** 
1823:Drivers/STM32L4xx_HAL_Driver/Src/stm32l4xx_hal_ospi.c ****   /* Check the state */
1824:Drivers/STM32L4xx_HAL_Driver/Src/stm32l4xx_hal_ospi.c ****   if (hospi->State == HAL_OSPI_STATE_CMD_CFG)
 3099              		.loc 1 1824 12
 3100 0010 7B68     		ldr	r3, [r7, #4]
 3101 0012 DB6C     		ldr	r3, [r3, #76]
 3102              		.loc 1 1824 6
 3103 0014 042B     		cmp	r3, #4
 3104 0016 36D1     		bne	.L157
1825:Drivers/STM32L4xx_HAL_Driver/Src/stm32l4xx_hal_ospi.c ****   {
1826:Drivers/STM32L4xx_HAL_Driver/Src/stm32l4xx_hal_ospi.c ****     /* Wait till busy flag is reset */
1827:Drivers/STM32L4xx_HAL_Driver/Src/stm32l4xx_hal_ospi.c ****     status = OSPI_WaitFlagStateUntilTimeout(hospi, HAL_OSPI_FLAG_BUSY, RESET, tickstart, hospi->Tim
 3105              		.loc 1 1827 14
 3106 0018 7B68     		ldr	r3, [r7, #4]
 3107 001a 5B6D     		ldr	r3, [r3, #84]
 3108 001c 0093     		str	r3, [sp]
 3109 001e BB68     		ldr	r3, [r7, #8]
 3110 0020 0022     		movs	r2, #0
 3111 0022 2021     		movs	r1, #32
 3112 0024 7868     		ldr	r0, [r7, #4]
 3113 0026 FFF7FEFF 		bl	OSPI_WaitFlagStateUntilTimeout
 3114 002a 0346     		mov	r3, r0
 3115 002c FB73     		strb	r3, [r7, #15]
1828:Drivers/STM32L4xx_HAL_Driver/Src/stm32l4xx_hal_ospi.c **** 
1829:Drivers/STM32L4xx_HAL_Driver/Src/stm32l4xx_hal_ospi.c ****     if (status == HAL_OK)
 3116              		.loc 1 1829 8
 3117 002e FB7B     		ldrb	r3, [r7, #15]	@ zero_extendqisi2
 3118 0030 002B     		cmp	r3, #0
 3119 0032 2DD1     		bne	.L158
1830:Drivers/STM32L4xx_HAL_Driver/Src/stm32l4xx_hal_ospi.c ****     {
1831:Drivers/STM32L4xx_HAL_Driver/Src/stm32l4xx_hal_ospi.c ****       /* Update state */
1832:Drivers/STM32L4xx_HAL_Driver/Src/stm32l4xx_hal_ospi.c ****       hospi->State = HAL_OSPI_STATE_BUSY_MEM_MAPPED;
 3120              		.loc 1 1832 20
 3121 0034 7B68     		ldr	r3, [r7, #4]
 3122 0036 8822     		movs	r2, #136
 3123 0038 DA64     		str	r2, [r3, #76]
1833:Drivers/STM32L4xx_HAL_Driver/Src/stm32l4xx_hal_ospi.c **** 
1834:Drivers/STM32L4xx_HAL_Driver/Src/stm32l4xx_hal_ospi.c ****       if (cfg->TimeOutActivation == HAL_OSPI_TIMEOUT_COUNTER_ENABLE)
 3124              		.loc 1 1834 14
 3125 003a 3B68     		ldr	r3, [r7]
 3126 003c 1B68     		ldr	r3, [r3]
 3127              		.loc 1 1834 10
 3128 003e 082B     		cmp	r3, #8
 3129 0040 11D1     		bne	.L159
1835:Drivers/STM32L4xx_HAL_Driver/Src/stm32l4xx_hal_ospi.c ****       {
1836:Drivers/STM32L4xx_HAL_Driver/Src/stm32l4xx_hal_ospi.c ****         assert_param(IS_OSPI_TIMEOUT_PERIOD(cfg->TimeOutPeriod));
ARM GAS  C:\Users\Morroway\AppData\Local\Temp\ccxQAUQ3.s 			page 88


1837:Drivers/STM32L4xx_HAL_Driver/Src/stm32l4xx_hal_ospi.c **** 
1838:Drivers/STM32L4xx_HAL_Driver/Src/stm32l4xx_hal_ospi.c ****         /* Configure register */
1839:Drivers/STM32L4xx_HAL_Driver/Src/stm32l4xx_hal_ospi.c ****         WRITE_REG(hospi->Instance->LPTR, cfg->TimeOutPeriod);
 3130              		.loc 1 1839 9
 3131 0042 7B68     		ldr	r3, [r7, #4]
 3132 0044 1B68     		ldr	r3, [r3]
 3133 0046 3A68     		ldr	r2, [r7]
 3134 0048 5268     		ldr	r2, [r2, #4]
 3135 004a C3F83021 		str	r2, [r3, #304]
1840:Drivers/STM32L4xx_HAL_Driver/Src/stm32l4xx_hal_ospi.c **** 
1841:Drivers/STM32L4xx_HAL_Driver/Src/stm32l4xx_hal_ospi.c ****         /* Clear flags related to interrupt */
1842:Drivers/STM32L4xx_HAL_Driver/Src/stm32l4xx_hal_ospi.c ****         __HAL_OSPI_CLEAR_FLAG(hospi, HAL_OSPI_FLAG_TO);
 3136              		.loc 1 1842 9
 3137 004e 7B68     		ldr	r3, [r7, #4]
 3138 0050 1B68     		ldr	r3, [r3]
 3139 0052 1022     		movs	r2, #16
 3140 0054 5A62     		str	r2, [r3, #36]
1843:Drivers/STM32L4xx_HAL_Driver/Src/stm32l4xx_hal_ospi.c **** 
1844:Drivers/STM32L4xx_HAL_Driver/Src/stm32l4xx_hal_ospi.c ****         /* Enable the timeout interrupt */
1845:Drivers/STM32L4xx_HAL_Driver/Src/stm32l4xx_hal_ospi.c ****         __HAL_OSPI_ENABLE_IT(hospi, HAL_OSPI_IT_TO);
 3141              		.loc 1 1845 9
 3142 0056 7B68     		ldr	r3, [r7, #4]
 3143 0058 1B68     		ldr	r3, [r3]
 3144 005a 1A68     		ldr	r2, [r3]
 3145 005c 7B68     		ldr	r3, [r7, #4]
 3146 005e 1B68     		ldr	r3, [r3]
 3147 0060 42F48012 		orr	r2, r2, #1048576
 3148 0064 1A60     		str	r2, [r3]
 3149              	.L159:
1846:Drivers/STM32L4xx_HAL_Driver/Src/stm32l4xx_hal_ospi.c ****       }
1847:Drivers/STM32L4xx_HAL_Driver/Src/stm32l4xx_hal_ospi.c **** 
1848:Drivers/STM32L4xx_HAL_Driver/Src/stm32l4xx_hal_ospi.c ****       /* Configure CR register with functional mode as memory-mapped */
1849:Drivers/STM32L4xx_HAL_Driver/Src/stm32l4xx_hal_ospi.c ****       MODIFY_REG(hospi->Instance->CR, (OCTOSPI_CR_TCEN | OCTOSPI_CR_FMODE),
 3150              		.loc 1 1849 7
 3151 0066 7B68     		ldr	r3, [r7, #4]
 3152 0068 1B68     		ldr	r3, [r3]
 3153 006a 1B68     		ldr	r3, [r3]
 3154 006c 23F04053 		bic	r3, r3, #805306368
 3155 0070 23F00803 		bic	r3, r3, #8
 3156 0074 3A68     		ldr	r2, [r7]
 3157 0076 1268     		ldr	r2, [r2]
 3158 0078 1A43     		orrs	r2, r2, r3
 3159 007a 7B68     		ldr	r3, [r7, #4]
 3160 007c 1B68     		ldr	r3, [r3]
 3161 007e 42F04052 		orr	r2, r2, #805306368
 3162 0082 1A60     		str	r2, [r3]
 3163 0084 04E0     		b	.L158
 3164              	.L157:
1850:Drivers/STM32L4xx_HAL_Driver/Src/stm32l4xx_hal_ospi.c ****                  (cfg->TimeOutActivation | OSPI_FUNCTIONAL_MODE_MEMORY_MAPPED));
1851:Drivers/STM32L4xx_HAL_Driver/Src/stm32l4xx_hal_ospi.c ****     }
1852:Drivers/STM32L4xx_HAL_Driver/Src/stm32l4xx_hal_ospi.c ****   }
1853:Drivers/STM32L4xx_HAL_Driver/Src/stm32l4xx_hal_ospi.c ****   else
1854:Drivers/STM32L4xx_HAL_Driver/Src/stm32l4xx_hal_ospi.c ****   {
1855:Drivers/STM32L4xx_HAL_Driver/Src/stm32l4xx_hal_ospi.c ****     status = HAL_ERROR;
 3165              		.loc 1 1855 12
 3166 0086 0123     		movs	r3, #1
 3167 0088 FB73     		strb	r3, [r7, #15]
ARM GAS  C:\Users\Morroway\AppData\Local\Temp\ccxQAUQ3.s 			page 89


1856:Drivers/STM32L4xx_HAL_Driver/Src/stm32l4xx_hal_ospi.c ****     hospi->ErrorCode = HAL_OSPI_ERROR_INVALID_SEQUENCE;
 3168              		.loc 1 1856 22
 3169 008a 7B68     		ldr	r3, [r7, #4]
 3170 008c 1022     		movs	r2, #16
 3171 008e 1A65     		str	r2, [r3, #80]
 3172              	.L158:
1857:Drivers/STM32L4xx_HAL_Driver/Src/stm32l4xx_hal_ospi.c ****   }
1858:Drivers/STM32L4xx_HAL_Driver/Src/stm32l4xx_hal_ospi.c **** 
1859:Drivers/STM32L4xx_HAL_Driver/Src/stm32l4xx_hal_ospi.c ****   /* Return function status */
1860:Drivers/STM32L4xx_HAL_Driver/Src/stm32l4xx_hal_ospi.c ****   return status;
 3173              		.loc 1 1860 10
 3174 0090 FB7B     		ldrb	r3, [r7, #15]	@ zero_extendqisi2
1861:Drivers/STM32L4xx_HAL_Driver/Src/stm32l4xx_hal_ospi.c **** }
 3175              		.loc 1 1861 1
 3176 0092 1846     		mov	r0, r3
 3177 0094 1037     		adds	r7, r7, #16
 3178              		.cfi_def_cfa_offset 8
 3179 0096 BD46     		mov	sp, r7
 3180              		.cfi_def_cfa_register 13
 3181              		@ sp needed
 3182 0098 80BD     		pop	{r7, pc}
 3183              		.cfi_endproc
 3184              	.LFE338:
 3186              		.section	.text.HAL_OSPI_ErrorCallback,"ax",%progbits
 3187              		.align	1
 3188              		.weak	HAL_OSPI_ErrorCallback
 3189              		.syntax unified
 3190              		.thumb
 3191              		.thumb_func
 3193              	HAL_OSPI_ErrorCallback:
 3194              	.LFB339:
1862:Drivers/STM32L4xx_HAL_Driver/Src/stm32l4xx_hal_ospi.c **** 
1863:Drivers/STM32L4xx_HAL_Driver/Src/stm32l4xx_hal_ospi.c **** /**
1864:Drivers/STM32L4xx_HAL_Driver/Src/stm32l4xx_hal_ospi.c ****   * @brief  Transfer Error callback.
1865:Drivers/STM32L4xx_HAL_Driver/Src/stm32l4xx_hal_ospi.c ****   * @param  hospi : OSPI handle
1866:Drivers/STM32L4xx_HAL_Driver/Src/stm32l4xx_hal_ospi.c ****   * @retval None
1867:Drivers/STM32L4xx_HAL_Driver/Src/stm32l4xx_hal_ospi.c ****   */
1868:Drivers/STM32L4xx_HAL_Driver/Src/stm32l4xx_hal_ospi.c **** __weak void HAL_OSPI_ErrorCallback(OSPI_HandleTypeDef *hospi)
1869:Drivers/STM32L4xx_HAL_Driver/Src/stm32l4xx_hal_ospi.c **** {
 3195              		.loc 1 1869 1
 3196              		.cfi_startproc
 3197              		@ args = 0, pretend = 0, frame = 8
 3198              		@ frame_needed = 1, uses_anonymous_args = 0
 3199              		@ link register save eliminated.
 3200 0000 80B4     		push	{r7}
 3201              		.cfi_def_cfa_offset 4
 3202              		.cfi_offset 7, -4
 3203 0002 83B0     		sub	sp, sp, #12
 3204              		.cfi_def_cfa_offset 16
 3205 0004 00AF     		add	r7, sp, #0
 3206              		.cfi_def_cfa_register 7
 3207 0006 7860     		str	r0, [r7, #4]
1870:Drivers/STM32L4xx_HAL_Driver/Src/stm32l4xx_hal_ospi.c ****   /* Prevent unused argument(s) compilation warning */
1871:Drivers/STM32L4xx_HAL_Driver/Src/stm32l4xx_hal_ospi.c ****   UNUSED(hospi);
1872:Drivers/STM32L4xx_HAL_Driver/Src/stm32l4xx_hal_ospi.c **** 
1873:Drivers/STM32L4xx_HAL_Driver/Src/stm32l4xx_hal_ospi.c ****   /* NOTE : This function should not be modified, when the callback is needed,
1874:Drivers/STM32L4xx_HAL_Driver/Src/stm32l4xx_hal_ospi.c ****             the HAL_OSPI_ErrorCallback could be implemented in the user file
ARM GAS  C:\Users\Morroway\AppData\Local\Temp\ccxQAUQ3.s 			page 90


1875:Drivers/STM32L4xx_HAL_Driver/Src/stm32l4xx_hal_ospi.c ****    */
1876:Drivers/STM32L4xx_HAL_Driver/Src/stm32l4xx_hal_ospi.c **** }
 3208              		.loc 1 1876 1
 3209 0008 00BF     		nop
 3210 000a 0C37     		adds	r7, r7, #12
 3211              		.cfi_def_cfa_offset 4
 3212 000c BD46     		mov	sp, r7
 3213              		.cfi_def_cfa_register 13
 3214              		@ sp needed
 3215 000e 5DF8047B 		ldr	r7, [sp], #4
 3216              		.cfi_restore 7
 3217              		.cfi_def_cfa_offset 0
 3218 0012 7047     		bx	lr
 3219              		.cfi_endproc
 3220              	.LFE339:
 3222              		.section	.text.HAL_OSPI_AbortCpltCallback,"ax",%progbits
 3223              		.align	1
 3224              		.weak	HAL_OSPI_AbortCpltCallback
 3225              		.syntax unified
 3226              		.thumb
 3227              		.thumb_func
 3229              	HAL_OSPI_AbortCpltCallback:
 3230              	.LFB340:
1877:Drivers/STM32L4xx_HAL_Driver/Src/stm32l4xx_hal_ospi.c **** 
1878:Drivers/STM32L4xx_HAL_Driver/Src/stm32l4xx_hal_ospi.c **** /**
1879:Drivers/STM32L4xx_HAL_Driver/Src/stm32l4xx_hal_ospi.c ****   * @brief  Abort completed callback.
1880:Drivers/STM32L4xx_HAL_Driver/Src/stm32l4xx_hal_ospi.c ****   * @param  hospi : OSPI handle
1881:Drivers/STM32L4xx_HAL_Driver/Src/stm32l4xx_hal_ospi.c ****   * @retval None
1882:Drivers/STM32L4xx_HAL_Driver/Src/stm32l4xx_hal_ospi.c ****   */
1883:Drivers/STM32L4xx_HAL_Driver/Src/stm32l4xx_hal_ospi.c **** __weak void HAL_OSPI_AbortCpltCallback(OSPI_HandleTypeDef *hospi)
1884:Drivers/STM32L4xx_HAL_Driver/Src/stm32l4xx_hal_ospi.c **** {
 3231              		.loc 1 1884 1
 3232              		.cfi_startproc
 3233              		@ args = 0, pretend = 0, frame = 8
 3234              		@ frame_needed = 1, uses_anonymous_args = 0
 3235              		@ link register save eliminated.
 3236 0000 80B4     		push	{r7}
 3237              		.cfi_def_cfa_offset 4
 3238              		.cfi_offset 7, -4
 3239 0002 83B0     		sub	sp, sp, #12
 3240              		.cfi_def_cfa_offset 16
 3241 0004 00AF     		add	r7, sp, #0
 3242              		.cfi_def_cfa_register 7
 3243 0006 7860     		str	r0, [r7, #4]
1885:Drivers/STM32L4xx_HAL_Driver/Src/stm32l4xx_hal_ospi.c ****   /* Prevent unused argument(s) compilation warning */
1886:Drivers/STM32L4xx_HAL_Driver/Src/stm32l4xx_hal_ospi.c ****   UNUSED(hospi);
1887:Drivers/STM32L4xx_HAL_Driver/Src/stm32l4xx_hal_ospi.c **** 
1888:Drivers/STM32L4xx_HAL_Driver/Src/stm32l4xx_hal_ospi.c ****   /* NOTE: This function should not be modified, when the callback is needed,
1889:Drivers/STM32L4xx_HAL_Driver/Src/stm32l4xx_hal_ospi.c ****            the HAL_OSPI_AbortCpltCallback could be implemented in the user file
1890:Drivers/STM32L4xx_HAL_Driver/Src/stm32l4xx_hal_ospi.c ****    */
1891:Drivers/STM32L4xx_HAL_Driver/Src/stm32l4xx_hal_ospi.c **** }
 3244              		.loc 1 1891 1
 3245 0008 00BF     		nop
 3246 000a 0C37     		adds	r7, r7, #12
 3247              		.cfi_def_cfa_offset 4
 3248 000c BD46     		mov	sp, r7
 3249              		.cfi_def_cfa_register 13
ARM GAS  C:\Users\Morroway\AppData\Local\Temp\ccxQAUQ3.s 			page 91


 3250              		@ sp needed
 3251 000e 5DF8047B 		ldr	r7, [sp], #4
 3252              		.cfi_restore 7
 3253              		.cfi_def_cfa_offset 0
 3254 0012 7047     		bx	lr
 3255              		.cfi_endproc
 3256              	.LFE340:
 3258              		.section	.text.HAL_OSPI_FifoThresholdCallback,"ax",%progbits
 3259              		.align	1
 3260              		.weak	HAL_OSPI_FifoThresholdCallback
 3261              		.syntax unified
 3262              		.thumb
 3263              		.thumb_func
 3265              	HAL_OSPI_FifoThresholdCallback:
 3266              	.LFB341:
1892:Drivers/STM32L4xx_HAL_Driver/Src/stm32l4xx_hal_ospi.c **** 
1893:Drivers/STM32L4xx_HAL_Driver/Src/stm32l4xx_hal_ospi.c **** /**
1894:Drivers/STM32L4xx_HAL_Driver/Src/stm32l4xx_hal_ospi.c ****   * @brief  FIFO Threshold callback.
1895:Drivers/STM32L4xx_HAL_Driver/Src/stm32l4xx_hal_ospi.c ****   * @param  hospi : OSPI handle
1896:Drivers/STM32L4xx_HAL_Driver/Src/stm32l4xx_hal_ospi.c ****   * @retval None
1897:Drivers/STM32L4xx_HAL_Driver/Src/stm32l4xx_hal_ospi.c ****   */
1898:Drivers/STM32L4xx_HAL_Driver/Src/stm32l4xx_hal_ospi.c **** __weak void HAL_OSPI_FifoThresholdCallback(OSPI_HandleTypeDef *hospi)
1899:Drivers/STM32L4xx_HAL_Driver/Src/stm32l4xx_hal_ospi.c **** {
 3267              		.loc 1 1899 1
 3268              		.cfi_startproc
 3269              		@ args = 0, pretend = 0, frame = 8
 3270              		@ frame_needed = 1, uses_anonymous_args = 0
 3271              		@ link register save eliminated.
 3272 0000 80B4     		push	{r7}
 3273              		.cfi_def_cfa_offset 4
 3274              		.cfi_offset 7, -4
 3275 0002 83B0     		sub	sp, sp, #12
 3276              		.cfi_def_cfa_offset 16
 3277 0004 00AF     		add	r7, sp, #0
 3278              		.cfi_def_cfa_register 7
 3279 0006 7860     		str	r0, [r7, #4]
1900:Drivers/STM32L4xx_HAL_Driver/Src/stm32l4xx_hal_ospi.c ****   /* Prevent unused argument(s) compilation warning */
1901:Drivers/STM32L4xx_HAL_Driver/Src/stm32l4xx_hal_ospi.c ****   UNUSED(hospi);
1902:Drivers/STM32L4xx_HAL_Driver/Src/stm32l4xx_hal_ospi.c **** 
1903:Drivers/STM32L4xx_HAL_Driver/Src/stm32l4xx_hal_ospi.c ****   /* NOTE : This function should not be modified, when the callback is needed,
1904:Drivers/STM32L4xx_HAL_Driver/Src/stm32l4xx_hal_ospi.c ****             the HAL_OSPI_FIFOThresholdCallback could be implemented in the user file
1905:Drivers/STM32L4xx_HAL_Driver/Src/stm32l4xx_hal_ospi.c ****    */
1906:Drivers/STM32L4xx_HAL_Driver/Src/stm32l4xx_hal_ospi.c **** }
 3280              		.loc 1 1906 1
 3281 0008 00BF     		nop
 3282 000a 0C37     		adds	r7, r7, #12
 3283              		.cfi_def_cfa_offset 4
 3284 000c BD46     		mov	sp, r7
 3285              		.cfi_def_cfa_register 13
 3286              		@ sp needed
 3287 000e 5DF8047B 		ldr	r7, [sp], #4
 3288              		.cfi_restore 7
 3289              		.cfi_def_cfa_offset 0
 3290 0012 7047     		bx	lr
 3291              		.cfi_endproc
 3292              	.LFE341:
 3294              		.section	.text.HAL_OSPI_CmdCpltCallback,"ax",%progbits
ARM GAS  C:\Users\Morroway\AppData\Local\Temp\ccxQAUQ3.s 			page 92


 3295              		.align	1
 3296              		.weak	HAL_OSPI_CmdCpltCallback
 3297              		.syntax unified
 3298              		.thumb
 3299              		.thumb_func
 3301              	HAL_OSPI_CmdCpltCallback:
 3302              	.LFB342:
1907:Drivers/STM32L4xx_HAL_Driver/Src/stm32l4xx_hal_ospi.c **** 
1908:Drivers/STM32L4xx_HAL_Driver/Src/stm32l4xx_hal_ospi.c **** /**
1909:Drivers/STM32L4xx_HAL_Driver/Src/stm32l4xx_hal_ospi.c ****   * @brief  Command completed callback.
1910:Drivers/STM32L4xx_HAL_Driver/Src/stm32l4xx_hal_ospi.c ****   * @param  hospi : OSPI handle
1911:Drivers/STM32L4xx_HAL_Driver/Src/stm32l4xx_hal_ospi.c ****   * @retval None
1912:Drivers/STM32L4xx_HAL_Driver/Src/stm32l4xx_hal_ospi.c ****   */
1913:Drivers/STM32L4xx_HAL_Driver/Src/stm32l4xx_hal_ospi.c **** __weak void HAL_OSPI_CmdCpltCallback(OSPI_HandleTypeDef *hospi)
1914:Drivers/STM32L4xx_HAL_Driver/Src/stm32l4xx_hal_ospi.c **** {
 3303              		.loc 1 1914 1
 3304              		.cfi_startproc
 3305              		@ args = 0, pretend = 0, frame = 8
 3306              		@ frame_needed = 1, uses_anonymous_args = 0
 3307              		@ link register save eliminated.
 3308 0000 80B4     		push	{r7}
 3309              		.cfi_def_cfa_offset 4
 3310              		.cfi_offset 7, -4
 3311 0002 83B0     		sub	sp, sp, #12
 3312              		.cfi_def_cfa_offset 16
 3313 0004 00AF     		add	r7, sp, #0
 3314              		.cfi_def_cfa_register 7
 3315 0006 7860     		str	r0, [r7, #4]
1915:Drivers/STM32L4xx_HAL_Driver/Src/stm32l4xx_hal_ospi.c ****   /* Prevent unused argument(s) compilation warning */
1916:Drivers/STM32L4xx_HAL_Driver/Src/stm32l4xx_hal_ospi.c ****   UNUSED(hospi);
1917:Drivers/STM32L4xx_HAL_Driver/Src/stm32l4xx_hal_ospi.c **** 
1918:Drivers/STM32L4xx_HAL_Driver/Src/stm32l4xx_hal_ospi.c ****   /* NOTE: This function should not be modified, when the callback is needed,
1919:Drivers/STM32L4xx_HAL_Driver/Src/stm32l4xx_hal_ospi.c ****            the HAL_OSPI_CmdCpltCallback could be implemented in the user file
1920:Drivers/STM32L4xx_HAL_Driver/Src/stm32l4xx_hal_ospi.c ****    */
1921:Drivers/STM32L4xx_HAL_Driver/Src/stm32l4xx_hal_ospi.c **** }
 3316              		.loc 1 1921 1
 3317 0008 00BF     		nop
 3318 000a 0C37     		adds	r7, r7, #12
 3319              		.cfi_def_cfa_offset 4
 3320 000c BD46     		mov	sp, r7
 3321              		.cfi_def_cfa_register 13
 3322              		@ sp needed
 3323 000e 5DF8047B 		ldr	r7, [sp], #4
 3324              		.cfi_restore 7
 3325              		.cfi_def_cfa_offset 0
 3326 0012 7047     		bx	lr
 3327              		.cfi_endproc
 3328              	.LFE342:
 3330              		.section	.text.HAL_OSPI_RxCpltCallback,"ax",%progbits
 3331              		.align	1
 3332              		.weak	HAL_OSPI_RxCpltCallback
 3333              		.syntax unified
 3334              		.thumb
 3335              		.thumb_func
 3337              	HAL_OSPI_RxCpltCallback:
 3338              	.LFB343:
1922:Drivers/STM32L4xx_HAL_Driver/Src/stm32l4xx_hal_ospi.c **** 
ARM GAS  C:\Users\Morroway\AppData\Local\Temp\ccxQAUQ3.s 			page 93


1923:Drivers/STM32L4xx_HAL_Driver/Src/stm32l4xx_hal_ospi.c **** /**
1924:Drivers/STM32L4xx_HAL_Driver/Src/stm32l4xx_hal_ospi.c ****   * @brief  Rx Transfer completed callback.
1925:Drivers/STM32L4xx_HAL_Driver/Src/stm32l4xx_hal_ospi.c ****   * @param  hospi : OSPI handle
1926:Drivers/STM32L4xx_HAL_Driver/Src/stm32l4xx_hal_ospi.c ****   * @retval None
1927:Drivers/STM32L4xx_HAL_Driver/Src/stm32l4xx_hal_ospi.c ****   */
1928:Drivers/STM32L4xx_HAL_Driver/Src/stm32l4xx_hal_ospi.c **** __weak void HAL_OSPI_RxCpltCallback(OSPI_HandleTypeDef *hospi)
1929:Drivers/STM32L4xx_HAL_Driver/Src/stm32l4xx_hal_ospi.c **** {
 3339              		.loc 1 1929 1
 3340              		.cfi_startproc
 3341              		@ args = 0, pretend = 0, frame = 8
 3342              		@ frame_needed = 1, uses_anonymous_args = 0
 3343              		@ link register save eliminated.
 3344 0000 80B4     		push	{r7}
 3345              		.cfi_def_cfa_offset 4
 3346              		.cfi_offset 7, -4
 3347 0002 83B0     		sub	sp, sp, #12
 3348              		.cfi_def_cfa_offset 16
 3349 0004 00AF     		add	r7, sp, #0
 3350              		.cfi_def_cfa_register 7
 3351 0006 7860     		str	r0, [r7, #4]
1930:Drivers/STM32L4xx_HAL_Driver/Src/stm32l4xx_hal_ospi.c ****   /* Prevent unused argument(s) compilation warning */
1931:Drivers/STM32L4xx_HAL_Driver/Src/stm32l4xx_hal_ospi.c ****   UNUSED(hospi);
1932:Drivers/STM32L4xx_HAL_Driver/Src/stm32l4xx_hal_ospi.c **** 
1933:Drivers/STM32L4xx_HAL_Driver/Src/stm32l4xx_hal_ospi.c ****   /* NOTE: This function should not be modified, when the callback is needed,
1934:Drivers/STM32L4xx_HAL_Driver/Src/stm32l4xx_hal_ospi.c ****            the HAL_OSPI_RxCpltCallback could be implemented in the user file
1935:Drivers/STM32L4xx_HAL_Driver/Src/stm32l4xx_hal_ospi.c ****    */
1936:Drivers/STM32L4xx_HAL_Driver/Src/stm32l4xx_hal_ospi.c **** }
 3352              		.loc 1 1936 1
 3353 0008 00BF     		nop
 3354 000a 0C37     		adds	r7, r7, #12
 3355              		.cfi_def_cfa_offset 4
 3356 000c BD46     		mov	sp, r7
 3357              		.cfi_def_cfa_register 13
 3358              		@ sp needed
 3359 000e 5DF8047B 		ldr	r7, [sp], #4
 3360              		.cfi_restore 7
 3361              		.cfi_def_cfa_offset 0
 3362 0012 7047     		bx	lr
 3363              		.cfi_endproc
 3364              	.LFE343:
 3366              		.section	.text.HAL_OSPI_TxCpltCallback,"ax",%progbits
 3367              		.align	1
 3368              		.weak	HAL_OSPI_TxCpltCallback
 3369              		.syntax unified
 3370              		.thumb
 3371              		.thumb_func
 3373              	HAL_OSPI_TxCpltCallback:
 3374              	.LFB344:
1937:Drivers/STM32L4xx_HAL_Driver/Src/stm32l4xx_hal_ospi.c **** 
1938:Drivers/STM32L4xx_HAL_Driver/Src/stm32l4xx_hal_ospi.c **** /**
1939:Drivers/STM32L4xx_HAL_Driver/Src/stm32l4xx_hal_ospi.c ****   * @brief  Tx Transfer completed callback.
1940:Drivers/STM32L4xx_HAL_Driver/Src/stm32l4xx_hal_ospi.c ****   * @param  hospi : OSPI handle
1941:Drivers/STM32L4xx_HAL_Driver/Src/stm32l4xx_hal_ospi.c ****   * @retval None
1942:Drivers/STM32L4xx_HAL_Driver/Src/stm32l4xx_hal_ospi.c ****   */
1943:Drivers/STM32L4xx_HAL_Driver/Src/stm32l4xx_hal_ospi.c ****  __weak void HAL_OSPI_TxCpltCallback(OSPI_HandleTypeDef *hospi)
1944:Drivers/STM32L4xx_HAL_Driver/Src/stm32l4xx_hal_ospi.c **** {
 3375              		.loc 1 1944 1
ARM GAS  C:\Users\Morroway\AppData\Local\Temp\ccxQAUQ3.s 			page 94


 3376              		.cfi_startproc
 3377              		@ args = 0, pretend = 0, frame = 8
 3378              		@ frame_needed = 1, uses_anonymous_args = 0
 3379              		@ link register save eliminated.
 3380 0000 80B4     		push	{r7}
 3381              		.cfi_def_cfa_offset 4
 3382              		.cfi_offset 7, -4
 3383 0002 83B0     		sub	sp, sp, #12
 3384              		.cfi_def_cfa_offset 16
 3385 0004 00AF     		add	r7, sp, #0
 3386              		.cfi_def_cfa_register 7
 3387 0006 7860     		str	r0, [r7, #4]
1945:Drivers/STM32L4xx_HAL_Driver/Src/stm32l4xx_hal_ospi.c ****   /* Prevent unused argument(s) compilation warning */
1946:Drivers/STM32L4xx_HAL_Driver/Src/stm32l4xx_hal_ospi.c ****   UNUSED(hospi);
1947:Drivers/STM32L4xx_HAL_Driver/Src/stm32l4xx_hal_ospi.c **** 
1948:Drivers/STM32L4xx_HAL_Driver/Src/stm32l4xx_hal_ospi.c ****   /* NOTE: This function should not be modified, when the callback is needed,
1949:Drivers/STM32L4xx_HAL_Driver/Src/stm32l4xx_hal_ospi.c ****            the HAL_OSPI_TxCpltCallback could be implemented in the user file
1950:Drivers/STM32L4xx_HAL_Driver/Src/stm32l4xx_hal_ospi.c ****    */
1951:Drivers/STM32L4xx_HAL_Driver/Src/stm32l4xx_hal_ospi.c **** }
 3388              		.loc 1 1951 1
 3389 0008 00BF     		nop
 3390 000a 0C37     		adds	r7, r7, #12
 3391              		.cfi_def_cfa_offset 4
 3392 000c BD46     		mov	sp, r7
 3393              		.cfi_def_cfa_register 13
 3394              		@ sp needed
 3395 000e 5DF8047B 		ldr	r7, [sp], #4
 3396              		.cfi_restore 7
 3397              		.cfi_def_cfa_offset 0
 3398 0012 7047     		bx	lr
 3399              		.cfi_endproc
 3400              	.LFE344:
 3402              		.section	.text.HAL_OSPI_RxHalfCpltCallback,"ax",%progbits
 3403              		.align	1
 3404              		.weak	HAL_OSPI_RxHalfCpltCallback
 3405              		.syntax unified
 3406              		.thumb
 3407              		.thumb_func
 3409              	HAL_OSPI_RxHalfCpltCallback:
 3410              	.LFB345:
1952:Drivers/STM32L4xx_HAL_Driver/Src/stm32l4xx_hal_ospi.c **** 
1953:Drivers/STM32L4xx_HAL_Driver/Src/stm32l4xx_hal_ospi.c **** /**
1954:Drivers/STM32L4xx_HAL_Driver/Src/stm32l4xx_hal_ospi.c ****   * @brief  Rx Half Transfer completed callback.
1955:Drivers/STM32L4xx_HAL_Driver/Src/stm32l4xx_hal_ospi.c ****   * @param  hospi : OSPI handle
1956:Drivers/STM32L4xx_HAL_Driver/Src/stm32l4xx_hal_ospi.c ****   * @retval None
1957:Drivers/STM32L4xx_HAL_Driver/Src/stm32l4xx_hal_ospi.c ****   */
1958:Drivers/STM32L4xx_HAL_Driver/Src/stm32l4xx_hal_ospi.c **** __weak void HAL_OSPI_RxHalfCpltCallback(OSPI_HandleTypeDef *hospi)
1959:Drivers/STM32L4xx_HAL_Driver/Src/stm32l4xx_hal_ospi.c **** {
 3411              		.loc 1 1959 1
 3412              		.cfi_startproc
 3413              		@ args = 0, pretend = 0, frame = 8
 3414              		@ frame_needed = 1, uses_anonymous_args = 0
 3415              		@ link register save eliminated.
 3416 0000 80B4     		push	{r7}
 3417              		.cfi_def_cfa_offset 4
 3418              		.cfi_offset 7, -4
 3419 0002 83B0     		sub	sp, sp, #12
ARM GAS  C:\Users\Morroway\AppData\Local\Temp\ccxQAUQ3.s 			page 95


 3420              		.cfi_def_cfa_offset 16
 3421 0004 00AF     		add	r7, sp, #0
 3422              		.cfi_def_cfa_register 7
 3423 0006 7860     		str	r0, [r7, #4]
1960:Drivers/STM32L4xx_HAL_Driver/Src/stm32l4xx_hal_ospi.c ****   /* Prevent unused argument(s) compilation warning */
1961:Drivers/STM32L4xx_HAL_Driver/Src/stm32l4xx_hal_ospi.c ****   UNUSED(hospi);
1962:Drivers/STM32L4xx_HAL_Driver/Src/stm32l4xx_hal_ospi.c **** 
1963:Drivers/STM32L4xx_HAL_Driver/Src/stm32l4xx_hal_ospi.c ****   /* NOTE: This function should not be modified, when the callback is needed,
1964:Drivers/STM32L4xx_HAL_Driver/Src/stm32l4xx_hal_ospi.c ****            the HAL_OSPI_RxHalfCpltCallback could be implemented in the user file
1965:Drivers/STM32L4xx_HAL_Driver/Src/stm32l4xx_hal_ospi.c ****    */
1966:Drivers/STM32L4xx_HAL_Driver/Src/stm32l4xx_hal_ospi.c **** }
 3424              		.loc 1 1966 1
 3425 0008 00BF     		nop
 3426 000a 0C37     		adds	r7, r7, #12
 3427              		.cfi_def_cfa_offset 4
 3428 000c BD46     		mov	sp, r7
 3429              		.cfi_def_cfa_register 13
 3430              		@ sp needed
 3431 000e 5DF8047B 		ldr	r7, [sp], #4
 3432              		.cfi_restore 7
 3433              		.cfi_def_cfa_offset 0
 3434 0012 7047     		bx	lr
 3435              		.cfi_endproc
 3436              	.LFE345:
 3438              		.section	.text.HAL_OSPI_TxHalfCpltCallback,"ax",%progbits
 3439              		.align	1
 3440              		.weak	HAL_OSPI_TxHalfCpltCallback
 3441              		.syntax unified
 3442              		.thumb
 3443              		.thumb_func
 3445              	HAL_OSPI_TxHalfCpltCallback:
 3446              	.LFB346:
1967:Drivers/STM32L4xx_HAL_Driver/Src/stm32l4xx_hal_ospi.c **** 
1968:Drivers/STM32L4xx_HAL_Driver/Src/stm32l4xx_hal_ospi.c **** /**
1969:Drivers/STM32L4xx_HAL_Driver/Src/stm32l4xx_hal_ospi.c ****   * @brief  Tx Half Transfer completed callback.
1970:Drivers/STM32L4xx_HAL_Driver/Src/stm32l4xx_hal_ospi.c ****   * @param  hospi : OSPI handle
1971:Drivers/STM32L4xx_HAL_Driver/Src/stm32l4xx_hal_ospi.c ****   * @retval None
1972:Drivers/STM32L4xx_HAL_Driver/Src/stm32l4xx_hal_ospi.c ****   */
1973:Drivers/STM32L4xx_HAL_Driver/Src/stm32l4xx_hal_ospi.c **** __weak void HAL_OSPI_TxHalfCpltCallback(OSPI_HandleTypeDef *hospi)
1974:Drivers/STM32L4xx_HAL_Driver/Src/stm32l4xx_hal_ospi.c **** {
 3447              		.loc 1 1974 1
 3448              		.cfi_startproc
 3449              		@ args = 0, pretend = 0, frame = 8
 3450              		@ frame_needed = 1, uses_anonymous_args = 0
 3451              		@ link register save eliminated.
 3452 0000 80B4     		push	{r7}
 3453              		.cfi_def_cfa_offset 4
 3454              		.cfi_offset 7, -4
 3455 0002 83B0     		sub	sp, sp, #12
 3456              		.cfi_def_cfa_offset 16
 3457 0004 00AF     		add	r7, sp, #0
 3458              		.cfi_def_cfa_register 7
 3459 0006 7860     		str	r0, [r7, #4]
1975:Drivers/STM32L4xx_HAL_Driver/Src/stm32l4xx_hal_ospi.c ****   /* Prevent unused argument(s) compilation warning */
1976:Drivers/STM32L4xx_HAL_Driver/Src/stm32l4xx_hal_ospi.c ****   UNUSED(hospi);
1977:Drivers/STM32L4xx_HAL_Driver/Src/stm32l4xx_hal_ospi.c **** 
1978:Drivers/STM32L4xx_HAL_Driver/Src/stm32l4xx_hal_ospi.c ****   /* NOTE: This function should not be modified, when the callback is needed,
ARM GAS  C:\Users\Morroway\AppData\Local\Temp\ccxQAUQ3.s 			page 96


1979:Drivers/STM32L4xx_HAL_Driver/Src/stm32l4xx_hal_ospi.c ****            the HAL_OSPI_TxHalfCpltCallback could be implemented in the user file
1980:Drivers/STM32L4xx_HAL_Driver/Src/stm32l4xx_hal_ospi.c ****    */
1981:Drivers/STM32L4xx_HAL_Driver/Src/stm32l4xx_hal_ospi.c **** }
 3460              		.loc 1 1981 1
 3461 0008 00BF     		nop
 3462 000a 0C37     		adds	r7, r7, #12
 3463              		.cfi_def_cfa_offset 4
 3464 000c BD46     		mov	sp, r7
 3465              		.cfi_def_cfa_register 13
 3466              		@ sp needed
 3467 000e 5DF8047B 		ldr	r7, [sp], #4
 3468              		.cfi_restore 7
 3469              		.cfi_def_cfa_offset 0
 3470 0012 7047     		bx	lr
 3471              		.cfi_endproc
 3472              	.LFE346:
 3474              		.section	.text.HAL_OSPI_StatusMatchCallback,"ax",%progbits
 3475              		.align	1
 3476              		.weak	HAL_OSPI_StatusMatchCallback
 3477              		.syntax unified
 3478              		.thumb
 3479              		.thumb_func
 3481              	HAL_OSPI_StatusMatchCallback:
 3482              	.LFB347:
1982:Drivers/STM32L4xx_HAL_Driver/Src/stm32l4xx_hal_ospi.c **** 
1983:Drivers/STM32L4xx_HAL_Driver/Src/stm32l4xx_hal_ospi.c **** /**
1984:Drivers/STM32L4xx_HAL_Driver/Src/stm32l4xx_hal_ospi.c ****   * @brief  Status Match callback.
1985:Drivers/STM32L4xx_HAL_Driver/Src/stm32l4xx_hal_ospi.c ****   * @param  hospi : OSPI handle
1986:Drivers/STM32L4xx_HAL_Driver/Src/stm32l4xx_hal_ospi.c ****   * @retval None
1987:Drivers/STM32L4xx_HAL_Driver/Src/stm32l4xx_hal_ospi.c ****   */
1988:Drivers/STM32L4xx_HAL_Driver/Src/stm32l4xx_hal_ospi.c **** __weak void HAL_OSPI_StatusMatchCallback(OSPI_HandleTypeDef *hospi)
1989:Drivers/STM32L4xx_HAL_Driver/Src/stm32l4xx_hal_ospi.c **** {
 3483              		.loc 1 1989 1
 3484              		.cfi_startproc
 3485              		@ args = 0, pretend = 0, frame = 8
 3486              		@ frame_needed = 1, uses_anonymous_args = 0
 3487              		@ link register save eliminated.
 3488 0000 80B4     		push	{r7}
 3489              		.cfi_def_cfa_offset 4
 3490              		.cfi_offset 7, -4
 3491 0002 83B0     		sub	sp, sp, #12
 3492              		.cfi_def_cfa_offset 16
 3493 0004 00AF     		add	r7, sp, #0
 3494              		.cfi_def_cfa_register 7
 3495 0006 7860     		str	r0, [r7, #4]
1990:Drivers/STM32L4xx_HAL_Driver/Src/stm32l4xx_hal_ospi.c ****   /* Prevent unused argument(s) compilation warning */
1991:Drivers/STM32L4xx_HAL_Driver/Src/stm32l4xx_hal_ospi.c ****   UNUSED(hospi);
1992:Drivers/STM32L4xx_HAL_Driver/Src/stm32l4xx_hal_ospi.c **** 
1993:Drivers/STM32L4xx_HAL_Driver/Src/stm32l4xx_hal_ospi.c ****   /* NOTE : This function should not be modified, when the callback is needed,
1994:Drivers/STM32L4xx_HAL_Driver/Src/stm32l4xx_hal_ospi.c ****             the HAL_OSPI_StatusMatchCallback could be implemented in the user file
1995:Drivers/STM32L4xx_HAL_Driver/Src/stm32l4xx_hal_ospi.c ****    */
1996:Drivers/STM32L4xx_HAL_Driver/Src/stm32l4xx_hal_ospi.c **** }
 3496              		.loc 1 1996 1
 3497 0008 00BF     		nop
 3498 000a 0C37     		adds	r7, r7, #12
 3499              		.cfi_def_cfa_offset 4
 3500 000c BD46     		mov	sp, r7
ARM GAS  C:\Users\Morroway\AppData\Local\Temp\ccxQAUQ3.s 			page 97


 3501              		.cfi_def_cfa_register 13
 3502              		@ sp needed
 3503 000e 5DF8047B 		ldr	r7, [sp], #4
 3504              		.cfi_restore 7
 3505              		.cfi_def_cfa_offset 0
 3506 0012 7047     		bx	lr
 3507              		.cfi_endproc
 3508              	.LFE347:
 3510              		.section	.text.HAL_OSPI_TimeOutCallback,"ax",%progbits
 3511              		.align	1
 3512              		.weak	HAL_OSPI_TimeOutCallback
 3513              		.syntax unified
 3514              		.thumb
 3515              		.thumb_func
 3517              	HAL_OSPI_TimeOutCallback:
 3518              	.LFB348:
1997:Drivers/STM32L4xx_HAL_Driver/Src/stm32l4xx_hal_ospi.c **** 
1998:Drivers/STM32L4xx_HAL_Driver/Src/stm32l4xx_hal_ospi.c **** /**
1999:Drivers/STM32L4xx_HAL_Driver/Src/stm32l4xx_hal_ospi.c ****   * @brief  Timeout callback.
2000:Drivers/STM32L4xx_HAL_Driver/Src/stm32l4xx_hal_ospi.c ****   * @param  hospi : OSPI handle
2001:Drivers/STM32L4xx_HAL_Driver/Src/stm32l4xx_hal_ospi.c ****   * @retval None
2002:Drivers/STM32L4xx_HAL_Driver/Src/stm32l4xx_hal_ospi.c ****   */
2003:Drivers/STM32L4xx_HAL_Driver/Src/stm32l4xx_hal_ospi.c **** __weak void HAL_OSPI_TimeOutCallback(OSPI_HandleTypeDef *hospi)
2004:Drivers/STM32L4xx_HAL_Driver/Src/stm32l4xx_hal_ospi.c **** {
 3519              		.loc 1 2004 1
 3520              		.cfi_startproc
 3521              		@ args = 0, pretend = 0, frame = 8
 3522              		@ frame_needed = 1, uses_anonymous_args = 0
 3523              		@ link register save eliminated.
 3524 0000 80B4     		push	{r7}
 3525              		.cfi_def_cfa_offset 4
 3526              		.cfi_offset 7, -4
 3527 0002 83B0     		sub	sp, sp, #12
 3528              		.cfi_def_cfa_offset 16
 3529 0004 00AF     		add	r7, sp, #0
 3530              		.cfi_def_cfa_register 7
 3531 0006 7860     		str	r0, [r7, #4]
2005:Drivers/STM32L4xx_HAL_Driver/Src/stm32l4xx_hal_ospi.c ****   /* Prevent unused argument(s) compilation warning */
2006:Drivers/STM32L4xx_HAL_Driver/Src/stm32l4xx_hal_ospi.c ****   UNUSED(hospi);
2007:Drivers/STM32L4xx_HAL_Driver/Src/stm32l4xx_hal_ospi.c **** 
2008:Drivers/STM32L4xx_HAL_Driver/Src/stm32l4xx_hal_ospi.c ****   /* NOTE : This function should not be modified, when the callback is needed,
2009:Drivers/STM32L4xx_HAL_Driver/Src/stm32l4xx_hal_ospi.c ****             the HAL_OSPI_TimeOutCallback could be implemented in the user file
2010:Drivers/STM32L4xx_HAL_Driver/Src/stm32l4xx_hal_ospi.c ****    */
2011:Drivers/STM32L4xx_HAL_Driver/Src/stm32l4xx_hal_ospi.c **** }
 3532              		.loc 1 2011 1
 3533 0008 00BF     		nop
 3534 000a 0C37     		adds	r7, r7, #12
 3535              		.cfi_def_cfa_offset 4
 3536 000c BD46     		mov	sp, r7
 3537              		.cfi_def_cfa_register 13
 3538              		@ sp needed
 3539 000e 5DF8047B 		ldr	r7, [sp], #4
 3540              		.cfi_restore 7
 3541              		.cfi_def_cfa_offset 0
 3542 0012 7047     		bx	lr
 3543              		.cfi_endproc
 3544              	.LFE348:
ARM GAS  C:\Users\Morroway\AppData\Local\Temp\ccxQAUQ3.s 			page 98


 3546              		.section	.text.HAL_OSPI_Abort,"ax",%progbits
 3547              		.align	1
 3548              		.global	HAL_OSPI_Abort
 3549              		.syntax unified
 3550              		.thumb
 3551              		.thumb_func
 3553              	HAL_OSPI_Abort:
 3554              	.LFB349:
2012:Drivers/STM32L4xx_HAL_Driver/Src/stm32l4xx_hal_ospi.c **** 
2013:Drivers/STM32L4xx_HAL_Driver/Src/stm32l4xx_hal_ospi.c **** #if defined (USE_HAL_OSPI_REGISTER_CALLBACKS) && (USE_HAL_OSPI_REGISTER_CALLBACKS == 1U)
2014:Drivers/STM32L4xx_HAL_Driver/Src/stm32l4xx_hal_ospi.c **** /**
2015:Drivers/STM32L4xx_HAL_Driver/Src/stm32l4xx_hal_ospi.c ****   * @brief  Register a User OSPI Callback
2016:Drivers/STM32L4xx_HAL_Driver/Src/stm32l4xx_hal_ospi.c ****   *         To be used instead of the weak (surcharged) predefined callback
2017:Drivers/STM32L4xx_HAL_Driver/Src/stm32l4xx_hal_ospi.c ****   * @param hospi : OSPI handle
2018:Drivers/STM32L4xx_HAL_Driver/Src/stm32l4xx_hal_ospi.c ****   * @param CallbackID : ID of the callback to be registered
2019:Drivers/STM32L4xx_HAL_Driver/Src/stm32l4xx_hal_ospi.c ****   *        This parameter can be one of the following values:
2020:Drivers/STM32L4xx_HAL_Driver/Src/stm32l4xx_hal_ospi.c ****   *          @arg @ref HAL_OSPI_ERROR_CB_ID          OSPI Error Callback ID
2021:Drivers/STM32L4xx_HAL_Driver/Src/stm32l4xx_hal_ospi.c ****   *          @arg @ref HAL_OSPI_ABORT_CB_ID          OSPI Abort Callback ID
2022:Drivers/STM32L4xx_HAL_Driver/Src/stm32l4xx_hal_ospi.c ****   *          @arg @ref HAL_OSPI_FIFO_THRESHOLD_CB_ID OSPI FIFO Threshold Callback ID
2023:Drivers/STM32L4xx_HAL_Driver/Src/stm32l4xx_hal_ospi.c ****   *          @arg @ref HAL_OSPI_CMD_CPLT_CB_ID       OSPI Command Complete Callback ID
2024:Drivers/STM32L4xx_HAL_Driver/Src/stm32l4xx_hal_ospi.c ****   *          @arg @ref HAL_OSPI_RX_CPLT_CB_ID        OSPI Rx Complete Callback ID
2025:Drivers/STM32L4xx_HAL_Driver/Src/stm32l4xx_hal_ospi.c ****   *          @arg @ref HAL_OSPI_TX_CPLT_CB_ID        OSPI Tx Complete Callback ID
2026:Drivers/STM32L4xx_HAL_Driver/Src/stm32l4xx_hal_ospi.c ****   *          @arg @ref HAL_OSPI_RX_HALF_CPLT_CB_ID   OSPI Rx Half Complete Callback ID
2027:Drivers/STM32L4xx_HAL_Driver/Src/stm32l4xx_hal_ospi.c ****   *          @arg @ref HAL_OSPI_TX_HALF_CPLT_CB_ID   OSPI Tx Half Complete Callback ID
2028:Drivers/STM32L4xx_HAL_Driver/Src/stm32l4xx_hal_ospi.c ****   *          @arg @ref HAL_OSPI_STATUS_MATCH_CB_ID   OSPI Status Match Callback ID
2029:Drivers/STM32L4xx_HAL_Driver/Src/stm32l4xx_hal_ospi.c ****   *          @arg @ref HAL_OSPI_TIMEOUT_CB_ID        OSPI Timeout Callback ID
2030:Drivers/STM32L4xx_HAL_Driver/Src/stm32l4xx_hal_ospi.c ****   *          @arg @ref HAL_OSPI_MSP_INIT_CB_ID       OSPI MspInit callback ID
2031:Drivers/STM32L4xx_HAL_Driver/Src/stm32l4xx_hal_ospi.c ****   *          @arg @ref HAL_OSPI_MSP_DEINIT_CB_ID     OSPI MspDeInit callback ID
2032:Drivers/STM32L4xx_HAL_Driver/Src/stm32l4xx_hal_ospi.c ****   * @param pCallback : pointer to the Callback function
2033:Drivers/STM32L4xx_HAL_Driver/Src/stm32l4xx_hal_ospi.c ****   * @retval status
2034:Drivers/STM32L4xx_HAL_Driver/Src/stm32l4xx_hal_ospi.c ****   */
2035:Drivers/STM32L4xx_HAL_Driver/Src/stm32l4xx_hal_ospi.c **** HAL_StatusTypeDef HAL_OSPI_RegisterCallback(OSPI_HandleTypeDef *hospi, HAL_OSPI_CallbackIDTypeDef C
2036:Drivers/STM32L4xx_HAL_Driver/Src/stm32l4xx_hal_ospi.c ****                                             pOSPI_CallbackTypeDef pCallback)
2037:Drivers/STM32L4xx_HAL_Driver/Src/stm32l4xx_hal_ospi.c **** {
2038:Drivers/STM32L4xx_HAL_Driver/Src/stm32l4xx_hal_ospi.c ****   HAL_StatusTypeDef status = HAL_OK;
2039:Drivers/STM32L4xx_HAL_Driver/Src/stm32l4xx_hal_ospi.c **** 
2040:Drivers/STM32L4xx_HAL_Driver/Src/stm32l4xx_hal_ospi.c ****   if(pCallback == NULL)
2041:Drivers/STM32L4xx_HAL_Driver/Src/stm32l4xx_hal_ospi.c ****   {
2042:Drivers/STM32L4xx_HAL_Driver/Src/stm32l4xx_hal_ospi.c ****     /* Update the error code */
2043:Drivers/STM32L4xx_HAL_Driver/Src/stm32l4xx_hal_ospi.c ****     hospi->ErrorCode |= HAL_OSPI_ERROR_INVALID_CALLBACK;
2044:Drivers/STM32L4xx_HAL_Driver/Src/stm32l4xx_hal_ospi.c ****     return HAL_ERROR;
2045:Drivers/STM32L4xx_HAL_Driver/Src/stm32l4xx_hal_ospi.c ****   }
2046:Drivers/STM32L4xx_HAL_Driver/Src/stm32l4xx_hal_ospi.c **** 
2047:Drivers/STM32L4xx_HAL_Driver/Src/stm32l4xx_hal_ospi.c ****   if(hospi->State == HAL_OSPI_STATE_READY)
2048:Drivers/STM32L4xx_HAL_Driver/Src/stm32l4xx_hal_ospi.c ****   {
2049:Drivers/STM32L4xx_HAL_Driver/Src/stm32l4xx_hal_ospi.c ****     switch (CallbackID)
2050:Drivers/STM32L4xx_HAL_Driver/Src/stm32l4xx_hal_ospi.c ****     {
2051:Drivers/STM32L4xx_HAL_Driver/Src/stm32l4xx_hal_ospi.c ****     case  HAL_OSPI_ERROR_CB_ID :
2052:Drivers/STM32L4xx_HAL_Driver/Src/stm32l4xx_hal_ospi.c ****       hospi->ErrorCallback = pCallback;
2053:Drivers/STM32L4xx_HAL_Driver/Src/stm32l4xx_hal_ospi.c ****       break;
2054:Drivers/STM32L4xx_HAL_Driver/Src/stm32l4xx_hal_ospi.c ****     case HAL_OSPI_ABORT_CB_ID :
2055:Drivers/STM32L4xx_HAL_Driver/Src/stm32l4xx_hal_ospi.c ****       hospi->AbortCpltCallback = pCallback;
2056:Drivers/STM32L4xx_HAL_Driver/Src/stm32l4xx_hal_ospi.c ****       break;
2057:Drivers/STM32L4xx_HAL_Driver/Src/stm32l4xx_hal_ospi.c ****     case HAL_OSPI_FIFO_THRESHOLD_CB_ID :
2058:Drivers/STM32L4xx_HAL_Driver/Src/stm32l4xx_hal_ospi.c ****       hospi->FifoThresholdCallback = pCallback;
2059:Drivers/STM32L4xx_HAL_Driver/Src/stm32l4xx_hal_ospi.c ****       break;
2060:Drivers/STM32L4xx_HAL_Driver/Src/stm32l4xx_hal_ospi.c ****     case HAL_OSPI_CMD_CPLT_CB_ID :
ARM GAS  C:\Users\Morroway\AppData\Local\Temp\ccxQAUQ3.s 			page 99


2061:Drivers/STM32L4xx_HAL_Driver/Src/stm32l4xx_hal_ospi.c ****       hospi->CmdCpltCallback = pCallback;
2062:Drivers/STM32L4xx_HAL_Driver/Src/stm32l4xx_hal_ospi.c ****       break;
2063:Drivers/STM32L4xx_HAL_Driver/Src/stm32l4xx_hal_ospi.c ****     case HAL_OSPI_RX_CPLT_CB_ID :
2064:Drivers/STM32L4xx_HAL_Driver/Src/stm32l4xx_hal_ospi.c ****       hospi->RxCpltCallback = pCallback;
2065:Drivers/STM32L4xx_HAL_Driver/Src/stm32l4xx_hal_ospi.c ****       break;
2066:Drivers/STM32L4xx_HAL_Driver/Src/stm32l4xx_hal_ospi.c ****     case HAL_OSPI_TX_CPLT_CB_ID :
2067:Drivers/STM32L4xx_HAL_Driver/Src/stm32l4xx_hal_ospi.c ****       hospi->TxCpltCallback = pCallback;
2068:Drivers/STM32L4xx_HAL_Driver/Src/stm32l4xx_hal_ospi.c ****       break;
2069:Drivers/STM32L4xx_HAL_Driver/Src/stm32l4xx_hal_ospi.c ****     case HAL_OSPI_RX_HALF_CPLT_CB_ID :
2070:Drivers/STM32L4xx_HAL_Driver/Src/stm32l4xx_hal_ospi.c ****       hospi->RxHalfCpltCallback = pCallback;
2071:Drivers/STM32L4xx_HAL_Driver/Src/stm32l4xx_hal_ospi.c ****       break;
2072:Drivers/STM32L4xx_HAL_Driver/Src/stm32l4xx_hal_ospi.c ****     case HAL_OSPI_TX_HALF_CPLT_CB_ID :
2073:Drivers/STM32L4xx_HAL_Driver/Src/stm32l4xx_hal_ospi.c ****       hospi->TxHalfCpltCallback = pCallback;
2074:Drivers/STM32L4xx_HAL_Driver/Src/stm32l4xx_hal_ospi.c ****       break;
2075:Drivers/STM32L4xx_HAL_Driver/Src/stm32l4xx_hal_ospi.c ****     case HAL_OSPI_STATUS_MATCH_CB_ID :
2076:Drivers/STM32L4xx_HAL_Driver/Src/stm32l4xx_hal_ospi.c ****       hospi->StatusMatchCallback = pCallback;
2077:Drivers/STM32L4xx_HAL_Driver/Src/stm32l4xx_hal_ospi.c ****       break;
2078:Drivers/STM32L4xx_HAL_Driver/Src/stm32l4xx_hal_ospi.c ****     case HAL_OSPI_TIMEOUT_CB_ID :
2079:Drivers/STM32L4xx_HAL_Driver/Src/stm32l4xx_hal_ospi.c ****       hospi->TimeOutCallback = pCallback;
2080:Drivers/STM32L4xx_HAL_Driver/Src/stm32l4xx_hal_ospi.c ****       break;
2081:Drivers/STM32L4xx_HAL_Driver/Src/stm32l4xx_hal_ospi.c ****     case HAL_OSPI_MSP_INIT_CB_ID :
2082:Drivers/STM32L4xx_HAL_Driver/Src/stm32l4xx_hal_ospi.c ****       hospi->MspInitCallback = pCallback;
2083:Drivers/STM32L4xx_HAL_Driver/Src/stm32l4xx_hal_ospi.c ****       break;
2084:Drivers/STM32L4xx_HAL_Driver/Src/stm32l4xx_hal_ospi.c ****     case HAL_OSPI_MSP_DEINIT_CB_ID :
2085:Drivers/STM32L4xx_HAL_Driver/Src/stm32l4xx_hal_ospi.c ****       hospi->MspDeInitCallback = pCallback;
2086:Drivers/STM32L4xx_HAL_Driver/Src/stm32l4xx_hal_ospi.c ****       break;
2087:Drivers/STM32L4xx_HAL_Driver/Src/stm32l4xx_hal_ospi.c ****     default :
2088:Drivers/STM32L4xx_HAL_Driver/Src/stm32l4xx_hal_ospi.c ****       /* Update the error code */
2089:Drivers/STM32L4xx_HAL_Driver/Src/stm32l4xx_hal_ospi.c ****       hospi->ErrorCode |= HAL_OSPI_ERROR_INVALID_CALLBACK;
2090:Drivers/STM32L4xx_HAL_Driver/Src/stm32l4xx_hal_ospi.c ****       /* update return status */
2091:Drivers/STM32L4xx_HAL_Driver/Src/stm32l4xx_hal_ospi.c ****       status =  HAL_ERROR;
2092:Drivers/STM32L4xx_HAL_Driver/Src/stm32l4xx_hal_ospi.c ****       break;
2093:Drivers/STM32L4xx_HAL_Driver/Src/stm32l4xx_hal_ospi.c ****     }
2094:Drivers/STM32L4xx_HAL_Driver/Src/stm32l4xx_hal_ospi.c ****   }
2095:Drivers/STM32L4xx_HAL_Driver/Src/stm32l4xx_hal_ospi.c ****   else if (hospi->State == HAL_OSPI_STATE_RESET)
2096:Drivers/STM32L4xx_HAL_Driver/Src/stm32l4xx_hal_ospi.c ****   {
2097:Drivers/STM32L4xx_HAL_Driver/Src/stm32l4xx_hal_ospi.c ****     switch (CallbackID)
2098:Drivers/STM32L4xx_HAL_Driver/Src/stm32l4xx_hal_ospi.c ****     {
2099:Drivers/STM32L4xx_HAL_Driver/Src/stm32l4xx_hal_ospi.c ****     case HAL_OSPI_MSP_INIT_CB_ID :
2100:Drivers/STM32L4xx_HAL_Driver/Src/stm32l4xx_hal_ospi.c ****       hospi->MspInitCallback = pCallback;
2101:Drivers/STM32L4xx_HAL_Driver/Src/stm32l4xx_hal_ospi.c ****       break;
2102:Drivers/STM32L4xx_HAL_Driver/Src/stm32l4xx_hal_ospi.c ****     case HAL_OSPI_MSP_DEINIT_CB_ID :
2103:Drivers/STM32L4xx_HAL_Driver/Src/stm32l4xx_hal_ospi.c ****       hospi->MspDeInitCallback = pCallback;
2104:Drivers/STM32L4xx_HAL_Driver/Src/stm32l4xx_hal_ospi.c ****       break;
2105:Drivers/STM32L4xx_HAL_Driver/Src/stm32l4xx_hal_ospi.c ****     default :
2106:Drivers/STM32L4xx_HAL_Driver/Src/stm32l4xx_hal_ospi.c ****       /* Update the error code */
2107:Drivers/STM32L4xx_HAL_Driver/Src/stm32l4xx_hal_ospi.c ****       hospi->ErrorCode |= HAL_OSPI_ERROR_INVALID_CALLBACK;
2108:Drivers/STM32L4xx_HAL_Driver/Src/stm32l4xx_hal_ospi.c ****       /* update return status */
2109:Drivers/STM32L4xx_HAL_Driver/Src/stm32l4xx_hal_ospi.c ****       status =  HAL_ERROR;
2110:Drivers/STM32L4xx_HAL_Driver/Src/stm32l4xx_hal_ospi.c ****       break;
2111:Drivers/STM32L4xx_HAL_Driver/Src/stm32l4xx_hal_ospi.c ****     }
2112:Drivers/STM32L4xx_HAL_Driver/Src/stm32l4xx_hal_ospi.c ****   }
2113:Drivers/STM32L4xx_HAL_Driver/Src/stm32l4xx_hal_ospi.c ****   else
2114:Drivers/STM32L4xx_HAL_Driver/Src/stm32l4xx_hal_ospi.c ****   {
2115:Drivers/STM32L4xx_HAL_Driver/Src/stm32l4xx_hal_ospi.c ****     /* Update the error code */
2116:Drivers/STM32L4xx_HAL_Driver/Src/stm32l4xx_hal_ospi.c ****     hospi->ErrorCode |= HAL_OSPI_ERROR_INVALID_CALLBACK;
2117:Drivers/STM32L4xx_HAL_Driver/Src/stm32l4xx_hal_ospi.c ****     /* update return status */
ARM GAS  C:\Users\Morroway\AppData\Local\Temp\ccxQAUQ3.s 			page 100


2118:Drivers/STM32L4xx_HAL_Driver/Src/stm32l4xx_hal_ospi.c ****     status =  HAL_ERROR;
2119:Drivers/STM32L4xx_HAL_Driver/Src/stm32l4xx_hal_ospi.c ****   }
2120:Drivers/STM32L4xx_HAL_Driver/Src/stm32l4xx_hal_ospi.c **** 
2121:Drivers/STM32L4xx_HAL_Driver/Src/stm32l4xx_hal_ospi.c ****   return status;
2122:Drivers/STM32L4xx_HAL_Driver/Src/stm32l4xx_hal_ospi.c **** }
2123:Drivers/STM32L4xx_HAL_Driver/Src/stm32l4xx_hal_ospi.c **** 
2124:Drivers/STM32L4xx_HAL_Driver/Src/stm32l4xx_hal_ospi.c **** /**
2125:Drivers/STM32L4xx_HAL_Driver/Src/stm32l4xx_hal_ospi.c ****   * @brief  Unregister a User OSPI Callback
2126:Drivers/STM32L4xx_HAL_Driver/Src/stm32l4xx_hal_ospi.c ****   *         OSPI Callback is redirected to the weak (surcharged) predefined callback
2127:Drivers/STM32L4xx_HAL_Driver/Src/stm32l4xx_hal_ospi.c ****   * @param hospi : OSPI handle
2128:Drivers/STM32L4xx_HAL_Driver/Src/stm32l4xx_hal_ospi.c ****   * @param CallbackID : ID of the callback to be unregistered
2129:Drivers/STM32L4xx_HAL_Driver/Src/stm32l4xx_hal_ospi.c ****   *        This parameter can be one of the following values:
2130:Drivers/STM32L4xx_HAL_Driver/Src/stm32l4xx_hal_ospi.c ****   *          @arg @ref HAL_OSPI_ERROR_CB_ID          OSPI Error Callback ID
2131:Drivers/STM32L4xx_HAL_Driver/Src/stm32l4xx_hal_ospi.c ****   *          @arg @ref HAL_OSPI_ABORT_CB_ID          OSPI Abort Callback ID
2132:Drivers/STM32L4xx_HAL_Driver/Src/stm32l4xx_hal_ospi.c ****   *          @arg @ref HAL_OSPI_FIFO_THRESHOLD_CB_ID OSPI FIFO Threshold Callback ID
2133:Drivers/STM32L4xx_HAL_Driver/Src/stm32l4xx_hal_ospi.c ****   *          @arg @ref HAL_OSPI_CMD_CPLT_CB_ID       OSPI Command Complete Callback ID
2134:Drivers/STM32L4xx_HAL_Driver/Src/stm32l4xx_hal_ospi.c ****   *          @arg @ref HAL_OSPI_RX_CPLT_CB_ID        OSPI Rx Complete Callback ID
2135:Drivers/STM32L4xx_HAL_Driver/Src/stm32l4xx_hal_ospi.c ****   *          @arg @ref HAL_OSPI_TX_CPLT_CB_ID        OSPI Tx Complete Callback ID
2136:Drivers/STM32L4xx_HAL_Driver/Src/stm32l4xx_hal_ospi.c ****   *          @arg @ref HAL_OSPI_RX_HALF_CPLT_CB_ID   OSPI Rx Half Complete Callback ID
2137:Drivers/STM32L4xx_HAL_Driver/Src/stm32l4xx_hal_ospi.c ****   *          @arg @ref HAL_OSPI_TX_HALF_CPLT_CB_ID   OSPI Tx Half Complete Callback ID
2138:Drivers/STM32L4xx_HAL_Driver/Src/stm32l4xx_hal_ospi.c ****   *          @arg @ref HAL_OSPI_STATUS_MATCH_CB_ID   OSPI Status Match Callback ID
2139:Drivers/STM32L4xx_HAL_Driver/Src/stm32l4xx_hal_ospi.c ****   *          @arg @ref HAL_OSPI_TIMEOUT_CB_ID        OSPI Timeout Callback ID
2140:Drivers/STM32L4xx_HAL_Driver/Src/stm32l4xx_hal_ospi.c ****   *          @arg @ref HAL_OSPI_MSP_INIT_CB_ID       OSPI MspInit callback ID
2141:Drivers/STM32L4xx_HAL_Driver/Src/stm32l4xx_hal_ospi.c ****   *          @arg @ref HAL_OSPI_MSP_DEINIT_CB_ID     OSPI MspDeInit callback ID
2142:Drivers/STM32L4xx_HAL_Driver/Src/stm32l4xx_hal_ospi.c ****   * @retval status
2143:Drivers/STM32L4xx_HAL_Driver/Src/stm32l4xx_hal_ospi.c ****   */
2144:Drivers/STM32L4xx_HAL_Driver/Src/stm32l4xx_hal_ospi.c **** HAL_StatusTypeDef HAL_OSPI_UnRegisterCallback (OSPI_HandleTypeDef *hospi, HAL_OSPI_CallbackIDTypeDe
2145:Drivers/STM32L4xx_HAL_Driver/Src/stm32l4xx_hal_ospi.c **** {
2146:Drivers/STM32L4xx_HAL_Driver/Src/stm32l4xx_hal_ospi.c ****   HAL_StatusTypeDef status = HAL_OK;
2147:Drivers/STM32L4xx_HAL_Driver/Src/stm32l4xx_hal_ospi.c **** 
2148:Drivers/STM32L4xx_HAL_Driver/Src/stm32l4xx_hal_ospi.c ****   if(hospi->State == HAL_OSPI_STATE_READY)
2149:Drivers/STM32L4xx_HAL_Driver/Src/stm32l4xx_hal_ospi.c ****   {
2150:Drivers/STM32L4xx_HAL_Driver/Src/stm32l4xx_hal_ospi.c ****     switch (CallbackID)
2151:Drivers/STM32L4xx_HAL_Driver/Src/stm32l4xx_hal_ospi.c ****     {
2152:Drivers/STM32L4xx_HAL_Driver/Src/stm32l4xx_hal_ospi.c ****     case  HAL_OSPI_ERROR_CB_ID :
2153:Drivers/STM32L4xx_HAL_Driver/Src/stm32l4xx_hal_ospi.c ****       hospi->ErrorCallback = HAL_OSPI_ErrorCallback;
2154:Drivers/STM32L4xx_HAL_Driver/Src/stm32l4xx_hal_ospi.c ****       break;
2155:Drivers/STM32L4xx_HAL_Driver/Src/stm32l4xx_hal_ospi.c ****     case HAL_OSPI_ABORT_CB_ID :
2156:Drivers/STM32L4xx_HAL_Driver/Src/stm32l4xx_hal_ospi.c ****       hospi->AbortCpltCallback = HAL_OSPI_AbortCpltCallback;
2157:Drivers/STM32L4xx_HAL_Driver/Src/stm32l4xx_hal_ospi.c ****       break;
2158:Drivers/STM32L4xx_HAL_Driver/Src/stm32l4xx_hal_ospi.c ****     case HAL_OSPI_FIFO_THRESHOLD_CB_ID :
2159:Drivers/STM32L4xx_HAL_Driver/Src/stm32l4xx_hal_ospi.c ****       hospi->FifoThresholdCallback = HAL_OSPI_FifoThresholdCallback;
2160:Drivers/STM32L4xx_HAL_Driver/Src/stm32l4xx_hal_ospi.c ****       break;
2161:Drivers/STM32L4xx_HAL_Driver/Src/stm32l4xx_hal_ospi.c ****     case HAL_OSPI_CMD_CPLT_CB_ID :
2162:Drivers/STM32L4xx_HAL_Driver/Src/stm32l4xx_hal_ospi.c ****       hospi->CmdCpltCallback = HAL_OSPI_CmdCpltCallback;
2163:Drivers/STM32L4xx_HAL_Driver/Src/stm32l4xx_hal_ospi.c ****       break;
2164:Drivers/STM32L4xx_HAL_Driver/Src/stm32l4xx_hal_ospi.c ****     case HAL_OSPI_RX_CPLT_CB_ID :
2165:Drivers/STM32L4xx_HAL_Driver/Src/stm32l4xx_hal_ospi.c ****       hospi->RxCpltCallback = HAL_OSPI_RxCpltCallback;
2166:Drivers/STM32L4xx_HAL_Driver/Src/stm32l4xx_hal_ospi.c ****       break;
2167:Drivers/STM32L4xx_HAL_Driver/Src/stm32l4xx_hal_ospi.c ****     case HAL_OSPI_TX_CPLT_CB_ID :
2168:Drivers/STM32L4xx_HAL_Driver/Src/stm32l4xx_hal_ospi.c ****       hospi->TxCpltCallback = HAL_OSPI_TxCpltCallback;
2169:Drivers/STM32L4xx_HAL_Driver/Src/stm32l4xx_hal_ospi.c ****       break;
2170:Drivers/STM32L4xx_HAL_Driver/Src/stm32l4xx_hal_ospi.c ****     case HAL_OSPI_RX_HALF_CPLT_CB_ID :
2171:Drivers/STM32L4xx_HAL_Driver/Src/stm32l4xx_hal_ospi.c ****       hospi->RxHalfCpltCallback = HAL_OSPI_RxHalfCpltCallback;
2172:Drivers/STM32L4xx_HAL_Driver/Src/stm32l4xx_hal_ospi.c ****       break;
2173:Drivers/STM32L4xx_HAL_Driver/Src/stm32l4xx_hal_ospi.c ****     case HAL_OSPI_TX_HALF_CPLT_CB_ID :
2174:Drivers/STM32L4xx_HAL_Driver/Src/stm32l4xx_hal_ospi.c ****       hospi->TxHalfCpltCallback = HAL_OSPI_TxHalfCpltCallback;
ARM GAS  C:\Users\Morroway\AppData\Local\Temp\ccxQAUQ3.s 			page 101


2175:Drivers/STM32L4xx_HAL_Driver/Src/stm32l4xx_hal_ospi.c ****       break;
2176:Drivers/STM32L4xx_HAL_Driver/Src/stm32l4xx_hal_ospi.c ****     case HAL_OSPI_STATUS_MATCH_CB_ID :
2177:Drivers/STM32L4xx_HAL_Driver/Src/stm32l4xx_hal_ospi.c ****       hospi->StatusMatchCallback = HAL_OSPI_StatusMatchCallback;
2178:Drivers/STM32L4xx_HAL_Driver/Src/stm32l4xx_hal_ospi.c ****       break;
2179:Drivers/STM32L4xx_HAL_Driver/Src/stm32l4xx_hal_ospi.c ****     case HAL_OSPI_TIMEOUT_CB_ID :
2180:Drivers/STM32L4xx_HAL_Driver/Src/stm32l4xx_hal_ospi.c ****       hospi->TimeOutCallback = HAL_OSPI_TimeOutCallback;
2181:Drivers/STM32L4xx_HAL_Driver/Src/stm32l4xx_hal_ospi.c ****       break;
2182:Drivers/STM32L4xx_HAL_Driver/Src/stm32l4xx_hal_ospi.c ****     case HAL_OSPI_MSP_INIT_CB_ID :
2183:Drivers/STM32L4xx_HAL_Driver/Src/stm32l4xx_hal_ospi.c ****       hospi->MspInitCallback = HAL_OSPI_MspInit;
2184:Drivers/STM32L4xx_HAL_Driver/Src/stm32l4xx_hal_ospi.c ****       break;
2185:Drivers/STM32L4xx_HAL_Driver/Src/stm32l4xx_hal_ospi.c ****     case HAL_OSPI_MSP_DEINIT_CB_ID :
2186:Drivers/STM32L4xx_HAL_Driver/Src/stm32l4xx_hal_ospi.c ****       hospi->MspDeInitCallback = HAL_OSPI_MspDeInit;
2187:Drivers/STM32L4xx_HAL_Driver/Src/stm32l4xx_hal_ospi.c ****       break;
2188:Drivers/STM32L4xx_HAL_Driver/Src/stm32l4xx_hal_ospi.c ****     default :
2189:Drivers/STM32L4xx_HAL_Driver/Src/stm32l4xx_hal_ospi.c ****       /* Update the error code */
2190:Drivers/STM32L4xx_HAL_Driver/Src/stm32l4xx_hal_ospi.c ****       hospi->ErrorCode |= HAL_OSPI_ERROR_INVALID_CALLBACK;
2191:Drivers/STM32L4xx_HAL_Driver/Src/stm32l4xx_hal_ospi.c ****       /* update return status */
2192:Drivers/STM32L4xx_HAL_Driver/Src/stm32l4xx_hal_ospi.c ****       status =  HAL_ERROR;
2193:Drivers/STM32L4xx_HAL_Driver/Src/stm32l4xx_hal_ospi.c ****       break;
2194:Drivers/STM32L4xx_HAL_Driver/Src/stm32l4xx_hal_ospi.c ****     }
2195:Drivers/STM32L4xx_HAL_Driver/Src/stm32l4xx_hal_ospi.c ****   }
2196:Drivers/STM32L4xx_HAL_Driver/Src/stm32l4xx_hal_ospi.c ****   else if (hospi->State == HAL_OSPI_STATE_RESET)
2197:Drivers/STM32L4xx_HAL_Driver/Src/stm32l4xx_hal_ospi.c ****   {
2198:Drivers/STM32L4xx_HAL_Driver/Src/stm32l4xx_hal_ospi.c ****     switch (CallbackID)
2199:Drivers/STM32L4xx_HAL_Driver/Src/stm32l4xx_hal_ospi.c ****     {
2200:Drivers/STM32L4xx_HAL_Driver/Src/stm32l4xx_hal_ospi.c ****     case HAL_OSPI_MSP_INIT_CB_ID :
2201:Drivers/STM32L4xx_HAL_Driver/Src/stm32l4xx_hal_ospi.c ****       hospi->MspInitCallback = HAL_OSPI_MspInit;
2202:Drivers/STM32L4xx_HAL_Driver/Src/stm32l4xx_hal_ospi.c ****       break;
2203:Drivers/STM32L4xx_HAL_Driver/Src/stm32l4xx_hal_ospi.c ****     case HAL_OSPI_MSP_DEINIT_CB_ID :
2204:Drivers/STM32L4xx_HAL_Driver/Src/stm32l4xx_hal_ospi.c ****       hospi->MspDeInitCallback = HAL_OSPI_MspDeInit;
2205:Drivers/STM32L4xx_HAL_Driver/Src/stm32l4xx_hal_ospi.c ****       break;
2206:Drivers/STM32L4xx_HAL_Driver/Src/stm32l4xx_hal_ospi.c ****     default :
2207:Drivers/STM32L4xx_HAL_Driver/Src/stm32l4xx_hal_ospi.c ****       /* Update the error code */
2208:Drivers/STM32L4xx_HAL_Driver/Src/stm32l4xx_hal_ospi.c ****       hospi->ErrorCode |= HAL_OSPI_ERROR_INVALID_CALLBACK;
2209:Drivers/STM32L4xx_HAL_Driver/Src/stm32l4xx_hal_ospi.c ****       /* update return status */
2210:Drivers/STM32L4xx_HAL_Driver/Src/stm32l4xx_hal_ospi.c ****       status =  HAL_ERROR;
2211:Drivers/STM32L4xx_HAL_Driver/Src/stm32l4xx_hal_ospi.c ****       break;
2212:Drivers/STM32L4xx_HAL_Driver/Src/stm32l4xx_hal_ospi.c ****     }
2213:Drivers/STM32L4xx_HAL_Driver/Src/stm32l4xx_hal_ospi.c ****   }
2214:Drivers/STM32L4xx_HAL_Driver/Src/stm32l4xx_hal_ospi.c ****   else
2215:Drivers/STM32L4xx_HAL_Driver/Src/stm32l4xx_hal_ospi.c ****   {
2216:Drivers/STM32L4xx_HAL_Driver/Src/stm32l4xx_hal_ospi.c ****     /* Update the error code */
2217:Drivers/STM32L4xx_HAL_Driver/Src/stm32l4xx_hal_ospi.c ****     hospi->ErrorCode |= HAL_OSPI_ERROR_INVALID_CALLBACK;
2218:Drivers/STM32L4xx_HAL_Driver/Src/stm32l4xx_hal_ospi.c ****     /* update return status */
2219:Drivers/STM32L4xx_HAL_Driver/Src/stm32l4xx_hal_ospi.c ****     status =  HAL_ERROR;
2220:Drivers/STM32L4xx_HAL_Driver/Src/stm32l4xx_hal_ospi.c ****   }
2221:Drivers/STM32L4xx_HAL_Driver/Src/stm32l4xx_hal_ospi.c **** 
2222:Drivers/STM32L4xx_HAL_Driver/Src/stm32l4xx_hal_ospi.c ****   return status;
2223:Drivers/STM32L4xx_HAL_Driver/Src/stm32l4xx_hal_ospi.c **** }
2224:Drivers/STM32L4xx_HAL_Driver/Src/stm32l4xx_hal_ospi.c **** #endif /* defined (USE_HAL_OSPI_REGISTER_CALLBACKS) && (USE_HAL_OSPI_REGISTER_CALLBACKS == 1U) */
2225:Drivers/STM32L4xx_HAL_Driver/Src/stm32l4xx_hal_ospi.c **** 
2226:Drivers/STM32L4xx_HAL_Driver/Src/stm32l4xx_hal_ospi.c **** /**
2227:Drivers/STM32L4xx_HAL_Driver/Src/stm32l4xx_hal_ospi.c ****   * @}
2228:Drivers/STM32L4xx_HAL_Driver/Src/stm32l4xx_hal_ospi.c ****   */
2229:Drivers/STM32L4xx_HAL_Driver/Src/stm32l4xx_hal_ospi.c **** 
2230:Drivers/STM32L4xx_HAL_Driver/Src/stm32l4xx_hal_ospi.c **** /** @defgroup OSPI_Exported_Functions_Group3 Peripheral Control and State functions
2231:Drivers/STM32L4xx_HAL_Driver/Src/stm32l4xx_hal_ospi.c ****   *  @brief   OSPI control and State functions
ARM GAS  C:\Users\Morroway\AppData\Local\Temp\ccxQAUQ3.s 			page 102


2232:Drivers/STM32L4xx_HAL_Driver/Src/stm32l4xx_hal_ospi.c ****   *
2233:Drivers/STM32L4xx_HAL_Driver/Src/stm32l4xx_hal_ospi.c **** @verbatim
2234:Drivers/STM32L4xx_HAL_Driver/Src/stm32l4xx_hal_ospi.c ****  ===============================================================================
2235:Drivers/STM32L4xx_HAL_Driver/Src/stm32l4xx_hal_ospi.c ****                   ##### Peripheral Control and State functions #####
2236:Drivers/STM32L4xx_HAL_Driver/Src/stm32l4xx_hal_ospi.c ****  ===============================================================================
2237:Drivers/STM32L4xx_HAL_Driver/Src/stm32l4xx_hal_ospi.c ****     [..]
2238:Drivers/STM32L4xx_HAL_Driver/Src/stm32l4xx_hal_ospi.c ****     This subsection provides a set of functions allowing to :
2239:Drivers/STM32L4xx_HAL_Driver/Src/stm32l4xx_hal_ospi.c ****       (+) Check in run-time the state of the driver.
2240:Drivers/STM32L4xx_HAL_Driver/Src/stm32l4xx_hal_ospi.c ****       (+) Check the error code set during last operation.
2241:Drivers/STM32L4xx_HAL_Driver/Src/stm32l4xx_hal_ospi.c ****       (+) Abort any operation.
2242:Drivers/STM32L4xx_HAL_Driver/Src/stm32l4xx_hal_ospi.c ****       (+) Manage the Fifo threshold.
2243:Drivers/STM32L4xx_HAL_Driver/Src/stm32l4xx_hal_ospi.c ****       (+) Configure the timeout duration used in the driver.
2244:Drivers/STM32L4xx_HAL_Driver/Src/stm32l4xx_hal_ospi.c **** 
2245:Drivers/STM32L4xx_HAL_Driver/Src/stm32l4xx_hal_ospi.c **** @endverbatim
2246:Drivers/STM32L4xx_HAL_Driver/Src/stm32l4xx_hal_ospi.c ****   * @{
2247:Drivers/STM32L4xx_HAL_Driver/Src/stm32l4xx_hal_ospi.c ****   */
2248:Drivers/STM32L4xx_HAL_Driver/Src/stm32l4xx_hal_ospi.c **** 
2249:Drivers/STM32L4xx_HAL_Driver/Src/stm32l4xx_hal_ospi.c **** /**
2250:Drivers/STM32L4xx_HAL_Driver/Src/stm32l4xx_hal_ospi.c **** * @brief  Abort the current transmission.
2251:Drivers/STM32L4xx_HAL_Driver/Src/stm32l4xx_hal_ospi.c **** * @param  hospi : OSPI handle
2252:Drivers/STM32L4xx_HAL_Driver/Src/stm32l4xx_hal_ospi.c **** * @retval HAL status
2253:Drivers/STM32L4xx_HAL_Driver/Src/stm32l4xx_hal_ospi.c **** */
2254:Drivers/STM32L4xx_HAL_Driver/Src/stm32l4xx_hal_ospi.c **** HAL_StatusTypeDef HAL_OSPI_Abort(OSPI_HandleTypeDef *hospi)
2255:Drivers/STM32L4xx_HAL_Driver/Src/stm32l4xx_hal_ospi.c **** {
 3555              		.loc 1 2255 1
 3556              		.cfi_startproc
 3557              		@ args = 0, pretend = 0, frame = 24
 3558              		@ frame_needed = 1, uses_anonymous_args = 0
 3559 0000 80B5     		push	{r7, lr}
 3560              		.cfi_def_cfa_offset 8
 3561              		.cfi_offset 7, -8
 3562              		.cfi_offset 14, -4
 3563 0002 88B0     		sub	sp, sp, #32
 3564              		.cfi_def_cfa_offset 40
 3565 0004 02AF     		add	r7, sp, #8
 3566              		.cfi_def_cfa 7, 32
 3567 0006 7860     		str	r0, [r7, #4]
2256:Drivers/STM32L4xx_HAL_Driver/Src/stm32l4xx_hal_ospi.c ****   HAL_StatusTypeDef status = HAL_OK;
 3568              		.loc 1 2256 21
 3569 0008 0023     		movs	r3, #0
 3570 000a FB75     		strb	r3, [r7, #23]
2257:Drivers/STM32L4xx_HAL_Driver/Src/stm32l4xx_hal_ospi.c ****   uint32_t state;
2258:Drivers/STM32L4xx_HAL_Driver/Src/stm32l4xx_hal_ospi.c ****   uint32_t tickstart = HAL_GetTick();
 3571              		.loc 1 2258 24
 3572 000c FFF7FEFF 		bl	HAL_GetTick
 3573 0010 3861     		str	r0, [r7, #16]
2259:Drivers/STM32L4xx_HAL_Driver/Src/stm32l4xx_hal_ospi.c **** 
2260:Drivers/STM32L4xx_HAL_Driver/Src/stm32l4xx_hal_ospi.c ****   /* Check if the state is in one of the busy or configured states */
2261:Drivers/STM32L4xx_HAL_Driver/Src/stm32l4xx_hal_ospi.c ****   state = hospi->State;
 3574              		.loc 1 2261 9
 3575 0012 7B68     		ldr	r3, [r7, #4]
 3576 0014 DB6C     		ldr	r3, [r3, #76]
 3577 0016 FB60     		str	r3, [r7, #12]
2262:Drivers/STM32L4xx_HAL_Driver/Src/stm32l4xx_hal_ospi.c ****   if (((state & OSPI_BUSY_STATE_MASK) != 0U) || ((state & OSPI_CFG_STATE_MASK) != 0U))
 3578              		.loc 1 2262 15
 3579 0018 FB68     		ldr	r3, [r7, #12]
 3580 001a 03F00803 		and	r3, r3, #8
ARM GAS  C:\Users\Morroway\AppData\Local\Temp\ccxQAUQ3.s 			page 103


 3581              		.loc 1 2262 6
 3582 001e 002B     		cmp	r3, #0
 3583 0020 04D1     		bne	.L172
 3584              		.loc 1 2262 57 discriminator 1
 3585 0022 FB68     		ldr	r3, [r7, #12]
 3586 0024 03F00403 		and	r3, r3, #4
 3587              		.loc 1 2262 46 discriminator 1
 3588 0028 002B     		cmp	r3, #0
 3589 002a 52D0     		beq	.L173
 3590              	.L172:
2263:Drivers/STM32L4xx_HAL_Driver/Src/stm32l4xx_hal_ospi.c ****   {
2264:Drivers/STM32L4xx_HAL_Driver/Src/stm32l4xx_hal_ospi.c ****     /* Check if the DMA is enabled */
2265:Drivers/STM32L4xx_HAL_Driver/Src/stm32l4xx_hal_ospi.c ****     if ((hospi->Instance->CR & OCTOSPI_CR_DMAEN) != 0U)
 3591              		.loc 1 2265 15
 3592 002c 7B68     		ldr	r3, [r7, #4]
 3593 002e 1B68     		ldr	r3, [r3]
 3594              		.loc 1 2265 25
 3595 0030 1B68     		ldr	r3, [r3]
 3596              		.loc 1 2265 30
 3597 0032 03F00403 		and	r3, r3, #4
 3598              		.loc 1 2265 8
 3599 0036 002B     		cmp	r3, #0
 3600 0038 14D0     		beq	.L174
2266:Drivers/STM32L4xx_HAL_Driver/Src/stm32l4xx_hal_ospi.c ****     {
2267:Drivers/STM32L4xx_HAL_Driver/Src/stm32l4xx_hal_ospi.c ****       /* Disable the DMA transfer on the OctoSPI side */
2268:Drivers/STM32L4xx_HAL_Driver/Src/stm32l4xx_hal_ospi.c ****       CLEAR_BIT(hospi->Instance->CR, OCTOSPI_CR_DMAEN);
 3601              		.loc 1 2268 7
 3602 003a 7B68     		ldr	r3, [r7, #4]
 3603 003c 1B68     		ldr	r3, [r3]
 3604 003e 1A68     		ldr	r2, [r3]
 3605 0040 7B68     		ldr	r3, [r7, #4]
 3606 0042 1B68     		ldr	r3, [r3]
 3607 0044 22F00402 		bic	r2, r2, #4
 3608 0048 1A60     		str	r2, [r3]
2269:Drivers/STM32L4xx_HAL_Driver/Src/stm32l4xx_hal_ospi.c **** 
2270:Drivers/STM32L4xx_HAL_Driver/Src/stm32l4xx_hal_ospi.c ****       /* Disable the DMA transfer on the DMA side */
2271:Drivers/STM32L4xx_HAL_Driver/Src/stm32l4xx_hal_ospi.c ****       status = HAL_DMA_Abort(hospi->hdma);
 3609              		.loc 1 2271 16
 3610 004a 7B68     		ldr	r3, [r7, #4]
 3611 004c 9B6C     		ldr	r3, [r3, #72]
 3612 004e 1846     		mov	r0, r3
 3613 0050 FFF7FEFF 		bl	HAL_DMA_Abort
 3614 0054 0346     		mov	r3, r0
 3615 0056 FB75     		strb	r3, [r7, #23]
2272:Drivers/STM32L4xx_HAL_Driver/Src/stm32l4xx_hal_ospi.c ****       if (status != HAL_OK)
 3616              		.loc 1 2272 10
 3617 0058 FB7D     		ldrb	r3, [r7, #23]	@ zero_extendqisi2
 3618 005a 002B     		cmp	r3, #0
 3619 005c 02D0     		beq	.L174
2273:Drivers/STM32L4xx_HAL_Driver/Src/stm32l4xx_hal_ospi.c ****       {
2274:Drivers/STM32L4xx_HAL_Driver/Src/stm32l4xx_hal_ospi.c ****         hospi->ErrorCode = HAL_OSPI_ERROR_DMA;
 3620              		.loc 1 2274 26
 3621 005e 7B68     		ldr	r3, [r7, #4]
 3622 0060 0422     		movs	r2, #4
 3623 0062 1A65     		str	r2, [r3, #80]
 3624              	.L174:
2275:Drivers/STM32L4xx_HAL_Driver/Src/stm32l4xx_hal_ospi.c ****       }
ARM GAS  C:\Users\Morroway\AppData\Local\Temp\ccxQAUQ3.s 			page 104


2276:Drivers/STM32L4xx_HAL_Driver/Src/stm32l4xx_hal_ospi.c ****     }
2277:Drivers/STM32L4xx_HAL_Driver/Src/stm32l4xx_hal_ospi.c **** 
2278:Drivers/STM32L4xx_HAL_Driver/Src/stm32l4xx_hal_ospi.c ****     if (__HAL_OSPI_GET_FLAG(hospi, HAL_OSPI_FLAG_BUSY) != RESET)
 3625              		.loc 1 2278 9
 3626 0064 7B68     		ldr	r3, [r7, #4]
 3627 0066 1B68     		ldr	r3, [r3]
 3628 0068 1B6A     		ldr	r3, [r3, #32]
 3629 006a 03F02003 		and	r3, r3, #32
 3630              		.loc 1 2278 8
 3631 006e 002B     		cmp	r3, #0
 3632 0070 2BD0     		beq	.L175
2279:Drivers/STM32L4xx_HAL_Driver/Src/stm32l4xx_hal_ospi.c ****     {
2280:Drivers/STM32L4xx_HAL_Driver/Src/stm32l4xx_hal_ospi.c ****       /* Perform an abort of the OctoSPI */
2281:Drivers/STM32L4xx_HAL_Driver/Src/stm32l4xx_hal_ospi.c ****       SET_BIT(hospi->Instance->CR, OCTOSPI_CR_ABORT);
 3633              		.loc 1 2281 7
 3634 0072 7B68     		ldr	r3, [r7, #4]
 3635 0074 1B68     		ldr	r3, [r3]
 3636 0076 1A68     		ldr	r2, [r3]
 3637 0078 7B68     		ldr	r3, [r7, #4]
 3638 007a 1B68     		ldr	r3, [r3]
 3639 007c 42F00202 		orr	r2, r2, #2
 3640 0080 1A60     		str	r2, [r3]
2282:Drivers/STM32L4xx_HAL_Driver/Src/stm32l4xx_hal_ospi.c **** 
2283:Drivers/STM32L4xx_HAL_Driver/Src/stm32l4xx_hal_ospi.c ****       /* Wait until the transfer complete flag is set to go back in idle state */
2284:Drivers/STM32L4xx_HAL_Driver/Src/stm32l4xx_hal_ospi.c ****       status = OSPI_WaitFlagStateUntilTimeout(hospi, HAL_OSPI_FLAG_TC, SET, tickstart, hospi->Timeo
 3641              		.loc 1 2284 16
 3642 0082 7B68     		ldr	r3, [r7, #4]
 3643 0084 5B6D     		ldr	r3, [r3, #84]
 3644 0086 0093     		str	r3, [sp]
 3645 0088 3B69     		ldr	r3, [r7, #16]
 3646 008a 0122     		movs	r2, #1
 3647 008c 0221     		movs	r1, #2
 3648 008e 7868     		ldr	r0, [r7, #4]
 3649 0090 FFF7FEFF 		bl	OSPI_WaitFlagStateUntilTimeout
 3650 0094 0346     		mov	r3, r0
 3651 0096 FB75     		strb	r3, [r7, #23]
2285:Drivers/STM32L4xx_HAL_Driver/Src/stm32l4xx_hal_ospi.c **** 
2286:Drivers/STM32L4xx_HAL_Driver/Src/stm32l4xx_hal_ospi.c ****       if (status == HAL_OK)
 3652              		.loc 1 2286 10
 3653 0098 FB7D     		ldrb	r3, [r7, #23]	@ zero_extendqisi2
 3654 009a 002B     		cmp	r3, #0
 3655 009c 1FD1     		bne	.L179
2287:Drivers/STM32L4xx_HAL_Driver/Src/stm32l4xx_hal_ospi.c ****       {
2288:Drivers/STM32L4xx_HAL_Driver/Src/stm32l4xx_hal_ospi.c ****         /* Clear transfer complete flag */
2289:Drivers/STM32L4xx_HAL_Driver/Src/stm32l4xx_hal_ospi.c ****         __HAL_OSPI_CLEAR_FLAG(hospi, HAL_OSPI_FLAG_TC);
 3656              		.loc 1 2289 9
 3657 009e 7B68     		ldr	r3, [r7, #4]
 3658 00a0 1B68     		ldr	r3, [r3]
 3659 00a2 0222     		movs	r2, #2
 3660 00a4 5A62     		str	r2, [r3, #36]
2290:Drivers/STM32L4xx_HAL_Driver/Src/stm32l4xx_hal_ospi.c **** 
2291:Drivers/STM32L4xx_HAL_Driver/Src/stm32l4xx_hal_ospi.c ****         /* Wait until the busy flag is reset to go back in idle state */
2292:Drivers/STM32L4xx_HAL_Driver/Src/stm32l4xx_hal_ospi.c ****         status = OSPI_WaitFlagStateUntilTimeout(hospi, HAL_OSPI_FLAG_BUSY, RESET, tickstart, hospi-
 3661              		.loc 1 2292 18
 3662 00a6 7B68     		ldr	r3, [r7, #4]
 3663 00a8 5B6D     		ldr	r3, [r3, #84]
 3664 00aa 0093     		str	r3, [sp]
ARM GAS  C:\Users\Morroway\AppData\Local\Temp\ccxQAUQ3.s 			page 105


 3665 00ac 3B69     		ldr	r3, [r7, #16]
 3666 00ae 0022     		movs	r2, #0
 3667 00b0 2021     		movs	r1, #32
 3668 00b2 7868     		ldr	r0, [r7, #4]
 3669 00b4 FFF7FEFF 		bl	OSPI_WaitFlagStateUntilTimeout
 3670 00b8 0346     		mov	r3, r0
 3671 00ba FB75     		strb	r3, [r7, #23]
2293:Drivers/STM32L4xx_HAL_Driver/Src/stm32l4xx_hal_ospi.c **** 
2294:Drivers/STM32L4xx_HAL_Driver/Src/stm32l4xx_hal_ospi.c ****         if (status == HAL_OK)
 3672              		.loc 1 2294 12
 3673 00bc FB7D     		ldrb	r3, [r7, #23]	@ zero_extendqisi2
 3674 00be 002B     		cmp	r3, #0
 3675 00c0 0DD1     		bne	.L179
2295:Drivers/STM32L4xx_HAL_Driver/Src/stm32l4xx_hal_ospi.c ****         {
2296:Drivers/STM32L4xx_HAL_Driver/Src/stm32l4xx_hal_ospi.c ****           /* Update state */
2297:Drivers/STM32L4xx_HAL_Driver/Src/stm32l4xx_hal_ospi.c ****           hospi->State = HAL_OSPI_STATE_READY;
 3676              		.loc 1 2297 24
 3677 00c2 7B68     		ldr	r3, [r7, #4]
 3678 00c4 0222     		movs	r2, #2
 3679 00c6 DA64     		str	r2, [r3, #76]
2278:Drivers/STM32L4xx_HAL_Driver/Src/stm32l4xx_hal_ospi.c ****     {
 3680              		.loc 1 2278 8
 3681 00c8 09E0     		b	.L179
 3682              	.L175:
2298:Drivers/STM32L4xx_HAL_Driver/Src/stm32l4xx_hal_ospi.c ****         }
2299:Drivers/STM32L4xx_HAL_Driver/Src/stm32l4xx_hal_ospi.c ****       }
2300:Drivers/STM32L4xx_HAL_Driver/Src/stm32l4xx_hal_ospi.c ****     }
2301:Drivers/STM32L4xx_HAL_Driver/Src/stm32l4xx_hal_ospi.c ****     else
2302:Drivers/STM32L4xx_HAL_Driver/Src/stm32l4xx_hal_ospi.c ****     {
2303:Drivers/STM32L4xx_HAL_Driver/Src/stm32l4xx_hal_ospi.c ****       /* Update state */
2304:Drivers/STM32L4xx_HAL_Driver/Src/stm32l4xx_hal_ospi.c ****       hospi->State = HAL_OSPI_STATE_READY;
 3683              		.loc 1 2304 20
 3684 00ca 7B68     		ldr	r3, [r7, #4]
 3685 00cc 0222     		movs	r2, #2
 3686 00ce DA64     		str	r2, [r3, #76]
2278:Drivers/STM32L4xx_HAL_Driver/Src/stm32l4xx_hal_ospi.c ****     {
 3687              		.loc 1 2278 8
 3688 00d0 05E0     		b	.L179
 3689              	.L173:
2305:Drivers/STM32L4xx_HAL_Driver/Src/stm32l4xx_hal_ospi.c ****     }
2306:Drivers/STM32L4xx_HAL_Driver/Src/stm32l4xx_hal_ospi.c ****   }
2307:Drivers/STM32L4xx_HAL_Driver/Src/stm32l4xx_hal_ospi.c ****   else
2308:Drivers/STM32L4xx_HAL_Driver/Src/stm32l4xx_hal_ospi.c ****   {
2309:Drivers/STM32L4xx_HAL_Driver/Src/stm32l4xx_hal_ospi.c ****     status = HAL_ERROR;
 3690              		.loc 1 2309 12
 3691 00d2 0123     		movs	r3, #1
 3692 00d4 FB75     		strb	r3, [r7, #23]
2310:Drivers/STM32L4xx_HAL_Driver/Src/stm32l4xx_hal_ospi.c ****     hospi->ErrorCode = HAL_OSPI_ERROR_INVALID_SEQUENCE;
 3693              		.loc 1 2310 22
 3694 00d6 7B68     		ldr	r3, [r7, #4]
 3695 00d8 1022     		movs	r2, #16
 3696 00da 1A65     		str	r2, [r3, #80]
 3697 00dc 00E0     		b	.L177
 3698              	.L179:
2278:Drivers/STM32L4xx_HAL_Driver/Src/stm32l4xx_hal_ospi.c ****     {
 3699              		.loc 1 2278 8
 3700 00de 00BF     		nop
ARM GAS  C:\Users\Morroway\AppData\Local\Temp\ccxQAUQ3.s 			page 106


 3701              	.L177:
2311:Drivers/STM32L4xx_HAL_Driver/Src/stm32l4xx_hal_ospi.c ****   }
2312:Drivers/STM32L4xx_HAL_Driver/Src/stm32l4xx_hal_ospi.c **** 
2313:Drivers/STM32L4xx_HAL_Driver/Src/stm32l4xx_hal_ospi.c ****   /* Return function status */
2314:Drivers/STM32L4xx_HAL_Driver/Src/stm32l4xx_hal_ospi.c ****   return status;
 3702              		.loc 1 2314 10
 3703 00e0 FB7D     		ldrb	r3, [r7, #23]	@ zero_extendqisi2
2315:Drivers/STM32L4xx_HAL_Driver/Src/stm32l4xx_hal_ospi.c **** }
 3704              		.loc 1 2315 1
 3705 00e2 1846     		mov	r0, r3
 3706 00e4 1837     		adds	r7, r7, #24
 3707              		.cfi_def_cfa_offset 8
 3708 00e6 BD46     		mov	sp, r7
 3709              		.cfi_def_cfa_register 13
 3710              		@ sp needed
 3711 00e8 80BD     		pop	{r7, pc}
 3712              		.cfi_endproc
 3713              	.LFE349:
 3715              		.section	.text.HAL_OSPI_Abort_IT,"ax",%progbits
 3716              		.align	1
 3717              		.global	HAL_OSPI_Abort_IT
 3718              		.syntax unified
 3719              		.thumb
 3720              		.thumb_func
 3722              	HAL_OSPI_Abort_IT:
 3723              	.LFB350:
2316:Drivers/STM32L4xx_HAL_Driver/Src/stm32l4xx_hal_ospi.c **** 
2317:Drivers/STM32L4xx_HAL_Driver/Src/stm32l4xx_hal_ospi.c **** /**
2318:Drivers/STM32L4xx_HAL_Driver/Src/stm32l4xx_hal_ospi.c **** * @brief  Abort the current transmission (non-blocking function)
2319:Drivers/STM32L4xx_HAL_Driver/Src/stm32l4xx_hal_ospi.c **** * @param  hospi : OSPI handle
2320:Drivers/STM32L4xx_HAL_Driver/Src/stm32l4xx_hal_ospi.c **** * @retval HAL status
2321:Drivers/STM32L4xx_HAL_Driver/Src/stm32l4xx_hal_ospi.c **** */
2322:Drivers/STM32L4xx_HAL_Driver/Src/stm32l4xx_hal_ospi.c **** HAL_StatusTypeDef HAL_OSPI_Abort_IT(OSPI_HandleTypeDef *hospi)
2323:Drivers/STM32L4xx_HAL_Driver/Src/stm32l4xx_hal_ospi.c **** {
 3724              		.loc 1 2323 1
 3725              		.cfi_startproc
 3726              		@ args = 0, pretend = 0, frame = 16
 3727              		@ frame_needed = 1, uses_anonymous_args = 0
 3728 0000 80B5     		push	{r7, lr}
 3729              		.cfi_def_cfa_offset 8
 3730              		.cfi_offset 7, -8
 3731              		.cfi_offset 14, -4
 3732 0002 84B0     		sub	sp, sp, #16
 3733              		.cfi_def_cfa_offset 24
 3734 0004 00AF     		add	r7, sp, #0
 3735              		.cfi_def_cfa_register 7
 3736 0006 7860     		str	r0, [r7, #4]
2324:Drivers/STM32L4xx_HAL_Driver/Src/stm32l4xx_hal_ospi.c ****   HAL_StatusTypeDef status = HAL_OK;
 3737              		.loc 1 2324 21
 3738 0008 0023     		movs	r3, #0
 3739 000a FB73     		strb	r3, [r7, #15]
2325:Drivers/STM32L4xx_HAL_Driver/Src/stm32l4xx_hal_ospi.c ****   uint32_t state;
2326:Drivers/STM32L4xx_HAL_Driver/Src/stm32l4xx_hal_ospi.c **** 
2327:Drivers/STM32L4xx_HAL_Driver/Src/stm32l4xx_hal_ospi.c ****   /* Check if the state is in one of the busy or configured states */
2328:Drivers/STM32L4xx_HAL_Driver/Src/stm32l4xx_hal_ospi.c ****   state = hospi->State;
 3740              		.loc 1 2328 9
 3741 000c 7B68     		ldr	r3, [r7, #4]
ARM GAS  C:\Users\Morroway\AppData\Local\Temp\ccxQAUQ3.s 			page 107


 3742 000e DB6C     		ldr	r3, [r3, #76]
 3743 0010 BB60     		str	r3, [r7, #8]
2329:Drivers/STM32L4xx_HAL_Driver/Src/stm32l4xx_hal_ospi.c ****   if (((state & OSPI_BUSY_STATE_MASK) != 0U) || ((state & OSPI_CFG_STATE_MASK) != 0U))
 3744              		.loc 1 2329 15
 3745 0012 BB68     		ldr	r3, [r7, #8]
 3746 0014 03F00803 		and	r3, r3, #8
 3747              		.loc 1 2329 6
 3748 0018 002B     		cmp	r3, #0
 3749 001a 04D1     		bne	.L181
 3750              		.loc 1 2329 57 discriminator 1
 3751 001c BB68     		ldr	r3, [r7, #8]
 3752 001e 03F00403 		and	r3, r3, #4
 3753              		.loc 1 2329 46 discriminator 1
 3754 0022 002B     		cmp	r3, #0
 3755 0024 50D0     		beq	.L182
 3756              	.L181:
2330:Drivers/STM32L4xx_HAL_Driver/Src/stm32l4xx_hal_ospi.c ****   {
2331:Drivers/STM32L4xx_HAL_Driver/Src/stm32l4xx_hal_ospi.c ****     /* Disable all interrupts */
2332:Drivers/STM32L4xx_HAL_Driver/Src/stm32l4xx_hal_ospi.c ****     __HAL_OSPI_DISABLE_IT(hospi, (HAL_OSPI_IT_TO | HAL_OSPI_IT_SM | HAL_OSPI_IT_FT | HAL_OSPI_IT_TC
 3757              		.loc 1 2332 5
 3758 0026 7B68     		ldr	r3, [r7, #4]
 3759 0028 1B68     		ldr	r3, [r3]
 3760 002a 1A68     		ldr	r2, [r3]
 3761 002c 7B68     		ldr	r3, [r7, #4]
 3762 002e 1B68     		ldr	r3, [r3]
 3763 0030 22F4F812 		bic	r2, r2, #2031616
 3764 0034 1A60     		str	r2, [r3]
2333:Drivers/STM32L4xx_HAL_Driver/Src/stm32l4xx_hal_ospi.c **** 
2334:Drivers/STM32L4xx_HAL_Driver/Src/stm32l4xx_hal_ospi.c ****     /* Update state */
2335:Drivers/STM32L4xx_HAL_Driver/Src/stm32l4xx_hal_ospi.c ****     hospi->State = HAL_OSPI_STATE_ABORT;
 3765              		.loc 1 2335 18
 3766 0036 7B68     		ldr	r3, [r7, #4]
 3767 0038 4FF48072 		mov	r2, #256
 3768 003c DA64     		str	r2, [r3, #76]
2336:Drivers/STM32L4xx_HAL_Driver/Src/stm32l4xx_hal_ospi.c **** 
2337:Drivers/STM32L4xx_HAL_Driver/Src/stm32l4xx_hal_ospi.c ****     /* Check if the DMA is enabled */
2338:Drivers/STM32L4xx_HAL_Driver/Src/stm32l4xx_hal_ospi.c ****     if ((hospi->Instance->CR & OCTOSPI_CR_DMAEN) != 0U)
 3769              		.loc 1 2338 15
 3770 003e 7B68     		ldr	r3, [r7, #4]
 3771 0040 1B68     		ldr	r3, [r3]
 3772              		.loc 1 2338 25
 3773 0042 1B68     		ldr	r3, [r3]
 3774              		.loc 1 2338 30
 3775 0044 03F00403 		and	r3, r3, #4
 3776              		.loc 1 2338 8
 3777 0048 002B     		cmp	r3, #0
 3778 004a 1AD0     		beq	.L183
2339:Drivers/STM32L4xx_HAL_Driver/Src/stm32l4xx_hal_ospi.c ****     {
2340:Drivers/STM32L4xx_HAL_Driver/Src/stm32l4xx_hal_ospi.c ****       /* Disable the DMA transfer on the OctoSPI side */
2341:Drivers/STM32L4xx_HAL_Driver/Src/stm32l4xx_hal_ospi.c ****       CLEAR_BIT(hospi->Instance->CR, OCTOSPI_CR_DMAEN);
 3779              		.loc 1 2341 7
 3780 004c 7B68     		ldr	r3, [r7, #4]
 3781 004e 1B68     		ldr	r3, [r3]
 3782 0050 1A68     		ldr	r2, [r3]
 3783 0052 7B68     		ldr	r3, [r7, #4]
 3784 0054 1B68     		ldr	r3, [r3]
 3785 0056 22F00402 		bic	r2, r2, #4
ARM GAS  C:\Users\Morroway\AppData\Local\Temp\ccxQAUQ3.s 			page 108


 3786 005a 1A60     		str	r2, [r3]
2342:Drivers/STM32L4xx_HAL_Driver/Src/stm32l4xx_hal_ospi.c **** 
2343:Drivers/STM32L4xx_HAL_Driver/Src/stm32l4xx_hal_ospi.c ****       /* Disable the DMA transfer on the DMA side */
2344:Drivers/STM32L4xx_HAL_Driver/Src/stm32l4xx_hal_ospi.c ****       hospi->hdma->XferAbortCallback = OSPI_DMAAbortCplt;
 3787              		.loc 1 2344 12
 3788 005c 7B68     		ldr	r3, [r7, #4]
 3789 005e 9B6C     		ldr	r3, [r3, #72]
 3790              		.loc 1 2344 38
 3791 0060 1F4A     		ldr	r2, .L189
 3792 0062 9A63     		str	r2, [r3, #56]
2345:Drivers/STM32L4xx_HAL_Driver/Src/stm32l4xx_hal_ospi.c ****       if (HAL_DMA_Abort_IT(hospi->hdma) != HAL_OK)
 3793              		.loc 1 2345 11
 3794 0064 7B68     		ldr	r3, [r7, #4]
 3795 0066 9B6C     		ldr	r3, [r3, #72]
 3796 0068 1846     		mov	r0, r3
 3797 006a FFF7FEFF 		bl	HAL_DMA_Abort_IT
 3798 006e 0346     		mov	r3, r0
 3799              		.loc 1 2345 10
 3800 0070 002B     		cmp	r3, #0
 3801 0072 2FD0     		beq	.L188
2346:Drivers/STM32L4xx_HAL_Driver/Src/stm32l4xx_hal_ospi.c ****       {
2347:Drivers/STM32L4xx_HAL_Driver/Src/stm32l4xx_hal_ospi.c ****         /* Update state */
2348:Drivers/STM32L4xx_HAL_Driver/Src/stm32l4xx_hal_ospi.c ****         hospi->State = HAL_OSPI_STATE_READY;
 3802              		.loc 1 2348 22
 3803 0074 7B68     		ldr	r3, [r7, #4]
 3804 0076 0222     		movs	r2, #2
 3805 0078 DA64     		str	r2, [r3, #76]
2349:Drivers/STM32L4xx_HAL_Driver/Src/stm32l4xx_hal_ospi.c **** 
2350:Drivers/STM32L4xx_HAL_Driver/Src/stm32l4xx_hal_ospi.c ****         /* Abort callback */
2351:Drivers/STM32L4xx_HAL_Driver/Src/stm32l4xx_hal_ospi.c **** #if defined (USE_HAL_OSPI_REGISTER_CALLBACKS) && (USE_HAL_OSPI_REGISTER_CALLBACKS == 1U)
2352:Drivers/STM32L4xx_HAL_Driver/Src/stm32l4xx_hal_ospi.c ****         hospi->AbortCpltCallback(hospi);
2353:Drivers/STM32L4xx_HAL_Driver/Src/stm32l4xx_hal_ospi.c **** #else
2354:Drivers/STM32L4xx_HAL_Driver/Src/stm32l4xx_hal_ospi.c ****         HAL_OSPI_AbortCpltCallback(hospi);
 3806              		.loc 1 2354 9
 3807 007a 7868     		ldr	r0, [r7, #4]
 3808 007c FFF7FEFF 		bl	HAL_OSPI_AbortCpltCallback
2338:Drivers/STM32L4xx_HAL_Driver/Src/stm32l4xx_hal_ospi.c ****     {
 3809              		.loc 1 2338 8
 3810 0080 28E0     		b	.L188
 3811              	.L183:
2355:Drivers/STM32L4xx_HAL_Driver/Src/stm32l4xx_hal_ospi.c **** #endif /* (USE_HAL_OSPI_REGISTER_CALLBACKS) && (USE_HAL_OSPI_REGISTER_CALLBACKS == 1U)*/
2356:Drivers/STM32L4xx_HAL_Driver/Src/stm32l4xx_hal_ospi.c ****       }
2357:Drivers/STM32L4xx_HAL_Driver/Src/stm32l4xx_hal_ospi.c ****     }
2358:Drivers/STM32L4xx_HAL_Driver/Src/stm32l4xx_hal_ospi.c ****     else
2359:Drivers/STM32L4xx_HAL_Driver/Src/stm32l4xx_hal_ospi.c ****     {
2360:Drivers/STM32L4xx_HAL_Driver/Src/stm32l4xx_hal_ospi.c ****       if (__HAL_OSPI_GET_FLAG(hospi, HAL_OSPI_FLAG_BUSY) != RESET)
 3812              		.loc 1 2360 11
 3813 0082 7B68     		ldr	r3, [r7, #4]
 3814 0084 1B68     		ldr	r3, [r3]
 3815 0086 1B6A     		ldr	r3, [r3, #32]
 3816 0088 03F02003 		and	r3, r3, #32
 3817              		.loc 1 2360 10
 3818 008c 002B     		cmp	r3, #0
 3819 008e 14D0     		beq	.L185
2361:Drivers/STM32L4xx_HAL_Driver/Src/stm32l4xx_hal_ospi.c ****       {
2362:Drivers/STM32L4xx_HAL_Driver/Src/stm32l4xx_hal_ospi.c ****         /* Clear transfer complete flag */
2363:Drivers/STM32L4xx_HAL_Driver/Src/stm32l4xx_hal_ospi.c ****         __HAL_OSPI_CLEAR_FLAG(hospi, HAL_OSPI_FLAG_TC);
ARM GAS  C:\Users\Morroway\AppData\Local\Temp\ccxQAUQ3.s 			page 109


 3820              		.loc 1 2363 9
 3821 0090 7B68     		ldr	r3, [r7, #4]
 3822 0092 1B68     		ldr	r3, [r3]
 3823 0094 0222     		movs	r2, #2
 3824 0096 5A62     		str	r2, [r3, #36]
2364:Drivers/STM32L4xx_HAL_Driver/Src/stm32l4xx_hal_ospi.c **** 
2365:Drivers/STM32L4xx_HAL_Driver/Src/stm32l4xx_hal_ospi.c ****         /* Enable the transfer complete interrupts */
2366:Drivers/STM32L4xx_HAL_Driver/Src/stm32l4xx_hal_ospi.c ****         __HAL_OSPI_ENABLE_IT(hospi, HAL_OSPI_IT_TC);
 3825              		.loc 1 2366 9
 3826 0098 7B68     		ldr	r3, [r7, #4]
 3827 009a 1B68     		ldr	r3, [r3]
 3828 009c 1A68     		ldr	r2, [r3]
 3829 009e 7B68     		ldr	r3, [r7, #4]
 3830 00a0 1B68     		ldr	r3, [r3]
 3831 00a2 42F40032 		orr	r2, r2, #131072
 3832 00a6 1A60     		str	r2, [r3]
2367:Drivers/STM32L4xx_HAL_Driver/Src/stm32l4xx_hal_ospi.c **** 
2368:Drivers/STM32L4xx_HAL_Driver/Src/stm32l4xx_hal_ospi.c ****         /* Perform an abort of the OctoSPI */
2369:Drivers/STM32L4xx_HAL_Driver/Src/stm32l4xx_hal_ospi.c ****         SET_BIT(hospi->Instance->CR, OCTOSPI_CR_ABORT);
 3833              		.loc 1 2369 9
 3834 00a8 7B68     		ldr	r3, [r7, #4]
 3835 00aa 1B68     		ldr	r3, [r3]
 3836 00ac 1A68     		ldr	r2, [r3]
 3837 00ae 7B68     		ldr	r3, [r7, #4]
 3838 00b0 1B68     		ldr	r3, [r3]
 3839 00b2 42F00202 		orr	r2, r2, #2
 3840 00b6 1A60     		str	r2, [r3]
2338:Drivers/STM32L4xx_HAL_Driver/Src/stm32l4xx_hal_ospi.c ****     {
 3841              		.loc 1 2338 8
 3842 00b8 0CE0     		b	.L188
 3843              	.L185:
2370:Drivers/STM32L4xx_HAL_Driver/Src/stm32l4xx_hal_ospi.c ****       }
2371:Drivers/STM32L4xx_HAL_Driver/Src/stm32l4xx_hal_ospi.c ****       else
2372:Drivers/STM32L4xx_HAL_Driver/Src/stm32l4xx_hal_ospi.c ****       {
2373:Drivers/STM32L4xx_HAL_Driver/Src/stm32l4xx_hal_ospi.c ****         /* Update state */
2374:Drivers/STM32L4xx_HAL_Driver/Src/stm32l4xx_hal_ospi.c ****         hospi->State = HAL_OSPI_STATE_READY;
 3844              		.loc 1 2374 22
 3845 00ba 7B68     		ldr	r3, [r7, #4]
 3846 00bc 0222     		movs	r2, #2
 3847 00be DA64     		str	r2, [r3, #76]
2375:Drivers/STM32L4xx_HAL_Driver/Src/stm32l4xx_hal_ospi.c **** 
2376:Drivers/STM32L4xx_HAL_Driver/Src/stm32l4xx_hal_ospi.c ****         /* Abort callback */
2377:Drivers/STM32L4xx_HAL_Driver/Src/stm32l4xx_hal_ospi.c **** #if defined (USE_HAL_OSPI_REGISTER_CALLBACKS) && (USE_HAL_OSPI_REGISTER_CALLBACKS == 1U)
2378:Drivers/STM32L4xx_HAL_Driver/Src/stm32l4xx_hal_ospi.c ****         hospi->AbortCpltCallback(hospi);
2379:Drivers/STM32L4xx_HAL_Driver/Src/stm32l4xx_hal_ospi.c **** #else
2380:Drivers/STM32L4xx_HAL_Driver/Src/stm32l4xx_hal_ospi.c ****         HAL_OSPI_AbortCpltCallback(hospi);
 3848              		.loc 1 2380 9
 3849 00c0 7868     		ldr	r0, [r7, #4]
 3850 00c2 FFF7FEFF 		bl	HAL_OSPI_AbortCpltCallback
2338:Drivers/STM32L4xx_HAL_Driver/Src/stm32l4xx_hal_ospi.c ****     {
 3851              		.loc 1 2338 8
 3852 00c6 05E0     		b	.L188
 3853              	.L182:
2381:Drivers/STM32L4xx_HAL_Driver/Src/stm32l4xx_hal_ospi.c **** #endif /* (USE_HAL_OSPI_REGISTER_CALLBACKS) && (USE_HAL_OSPI_REGISTER_CALLBACKS == 1U) */
2382:Drivers/STM32L4xx_HAL_Driver/Src/stm32l4xx_hal_ospi.c ****       }
2383:Drivers/STM32L4xx_HAL_Driver/Src/stm32l4xx_hal_ospi.c ****     }
2384:Drivers/STM32L4xx_HAL_Driver/Src/stm32l4xx_hal_ospi.c ****   }
ARM GAS  C:\Users\Morroway\AppData\Local\Temp\ccxQAUQ3.s 			page 110


2385:Drivers/STM32L4xx_HAL_Driver/Src/stm32l4xx_hal_ospi.c ****   else
2386:Drivers/STM32L4xx_HAL_Driver/Src/stm32l4xx_hal_ospi.c ****   {
2387:Drivers/STM32L4xx_HAL_Driver/Src/stm32l4xx_hal_ospi.c ****     status = HAL_ERROR;
 3854              		.loc 1 2387 12
 3855 00c8 0123     		movs	r3, #1
 3856 00ca FB73     		strb	r3, [r7, #15]
2388:Drivers/STM32L4xx_HAL_Driver/Src/stm32l4xx_hal_ospi.c ****     hospi->ErrorCode = HAL_OSPI_ERROR_INVALID_SEQUENCE;
 3857              		.loc 1 2388 22
 3858 00cc 7B68     		ldr	r3, [r7, #4]
 3859 00ce 1022     		movs	r2, #16
 3860 00d0 1A65     		str	r2, [r3, #80]
 3861 00d2 00E0     		b	.L186
 3862              	.L188:
2338:Drivers/STM32L4xx_HAL_Driver/Src/stm32l4xx_hal_ospi.c ****     {
 3863              		.loc 1 2338 8
 3864 00d4 00BF     		nop
 3865              	.L186:
2389:Drivers/STM32L4xx_HAL_Driver/Src/stm32l4xx_hal_ospi.c ****   }
2390:Drivers/STM32L4xx_HAL_Driver/Src/stm32l4xx_hal_ospi.c **** 
2391:Drivers/STM32L4xx_HAL_Driver/Src/stm32l4xx_hal_ospi.c ****   /* Return function status */
2392:Drivers/STM32L4xx_HAL_Driver/Src/stm32l4xx_hal_ospi.c ****   return status;
 3866              		.loc 1 2392 10
 3867 00d6 FB7B     		ldrb	r3, [r7, #15]	@ zero_extendqisi2
2393:Drivers/STM32L4xx_HAL_Driver/Src/stm32l4xx_hal_ospi.c **** }
 3868              		.loc 1 2393 1
 3869 00d8 1846     		mov	r0, r3
 3870 00da 1037     		adds	r7, r7, #16
 3871              		.cfi_def_cfa_offset 8
 3872 00dc BD46     		mov	sp, r7
 3873              		.cfi_def_cfa_register 13
 3874              		@ sp needed
 3875 00de 80BD     		pop	{r7, pc}
 3876              	.L190:
 3877              		.align	2
 3878              	.L189:
 3879 00e0 00000000 		.word	OSPI_DMAAbortCplt
 3880              		.cfi_endproc
 3881              	.LFE350:
 3883              		.section	.text.HAL_OSPI_SetFifoThreshold,"ax",%progbits
 3884              		.align	1
 3885              		.global	HAL_OSPI_SetFifoThreshold
 3886              		.syntax unified
 3887              		.thumb
 3888              		.thumb_func
 3890              	HAL_OSPI_SetFifoThreshold:
 3891              	.LFB351:
2394:Drivers/STM32L4xx_HAL_Driver/Src/stm32l4xx_hal_ospi.c **** 
2395:Drivers/STM32L4xx_HAL_Driver/Src/stm32l4xx_hal_ospi.c **** /** @brief  Set OSPI Fifo threshold.
2396:Drivers/STM32L4xx_HAL_Driver/Src/stm32l4xx_hal_ospi.c ****   * @param  hospi     : OSPI handle.
2397:Drivers/STM32L4xx_HAL_Driver/Src/stm32l4xx_hal_ospi.c ****   * @param  Threshold : Threshold of the Fifo.
2398:Drivers/STM32L4xx_HAL_Driver/Src/stm32l4xx_hal_ospi.c ****   * @retval HAL status
2399:Drivers/STM32L4xx_HAL_Driver/Src/stm32l4xx_hal_ospi.c ****   */
2400:Drivers/STM32L4xx_HAL_Driver/Src/stm32l4xx_hal_ospi.c **** HAL_StatusTypeDef HAL_OSPI_SetFifoThreshold(OSPI_HandleTypeDef *hospi, uint32_t Threshold)
2401:Drivers/STM32L4xx_HAL_Driver/Src/stm32l4xx_hal_ospi.c **** {
 3892              		.loc 1 2401 1
 3893              		.cfi_startproc
 3894              		@ args = 0, pretend = 0, frame = 16
ARM GAS  C:\Users\Morroway\AppData\Local\Temp\ccxQAUQ3.s 			page 111


 3895              		@ frame_needed = 1, uses_anonymous_args = 0
 3896              		@ link register save eliminated.
 3897 0000 80B4     		push	{r7}
 3898              		.cfi_def_cfa_offset 4
 3899              		.cfi_offset 7, -4
 3900 0002 85B0     		sub	sp, sp, #20
 3901              		.cfi_def_cfa_offset 24
 3902 0004 00AF     		add	r7, sp, #0
 3903              		.cfi_def_cfa_register 7
 3904 0006 7860     		str	r0, [r7, #4]
 3905 0008 3960     		str	r1, [r7]
2402:Drivers/STM32L4xx_HAL_Driver/Src/stm32l4xx_hal_ospi.c ****   HAL_StatusTypeDef status = HAL_OK;
 3906              		.loc 1 2402 21
 3907 000a 0023     		movs	r3, #0
 3908 000c FB73     		strb	r3, [r7, #15]
2403:Drivers/STM32L4xx_HAL_Driver/Src/stm32l4xx_hal_ospi.c **** 
2404:Drivers/STM32L4xx_HAL_Driver/Src/stm32l4xx_hal_ospi.c ****   /* Check the state */
2405:Drivers/STM32L4xx_HAL_Driver/Src/stm32l4xx_hal_ospi.c ****   if ((hospi->State & OSPI_BUSY_STATE_MASK) == 0U)
 3909              		.loc 1 2405 13
 3910 000e 7B68     		ldr	r3, [r7, #4]
 3911 0010 DB6C     		ldr	r3, [r3, #76]
 3912              		.loc 1 2405 21
 3913 0012 03F00803 		and	r3, r3, #8
 3914              		.loc 1 2405 6
 3915 0016 002B     		cmp	r3, #0
 3916 0018 10D1     		bne	.L192
2406:Drivers/STM32L4xx_HAL_Driver/Src/stm32l4xx_hal_ospi.c ****   {
2407:Drivers/STM32L4xx_HAL_Driver/Src/stm32l4xx_hal_ospi.c ****     /* Synchronize initialization structure with the new fifo threshold value */
2408:Drivers/STM32L4xx_HAL_Driver/Src/stm32l4xx_hal_ospi.c ****     hospi->Init.FifoThreshold = Threshold;
 3917              		.loc 1 2408 31
 3918 001a 7B68     		ldr	r3, [r7, #4]
 3919 001c 3A68     		ldr	r2, [r7]
 3920 001e 5A60     		str	r2, [r3, #4]
2409:Drivers/STM32L4xx_HAL_Driver/Src/stm32l4xx_hal_ospi.c **** 
2410:Drivers/STM32L4xx_HAL_Driver/Src/stm32l4xx_hal_ospi.c ****     /* Configure new fifo threshold */
2411:Drivers/STM32L4xx_HAL_Driver/Src/stm32l4xx_hal_ospi.c ****     MODIFY_REG(hospi->Instance->CR, OCTOSPI_CR_FTHRES, ((hospi->Init.FifoThreshold-1U) << OCTOSPI_C
 3921              		.loc 1 2411 5
 3922 0020 7B68     		ldr	r3, [r7, #4]
 3923 0022 1B68     		ldr	r3, [r3]
 3924 0024 1B68     		ldr	r3, [r3]
 3925 0026 23F4F851 		bic	r1, r3, #7936
 3926 002a 7B68     		ldr	r3, [r7, #4]
 3927 002c 5B68     		ldr	r3, [r3, #4]
 3928 002e 013B     		subs	r3, r3, #1
 3929 0030 1A02     		lsls	r2, r3, #8
 3930 0032 7B68     		ldr	r3, [r7, #4]
 3931 0034 1B68     		ldr	r3, [r3]
 3932 0036 0A43     		orrs	r2, r2, r1
 3933 0038 1A60     		str	r2, [r3]
 3934 003a 04E0     		b	.L193
 3935              	.L192:
2412:Drivers/STM32L4xx_HAL_Driver/Src/stm32l4xx_hal_ospi.c **** 
2413:Drivers/STM32L4xx_HAL_Driver/Src/stm32l4xx_hal_ospi.c ****   }
2414:Drivers/STM32L4xx_HAL_Driver/Src/stm32l4xx_hal_ospi.c ****   else
2415:Drivers/STM32L4xx_HAL_Driver/Src/stm32l4xx_hal_ospi.c ****   {
2416:Drivers/STM32L4xx_HAL_Driver/Src/stm32l4xx_hal_ospi.c ****     status = HAL_ERROR;
 3936              		.loc 1 2416 12
ARM GAS  C:\Users\Morroway\AppData\Local\Temp\ccxQAUQ3.s 			page 112


 3937 003c 0123     		movs	r3, #1
 3938 003e FB73     		strb	r3, [r7, #15]
2417:Drivers/STM32L4xx_HAL_Driver/Src/stm32l4xx_hal_ospi.c ****     hospi->ErrorCode = HAL_OSPI_ERROR_INVALID_SEQUENCE;
 3939              		.loc 1 2417 22
 3940 0040 7B68     		ldr	r3, [r7, #4]
 3941 0042 1022     		movs	r2, #16
 3942 0044 1A65     		str	r2, [r3, #80]
 3943              	.L193:
2418:Drivers/STM32L4xx_HAL_Driver/Src/stm32l4xx_hal_ospi.c ****   }
2419:Drivers/STM32L4xx_HAL_Driver/Src/stm32l4xx_hal_ospi.c **** 
2420:Drivers/STM32L4xx_HAL_Driver/Src/stm32l4xx_hal_ospi.c ****   /* Return function status */
2421:Drivers/STM32L4xx_HAL_Driver/Src/stm32l4xx_hal_ospi.c ****   return status;
 3944              		.loc 1 2421 10
 3945 0046 FB7B     		ldrb	r3, [r7, #15]	@ zero_extendqisi2
2422:Drivers/STM32L4xx_HAL_Driver/Src/stm32l4xx_hal_ospi.c **** }
 3946              		.loc 1 2422 1
 3947 0048 1846     		mov	r0, r3
 3948 004a 1437     		adds	r7, r7, #20
 3949              		.cfi_def_cfa_offset 4
 3950 004c BD46     		mov	sp, r7
 3951              		.cfi_def_cfa_register 13
 3952              		@ sp needed
 3953 004e 5DF8047B 		ldr	r7, [sp], #4
 3954              		.cfi_restore 7
 3955              		.cfi_def_cfa_offset 0
 3956 0052 7047     		bx	lr
 3957              		.cfi_endproc
 3958              	.LFE351:
 3960              		.section	.text.HAL_OSPI_GetFifoThreshold,"ax",%progbits
 3961              		.align	1
 3962              		.global	HAL_OSPI_GetFifoThreshold
 3963              		.syntax unified
 3964              		.thumb
 3965              		.thumb_func
 3967              	HAL_OSPI_GetFifoThreshold:
 3968              	.LFB352:
2423:Drivers/STM32L4xx_HAL_Driver/Src/stm32l4xx_hal_ospi.c **** 
2424:Drivers/STM32L4xx_HAL_Driver/Src/stm32l4xx_hal_ospi.c **** /** @brief  Get OSPI Fifo threshold.
2425:Drivers/STM32L4xx_HAL_Driver/Src/stm32l4xx_hal_ospi.c ****   * @param  hospi : OSPI handle.
2426:Drivers/STM32L4xx_HAL_Driver/Src/stm32l4xx_hal_ospi.c ****   * @retval Fifo threshold
2427:Drivers/STM32L4xx_HAL_Driver/Src/stm32l4xx_hal_ospi.c ****   */
2428:Drivers/STM32L4xx_HAL_Driver/Src/stm32l4xx_hal_ospi.c **** uint32_t HAL_OSPI_GetFifoThreshold(OSPI_HandleTypeDef *hospi)
2429:Drivers/STM32L4xx_HAL_Driver/Src/stm32l4xx_hal_ospi.c **** {
 3969              		.loc 1 2429 1
 3970              		.cfi_startproc
 3971              		@ args = 0, pretend = 0, frame = 8
 3972              		@ frame_needed = 1, uses_anonymous_args = 0
 3973              		@ link register save eliminated.
 3974 0000 80B4     		push	{r7}
 3975              		.cfi_def_cfa_offset 4
 3976              		.cfi_offset 7, -4
 3977 0002 83B0     		sub	sp, sp, #12
 3978              		.cfi_def_cfa_offset 16
 3979 0004 00AF     		add	r7, sp, #0
 3980              		.cfi_def_cfa_register 7
 3981 0006 7860     		str	r0, [r7, #4]
2430:Drivers/STM32L4xx_HAL_Driver/Src/stm32l4xx_hal_ospi.c ****   return ((READ_BIT(hospi->Instance->CR, OCTOSPI_CR_FTHRES) >> OCTOSPI_CR_FTHRES_Pos) + 1U);
ARM GAS  C:\Users\Morroway\AppData\Local\Temp\ccxQAUQ3.s 			page 113


 3982              		.loc 1 2430 12
 3983 0008 7B68     		ldr	r3, [r7, #4]
 3984 000a 1B68     		ldr	r3, [r3]
 3985 000c 1B68     		ldr	r3, [r3]
 3986              		.loc 1 2430 61
 3987 000e 1B0A     		lsrs	r3, r3, #8
 3988 0010 03F01F03 		and	r3, r3, #31
 3989              		.loc 1 2430 87
 3990 0014 0133     		adds	r3, r3, #1
2431:Drivers/STM32L4xx_HAL_Driver/Src/stm32l4xx_hal_ospi.c **** }
 3991              		.loc 1 2431 1
 3992 0016 1846     		mov	r0, r3
 3993 0018 0C37     		adds	r7, r7, #12
 3994              		.cfi_def_cfa_offset 4
 3995 001a BD46     		mov	sp, r7
 3996              		.cfi_def_cfa_register 13
 3997              		@ sp needed
 3998 001c 5DF8047B 		ldr	r7, [sp], #4
 3999              		.cfi_restore 7
 4000              		.cfi_def_cfa_offset 0
 4001 0020 7047     		bx	lr
 4002              		.cfi_endproc
 4003              	.LFE352:
 4005              		.section	.text.HAL_OSPI_SetTimeout,"ax",%progbits
 4006              		.align	1
 4007              		.global	HAL_OSPI_SetTimeout
 4008              		.syntax unified
 4009              		.thumb
 4010              		.thumb_func
 4012              	HAL_OSPI_SetTimeout:
 4013              	.LFB353:
2432:Drivers/STM32L4xx_HAL_Driver/Src/stm32l4xx_hal_ospi.c **** 
2433:Drivers/STM32L4xx_HAL_Driver/Src/stm32l4xx_hal_ospi.c **** /** @brief Set OSPI timeout.
2434:Drivers/STM32L4xx_HAL_Driver/Src/stm32l4xx_hal_ospi.c ****   * @param  hospi   : OSPI handle.
2435:Drivers/STM32L4xx_HAL_Driver/Src/stm32l4xx_hal_ospi.c ****   * @param  Timeout : Timeout for the memory access.
2436:Drivers/STM32L4xx_HAL_Driver/Src/stm32l4xx_hal_ospi.c ****   * @retval None
2437:Drivers/STM32L4xx_HAL_Driver/Src/stm32l4xx_hal_ospi.c ****   */
2438:Drivers/STM32L4xx_HAL_Driver/Src/stm32l4xx_hal_ospi.c **** HAL_StatusTypeDef HAL_OSPI_SetTimeout(OSPI_HandleTypeDef *hospi, uint32_t Timeout)
2439:Drivers/STM32L4xx_HAL_Driver/Src/stm32l4xx_hal_ospi.c **** {
 4014              		.loc 1 2439 1
 4015              		.cfi_startproc
 4016              		@ args = 0, pretend = 0, frame = 8
 4017              		@ frame_needed = 1, uses_anonymous_args = 0
 4018              		@ link register save eliminated.
 4019 0000 80B4     		push	{r7}
 4020              		.cfi_def_cfa_offset 4
 4021              		.cfi_offset 7, -4
 4022 0002 83B0     		sub	sp, sp, #12
 4023              		.cfi_def_cfa_offset 16
 4024 0004 00AF     		add	r7, sp, #0
 4025              		.cfi_def_cfa_register 7
 4026 0006 7860     		str	r0, [r7, #4]
 4027 0008 3960     		str	r1, [r7]
2440:Drivers/STM32L4xx_HAL_Driver/Src/stm32l4xx_hal_ospi.c ****   hospi->Timeout = Timeout;
 4028              		.loc 1 2440 18
 4029 000a 7B68     		ldr	r3, [r7, #4]
 4030 000c 3A68     		ldr	r2, [r7]
ARM GAS  C:\Users\Morroway\AppData\Local\Temp\ccxQAUQ3.s 			page 114


 4031 000e 5A65     		str	r2, [r3, #84]
2441:Drivers/STM32L4xx_HAL_Driver/Src/stm32l4xx_hal_ospi.c ****   return HAL_OK;
 4032              		.loc 1 2441 10
 4033 0010 0023     		movs	r3, #0
2442:Drivers/STM32L4xx_HAL_Driver/Src/stm32l4xx_hal_ospi.c **** }
 4034              		.loc 1 2442 1
 4035 0012 1846     		mov	r0, r3
 4036 0014 0C37     		adds	r7, r7, #12
 4037              		.cfi_def_cfa_offset 4
 4038 0016 BD46     		mov	sp, r7
 4039              		.cfi_def_cfa_register 13
 4040              		@ sp needed
 4041 0018 5DF8047B 		ldr	r7, [sp], #4
 4042              		.cfi_restore 7
 4043              		.cfi_def_cfa_offset 0
 4044 001c 7047     		bx	lr
 4045              		.cfi_endproc
 4046              	.LFE353:
 4048              		.section	.text.HAL_OSPI_GetError,"ax",%progbits
 4049              		.align	1
 4050              		.global	HAL_OSPI_GetError
 4051              		.syntax unified
 4052              		.thumb
 4053              		.thumb_func
 4055              	HAL_OSPI_GetError:
 4056              	.LFB354:
2443:Drivers/STM32L4xx_HAL_Driver/Src/stm32l4xx_hal_ospi.c **** 
2444:Drivers/STM32L4xx_HAL_Driver/Src/stm32l4xx_hal_ospi.c **** /**
2445:Drivers/STM32L4xx_HAL_Driver/Src/stm32l4xx_hal_ospi.c **** * @brief  Return the OSPI error code.
2446:Drivers/STM32L4xx_HAL_Driver/Src/stm32l4xx_hal_ospi.c **** * @param  hospi : OSPI handle
2447:Drivers/STM32L4xx_HAL_Driver/Src/stm32l4xx_hal_ospi.c **** * @retval OSPI Error Code
2448:Drivers/STM32L4xx_HAL_Driver/Src/stm32l4xx_hal_ospi.c **** */
2449:Drivers/STM32L4xx_HAL_Driver/Src/stm32l4xx_hal_ospi.c **** uint32_t HAL_OSPI_GetError(OSPI_HandleTypeDef *hospi)
2450:Drivers/STM32L4xx_HAL_Driver/Src/stm32l4xx_hal_ospi.c **** {
 4057              		.loc 1 2450 1
 4058              		.cfi_startproc
 4059              		@ args = 0, pretend = 0, frame = 8
 4060              		@ frame_needed = 1, uses_anonymous_args = 0
 4061              		@ link register save eliminated.
 4062 0000 80B4     		push	{r7}
 4063              		.cfi_def_cfa_offset 4
 4064              		.cfi_offset 7, -4
 4065 0002 83B0     		sub	sp, sp, #12
 4066              		.cfi_def_cfa_offset 16
 4067 0004 00AF     		add	r7, sp, #0
 4068              		.cfi_def_cfa_register 7
 4069 0006 7860     		str	r0, [r7, #4]
2451:Drivers/STM32L4xx_HAL_Driver/Src/stm32l4xx_hal_ospi.c ****   return hospi->ErrorCode;
 4070              		.loc 1 2451 15
 4071 0008 7B68     		ldr	r3, [r7, #4]
 4072 000a 1B6D     		ldr	r3, [r3, #80]
2452:Drivers/STM32L4xx_HAL_Driver/Src/stm32l4xx_hal_ospi.c **** }
 4073              		.loc 1 2452 1
 4074 000c 1846     		mov	r0, r3
 4075 000e 0C37     		adds	r7, r7, #12
 4076              		.cfi_def_cfa_offset 4
 4077 0010 BD46     		mov	sp, r7
ARM GAS  C:\Users\Morroway\AppData\Local\Temp\ccxQAUQ3.s 			page 115


 4078              		.cfi_def_cfa_register 13
 4079              		@ sp needed
 4080 0012 5DF8047B 		ldr	r7, [sp], #4
 4081              		.cfi_restore 7
 4082              		.cfi_def_cfa_offset 0
 4083 0016 7047     		bx	lr
 4084              		.cfi_endproc
 4085              	.LFE354:
 4087              		.section	.text.HAL_OSPI_GetState,"ax",%progbits
 4088              		.align	1
 4089              		.global	HAL_OSPI_GetState
 4090              		.syntax unified
 4091              		.thumb
 4092              		.thumb_func
 4094              	HAL_OSPI_GetState:
 4095              	.LFB355:
2453:Drivers/STM32L4xx_HAL_Driver/Src/stm32l4xx_hal_ospi.c **** 
2454:Drivers/STM32L4xx_HAL_Driver/Src/stm32l4xx_hal_ospi.c **** /**
2455:Drivers/STM32L4xx_HAL_Driver/Src/stm32l4xx_hal_ospi.c ****   * @brief  Return the OSPI handle state.
2456:Drivers/STM32L4xx_HAL_Driver/Src/stm32l4xx_hal_ospi.c ****   * @param  hospi : OSPI handle
2457:Drivers/STM32L4xx_HAL_Driver/Src/stm32l4xx_hal_ospi.c ****   * @retval HAL state
2458:Drivers/STM32L4xx_HAL_Driver/Src/stm32l4xx_hal_ospi.c ****   */
2459:Drivers/STM32L4xx_HAL_Driver/Src/stm32l4xx_hal_ospi.c **** uint32_t HAL_OSPI_GetState(OSPI_HandleTypeDef *hospi)
2460:Drivers/STM32L4xx_HAL_Driver/Src/stm32l4xx_hal_ospi.c **** {
 4096              		.loc 1 2460 1
 4097              		.cfi_startproc
 4098              		@ args = 0, pretend = 0, frame = 8
 4099              		@ frame_needed = 1, uses_anonymous_args = 0
 4100              		@ link register save eliminated.
 4101 0000 80B4     		push	{r7}
 4102              		.cfi_def_cfa_offset 4
 4103              		.cfi_offset 7, -4
 4104 0002 83B0     		sub	sp, sp, #12
 4105              		.cfi_def_cfa_offset 16
 4106 0004 00AF     		add	r7, sp, #0
 4107              		.cfi_def_cfa_register 7
 4108 0006 7860     		str	r0, [r7, #4]
2461:Drivers/STM32L4xx_HAL_Driver/Src/stm32l4xx_hal_ospi.c ****   /* Return OSPI handle state */
2462:Drivers/STM32L4xx_HAL_Driver/Src/stm32l4xx_hal_ospi.c ****   return hospi->State;
 4109              		.loc 1 2462 15
 4110 0008 7B68     		ldr	r3, [r7, #4]
 4111 000a DB6C     		ldr	r3, [r3, #76]
2463:Drivers/STM32L4xx_HAL_Driver/Src/stm32l4xx_hal_ospi.c **** }
 4112              		.loc 1 2463 1
 4113 000c 1846     		mov	r0, r3
 4114 000e 0C37     		adds	r7, r7, #12
 4115              		.cfi_def_cfa_offset 4
 4116 0010 BD46     		mov	sp, r7
 4117              		.cfi_def_cfa_register 13
 4118              		@ sp needed
 4119 0012 5DF8047B 		ldr	r7, [sp], #4
 4120              		.cfi_restore 7
 4121              		.cfi_def_cfa_offset 0
 4122 0016 7047     		bx	lr
 4123              		.cfi_endproc
 4124              	.LFE355:
 4126              		.section	.text.HAL_OSPIM_Config,"ax",%progbits
ARM GAS  C:\Users\Morroway\AppData\Local\Temp\ccxQAUQ3.s 			page 116


 4127              		.align	1
 4128              		.global	HAL_OSPIM_Config
 4129              		.syntax unified
 4130              		.thumb
 4131              		.thumb_func
 4133              	HAL_OSPIM_Config:
 4134              	.LFB356:
2464:Drivers/STM32L4xx_HAL_Driver/Src/stm32l4xx_hal_ospi.c **** 
2465:Drivers/STM32L4xx_HAL_Driver/Src/stm32l4xx_hal_ospi.c **** /**
2466:Drivers/STM32L4xx_HAL_Driver/Src/stm32l4xx_hal_ospi.c ****   * @}
2467:Drivers/STM32L4xx_HAL_Driver/Src/stm32l4xx_hal_ospi.c ****   */
2468:Drivers/STM32L4xx_HAL_Driver/Src/stm32l4xx_hal_ospi.c **** 
2469:Drivers/STM32L4xx_HAL_Driver/Src/stm32l4xx_hal_ospi.c **** /** @defgroup OSPI_Exported_Functions_Group4 IO Manager configuration function
2470:Drivers/STM32L4xx_HAL_Driver/Src/stm32l4xx_hal_ospi.c ****   *  @brief   OSPI IO Manager configuration function
2471:Drivers/STM32L4xx_HAL_Driver/Src/stm32l4xx_hal_ospi.c ****   *
2472:Drivers/STM32L4xx_HAL_Driver/Src/stm32l4xx_hal_ospi.c **** @verbatim
2473:Drivers/STM32L4xx_HAL_Driver/Src/stm32l4xx_hal_ospi.c ****  ===============================================================================
2474:Drivers/STM32L4xx_HAL_Driver/Src/stm32l4xx_hal_ospi.c ****                   ##### IO Manager configuration function #####
2475:Drivers/STM32L4xx_HAL_Driver/Src/stm32l4xx_hal_ospi.c ****  ===============================================================================
2476:Drivers/STM32L4xx_HAL_Driver/Src/stm32l4xx_hal_ospi.c ****     [..]
2477:Drivers/STM32L4xx_HAL_Driver/Src/stm32l4xx_hal_ospi.c ****     This subsection provides a set of functions allowing to :
2478:Drivers/STM32L4xx_HAL_Driver/Src/stm32l4xx_hal_ospi.c ****       (+) Configure the IO manager.
2479:Drivers/STM32L4xx_HAL_Driver/Src/stm32l4xx_hal_ospi.c **** 
2480:Drivers/STM32L4xx_HAL_Driver/Src/stm32l4xx_hal_ospi.c **** @endverbatim
2481:Drivers/STM32L4xx_HAL_Driver/Src/stm32l4xx_hal_ospi.c ****   * @{
2482:Drivers/STM32L4xx_HAL_Driver/Src/stm32l4xx_hal_ospi.c ****   */
2483:Drivers/STM32L4xx_HAL_Driver/Src/stm32l4xx_hal_ospi.c **** 
2484:Drivers/STM32L4xx_HAL_Driver/Src/stm32l4xx_hal_ospi.c **** /**
2485:Drivers/STM32L4xx_HAL_Driver/Src/stm32l4xx_hal_ospi.c ****   * @brief  Configure the OctoSPI IO manager.
2486:Drivers/STM32L4xx_HAL_Driver/Src/stm32l4xx_hal_ospi.c ****   * @param  hospi   : OSPI handle
2487:Drivers/STM32L4xx_HAL_Driver/Src/stm32l4xx_hal_ospi.c ****   * @param  cfg     : Configuration of the IO Manager for the instance
2488:Drivers/STM32L4xx_HAL_Driver/Src/stm32l4xx_hal_ospi.c ****   * @param  Timeout : Timeout duration
2489:Drivers/STM32L4xx_HAL_Driver/Src/stm32l4xx_hal_ospi.c ****   * @retval HAL status
2490:Drivers/STM32L4xx_HAL_Driver/Src/stm32l4xx_hal_ospi.c ****   */
2491:Drivers/STM32L4xx_HAL_Driver/Src/stm32l4xx_hal_ospi.c **** HAL_StatusTypeDef HAL_OSPIM_Config(OSPI_HandleTypeDef *hospi, OSPIM_CfgTypeDef *cfg, uint32_t Timeo
2492:Drivers/STM32L4xx_HAL_Driver/Src/stm32l4xx_hal_ospi.c **** {
 4135              		.loc 1 2492 1
 4136              		.cfi_startproc
 4137              		@ args = 0, pretend = 0, frame = 80
 4138              		@ frame_needed = 1, uses_anonymous_args = 0
 4139 0000 80B5     		push	{r7, lr}
 4140              		.cfi_def_cfa_offset 8
 4141              		.cfi_offset 7, -8
 4142              		.cfi_offset 14, -4
 4143 0002 94B0     		sub	sp, sp, #80
 4144              		.cfi_def_cfa_offset 88
 4145 0004 00AF     		add	r7, sp, #0
 4146              		.cfi_def_cfa_register 7
 4147 0006 F860     		str	r0, [r7, #12]
 4148 0008 B960     		str	r1, [r7, #8]
 4149 000a 7A60     		str	r2, [r7, #4]
2493:Drivers/STM32L4xx_HAL_Driver/Src/stm32l4xx_hal_ospi.c ****   HAL_StatusTypeDef status = HAL_OK;
 4150              		.loc 1 2493 21
 4151 000c 0023     		movs	r3, #0
 4152 000e 87F84F30 		strb	r3, [r7, #79]
2494:Drivers/STM32L4xx_HAL_Driver/Src/stm32l4xx_hal_ospi.c ****   uint32_t instance;
2495:Drivers/STM32L4xx_HAL_Driver/Src/stm32l4xx_hal_ospi.c ****   uint8_t index;
ARM GAS  C:\Users\Morroway\AppData\Local\Temp\ccxQAUQ3.s 			page 117


2496:Drivers/STM32L4xx_HAL_Driver/Src/stm32l4xx_hal_ospi.c ****   uint8_t ospi_enabled = 0U;
 4153              		.loc 1 2496 11
 4154 0012 0023     		movs	r3, #0
 4155 0014 87F84630 		strb	r3, [r7, #70]
2497:Drivers/STM32L4xx_HAL_Driver/Src/stm32l4xx_hal_ospi.c ****   uint8_t other_instance;
2498:Drivers/STM32L4xx_HAL_Driver/Src/stm32l4xx_hal_ospi.c ****   OSPIM_CfgTypeDef IOM_cfg[OSPI_NB_INSTANCE];
2499:Drivers/STM32L4xx_HAL_Driver/Src/stm32l4xx_hal_ospi.c **** 
2500:Drivers/STM32L4xx_HAL_Driver/Src/stm32l4xx_hal_ospi.c ****   /* Prevent unused argument(s) compilation warning */
2501:Drivers/STM32L4xx_HAL_Driver/Src/stm32l4xx_hal_ospi.c ****   UNUSED(Timeout);
2502:Drivers/STM32L4xx_HAL_Driver/Src/stm32l4xx_hal_ospi.c **** 
2503:Drivers/STM32L4xx_HAL_Driver/Src/stm32l4xx_hal_ospi.c ****   /* Check the parameters of the OctoSPI IO Manager configuration structure */
2504:Drivers/STM32L4xx_HAL_Driver/Src/stm32l4xx_hal_ospi.c ****   assert_param(IS_OSPIM_PORT(cfg->ClkPort));
2505:Drivers/STM32L4xx_HAL_Driver/Src/stm32l4xx_hal_ospi.c ****   assert_param(IS_OSPIM_DQS_PORT(cfg->DQSPort));
2506:Drivers/STM32L4xx_HAL_Driver/Src/stm32l4xx_hal_ospi.c ****   assert_param(IS_OSPIM_PORT(cfg->NCSPort));
2507:Drivers/STM32L4xx_HAL_Driver/Src/stm32l4xx_hal_ospi.c ****   assert_param(IS_OSPIM_IO_PORT(cfg->IOLowPort));
2508:Drivers/STM32L4xx_HAL_Driver/Src/stm32l4xx_hal_ospi.c ****   assert_param(IS_OSPIM_IO_PORT(cfg->IOHighPort));
2509:Drivers/STM32L4xx_HAL_Driver/Src/stm32l4xx_hal_ospi.c **** #if   defined (OCTOSPIM_CR_MUXEN)
2510:Drivers/STM32L4xx_HAL_Driver/Src/stm32l4xx_hal_ospi.c ****   assert_param(IS_OSPIM_REQ2ACKTIME(cfg->Req2AckTime));
2511:Drivers/STM32L4xx_HAL_Driver/Src/stm32l4xx_hal_ospi.c **** #endif
2512:Drivers/STM32L4xx_HAL_Driver/Src/stm32l4xx_hal_ospi.c **** 
2513:Drivers/STM32L4xx_HAL_Driver/Src/stm32l4xx_hal_ospi.c ****   if (hospi->Instance == OCTOSPI1)
 4156              		.loc 1 2513 12
 4157 0018 FB68     		ldr	r3, [r7, #12]
 4158 001a 1B68     		ldr	r3, [r3]
 4159              		.loc 1 2513 6
 4160 001c 9D4A     		ldr	r2, .L236
 4161 001e 9342     		cmp	r3, r2
 4162 0020 05D1     		bne	.L204
2514:Drivers/STM32L4xx_HAL_Driver/Src/stm32l4xx_hal_ospi.c ****   {
2515:Drivers/STM32L4xx_HAL_Driver/Src/stm32l4xx_hal_ospi.c ****     instance = 0U;
 4163              		.loc 1 2515 14
 4164 0022 0023     		movs	r3, #0
 4165 0024 BB64     		str	r3, [r7, #72]
2516:Drivers/STM32L4xx_HAL_Driver/Src/stm32l4xx_hal_ospi.c ****     other_instance = 1U;
 4166              		.loc 1 2516 20
 4167 0026 0123     		movs	r3, #1
 4168 0028 87F84530 		strb	r3, [r7, #69]
 4169 002c 04E0     		b	.L205
 4170              	.L204:
2517:Drivers/STM32L4xx_HAL_Driver/Src/stm32l4xx_hal_ospi.c ****   }
2518:Drivers/STM32L4xx_HAL_Driver/Src/stm32l4xx_hal_ospi.c ****   else
2519:Drivers/STM32L4xx_HAL_Driver/Src/stm32l4xx_hal_ospi.c ****   {
2520:Drivers/STM32L4xx_HAL_Driver/Src/stm32l4xx_hal_ospi.c ****     instance = 1U;
 4171              		.loc 1 2520 14
 4172 002e 0123     		movs	r3, #1
 4173 0030 BB64     		str	r3, [r7, #72]
2521:Drivers/STM32L4xx_HAL_Driver/Src/stm32l4xx_hal_ospi.c ****     other_instance = 0U;
 4174              		.loc 1 2521 20
 4175 0032 0023     		movs	r3, #0
 4176 0034 87F84530 		strb	r3, [r7, #69]
 4177              	.L205:
2522:Drivers/STM32L4xx_HAL_Driver/Src/stm32l4xx_hal_ospi.c ****   }
2523:Drivers/STM32L4xx_HAL_Driver/Src/stm32l4xx_hal_ospi.c **** 
2524:Drivers/STM32L4xx_HAL_Driver/Src/stm32l4xx_hal_ospi.c ****   /**************** Get current configuration of the instances ****************/
2525:Drivers/STM32L4xx_HAL_Driver/Src/stm32l4xx_hal_ospi.c ****   for (index = 0U; index < OSPI_NB_INSTANCE; index++)
 4178              		.loc 1 2525 14
 4179 0038 0023     		movs	r3, #0
ARM GAS  C:\Users\Morroway\AppData\Local\Temp\ccxQAUQ3.s 			page 118


 4180 003a 87F84730 		strb	r3, [r7, #71]
 4181              		.loc 1 2525 3
 4182 003e 1DE0     		b	.L206
 4183              	.L208:
2526:Drivers/STM32L4xx_HAL_Driver/Src/stm32l4xx_hal_ospi.c ****   {
2527:Drivers/STM32L4xx_HAL_Driver/Src/stm32l4xx_hal_ospi.c ****     if (OSPIM_GetConfig(index+1U, &(IOM_cfg[index])) != HAL_OK)
 4184              		.loc 1 2527 9
 4185 0040 97F84730 		ldrb	r3, [r7, #71]
 4186 0044 0133     		adds	r3, r3, #1
 4187 0046 D8B2     		uxtb	r0, r3
 4188              		.loc 1 2527 44
 4189 0048 97F84720 		ldrb	r2, [r7, #71]	@ zero_extendqisi2
 4190              		.loc 1 2527 9
 4191 004c 07F11401 		add	r1, r7, #20
 4192 0050 1346     		mov	r3, r2
 4193 0052 5B00     		lsls	r3, r3, #1
 4194 0054 1344     		add	r3, r3, r2
 4195 0056 DB00     		lsls	r3, r3, #3
 4196 0058 0B44     		add	r3, r3, r1
 4197 005a 1946     		mov	r1, r3
 4198 005c FFF7FEFF 		bl	OSPIM_GetConfig
 4199 0060 0346     		mov	r3, r0
 4200              		.loc 1 2527 8
 4201 0062 002B     		cmp	r3, #0
 4202 0064 05D0     		beq	.L207
2528:Drivers/STM32L4xx_HAL_Driver/Src/stm32l4xx_hal_ospi.c ****     {
2529:Drivers/STM32L4xx_HAL_Driver/Src/stm32l4xx_hal_ospi.c ****       status = HAL_ERROR;
 4203              		.loc 1 2529 14
 4204 0066 0123     		movs	r3, #1
 4205 0068 87F84F30 		strb	r3, [r7, #79]
2530:Drivers/STM32L4xx_HAL_Driver/Src/stm32l4xx_hal_ospi.c ****       hospi->ErrorCode = HAL_OSPI_ERROR_INVALID_PARAM;
 4206              		.loc 1 2530 24
 4207 006c FB68     		ldr	r3, [r7, #12]
 4208 006e 0822     		movs	r2, #8
 4209 0070 1A65     		str	r2, [r3, #80]
 4210              	.L207:
2525:Drivers/STM32L4xx_HAL_Driver/Src/stm32l4xx_hal_ospi.c ****   {
 4211              		.loc 1 2525 51 discriminator 2
 4212 0072 97F84730 		ldrb	r3, [r7, #71]	@ zero_extendqisi2
 4213 0076 0133     		adds	r3, r3, #1
 4214 0078 87F84730 		strb	r3, [r7, #71]
 4215              	.L206:
2525:Drivers/STM32L4xx_HAL_Driver/Src/stm32l4xx_hal_ospi.c ****   {
 4216              		.loc 1 2525 26 discriminator 1
 4217 007c 97F84730 		ldrb	r3, [r7, #71]	@ zero_extendqisi2
 4218 0080 012B     		cmp	r3, #1
 4219 0082 DDD9     		bls	.L208
2531:Drivers/STM32L4xx_HAL_Driver/Src/stm32l4xx_hal_ospi.c ****     }
2532:Drivers/STM32L4xx_HAL_Driver/Src/stm32l4xx_hal_ospi.c ****   }
2533:Drivers/STM32L4xx_HAL_Driver/Src/stm32l4xx_hal_ospi.c **** 
2534:Drivers/STM32L4xx_HAL_Driver/Src/stm32l4xx_hal_ospi.c ****   if (status == HAL_OK)
 4220              		.loc 1 2534 6
 4221 0084 97F84F30 		ldrb	r3, [r7, #79]	@ zero_extendqisi2
 4222 0088 002B     		cmp	r3, #0
 4223 008a 40F09584 		bne	.L209
2535:Drivers/STM32L4xx_HAL_Driver/Src/stm32l4xx_hal_ospi.c ****   {
2536:Drivers/STM32L4xx_HAL_Driver/Src/stm32l4xx_hal_ospi.c ****     /********** Disable both OctoSPI to configure OctoSPI IO Manager **********/
ARM GAS  C:\Users\Morroway\AppData\Local\Temp\ccxQAUQ3.s 			page 119


2537:Drivers/STM32L4xx_HAL_Driver/Src/stm32l4xx_hal_ospi.c ****     if ((OCTOSPI1->CR & OCTOSPI_CR_EN) != 0U)
 4224              		.loc 1 2537 18
 4225 008e 814B     		ldr	r3, .L236
 4226 0090 1B68     		ldr	r3, [r3]
 4227              		.loc 1 2537 23
 4228 0092 03F00103 		and	r3, r3, #1
 4229              		.loc 1 2537 8
 4230 0096 002B     		cmp	r3, #0
 4231 0098 0BD0     		beq	.L210
2538:Drivers/STM32L4xx_HAL_Driver/Src/stm32l4xx_hal_ospi.c ****     {
2539:Drivers/STM32L4xx_HAL_Driver/Src/stm32l4xx_hal_ospi.c ****       CLEAR_BIT(OCTOSPI1->CR, OCTOSPI_CR_EN);
 4232              		.loc 1 2539 7
 4233 009a 7E4B     		ldr	r3, .L236
 4234 009c 1B68     		ldr	r3, [r3]
 4235 009e 7D4A     		ldr	r2, .L236
 4236 00a0 23F00103 		bic	r3, r3, #1
 4237 00a4 1360     		str	r3, [r2]
2540:Drivers/STM32L4xx_HAL_Driver/Src/stm32l4xx_hal_ospi.c ****       ospi_enabled |= 0x1U;
 4238              		.loc 1 2540 20
 4239 00a6 97F84630 		ldrb	r3, [r7, #70]
 4240 00aa 43F00103 		orr	r3, r3, #1
 4241 00ae 87F84630 		strb	r3, [r7, #70]
 4242              	.L210:
2541:Drivers/STM32L4xx_HAL_Driver/Src/stm32l4xx_hal_ospi.c ****     }
2542:Drivers/STM32L4xx_HAL_Driver/Src/stm32l4xx_hal_ospi.c ****     if ((OCTOSPI2->CR & OCTOSPI_CR_EN) != 0U)
 4243              		.loc 1 2542 18
 4244 00b2 794B     		ldr	r3, .L236+4
 4245 00b4 1B68     		ldr	r3, [r3]
 4246              		.loc 1 2542 23
 4247 00b6 03F00103 		and	r3, r3, #1
 4248              		.loc 1 2542 8
 4249 00ba 002B     		cmp	r3, #0
 4250 00bc 0BD0     		beq	.L211
2543:Drivers/STM32L4xx_HAL_Driver/Src/stm32l4xx_hal_ospi.c ****     {
2544:Drivers/STM32L4xx_HAL_Driver/Src/stm32l4xx_hal_ospi.c ****       CLEAR_BIT(OCTOSPI2->CR, OCTOSPI_CR_EN);
 4251              		.loc 1 2544 7
 4252 00be 764B     		ldr	r3, .L236+4
 4253 00c0 1B68     		ldr	r3, [r3]
 4254 00c2 754A     		ldr	r2, .L236+4
 4255 00c4 23F00103 		bic	r3, r3, #1
 4256 00c8 1360     		str	r3, [r2]
2545:Drivers/STM32L4xx_HAL_Driver/Src/stm32l4xx_hal_ospi.c ****       ospi_enabled |= 0x2U;
 4257              		.loc 1 2545 20
 4258 00ca 97F84630 		ldrb	r3, [r7, #70]
 4259 00ce 43F00203 		orr	r3, r3, #2
 4260 00d2 87F84630 		strb	r3, [r7, #70]
 4261              	.L211:
2546:Drivers/STM32L4xx_HAL_Driver/Src/stm32l4xx_hal_ospi.c ****     }
2547:Drivers/STM32L4xx_HAL_Driver/Src/stm32l4xx_hal_ospi.c **** 
2548:Drivers/STM32L4xx_HAL_Driver/Src/stm32l4xx_hal_ospi.c ****     /***************** Deactivation of previous configuration *****************/
2549:Drivers/STM32L4xx_HAL_Driver/Src/stm32l4xx_hal_ospi.c ****     CLEAR_BIT(OCTOSPIM->PCR[(IOM_cfg[instance].NCSPort-1U)], OCTOSPIM_PCR_NCSEN);
 4262              		.loc 1 2549 5
 4263 00d6 7149     		ldr	r1, .L236+8
 4264 00d8 BA6C     		ldr	r2, [r7, #72]
 4265 00da 1346     		mov	r3, r2
 4266 00dc 5B00     		lsls	r3, r3, #1
 4267 00de 1344     		add	r3, r3, r2
ARM GAS  C:\Users\Morroway\AppData\Local\Temp\ccxQAUQ3.s 			page 120


 4268 00e0 DB00     		lsls	r3, r3, #3
 4269 00e2 5033     		adds	r3, r3, #80
 4270 00e4 3B44     		add	r3, r3, r7
 4271 00e6 343B     		subs	r3, r3, #52
 4272 00e8 1B68     		ldr	r3, [r3]
 4273 00ea 013B     		subs	r3, r3, #1
 4274 00ec 9B00     		lsls	r3, r3, #2
 4275 00ee 0B44     		add	r3, r3, r1
 4276 00f0 5968     		ldr	r1, [r3, #4]
 4277 00f2 6A48     		ldr	r0, .L236+8
 4278 00f4 BA6C     		ldr	r2, [r7, #72]
 4279 00f6 1346     		mov	r3, r2
 4280 00f8 5B00     		lsls	r3, r3, #1
 4281 00fa 1344     		add	r3, r3, r2
 4282 00fc DB00     		lsls	r3, r3, #3
 4283 00fe 5033     		adds	r3, r3, #80
 4284 0100 3B44     		add	r3, r3, r7
 4285 0102 343B     		subs	r3, r3, #52
 4286 0104 1B68     		ldr	r3, [r3]
 4287 0106 013B     		subs	r3, r3, #1
 4288 0108 21F48072 		bic	r2, r1, #256
 4289 010c 9B00     		lsls	r3, r3, #2
 4290 010e 0344     		add	r3, r3, r0
 4291 0110 5A60     		str	r2, [r3, #4]
2550:Drivers/STM32L4xx_HAL_Driver/Src/stm32l4xx_hal_ospi.c **** #if   defined (OCTOSPIM_CR_MUXEN)
2551:Drivers/STM32L4xx_HAL_Driver/Src/stm32l4xx_hal_ospi.c ****     if ((OCTOSPIM->CR & OCTOSPIM_CR_MUXEN) != 0U)
 4292              		.loc 1 2551 18
 4293 0112 624B     		ldr	r3, .L236+8
 4294 0114 1B68     		ldr	r3, [r3]
 4295              		.loc 1 2551 23
 4296 0116 03F00103 		and	r3, r3, #1
 4297              		.loc 1 2551 8
 4298 011a 002B     		cmp	r3, #0
 4299 011c 00F0C080 		beq	.L212
2552:Drivers/STM32L4xx_HAL_Driver/Src/stm32l4xx_hal_ospi.c ****     {
2553:Drivers/STM32L4xx_HAL_Driver/Src/stm32l4xx_hal_ospi.c ****       /* De-multiplexing should be performed */
2554:Drivers/STM32L4xx_HAL_Driver/Src/stm32l4xx_hal_ospi.c ****       CLEAR_BIT(OCTOSPIM->CR, OCTOSPIM_CR_MUXEN);
 4300              		.loc 1 2554 7
 4301 0120 5E4B     		ldr	r3, .L236+8
 4302 0122 1B68     		ldr	r3, [r3]
 4303 0124 5D4A     		ldr	r2, .L236+8
 4304 0126 23F00103 		bic	r3, r3, #1
 4305 012a 1360     		str	r3, [r2]
2555:Drivers/STM32L4xx_HAL_Driver/Src/stm32l4xx_hal_ospi.c **** 
2556:Drivers/STM32L4xx_HAL_Driver/Src/stm32l4xx_hal_ospi.c ****       if (other_instance == 1U)
 4306              		.loc 1 2556 10
 4307 012c 97F84530 		ldrb	r3, [r7, #69]	@ zero_extendqisi2
 4308 0130 012B     		cmp	r3, #1
 4309 0132 40F06281 		bne	.L213
2557:Drivers/STM32L4xx_HAL_Driver/Src/stm32l4xx_hal_ospi.c ****       {
2558:Drivers/STM32L4xx_HAL_Driver/Src/stm32l4xx_hal_ospi.c ****         SET_BIT(OCTOSPIM->PCR[(IOM_cfg[other_instance].ClkPort-1U)], OCTOSPIM_PCR_CLKSRC);
 4310              		.loc 1 2558 9
 4311 0136 5949     		ldr	r1, .L236+8
 4312 0138 97F84520 		ldrb	r2, [r7, #69]	@ zero_extendqisi2
 4313 013c 1346     		mov	r3, r2
 4314 013e 5B00     		lsls	r3, r3, #1
 4315 0140 1344     		add	r3, r3, r2
ARM GAS  C:\Users\Morroway\AppData\Local\Temp\ccxQAUQ3.s 			page 121


 4316 0142 DB00     		lsls	r3, r3, #3
 4317 0144 5033     		adds	r3, r3, #80
 4318 0146 3B44     		add	r3, r3, r7
 4319 0148 3C3B     		subs	r3, r3, #60
 4320 014a 1B68     		ldr	r3, [r3]
 4321 014c 013B     		subs	r3, r3, #1
 4322 014e 9B00     		lsls	r3, r3, #2
 4323 0150 0B44     		add	r3, r3, r1
 4324 0152 5968     		ldr	r1, [r3, #4]
 4325 0154 5148     		ldr	r0, .L236+8
 4326 0156 97F84520 		ldrb	r2, [r7, #69]	@ zero_extendqisi2
 4327 015a 1346     		mov	r3, r2
 4328 015c 5B00     		lsls	r3, r3, #1
 4329 015e 1344     		add	r3, r3, r2
 4330 0160 DB00     		lsls	r3, r3, #3
 4331 0162 5033     		adds	r3, r3, #80
 4332 0164 3B44     		add	r3, r3, r7
 4333 0166 3C3B     		subs	r3, r3, #60
 4334 0168 1B68     		ldr	r3, [r3]
 4335 016a 013B     		subs	r3, r3, #1
 4336 016c 41F00202 		orr	r2, r1, #2
 4337 0170 9B00     		lsls	r3, r3, #2
 4338 0172 0344     		add	r3, r3, r0
 4339 0174 5A60     		str	r2, [r3, #4]
2559:Drivers/STM32L4xx_HAL_Driver/Src/stm32l4xx_hal_ospi.c ****         if (IOM_cfg[other_instance].DQSPort != 0U)
 4340              		.loc 1 2559 36
 4341 0176 97F84520 		ldrb	r2, [r7, #69]	@ zero_extendqisi2
 4342 017a 1346     		mov	r3, r2
 4343 017c 5B00     		lsls	r3, r3, #1
 4344 017e 1344     		add	r3, r3, r2
 4345 0180 DB00     		lsls	r3, r3, #3
 4346 0182 5033     		adds	r3, r3, #80
 4347 0184 3B44     		add	r3, r3, r7
 4348 0186 383B     		subs	r3, r3, #56
 4349 0188 1B68     		ldr	r3, [r3]
 4350              		.loc 1 2559 12
 4351 018a 002B     		cmp	r3, #0
 4352 018c 1FD0     		beq	.L214
2560:Drivers/STM32L4xx_HAL_Driver/Src/stm32l4xx_hal_ospi.c ****         {
2561:Drivers/STM32L4xx_HAL_Driver/Src/stm32l4xx_hal_ospi.c ****           SET_BIT(OCTOSPIM->PCR[(IOM_cfg[other_instance].DQSPort-1U)], OCTOSPIM_PCR_DQSSRC);
 4353              		.loc 1 2561 11
 4354 018e 4349     		ldr	r1, .L236+8
 4355 0190 97F84520 		ldrb	r2, [r7, #69]	@ zero_extendqisi2
 4356 0194 1346     		mov	r3, r2
 4357 0196 5B00     		lsls	r3, r3, #1
 4358 0198 1344     		add	r3, r3, r2
 4359 019a DB00     		lsls	r3, r3, #3
 4360 019c 5033     		adds	r3, r3, #80
 4361 019e 3B44     		add	r3, r3, r7
 4362 01a0 383B     		subs	r3, r3, #56
 4363 01a2 1B68     		ldr	r3, [r3]
 4364 01a4 013B     		subs	r3, r3, #1
 4365 01a6 9B00     		lsls	r3, r3, #2
 4366 01a8 0B44     		add	r3, r3, r1
 4367 01aa 5968     		ldr	r1, [r3, #4]
 4368 01ac 3B48     		ldr	r0, .L236+8
 4369 01ae 97F84520 		ldrb	r2, [r7, #69]	@ zero_extendqisi2
ARM GAS  C:\Users\Morroway\AppData\Local\Temp\ccxQAUQ3.s 			page 122


 4370 01b2 1346     		mov	r3, r2
 4371 01b4 5B00     		lsls	r3, r3, #1
 4372 01b6 1344     		add	r3, r3, r2
 4373 01b8 DB00     		lsls	r3, r3, #3
 4374 01ba 5033     		adds	r3, r3, #80
 4375 01bc 3B44     		add	r3, r3, r7
 4376 01be 383B     		subs	r3, r3, #56
 4377 01c0 1B68     		ldr	r3, [r3]
 4378 01c2 013B     		subs	r3, r3, #1
 4379 01c4 41F02002 		orr	r2, r1, #32
 4380 01c8 9B00     		lsls	r3, r3, #2
 4381 01ca 0344     		add	r3, r3, r0
 4382 01cc 5A60     		str	r2, [r3, #4]
 4383              	.L214:
2562:Drivers/STM32L4xx_HAL_Driver/Src/stm32l4xx_hal_ospi.c ****         }
2563:Drivers/STM32L4xx_HAL_Driver/Src/stm32l4xx_hal_ospi.c ****         if (IOM_cfg[other_instance].IOLowPort != HAL_OSPIM_IOPORT_NONE)
 4384              		.loc 1 2563 36
 4385 01ce 97F84520 		ldrb	r2, [r7, #69]	@ zero_extendqisi2
 4386 01d2 1346     		mov	r3, r2
 4387 01d4 5B00     		lsls	r3, r3, #1
 4388 01d6 1344     		add	r3, r3, r2
 4389 01d8 DB00     		lsls	r3, r3, #3
 4390 01da 5033     		adds	r3, r3, #80
 4391 01dc 3B44     		add	r3, r3, r7
 4392 01de 303B     		subs	r3, r3, #48
 4393 01e0 1B68     		ldr	r3, [r3]
 4394              		.loc 1 2563 12
 4395 01e2 002B     		cmp	r3, #0
 4396 01e4 23D0     		beq	.L215
2564:Drivers/STM32L4xx_HAL_Driver/Src/stm32l4xx_hal_ospi.c ****         {
2565:Drivers/STM32L4xx_HAL_Driver/Src/stm32l4xx_hal_ospi.c ****           SET_BIT(OCTOSPIM->PCR[((IOM_cfg[other_instance].IOLowPort-1U)& OSPI_IOM_PORT_MASK)], OCTO
 4397              		.loc 1 2565 11
 4398 01e6 2D49     		ldr	r1, .L236+8
 4399 01e8 97F84520 		ldrb	r2, [r7, #69]	@ zero_extendqisi2
 4400 01ec 1346     		mov	r3, r2
 4401 01ee 5B00     		lsls	r3, r3, #1
 4402 01f0 1344     		add	r3, r3, r2
 4403 01f2 DB00     		lsls	r3, r3, #3
 4404 01f4 5033     		adds	r3, r3, #80
 4405 01f6 3B44     		add	r3, r3, r7
 4406 01f8 303B     		subs	r3, r3, #48
 4407 01fa 1B68     		ldr	r3, [r3]
 4408 01fc 013B     		subs	r3, r3, #1
 4409 01fe 03F00103 		and	r3, r3, #1
 4410 0202 9B00     		lsls	r3, r3, #2
 4411 0204 0B44     		add	r3, r3, r1
 4412 0206 5968     		ldr	r1, [r3, #4]
 4413 0208 2448     		ldr	r0, .L236+8
 4414 020a 97F84520 		ldrb	r2, [r7, #69]	@ zero_extendqisi2
 4415 020e 1346     		mov	r3, r2
 4416 0210 5B00     		lsls	r3, r3, #1
 4417 0212 1344     		add	r3, r3, r2
 4418 0214 DB00     		lsls	r3, r3, #3
 4419 0216 5033     		adds	r3, r3, #80
 4420 0218 3B44     		add	r3, r3, r7
 4421 021a 303B     		subs	r3, r3, #48
 4422 021c 1B68     		ldr	r3, [r3]
ARM GAS  C:\Users\Morroway\AppData\Local\Temp\ccxQAUQ3.s 			page 123


 4423 021e 013B     		subs	r3, r3, #1
 4424 0220 03F00103 		and	r3, r3, #1
 4425 0224 41F48022 		orr	r2, r1, #262144
 4426 0228 9B00     		lsls	r3, r3, #2
 4427 022a 0344     		add	r3, r3, r0
 4428 022c 5A60     		str	r2, [r3, #4]
 4429              	.L215:
2566:Drivers/STM32L4xx_HAL_Driver/Src/stm32l4xx_hal_ospi.c ****         }
2567:Drivers/STM32L4xx_HAL_Driver/Src/stm32l4xx_hal_ospi.c ****         if (IOM_cfg[other_instance].IOHighPort != HAL_OSPIM_IOPORT_NONE)
 4430              		.loc 1 2567 36
 4431 022e 97F84520 		ldrb	r2, [r7, #69]	@ zero_extendqisi2
 4432 0232 1346     		mov	r3, r2
 4433 0234 5B00     		lsls	r3, r3, #1
 4434 0236 1344     		add	r3, r3, r2
 4435 0238 DB00     		lsls	r3, r3, #3
 4436 023a 5033     		adds	r3, r3, #80
 4437 023c 3B44     		add	r3, r3, r7
 4438 023e 2C3B     		subs	r3, r3, #44
 4439 0240 1B68     		ldr	r3, [r3]
 4440              		.loc 1 2567 12
 4441 0242 002B     		cmp	r3, #0
 4442 0244 00F0D980 		beq	.L213
2568:Drivers/STM32L4xx_HAL_Driver/Src/stm32l4xx_hal_ospi.c ****         {
2569:Drivers/STM32L4xx_HAL_Driver/Src/stm32l4xx_hal_ospi.c ****           SET_BIT(OCTOSPIM->PCR[((IOM_cfg[other_instance].IOHighPort-1U)& OSPI_IOM_PORT_MASK)], OCT
 4443              		.loc 1 2569 11
 4444 0248 1449     		ldr	r1, .L236+8
 4445 024a 97F84520 		ldrb	r2, [r7, #69]	@ zero_extendqisi2
 4446 024e 1346     		mov	r3, r2
 4447 0250 5B00     		lsls	r3, r3, #1
 4448 0252 1344     		add	r3, r3, r2
 4449 0254 DB00     		lsls	r3, r3, #3
 4450 0256 5033     		adds	r3, r3, #80
 4451 0258 3B44     		add	r3, r3, r7
 4452 025a 2C3B     		subs	r3, r3, #44
 4453 025c 1B68     		ldr	r3, [r3]
 4454 025e 013B     		subs	r3, r3, #1
 4455 0260 03F00103 		and	r3, r3, #1
 4456 0264 9B00     		lsls	r3, r3, #2
 4457 0266 0B44     		add	r3, r3, r1
 4458 0268 5968     		ldr	r1, [r3, #4]
 4459 026a 0C48     		ldr	r0, .L236+8
 4460 026c 97F84520 		ldrb	r2, [r7, #69]	@ zero_extendqisi2
 4461 0270 1346     		mov	r3, r2
 4462 0272 5B00     		lsls	r3, r3, #1
 4463 0274 1344     		add	r3, r3, r2
 4464 0276 DB00     		lsls	r3, r3, #3
 4465 0278 5033     		adds	r3, r3, #80
 4466 027a 3B44     		add	r3, r3, r7
 4467 027c 2C3B     		subs	r3, r3, #44
 4468 027e 1B68     		ldr	r3, [r3]
 4469 0280 013B     		subs	r3, r3, #1
 4470 0282 03F00103 		and	r3, r3, #1
 4471 0286 41F08062 		orr	r2, r1, #67108864
 4472 028a 9B00     		lsls	r3, r3, #2
 4473 028c 0344     		add	r3, r3, r0
 4474 028e 5A60     		str	r2, [r3, #4]
 4475 0290 B3E0     		b	.L213
ARM GAS  C:\Users\Morroway\AppData\Local\Temp\ccxQAUQ3.s 			page 124


 4476              	.L237:
 4477 0292 00BF     		.align	2
 4478              	.L236:
 4479 0294 001000A0 		.word	-1610608640
 4480 0298 001400A0 		.word	-1610607616
 4481 029c 001C0650 		.word	1342577664
 4482              	.L212:
2570:Drivers/STM32L4xx_HAL_Driver/Src/stm32l4xx_hal_ospi.c ****         }
2571:Drivers/STM32L4xx_HAL_Driver/Src/stm32l4xx_hal_ospi.c ****       }
2572:Drivers/STM32L4xx_HAL_Driver/Src/stm32l4xx_hal_ospi.c ****     }
2573:Drivers/STM32L4xx_HAL_Driver/Src/stm32l4xx_hal_ospi.c ****     else
2574:Drivers/STM32L4xx_HAL_Driver/Src/stm32l4xx_hal_ospi.c ****     {
2575:Drivers/STM32L4xx_HAL_Driver/Src/stm32l4xx_hal_ospi.c **** #endif
2576:Drivers/STM32L4xx_HAL_Driver/Src/stm32l4xx_hal_ospi.c ****       if (IOM_cfg[instance].ClkPort != 0U)
 4483              		.loc 1 2576 28
 4484 02a0 BA6C     		ldr	r2, [r7, #72]
 4485 02a2 1346     		mov	r3, r2
 4486 02a4 5B00     		lsls	r3, r3, #1
 4487 02a6 1344     		add	r3, r3, r2
 4488 02a8 DB00     		lsls	r3, r3, #3
 4489 02aa 5033     		adds	r3, r3, #80
 4490 02ac 3B44     		add	r3, r3, r7
 4491 02ae 3C3B     		subs	r3, r3, #60
 4492 02b0 1B68     		ldr	r3, [r3]
 4493              		.loc 1 2576 10
 4494 02b2 002B     		cmp	r3, #0
 4495 02b4 00F0A180 		beq	.L213
2577:Drivers/STM32L4xx_HAL_Driver/Src/stm32l4xx_hal_ospi.c ****       {
2578:Drivers/STM32L4xx_HAL_Driver/Src/stm32l4xx_hal_ospi.c ****         CLEAR_BIT(OCTOSPIM->PCR[(IOM_cfg[instance].ClkPort-1U)], OCTOSPIM_PCR_CLKEN);
 4496              		.loc 1 2578 9
 4497 02b8 9349     		ldr	r1, .L238
 4498 02ba BA6C     		ldr	r2, [r7, #72]
 4499 02bc 1346     		mov	r3, r2
 4500 02be 5B00     		lsls	r3, r3, #1
 4501 02c0 1344     		add	r3, r3, r2
 4502 02c2 DB00     		lsls	r3, r3, #3
 4503 02c4 5033     		adds	r3, r3, #80
 4504 02c6 3B44     		add	r3, r3, r7
 4505 02c8 3C3B     		subs	r3, r3, #60
 4506 02ca 1B68     		ldr	r3, [r3]
 4507 02cc 013B     		subs	r3, r3, #1
 4508 02ce 9B00     		lsls	r3, r3, #2
 4509 02d0 0B44     		add	r3, r3, r1
 4510 02d2 5968     		ldr	r1, [r3, #4]
 4511 02d4 8C48     		ldr	r0, .L238
 4512 02d6 BA6C     		ldr	r2, [r7, #72]
 4513 02d8 1346     		mov	r3, r2
 4514 02da 5B00     		lsls	r3, r3, #1
 4515 02dc 1344     		add	r3, r3, r2
 4516 02de DB00     		lsls	r3, r3, #3
 4517 02e0 5033     		adds	r3, r3, #80
 4518 02e2 3B44     		add	r3, r3, r7
 4519 02e4 3C3B     		subs	r3, r3, #60
 4520 02e6 1B68     		ldr	r3, [r3]
 4521 02e8 013B     		subs	r3, r3, #1
 4522 02ea 21F00102 		bic	r2, r1, #1
 4523 02ee 9B00     		lsls	r3, r3, #2
ARM GAS  C:\Users\Morroway\AppData\Local\Temp\ccxQAUQ3.s 			page 125


 4524 02f0 0344     		add	r3, r3, r0
 4525 02f2 5A60     		str	r2, [r3, #4]
2579:Drivers/STM32L4xx_HAL_Driver/Src/stm32l4xx_hal_ospi.c ****         if (IOM_cfg[instance].DQSPort != 0U)
 4526              		.loc 1 2579 30
 4527 02f4 BA6C     		ldr	r2, [r7, #72]
 4528 02f6 1346     		mov	r3, r2
 4529 02f8 5B00     		lsls	r3, r3, #1
 4530 02fa 1344     		add	r3, r3, r2
 4531 02fc DB00     		lsls	r3, r3, #3
 4532 02fe 5033     		adds	r3, r3, #80
 4533 0300 3B44     		add	r3, r3, r7
 4534 0302 383B     		subs	r3, r3, #56
 4535 0304 1B68     		ldr	r3, [r3]
 4536              		.loc 1 2579 12
 4537 0306 002B     		cmp	r3, #0
 4538 0308 1DD0     		beq	.L216
2580:Drivers/STM32L4xx_HAL_Driver/Src/stm32l4xx_hal_ospi.c ****         {
2581:Drivers/STM32L4xx_HAL_Driver/Src/stm32l4xx_hal_ospi.c ****           CLEAR_BIT(OCTOSPIM->PCR[(IOM_cfg[instance].DQSPort-1U)], OCTOSPIM_PCR_DQSEN);
 4539              		.loc 1 2581 11
 4540 030a 7F49     		ldr	r1, .L238
 4541 030c BA6C     		ldr	r2, [r7, #72]
 4542 030e 1346     		mov	r3, r2
 4543 0310 5B00     		lsls	r3, r3, #1
 4544 0312 1344     		add	r3, r3, r2
 4545 0314 DB00     		lsls	r3, r3, #3
 4546 0316 5033     		adds	r3, r3, #80
 4547 0318 3B44     		add	r3, r3, r7
 4548 031a 383B     		subs	r3, r3, #56
 4549 031c 1B68     		ldr	r3, [r3]
 4550 031e 013B     		subs	r3, r3, #1
 4551 0320 9B00     		lsls	r3, r3, #2
 4552 0322 0B44     		add	r3, r3, r1
 4553 0324 5968     		ldr	r1, [r3, #4]
 4554 0326 7848     		ldr	r0, .L238
 4555 0328 BA6C     		ldr	r2, [r7, #72]
 4556 032a 1346     		mov	r3, r2
 4557 032c 5B00     		lsls	r3, r3, #1
 4558 032e 1344     		add	r3, r3, r2
 4559 0330 DB00     		lsls	r3, r3, #3
 4560 0332 5033     		adds	r3, r3, #80
 4561 0334 3B44     		add	r3, r3, r7
 4562 0336 383B     		subs	r3, r3, #56
 4563 0338 1B68     		ldr	r3, [r3]
 4564 033a 013B     		subs	r3, r3, #1
 4565 033c 21F01002 		bic	r2, r1, #16
 4566 0340 9B00     		lsls	r3, r3, #2
 4567 0342 0344     		add	r3, r3, r0
 4568 0344 5A60     		str	r2, [r3, #4]
 4569              	.L216:
2582:Drivers/STM32L4xx_HAL_Driver/Src/stm32l4xx_hal_ospi.c ****         }
2583:Drivers/STM32L4xx_HAL_Driver/Src/stm32l4xx_hal_ospi.c ****         if (IOM_cfg[instance].IOLowPort != HAL_OSPIM_IOPORT_NONE)
 4570              		.loc 1 2583 30
 4571 0346 BA6C     		ldr	r2, [r7, #72]
 4572 0348 1346     		mov	r3, r2
 4573 034a 5B00     		lsls	r3, r3, #1
 4574 034c 1344     		add	r3, r3, r2
 4575 034e DB00     		lsls	r3, r3, #3
ARM GAS  C:\Users\Morroway\AppData\Local\Temp\ccxQAUQ3.s 			page 126


 4576 0350 5033     		adds	r3, r3, #80
 4577 0352 3B44     		add	r3, r3, r7
 4578 0354 303B     		subs	r3, r3, #48
 4579 0356 1B68     		ldr	r3, [r3]
 4580              		.loc 1 2583 12
 4581 0358 002B     		cmp	r3, #0
 4582 035a 21D0     		beq	.L217
2584:Drivers/STM32L4xx_HAL_Driver/Src/stm32l4xx_hal_ospi.c ****         {
2585:Drivers/STM32L4xx_HAL_Driver/Src/stm32l4xx_hal_ospi.c ****           CLEAR_BIT(OCTOSPIM->PCR[((IOM_cfg[instance].IOLowPort-1U)& OSPI_IOM_PORT_MASK)], OCTOSPIM
 4583              		.loc 1 2585 11
 4584 035c 6A49     		ldr	r1, .L238
 4585 035e BA6C     		ldr	r2, [r7, #72]
 4586 0360 1346     		mov	r3, r2
 4587 0362 5B00     		lsls	r3, r3, #1
 4588 0364 1344     		add	r3, r3, r2
 4589 0366 DB00     		lsls	r3, r3, #3
 4590 0368 5033     		adds	r3, r3, #80
 4591 036a 3B44     		add	r3, r3, r7
 4592 036c 303B     		subs	r3, r3, #48
 4593 036e 1B68     		ldr	r3, [r3]
 4594 0370 013B     		subs	r3, r3, #1
 4595 0372 03F00103 		and	r3, r3, #1
 4596 0376 9B00     		lsls	r3, r3, #2
 4597 0378 0B44     		add	r3, r3, r1
 4598 037a 5968     		ldr	r1, [r3, #4]
 4599 037c 6248     		ldr	r0, .L238
 4600 037e BA6C     		ldr	r2, [r7, #72]
 4601 0380 1346     		mov	r3, r2
 4602 0382 5B00     		lsls	r3, r3, #1
 4603 0384 1344     		add	r3, r3, r2
 4604 0386 DB00     		lsls	r3, r3, #3
 4605 0388 5033     		adds	r3, r3, #80
 4606 038a 3B44     		add	r3, r3, r7
 4607 038c 303B     		subs	r3, r3, #48
 4608 038e 1B68     		ldr	r3, [r3]
 4609 0390 013B     		subs	r3, r3, #1
 4610 0392 03F00103 		and	r3, r3, #1
 4611 0396 21F48032 		bic	r2, r1, #65536
 4612 039a 9B00     		lsls	r3, r3, #2
 4613 039c 0344     		add	r3, r3, r0
 4614 039e 5A60     		str	r2, [r3, #4]
 4615              	.L217:
2586:Drivers/STM32L4xx_HAL_Driver/Src/stm32l4xx_hal_ospi.c ****         }
2587:Drivers/STM32L4xx_HAL_Driver/Src/stm32l4xx_hal_ospi.c ****         if (IOM_cfg[instance].IOHighPort != HAL_OSPIM_IOPORT_NONE)
 4616              		.loc 1 2587 30
 4617 03a0 BA6C     		ldr	r2, [r7, #72]
 4618 03a2 1346     		mov	r3, r2
 4619 03a4 5B00     		lsls	r3, r3, #1
 4620 03a6 1344     		add	r3, r3, r2
 4621 03a8 DB00     		lsls	r3, r3, #3
 4622 03aa 5033     		adds	r3, r3, #80
 4623 03ac 3B44     		add	r3, r3, r7
 4624 03ae 2C3B     		subs	r3, r3, #44
 4625 03b0 1B68     		ldr	r3, [r3]
 4626              		.loc 1 2587 12
 4627 03b2 002B     		cmp	r3, #0
 4628 03b4 21D0     		beq	.L213
ARM GAS  C:\Users\Morroway\AppData\Local\Temp\ccxQAUQ3.s 			page 127


2588:Drivers/STM32L4xx_HAL_Driver/Src/stm32l4xx_hal_ospi.c ****         {
2589:Drivers/STM32L4xx_HAL_Driver/Src/stm32l4xx_hal_ospi.c ****           CLEAR_BIT(OCTOSPIM->PCR[((IOM_cfg[instance].IOHighPort-1U)& OSPI_IOM_PORT_MASK)], OCTOSPI
 4629              		.loc 1 2589 11
 4630 03b6 5449     		ldr	r1, .L238
 4631 03b8 BA6C     		ldr	r2, [r7, #72]
 4632 03ba 1346     		mov	r3, r2
 4633 03bc 5B00     		lsls	r3, r3, #1
 4634 03be 1344     		add	r3, r3, r2
 4635 03c0 DB00     		lsls	r3, r3, #3
 4636 03c2 5033     		adds	r3, r3, #80
 4637 03c4 3B44     		add	r3, r3, r7
 4638 03c6 2C3B     		subs	r3, r3, #44
 4639 03c8 1B68     		ldr	r3, [r3]
 4640 03ca 013B     		subs	r3, r3, #1
 4641 03cc 03F00103 		and	r3, r3, #1
 4642 03d0 9B00     		lsls	r3, r3, #2
 4643 03d2 0B44     		add	r3, r3, r1
 4644 03d4 5968     		ldr	r1, [r3, #4]
 4645 03d6 4C48     		ldr	r0, .L238
 4646 03d8 BA6C     		ldr	r2, [r7, #72]
 4647 03da 1346     		mov	r3, r2
 4648 03dc 5B00     		lsls	r3, r3, #1
 4649 03de 1344     		add	r3, r3, r2
 4650 03e0 DB00     		lsls	r3, r3, #3
 4651 03e2 5033     		adds	r3, r3, #80
 4652 03e4 3B44     		add	r3, r3, r7
 4653 03e6 2C3B     		subs	r3, r3, #44
 4654 03e8 1B68     		ldr	r3, [r3]
 4655 03ea 013B     		subs	r3, r3, #1
 4656 03ec 03F00103 		and	r3, r3, #1
 4657 03f0 21F08072 		bic	r2, r1, #16777216
 4658 03f4 9B00     		lsls	r3, r3, #2
 4659 03f6 0344     		add	r3, r3, r0
 4660 03f8 5A60     		str	r2, [r3, #4]
 4661              	.L213:
2590:Drivers/STM32L4xx_HAL_Driver/Src/stm32l4xx_hal_ospi.c ****         }
2591:Drivers/STM32L4xx_HAL_Driver/Src/stm32l4xx_hal_ospi.c ****       }
2592:Drivers/STM32L4xx_HAL_Driver/Src/stm32l4xx_hal_ospi.c **** #if   defined (OCTOSPIM_CR_MUXEN)
2593:Drivers/STM32L4xx_HAL_Driver/Src/stm32l4xx_hal_ospi.c ****     }
2594:Drivers/STM32L4xx_HAL_Driver/Src/stm32l4xx_hal_ospi.c **** #endif
2595:Drivers/STM32L4xx_HAL_Driver/Src/stm32l4xx_hal_ospi.c **** 
2596:Drivers/STM32L4xx_HAL_Driver/Src/stm32l4xx_hal_ospi.c ****     /********************* Deactivation of other instance *********************/
2597:Drivers/STM32L4xx_HAL_Driver/Src/stm32l4xx_hal_ospi.c ****     if ((cfg->ClkPort == IOM_cfg[other_instance].ClkPort) || (cfg->DQSPort == IOM_cfg[other_instanc
 4662              		.loc 1 2597 13
 4663 03fa BB68     		ldr	r3, [r7, #8]
 4664 03fc 1968     		ldr	r1, [r3]
 4665              		.loc 1 2597 49
 4666 03fe 97F84520 		ldrb	r2, [r7, #69]	@ zero_extendqisi2
 4667 0402 1346     		mov	r3, r2
 4668 0404 5B00     		lsls	r3, r3, #1
 4669 0406 1344     		add	r3, r3, r2
 4670 0408 DB00     		lsls	r3, r3, #3
 4671 040a 5033     		adds	r3, r3, #80
 4672 040c 3B44     		add	r3, r3, r7
 4673 040e 3C3B     		subs	r3, r3, #60
 4674 0410 1B68     		ldr	r3, [r3]
 4675              		.loc 1 2597 8
ARM GAS  C:\Users\Morroway\AppData\Local\Temp\ccxQAUQ3.s 			page 128


 4676 0412 9942     		cmp	r1, r3
 4677 0414 38D0     		beq	.L218
 4678              		.loc 1 2597 66 discriminator 1
 4679 0416 BB68     		ldr	r3, [r7, #8]
 4680 0418 5968     		ldr	r1, [r3, #4]
 4681              		.loc 1 2597 102 discriminator 1
 4682 041a 97F84520 		ldrb	r2, [r7, #69]	@ zero_extendqisi2
 4683 041e 1346     		mov	r3, r2
 4684 0420 5B00     		lsls	r3, r3, #1
 4685 0422 1344     		add	r3, r3, r2
 4686 0424 DB00     		lsls	r3, r3, #3
 4687 0426 5033     		adds	r3, r3, #80
 4688 0428 3B44     		add	r3, r3, r7
 4689 042a 383B     		subs	r3, r3, #56
 4690 042c 1B68     		ldr	r3, [r3]
 4691              		.loc 1 2597 59 discriminator 1
 4692 042e 9942     		cmp	r1, r3
 4693 0430 2AD0     		beq	.L218
2598:Drivers/STM32L4xx_HAL_Driver/Src/stm32l4xx_hal_ospi.c ****         (cfg->NCSPort == IOM_cfg[other_instance].NCSPort) || (cfg->IOLowPort == IOM_cfg[other_insta
 4694              		.loc 1 2598 13 discriminator 2
 4695 0432 BB68     		ldr	r3, [r7, #8]
 4696 0434 9968     		ldr	r1, [r3, #8]
 4697              		.loc 1 2598 49 discriminator 2
 4698 0436 97F84520 		ldrb	r2, [r7, #69]	@ zero_extendqisi2
 4699 043a 1346     		mov	r3, r2
 4700 043c 5B00     		lsls	r3, r3, #1
 4701 043e 1344     		add	r3, r3, r2
 4702 0440 DB00     		lsls	r3, r3, #3
 4703 0442 5033     		adds	r3, r3, #80
 4704 0444 3B44     		add	r3, r3, r7
 4705 0446 343B     		subs	r3, r3, #52
 4706 0448 1B68     		ldr	r3, [r3]
2597:Drivers/STM32L4xx_HAL_Driver/Src/stm32l4xx_hal_ospi.c ****         (cfg->NCSPort == IOM_cfg[other_instance].NCSPort) || (cfg->IOLowPort == IOM_cfg[other_insta
 4707              		.loc 1 2597 116 discriminator 2
 4708 044a 9942     		cmp	r1, r3
 4709 044c 1CD0     		beq	.L218
 4710              		.loc 1 2598 66
 4711 044e BB68     		ldr	r3, [r7, #8]
 4712 0450 D968     		ldr	r1, [r3, #12]
 4713              		.loc 1 2598 104
 4714 0452 97F84520 		ldrb	r2, [r7, #69]	@ zero_extendqisi2
 4715 0456 1346     		mov	r3, r2
 4716 0458 5B00     		lsls	r3, r3, #1
 4717 045a 1344     		add	r3, r3, r2
 4718 045c DB00     		lsls	r3, r3, #3
 4719 045e 5033     		adds	r3, r3, #80
 4720 0460 3B44     		add	r3, r3, r7
 4721 0462 303B     		subs	r3, r3, #48
 4722 0464 1B68     		ldr	r3, [r3]
 4723              		.loc 1 2598 59
 4724 0466 9942     		cmp	r1, r3
 4725 0468 0ED0     		beq	.L218
2599:Drivers/STM32L4xx_HAL_Driver/Src/stm32l4xx_hal_ospi.c ****         (cfg->IOHighPort == IOM_cfg[other_instance].IOHighPort))
 4726              		.loc 1 2599 13 discriminator 1
 4727 046a BB68     		ldr	r3, [r7, #8]
 4728 046c 1969     		ldr	r1, [r3, #16]
 4729              		.loc 1 2599 52 discriminator 1
ARM GAS  C:\Users\Morroway\AppData\Local\Temp\ccxQAUQ3.s 			page 129


 4730 046e 97F84520 		ldrb	r2, [r7, #69]	@ zero_extendqisi2
 4731 0472 1346     		mov	r3, r2
 4732 0474 5B00     		lsls	r3, r3, #1
 4733 0476 1344     		add	r3, r3, r2
 4734 0478 DB00     		lsls	r3, r3, #3
 4735 047a 5033     		adds	r3, r3, #80
 4736 047c 3B44     		add	r3, r3, r7
 4737 047e 2C3B     		subs	r3, r3, #44
 4738 0480 1B68     		ldr	r3, [r3]
2598:Drivers/STM32L4xx_HAL_Driver/Src/stm32l4xx_hal_ospi.c ****         (cfg->NCSPort == IOM_cfg[other_instance].NCSPort) || (cfg->IOLowPort == IOM_cfg[other_insta
 4739              		.loc 1 2598 116 discriminator 1
 4740 0482 9942     		cmp	r1, r3
 4741 0484 40F00E81 		bne	.L219
 4742              	.L218:
2600:Drivers/STM32L4xx_HAL_Driver/Src/stm32l4xx_hal_ospi.c ****     {
2601:Drivers/STM32L4xx_HAL_Driver/Src/stm32l4xx_hal_ospi.c **** #if   defined (OCTOSPIM_CR_MUXEN)
2602:Drivers/STM32L4xx_HAL_Driver/Src/stm32l4xx_hal_ospi.c ****       if ((cfg->ClkPort   == IOM_cfg[other_instance].ClkPort)   &&
 4743              		.loc 1 2602 15
 4744 0488 BB68     		ldr	r3, [r7, #8]
 4745 048a 1968     		ldr	r1, [r3]
 4746              		.loc 1 2602 53
 4747 048c 97F84520 		ldrb	r2, [r7, #69]	@ zero_extendqisi2
 4748 0490 1346     		mov	r3, r2
 4749 0492 5B00     		lsls	r3, r3, #1
 4750 0494 1344     		add	r3, r3, r2
 4751 0496 DB00     		lsls	r3, r3, #3
 4752 0498 5033     		adds	r3, r3, #80
 4753 049a 3B44     		add	r3, r3, r7
 4754 049c 3C3B     		subs	r3, r3, #60
 4755 049e 1B68     		ldr	r3, [r3]
 4756              		.loc 1 2602 10
 4757 04a0 9942     		cmp	r1, r3
 4758 04a2 33D1     		bne	.L220
2603:Drivers/STM32L4xx_HAL_Driver/Src/stm32l4xx_hal_ospi.c ****           (cfg->DQSPort    == IOM_cfg[other_instance].DQSPort)  &&
 4759              		.loc 1 2603 15 discriminator 1
 4760 04a4 BB68     		ldr	r3, [r7, #8]
 4761 04a6 5968     		ldr	r1, [r3, #4]
 4762              		.loc 1 2603 54 discriminator 1
 4763 04a8 97F84520 		ldrb	r2, [r7, #69]	@ zero_extendqisi2
 4764 04ac 1346     		mov	r3, r2
 4765 04ae 5B00     		lsls	r3, r3, #1
 4766 04b0 1344     		add	r3, r3, r2
 4767 04b2 DB00     		lsls	r3, r3, #3
 4768 04b4 5033     		adds	r3, r3, #80
 4769 04b6 3B44     		add	r3, r3, r7
 4770 04b8 383B     		subs	r3, r3, #56
 4771 04ba 1B68     		ldr	r3, [r3]
2602:Drivers/STM32L4xx_HAL_Driver/Src/stm32l4xx_hal_ospi.c ****           (cfg->DQSPort    == IOM_cfg[other_instance].DQSPort)  &&
 4772              		.loc 1 2602 65 discriminator 1
 4773 04bc 9942     		cmp	r1, r3
 4774 04be 25D1     		bne	.L220
2604:Drivers/STM32L4xx_HAL_Driver/Src/stm32l4xx_hal_ospi.c ****           (cfg->IOLowPort == IOM_cfg[other_instance].IOLowPort) &&
 4775              		.loc 1 2604 15
 4776 04c0 BB68     		ldr	r3, [r7, #8]
 4777 04c2 D968     		ldr	r1, [r3, #12]
 4778              		.loc 1 2604 53
 4779 04c4 97F84520 		ldrb	r2, [r7, #69]	@ zero_extendqisi2
ARM GAS  C:\Users\Morroway\AppData\Local\Temp\ccxQAUQ3.s 			page 130


 4780 04c8 1346     		mov	r3, r2
 4781 04ca 5B00     		lsls	r3, r3, #1
 4782 04cc 1344     		add	r3, r3, r2
 4783 04ce DB00     		lsls	r3, r3, #3
 4784 04d0 5033     		adds	r3, r3, #80
 4785 04d2 3B44     		add	r3, r3, r7
 4786 04d4 303B     		subs	r3, r3, #48
 4787 04d6 1B68     		ldr	r3, [r3]
2603:Drivers/STM32L4xx_HAL_Driver/Src/stm32l4xx_hal_ospi.c ****           (cfg->DQSPort    == IOM_cfg[other_instance].DQSPort)  &&
 4788              		.loc 1 2603 65
 4789 04d8 9942     		cmp	r1, r3
 4790 04da 17D1     		bne	.L220
2605:Drivers/STM32L4xx_HAL_Driver/Src/stm32l4xx_hal_ospi.c ****           (cfg->IOHighPort == IOM_cfg[other_instance].IOHighPort))
 4791              		.loc 1 2605 15
 4792 04dc BB68     		ldr	r3, [r7, #8]
 4793 04de 1969     		ldr	r1, [r3, #16]
 4794              		.loc 1 2605 54
 4795 04e0 97F84520 		ldrb	r2, [r7, #69]	@ zero_extendqisi2
 4796 04e4 1346     		mov	r3, r2
 4797 04e6 5B00     		lsls	r3, r3, #1
 4798 04e8 1344     		add	r3, r3, r2
 4799 04ea DB00     		lsls	r3, r3, #3
 4800 04ec 5033     		adds	r3, r3, #80
 4801 04ee 3B44     		add	r3, r3, r7
 4802 04f0 2C3B     		subs	r3, r3, #44
 4803 04f2 1B68     		ldr	r3, [r3]
2604:Drivers/STM32L4xx_HAL_Driver/Src/stm32l4xx_hal_ospi.c ****           (cfg->IOLowPort == IOM_cfg[other_instance].IOLowPort) &&
 4804              		.loc 1 2604 65
 4805 04f4 9942     		cmp	r1, r3
 4806 04f6 09D1     		bne	.L220
2606:Drivers/STM32L4xx_HAL_Driver/Src/stm32l4xx_hal_ospi.c ****       {
2607:Drivers/STM32L4xx_HAL_Driver/Src/stm32l4xx_hal_ospi.c ****         /* Multiplexing should be performed */
2608:Drivers/STM32L4xx_HAL_Driver/Src/stm32l4xx_hal_ospi.c ****         SET_BIT(OCTOSPIM->CR, OCTOSPIM_CR_MUXEN);
 4807              		.loc 1 2608 9
 4808 04f8 034B     		ldr	r3, .L238
 4809 04fa 1B68     		ldr	r3, [r3]
 4810 04fc 024A     		ldr	r2, .L238
 4811 04fe 43F00103 		orr	r3, r3, #1
 4812 0502 1360     		str	r3, [r2]
 4813 0504 CEE0     		b	.L219
 4814              	.L239:
 4815 0506 00BF     		.align	2
 4816              	.L238:
 4817 0508 001C0650 		.word	1342577664
 4818              	.L220:
2609:Drivers/STM32L4xx_HAL_Driver/Src/stm32l4xx_hal_ospi.c ****       }
2610:Drivers/STM32L4xx_HAL_Driver/Src/stm32l4xx_hal_ospi.c ****       else
2611:Drivers/STM32L4xx_HAL_Driver/Src/stm32l4xx_hal_ospi.c ****       {
2612:Drivers/STM32L4xx_HAL_Driver/Src/stm32l4xx_hal_ospi.c **** #endif
2613:Drivers/STM32L4xx_HAL_Driver/Src/stm32l4xx_hal_ospi.c ****         CLEAR_BIT(OCTOSPIM->PCR[(IOM_cfg[other_instance].ClkPort-1U)], OCTOSPIM_PCR_CLKEN);
 4819              		.loc 1 2613 9
 4820 050c BB49     		ldr	r1, .L240
 4821 050e 97F84520 		ldrb	r2, [r7, #69]	@ zero_extendqisi2
 4822 0512 1346     		mov	r3, r2
 4823 0514 5B00     		lsls	r3, r3, #1
 4824 0516 1344     		add	r3, r3, r2
 4825 0518 DB00     		lsls	r3, r3, #3
ARM GAS  C:\Users\Morroway\AppData\Local\Temp\ccxQAUQ3.s 			page 131


 4826 051a 5033     		adds	r3, r3, #80
 4827 051c 3B44     		add	r3, r3, r7
 4828 051e 3C3B     		subs	r3, r3, #60
 4829 0520 1B68     		ldr	r3, [r3]
 4830 0522 013B     		subs	r3, r3, #1
 4831 0524 9B00     		lsls	r3, r3, #2
 4832 0526 0B44     		add	r3, r3, r1
 4833 0528 5968     		ldr	r1, [r3, #4]
 4834 052a B448     		ldr	r0, .L240
 4835 052c 97F84520 		ldrb	r2, [r7, #69]	@ zero_extendqisi2
 4836 0530 1346     		mov	r3, r2
 4837 0532 5B00     		lsls	r3, r3, #1
 4838 0534 1344     		add	r3, r3, r2
 4839 0536 DB00     		lsls	r3, r3, #3
 4840 0538 5033     		adds	r3, r3, #80
 4841 053a 3B44     		add	r3, r3, r7
 4842 053c 3C3B     		subs	r3, r3, #60
 4843 053e 1B68     		ldr	r3, [r3]
 4844 0540 013B     		subs	r3, r3, #1
 4845 0542 21F00102 		bic	r2, r1, #1
 4846 0546 9B00     		lsls	r3, r3, #2
 4847 0548 0344     		add	r3, r3, r0
 4848 054a 5A60     		str	r2, [r3, #4]
2614:Drivers/STM32L4xx_HAL_Driver/Src/stm32l4xx_hal_ospi.c ****         if (IOM_cfg[other_instance].DQSPort != 0U)
 4849              		.loc 1 2614 36
 4850 054c 97F84520 		ldrb	r2, [r7, #69]	@ zero_extendqisi2
 4851 0550 1346     		mov	r3, r2
 4852 0552 5B00     		lsls	r3, r3, #1
 4853 0554 1344     		add	r3, r3, r2
 4854 0556 DB00     		lsls	r3, r3, #3
 4855 0558 5033     		adds	r3, r3, #80
 4856 055a 3B44     		add	r3, r3, r7
 4857 055c 383B     		subs	r3, r3, #56
 4858 055e 1B68     		ldr	r3, [r3]
 4859              		.loc 1 2614 12
 4860 0560 002B     		cmp	r3, #0
 4861 0562 1FD0     		beq	.L221
2615:Drivers/STM32L4xx_HAL_Driver/Src/stm32l4xx_hal_ospi.c ****         {
2616:Drivers/STM32L4xx_HAL_Driver/Src/stm32l4xx_hal_ospi.c ****           CLEAR_BIT(OCTOSPIM->PCR[(IOM_cfg[other_instance].DQSPort-1U)], OCTOSPIM_PCR_DQSEN);
 4862              		.loc 1 2616 11
 4863 0564 A549     		ldr	r1, .L240
 4864 0566 97F84520 		ldrb	r2, [r7, #69]	@ zero_extendqisi2
 4865 056a 1346     		mov	r3, r2
 4866 056c 5B00     		lsls	r3, r3, #1
 4867 056e 1344     		add	r3, r3, r2
 4868 0570 DB00     		lsls	r3, r3, #3
 4869 0572 5033     		adds	r3, r3, #80
 4870 0574 3B44     		add	r3, r3, r7
 4871 0576 383B     		subs	r3, r3, #56
 4872 0578 1B68     		ldr	r3, [r3]
 4873 057a 013B     		subs	r3, r3, #1
 4874 057c 9B00     		lsls	r3, r3, #2
 4875 057e 0B44     		add	r3, r3, r1
 4876 0580 5968     		ldr	r1, [r3, #4]
 4877 0582 9E48     		ldr	r0, .L240
 4878 0584 97F84520 		ldrb	r2, [r7, #69]	@ zero_extendqisi2
 4879 0588 1346     		mov	r3, r2
ARM GAS  C:\Users\Morroway\AppData\Local\Temp\ccxQAUQ3.s 			page 132


 4880 058a 5B00     		lsls	r3, r3, #1
 4881 058c 1344     		add	r3, r3, r2
 4882 058e DB00     		lsls	r3, r3, #3
 4883 0590 5033     		adds	r3, r3, #80
 4884 0592 3B44     		add	r3, r3, r7
 4885 0594 383B     		subs	r3, r3, #56
 4886 0596 1B68     		ldr	r3, [r3]
 4887 0598 013B     		subs	r3, r3, #1
 4888 059a 21F01002 		bic	r2, r1, #16
 4889 059e 9B00     		lsls	r3, r3, #2
 4890 05a0 0344     		add	r3, r3, r0
 4891 05a2 5A60     		str	r2, [r3, #4]
 4892              	.L221:
2617:Drivers/STM32L4xx_HAL_Driver/Src/stm32l4xx_hal_ospi.c ****         }
2618:Drivers/STM32L4xx_HAL_Driver/Src/stm32l4xx_hal_ospi.c ****         CLEAR_BIT(OCTOSPIM->PCR[(IOM_cfg[other_instance].NCSPort-1U)], OCTOSPIM_PCR_NCSEN);
 4893              		.loc 1 2618 9
 4894 05a4 9549     		ldr	r1, .L240
 4895 05a6 97F84520 		ldrb	r2, [r7, #69]	@ zero_extendqisi2
 4896 05aa 1346     		mov	r3, r2
 4897 05ac 5B00     		lsls	r3, r3, #1
 4898 05ae 1344     		add	r3, r3, r2
 4899 05b0 DB00     		lsls	r3, r3, #3
 4900 05b2 5033     		adds	r3, r3, #80
 4901 05b4 3B44     		add	r3, r3, r7
 4902 05b6 343B     		subs	r3, r3, #52
 4903 05b8 1B68     		ldr	r3, [r3]
 4904 05ba 013B     		subs	r3, r3, #1
 4905 05bc 9B00     		lsls	r3, r3, #2
 4906 05be 0B44     		add	r3, r3, r1
 4907 05c0 5968     		ldr	r1, [r3, #4]
 4908 05c2 8E48     		ldr	r0, .L240
 4909 05c4 97F84520 		ldrb	r2, [r7, #69]	@ zero_extendqisi2
 4910 05c8 1346     		mov	r3, r2
 4911 05ca 5B00     		lsls	r3, r3, #1
 4912 05cc 1344     		add	r3, r3, r2
 4913 05ce DB00     		lsls	r3, r3, #3
 4914 05d0 5033     		adds	r3, r3, #80
 4915 05d2 3B44     		add	r3, r3, r7
 4916 05d4 343B     		subs	r3, r3, #52
 4917 05d6 1B68     		ldr	r3, [r3]
 4918 05d8 013B     		subs	r3, r3, #1
 4919 05da 21F48072 		bic	r2, r1, #256
 4920 05de 9B00     		lsls	r3, r3, #2
 4921 05e0 0344     		add	r3, r3, r0
 4922 05e2 5A60     		str	r2, [r3, #4]
2619:Drivers/STM32L4xx_HAL_Driver/Src/stm32l4xx_hal_ospi.c ****         if (IOM_cfg[other_instance].IOLowPort != HAL_OSPIM_IOPORT_NONE)
 4923              		.loc 1 2619 36
 4924 05e4 97F84520 		ldrb	r2, [r7, #69]	@ zero_extendqisi2
 4925 05e8 1346     		mov	r3, r2
 4926 05ea 5B00     		lsls	r3, r3, #1
 4927 05ec 1344     		add	r3, r3, r2
 4928 05ee DB00     		lsls	r3, r3, #3
 4929 05f0 5033     		adds	r3, r3, #80
 4930 05f2 3B44     		add	r3, r3, r7
 4931 05f4 303B     		subs	r3, r3, #48
 4932 05f6 1B68     		ldr	r3, [r3]
 4933              		.loc 1 2619 12
ARM GAS  C:\Users\Morroway\AppData\Local\Temp\ccxQAUQ3.s 			page 133


 4934 05f8 002B     		cmp	r3, #0
 4935 05fa 23D0     		beq	.L222
2620:Drivers/STM32L4xx_HAL_Driver/Src/stm32l4xx_hal_ospi.c ****         {
2621:Drivers/STM32L4xx_HAL_Driver/Src/stm32l4xx_hal_ospi.c ****           CLEAR_BIT(OCTOSPIM->PCR[((IOM_cfg[other_instance].IOLowPort-1U)& OSPI_IOM_PORT_MASK)],
 4936              		.loc 1 2621 11
 4937 05fc 7F49     		ldr	r1, .L240
 4938 05fe 97F84520 		ldrb	r2, [r7, #69]	@ zero_extendqisi2
 4939 0602 1346     		mov	r3, r2
 4940 0604 5B00     		lsls	r3, r3, #1
 4941 0606 1344     		add	r3, r3, r2
 4942 0608 DB00     		lsls	r3, r3, #3
 4943 060a 5033     		adds	r3, r3, #80
 4944 060c 3B44     		add	r3, r3, r7
 4945 060e 303B     		subs	r3, r3, #48
 4946 0610 1B68     		ldr	r3, [r3]
 4947 0612 013B     		subs	r3, r3, #1
 4948 0614 03F00103 		and	r3, r3, #1
 4949 0618 9B00     		lsls	r3, r3, #2
 4950 061a 0B44     		add	r3, r3, r1
 4951 061c 5968     		ldr	r1, [r3, #4]
 4952 061e 7748     		ldr	r0, .L240
 4953 0620 97F84520 		ldrb	r2, [r7, #69]	@ zero_extendqisi2
 4954 0624 1346     		mov	r3, r2
 4955 0626 5B00     		lsls	r3, r3, #1
 4956 0628 1344     		add	r3, r3, r2
 4957 062a DB00     		lsls	r3, r3, #3
 4958 062c 5033     		adds	r3, r3, #80
 4959 062e 3B44     		add	r3, r3, r7
 4960 0630 303B     		subs	r3, r3, #48
 4961 0632 1B68     		ldr	r3, [r3]
 4962 0634 013B     		subs	r3, r3, #1
 4963 0636 03F00103 		and	r3, r3, #1
 4964 063a 21F48032 		bic	r2, r1, #65536
 4965 063e 9B00     		lsls	r3, r3, #2
 4966 0640 0344     		add	r3, r3, r0
 4967 0642 5A60     		str	r2, [r3, #4]
 4968              	.L222:
2622:Drivers/STM32L4xx_HAL_Driver/Src/stm32l4xx_hal_ospi.c ****                     OCTOSPIM_PCR_IOLEN);
2623:Drivers/STM32L4xx_HAL_Driver/Src/stm32l4xx_hal_ospi.c ****         }
2624:Drivers/STM32L4xx_HAL_Driver/Src/stm32l4xx_hal_ospi.c ****         if (IOM_cfg[other_instance].IOHighPort != HAL_OSPIM_IOPORT_NONE)
 4969              		.loc 1 2624 36
 4970 0644 97F84520 		ldrb	r2, [r7, #69]	@ zero_extendqisi2
 4971 0648 1346     		mov	r3, r2
 4972 064a 5B00     		lsls	r3, r3, #1
 4973 064c 1344     		add	r3, r3, r2
 4974 064e DB00     		lsls	r3, r3, #3
 4975 0650 5033     		adds	r3, r3, #80
 4976 0652 3B44     		add	r3, r3, r7
 4977 0654 2C3B     		subs	r3, r3, #44
 4978 0656 1B68     		ldr	r3, [r3]
 4979              		.loc 1 2624 12
 4980 0658 002B     		cmp	r3, #0
 4981 065a 23D0     		beq	.L219
2625:Drivers/STM32L4xx_HAL_Driver/Src/stm32l4xx_hal_ospi.c ****         {
2626:Drivers/STM32L4xx_HAL_Driver/Src/stm32l4xx_hal_ospi.c ****           CLEAR_BIT(OCTOSPIM->PCR[((IOM_cfg[other_instance].IOHighPort-1U)& OSPI_IOM_PORT_MASK)],
 4982              		.loc 1 2626 11
 4983 065c 6749     		ldr	r1, .L240
ARM GAS  C:\Users\Morroway\AppData\Local\Temp\ccxQAUQ3.s 			page 134


 4984 065e 97F84520 		ldrb	r2, [r7, #69]	@ zero_extendqisi2
 4985 0662 1346     		mov	r3, r2
 4986 0664 5B00     		lsls	r3, r3, #1
 4987 0666 1344     		add	r3, r3, r2
 4988 0668 DB00     		lsls	r3, r3, #3
 4989 066a 5033     		adds	r3, r3, #80
 4990 066c 3B44     		add	r3, r3, r7
 4991 066e 2C3B     		subs	r3, r3, #44
 4992 0670 1B68     		ldr	r3, [r3]
 4993 0672 013B     		subs	r3, r3, #1
 4994 0674 03F00103 		and	r3, r3, #1
 4995 0678 9B00     		lsls	r3, r3, #2
 4996 067a 0B44     		add	r3, r3, r1
 4997 067c 5968     		ldr	r1, [r3, #4]
 4998 067e 5F48     		ldr	r0, .L240
 4999 0680 97F84520 		ldrb	r2, [r7, #69]	@ zero_extendqisi2
 5000 0684 1346     		mov	r3, r2
 5001 0686 5B00     		lsls	r3, r3, #1
 5002 0688 1344     		add	r3, r3, r2
 5003 068a DB00     		lsls	r3, r3, #3
 5004 068c 5033     		adds	r3, r3, #80
 5005 068e 3B44     		add	r3, r3, r7
 5006 0690 2C3B     		subs	r3, r3, #44
 5007 0692 1B68     		ldr	r3, [r3]
 5008 0694 013B     		subs	r3, r3, #1
 5009 0696 03F00103 		and	r3, r3, #1
 5010 069a 21F08072 		bic	r2, r1, #16777216
 5011 069e 9B00     		lsls	r3, r3, #2
 5012 06a0 0344     		add	r3, r3, r0
 5013 06a2 5A60     		str	r2, [r3, #4]
 5014              	.L219:
2627:Drivers/STM32L4xx_HAL_Driver/Src/stm32l4xx_hal_ospi.c ****                     OCTOSPIM_PCR_IOHEN);
2628:Drivers/STM32L4xx_HAL_Driver/Src/stm32l4xx_hal_ospi.c ****         }
2629:Drivers/STM32L4xx_HAL_Driver/Src/stm32l4xx_hal_ospi.c **** #if   defined (OCTOSPIM_CR_MUXEN)
2630:Drivers/STM32L4xx_HAL_Driver/Src/stm32l4xx_hal_ospi.c ****       }
2631:Drivers/STM32L4xx_HAL_Driver/Src/stm32l4xx_hal_ospi.c **** #endif
2632:Drivers/STM32L4xx_HAL_Driver/Src/stm32l4xx_hal_ospi.c ****     }
2633:Drivers/STM32L4xx_HAL_Driver/Src/stm32l4xx_hal_ospi.c **** 
2634:Drivers/STM32L4xx_HAL_Driver/Src/stm32l4xx_hal_ospi.c ****     /******************** Activation of new configuration *********************/
2635:Drivers/STM32L4xx_HAL_Driver/Src/stm32l4xx_hal_ospi.c ****         MODIFY_REG(OCTOSPIM->PCR[(cfg->NCSPort - 1U)], (OCTOSPIM_PCR_NCSEN | OCTOSPIM_PCR_NCSSRC),
 5015              		.loc 1 2635 9
 5016 06a4 554A     		ldr	r2, .L240
 5017 06a6 BB68     		ldr	r3, [r7, #8]
 5018 06a8 9B68     		ldr	r3, [r3, #8]
 5019 06aa 013B     		subs	r3, r3, #1
 5020 06ac 9B00     		lsls	r3, r3, #2
 5021 06ae 1344     		add	r3, r3, r2
 5022 06b0 5B68     		ldr	r3, [r3, #4]
 5023 06b2 23F44072 		bic	r2, r3, #768
 5024 06b6 BB6C     		ldr	r3, [r7, #72]
 5025 06b8 5B02     		lsls	r3, r3, #9
 5026 06ba 1A43     		orrs	r2, r2, r3
 5027 06bc 4F49     		ldr	r1, .L240
 5028 06be BB68     		ldr	r3, [r7, #8]
 5029 06c0 9B68     		ldr	r3, [r3, #8]
 5030 06c2 013B     		subs	r3, r3, #1
 5031 06c4 42F48072 		orr	r2, r2, #256
ARM GAS  C:\Users\Morroway\AppData\Local\Temp\ccxQAUQ3.s 			page 135


 5032 06c8 9B00     		lsls	r3, r3, #2
 5033 06ca 0B44     		add	r3, r3, r1
 5034 06cc 5A60     		str	r2, [r3, #4]
2636:Drivers/STM32L4xx_HAL_Driver/Src/stm32l4xx_hal_ospi.c ****                   (OCTOSPIM_PCR_NCSEN | (instance << OCTOSPIM_PCR_NCSSRC_Pos)));
2637:Drivers/STM32L4xx_HAL_Driver/Src/stm32l4xx_hal_ospi.c **** 
2638:Drivers/STM32L4xx_HAL_Driver/Src/stm32l4xx_hal_ospi.c **** #if   defined (OCTOSPIM_CR_MUXEN)
2639:Drivers/STM32L4xx_HAL_Driver/Src/stm32l4xx_hal_ospi.c ****     if ((cfg->Req2AckTime - 1U) > ((OCTOSPIM->CR & OCTOSPIM_CR_REQ2ACK_TIME) >> OCTOSPIM_CR_REQ2ACK
 5035              		.loc 1 2639 13
 5036 06ce BB68     		ldr	r3, [r7, #8]
 5037 06d0 5B69     		ldr	r3, [r3, #20]
 5038              		.loc 1 2639 27
 5039 06d2 5A1E     		subs	r2, r3, #1
 5040              		.loc 1 2639 45
 5041 06d4 494B     		ldr	r3, .L240
 5042 06d6 1B68     		ldr	r3, [r3]
 5043              		.loc 1 2639 78
 5044 06d8 1B0C     		lsrs	r3, r3, #16
 5045 06da DBB2     		uxtb	r3, r3
 5046              		.loc 1 2639 8
 5047 06dc 9A42     		cmp	r2, r3
 5048 06de 0AD9     		bls	.L223
2640:Drivers/STM32L4xx_HAL_Driver/Src/stm32l4xx_hal_ospi.c ****     {
2641:Drivers/STM32L4xx_HAL_Driver/Src/stm32l4xx_hal_ospi.c ****       MODIFY_REG(OCTOSPIM->CR, OCTOSPIM_CR_REQ2ACK_TIME, ((cfg->Req2AckTime - 1U) << OCTOSPIM_CR_RE
 5049              		.loc 1 2641 7
 5050 06e0 464B     		ldr	r3, .L240
 5051 06e2 1B68     		ldr	r3, [r3]
 5052 06e4 23F47F02 		bic	r2, r3, #16711680
 5053 06e8 BB68     		ldr	r3, [r7, #8]
 5054 06ea 5B69     		ldr	r3, [r3, #20]
 5055 06ec 013B     		subs	r3, r3, #1
 5056 06ee 1B04     		lsls	r3, r3, #16
 5057 06f0 4249     		ldr	r1, .L240
 5058 06f2 1343     		orrs	r3, r3, r2
 5059 06f4 0B60     		str	r3, [r1]
 5060              	.L223:
2642:Drivers/STM32L4xx_HAL_Driver/Src/stm32l4xx_hal_ospi.c ****     }
2643:Drivers/STM32L4xx_HAL_Driver/Src/stm32l4xx_hal_ospi.c **** 
2644:Drivers/STM32L4xx_HAL_Driver/Src/stm32l4xx_hal_ospi.c ****     if ((OCTOSPIM->CR & OCTOSPIM_CR_MUXEN) != 0U)
 5061              		.loc 1 2644 18
 5062 06f6 414B     		ldr	r3, .L240
 5063 06f8 1B68     		ldr	r3, [r3]
 5064              		.loc 1 2644 23
 5065 06fa 03F00103 		and	r3, r3, #1
 5066              		.loc 1 2644 8
 5067 06fe 002B     		cmp	r3, #0
 5068 0700 00F09A80 		beq	.L224
2645:Drivers/STM32L4xx_HAL_Driver/Src/stm32l4xx_hal_ospi.c ****     {
2646:Drivers/STM32L4xx_HAL_Driver/Src/stm32l4xx_hal_ospi.c ****       MODIFY_REG(OCTOSPIM->PCR[(cfg->ClkPort-1U)], (OCTOSPIM_PCR_CLKEN | OCTOSPIM_PCR_CLKSRC), OCTO
 5069              		.loc 1 2646 7
 5070 0704 3D4A     		ldr	r2, .L240
 5071 0706 BB68     		ldr	r3, [r7, #8]
 5072 0708 1B68     		ldr	r3, [r3]
 5073 070a 013B     		subs	r3, r3, #1
 5074 070c 9B00     		lsls	r3, r3, #2
 5075 070e 1344     		add	r3, r3, r2
 5076 0710 5B68     		ldr	r3, [r3, #4]
 5077 0712 23F00302 		bic	r2, r3, #3
ARM GAS  C:\Users\Morroway\AppData\Local\Temp\ccxQAUQ3.s 			page 136


 5078 0716 3949     		ldr	r1, .L240
 5079 0718 BB68     		ldr	r3, [r7, #8]
 5080 071a 1B68     		ldr	r3, [r3]
 5081 071c 013B     		subs	r3, r3, #1
 5082 071e 42F00102 		orr	r2, r2, #1
 5083 0722 9B00     		lsls	r3, r3, #2
 5084 0724 0B44     		add	r3, r3, r1
 5085 0726 5A60     		str	r2, [r3, #4]
2647:Drivers/STM32L4xx_HAL_Driver/Src/stm32l4xx_hal_ospi.c ****       if (cfg->DQSPort != 0U)
 5086              		.loc 1 2647 14
 5087 0728 BB68     		ldr	r3, [r7, #8]
 5088 072a 5B68     		ldr	r3, [r3, #4]
 5089              		.loc 1 2647 10
 5090 072c 002B     		cmp	r3, #0
 5091 072e 11D0     		beq	.L225
2648:Drivers/STM32L4xx_HAL_Driver/Src/stm32l4xx_hal_ospi.c ****       {
2649:Drivers/STM32L4xx_HAL_Driver/Src/stm32l4xx_hal_ospi.c ****         MODIFY_REG(OCTOSPIM->PCR[(cfg->DQSPort-1U)], (OCTOSPIM_PCR_DQSEN | OCTOSPIM_PCR_DQSSRC), OC
 5092              		.loc 1 2649 9
 5093 0730 324A     		ldr	r2, .L240
 5094 0732 BB68     		ldr	r3, [r7, #8]
 5095 0734 5B68     		ldr	r3, [r3, #4]
 5096 0736 013B     		subs	r3, r3, #1
 5097 0738 9B00     		lsls	r3, r3, #2
 5098 073a 1344     		add	r3, r3, r2
 5099 073c 5B68     		ldr	r3, [r3, #4]
 5100 073e 23F03002 		bic	r2, r3, #48
 5101 0742 2E49     		ldr	r1, .L240
 5102 0744 BB68     		ldr	r3, [r7, #8]
 5103 0746 5B68     		ldr	r3, [r3, #4]
 5104 0748 013B     		subs	r3, r3, #1
 5105 074a 42F01002 		orr	r2, r2, #16
 5106 074e 9B00     		lsls	r3, r3, #2
 5107 0750 0B44     		add	r3, r3, r1
 5108 0752 5A60     		str	r2, [r3, #4]
 5109              	.L225:
2650:Drivers/STM32L4xx_HAL_Driver/Src/stm32l4xx_hal_ospi.c ****       }
2651:Drivers/STM32L4xx_HAL_Driver/Src/stm32l4xx_hal_ospi.c **** 
2652:Drivers/STM32L4xx_HAL_Driver/Src/stm32l4xx_hal_ospi.c ****       if ((cfg->IOLowPort & OCTOSPIM_PCR_IOLEN) != 0U)
 5110              		.loc 1 2652 15
 5111 0754 BB68     		ldr	r3, [r7, #8]
 5112 0756 DB68     		ldr	r3, [r3, #12]
 5113              		.loc 1 2652 27
 5114 0758 03F48033 		and	r3, r3, #65536
 5115              		.loc 1 2652 10
 5116 075c 002B     		cmp	r3, #0
 5117 075e 16D0     		beq	.L226
2653:Drivers/STM32L4xx_HAL_Driver/Src/stm32l4xx_hal_ospi.c ****       {
2654:Drivers/STM32L4xx_HAL_Driver/Src/stm32l4xx_hal_ospi.c ****         MODIFY_REG(OCTOSPIM->PCR[((cfg->IOLowPort-1U)& OSPI_IOM_PORT_MASK)],
 5118              		.loc 1 2654 9
 5119 0760 264A     		ldr	r2, .L240
 5120 0762 BB68     		ldr	r3, [r7, #8]
 5121 0764 DB68     		ldr	r3, [r3, #12]
 5122 0766 013B     		subs	r3, r3, #1
 5123 0768 03F00103 		and	r3, r3, #1
 5124 076c 9B00     		lsls	r3, r3, #2
 5125 076e 1344     		add	r3, r3, r2
 5126 0770 5B68     		ldr	r3, [r3, #4]
ARM GAS  C:\Users\Morroway\AppData\Local\Temp\ccxQAUQ3.s 			page 137


 5127 0772 23F4E022 		bic	r2, r3, #458752
 5128 0776 2149     		ldr	r1, .L240
 5129 0778 BB68     		ldr	r3, [r7, #8]
 5130 077a DB68     		ldr	r3, [r3, #12]
 5131 077c 013B     		subs	r3, r3, #1
 5132 077e 03F00103 		and	r3, r3, #1
 5133 0782 42F48032 		orr	r2, r2, #65536
 5134 0786 9B00     		lsls	r3, r3, #2
 5135 0788 0B44     		add	r3, r3, r1
 5136 078a 5A60     		str	r2, [r3, #4]
 5137 078c 19E0     		b	.L227
 5138              	.L226:
2655:Drivers/STM32L4xx_HAL_Driver/Src/stm32l4xx_hal_ospi.c ****                   (OCTOSPIM_PCR_IOLEN | OCTOSPIM_PCR_IOLSRC), OCTOSPIM_PCR_IOLEN);
2656:Drivers/STM32L4xx_HAL_Driver/Src/stm32l4xx_hal_ospi.c ****       }
2657:Drivers/STM32L4xx_HAL_Driver/Src/stm32l4xx_hal_ospi.c ****       else if (cfg->IOLowPort != HAL_OSPIM_IOPORT_NONE)
 5139              		.loc 1 2657 19
 5140 078e BB68     		ldr	r3, [r7, #8]
 5141 0790 DB68     		ldr	r3, [r3, #12]
 5142              		.loc 1 2657 15
 5143 0792 002B     		cmp	r3, #0
 5144 0794 15D0     		beq	.L227
2658:Drivers/STM32L4xx_HAL_Driver/Src/stm32l4xx_hal_ospi.c ****       {
2659:Drivers/STM32L4xx_HAL_Driver/Src/stm32l4xx_hal_ospi.c ****         MODIFY_REG(OCTOSPIM->PCR[((cfg->IOLowPort-1U)& OSPI_IOM_PORT_MASK)],
 5145              		.loc 1 2659 9
 5146 0796 194A     		ldr	r2, .L240
 5147 0798 BB68     		ldr	r3, [r7, #8]
 5148 079a DB68     		ldr	r3, [r3, #12]
 5149 079c 013B     		subs	r3, r3, #1
 5150 079e 03F00103 		and	r3, r3, #1
 5151 07a2 9B00     		lsls	r3, r3, #2
 5152 07a4 1344     		add	r3, r3, r2
 5153 07a6 5B68     		ldr	r3, [r3, #4]
 5154 07a8 23F0E062 		bic	r2, r3, #117440512
 5155 07ac 1349     		ldr	r1, .L240
 5156 07ae BB68     		ldr	r3, [r7, #8]
 5157 07b0 DB68     		ldr	r3, [r3, #12]
 5158 07b2 013B     		subs	r3, r3, #1
 5159 07b4 03F00103 		and	r3, r3, #1
 5160 07b8 42F08072 		orr	r2, r2, #16777216
 5161 07bc 9B00     		lsls	r3, r3, #2
 5162 07be 0B44     		add	r3, r3, r1
 5163 07c0 5A60     		str	r2, [r3, #4]
 5164              	.L227:
2660:Drivers/STM32L4xx_HAL_Driver/Src/stm32l4xx_hal_ospi.c ****                   (OCTOSPIM_PCR_IOHEN | OCTOSPIM_PCR_IOHSRC), OCTOSPIM_PCR_IOHEN);
2661:Drivers/STM32L4xx_HAL_Driver/Src/stm32l4xx_hal_ospi.c ****       }
2662:Drivers/STM32L4xx_HAL_Driver/Src/stm32l4xx_hal_ospi.c ****       else
2663:Drivers/STM32L4xx_HAL_Driver/Src/stm32l4xx_hal_ospi.c ****       {
2664:Drivers/STM32L4xx_HAL_Driver/Src/stm32l4xx_hal_ospi.c ****          /* Nothing to do */
2665:Drivers/STM32L4xx_HAL_Driver/Src/stm32l4xx_hal_ospi.c ****       }
2666:Drivers/STM32L4xx_HAL_Driver/Src/stm32l4xx_hal_ospi.c **** 
2667:Drivers/STM32L4xx_HAL_Driver/Src/stm32l4xx_hal_ospi.c ****       if ((cfg->IOHighPort & OCTOSPIM_PCR_IOLEN) != 0U)
 5165              		.loc 1 2667 15
 5166 07c2 BB68     		ldr	r3, [r7, #8]
 5167 07c4 1B69     		ldr	r3, [r3, #16]
 5168              		.loc 1 2667 28
 5169 07c6 03F48033 		and	r3, r3, #65536
 5170              		.loc 1 2667 10
ARM GAS  C:\Users\Morroway\AppData\Local\Temp\ccxQAUQ3.s 			page 138


 5171 07ca 002B     		cmp	r3, #0
 5172 07cc 18D0     		beq	.L228
2668:Drivers/STM32L4xx_HAL_Driver/Src/stm32l4xx_hal_ospi.c ****       {
2669:Drivers/STM32L4xx_HAL_Driver/Src/stm32l4xx_hal_ospi.c ****         MODIFY_REG(OCTOSPIM->PCR[((cfg->IOHighPort-1U)& OSPI_IOM_PORT_MASK)],
 5173              		.loc 1 2669 9
 5174 07ce 0B4A     		ldr	r2, .L240
 5175 07d0 BB68     		ldr	r3, [r7, #8]
 5176 07d2 1B69     		ldr	r3, [r3, #16]
 5177 07d4 013B     		subs	r3, r3, #1
 5178 07d6 03F00103 		and	r3, r3, #1
 5179 07da 9B00     		lsls	r3, r3, #2
 5180 07dc 1344     		add	r3, r3, r2
 5181 07de 5B68     		ldr	r3, [r3, #4]
 5182 07e0 23F4E022 		bic	r2, r3, #458752
 5183 07e4 0549     		ldr	r1, .L240
 5184 07e6 BB68     		ldr	r3, [r7, #8]
 5185 07e8 1B69     		ldr	r3, [r3, #16]
 5186 07ea 013B     		subs	r3, r3, #1
 5187 07ec 03F00103 		and	r3, r3, #1
 5188 07f0 42F44032 		orr	r2, r2, #196608
 5189 07f4 9B00     		lsls	r3, r3, #2
 5190 07f6 0B44     		add	r3, r3, r1
 5191 07f8 5A60     		str	r2, [r3, #4]
 5192 07fa C5E0     		b	.L229
 5193              	.L241:
 5194              		.align	2
 5195              	.L240:
 5196 07fc 001C0650 		.word	1342577664
 5197              	.L228:
2670:Drivers/STM32L4xx_HAL_Driver/Src/stm32l4xx_hal_ospi.c ****                   (OCTOSPIM_PCR_IOLEN | OCTOSPIM_PCR_IOLSRC), (OCTOSPIM_PCR_IOLEN | OCTOSPIM_PCR_IO
2671:Drivers/STM32L4xx_HAL_Driver/Src/stm32l4xx_hal_ospi.c ****       }
2672:Drivers/STM32L4xx_HAL_Driver/Src/stm32l4xx_hal_ospi.c ****       else if (cfg->IOHighPort != HAL_OSPIM_IOPORT_NONE)
 5198              		.loc 1 2672 19
 5199 0800 BB68     		ldr	r3, [r7, #8]
 5200 0802 1B69     		ldr	r3, [r3, #16]
 5201              		.loc 1 2672 15
 5202 0804 002B     		cmp	r3, #0
 5203 0806 00F0BF80 		beq	.L229
2673:Drivers/STM32L4xx_HAL_Driver/Src/stm32l4xx_hal_ospi.c ****       {
2674:Drivers/STM32L4xx_HAL_Driver/Src/stm32l4xx_hal_ospi.c ****         MODIFY_REG(OCTOSPIM->PCR[((cfg->IOHighPort-1U)& OSPI_IOM_PORT_MASK)],
 5204              		.loc 1 2674 9
 5205 080a 6E4A     		ldr	r2, .L242
 5206 080c BB68     		ldr	r3, [r7, #8]
 5207 080e 1B69     		ldr	r3, [r3, #16]
 5208 0810 013B     		subs	r3, r3, #1
 5209 0812 03F00103 		and	r3, r3, #1
 5210 0816 9B00     		lsls	r3, r3, #2
 5211 0818 1344     		add	r3, r3, r2
 5212 081a 5B68     		ldr	r3, [r3, #4]
 5213 081c 23F0E062 		bic	r2, r3, #117440512
 5214 0820 6849     		ldr	r1, .L242
 5215 0822 BB68     		ldr	r3, [r7, #8]
 5216 0824 1B69     		ldr	r3, [r3, #16]
 5217 0826 013B     		subs	r3, r3, #1
 5218 0828 03F00103 		and	r3, r3, #1
 5219 082c 42F04072 		orr	r2, r2, #50331648
 5220 0830 9B00     		lsls	r3, r3, #2
ARM GAS  C:\Users\Morroway\AppData\Local\Temp\ccxQAUQ3.s 			page 139


 5221 0832 0B44     		add	r3, r3, r1
 5222 0834 5A60     		str	r2, [r3, #4]
 5223 0836 A7E0     		b	.L229
 5224              	.L224:
2675:Drivers/STM32L4xx_HAL_Driver/Src/stm32l4xx_hal_ospi.c ****                   (OCTOSPIM_PCR_IOHEN | OCTOSPIM_PCR_IOHSRC), (OCTOSPIM_PCR_IOHEN | OCTOSPIM_PCR_IO
2676:Drivers/STM32L4xx_HAL_Driver/Src/stm32l4xx_hal_ospi.c ****       }
2677:Drivers/STM32L4xx_HAL_Driver/Src/stm32l4xx_hal_ospi.c ****       else
2678:Drivers/STM32L4xx_HAL_Driver/Src/stm32l4xx_hal_ospi.c ****       {
2679:Drivers/STM32L4xx_HAL_Driver/Src/stm32l4xx_hal_ospi.c ****          /* Nothing to do */
2680:Drivers/STM32L4xx_HAL_Driver/Src/stm32l4xx_hal_ospi.c ****       }
2681:Drivers/STM32L4xx_HAL_Driver/Src/stm32l4xx_hal_ospi.c ****     }
2682:Drivers/STM32L4xx_HAL_Driver/Src/stm32l4xx_hal_ospi.c ****     else
2683:Drivers/STM32L4xx_HAL_Driver/Src/stm32l4xx_hal_ospi.c ****     {
2684:Drivers/STM32L4xx_HAL_Driver/Src/stm32l4xx_hal_ospi.c **** #endif
2685:Drivers/STM32L4xx_HAL_Driver/Src/stm32l4xx_hal_ospi.c ****       MODIFY_REG(OCTOSPIM->PCR[(cfg->ClkPort-1U)], (OCTOSPIM_PCR_CLKEN | OCTOSPIM_PCR_CLKSRC),
 5225              		.loc 1 2685 7
 5226 0838 624A     		ldr	r2, .L242
 5227 083a BB68     		ldr	r3, [r7, #8]
 5228 083c 1B68     		ldr	r3, [r3]
 5229 083e 013B     		subs	r3, r3, #1
 5230 0840 9B00     		lsls	r3, r3, #2
 5231 0842 1344     		add	r3, r3, r2
 5232 0844 5B68     		ldr	r3, [r3, #4]
 5233 0846 23F00302 		bic	r2, r3, #3
 5234 084a BB6C     		ldr	r3, [r7, #72]
 5235 084c 5B00     		lsls	r3, r3, #1
 5236 084e 1A43     		orrs	r2, r2, r3
 5237 0850 5C49     		ldr	r1, .L242
 5238 0852 BB68     		ldr	r3, [r7, #8]
 5239 0854 1B68     		ldr	r3, [r3]
 5240 0856 013B     		subs	r3, r3, #1
 5241 0858 42F00102 		orr	r2, r2, #1
 5242 085c 9B00     		lsls	r3, r3, #2
 5243 085e 0B44     		add	r3, r3, r1
 5244 0860 5A60     		str	r2, [r3, #4]
2686:Drivers/STM32L4xx_HAL_Driver/Src/stm32l4xx_hal_ospi.c ****                 (OCTOSPIM_PCR_CLKEN | (instance << OCTOSPIM_PCR_CLKSRC_Pos)));
2687:Drivers/STM32L4xx_HAL_Driver/Src/stm32l4xx_hal_ospi.c ****       if (cfg->DQSPort != 0U)
 5245              		.loc 1 2687 14
 5246 0862 BB68     		ldr	r3, [r7, #8]
 5247 0864 5B68     		ldr	r3, [r3, #4]
 5248              		.loc 1 2687 10
 5249 0866 002B     		cmp	r3, #0
 5250 0868 14D0     		beq	.L230
2688:Drivers/STM32L4xx_HAL_Driver/Src/stm32l4xx_hal_ospi.c ****       {
2689:Drivers/STM32L4xx_HAL_Driver/Src/stm32l4xx_hal_ospi.c ****         MODIFY_REG(OCTOSPIM->PCR[(cfg->DQSPort-1U)], (OCTOSPIM_PCR_DQSEN | OCTOSPIM_PCR_DQSSRC),
 5251              		.loc 1 2689 9
 5252 086a 564A     		ldr	r2, .L242
 5253 086c BB68     		ldr	r3, [r7, #8]
 5254 086e 5B68     		ldr	r3, [r3, #4]
 5255 0870 013B     		subs	r3, r3, #1
 5256 0872 9B00     		lsls	r3, r3, #2
 5257 0874 1344     		add	r3, r3, r2
 5258 0876 5B68     		ldr	r3, [r3, #4]
 5259 0878 23F03002 		bic	r2, r3, #48
 5260 087c BB6C     		ldr	r3, [r7, #72]
 5261 087e 5B01     		lsls	r3, r3, #5
 5262 0880 1A43     		orrs	r2, r2, r3
ARM GAS  C:\Users\Morroway\AppData\Local\Temp\ccxQAUQ3.s 			page 140


 5263 0882 5049     		ldr	r1, .L242
 5264 0884 BB68     		ldr	r3, [r7, #8]
 5265 0886 5B68     		ldr	r3, [r3, #4]
 5266 0888 013B     		subs	r3, r3, #1
 5267 088a 42F01002 		orr	r2, r2, #16
 5268 088e 9B00     		lsls	r3, r3, #2
 5269 0890 0B44     		add	r3, r3, r1
 5270 0892 5A60     		str	r2, [r3, #4]
 5271              	.L230:
2690:Drivers/STM32L4xx_HAL_Driver/Src/stm32l4xx_hal_ospi.c ****                   (OCTOSPIM_PCR_DQSEN | (instance << OCTOSPIM_PCR_DQSSRC_Pos)));
2691:Drivers/STM32L4xx_HAL_Driver/Src/stm32l4xx_hal_ospi.c ****       }
2692:Drivers/STM32L4xx_HAL_Driver/Src/stm32l4xx_hal_ospi.c **** 
2693:Drivers/STM32L4xx_HAL_Driver/Src/stm32l4xx_hal_ospi.c ****       if ((cfg->IOLowPort & OCTOSPIM_PCR_IOLEN) != 0U)
 5272              		.loc 1 2693 15
 5273 0894 BB68     		ldr	r3, [r7, #8]
 5274 0896 DB68     		ldr	r3, [r3, #12]
 5275              		.loc 1 2693 27
 5276 0898 03F48033 		and	r3, r3, #65536
 5277              		.loc 1 2693 10
 5278 089c 002B     		cmp	r3, #0
 5279 089e 19D0     		beq	.L231
2694:Drivers/STM32L4xx_HAL_Driver/Src/stm32l4xx_hal_ospi.c ****       {
2695:Drivers/STM32L4xx_HAL_Driver/Src/stm32l4xx_hal_ospi.c ****         MODIFY_REG(OCTOSPIM->PCR[((cfg->IOLowPort-1U)& OSPI_IOM_PORT_MASK)],
 5280              		.loc 1 2695 9
 5281 08a0 484A     		ldr	r2, .L242
 5282 08a2 BB68     		ldr	r3, [r7, #8]
 5283 08a4 DB68     		ldr	r3, [r3, #12]
 5284 08a6 013B     		subs	r3, r3, #1
 5285 08a8 03F00103 		and	r3, r3, #1
 5286 08ac 9B00     		lsls	r3, r3, #2
 5287 08ae 1344     		add	r3, r3, r2
 5288 08b0 5B68     		ldr	r3, [r3, #4]
 5289 08b2 23F4E022 		bic	r2, r3, #458752
 5290 08b6 BB6C     		ldr	r3, [r7, #72]
 5291 08b8 9B04     		lsls	r3, r3, #18
 5292 08ba 1A43     		orrs	r2, r2, r3
 5293 08bc 4149     		ldr	r1, .L242
 5294 08be BB68     		ldr	r3, [r7, #8]
 5295 08c0 DB68     		ldr	r3, [r3, #12]
 5296 08c2 013B     		subs	r3, r3, #1
 5297 08c4 03F00103 		and	r3, r3, #1
 5298 08c8 42F48032 		orr	r2, r2, #65536
 5299 08cc 9B00     		lsls	r3, r3, #2
 5300 08ce 0B44     		add	r3, r3, r1
 5301 08d0 5A60     		str	r2, [r3, #4]
 5302 08d2 1CE0     		b	.L232
 5303              	.L231:
2696:Drivers/STM32L4xx_HAL_Driver/Src/stm32l4xx_hal_ospi.c ****                   (OCTOSPIM_PCR_IOLEN | OCTOSPIM_PCR_IOLSRC),
2697:Drivers/STM32L4xx_HAL_Driver/Src/stm32l4xx_hal_ospi.c ****                   (OCTOSPIM_PCR_IOLEN | (instance << (OCTOSPIM_PCR_IOLSRC_Pos+1U))));
2698:Drivers/STM32L4xx_HAL_Driver/Src/stm32l4xx_hal_ospi.c ****       }
2699:Drivers/STM32L4xx_HAL_Driver/Src/stm32l4xx_hal_ospi.c ****       else if (cfg->IOLowPort != HAL_OSPIM_IOPORT_NONE)
 5304              		.loc 1 2699 19
 5305 08d4 BB68     		ldr	r3, [r7, #8]
 5306 08d6 DB68     		ldr	r3, [r3, #12]
 5307              		.loc 1 2699 15
 5308 08d8 002B     		cmp	r3, #0
 5309 08da 18D0     		beq	.L232
ARM GAS  C:\Users\Morroway\AppData\Local\Temp\ccxQAUQ3.s 			page 141


2700:Drivers/STM32L4xx_HAL_Driver/Src/stm32l4xx_hal_ospi.c ****       {
2701:Drivers/STM32L4xx_HAL_Driver/Src/stm32l4xx_hal_ospi.c ****         MODIFY_REG(OCTOSPIM->PCR[((cfg->IOLowPort-1U)& OSPI_IOM_PORT_MASK)],
 5310              		.loc 1 2701 9
 5311 08dc 394A     		ldr	r2, .L242
 5312 08de BB68     		ldr	r3, [r7, #8]
 5313 08e0 DB68     		ldr	r3, [r3, #12]
 5314 08e2 013B     		subs	r3, r3, #1
 5315 08e4 03F00103 		and	r3, r3, #1
 5316 08e8 9B00     		lsls	r3, r3, #2
 5317 08ea 1344     		add	r3, r3, r2
 5318 08ec 5B68     		ldr	r3, [r3, #4]
 5319 08ee 23F0E062 		bic	r2, r3, #117440512
 5320 08f2 BB6C     		ldr	r3, [r7, #72]
 5321 08f4 9B06     		lsls	r3, r3, #26
 5322 08f6 1A43     		orrs	r2, r2, r3
 5323 08f8 3249     		ldr	r1, .L242
 5324 08fa BB68     		ldr	r3, [r7, #8]
 5325 08fc DB68     		ldr	r3, [r3, #12]
 5326 08fe 013B     		subs	r3, r3, #1
 5327 0900 03F00103 		and	r3, r3, #1
 5328 0904 42F08072 		orr	r2, r2, #16777216
 5329 0908 9B00     		lsls	r3, r3, #2
 5330 090a 0B44     		add	r3, r3, r1
 5331 090c 5A60     		str	r2, [r3, #4]
 5332              	.L232:
2702:Drivers/STM32L4xx_HAL_Driver/Src/stm32l4xx_hal_ospi.c ****                   (OCTOSPIM_PCR_IOHEN | OCTOSPIM_PCR_IOHSRC),
2703:Drivers/STM32L4xx_HAL_Driver/Src/stm32l4xx_hal_ospi.c ****                   (OCTOSPIM_PCR_IOHEN | (instance << (OCTOSPIM_PCR_IOHSRC_Pos+1U))));
2704:Drivers/STM32L4xx_HAL_Driver/Src/stm32l4xx_hal_ospi.c ****       }
2705:Drivers/STM32L4xx_HAL_Driver/Src/stm32l4xx_hal_ospi.c ****       else
2706:Drivers/STM32L4xx_HAL_Driver/Src/stm32l4xx_hal_ospi.c ****       {
2707:Drivers/STM32L4xx_HAL_Driver/Src/stm32l4xx_hal_ospi.c ****          /* Nothing to do */
2708:Drivers/STM32L4xx_HAL_Driver/Src/stm32l4xx_hal_ospi.c ****       }
2709:Drivers/STM32L4xx_HAL_Driver/Src/stm32l4xx_hal_ospi.c **** 
2710:Drivers/STM32L4xx_HAL_Driver/Src/stm32l4xx_hal_ospi.c ****       if ((cfg->IOHighPort & OCTOSPIM_PCR_IOLEN) != 0U)
 5333              		.loc 1 2710 15
 5334 090e BB68     		ldr	r3, [r7, #8]
 5335 0910 1B69     		ldr	r3, [r3, #16]
 5336              		.loc 1 2710 28
 5337 0912 03F48033 		and	r3, r3, #65536
 5338              		.loc 1 2710 10
 5339 0916 002B     		cmp	r3, #0
 5340 0918 19D0     		beq	.L233
2711:Drivers/STM32L4xx_HAL_Driver/Src/stm32l4xx_hal_ospi.c ****       {
2712:Drivers/STM32L4xx_HAL_Driver/Src/stm32l4xx_hal_ospi.c ****         MODIFY_REG(OCTOSPIM->PCR[((cfg->IOHighPort-1U)& OSPI_IOM_PORT_MASK)],
 5341              		.loc 1 2712 9
 5342 091a 2A4A     		ldr	r2, .L242
 5343 091c BB68     		ldr	r3, [r7, #8]
 5344 091e 1B69     		ldr	r3, [r3, #16]
 5345 0920 013B     		subs	r3, r3, #1
 5346 0922 03F00103 		and	r3, r3, #1
 5347 0926 9B00     		lsls	r3, r3, #2
 5348 0928 1344     		add	r3, r3, r2
 5349 092a 5B68     		ldr	r3, [r3, #4]
 5350 092c 23F4E022 		bic	r2, r3, #458752
 5351 0930 BB6C     		ldr	r3, [r7, #72]
 5352 0932 9B04     		lsls	r3, r3, #18
 5353 0934 1A43     		orrs	r2, r2, r3
ARM GAS  C:\Users\Morroway\AppData\Local\Temp\ccxQAUQ3.s 			page 142


 5354 0936 2349     		ldr	r1, .L242
 5355 0938 BB68     		ldr	r3, [r7, #8]
 5356 093a 1B69     		ldr	r3, [r3, #16]
 5357 093c 013B     		subs	r3, r3, #1
 5358 093e 03F00103 		and	r3, r3, #1
 5359 0942 42F44032 		orr	r2, r2, #196608
 5360 0946 9B00     		lsls	r3, r3, #2
 5361 0948 0B44     		add	r3, r3, r1
 5362 094a 5A60     		str	r2, [r3, #4]
 5363 094c 1CE0     		b	.L229
 5364              	.L233:
2713:Drivers/STM32L4xx_HAL_Driver/Src/stm32l4xx_hal_ospi.c ****                   (OCTOSPIM_PCR_IOLEN | OCTOSPIM_PCR_IOLSRC),
2714:Drivers/STM32L4xx_HAL_Driver/Src/stm32l4xx_hal_ospi.c ****                   (OCTOSPIM_PCR_IOLEN | OCTOSPIM_PCR_IOLSRC_0 | (instance << (OCTOSPIM_PCR_IOLSRC_P
2715:Drivers/STM32L4xx_HAL_Driver/Src/stm32l4xx_hal_ospi.c ****       }
2716:Drivers/STM32L4xx_HAL_Driver/Src/stm32l4xx_hal_ospi.c ****       else if (cfg->IOHighPort != HAL_OSPIM_IOPORT_NONE)
 5365              		.loc 1 2716 19
 5366 094e BB68     		ldr	r3, [r7, #8]
 5367 0950 1B69     		ldr	r3, [r3, #16]
 5368              		.loc 1 2716 15
 5369 0952 002B     		cmp	r3, #0
 5370 0954 18D0     		beq	.L229
2717:Drivers/STM32L4xx_HAL_Driver/Src/stm32l4xx_hal_ospi.c ****       {
2718:Drivers/STM32L4xx_HAL_Driver/Src/stm32l4xx_hal_ospi.c ****         MODIFY_REG(OCTOSPIM->PCR[((cfg->IOHighPort-1U)& OSPI_IOM_PORT_MASK)],
 5371              		.loc 1 2718 9
 5372 0956 1B4A     		ldr	r2, .L242
 5373 0958 BB68     		ldr	r3, [r7, #8]
 5374 095a 1B69     		ldr	r3, [r3, #16]
 5375 095c 013B     		subs	r3, r3, #1
 5376 095e 03F00103 		and	r3, r3, #1
 5377 0962 9B00     		lsls	r3, r3, #2
 5378 0964 1344     		add	r3, r3, r2
 5379 0966 5B68     		ldr	r3, [r3, #4]
 5380 0968 23F0E062 		bic	r2, r3, #117440512
 5381 096c BB6C     		ldr	r3, [r7, #72]
 5382 096e 9B06     		lsls	r3, r3, #26
 5383 0970 1A43     		orrs	r2, r2, r3
 5384 0972 1449     		ldr	r1, .L242
 5385 0974 BB68     		ldr	r3, [r7, #8]
 5386 0976 1B69     		ldr	r3, [r3, #16]
 5387 0978 013B     		subs	r3, r3, #1
 5388 097a 03F00103 		and	r3, r3, #1
 5389 097e 42F04072 		orr	r2, r2, #50331648
 5390 0982 9B00     		lsls	r3, r3, #2
 5391 0984 0B44     		add	r3, r3, r1
 5392 0986 5A60     		str	r2, [r3, #4]
 5393              	.L229:
2719:Drivers/STM32L4xx_HAL_Driver/Src/stm32l4xx_hal_ospi.c ****                   (OCTOSPIM_PCR_IOHEN | OCTOSPIM_PCR_IOHSRC),
2720:Drivers/STM32L4xx_HAL_Driver/Src/stm32l4xx_hal_ospi.c ****                   (OCTOSPIM_PCR_IOHEN | OCTOSPIM_PCR_IOHSRC_0 | (instance << (OCTOSPIM_PCR_IOHSRC_P
2721:Drivers/STM32L4xx_HAL_Driver/Src/stm32l4xx_hal_ospi.c ****       }
2722:Drivers/STM32L4xx_HAL_Driver/Src/stm32l4xx_hal_ospi.c ****       else
2723:Drivers/STM32L4xx_HAL_Driver/Src/stm32l4xx_hal_ospi.c ****       {
2724:Drivers/STM32L4xx_HAL_Driver/Src/stm32l4xx_hal_ospi.c ****          /* Nothing to do */
2725:Drivers/STM32L4xx_HAL_Driver/Src/stm32l4xx_hal_ospi.c ****       }
2726:Drivers/STM32L4xx_HAL_Driver/Src/stm32l4xx_hal_ospi.c **** #if   defined (OCTOSPIM_CR_MUXEN)
2727:Drivers/STM32L4xx_HAL_Driver/Src/stm32l4xx_hal_ospi.c ****     }
2728:Drivers/STM32L4xx_HAL_Driver/Src/stm32l4xx_hal_ospi.c **** #endif
2729:Drivers/STM32L4xx_HAL_Driver/Src/stm32l4xx_hal_ospi.c **** 
ARM GAS  C:\Users\Morroway\AppData\Local\Temp\ccxQAUQ3.s 			page 143


2730:Drivers/STM32L4xx_HAL_Driver/Src/stm32l4xx_hal_ospi.c ****     /******* Re-enable both OctoSPI after configure OctoSPI IO Manager ********/
2731:Drivers/STM32L4xx_HAL_Driver/Src/stm32l4xx_hal_ospi.c ****     if ((ospi_enabled & 0x1U) != 0U)
 5394              		.loc 1 2731 23
 5395 0988 97F84630 		ldrb	r3, [r7, #70]	@ zero_extendqisi2
 5396 098c 03F00103 		and	r3, r3, #1
 5397              		.loc 1 2731 8
 5398 0990 002B     		cmp	r3, #0
 5399 0992 05D0     		beq	.L234
2732:Drivers/STM32L4xx_HAL_Driver/Src/stm32l4xx_hal_ospi.c ****     {
2733:Drivers/STM32L4xx_HAL_Driver/Src/stm32l4xx_hal_ospi.c ****       SET_BIT(OCTOSPI1->CR, OCTOSPI_CR_EN);
 5400              		.loc 1 2733 7
 5401 0994 0C4B     		ldr	r3, .L242+4
 5402 0996 1B68     		ldr	r3, [r3]
 5403 0998 0B4A     		ldr	r2, .L242+4
 5404 099a 43F00103 		orr	r3, r3, #1
 5405 099e 1360     		str	r3, [r2]
 5406              	.L234:
2734:Drivers/STM32L4xx_HAL_Driver/Src/stm32l4xx_hal_ospi.c ****     }
2735:Drivers/STM32L4xx_HAL_Driver/Src/stm32l4xx_hal_ospi.c ****     if ((ospi_enabled & 0x2U) != 0U)
 5407              		.loc 1 2735 23
 5408 09a0 97F84630 		ldrb	r3, [r7, #70]	@ zero_extendqisi2
 5409 09a4 03F00203 		and	r3, r3, #2
 5410              		.loc 1 2735 8
 5411 09a8 002B     		cmp	r3, #0
 5412 09aa 05D0     		beq	.L209
2736:Drivers/STM32L4xx_HAL_Driver/Src/stm32l4xx_hal_ospi.c ****     {
2737:Drivers/STM32L4xx_HAL_Driver/Src/stm32l4xx_hal_ospi.c ****       SET_BIT(OCTOSPI2->CR, OCTOSPI_CR_EN);
 5413              		.loc 1 2737 7
 5414 09ac 074B     		ldr	r3, .L242+8
 5415 09ae 1B68     		ldr	r3, [r3]
 5416 09b0 064A     		ldr	r2, .L242+8
 5417 09b2 43F00103 		orr	r3, r3, #1
 5418 09b6 1360     		str	r3, [r2]
 5419              	.L209:
2738:Drivers/STM32L4xx_HAL_Driver/Src/stm32l4xx_hal_ospi.c ****     }
2739:Drivers/STM32L4xx_HAL_Driver/Src/stm32l4xx_hal_ospi.c ****   }
2740:Drivers/STM32L4xx_HAL_Driver/Src/stm32l4xx_hal_ospi.c **** 
2741:Drivers/STM32L4xx_HAL_Driver/Src/stm32l4xx_hal_ospi.c ****   /* Return function status */
2742:Drivers/STM32L4xx_HAL_Driver/Src/stm32l4xx_hal_ospi.c ****   return status;
 5420              		.loc 1 2742 10
 5421 09b8 97F84F30 		ldrb	r3, [r7, #79]	@ zero_extendqisi2
2743:Drivers/STM32L4xx_HAL_Driver/Src/stm32l4xx_hal_ospi.c **** }
 5422              		.loc 1 2743 1
 5423 09bc 1846     		mov	r0, r3
 5424 09be 5037     		adds	r7, r7, #80
 5425              		.cfi_def_cfa_offset 8
 5426 09c0 BD46     		mov	sp, r7
 5427              		.cfi_def_cfa_register 13
 5428              		@ sp needed
 5429 09c2 80BD     		pop	{r7, pc}
 5430              	.L243:
 5431              		.align	2
 5432              	.L242:
 5433 09c4 001C0650 		.word	1342577664
 5434 09c8 001000A0 		.word	-1610608640
 5435 09cc 001400A0 		.word	-1610607616
 5436              		.cfi_endproc
ARM GAS  C:\Users\Morroway\AppData\Local\Temp\ccxQAUQ3.s 			page 144


 5437              	.LFE356:
 5439              		.section	.text.OSPI_DMACplt,"ax",%progbits
 5440              		.align	1
 5441              		.syntax unified
 5442              		.thumb
 5443              		.thumb_func
 5445              	OSPI_DMACplt:
 5446              	.LFB357:
2744:Drivers/STM32L4xx_HAL_Driver/Src/stm32l4xx_hal_ospi.c **** 
2745:Drivers/STM32L4xx_HAL_Driver/Src/stm32l4xx_hal_ospi.c **** /**
2746:Drivers/STM32L4xx_HAL_Driver/Src/stm32l4xx_hal_ospi.c ****   * @}
2747:Drivers/STM32L4xx_HAL_Driver/Src/stm32l4xx_hal_ospi.c ****   */
2748:Drivers/STM32L4xx_HAL_Driver/Src/stm32l4xx_hal_ospi.c **** 
2749:Drivers/STM32L4xx_HAL_Driver/Src/stm32l4xx_hal_ospi.c **** /**
2750:Drivers/STM32L4xx_HAL_Driver/Src/stm32l4xx_hal_ospi.c ****   @cond 0
2751:Drivers/STM32L4xx_HAL_Driver/Src/stm32l4xx_hal_ospi.c ****   */
2752:Drivers/STM32L4xx_HAL_Driver/Src/stm32l4xx_hal_ospi.c **** /**
2753:Drivers/STM32L4xx_HAL_Driver/Src/stm32l4xx_hal_ospi.c ****   * @brief  DMA OSPI process complete callback.
2754:Drivers/STM32L4xx_HAL_Driver/Src/stm32l4xx_hal_ospi.c ****   * @param  hdma : DMA handle
2755:Drivers/STM32L4xx_HAL_Driver/Src/stm32l4xx_hal_ospi.c ****   * @retval None
2756:Drivers/STM32L4xx_HAL_Driver/Src/stm32l4xx_hal_ospi.c ****   */
2757:Drivers/STM32L4xx_HAL_Driver/Src/stm32l4xx_hal_ospi.c **** static void OSPI_DMACplt(DMA_HandleTypeDef *hdma)
2758:Drivers/STM32L4xx_HAL_Driver/Src/stm32l4xx_hal_ospi.c **** {
 5447              		.loc 1 2758 1
 5448              		.cfi_startproc
 5449              		@ args = 0, pretend = 0, frame = 16
 5450              		@ frame_needed = 1, uses_anonymous_args = 0
 5451              		@ link register save eliminated.
 5452 0000 80B4     		push	{r7}
 5453              		.cfi_def_cfa_offset 4
 5454              		.cfi_offset 7, -4
 5455 0002 85B0     		sub	sp, sp, #20
 5456              		.cfi_def_cfa_offset 24
 5457 0004 00AF     		add	r7, sp, #0
 5458              		.cfi_def_cfa_register 7
 5459 0006 7860     		str	r0, [r7, #4]
2759:Drivers/STM32L4xx_HAL_Driver/Src/stm32l4xx_hal_ospi.c ****   OSPI_HandleTypeDef* hospi = ( OSPI_HandleTypeDef* )(hdma->Parent);
 5460              		.loc 1 2759 23
 5461 0008 7B68     		ldr	r3, [r7, #4]
 5462 000a 9B6A     		ldr	r3, [r3, #40]
 5463 000c FB60     		str	r3, [r7, #12]
2760:Drivers/STM32L4xx_HAL_Driver/Src/stm32l4xx_hal_ospi.c ****   hospi->XferCount = 0;
 5464              		.loc 1 2760 20
 5465 000e FB68     		ldr	r3, [r7, #12]
 5466 0010 0022     		movs	r2, #0
 5467 0012 5A64     		str	r2, [r3, #68]
2761:Drivers/STM32L4xx_HAL_Driver/Src/stm32l4xx_hal_ospi.c **** 
2762:Drivers/STM32L4xx_HAL_Driver/Src/stm32l4xx_hal_ospi.c ****   /* Disable the DMA transfer on the OctoSPI side */
2763:Drivers/STM32L4xx_HAL_Driver/Src/stm32l4xx_hal_ospi.c ****   CLEAR_BIT(hospi->Instance->CR, OCTOSPI_CR_DMAEN);
 5468              		.loc 1 2763 3
 5469 0014 FB68     		ldr	r3, [r7, #12]
 5470 0016 1B68     		ldr	r3, [r3]
 5471 0018 1A68     		ldr	r2, [r3]
 5472 001a FB68     		ldr	r3, [r7, #12]
 5473 001c 1B68     		ldr	r3, [r3]
 5474 001e 22F00402 		bic	r2, r2, #4
 5475 0022 1A60     		str	r2, [r3]
ARM GAS  C:\Users\Morroway\AppData\Local\Temp\ccxQAUQ3.s 			page 145


2764:Drivers/STM32L4xx_HAL_Driver/Src/stm32l4xx_hal_ospi.c **** 
2765:Drivers/STM32L4xx_HAL_Driver/Src/stm32l4xx_hal_ospi.c ****   /* Disable the DMA channel */
2766:Drivers/STM32L4xx_HAL_Driver/Src/stm32l4xx_hal_ospi.c ****   __HAL_DMA_DISABLE(hdma);
 5476              		.loc 1 2766 3
 5477 0024 7B68     		ldr	r3, [r7, #4]
 5478 0026 1B68     		ldr	r3, [r3]
 5479 0028 1A68     		ldr	r2, [r3]
 5480 002a 7B68     		ldr	r3, [r7, #4]
 5481 002c 1B68     		ldr	r3, [r3]
 5482 002e 22F00102 		bic	r2, r2, #1
 5483 0032 1A60     		str	r2, [r3]
2767:Drivers/STM32L4xx_HAL_Driver/Src/stm32l4xx_hal_ospi.c **** 
2768:Drivers/STM32L4xx_HAL_Driver/Src/stm32l4xx_hal_ospi.c ****   /* Enable the OSPI transfer complete Interrupt */
2769:Drivers/STM32L4xx_HAL_Driver/Src/stm32l4xx_hal_ospi.c ****   __HAL_OSPI_ENABLE_IT(hospi, HAL_OSPI_IT_TC);
 5484              		.loc 1 2769 3
 5485 0034 FB68     		ldr	r3, [r7, #12]
 5486 0036 1B68     		ldr	r3, [r3]
 5487 0038 1A68     		ldr	r2, [r3]
 5488 003a FB68     		ldr	r3, [r7, #12]
 5489 003c 1B68     		ldr	r3, [r3]
 5490 003e 42F40032 		orr	r2, r2, #131072
 5491 0042 1A60     		str	r2, [r3]
2770:Drivers/STM32L4xx_HAL_Driver/Src/stm32l4xx_hal_ospi.c **** }
 5492              		.loc 1 2770 1
 5493 0044 00BF     		nop
 5494 0046 1437     		adds	r7, r7, #20
 5495              		.cfi_def_cfa_offset 4
 5496 0048 BD46     		mov	sp, r7
 5497              		.cfi_def_cfa_register 13
 5498              		@ sp needed
 5499 004a 5DF8047B 		ldr	r7, [sp], #4
 5500              		.cfi_restore 7
 5501              		.cfi_def_cfa_offset 0
 5502 004e 7047     		bx	lr
 5503              		.cfi_endproc
 5504              	.LFE357:
 5506              		.section	.text.OSPI_DMAHalfCplt,"ax",%progbits
 5507              		.align	1
 5508              		.syntax unified
 5509              		.thumb
 5510              		.thumb_func
 5512              	OSPI_DMAHalfCplt:
 5513              	.LFB358:
2771:Drivers/STM32L4xx_HAL_Driver/Src/stm32l4xx_hal_ospi.c **** 
2772:Drivers/STM32L4xx_HAL_Driver/Src/stm32l4xx_hal_ospi.c **** /**
2773:Drivers/STM32L4xx_HAL_Driver/Src/stm32l4xx_hal_ospi.c ****   * @brief  DMA OSPI process half complete callback.
2774:Drivers/STM32L4xx_HAL_Driver/Src/stm32l4xx_hal_ospi.c ****   * @param  hdma : DMA handle
2775:Drivers/STM32L4xx_HAL_Driver/Src/stm32l4xx_hal_ospi.c ****   * @retval None
2776:Drivers/STM32L4xx_HAL_Driver/Src/stm32l4xx_hal_ospi.c ****   */
2777:Drivers/STM32L4xx_HAL_Driver/Src/stm32l4xx_hal_ospi.c **** static void OSPI_DMAHalfCplt(DMA_HandleTypeDef *hdma)
2778:Drivers/STM32L4xx_HAL_Driver/Src/stm32l4xx_hal_ospi.c **** {
 5514              		.loc 1 2778 1
 5515              		.cfi_startproc
 5516              		@ args = 0, pretend = 0, frame = 16
 5517              		@ frame_needed = 1, uses_anonymous_args = 0
 5518 0000 80B5     		push	{r7, lr}
 5519              		.cfi_def_cfa_offset 8
ARM GAS  C:\Users\Morroway\AppData\Local\Temp\ccxQAUQ3.s 			page 146


 5520              		.cfi_offset 7, -8
 5521              		.cfi_offset 14, -4
 5522 0002 84B0     		sub	sp, sp, #16
 5523              		.cfi_def_cfa_offset 24
 5524 0004 00AF     		add	r7, sp, #0
 5525              		.cfi_def_cfa_register 7
 5526 0006 7860     		str	r0, [r7, #4]
2779:Drivers/STM32L4xx_HAL_Driver/Src/stm32l4xx_hal_ospi.c ****   OSPI_HandleTypeDef* hospi = ( OSPI_HandleTypeDef* )(hdma->Parent);
 5527              		.loc 1 2779 23
 5528 0008 7B68     		ldr	r3, [r7, #4]
 5529 000a 9B6A     		ldr	r3, [r3, #40]
 5530 000c FB60     		str	r3, [r7, #12]
2780:Drivers/STM32L4xx_HAL_Driver/Src/stm32l4xx_hal_ospi.c ****   hospi->XferCount = (hospi->XferCount >> 1);
 5531              		.loc 1 2780 28
 5532 000e FB68     		ldr	r3, [r7, #12]
 5533 0010 5B6C     		ldr	r3, [r3, #68]
 5534              		.loc 1 2780 40
 5535 0012 5A08     		lsrs	r2, r3, #1
 5536              		.loc 1 2780 20
 5537 0014 FB68     		ldr	r3, [r7, #12]
 5538 0016 5A64     		str	r2, [r3, #68]
2781:Drivers/STM32L4xx_HAL_Driver/Src/stm32l4xx_hal_ospi.c **** 
2782:Drivers/STM32L4xx_HAL_Driver/Src/stm32l4xx_hal_ospi.c ****   if (hospi->State == HAL_OSPI_STATE_BUSY_RX)
 5539              		.loc 1 2782 12
 5540 0018 FB68     		ldr	r3, [r7, #12]
 5541 001a DB6C     		ldr	r3, [r3, #76]
 5542              		.loc 1 2782 6
 5543 001c 282B     		cmp	r3, #40
 5544 001e 03D1     		bne	.L246
2783:Drivers/STM32L4xx_HAL_Driver/Src/stm32l4xx_hal_ospi.c ****   {
2784:Drivers/STM32L4xx_HAL_Driver/Src/stm32l4xx_hal_ospi.c **** #if defined (USE_HAL_OSPI_REGISTER_CALLBACKS) && (USE_HAL_OSPI_REGISTER_CALLBACKS == 1U)
2785:Drivers/STM32L4xx_HAL_Driver/Src/stm32l4xx_hal_ospi.c ****     hospi->RxHalfCpltCallback(hospi);
2786:Drivers/STM32L4xx_HAL_Driver/Src/stm32l4xx_hal_ospi.c **** #else
2787:Drivers/STM32L4xx_HAL_Driver/Src/stm32l4xx_hal_ospi.c ****     HAL_OSPI_RxHalfCpltCallback(hospi);
 5545              		.loc 1 2787 5
 5546 0020 F868     		ldr	r0, [r7, #12]
 5547 0022 FFF7FEFF 		bl	HAL_OSPI_RxHalfCpltCallback
2788:Drivers/STM32L4xx_HAL_Driver/Src/stm32l4xx_hal_ospi.c **** #endif /*(USE_HAL_OSPI_REGISTER_CALLBACKS) && (USE_HAL_OSPI_REGISTER_CALLBACKS == 1U) */
2789:Drivers/STM32L4xx_HAL_Driver/Src/stm32l4xx_hal_ospi.c ****   }
2790:Drivers/STM32L4xx_HAL_Driver/Src/stm32l4xx_hal_ospi.c ****   else
2791:Drivers/STM32L4xx_HAL_Driver/Src/stm32l4xx_hal_ospi.c ****   {
2792:Drivers/STM32L4xx_HAL_Driver/Src/stm32l4xx_hal_ospi.c **** #if defined (USE_HAL_OSPI_REGISTER_CALLBACKS) && (USE_HAL_OSPI_REGISTER_CALLBACKS == 1U)
2793:Drivers/STM32L4xx_HAL_Driver/Src/stm32l4xx_hal_ospi.c ****     hospi->TxHalfCpltCallback(hospi);
2794:Drivers/STM32L4xx_HAL_Driver/Src/stm32l4xx_hal_ospi.c **** #else
2795:Drivers/STM32L4xx_HAL_Driver/Src/stm32l4xx_hal_ospi.c ****     HAL_OSPI_TxHalfCpltCallback(hospi);
2796:Drivers/STM32L4xx_HAL_Driver/Src/stm32l4xx_hal_ospi.c **** #endif /* (USE_HAL_OSPI_REGISTER_CALLBACKS) && (USE_HAL_OSPI_REGISTER_CALLBACKS == 1U)*/
2797:Drivers/STM32L4xx_HAL_Driver/Src/stm32l4xx_hal_ospi.c ****   }
2798:Drivers/STM32L4xx_HAL_Driver/Src/stm32l4xx_hal_ospi.c **** }
 5548              		.loc 1 2798 1
 5549 0026 02E0     		b	.L248
 5550              	.L246:
2795:Drivers/STM32L4xx_HAL_Driver/Src/stm32l4xx_hal_ospi.c **** #endif /* (USE_HAL_OSPI_REGISTER_CALLBACKS) && (USE_HAL_OSPI_REGISTER_CALLBACKS == 1U)*/
 5551              		.loc 1 2795 5
 5552 0028 F868     		ldr	r0, [r7, #12]
 5553 002a FFF7FEFF 		bl	HAL_OSPI_TxHalfCpltCallback
 5554              	.L248:
 5555              		.loc 1 2798 1
ARM GAS  C:\Users\Morroway\AppData\Local\Temp\ccxQAUQ3.s 			page 147


 5556 002e 00BF     		nop
 5557 0030 1037     		adds	r7, r7, #16
 5558              		.cfi_def_cfa_offset 8
 5559 0032 BD46     		mov	sp, r7
 5560              		.cfi_def_cfa_register 13
 5561              		@ sp needed
 5562 0034 80BD     		pop	{r7, pc}
 5563              		.cfi_endproc
 5564              	.LFE358:
 5566              		.section	.text.OSPI_DMAError,"ax",%progbits
 5567              		.align	1
 5568              		.syntax unified
 5569              		.thumb
 5570              		.thumb_func
 5572              	OSPI_DMAError:
 5573              	.LFB359:
2799:Drivers/STM32L4xx_HAL_Driver/Src/stm32l4xx_hal_ospi.c **** 
2800:Drivers/STM32L4xx_HAL_Driver/Src/stm32l4xx_hal_ospi.c **** /**
2801:Drivers/STM32L4xx_HAL_Driver/Src/stm32l4xx_hal_ospi.c ****   * @brief  DMA OSPI communication error callback.
2802:Drivers/STM32L4xx_HAL_Driver/Src/stm32l4xx_hal_ospi.c ****   * @param  hdma : DMA handle
2803:Drivers/STM32L4xx_HAL_Driver/Src/stm32l4xx_hal_ospi.c ****   * @retval None
2804:Drivers/STM32L4xx_HAL_Driver/Src/stm32l4xx_hal_ospi.c ****   */
2805:Drivers/STM32L4xx_HAL_Driver/Src/stm32l4xx_hal_ospi.c **** static void OSPI_DMAError(DMA_HandleTypeDef *hdma)
2806:Drivers/STM32L4xx_HAL_Driver/Src/stm32l4xx_hal_ospi.c **** {
 5574              		.loc 1 2806 1
 5575              		.cfi_startproc
 5576              		@ args = 0, pretend = 0, frame = 16
 5577              		@ frame_needed = 1, uses_anonymous_args = 0
 5578 0000 80B5     		push	{r7, lr}
 5579              		.cfi_def_cfa_offset 8
 5580              		.cfi_offset 7, -8
 5581              		.cfi_offset 14, -4
 5582 0002 84B0     		sub	sp, sp, #16
 5583              		.cfi_def_cfa_offset 24
 5584 0004 00AF     		add	r7, sp, #0
 5585              		.cfi_def_cfa_register 7
 5586 0006 7860     		str	r0, [r7, #4]
2807:Drivers/STM32L4xx_HAL_Driver/Src/stm32l4xx_hal_ospi.c ****   OSPI_HandleTypeDef* hospi = ( OSPI_HandleTypeDef* )(hdma->Parent);
 5587              		.loc 1 2807 23
 5588 0008 7B68     		ldr	r3, [r7, #4]
 5589 000a 9B6A     		ldr	r3, [r3, #40]
 5590 000c FB60     		str	r3, [r7, #12]
2808:Drivers/STM32L4xx_HAL_Driver/Src/stm32l4xx_hal_ospi.c ****   hospi->XferCount = 0;
 5591              		.loc 1 2808 20
 5592 000e FB68     		ldr	r3, [r7, #12]
 5593 0010 0022     		movs	r2, #0
 5594 0012 5A64     		str	r2, [r3, #68]
2809:Drivers/STM32L4xx_HAL_Driver/Src/stm32l4xx_hal_ospi.c ****   hospi->ErrorCode = HAL_OSPI_ERROR_DMA;
 5595              		.loc 1 2809 20
 5596 0014 FB68     		ldr	r3, [r7, #12]
 5597 0016 0422     		movs	r2, #4
 5598 0018 1A65     		str	r2, [r3, #80]
2810:Drivers/STM32L4xx_HAL_Driver/Src/stm32l4xx_hal_ospi.c **** 
2811:Drivers/STM32L4xx_HAL_Driver/Src/stm32l4xx_hal_ospi.c ****   /* Disable the DMA transfer on the OctoSPI side */
2812:Drivers/STM32L4xx_HAL_Driver/Src/stm32l4xx_hal_ospi.c ****   CLEAR_BIT(hospi->Instance->CR, OCTOSPI_CR_DMAEN);
 5599              		.loc 1 2812 3
 5600 001a FB68     		ldr	r3, [r7, #12]
ARM GAS  C:\Users\Morroway\AppData\Local\Temp\ccxQAUQ3.s 			page 148


 5601 001c 1B68     		ldr	r3, [r3]
 5602 001e 1A68     		ldr	r2, [r3]
 5603 0020 FB68     		ldr	r3, [r7, #12]
 5604 0022 1B68     		ldr	r3, [r3]
 5605 0024 22F00402 		bic	r2, r2, #4
 5606 0028 1A60     		str	r2, [r3]
2813:Drivers/STM32L4xx_HAL_Driver/Src/stm32l4xx_hal_ospi.c **** 
2814:Drivers/STM32L4xx_HAL_Driver/Src/stm32l4xx_hal_ospi.c ****   /* Abort the OctoSPI */
2815:Drivers/STM32L4xx_HAL_Driver/Src/stm32l4xx_hal_ospi.c ****   if (HAL_OSPI_Abort_IT(hospi) != HAL_OK)
 5607              		.loc 1 2815 7
 5608 002a F868     		ldr	r0, [r7, #12]
 5609 002c FFF7FEFF 		bl	HAL_OSPI_Abort_IT
 5610 0030 0346     		mov	r3, r0
 5611              		.loc 1 2815 6
 5612 0032 002B     		cmp	r3, #0
 5613 0034 0DD0     		beq	.L251
2816:Drivers/STM32L4xx_HAL_Driver/Src/stm32l4xx_hal_ospi.c ****   {
2817:Drivers/STM32L4xx_HAL_Driver/Src/stm32l4xx_hal_ospi.c ****     /* Disable the interrupts */
2818:Drivers/STM32L4xx_HAL_Driver/Src/stm32l4xx_hal_ospi.c ****     __HAL_OSPI_DISABLE_IT(hospi, HAL_OSPI_IT_TC | HAL_OSPI_IT_FT | HAL_OSPI_IT_TE);
 5614              		.loc 1 2818 5
 5615 0036 FB68     		ldr	r3, [r7, #12]
 5616 0038 1B68     		ldr	r3, [r3]
 5617 003a 1A68     		ldr	r2, [r3]
 5618 003c FB68     		ldr	r3, [r7, #12]
 5619 003e 1B68     		ldr	r3, [r3]
 5620 0040 22F4E022 		bic	r2, r2, #458752
 5621 0044 1A60     		str	r2, [r3]
2819:Drivers/STM32L4xx_HAL_Driver/Src/stm32l4xx_hal_ospi.c **** 
2820:Drivers/STM32L4xx_HAL_Driver/Src/stm32l4xx_hal_ospi.c ****     /* Update state */
2821:Drivers/STM32L4xx_HAL_Driver/Src/stm32l4xx_hal_ospi.c ****     hospi->State = HAL_OSPI_STATE_READY;
 5622              		.loc 1 2821 18
 5623 0046 FB68     		ldr	r3, [r7, #12]
 5624 0048 0222     		movs	r2, #2
 5625 004a DA64     		str	r2, [r3, #76]
2822:Drivers/STM32L4xx_HAL_Driver/Src/stm32l4xx_hal_ospi.c **** 
2823:Drivers/STM32L4xx_HAL_Driver/Src/stm32l4xx_hal_ospi.c ****     /* Error callback */
2824:Drivers/STM32L4xx_HAL_Driver/Src/stm32l4xx_hal_ospi.c **** #if defined (USE_HAL_OSPI_REGISTER_CALLBACKS) && (USE_HAL_OSPI_REGISTER_CALLBACKS == 1U)
2825:Drivers/STM32L4xx_HAL_Driver/Src/stm32l4xx_hal_ospi.c ****     hospi->ErrorCallback(hospi);
2826:Drivers/STM32L4xx_HAL_Driver/Src/stm32l4xx_hal_ospi.c **** #else
2827:Drivers/STM32L4xx_HAL_Driver/Src/stm32l4xx_hal_ospi.c ****     HAL_OSPI_ErrorCallback(hospi);
 5626              		.loc 1 2827 5
 5627 004c F868     		ldr	r0, [r7, #12]
 5628 004e FFF7FEFF 		bl	HAL_OSPI_ErrorCallback
 5629              	.L251:
2828:Drivers/STM32L4xx_HAL_Driver/Src/stm32l4xx_hal_ospi.c **** #endif /*(USE_HAL_OSPI_REGISTER_CALLBACKS) && (USE_HAL_OSPI_REGISTER_CALLBACKS == 1U) */
2829:Drivers/STM32L4xx_HAL_Driver/Src/stm32l4xx_hal_ospi.c ****   }
2830:Drivers/STM32L4xx_HAL_Driver/Src/stm32l4xx_hal_ospi.c **** }
 5630              		.loc 1 2830 1
 5631 0052 00BF     		nop
 5632 0054 1037     		adds	r7, r7, #16
 5633              		.cfi_def_cfa_offset 8
 5634 0056 BD46     		mov	sp, r7
 5635              		.cfi_def_cfa_register 13
 5636              		@ sp needed
 5637 0058 80BD     		pop	{r7, pc}
 5638              		.cfi_endproc
 5639              	.LFE359:
ARM GAS  C:\Users\Morroway\AppData\Local\Temp\ccxQAUQ3.s 			page 149


 5641              		.section	.text.OSPI_DMAAbortCplt,"ax",%progbits
 5642              		.align	1
 5643              		.syntax unified
 5644              		.thumb
 5645              		.thumb_func
 5647              	OSPI_DMAAbortCplt:
 5648              	.LFB360:
2831:Drivers/STM32L4xx_HAL_Driver/Src/stm32l4xx_hal_ospi.c **** 
2832:Drivers/STM32L4xx_HAL_Driver/Src/stm32l4xx_hal_ospi.c **** /**
2833:Drivers/STM32L4xx_HAL_Driver/Src/stm32l4xx_hal_ospi.c ****   * @brief  DMA OSPI abort complete callback.
2834:Drivers/STM32L4xx_HAL_Driver/Src/stm32l4xx_hal_ospi.c ****   * @param  hdma : DMA handle
2835:Drivers/STM32L4xx_HAL_Driver/Src/stm32l4xx_hal_ospi.c ****   * @retval None
2836:Drivers/STM32L4xx_HAL_Driver/Src/stm32l4xx_hal_ospi.c ****   */
2837:Drivers/STM32L4xx_HAL_Driver/Src/stm32l4xx_hal_ospi.c **** static void OSPI_DMAAbortCplt(DMA_HandleTypeDef *hdma)
2838:Drivers/STM32L4xx_HAL_Driver/Src/stm32l4xx_hal_ospi.c **** {
 5649              		.loc 1 2838 1
 5650              		.cfi_startproc
 5651              		@ args = 0, pretend = 0, frame = 16
 5652              		@ frame_needed = 1, uses_anonymous_args = 0
 5653 0000 80B5     		push	{r7, lr}
 5654              		.cfi_def_cfa_offset 8
 5655              		.cfi_offset 7, -8
 5656              		.cfi_offset 14, -4
 5657 0002 84B0     		sub	sp, sp, #16
 5658              		.cfi_def_cfa_offset 24
 5659 0004 00AF     		add	r7, sp, #0
 5660              		.cfi_def_cfa_register 7
 5661 0006 7860     		str	r0, [r7, #4]
2839:Drivers/STM32L4xx_HAL_Driver/Src/stm32l4xx_hal_ospi.c ****   OSPI_HandleTypeDef* hospi = ( OSPI_HandleTypeDef* )(hdma->Parent);
 5662              		.loc 1 2839 23
 5663 0008 7B68     		ldr	r3, [r7, #4]
 5664 000a 9B6A     		ldr	r3, [r3, #40]
 5665 000c FB60     		str	r3, [r7, #12]
2840:Drivers/STM32L4xx_HAL_Driver/Src/stm32l4xx_hal_ospi.c ****   hospi->XferCount = 0;
 5666              		.loc 1 2840 20
 5667 000e FB68     		ldr	r3, [r7, #12]
 5668 0010 0022     		movs	r2, #0
 5669 0012 5A64     		str	r2, [r3, #68]
2841:Drivers/STM32L4xx_HAL_Driver/Src/stm32l4xx_hal_ospi.c **** 
2842:Drivers/STM32L4xx_HAL_Driver/Src/stm32l4xx_hal_ospi.c ****   /* Check the state */
2843:Drivers/STM32L4xx_HAL_Driver/Src/stm32l4xx_hal_ospi.c ****   if (hospi->State == HAL_OSPI_STATE_ABORT)
 5670              		.loc 1 2843 12
 5671 0014 FB68     		ldr	r3, [r7, #12]
 5672 0016 DB6C     		ldr	r3, [r3, #76]
 5673              		.loc 1 2843 6
 5674 0018 B3F5807F 		cmp	r3, #256
 5675 001c 22D1     		bne	.L253
2844:Drivers/STM32L4xx_HAL_Driver/Src/stm32l4xx_hal_ospi.c ****   {
2845:Drivers/STM32L4xx_HAL_Driver/Src/stm32l4xx_hal_ospi.c ****     /* DMA abort called by OctoSPI abort */
2846:Drivers/STM32L4xx_HAL_Driver/Src/stm32l4xx_hal_ospi.c ****     if (__HAL_OSPI_GET_FLAG(hospi, HAL_OSPI_FLAG_BUSY) != RESET)
 5676              		.loc 1 2846 9
 5677 001e FB68     		ldr	r3, [r7, #12]
 5678 0020 1B68     		ldr	r3, [r3]
 5679 0022 1B6A     		ldr	r3, [r3, #32]
 5680 0024 03F02003 		and	r3, r3, #32
 5681              		.loc 1 2846 8
 5682 0028 002B     		cmp	r3, #0
ARM GAS  C:\Users\Morroway\AppData\Local\Temp\ccxQAUQ3.s 			page 150


 5683 002a 14D0     		beq	.L254
2847:Drivers/STM32L4xx_HAL_Driver/Src/stm32l4xx_hal_ospi.c ****     {
2848:Drivers/STM32L4xx_HAL_Driver/Src/stm32l4xx_hal_ospi.c ****       /* Clear transfer complete flag */
2849:Drivers/STM32L4xx_HAL_Driver/Src/stm32l4xx_hal_ospi.c ****       __HAL_OSPI_CLEAR_FLAG(hospi, HAL_OSPI_FLAG_TC);
 5684              		.loc 1 2849 7
 5685 002c FB68     		ldr	r3, [r7, #12]
 5686 002e 1B68     		ldr	r3, [r3]
 5687 0030 0222     		movs	r2, #2
 5688 0032 5A62     		str	r2, [r3, #36]
2850:Drivers/STM32L4xx_HAL_Driver/Src/stm32l4xx_hal_ospi.c **** 
2851:Drivers/STM32L4xx_HAL_Driver/Src/stm32l4xx_hal_ospi.c ****       /* Enable the transfer complete interrupts */
2852:Drivers/STM32L4xx_HAL_Driver/Src/stm32l4xx_hal_ospi.c ****       __HAL_OSPI_ENABLE_IT(hospi, HAL_OSPI_IT_TC);
 5689              		.loc 1 2852 7
 5690 0034 FB68     		ldr	r3, [r7, #12]
 5691 0036 1B68     		ldr	r3, [r3]
 5692 0038 1A68     		ldr	r2, [r3]
 5693 003a FB68     		ldr	r3, [r7, #12]
 5694 003c 1B68     		ldr	r3, [r3]
 5695 003e 42F40032 		orr	r2, r2, #131072
 5696 0042 1A60     		str	r2, [r3]
2853:Drivers/STM32L4xx_HAL_Driver/Src/stm32l4xx_hal_ospi.c **** 
2854:Drivers/STM32L4xx_HAL_Driver/Src/stm32l4xx_hal_ospi.c ****       /* Perform an abort of the OctoSPI */
2855:Drivers/STM32L4xx_HAL_Driver/Src/stm32l4xx_hal_ospi.c ****       SET_BIT(hospi->Instance->CR, OCTOSPI_CR_ABORT);
 5697              		.loc 1 2855 7
 5698 0044 FB68     		ldr	r3, [r7, #12]
 5699 0046 1B68     		ldr	r3, [r3]
 5700 0048 1A68     		ldr	r2, [r3]
 5701 004a FB68     		ldr	r3, [r7, #12]
 5702 004c 1B68     		ldr	r3, [r3]
 5703 004e 42F00202 		orr	r2, r2, #2
 5704 0052 1A60     		str	r2, [r3]
2856:Drivers/STM32L4xx_HAL_Driver/Src/stm32l4xx_hal_ospi.c ****     }
2857:Drivers/STM32L4xx_HAL_Driver/Src/stm32l4xx_hal_ospi.c ****     else
2858:Drivers/STM32L4xx_HAL_Driver/Src/stm32l4xx_hal_ospi.c ****     {
2859:Drivers/STM32L4xx_HAL_Driver/Src/stm32l4xx_hal_ospi.c ****       /* Update state */
2860:Drivers/STM32L4xx_HAL_Driver/Src/stm32l4xx_hal_ospi.c ****       hospi->State = HAL_OSPI_STATE_READY;
2861:Drivers/STM32L4xx_HAL_Driver/Src/stm32l4xx_hal_ospi.c **** 
2862:Drivers/STM32L4xx_HAL_Driver/Src/stm32l4xx_hal_ospi.c ****       /* Abort callback */
2863:Drivers/STM32L4xx_HAL_Driver/Src/stm32l4xx_hal_ospi.c **** #if defined (USE_HAL_OSPI_REGISTER_CALLBACKS) && (USE_HAL_OSPI_REGISTER_CALLBACKS == 1U)
2864:Drivers/STM32L4xx_HAL_Driver/Src/stm32l4xx_hal_ospi.c ****       hospi->AbortCpltCallback(hospi);
2865:Drivers/STM32L4xx_HAL_Driver/Src/stm32l4xx_hal_ospi.c **** #else
2866:Drivers/STM32L4xx_HAL_Driver/Src/stm32l4xx_hal_ospi.c ****       HAL_OSPI_AbortCpltCallback(hospi);
2867:Drivers/STM32L4xx_HAL_Driver/Src/stm32l4xx_hal_ospi.c **** #endif /* (USE_HAL_OSPI_REGISTER_CALLBACKS) && (USE_HAL_OSPI_REGISTER_CALLBACKS == 1U) */
2868:Drivers/STM32L4xx_HAL_Driver/Src/stm32l4xx_hal_ospi.c ****     }
2869:Drivers/STM32L4xx_HAL_Driver/Src/stm32l4xx_hal_ospi.c ****   }
2870:Drivers/STM32L4xx_HAL_Driver/Src/stm32l4xx_hal_ospi.c ****   else
2871:Drivers/STM32L4xx_HAL_Driver/Src/stm32l4xx_hal_ospi.c ****   {
2872:Drivers/STM32L4xx_HAL_Driver/Src/stm32l4xx_hal_ospi.c ****     /* DMA abort called due to a transfer error interrupt */
2873:Drivers/STM32L4xx_HAL_Driver/Src/stm32l4xx_hal_ospi.c ****     /* Update state */
2874:Drivers/STM32L4xx_HAL_Driver/Src/stm32l4xx_hal_ospi.c ****     hospi->State = HAL_OSPI_STATE_READY;
2875:Drivers/STM32L4xx_HAL_Driver/Src/stm32l4xx_hal_ospi.c **** 
2876:Drivers/STM32L4xx_HAL_Driver/Src/stm32l4xx_hal_ospi.c ****     /* Error callback */
2877:Drivers/STM32L4xx_HAL_Driver/Src/stm32l4xx_hal_ospi.c **** #if defined (USE_HAL_OSPI_REGISTER_CALLBACKS) && (USE_HAL_OSPI_REGISTER_CALLBACKS == 1U)
2878:Drivers/STM32L4xx_HAL_Driver/Src/stm32l4xx_hal_ospi.c ****     hospi->ErrorCallback(hospi);
2879:Drivers/STM32L4xx_HAL_Driver/Src/stm32l4xx_hal_ospi.c **** #else
2880:Drivers/STM32L4xx_HAL_Driver/Src/stm32l4xx_hal_ospi.c ****     HAL_OSPI_ErrorCallback(hospi);
2881:Drivers/STM32L4xx_HAL_Driver/Src/stm32l4xx_hal_ospi.c **** #endif /* (USE_HAL_OSPI_REGISTER_CALLBACKS) && (USE_HAL_OSPI_REGISTER_CALLBACKS == 1U)*/
ARM GAS  C:\Users\Morroway\AppData\Local\Temp\ccxQAUQ3.s 			page 151


2882:Drivers/STM32L4xx_HAL_Driver/Src/stm32l4xx_hal_ospi.c ****   }
2883:Drivers/STM32L4xx_HAL_Driver/Src/stm32l4xx_hal_ospi.c **** }
 5705              		.loc 1 2883 1
 5706 0054 0CE0     		b	.L256
 5707              	.L254:
2860:Drivers/STM32L4xx_HAL_Driver/Src/stm32l4xx_hal_ospi.c **** 
 5708              		.loc 1 2860 20
 5709 0056 FB68     		ldr	r3, [r7, #12]
 5710 0058 0222     		movs	r2, #2
 5711 005a DA64     		str	r2, [r3, #76]
2866:Drivers/STM32L4xx_HAL_Driver/Src/stm32l4xx_hal_ospi.c **** #endif /* (USE_HAL_OSPI_REGISTER_CALLBACKS) && (USE_HAL_OSPI_REGISTER_CALLBACKS == 1U) */
 5712              		.loc 1 2866 7
 5713 005c F868     		ldr	r0, [r7, #12]
 5714 005e FFF7FEFF 		bl	HAL_OSPI_AbortCpltCallback
 5715              		.loc 1 2883 1
 5716 0062 05E0     		b	.L256
 5717              	.L253:
2874:Drivers/STM32L4xx_HAL_Driver/Src/stm32l4xx_hal_ospi.c **** 
 5718              		.loc 1 2874 18
 5719 0064 FB68     		ldr	r3, [r7, #12]
 5720 0066 0222     		movs	r2, #2
 5721 0068 DA64     		str	r2, [r3, #76]
2880:Drivers/STM32L4xx_HAL_Driver/Src/stm32l4xx_hal_ospi.c **** #endif /* (USE_HAL_OSPI_REGISTER_CALLBACKS) && (USE_HAL_OSPI_REGISTER_CALLBACKS == 1U)*/
 5722              		.loc 1 2880 5
 5723 006a F868     		ldr	r0, [r7, #12]
 5724 006c FFF7FEFF 		bl	HAL_OSPI_ErrorCallback
 5725              	.L256:
 5726              		.loc 1 2883 1
 5727 0070 00BF     		nop
 5728 0072 1037     		adds	r7, r7, #16
 5729              		.cfi_def_cfa_offset 8
 5730 0074 BD46     		mov	sp, r7
 5731              		.cfi_def_cfa_register 13
 5732              		@ sp needed
 5733 0076 80BD     		pop	{r7, pc}
 5734              		.cfi_endproc
 5735              	.LFE360:
 5737              		.section	.text.OSPI_WaitFlagStateUntilTimeout,"ax",%progbits
 5738              		.align	1
 5739              		.syntax unified
 5740              		.thumb
 5741              		.thumb_func
 5743              	OSPI_WaitFlagStateUntilTimeout:
 5744              	.LFB361:
2884:Drivers/STM32L4xx_HAL_Driver/Src/stm32l4xx_hal_ospi.c **** 
2885:Drivers/STM32L4xx_HAL_Driver/Src/stm32l4xx_hal_ospi.c **** /**
2886:Drivers/STM32L4xx_HAL_Driver/Src/stm32l4xx_hal_ospi.c ****   * @brief  Wait for a flag state until timeout.
2887:Drivers/STM32L4xx_HAL_Driver/Src/stm32l4xx_hal_ospi.c ****   * @param  hospi     : OSPI handle
2888:Drivers/STM32L4xx_HAL_Driver/Src/stm32l4xx_hal_ospi.c ****   * @param  Flag      : Flag checked
2889:Drivers/STM32L4xx_HAL_Driver/Src/stm32l4xx_hal_ospi.c ****   * @param  State     : Value of the flag expected
2890:Drivers/STM32L4xx_HAL_Driver/Src/stm32l4xx_hal_ospi.c ****   * @param  Timeout   : Duration of the timeout
2891:Drivers/STM32L4xx_HAL_Driver/Src/stm32l4xx_hal_ospi.c ****   * @param  Tickstart : Tick start value
2892:Drivers/STM32L4xx_HAL_Driver/Src/stm32l4xx_hal_ospi.c ****   * @retval HAL status
2893:Drivers/STM32L4xx_HAL_Driver/Src/stm32l4xx_hal_ospi.c ****   */
2894:Drivers/STM32L4xx_HAL_Driver/Src/stm32l4xx_hal_ospi.c **** static HAL_StatusTypeDef OSPI_WaitFlagStateUntilTimeout(OSPI_HandleTypeDef *hospi, uint32_t Flag,
2895:Drivers/STM32L4xx_HAL_Driver/Src/stm32l4xx_hal_ospi.c ****                                                         FlagStatus State, uint32_t Tickstart, uint3
2896:Drivers/STM32L4xx_HAL_Driver/Src/stm32l4xx_hal_ospi.c **** {
ARM GAS  C:\Users\Morroway\AppData\Local\Temp\ccxQAUQ3.s 			page 152


 5745              		.loc 1 2896 1
 5746              		.cfi_startproc
 5747              		@ args = 4, pretend = 0, frame = 16
 5748              		@ frame_needed = 1, uses_anonymous_args = 0
 5749 0000 80B5     		push	{r7, lr}
 5750              		.cfi_def_cfa_offset 8
 5751              		.cfi_offset 7, -8
 5752              		.cfi_offset 14, -4
 5753 0002 84B0     		sub	sp, sp, #16
 5754              		.cfi_def_cfa_offset 24
 5755 0004 00AF     		add	r7, sp, #0
 5756              		.cfi_def_cfa_register 7
 5757 0006 F860     		str	r0, [r7, #12]
 5758 0008 B960     		str	r1, [r7, #8]
 5759 000a 3B60     		str	r3, [r7]
 5760 000c 1346     		mov	r3, r2
 5761 000e FB71     		strb	r3, [r7, #7]
2897:Drivers/STM32L4xx_HAL_Driver/Src/stm32l4xx_hal_ospi.c ****   /* Wait until flag is in expected state */
2898:Drivers/STM32L4xx_HAL_Driver/Src/stm32l4xx_hal_ospi.c ****   while((__HAL_OSPI_GET_FLAG(hospi, Flag)) != State)
 5762              		.loc 1 2898 8
 5763 0010 1AE0     		b	.L258
 5764              	.L261:
2899:Drivers/STM32L4xx_HAL_Driver/Src/stm32l4xx_hal_ospi.c ****   {
2900:Drivers/STM32L4xx_HAL_Driver/Src/stm32l4xx_hal_ospi.c ****     /* Check for the Timeout */
2901:Drivers/STM32L4xx_HAL_Driver/Src/stm32l4xx_hal_ospi.c ****     if (Timeout != HAL_MAX_DELAY)
 5765              		.loc 1 2901 8
 5766 0012 BB69     		ldr	r3, [r7, #24]
 5767 0014 B3F1FF3F 		cmp	r3, #-1
 5768 0018 16D0     		beq	.L258
2902:Drivers/STM32L4xx_HAL_Driver/Src/stm32l4xx_hal_ospi.c ****     {
2903:Drivers/STM32L4xx_HAL_Driver/Src/stm32l4xx_hal_ospi.c ****       if(((HAL_GetTick() - Tickstart) > Timeout) || (Timeout == 0U))
 5769              		.loc 1 2903 12
 5770 001a FFF7FEFF 		bl	HAL_GetTick
 5771 001e 0246     		mov	r2, r0
 5772              		.loc 1 2903 26
 5773 0020 3B68     		ldr	r3, [r7]
 5774 0022 D31A     		subs	r3, r2, r3
 5775              		.loc 1 2903 9
 5776 0024 BA69     		ldr	r2, [r7, #24]
 5777 0026 9A42     		cmp	r2, r3
 5778 0028 02D3     		bcc	.L259
 5779              		.loc 1 2903 50 discriminator 1
 5780 002a BB69     		ldr	r3, [r7, #24]
 5781 002c 002B     		cmp	r3, #0
 5782 002e 0BD1     		bne	.L258
 5783              	.L259:
2904:Drivers/STM32L4xx_HAL_Driver/Src/stm32l4xx_hal_ospi.c ****       {
2905:Drivers/STM32L4xx_HAL_Driver/Src/stm32l4xx_hal_ospi.c ****         hospi->State     = HAL_OSPI_STATE_ERROR;
 5784              		.loc 1 2905 26
 5785 0030 FB68     		ldr	r3, [r7, #12]
 5786 0032 4FF40072 		mov	r2, #512
 5787 0036 DA64     		str	r2, [r3, #76]
2906:Drivers/STM32L4xx_HAL_Driver/Src/stm32l4xx_hal_ospi.c ****         hospi->ErrorCode |= HAL_OSPI_ERROR_TIMEOUT;
 5788              		.loc 1 2906 26
 5789 0038 FB68     		ldr	r3, [r7, #12]
 5790 003a 1B6D     		ldr	r3, [r3, #80]
 5791 003c 43F00102 		orr	r2, r3, #1
ARM GAS  C:\Users\Morroway\AppData\Local\Temp\ccxQAUQ3.s 			page 153


 5792 0040 FB68     		ldr	r3, [r7, #12]
 5793 0042 1A65     		str	r2, [r3, #80]
2907:Drivers/STM32L4xx_HAL_Driver/Src/stm32l4xx_hal_ospi.c **** 
2908:Drivers/STM32L4xx_HAL_Driver/Src/stm32l4xx_hal_ospi.c ****         return HAL_ERROR;
 5794              		.loc 1 2908 16
 5795 0044 0123     		movs	r3, #1
 5796 0046 0EE0     		b	.L260
 5797              	.L258:
2898:Drivers/STM32L4xx_HAL_Driver/Src/stm32l4xx_hal_ospi.c ****   {
 5798              		.loc 1 2898 10
 5799 0048 FB68     		ldr	r3, [r7, #12]
 5800 004a 1B68     		ldr	r3, [r3]
 5801 004c 1A6A     		ldr	r2, [r3, #32]
 5802 004e BB68     		ldr	r3, [r7, #8]
 5803 0050 1340     		ands	r3, r3, r2
 5804 0052 002B     		cmp	r3, #0
 5805 0054 14BF     		ite	ne
 5806 0056 0123     		movne	r3, #1
 5807 0058 0023     		moveq	r3, #0
 5808 005a DBB2     		uxtb	r3, r3
 5809 005c 1A46     		mov	r2, r3
2898:Drivers/STM32L4xx_HAL_Driver/Src/stm32l4xx_hal_ospi.c ****   {
 5810              		.loc 1 2898 44
 5811 005e FB79     		ldrb	r3, [r7, #7]	@ zero_extendqisi2
 5812 0060 9A42     		cmp	r2, r3
 5813 0062 D6D1     		bne	.L261
2909:Drivers/STM32L4xx_HAL_Driver/Src/stm32l4xx_hal_ospi.c ****       }
2910:Drivers/STM32L4xx_HAL_Driver/Src/stm32l4xx_hal_ospi.c ****     }
2911:Drivers/STM32L4xx_HAL_Driver/Src/stm32l4xx_hal_ospi.c ****   }
2912:Drivers/STM32L4xx_HAL_Driver/Src/stm32l4xx_hal_ospi.c ****   return HAL_OK;
 5814              		.loc 1 2912 10
 5815 0064 0023     		movs	r3, #0
 5816              	.L260:
2913:Drivers/STM32L4xx_HAL_Driver/Src/stm32l4xx_hal_ospi.c **** }
 5817              		.loc 1 2913 1
 5818 0066 1846     		mov	r0, r3
 5819 0068 1037     		adds	r7, r7, #16
 5820              		.cfi_def_cfa_offset 8
 5821 006a BD46     		mov	sp, r7
 5822              		.cfi_def_cfa_register 13
 5823              		@ sp needed
 5824 006c 80BD     		pop	{r7, pc}
 5825              		.cfi_endproc
 5826              	.LFE361:
 5828              		.section	.text.OSPI_ConfigCmd,"ax",%progbits
 5829              		.align	1
 5830              		.syntax unified
 5831              		.thumb
 5832              		.thumb_func
 5834              	OSPI_ConfigCmd:
 5835              	.LFB362:
2914:Drivers/STM32L4xx_HAL_Driver/Src/stm32l4xx_hal_ospi.c **** 
2915:Drivers/STM32L4xx_HAL_Driver/Src/stm32l4xx_hal_ospi.c **** /**
2916:Drivers/STM32L4xx_HAL_Driver/Src/stm32l4xx_hal_ospi.c ****   * @brief  Configure the registers for the regular command mode.
2917:Drivers/STM32L4xx_HAL_Driver/Src/stm32l4xx_hal_ospi.c ****   * @param  hospi : OSPI handle
2918:Drivers/STM32L4xx_HAL_Driver/Src/stm32l4xx_hal_ospi.c ****   * @param  cmd   : structure that contains the command configuration information
2919:Drivers/STM32L4xx_HAL_Driver/Src/stm32l4xx_hal_ospi.c ****   * @retval HAL status
ARM GAS  C:\Users\Morroway\AppData\Local\Temp\ccxQAUQ3.s 			page 154


2920:Drivers/STM32L4xx_HAL_Driver/Src/stm32l4xx_hal_ospi.c ****   */
2921:Drivers/STM32L4xx_HAL_Driver/Src/stm32l4xx_hal_ospi.c **** static HAL_StatusTypeDef OSPI_ConfigCmd(OSPI_HandleTypeDef *hospi, OSPI_RegularCmdTypeDef *cmd)
2922:Drivers/STM32L4xx_HAL_Driver/Src/stm32l4xx_hal_ospi.c **** {
 5836              		.loc 1 2922 1
 5837              		.cfi_startproc
 5838              		@ args = 0, pretend = 0, frame = 32
 5839              		@ frame_needed = 1, uses_anonymous_args = 0
 5840              		@ link register save eliminated.
 5841 0000 80B4     		push	{r7}
 5842              		.cfi_def_cfa_offset 4
 5843              		.cfi_offset 7, -4
 5844 0002 89B0     		sub	sp, sp, #36
 5845              		.cfi_def_cfa_offset 40
 5846 0004 00AF     		add	r7, sp, #0
 5847              		.cfi_def_cfa_register 7
 5848 0006 7860     		str	r0, [r7, #4]
 5849 0008 3960     		str	r1, [r7]
2923:Drivers/STM32L4xx_HAL_Driver/Src/stm32l4xx_hal_ospi.c ****   HAL_StatusTypeDef status = HAL_OK;
 5850              		.loc 1 2923 21
 5851 000a 0023     		movs	r3, #0
 5852 000c FB77     		strb	r3, [r7, #31]
2924:Drivers/STM32L4xx_HAL_Driver/Src/stm32l4xx_hal_ospi.c ****   __IO uint32_t *ccr_reg;
2925:Drivers/STM32L4xx_HAL_Driver/Src/stm32l4xx_hal_ospi.c ****   __IO uint32_t *tcr_reg;
2926:Drivers/STM32L4xx_HAL_Driver/Src/stm32l4xx_hal_ospi.c ****   __IO uint32_t *ir_reg;
2927:Drivers/STM32L4xx_HAL_Driver/Src/stm32l4xx_hal_ospi.c ****   __IO uint32_t *abr_reg;
2928:Drivers/STM32L4xx_HAL_Driver/Src/stm32l4xx_hal_ospi.c **** 
2929:Drivers/STM32L4xx_HAL_Driver/Src/stm32l4xx_hal_ospi.c ****   /* Re-initialize the value of the functional mode */
2930:Drivers/STM32L4xx_HAL_Driver/Src/stm32l4xx_hal_ospi.c ****   MODIFY_REG(hospi->Instance->CR, OCTOSPI_CR_FMODE, 0U);
 5853              		.loc 1 2930 3
 5854 000e 7B68     		ldr	r3, [r7, #4]
 5855 0010 1B68     		ldr	r3, [r3]
 5856 0012 1A68     		ldr	r2, [r3]
 5857 0014 7B68     		ldr	r3, [r7, #4]
 5858 0016 1B68     		ldr	r3, [r3]
 5859 0018 22F04052 		bic	r2, r2, #805306368
 5860 001c 1A60     		str	r2, [r3]
2931:Drivers/STM32L4xx_HAL_Driver/Src/stm32l4xx_hal_ospi.c **** 
2932:Drivers/STM32L4xx_HAL_Driver/Src/stm32l4xx_hal_ospi.c ****   /* Configure the flash ID */
2933:Drivers/STM32L4xx_HAL_Driver/Src/stm32l4xx_hal_ospi.c ****   if (hospi->Init.DualQuad == HAL_OSPI_DUALQUAD_DISABLE)
 5861              		.loc 1 2933 18
 5862 001e 7B68     		ldr	r3, [r7, #4]
 5863 0020 9B68     		ldr	r3, [r3, #8]
 5864              		.loc 1 2933 6
 5865 0022 002B     		cmp	r3, #0
 5866 0024 0AD1     		bne	.L263
2934:Drivers/STM32L4xx_HAL_Driver/Src/stm32l4xx_hal_ospi.c ****   {
2935:Drivers/STM32L4xx_HAL_Driver/Src/stm32l4xx_hal_ospi.c ****     MODIFY_REG(hospi->Instance->CR, OCTOSPI_CR_FSEL, cmd->FlashId);
 5867              		.loc 1 2935 5
 5868 0026 7B68     		ldr	r3, [r7, #4]
 5869 0028 1B68     		ldr	r3, [r3]
 5870 002a 1B68     		ldr	r3, [r3]
 5871 002c 23F08001 		bic	r1, r3, #128
 5872 0030 3B68     		ldr	r3, [r7]
 5873 0032 5A68     		ldr	r2, [r3, #4]
 5874 0034 7B68     		ldr	r3, [r7, #4]
 5875 0036 1B68     		ldr	r3, [r3]
 5876 0038 0A43     		orrs	r2, r2, r1
ARM GAS  C:\Users\Morroway\AppData\Local\Temp\ccxQAUQ3.s 			page 155


 5877 003a 1A60     		str	r2, [r3]
 5878              	.L263:
2936:Drivers/STM32L4xx_HAL_Driver/Src/stm32l4xx_hal_ospi.c ****   }
2937:Drivers/STM32L4xx_HAL_Driver/Src/stm32l4xx_hal_ospi.c **** 
2938:Drivers/STM32L4xx_HAL_Driver/Src/stm32l4xx_hal_ospi.c ****   if (cmd->OperationType == HAL_OSPI_OPTYPE_WRITE_CFG)
 5879              		.loc 1 2938 10
 5880 003c 3B68     		ldr	r3, [r7]
 5881 003e 1B68     		ldr	r3, [r3]
 5882              		.loc 1 2938 6
 5883 0040 022B     		cmp	r3, #2
 5884 0042 14D1     		bne	.L264
2939:Drivers/STM32L4xx_HAL_Driver/Src/stm32l4xx_hal_ospi.c ****   {
2940:Drivers/STM32L4xx_HAL_Driver/Src/stm32l4xx_hal_ospi.c ****     ccr_reg = &(hospi->Instance->WCCR);
 5885              		.loc 1 2940 22
 5886 0044 7B68     		ldr	r3, [r7, #4]
 5887 0046 1B68     		ldr	r3, [r3]
 5888              		.loc 1 2940 13
 5889 0048 03F5C073 		add	r3, r3, #384
 5890 004c BB61     		str	r3, [r7, #24]
2941:Drivers/STM32L4xx_HAL_Driver/Src/stm32l4xx_hal_ospi.c ****     tcr_reg = &(hospi->Instance->WTCR);
 5891              		.loc 1 2941 22
 5892 004e 7B68     		ldr	r3, [r7, #4]
 5893 0050 1B68     		ldr	r3, [r3]
 5894              		.loc 1 2941 13
 5895 0052 03F5C473 		add	r3, r3, #392
 5896 0056 7B61     		str	r3, [r7, #20]
2942:Drivers/STM32L4xx_HAL_Driver/Src/stm32l4xx_hal_ospi.c ****     ir_reg  = &(hospi->Instance->WIR);
 5897              		.loc 1 2942 22
 5898 0058 7B68     		ldr	r3, [r7, #4]
 5899 005a 1B68     		ldr	r3, [r3]
 5900              		.loc 1 2942 13
 5901 005c 03F5C873 		add	r3, r3, #400
 5902 0060 3B61     		str	r3, [r7, #16]
2943:Drivers/STM32L4xx_HAL_Driver/Src/stm32l4xx_hal_ospi.c ****     abr_reg = &(hospi->Instance->WABR);
 5903              		.loc 1 2943 22
 5904 0062 7B68     		ldr	r3, [r7, #4]
 5905 0064 1B68     		ldr	r3, [r3]
 5906              		.loc 1 2943 13
 5907 0066 03F5D073 		add	r3, r3, #416
 5908 006a FB60     		str	r3, [r7, #12]
 5909 006c 13E0     		b	.L265
 5910              	.L264:
2944:Drivers/STM32L4xx_HAL_Driver/Src/stm32l4xx_hal_ospi.c ****   }
2945:Drivers/STM32L4xx_HAL_Driver/Src/stm32l4xx_hal_ospi.c ****   else
2946:Drivers/STM32L4xx_HAL_Driver/Src/stm32l4xx_hal_ospi.c ****   {
2947:Drivers/STM32L4xx_HAL_Driver/Src/stm32l4xx_hal_ospi.c ****     ccr_reg = &(hospi->Instance->CCR);
 5911              		.loc 1 2947 22
 5912 006e 7B68     		ldr	r3, [r7, #4]
 5913 0070 1B68     		ldr	r3, [r3]
 5914              		.loc 1 2947 13
 5915 0072 03F58073 		add	r3, r3, #256
 5916 0076 BB61     		str	r3, [r7, #24]
2948:Drivers/STM32L4xx_HAL_Driver/Src/stm32l4xx_hal_ospi.c ****     tcr_reg = &(hospi->Instance->TCR);
 5917              		.loc 1 2948 22
 5918 0078 7B68     		ldr	r3, [r7, #4]
 5919 007a 1B68     		ldr	r3, [r3]
 5920              		.loc 1 2948 13
ARM GAS  C:\Users\Morroway\AppData\Local\Temp\ccxQAUQ3.s 			page 156


 5921 007c 03F58473 		add	r3, r3, #264
 5922 0080 7B61     		str	r3, [r7, #20]
2949:Drivers/STM32L4xx_HAL_Driver/Src/stm32l4xx_hal_ospi.c ****     ir_reg  = &(hospi->Instance->IR);
 5923              		.loc 1 2949 22
 5924 0082 7B68     		ldr	r3, [r7, #4]
 5925 0084 1B68     		ldr	r3, [r3]
 5926              		.loc 1 2949 13
 5927 0086 03F58873 		add	r3, r3, #272
 5928 008a 3B61     		str	r3, [r7, #16]
2950:Drivers/STM32L4xx_HAL_Driver/Src/stm32l4xx_hal_ospi.c ****     abr_reg = &(hospi->Instance->ABR);
 5929              		.loc 1 2950 22
 5930 008c 7B68     		ldr	r3, [r7, #4]
 5931 008e 1B68     		ldr	r3, [r3]
 5932              		.loc 1 2950 13
 5933 0090 03F59073 		add	r3, r3, #288
 5934 0094 FB60     		str	r3, [r7, #12]
 5935              	.L265:
2951:Drivers/STM32L4xx_HAL_Driver/Src/stm32l4xx_hal_ospi.c ****   }
2952:Drivers/STM32L4xx_HAL_Driver/Src/stm32l4xx_hal_ospi.c **** 
2953:Drivers/STM32L4xx_HAL_Driver/Src/stm32l4xx_hal_ospi.c ****   /* Configure the CCR register with DQS and SIOO modes */
2954:Drivers/STM32L4xx_HAL_Driver/Src/stm32l4xx_hal_ospi.c ****   *ccr_reg = (cmd->DQSMode | cmd->SIOOMode);
 5936              		.loc 1 2954 18
 5937 0096 3B68     		ldr	r3, [r7]
 5938 0098 9A6C     		ldr	r2, [r3, #72]
 5939              		.loc 1 2954 33
 5940 009a 3B68     		ldr	r3, [r7]
 5941 009c DB6C     		ldr	r3, [r3, #76]
 5942              		.loc 1 2954 28
 5943 009e 1A43     		orrs	r2, r2, r3
 5944              		.loc 1 2954 12
 5945 00a0 BB69     		ldr	r3, [r7, #24]
 5946 00a2 1A60     		str	r2, [r3]
2955:Drivers/STM32L4xx_HAL_Driver/Src/stm32l4xx_hal_ospi.c **** 
2956:Drivers/STM32L4xx_HAL_Driver/Src/stm32l4xx_hal_ospi.c ****   if (cmd->AlternateBytesMode != HAL_OSPI_ALTERNATE_BYTES_NONE)
 5947              		.loc 1 2956 10
 5948 00a4 3B68     		ldr	r3, [r7]
 5949 00a6 DB6A     		ldr	r3, [r3, #44]
 5950              		.loc 1 2956 6
 5951 00a8 002B     		cmp	r3, #0
 5952 00aa 12D0     		beq	.L266
2957:Drivers/STM32L4xx_HAL_Driver/Src/stm32l4xx_hal_ospi.c ****   {
2958:Drivers/STM32L4xx_HAL_Driver/Src/stm32l4xx_hal_ospi.c ****     /* Configure the ABR register with alternate bytes value */
2959:Drivers/STM32L4xx_HAL_Driver/Src/stm32l4xx_hal_ospi.c ****     *abr_reg = cmd->AlternateBytes;
 5953              		.loc 1 2959 19
 5954 00ac 3B68     		ldr	r3, [r7]
 5955 00ae 9A6A     		ldr	r2, [r3, #40]
 5956              		.loc 1 2959 14
 5957 00b0 FB68     		ldr	r3, [r7, #12]
 5958 00b2 1A60     		str	r2, [r3]
2960:Drivers/STM32L4xx_HAL_Driver/Src/stm32l4xx_hal_ospi.c **** 
2961:Drivers/STM32L4xx_HAL_Driver/Src/stm32l4xx_hal_ospi.c ****     /* Configure the CCR register with alternate bytes communication parameters */
2962:Drivers/STM32L4xx_HAL_Driver/Src/stm32l4xx_hal_ospi.c ****     MODIFY_REG((*ccr_reg), (OCTOSPI_CCR_ABMODE | OCTOSPI_CCR_ABDTR | OCTOSPI_CCR_ABSIZE),
 5959              		.loc 1 2962 5
 5960 00b4 BB69     		ldr	r3, [r7, #24]
 5961 00b6 1B68     		ldr	r3, [r3]
 5962 00b8 23F47C12 		bic	r2, r3, #4128768
 5963 00bc 3B68     		ldr	r3, [r7]
ARM GAS  C:\Users\Morroway\AppData\Local\Temp\ccxQAUQ3.s 			page 157


 5964 00be D96A     		ldr	r1, [r3, #44]
 5965 00c0 3B68     		ldr	r3, [r7]
 5966 00c2 5B6B     		ldr	r3, [r3, #52]
 5967 00c4 1943     		orrs	r1, r1, r3
 5968 00c6 3B68     		ldr	r3, [r7]
 5969 00c8 1B6B     		ldr	r3, [r3, #48]
 5970 00ca 0B43     		orrs	r3, r3, r1
 5971 00cc 1A43     		orrs	r2, r2, r3
 5972 00ce BB69     		ldr	r3, [r7, #24]
 5973 00d0 1A60     		str	r2, [r3]
 5974              	.L266:
2963:Drivers/STM32L4xx_HAL_Driver/Src/stm32l4xx_hal_ospi.c ****                            (cmd->AlternateBytesMode | cmd->AlternateBytesDtrMode | cmd->AlternateBy
2964:Drivers/STM32L4xx_HAL_Driver/Src/stm32l4xx_hal_ospi.c ****   }
2965:Drivers/STM32L4xx_HAL_Driver/Src/stm32l4xx_hal_ospi.c **** 
2966:Drivers/STM32L4xx_HAL_Driver/Src/stm32l4xx_hal_ospi.c ****   /* Configure the TCR register with the number of dummy cycles */
2967:Drivers/STM32L4xx_HAL_Driver/Src/stm32l4xx_hal_ospi.c ****   MODIFY_REG((*tcr_reg), OCTOSPI_TCR_DCYC, cmd->DummyCycles);
 5975              		.loc 1 2967 3
 5976 00d2 7B69     		ldr	r3, [r7, #20]
 5977 00d4 1B68     		ldr	r3, [r3]
 5978 00d6 23F01F02 		bic	r2, r3, #31
 5979 00da 3B68     		ldr	r3, [r7]
 5980 00dc 5B6C     		ldr	r3, [r3, #68]
 5981 00de 1A43     		orrs	r2, r2, r3
 5982 00e0 7B69     		ldr	r3, [r7, #20]
 5983 00e2 1A60     		str	r2, [r3]
2968:Drivers/STM32L4xx_HAL_Driver/Src/stm32l4xx_hal_ospi.c **** 
2969:Drivers/STM32L4xx_HAL_Driver/Src/stm32l4xx_hal_ospi.c ****   if (cmd->DataMode != HAL_OSPI_DATA_NONE)
 5984              		.loc 1 2969 10
 5985 00e4 3B68     		ldr	r3, [r7]
 5986 00e6 9B6B     		ldr	r3, [r3, #56]
 5987              		.loc 1 2969 6
 5988 00e8 002B     		cmp	r3, #0
 5989 00ea 09D0     		beq	.L267
2970:Drivers/STM32L4xx_HAL_Driver/Src/stm32l4xx_hal_ospi.c ****   {
2971:Drivers/STM32L4xx_HAL_Driver/Src/stm32l4xx_hal_ospi.c ****     if (cmd->OperationType == HAL_OSPI_OPTYPE_COMMON_CFG)
 5990              		.loc 1 2971 12
 5991 00ec 3B68     		ldr	r3, [r7]
 5992 00ee 1B68     		ldr	r3, [r3]
 5993              		.loc 1 2971 8
 5994 00f0 002B     		cmp	r3, #0
 5995 00f2 05D1     		bne	.L267
2972:Drivers/STM32L4xx_HAL_Driver/Src/stm32l4xx_hal_ospi.c ****     {
2973:Drivers/STM32L4xx_HAL_Driver/Src/stm32l4xx_hal_ospi.c ****       /* Configure the DLR register with the number of data */
2974:Drivers/STM32L4xx_HAL_Driver/Src/stm32l4xx_hal_ospi.c ****       hospi->Instance->DLR = (cmd->NbData - 1U);
 5996              		.loc 1 2974 34
 5997 00f4 3B68     		ldr	r3, [r7]
 5998 00f6 DA6B     		ldr	r2, [r3, #60]
 5999              		.loc 1 2974 12
 6000 00f8 7B68     		ldr	r3, [r7, #4]
 6001 00fa 1B68     		ldr	r3, [r3]
 6002              		.loc 1 2974 43
 6003 00fc 013A     		subs	r2, r2, #1
 6004              		.loc 1 2974 28
 6005 00fe 1A64     		str	r2, [r3, #64]
 6006              	.L267:
2975:Drivers/STM32L4xx_HAL_Driver/Src/stm32l4xx_hal_ospi.c ****     }
2976:Drivers/STM32L4xx_HAL_Driver/Src/stm32l4xx_hal_ospi.c ****   }
ARM GAS  C:\Users\Morroway\AppData\Local\Temp\ccxQAUQ3.s 			page 158


2977:Drivers/STM32L4xx_HAL_Driver/Src/stm32l4xx_hal_ospi.c **** 
2978:Drivers/STM32L4xx_HAL_Driver/Src/stm32l4xx_hal_ospi.c ****   if (cmd->InstructionMode != HAL_OSPI_INSTRUCTION_NONE)
 6007              		.loc 1 2978 10
 6008 0100 3B68     		ldr	r3, [r7]
 6009 0102 DB68     		ldr	r3, [r3, #12]
 6010              		.loc 1 2978 6
 6011 0104 002B     		cmp	r3, #0
 6012 0106 00F09980 		beq	.L268
2979:Drivers/STM32L4xx_HAL_Driver/Src/stm32l4xx_hal_ospi.c ****   {
2980:Drivers/STM32L4xx_HAL_Driver/Src/stm32l4xx_hal_ospi.c ****     if (cmd->AddressMode != HAL_OSPI_ADDRESS_NONE)
 6013              		.loc 1 2980 12
 6014 010a 3B68     		ldr	r3, [r7]
 6015 010c DB69     		ldr	r3, [r3, #28]
 6016              		.loc 1 2980 8
 6017 010e 002B     		cmp	r3, #0
 6018 0110 55D0     		beq	.L269
2981:Drivers/STM32L4xx_HAL_Driver/Src/stm32l4xx_hal_ospi.c ****     {
2982:Drivers/STM32L4xx_HAL_Driver/Src/stm32l4xx_hal_ospi.c ****       if (cmd->DataMode != HAL_OSPI_DATA_NONE)
 6019              		.loc 1 2982 14
 6020 0112 3B68     		ldr	r3, [r7]
 6021 0114 9B6B     		ldr	r3, [r3, #56]
 6022              		.loc 1 2982 10
 6023 0116 002B     		cmp	r3, #0
 6024 0118 1ED0     		beq	.L270
2983:Drivers/STM32L4xx_HAL_Driver/Src/stm32l4xx_hal_ospi.c ****       {
2984:Drivers/STM32L4xx_HAL_Driver/Src/stm32l4xx_hal_ospi.c ****         /* ---- Command with instruction, address and data ---- */
2985:Drivers/STM32L4xx_HAL_Driver/Src/stm32l4xx_hal_ospi.c **** 
2986:Drivers/STM32L4xx_HAL_Driver/Src/stm32l4xx_hal_ospi.c ****         /* Configure the CCR register with all communication parameters */
2987:Drivers/STM32L4xx_HAL_Driver/Src/stm32l4xx_hal_ospi.c ****         MODIFY_REG((*ccr_reg), (OCTOSPI_CCR_IMODE  | OCTOSPI_CCR_IDTR  | OCTOSPI_CCR_ISIZE  |
 6025              		.loc 1 2987 9
 6026 011a BB69     		ldr	r3, [r7, #24]
 6027 011c 1A68     		ldr	r2, [r3]
 6028 011e 684B     		ldr	r3, .L279
 6029 0120 1340     		ands	r3, r3, r2
 6030 0122 3A68     		ldr	r2, [r7]
 6031 0124 D168     		ldr	r1, [r2, #12]
 6032 0126 3A68     		ldr	r2, [r7]
 6033 0128 5269     		ldr	r2, [r2, #20]
 6034 012a 1143     		orrs	r1, r1, r2
 6035 012c 3A68     		ldr	r2, [r7]
 6036 012e 1269     		ldr	r2, [r2, #16]
 6037 0130 1143     		orrs	r1, r1, r2
 6038 0132 3A68     		ldr	r2, [r7]
 6039 0134 D269     		ldr	r2, [r2, #28]
 6040 0136 1143     		orrs	r1, r1, r2
 6041 0138 3A68     		ldr	r2, [r7]
 6042 013a 526A     		ldr	r2, [r2, #36]
 6043 013c 1143     		orrs	r1, r1, r2
 6044 013e 3A68     		ldr	r2, [r7]
 6045 0140 126A     		ldr	r2, [r2, #32]
 6046 0142 1143     		orrs	r1, r1, r2
 6047 0144 3A68     		ldr	r2, [r7]
 6048 0146 926B     		ldr	r2, [r2, #56]
 6049 0148 1143     		orrs	r1, r1, r2
 6050 014a 3A68     		ldr	r2, [r7]
 6051 014c 126C     		ldr	r2, [r2, #64]
 6052 014e 0A43     		orrs	r2, r2, r1
ARM GAS  C:\Users\Morroway\AppData\Local\Temp\ccxQAUQ3.s 			page 159


 6053 0150 1A43     		orrs	r2, r2, r3
 6054 0152 BB69     		ldr	r3, [r7, #24]
 6055 0154 1A60     		str	r2, [r3]
 6056 0156 28E0     		b	.L271
 6057              	.L270:
2988:Drivers/STM32L4xx_HAL_Driver/Src/stm32l4xx_hal_ospi.c ****                                 OCTOSPI_CCR_ADMODE | OCTOSPI_CCR_ADDTR | OCTOSPI_CCR_ADSIZE |
2989:Drivers/STM32L4xx_HAL_Driver/Src/stm32l4xx_hal_ospi.c ****                                 OCTOSPI_CCR_DMODE  | OCTOSPI_CCR_DDTR),
2990:Drivers/STM32L4xx_HAL_Driver/Src/stm32l4xx_hal_ospi.c ****                                (cmd->InstructionMode | cmd->InstructionDtrMode | cmd->InstructionSi
2991:Drivers/STM32L4xx_HAL_Driver/Src/stm32l4xx_hal_ospi.c ****                                 cmd->AddressMode     | cmd->AddressDtrMode     | cmd->AddressSize  
2992:Drivers/STM32L4xx_HAL_Driver/Src/stm32l4xx_hal_ospi.c ****                                 cmd->DataMode        | cmd->DataDtrMode));
2993:Drivers/STM32L4xx_HAL_Driver/Src/stm32l4xx_hal_ospi.c ****       }
2994:Drivers/STM32L4xx_HAL_Driver/Src/stm32l4xx_hal_ospi.c ****       else
2995:Drivers/STM32L4xx_HAL_Driver/Src/stm32l4xx_hal_ospi.c ****       {
2996:Drivers/STM32L4xx_HAL_Driver/Src/stm32l4xx_hal_ospi.c ****         /* ---- Command with instruction and address ---- */
2997:Drivers/STM32L4xx_HAL_Driver/Src/stm32l4xx_hal_ospi.c **** 
2998:Drivers/STM32L4xx_HAL_Driver/Src/stm32l4xx_hal_ospi.c ****         /* Configure the CCR register with all communication parameters */
2999:Drivers/STM32L4xx_HAL_Driver/Src/stm32l4xx_hal_ospi.c ****         MODIFY_REG((*ccr_reg), (OCTOSPI_CCR_IMODE  | OCTOSPI_CCR_IDTR  | OCTOSPI_CCR_ISIZE  |
 6058              		.loc 1 2999 9
 6059 0158 BB69     		ldr	r3, [r7, #24]
 6060 015a 1B68     		ldr	r3, [r3]
 6061 015c 23F47C53 		bic	r3, r3, #16128
 6062 0160 23F03F03 		bic	r3, r3, #63
 6063 0164 3A68     		ldr	r2, [r7]
 6064 0166 D168     		ldr	r1, [r2, #12]
 6065 0168 3A68     		ldr	r2, [r7]
 6066 016a 5269     		ldr	r2, [r2, #20]
 6067 016c 1143     		orrs	r1, r1, r2
 6068 016e 3A68     		ldr	r2, [r7]
 6069 0170 1269     		ldr	r2, [r2, #16]
 6070 0172 1143     		orrs	r1, r1, r2
 6071 0174 3A68     		ldr	r2, [r7]
 6072 0176 D269     		ldr	r2, [r2, #28]
 6073 0178 1143     		orrs	r1, r1, r2
 6074 017a 3A68     		ldr	r2, [r7]
 6075 017c 526A     		ldr	r2, [r2, #36]
 6076 017e 1143     		orrs	r1, r1, r2
 6077 0180 3A68     		ldr	r2, [r7]
 6078 0182 126A     		ldr	r2, [r2, #32]
 6079 0184 0A43     		orrs	r2, r2, r1
 6080 0186 1A43     		orrs	r2, r2, r3
 6081 0188 BB69     		ldr	r3, [r7, #24]
 6082 018a 1A60     		str	r2, [r3]
3000:Drivers/STM32L4xx_HAL_Driver/Src/stm32l4xx_hal_ospi.c ****                                 OCTOSPI_CCR_ADMODE | OCTOSPI_CCR_ADDTR | OCTOSPI_CCR_ADSIZE),
3001:Drivers/STM32L4xx_HAL_Driver/Src/stm32l4xx_hal_ospi.c ****                                (cmd->InstructionMode | cmd->InstructionDtrMode | cmd->InstructionSi
3002:Drivers/STM32L4xx_HAL_Driver/Src/stm32l4xx_hal_ospi.c ****                                 cmd->AddressMode     | cmd->AddressDtrMode     | cmd->AddressSize))
3003:Drivers/STM32L4xx_HAL_Driver/Src/stm32l4xx_hal_ospi.c **** 
3004:Drivers/STM32L4xx_HAL_Driver/Src/stm32l4xx_hal_ospi.c ****         /* The DHQC bit is linked with DDTR bit which should be activated */
3005:Drivers/STM32L4xx_HAL_Driver/Src/stm32l4xx_hal_ospi.c ****         if ((hospi->Init.DelayHoldQuarterCycle == HAL_OSPI_DHQC_ENABLE) &&
 6083              		.loc 1 3005 25
 6084 018c 7B68     		ldr	r3, [r7, #4]
 6085 018e 9B6A     		ldr	r3, [r3, #40]
 6086              		.loc 1 3005 12
 6087 0190 B3F1805F 		cmp	r3, #268435456
 6088 0194 09D1     		bne	.L271
3006:Drivers/STM32L4xx_HAL_Driver/Src/stm32l4xx_hal_ospi.c ****             (cmd->InstructionDtrMode == HAL_OSPI_INSTRUCTION_DTR_ENABLE))
 6089              		.loc 1 3006 17 discriminator 1
 6090 0196 3B68     		ldr	r3, [r7]
ARM GAS  C:\Users\Morroway\AppData\Local\Temp\ccxQAUQ3.s 			page 160


 6091 0198 5B69     		ldr	r3, [r3, #20]
3005:Drivers/STM32L4xx_HAL_Driver/Src/stm32l4xx_hal_ospi.c ****             (cmd->InstructionDtrMode == HAL_OSPI_INSTRUCTION_DTR_ENABLE))
 6092              		.loc 1 3005 73 discriminator 1
 6093 019a 082B     		cmp	r3, #8
 6094 019c 05D1     		bne	.L271
3007:Drivers/STM32L4xx_HAL_Driver/Src/stm32l4xx_hal_ospi.c ****         {
3008:Drivers/STM32L4xx_HAL_Driver/Src/stm32l4xx_hal_ospi.c ****           MODIFY_REG((*ccr_reg), OCTOSPI_CCR_DDTR, HAL_OSPI_DATA_DTR_ENABLE);
 6095              		.loc 1 3008 11
 6096 019e BB69     		ldr	r3, [r7, #24]
 6097 01a0 1B68     		ldr	r3, [r3]
 6098 01a2 43F00062 		orr	r2, r3, #134217728
 6099 01a6 BB69     		ldr	r3, [r7, #24]
 6100 01a8 1A60     		str	r2, [r3]
 6101              	.L271:
3009:Drivers/STM32L4xx_HAL_Driver/Src/stm32l4xx_hal_ospi.c ****         }
3010:Drivers/STM32L4xx_HAL_Driver/Src/stm32l4xx_hal_ospi.c ****       }
3011:Drivers/STM32L4xx_HAL_Driver/Src/stm32l4xx_hal_ospi.c **** 
3012:Drivers/STM32L4xx_HAL_Driver/Src/stm32l4xx_hal_ospi.c ****       /* Configure the IR register with the instruction value */
3013:Drivers/STM32L4xx_HAL_Driver/Src/stm32l4xx_hal_ospi.c ****       *ir_reg = cmd->Instruction;
 6102              		.loc 1 3013 20
 6103 01aa 3B68     		ldr	r3, [r7]
 6104 01ac 9A68     		ldr	r2, [r3, #8]
 6105              		.loc 1 3013 15
 6106 01ae 3B69     		ldr	r3, [r7, #16]
 6107 01b0 1A60     		str	r2, [r3]
3014:Drivers/STM32L4xx_HAL_Driver/Src/stm32l4xx_hal_ospi.c **** 
3015:Drivers/STM32L4xx_HAL_Driver/Src/stm32l4xx_hal_ospi.c ****       /* Configure the AR register with the address value */
3016:Drivers/STM32L4xx_HAL_Driver/Src/stm32l4xx_hal_ospi.c ****       hospi->Instance->AR = cmd->Address;
 6108              		.loc 1 3016 12
 6109 01b2 7B68     		ldr	r3, [r7, #4]
 6110 01b4 1B68     		ldr	r3, [r3]
 6111              		.loc 1 3016 32
 6112 01b6 3A68     		ldr	r2, [r7]
 6113 01b8 9269     		ldr	r2, [r2, #24]
 6114              		.loc 1 3016 27
 6115 01ba 9A64     		str	r2, [r3, #72]
 6116 01bc 78E0     		b	.L272
 6117              	.L269:
3017:Drivers/STM32L4xx_HAL_Driver/Src/stm32l4xx_hal_ospi.c ****     }
3018:Drivers/STM32L4xx_HAL_Driver/Src/stm32l4xx_hal_ospi.c ****     else
3019:Drivers/STM32L4xx_HAL_Driver/Src/stm32l4xx_hal_ospi.c ****     {
3020:Drivers/STM32L4xx_HAL_Driver/Src/stm32l4xx_hal_ospi.c ****       if (cmd->DataMode != HAL_OSPI_DATA_NONE)
 6118              		.loc 1 3020 14
 6119 01be 3B68     		ldr	r3, [r7]
 6120 01c0 9B6B     		ldr	r3, [r3, #56]
 6121              		.loc 1 3020 10
 6122 01c2 002B     		cmp	r3, #0
 6123 01c4 17D0     		beq	.L273
3021:Drivers/STM32L4xx_HAL_Driver/Src/stm32l4xx_hal_ospi.c ****       {
3022:Drivers/STM32L4xx_HAL_Driver/Src/stm32l4xx_hal_ospi.c ****         /* ---- Command with instruction and data ---- */
3023:Drivers/STM32L4xx_HAL_Driver/Src/stm32l4xx_hal_ospi.c **** 
3024:Drivers/STM32L4xx_HAL_Driver/Src/stm32l4xx_hal_ospi.c ****         /* Configure the CCR register with all communication parameters */
3025:Drivers/STM32L4xx_HAL_Driver/Src/stm32l4xx_hal_ospi.c ****         MODIFY_REG((*ccr_reg), (OCTOSPI_CCR_IMODE | OCTOSPI_CCR_IDTR | OCTOSPI_CCR_ISIZE |
 6124              		.loc 1 3025 9
 6125 01c6 BB69     		ldr	r3, [r7, #24]
 6126 01c8 1B68     		ldr	r3, [r3]
 6127 01ca 23F07063 		bic	r3, r3, #251658240
ARM GAS  C:\Users\Morroway\AppData\Local\Temp\ccxQAUQ3.s 			page 161


 6128 01ce 23F03F03 		bic	r3, r3, #63
 6129 01d2 3A68     		ldr	r2, [r7]
 6130 01d4 D168     		ldr	r1, [r2, #12]
 6131 01d6 3A68     		ldr	r2, [r7]
 6132 01d8 5269     		ldr	r2, [r2, #20]
 6133 01da 1143     		orrs	r1, r1, r2
 6134 01dc 3A68     		ldr	r2, [r7]
 6135 01de 1269     		ldr	r2, [r2, #16]
 6136 01e0 1143     		orrs	r1, r1, r2
 6137 01e2 3A68     		ldr	r2, [r7]
 6138 01e4 926B     		ldr	r2, [r2, #56]
 6139 01e6 1143     		orrs	r1, r1, r2
 6140 01e8 3A68     		ldr	r2, [r7]
 6141 01ea 126C     		ldr	r2, [r2, #64]
 6142 01ec 0A43     		orrs	r2, r2, r1
 6143 01ee 1A43     		orrs	r2, r2, r3
 6144 01f0 BB69     		ldr	r3, [r7, #24]
 6145 01f2 1A60     		str	r2, [r3]
 6146 01f4 1DE0     		b	.L274
 6147              	.L273:
3026:Drivers/STM32L4xx_HAL_Driver/Src/stm32l4xx_hal_ospi.c ****                                 OCTOSPI_CCR_DMODE | OCTOSPI_CCR_DDTR),
3027:Drivers/STM32L4xx_HAL_Driver/Src/stm32l4xx_hal_ospi.c ****                                (cmd->InstructionMode | cmd->InstructionDtrMode | cmd->InstructionSi
3028:Drivers/STM32L4xx_HAL_Driver/Src/stm32l4xx_hal_ospi.c ****                                 cmd->DataMode        | cmd->DataDtrMode));
3029:Drivers/STM32L4xx_HAL_Driver/Src/stm32l4xx_hal_ospi.c ****       }
3030:Drivers/STM32L4xx_HAL_Driver/Src/stm32l4xx_hal_ospi.c ****       else
3031:Drivers/STM32L4xx_HAL_Driver/Src/stm32l4xx_hal_ospi.c ****       {
3032:Drivers/STM32L4xx_HAL_Driver/Src/stm32l4xx_hal_ospi.c ****         /* ---- Command with only instruction ---- */
3033:Drivers/STM32L4xx_HAL_Driver/Src/stm32l4xx_hal_ospi.c **** 
3034:Drivers/STM32L4xx_HAL_Driver/Src/stm32l4xx_hal_ospi.c ****         /* Configure the CCR register with all communication parameters */
3035:Drivers/STM32L4xx_HAL_Driver/Src/stm32l4xx_hal_ospi.c ****         MODIFY_REG((*ccr_reg), (OCTOSPI_CCR_IMODE | OCTOSPI_CCR_IDTR | OCTOSPI_CCR_ISIZE),
 6148              		.loc 1 3035 9
 6149 01f6 BB69     		ldr	r3, [r7, #24]
 6150 01f8 1B68     		ldr	r3, [r3]
 6151 01fa 23F03F02 		bic	r2, r3, #63
 6152 01fe 3B68     		ldr	r3, [r7]
 6153 0200 D968     		ldr	r1, [r3, #12]
 6154 0202 3B68     		ldr	r3, [r7]
 6155 0204 5B69     		ldr	r3, [r3, #20]
 6156 0206 1943     		orrs	r1, r1, r3
 6157 0208 3B68     		ldr	r3, [r7]
 6158 020a 1B69     		ldr	r3, [r3, #16]
 6159 020c 0B43     		orrs	r3, r3, r1
 6160 020e 1A43     		orrs	r2, r2, r3
 6161 0210 BB69     		ldr	r3, [r7, #24]
 6162 0212 1A60     		str	r2, [r3]
3036:Drivers/STM32L4xx_HAL_Driver/Src/stm32l4xx_hal_ospi.c ****                                (cmd->InstructionMode | cmd->InstructionDtrMode | cmd->InstructionSi
3037:Drivers/STM32L4xx_HAL_Driver/Src/stm32l4xx_hal_ospi.c **** 
3038:Drivers/STM32L4xx_HAL_Driver/Src/stm32l4xx_hal_ospi.c ****         /* The DHQC bit is linked with DDTR bit which should be activated */
3039:Drivers/STM32L4xx_HAL_Driver/Src/stm32l4xx_hal_ospi.c ****         if ((hospi->Init.DelayHoldQuarterCycle == HAL_OSPI_DHQC_ENABLE) &&
 6163              		.loc 1 3039 25
 6164 0214 7B68     		ldr	r3, [r7, #4]
 6165 0216 9B6A     		ldr	r3, [r3, #40]
 6166              		.loc 1 3039 12
 6167 0218 B3F1805F 		cmp	r3, #268435456
 6168 021c 09D1     		bne	.L274
3040:Drivers/STM32L4xx_HAL_Driver/Src/stm32l4xx_hal_ospi.c ****             (cmd->InstructionDtrMode == HAL_OSPI_INSTRUCTION_DTR_ENABLE))
 6169              		.loc 1 3040 17 discriminator 1
ARM GAS  C:\Users\Morroway\AppData\Local\Temp\ccxQAUQ3.s 			page 162


 6170 021e 3B68     		ldr	r3, [r7]
 6171 0220 5B69     		ldr	r3, [r3, #20]
3039:Drivers/STM32L4xx_HAL_Driver/Src/stm32l4xx_hal_ospi.c ****             (cmd->InstructionDtrMode == HAL_OSPI_INSTRUCTION_DTR_ENABLE))
 6172              		.loc 1 3039 73 discriminator 1
 6173 0222 082B     		cmp	r3, #8
 6174 0224 05D1     		bne	.L274
3041:Drivers/STM32L4xx_HAL_Driver/Src/stm32l4xx_hal_ospi.c ****         {
3042:Drivers/STM32L4xx_HAL_Driver/Src/stm32l4xx_hal_ospi.c ****           MODIFY_REG((*ccr_reg), OCTOSPI_CCR_DDTR, HAL_OSPI_DATA_DTR_ENABLE);
 6175              		.loc 1 3042 11
 6176 0226 BB69     		ldr	r3, [r7, #24]
 6177 0228 1B68     		ldr	r3, [r3]
 6178 022a 43F00062 		orr	r2, r3, #134217728
 6179 022e BB69     		ldr	r3, [r7, #24]
 6180 0230 1A60     		str	r2, [r3]
 6181              	.L274:
3043:Drivers/STM32L4xx_HAL_Driver/Src/stm32l4xx_hal_ospi.c ****         }
3044:Drivers/STM32L4xx_HAL_Driver/Src/stm32l4xx_hal_ospi.c ****       }
3045:Drivers/STM32L4xx_HAL_Driver/Src/stm32l4xx_hal_ospi.c **** 
3046:Drivers/STM32L4xx_HAL_Driver/Src/stm32l4xx_hal_ospi.c ****       /* Configure the IR register with the instruction value */
3047:Drivers/STM32L4xx_HAL_Driver/Src/stm32l4xx_hal_ospi.c ****       *ir_reg = cmd->Instruction;
 6182              		.loc 1 3047 20
 6183 0232 3B68     		ldr	r3, [r7]
 6184 0234 9A68     		ldr	r2, [r3, #8]
 6185              		.loc 1 3047 15
 6186 0236 3B69     		ldr	r3, [r7, #16]
 6187 0238 1A60     		str	r2, [r3]
 6188 023a 39E0     		b	.L272
 6189              	.L268:
3048:Drivers/STM32L4xx_HAL_Driver/Src/stm32l4xx_hal_ospi.c **** 
3049:Drivers/STM32L4xx_HAL_Driver/Src/stm32l4xx_hal_ospi.c ****     }
3050:Drivers/STM32L4xx_HAL_Driver/Src/stm32l4xx_hal_ospi.c ****   }
3051:Drivers/STM32L4xx_HAL_Driver/Src/stm32l4xx_hal_ospi.c ****   else
3052:Drivers/STM32L4xx_HAL_Driver/Src/stm32l4xx_hal_ospi.c ****   {
3053:Drivers/STM32L4xx_HAL_Driver/Src/stm32l4xx_hal_ospi.c ****     if (cmd->AddressMode != HAL_OSPI_ADDRESS_NONE)
 6190              		.loc 1 3053 12
 6191 023c 3B68     		ldr	r3, [r7]
 6192 023e DB69     		ldr	r3, [r3, #28]
 6193              		.loc 1 3053 8
 6194 0240 002B     		cmp	r3, #0
 6195 0242 30D0     		beq	.L275
3054:Drivers/STM32L4xx_HAL_Driver/Src/stm32l4xx_hal_ospi.c ****     {
3055:Drivers/STM32L4xx_HAL_Driver/Src/stm32l4xx_hal_ospi.c ****       if (cmd->DataMode != HAL_OSPI_DATA_NONE)
 6196              		.loc 1 3055 14
 6197 0244 3B68     		ldr	r3, [r7]
 6198 0246 9B6B     		ldr	r3, [r3, #56]
 6199              		.loc 1 3055 10
 6200 0248 002B     		cmp	r3, #0
 6201 024a 17D0     		beq	.L276
3056:Drivers/STM32L4xx_HAL_Driver/Src/stm32l4xx_hal_ospi.c ****       {
3057:Drivers/STM32L4xx_HAL_Driver/Src/stm32l4xx_hal_ospi.c ****         /* ---- Command with address and data ---- */
3058:Drivers/STM32L4xx_HAL_Driver/Src/stm32l4xx_hal_ospi.c **** 
3059:Drivers/STM32L4xx_HAL_Driver/Src/stm32l4xx_hal_ospi.c ****         /* Configure the CCR register with all communication parameters */
3060:Drivers/STM32L4xx_HAL_Driver/Src/stm32l4xx_hal_ospi.c ****         MODIFY_REG((*ccr_reg), (OCTOSPI_CCR_ADMODE | OCTOSPI_CCR_ADDTR | OCTOSPI_CCR_ADSIZE |
 6202              		.loc 1 3060 9
 6203 024c BB69     		ldr	r3, [r7, #24]
 6204 024e 1B68     		ldr	r3, [r3]
 6205 0250 23F07063 		bic	r3, r3, #251658240
ARM GAS  C:\Users\Morroway\AppData\Local\Temp\ccxQAUQ3.s 			page 163


 6206 0254 23F47C53 		bic	r3, r3, #16128
 6207 0258 3A68     		ldr	r2, [r7]
 6208 025a D169     		ldr	r1, [r2, #28]
 6209 025c 3A68     		ldr	r2, [r7]
 6210 025e 526A     		ldr	r2, [r2, #36]
 6211 0260 1143     		orrs	r1, r1, r2
 6212 0262 3A68     		ldr	r2, [r7]
 6213 0264 126A     		ldr	r2, [r2, #32]
 6214 0266 1143     		orrs	r1, r1, r2
 6215 0268 3A68     		ldr	r2, [r7]
 6216 026a 926B     		ldr	r2, [r2, #56]
 6217 026c 1143     		orrs	r1, r1, r2
 6218 026e 3A68     		ldr	r2, [r7]
 6219 0270 126C     		ldr	r2, [r2, #64]
 6220 0272 0A43     		orrs	r2, r2, r1
 6221 0274 1A43     		orrs	r2, r2, r3
 6222 0276 BB69     		ldr	r3, [r7, #24]
 6223 0278 1A60     		str	r2, [r3]
 6224 027a 0EE0     		b	.L277
 6225              	.L276:
3061:Drivers/STM32L4xx_HAL_Driver/Src/stm32l4xx_hal_ospi.c ****                                 OCTOSPI_CCR_DMODE  | OCTOSPI_CCR_DDTR),
3062:Drivers/STM32L4xx_HAL_Driver/Src/stm32l4xx_hal_ospi.c ****                                (cmd->AddressMode | cmd->AddressDtrMode | cmd->AddressSize     |
3063:Drivers/STM32L4xx_HAL_Driver/Src/stm32l4xx_hal_ospi.c ****                                 cmd->DataMode    | cmd->DataDtrMode));
3064:Drivers/STM32L4xx_HAL_Driver/Src/stm32l4xx_hal_ospi.c ****       }
3065:Drivers/STM32L4xx_HAL_Driver/Src/stm32l4xx_hal_ospi.c ****       else
3066:Drivers/STM32L4xx_HAL_Driver/Src/stm32l4xx_hal_ospi.c ****       {
3067:Drivers/STM32L4xx_HAL_Driver/Src/stm32l4xx_hal_ospi.c ****         /* ---- Command with only address ---- */
3068:Drivers/STM32L4xx_HAL_Driver/Src/stm32l4xx_hal_ospi.c **** 
3069:Drivers/STM32L4xx_HAL_Driver/Src/stm32l4xx_hal_ospi.c ****         /* Configure the CCR register with all communication parameters */
3070:Drivers/STM32L4xx_HAL_Driver/Src/stm32l4xx_hal_ospi.c ****         MODIFY_REG((*ccr_reg), (OCTOSPI_CCR_ADMODE | OCTOSPI_CCR_ADDTR | OCTOSPI_CCR_ADSIZE),
 6226              		.loc 1 3070 9
 6227 027c BB69     		ldr	r3, [r7, #24]
 6228 027e 1B68     		ldr	r3, [r3]
 6229 0280 23F47C52 		bic	r2, r3, #16128
 6230 0284 3B68     		ldr	r3, [r7]
 6231 0286 D969     		ldr	r1, [r3, #28]
 6232 0288 3B68     		ldr	r3, [r7]
 6233 028a 5B6A     		ldr	r3, [r3, #36]
 6234 028c 1943     		orrs	r1, r1, r3
 6235 028e 3B68     		ldr	r3, [r7]
 6236 0290 1B6A     		ldr	r3, [r3, #32]
 6237 0292 0B43     		orrs	r3, r3, r1
 6238 0294 1A43     		orrs	r2, r2, r3
 6239 0296 BB69     		ldr	r3, [r7, #24]
 6240 0298 1A60     		str	r2, [r3]
 6241              	.L277:
3071:Drivers/STM32L4xx_HAL_Driver/Src/stm32l4xx_hal_ospi.c ****                                (cmd->AddressMode | cmd->AddressDtrMode | cmd->AddressSize));
3072:Drivers/STM32L4xx_HAL_Driver/Src/stm32l4xx_hal_ospi.c ****       }
3073:Drivers/STM32L4xx_HAL_Driver/Src/stm32l4xx_hal_ospi.c **** 
3074:Drivers/STM32L4xx_HAL_Driver/Src/stm32l4xx_hal_ospi.c ****       /* Configure the AR register with the instruction value */
3075:Drivers/STM32L4xx_HAL_Driver/Src/stm32l4xx_hal_ospi.c ****       hospi->Instance->AR = cmd->Address;
 6242              		.loc 1 3075 12
 6243 029a 7B68     		ldr	r3, [r7, #4]
 6244 029c 1B68     		ldr	r3, [r3]
 6245              		.loc 1 3075 32
 6246 029e 3A68     		ldr	r2, [r7]
 6247 02a0 9269     		ldr	r2, [r2, #24]
ARM GAS  C:\Users\Morroway\AppData\Local\Temp\ccxQAUQ3.s 			page 164


 6248              		.loc 1 3075 27
 6249 02a2 9A64     		str	r2, [r3, #72]
 6250 02a4 04E0     		b	.L272
 6251              	.L275:
3076:Drivers/STM32L4xx_HAL_Driver/Src/stm32l4xx_hal_ospi.c ****     }
3077:Drivers/STM32L4xx_HAL_Driver/Src/stm32l4xx_hal_ospi.c ****     else
3078:Drivers/STM32L4xx_HAL_Driver/Src/stm32l4xx_hal_ospi.c ****     {
3079:Drivers/STM32L4xx_HAL_Driver/Src/stm32l4xx_hal_ospi.c ****       /* ---- Invalid command configuration (no instruction, no address) ---- */
3080:Drivers/STM32L4xx_HAL_Driver/Src/stm32l4xx_hal_ospi.c ****       status = HAL_ERROR;
 6252              		.loc 1 3080 14
 6253 02a6 0123     		movs	r3, #1
 6254 02a8 FB77     		strb	r3, [r7, #31]
3081:Drivers/STM32L4xx_HAL_Driver/Src/stm32l4xx_hal_ospi.c ****       hospi->ErrorCode = HAL_OSPI_ERROR_INVALID_PARAM;
 6255              		.loc 1 3081 24
 6256 02aa 7B68     		ldr	r3, [r7, #4]
 6257 02ac 0822     		movs	r2, #8
 6258 02ae 1A65     		str	r2, [r3, #80]
 6259              	.L272:
3082:Drivers/STM32L4xx_HAL_Driver/Src/stm32l4xx_hal_ospi.c ****     }
3083:Drivers/STM32L4xx_HAL_Driver/Src/stm32l4xx_hal_ospi.c ****   }
3084:Drivers/STM32L4xx_HAL_Driver/Src/stm32l4xx_hal_ospi.c **** 
3085:Drivers/STM32L4xx_HAL_Driver/Src/stm32l4xx_hal_ospi.c ****   /* Return function status */
3086:Drivers/STM32L4xx_HAL_Driver/Src/stm32l4xx_hal_ospi.c ****   return status;
 6260              		.loc 1 3086 10
 6261 02b0 FB7F     		ldrb	r3, [r7, #31]	@ zero_extendqisi2
3087:Drivers/STM32L4xx_HAL_Driver/Src/stm32l4xx_hal_ospi.c **** }
 6262              		.loc 1 3087 1
 6263 02b2 1846     		mov	r0, r3
 6264 02b4 2437     		adds	r7, r7, #36
 6265              		.cfi_def_cfa_offset 4
 6266 02b6 BD46     		mov	sp, r7
 6267              		.cfi_def_cfa_register 13
 6268              		@ sp needed
 6269 02b8 5DF8047B 		ldr	r7, [sp], #4
 6270              		.cfi_restore 7
 6271              		.cfi_def_cfa_offset 0
 6272 02bc 7047     		bx	lr
 6273              	.L280:
 6274 02be 00BF     		.align	2
 6275              	.L279:
 6276 02c0 C0C0FFF0 		.word	-251674432
 6277              		.cfi_endproc
 6278              	.LFE362:
 6280              		.section	.text.OSPIM_GetConfig,"ax",%progbits
 6281              		.align	1
 6282              		.syntax unified
 6283              		.thumb
 6284              		.thumb_func
 6286              	OSPIM_GetConfig:
 6287              	.LFB363:
3088:Drivers/STM32L4xx_HAL_Driver/Src/stm32l4xx_hal_ospi.c **** 
3089:Drivers/STM32L4xx_HAL_Driver/Src/stm32l4xx_hal_ospi.c **** /**
3090:Drivers/STM32L4xx_HAL_Driver/Src/stm32l4xx_hal_ospi.c ****   * @brief  Get the current IOM configuration for an OctoSPI instance.
3091:Drivers/STM32L4xx_HAL_Driver/Src/stm32l4xx_hal_ospi.c ****   * @param  instance_nb : number of the instance
3092:Drivers/STM32L4xx_HAL_Driver/Src/stm32l4xx_hal_ospi.c ****   * @param  cfg         : configuration of the IO Manager for the instance
3093:Drivers/STM32L4xx_HAL_Driver/Src/stm32l4xx_hal_ospi.c ****   * @retval HAL status
3094:Drivers/STM32L4xx_HAL_Driver/Src/stm32l4xx_hal_ospi.c ****   */
ARM GAS  C:\Users\Morroway\AppData\Local\Temp\ccxQAUQ3.s 			page 165


3095:Drivers/STM32L4xx_HAL_Driver/Src/stm32l4xx_hal_ospi.c **** static HAL_StatusTypeDef OSPIM_GetConfig(uint8_t instance_nb, OSPIM_CfgTypeDef *cfg)
3096:Drivers/STM32L4xx_HAL_Driver/Src/stm32l4xx_hal_ospi.c **** {
 6288              		.loc 1 3096 1
 6289              		.cfi_startproc
 6290              		@ args = 0, pretend = 0, frame = 24
 6291              		@ frame_needed = 1, uses_anonymous_args = 0
 6292              		@ link register save eliminated.
 6293 0000 80B4     		push	{r7}
 6294              		.cfi_def_cfa_offset 4
 6295              		.cfi_offset 7, -4
 6296 0002 87B0     		sub	sp, sp, #28
 6297              		.cfi_def_cfa_offset 32
 6298 0004 00AF     		add	r7, sp, #0
 6299              		.cfi_def_cfa_register 7
 6300 0006 0346     		mov	r3, r0
 6301 0008 3960     		str	r1, [r7]
 6302 000a FB71     		strb	r3, [r7, #7]
3097:Drivers/STM32L4xx_HAL_Driver/Src/stm32l4xx_hal_ospi.c ****   HAL_StatusTypeDef status = HAL_OK;
 6303              		.loc 1 3097 21
 6304 000c 0023     		movs	r3, #0
 6305 000e FB75     		strb	r3, [r7, #23]
3098:Drivers/STM32L4xx_HAL_Driver/Src/stm32l4xx_hal_ospi.c ****   uint32_t reg;
3099:Drivers/STM32L4xx_HAL_Driver/Src/stm32l4xx_hal_ospi.c ****   uint32_t value = 0U;
 6306              		.loc 1 3099 12
 6307 0010 0023     		movs	r3, #0
 6308 0012 3B61     		str	r3, [r7, #16]
3100:Drivers/STM32L4xx_HAL_Driver/Src/stm32l4xx_hal_ospi.c ****   uint32_t index;
3101:Drivers/STM32L4xx_HAL_Driver/Src/stm32l4xx_hal_ospi.c **** 
3102:Drivers/STM32L4xx_HAL_Driver/Src/stm32l4xx_hal_ospi.c ****   if ((instance_nb == 0U) || (instance_nb > OSPI_NB_INSTANCE) || (cfg == NULL))
 6309              		.loc 1 3102 6
 6310 0014 FB79     		ldrb	r3, [r7, #7]	@ zero_extendqisi2
 6311 0016 002B     		cmp	r3, #0
 6312 0018 05D0     		beq	.L282
 6313              		.loc 1 3102 27 discriminator 1
 6314 001a FB79     		ldrb	r3, [r7, #7]	@ zero_extendqisi2
 6315 001c 022B     		cmp	r3, #2
 6316 001e 02D8     		bhi	.L282
 6317              		.loc 1 3102 63 discriminator 2
 6318 0020 3B68     		ldr	r3, [r7]
 6319 0022 002B     		cmp	r3, #0
 6320 0024 02D1     		bne	.L283
 6321              	.L282:
3103:Drivers/STM32L4xx_HAL_Driver/Src/stm32l4xx_hal_ospi.c ****   {
3104:Drivers/STM32L4xx_HAL_Driver/Src/stm32l4xx_hal_ospi.c ****     /* Invalid parameter -> error returned */
3105:Drivers/STM32L4xx_HAL_Driver/Src/stm32l4xx_hal_ospi.c ****     status = HAL_ERROR;
 6322              		.loc 1 3105 12
 6323 0026 0123     		movs	r3, #1
 6324 0028 FB75     		strb	r3, [r7, #23]
 6325 002a 98E0     		b	.L284
 6326              	.L283:
3106:Drivers/STM32L4xx_HAL_Driver/Src/stm32l4xx_hal_ospi.c ****   }
3107:Drivers/STM32L4xx_HAL_Driver/Src/stm32l4xx_hal_ospi.c ****   else
3108:Drivers/STM32L4xx_HAL_Driver/Src/stm32l4xx_hal_ospi.c ****   {
3109:Drivers/STM32L4xx_HAL_Driver/Src/stm32l4xx_hal_ospi.c ****     /* Initialize the structure */
3110:Drivers/STM32L4xx_HAL_Driver/Src/stm32l4xx_hal_ospi.c ****     cfg->ClkPort    = 0U;
 6327              		.loc 1 3110 21
 6328 002c 3B68     		ldr	r3, [r7]
ARM GAS  C:\Users\Morroway\AppData\Local\Temp\ccxQAUQ3.s 			page 166


 6329 002e 0022     		movs	r2, #0
 6330 0030 1A60     		str	r2, [r3]
3111:Drivers/STM32L4xx_HAL_Driver/Src/stm32l4xx_hal_ospi.c ****     cfg->DQSPort    = 0U;
 6331              		.loc 1 3111 21
 6332 0032 3B68     		ldr	r3, [r7]
 6333 0034 0022     		movs	r2, #0
 6334 0036 5A60     		str	r2, [r3, #4]
3112:Drivers/STM32L4xx_HAL_Driver/Src/stm32l4xx_hal_ospi.c ****     cfg->NCSPort    = 0U;
 6335              		.loc 1 3112 21
 6336 0038 3B68     		ldr	r3, [r7]
 6337 003a 0022     		movs	r2, #0
 6338 003c 9A60     		str	r2, [r3, #8]
3113:Drivers/STM32L4xx_HAL_Driver/Src/stm32l4xx_hal_ospi.c ****     cfg->IOLowPort  = 0U;
 6339              		.loc 1 3113 21
 6340 003e 3B68     		ldr	r3, [r7]
 6341 0040 0022     		movs	r2, #0
 6342 0042 DA60     		str	r2, [r3, #12]
3114:Drivers/STM32L4xx_HAL_Driver/Src/stm32l4xx_hal_ospi.c ****     cfg->IOHighPort = 0U;
 6343              		.loc 1 3114 21
 6344 0044 3B68     		ldr	r3, [r7]
 6345 0046 0022     		movs	r2, #0
 6346 0048 1A61     		str	r2, [r3, #16]
3115:Drivers/STM32L4xx_HAL_Driver/Src/stm32l4xx_hal_ospi.c **** 
3116:Drivers/STM32L4xx_HAL_Driver/Src/stm32l4xx_hal_ospi.c ****     if (instance_nb == 2U)
 6347              		.loc 1 3116 8
 6348 004a FB79     		ldrb	r3, [r7, #7]	@ zero_extendqisi2
 6349 004c 022B     		cmp	r3, #2
 6350 004e 0BD1     		bne	.L285
3117:Drivers/STM32L4xx_HAL_Driver/Src/stm32l4xx_hal_ospi.c ****     {
3118:Drivers/STM32L4xx_HAL_Driver/Src/stm32l4xx_hal_ospi.c **** #if   defined (OCTOSPIM_CR_MUXEN)
3119:Drivers/STM32L4xx_HAL_Driver/Src/stm32l4xx_hal_ospi.c ****       if ((OCTOSPIM->CR & OCTOSPIM_CR_MUXEN) == 0U)
 6351              		.loc 1 3119 20
 6352 0050 464B     		ldr	r3, .L297
 6353 0052 1B68     		ldr	r3, [r3]
 6354              		.loc 1 3119 25
 6355 0054 03F00103 		and	r3, r3, #1
 6356              		.loc 1 3119 10
 6357 0058 002B     		cmp	r3, #0
 6358 005a 02D1     		bne	.L286
3120:Drivers/STM32L4xx_HAL_Driver/Src/stm32l4xx_hal_ospi.c ****       {
3121:Drivers/STM32L4xx_HAL_Driver/Src/stm32l4xx_hal_ospi.c **** #endif
3122:Drivers/STM32L4xx_HAL_Driver/Src/stm32l4xx_hal_ospi.c ****         value = (OCTOSPIM_PCR_CLKSRC | OCTOSPIM_PCR_DQSSRC | OCTOSPIM_PCR_NCSSRC
 6359              		.loc 1 3122 15
 6360 005c 444B     		ldr	r3, .L297+4
 6361 005e 3B61     		str	r3, [r7, #16]
 6362 0060 02E0     		b	.L285
 6363              	.L286:
3123:Drivers/STM32L4xx_HAL_Driver/Src/stm32l4xx_hal_ospi.c ****                | OCTOSPIM_PCR_IOLSRC_1 | OCTOSPIM_PCR_IOHSRC_1);
3124:Drivers/STM32L4xx_HAL_Driver/Src/stm32l4xx_hal_ospi.c **** #if   defined (OCTOSPIM_CR_MUXEN)
3125:Drivers/STM32L4xx_HAL_Driver/Src/stm32l4xx_hal_ospi.c ****       }
3126:Drivers/STM32L4xx_HAL_Driver/Src/stm32l4xx_hal_ospi.c ****       else
3127:Drivers/STM32L4xx_HAL_Driver/Src/stm32l4xx_hal_ospi.c ****       {
3128:Drivers/STM32L4xx_HAL_Driver/Src/stm32l4xx_hal_ospi.c ****         value = OCTOSPIM_PCR_NCSSRC;
 6364              		.loc 1 3128 15
 6365 0062 4FF40073 		mov	r3, #512
 6366 0066 3B61     		str	r3, [r7, #16]
 6367              	.L285:
ARM GAS  C:\Users\Morroway\AppData\Local\Temp\ccxQAUQ3.s 			page 167


3129:Drivers/STM32L4xx_HAL_Driver/Src/stm32l4xx_hal_ospi.c ****       }
3130:Drivers/STM32L4xx_HAL_Driver/Src/stm32l4xx_hal_ospi.c **** #endif
3131:Drivers/STM32L4xx_HAL_Driver/Src/stm32l4xx_hal_ospi.c ****     }
3132:Drivers/STM32L4xx_HAL_Driver/Src/stm32l4xx_hal_ospi.c **** 
3133:Drivers/STM32L4xx_HAL_Driver/Src/stm32l4xx_hal_ospi.c ****     /* Get the information about the instance */
3134:Drivers/STM32L4xx_HAL_Driver/Src/stm32l4xx_hal_ospi.c ****     for (index = 0U; index < OSPI_IOM_NB_PORTS; index ++)
 6368              		.loc 1 3134 16
 6369 0068 0023     		movs	r3, #0
 6370 006a FB60     		str	r3, [r7, #12]
 6371              		.loc 1 3134 5
 6372 006c 74E0     		b	.L287
 6373              	.L295:
3135:Drivers/STM32L4xx_HAL_Driver/Src/stm32l4xx_hal_ospi.c ****     {
3136:Drivers/STM32L4xx_HAL_Driver/Src/stm32l4xx_hal_ospi.c ****       reg = OCTOSPIM->PCR[index];
 6374              		.loc 1 3136 21
 6375 006e 3F4A     		ldr	r2, .L297
 6376              		.loc 1 3136 11
 6377 0070 FB68     		ldr	r3, [r7, #12]
 6378 0072 9B00     		lsls	r3, r3, #2
 6379 0074 1344     		add	r3, r3, r2
 6380 0076 5B68     		ldr	r3, [r3, #4]
 6381 0078 BB60     		str	r3, [r7, #8]
3137:Drivers/STM32L4xx_HAL_Driver/Src/stm32l4xx_hal_ospi.c **** 
3138:Drivers/STM32L4xx_HAL_Driver/Src/stm32l4xx_hal_ospi.c ****       if ((reg & OCTOSPIM_PCR_CLKEN) != 0U)
 6382              		.loc 1 3138 16
 6383 007a BB68     		ldr	r3, [r7, #8]
 6384 007c 03F00103 		and	r3, r3, #1
 6385              		.loc 1 3138 10
 6386 0080 002B     		cmp	r3, #0
 6387 0082 0AD0     		beq	.L288
3139:Drivers/STM32L4xx_HAL_Driver/Src/stm32l4xx_hal_ospi.c ****       {
3140:Drivers/STM32L4xx_HAL_Driver/Src/stm32l4xx_hal_ospi.c ****         /* The clock is enabled on this port */
3141:Drivers/STM32L4xx_HAL_Driver/Src/stm32l4xx_hal_ospi.c ****         if ((reg & OCTOSPIM_PCR_CLKSRC) == (value & OCTOSPIM_PCR_CLKSRC))
 6388              		.loc 1 3141 41
 6389 0084 BA68     		ldr	r2, [r7, #8]
 6390 0086 3B69     		ldr	r3, [r7, #16]
 6391 0088 5340     		eors	r3, r3, r2
 6392 008a 03F00203 		and	r3, r3, #2
 6393              		.loc 1 3141 12
 6394 008e 002B     		cmp	r3, #0
 6395 0090 03D1     		bne	.L288
3142:Drivers/STM32L4xx_HAL_Driver/Src/stm32l4xx_hal_ospi.c ****         {
3143:Drivers/STM32L4xx_HAL_Driver/Src/stm32l4xx_hal_ospi.c ****           /* The clock correspond to the instance passed as parameter */
3144:Drivers/STM32L4xx_HAL_Driver/Src/stm32l4xx_hal_ospi.c ****           cfg->ClkPort = index+1U;
 6396              		.loc 1 3144 31
 6397 0092 FB68     		ldr	r3, [r7, #12]
 6398 0094 5A1C     		adds	r2, r3, #1
 6399              		.loc 1 3144 24
 6400 0096 3B68     		ldr	r3, [r7]
 6401 0098 1A60     		str	r2, [r3]
 6402              	.L288:
3145:Drivers/STM32L4xx_HAL_Driver/Src/stm32l4xx_hal_ospi.c ****         }
3146:Drivers/STM32L4xx_HAL_Driver/Src/stm32l4xx_hal_ospi.c ****       }
3147:Drivers/STM32L4xx_HAL_Driver/Src/stm32l4xx_hal_ospi.c **** 
3148:Drivers/STM32L4xx_HAL_Driver/Src/stm32l4xx_hal_ospi.c ****       if ((reg & OCTOSPIM_PCR_DQSEN) != 0U)
 6403              		.loc 1 3148 16
 6404 009a BB68     		ldr	r3, [r7, #8]
ARM GAS  C:\Users\Morroway\AppData\Local\Temp\ccxQAUQ3.s 			page 168


 6405 009c 03F01003 		and	r3, r3, #16
 6406              		.loc 1 3148 10
 6407 00a0 002B     		cmp	r3, #0
 6408 00a2 0AD0     		beq	.L289
3149:Drivers/STM32L4xx_HAL_Driver/Src/stm32l4xx_hal_ospi.c ****       {
3150:Drivers/STM32L4xx_HAL_Driver/Src/stm32l4xx_hal_ospi.c ****         /* The DQS is enabled on this port */
3151:Drivers/STM32L4xx_HAL_Driver/Src/stm32l4xx_hal_ospi.c ****         if ((reg & OCTOSPIM_PCR_DQSSRC) == (value & OCTOSPIM_PCR_DQSSRC))
 6409              		.loc 1 3151 41
 6410 00a4 BA68     		ldr	r2, [r7, #8]
 6411 00a6 3B69     		ldr	r3, [r7, #16]
 6412 00a8 5340     		eors	r3, r3, r2
 6413 00aa 03F02003 		and	r3, r3, #32
 6414              		.loc 1 3151 12
 6415 00ae 002B     		cmp	r3, #0
 6416 00b0 03D1     		bne	.L289
3152:Drivers/STM32L4xx_HAL_Driver/Src/stm32l4xx_hal_ospi.c ****         {
3153:Drivers/STM32L4xx_HAL_Driver/Src/stm32l4xx_hal_ospi.c ****           /* The DQS correspond to the instance passed as parameter */
3154:Drivers/STM32L4xx_HAL_Driver/Src/stm32l4xx_hal_ospi.c ****           cfg->DQSPort = index+1U;
 6417              		.loc 1 3154 31
 6418 00b2 FB68     		ldr	r3, [r7, #12]
 6419 00b4 5A1C     		adds	r2, r3, #1
 6420              		.loc 1 3154 24
 6421 00b6 3B68     		ldr	r3, [r7]
 6422 00b8 5A60     		str	r2, [r3, #4]
 6423              	.L289:
3155:Drivers/STM32L4xx_HAL_Driver/Src/stm32l4xx_hal_ospi.c ****         }
3156:Drivers/STM32L4xx_HAL_Driver/Src/stm32l4xx_hal_ospi.c ****       }
3157:Drivers/STM32L4xx_HAL_Driver/Src/stm32l4xx_hal_ospi.c **** 
3158:Drivers/STM32L4xx_HAL_Driver/Src/stm32l4xx_hal_ospi.c ****       if ((reg & OCTOSPIM_PCR_NCSEN) != 0U)
 6424              		.loc 1 3158 16
 6425 00ba BB68     		ldr	r3, [r7, #8]
 6426 00bc 03F48073 		and	r3, r3, #256
 6427              		.loc 1 3158 10
 6428 00c0 002B     		cmp	r3, #0
 6429 00c2 0AD0     		beq	.L290
3159:Drivers/STM32L4xx_HAL_Driver/Src/stm32l4xx_hal_ospi.c ****       {
3160:Drivers/STM32L4xx_HAL_Driver/Src/stm32l4xx_hal_ospi.c ****         /* The nCS is enabled on this port */
3161:Drivers/STM32L4xx_HAL_Driver/Src/stm32l4xx_hal_ospi.c ****         if ((reg & OCTOSPIM_PCR_NCSSRC) == (value & OCTOSPIM_PCR_NCSSRC))
 6430              		.loc 1 3161 41
 6431 00c4 BA68     		ldr	r2, [r7, #8]
 6432 00c6 3B69     		ldr	r3, [r7, #16]
 6433 00c8 5340     		eors	r3, r3, r2
 6434 00ca 03F40073 		and	r3, r3, #512
 6435              		.loc 1 3161 12
 6436 00ce 002B     		cmp	r3, #0
 6437 00d0 03D1     		bne	.L290
3162:Drivers/STM32L4xx_HAL_Driver/Src/stm32l4xx_hal_ospi.c ****         {
3163:Drivers/STM32L4xx_HAL_Driver/Src/stm32l4xx_hal_ospi.c ****           /* The nCS correspond to the instance passed as parameter */
3164:Drivers/STM32L4xx_HAL_Driver/Src/stm32l4xx_hal_ospi.c ****           cfg->NCSPort = index+1U;
 6438              		.loc 1 3164 31
 6439 00d2 FB68     		ldr	r3, [r7, #12]
 6440 00d4 5A1C     		adds	r2, r3, #1
 6441              		.loc 1 3164 24
 6442 00d6 3B68     		ldr	r3, [r7]
 6443 00d8 9A60     		str	r2, [r3, #8]
 6444              	.L290:
3165:Drivers/STM32L4xx_HAL_Driver/Src/stm32l4xx_hal_ospi.c ****         }
ARM GAS  C:\Users\Morroway\AppData\Local\Temp\ccxQAUQ3.s 			page 169


3166:Drivers/STM32L4xx_HAL_Driver/Src/stm32l4xx_hal_ospi.c ****       }
3167:Drivers/STM32L4xx_HAL_Driver/Src/stm32l4xx_hal_ospi.c **** 
3168:Drivers/STM32L4xx_HAL_Driver/Src/stm32l4xx_hal_ospi.c ****       if ((reg & OCTOSPIM_PCR_IOLEN) != 0U)
 6445              		.loc 1 3168 16
 6446 00da BB68     		ldr	r3, [r7, #8]
 6447 00dc 03F48033 		and	r3, r3, #65536
 6448              		.loc 1 3168 10
 6449 00e0 002B     		cmp	r3, #0
 6450 00e2 18D0     		beq	.L291
3169:Drivers/STM32L4xx_HAL_Driver/Src/stm32l4xx_hal_ospi.c ****       {
3170:Drivers/STM32L4xx_HAL_Driver/Src/stm32l4xx_hal_ospi.c ****         /* The IO Low is enabled on this port */
3171:Drivers/STM32L4xx_HAL_Driver/Src/stm32l4xx_hal_ospi.c ****         if ((reg & OCTOSPIM_PCR_IOLSRC_1) == (value & OCTOSPIM_PCR_IOLSRC_1))
 6451              		.loc 1 3171 43
 6452 00e4 BA68     		ldr	r2, [r7, #8]
 6453 00e6 3B69     		ldr	r3, [r7, #16]
 6454 00e8 5340     		eors	r3, r3, r2
 6455 00ea 03F48023 		and	r3, r3, #262144
 6456              		.loc 1 3171 12
 6457 00ee 002B     		cmp	r3, #0
 6458 00f0 11D1     		bne	.L291
3172:Drivers/STM32L4xx_HAL_Driver/Src/stm32l4xx_hal_ospi.c ****         {
3173:Drivers/STM32L4xx_HAL_Driver/Src/stm32l4xx_hal_ospi.c ****           /* The IO Low correspond to the instance passed as parameter */
3174:Drivers/STM32L4xx_HAL_Driver/Src/stm32l4xx_hal_ospi.c ****           if ((reg & OCTOSPIM_PCR_IOLSRC_0) == 0U)
 6459              		.loc 1 3174 20
 6460 00f2 BB68     		ldr	r3, [r7, #8]
 6461 00f4 03F40033 		and	r3, r3, #131072
 6462              		.loc 1 3174 14
 6463 00f8 002B     		cmp	r3, #0
 6464 00fa 06D1     		bne	.L292
3175:Drivers/STM32L4xx_HAL_Driver/Src/stm32l4xx_hal_ospi.c ****           {
3176:Drivers/STM32L4xx_HAL_Driver/Src/stm32l4xx_hal_ospi.c ****             cfg->IOLowPort = (OCTOSPIM_PCR_IOLEN | (index+1U));
 6465              		.loc 1 3176 58
 6466 00fc FB68     		ldr	r3, [r7, #12]
 6467 00fe 0133     		adds	r3, r3, #1
 6468              		.loc 1 3176 50
 6469 0100 43F48032 		orr	r2, r3, #65536
 6470              		.loc 1 3176 28
 6471 0104 3B68     		ldr	r3, [r7]
 6472 0106 DA60     		str	r2, [r3, #12]
 6473 0108 05E0     		b	.L291
 6474              	.L292:
3177:Drivers/STM32L4xx_HAL_Driver/Src/stm32l4xx_hal_ospi.c ****           }
3178:Drivers/STM32L4xx_HAL_Driver/Src/stm32l4xx_hal_ospi.c ****           else
3179:Drivers/STM32L4xx_HAL_Driver/Src/stm32l4xx_hal_ospi.c ****           {
3180:Drivers/STM32L4xx_HAL_Driver/Src/stm32l4xx_hal_ospi.c ****             cfg->IOLowPort = (OCTOSPIM_PCR_IOHEN | (index+1U));
 6475              		.loc 1 3180 58
 6476 010a FB68     		ldr	r3, [r7, #12]
 6477 010c 0133     		adds	r3, r3, #1
 6478              		.loc 1 3180 50
 6479 010e 43F08072 		orr	r2, r3, #16777216
 6480              		.loc 1 3180 28
 6481 0112 3B68     		ldr	r3, [r7]
 6482 0114 DA60     		str	r2, [r3, #12]
 6483              	.L291:
3181:Drivers/STM32L4xx_HAL_Driver/Src/stm32l4xx_hal_ospi.c ****           }
3182:Drivers/STM32L4xx_HAL_Driver/Src/stm32l4xx_hal_ospi.c ****         }
3183:Drivers/STM32L4xx_HAL_Driver/Src/stm32l4xx_hal_ospi.c ****       }
ARM GAS  C:\Users\Morroway\AppData\Local\Temp\ccxQAUQ3.s 			page 170


3184:Drivers/STM32L4xx_HAL_Driver/Src/stm32l4xx_hal_ospi.c **** 
3185:Drivers/STM32L4xx_HAL_Driver/Src/stm32l4xx_hal_ospi.c ****       if ((reg & OCTOSPIM_PCR_IOHEN) != 0U)
 6484              		.loc 1 3185 16
 6485 0116 BB68     		ldr	r3, [r7, #8]
 6486 0118 03F08073 		and	r3, r3, #16777216
 6487              		.loc 1 3185 10
 6488 011c 002B     		cmp	r3, #0
 6489 011e 18D0     		beq	.L293
3186:Drivers/STM32L4xx_HAL_Driver/Src/stm32l4xx_hal_ospi.c ****       {
3187:Drivers/STM32L4xx_HAL_Driver/Src/stm32l4xx_hal_ospi.c ****         /* The IO High is enabled on this port */
3188:Drivers/STM32L4xx_HAL_Driver/Src/stm32l4xx_hal_ospi.c ****         if ((reg & OCTOSPIM_PCR_IOHSRC_1) == (value & OCTOSPIM_PCR_IOHSRC_1))
 6490              		.loc 1 3188 43
 6491 0120 BA68     		ldr	r2, [r7, #8]
 6492 0122 3B69     		ldr	r3, [r7, #16]
 6493 0124 5340     		eors	r3, r3, r2
 6494 0126 03F08063 		and	r3, r3, #67108864
 6495              		.loc 1 3188 12
 6496 012a 002B     		cmp	r3, #0
 6497 012c 11D1     		bne	.L293
3189:Drivers/STM32L4xx_HAL_Driver/Src/stm32l4xx_hal_ospi.c ****         {
3190:Drivers/STM32L4xx_HAL_Driver/Src/stm32l4xx_hal_ospi.c ****           /* The IO High correspond to the instance passed as parameter */
3191:Drivers/STM32L4xx_HAL_Driver/Src/stm32l4xx_hal_ospi.c ****           if ((reg & OCTOSPIM_PCR_IOHSRC_0) == 0U)
 6498              		.loc 1 3191 20
 6499 012e BB68     		ldr	r3, [r7, #8]
 6500 0130 03F00073 		and	r3, r3, #33554432
 6501              		.loc 1 3191 14
 6502 0134 002B     		cmp	r3, #0
 6503 0136 06D1     		bne	.L294
3192:Drivers/STM32L4xx_HAL_Driver/Src/stm32l4xx_hal_ospi.c ****           {
3193:Drivers/STM32L4xx_HAL_Driver/Src/stm32l4xx_hal_ospi.c ****             cfg->IOHighPort = (OCTOSPIM_PCR_IOLEN | (index+1U));
 6504              		.loc 1 3193 59
 6505 0138 FB68     		ldr	r3, [r7, #12]
 6506 013a 0133     		adds	r3, r3, #1
 6507              		.loc 1 3193 51
 6508 013c 43F48032 		orr	r2, r3, #65536
 6509              		.loc 1 3193 29
 6510 0140 3B68     		ldr	r3, [r7]
 6511 0142 1A61     		str	r2, [r3, #16]
 6512 0144 05E0     		b	.L293
 6513              	.L294:
3194:Drivers/STM32L4xx_HAL_Driver/Src/stm32l4xx_hal_ospi.c ****           }
3195:Drivers/STM32L4xx_HAL_Driver/Src/stm32l4xx_hal_ospi.c ****           else
3196:Drivers/STM32L4xx_HAL_Driver/Src/stm32l4xx_hal_ospi.c ****           {
3197:Drivers/STM32L4xx_HAL_Driver/Src/stm32l4xx_hal_ospi.c ****             cfg->IOHighPort = (OCTOSPIM_PCR_IOHEN | (index+1U));
 6514              		.loc 1 3197 59
 6515 0146 FB68     		ldr	r3, [r7, #12]
 6516 0148 0133     		adds	r3, r3, #1
 6517              		.loc 1 3197 51
 6518 014a 43F08072 		orr	r2, r3, #16777216
 6519              		.loc 1 3197 29
 6520 014e 3B68     		ldr	r3, [r7]
 6521 0150 1A61     		str	r2, [r3, #16]
 6522              	.L293:
3134:Drivers/STM32L4xx_HAL_Driver/Src/stm32l4xx_hal_ospi.c ****     {
 6523              		.loc 1 3134 55 discriminator 2
 6524 0152 FB68     		ldr	r3, [r7, #12]
 6525 0154 0133     		adds	r3, r3, #1
ARM GAS  C:\Users\Morroway\AppData\Local\Temp\ccxQAUQ3.s 			page 171


 6526 0156 FB60     		str	r3, [r7, #12]
 6527              	.L287:
3134:Drivers/STM32L4xx_HAL_Driver/Src/stm32l4xx_hal_ospi.c ****     {
 6528              		.loc 1 3134 28 discriminator 1
 6529 0158 FB68     		ldr	r3, [r7, #12]
 6530 015a 012B     		cmp	r3, #1
 6531 015c 87D9     		bls	.L295
 6532              	.L284:
3198:Drivers/STM32L4xx_HAL_Driver/Src/stm32l4xx_hal_ospi.c ****           }
3199:Drivers/STM32L4xx_HAL_Driver/Src/stm32l4xx_hal_ospi.c ****         }
3200:Drivers/STM32L4xx_HAL_Driver/Src/stm32l4xx_hal_ospi.c ****       }
3201:Drivers/STM32L4xx_HAL_Driver/Src/stm32l4xx_hal_ospi.c ****     }
3202:Drivers/STM32L4xx_HAL_Driver/Src/stm32l4xx_hal_ospi.c ****   }
3203:Drivers/STM32L4xx_HAL_Driver/Src/stm32l4xx_hal_ospi.c **** 
3204:Drivers/STM32L4xx_HAL_Driver/Src/stm32l4xx_hal_ospi.c ****   /* Return function status */
3205:Drivers/STM32L4xx_HAL_Driver/Src/stm32l4xx_hal_ospi.c ****   return status;
 6533              		.loc 1 3205 10
 6534 015e FB7D     		ldrb	r3, [r7, #23]	@ zero_extendqisi2
3206:Drivers/STM32L4xx_HAL_Driver/Src/stm32l4xx_hal_ospi.c **** }
 6535              		.loc 1 3206 1
 6536 0160 1846     		mov	r0, r3
 6537 0162 1C37     		adds	r7, r7, #28
 6538              		.cfi_def_cfa_offset 4
 6539 0164 BD46     		mov	sp, r7
 6540              		.cfi_def_cfa_register 13
 6541              		@ sp needed
 6542 0166 5DF8047B 		ldr	r7, [sp], #4
 6543              		.cfi_restore 7
 6544              		.cfi_def_cfa_offset 0
 6545 016a 7047     		bx	lr
 6546              	.L298:
 6547              		.align	2
 6548              	.L297:
 6549 016c 001C0650 		.word	1342577664
 6550 0170 22020404 		.word	67371554
 6551              		.cfi_endproc
 6552              	.LFE363:
 6554              		.text
 6555              	.Letext0:
 6556              		.file 2 "c:\\users\\morroway\\appdata\\roaming\\code\\user\\globalstorage\\bmd.stm32-for-vscode\\@
 6557              		.file 3 "c:\\users\\morroway\\appdata\\roaming\\code\\user\\globalstorage\\bmd.stm32-for-vscode\\@
 6558              		.file 4 "Drivers/CMSIS/Device/ST/STM32L4xx/Include/stm32l4p5xx.h"
 6559              		.file 5 "Drivers/CMSIS/Device/ST/STM32L4xx/Include/stm32l4xx.h"
 6560              		.file 6 "Drivers/STM32L4xx_HAL_Driver/Inc/stm32l4xx_hal_def.h"
 6561              		.file 7 "Drivers/STM32L4xx_HAL_Driver/Inc/stm32l4xx_hal_dma.h"
 6562              		.file 8 "Drivers/STM32L4xx_HAL_Driver/Inc/stm32l4xx_hal_ospi.h"
 6563              		.file 9 "Drivers/STM32L4xx_HAL_Driver/Inc/stm32l4xx_hal.h"
ARM GAS  C:\Users\Morroway\AppData\Local\Temp\ccxQAUQ3.s 			page 172


DEFINED SYMBOLS
                            *ABS*:0000000000000000 stm32l4xx_hal_ospi.c
C:\Users\Morroway\AppData\Local\Temp\ccxQAUQ3.s:20     .text.HAL_OSPI_Init:0000000000000000 $t
C:\Users\Morroway\AppData\Local\Temp\ccxQAUQ3.s:26     .text.HAL_OSPI_Init:0000000000000000 HAL_OSPI_Init
C:\Users\Morroway\AppData\Local\Temp\ccxQAUQ3.s:254    .text.HAL_OSPI_MspInit:0000000000000000 HAL_OSPI_MspInit
C:\Users\Morroway\AppData\Local\Temp\ccxQAUQ3.s:4012   .text.HAL_OSPI_SetTimeout:0000000000000000 HAL_OSPI_SetTimeout
C:\Users\Morroway\AppData\Local\Temp\ccxQAUQ3.s:5743   .text.OSPI_WaitFlagStateUntilTimeout:0000000000000000 OSPI_WaitFlagStateUntilTimeout
C:\Users\Morroway\AppData\Local\Temp\ccxQAUQ3.s:243    .text.HAL_OSPI_Init:0000000000000160 $d
C:\Users\Morroway\AppData\Local\Temp\ccxQAUQ3.s:248    .text.HAL_OSPI_MspInit:0000000000000000 $t
C:\Users\Morroway\AppData\Local\Temp\ccxQAUQ3.s:284    .text.HAL_OSPI_DeInit:0000000000000000 $t
C:\Users\Morroway\AppData\Local\Temp\ccxQAUQ3.s:290    .text.HAL_OSPI_DeInit:0000000000000000 HAL_OSPI_DeInit
C:\Users\Morroway\AppData\Local\Temp\ccxQAUQ3.s:361    .text.HAL_OSPI_MspDeInit:0000000000000000 HAL_OSPI_MspDeInit
C:\Users\Morroway\AppData\Local\Temp\ccxQAUQ3.s:355    .text.HAL_OSPI_MspDeInit:0000000000000000 $t
C:\Users\Morroway\AppData\Local\Temp\ccxQAUQ3.s:391    .text.HAL_OSPI_IRQHandler:0000000000000000 $t
C:\Users\Morroway\AppData\Local\Temp\ccxQAUQ3.s:397    .text.HAL_OSPI_IRQHandler:0000000000000000 HAL_OSPI_IRQHandler
C:\Users\Morroway\AppData\Local\Temp\ccxQAUQ3.s:3265   .text.HAL_OSPI_FifoThresholdCallback:0000000000000000 HAL_OSPI_FifoThresholdCallback
C:\Users\Morroway\AppData\Local\Temp\ccxQAUQ3.s:3337   .text.HAL_OSPI_RxCpltCallback:0000000000000000 HAL_OSPI_RxCpltCallback
C:\Users\Morroway\AppData\Local\Temp\ccxQAUQ3.s:3373   .text.HAL_OSPI_TxCpltCallback:0000000000000000 HAL_OSPI_TxCpltCallback
C:\Users\Morroway\AppData\Local\Temp\ccxQAUQ3.s:3301   .text.HAL_OSPI_CmdCpltCallback:0000000000000000 HAL_OSPI_CmdCpltCallback
C:\Users\Morroway\AppData\Local\Temp\ccxQAUQ3.s:3229   .text.HAL_OSPI_AbortCpltCallback:0000000000000000 HAL_OSPI_AbortCpltCallback
C:\Users\Morroway\AppData\Local\Temp\ccxQAUQ3.s:3193   .text.HAL_OSPI_ErrorCallback:0000000000000000 HAL_OSPI_ErrorCallback
C:\Users\Morroway\AppData\Local\Temp\ccxQAUQ3.s:3481   .text.HAL_OSPI_StatusMatchCallback:0000000000000000 HAL_OSPI_StatusMatchCallback
C:\Users\Morroway\AppData\Local\Temp\ccxQAUQ3.s:3517   .text.HAL_OSPI_TimeOutCallback:0000000000000000 HAL_OSPI_TimeOutCallback
C:\Users\Morroway\AppData\Local\Temp\ccxQAUQ3.s:838    .text.HAL_OSPI_IRQHandler:0000000000000280 $d
C:\Users\Morroway\AppData\Local\Temp\ccxQAUQ3.s:5647   .text.OSPI_DMAAbortCplt:0000000000000000 OSPI_DMAAbortCplt
C:\Users\Morroway\AppData\Local\Temp\ccxQAUQ3.s:843    .text.HAL_OSPI_Command:0000000000000000 $t
C:\Users\Morroway\AppData\Local\Temp\ccxQAUQ3.s:849    .text.HAL_OSPI_Command:0000000000000000 HAL_OSPI_Command
C:\Users\Morroway\AppData\Local\Temp\ccxQAUQ3.s:5834   .text.OSPI_ConfigCmd:0000000000000000 OSPI_ConfigCmd
C:\Users\Morroway\AppData\Local\Temp\ccxQAUQ3.s:1048   .text.HAL_OSPI_Command_IT:0000000000000000 $t
C:\Users\Morroway\AppData\Local\Temp\ccxQAUQ3.s:1054   .text.HAL_OSPI_Command_IT:0000000000000000 HAL_OSPI_Command_IT
C:\Users\Morroway\AppData\Local\Temp\ccxQAUQ3.s:1172   .text.HAL_OSPI_HyperbusCfg:0000000000000000 $t
C:\Users\Morroway\AppData\Local\Temp\ccxQAUQ3.s:1178   .text.HAL_OSPI_HyperbusCfg:0000000000000000 HAL_OSPI_HyperbusCfg
C:\Users\Morroway\AppData\Local\Temp\ccxQAUQ3.s:1271   .text.HAL_OSPI_HyperbusCmd:0000000000000000 $t
C:\Users\Morroway\AppData\Local\Temp\ccxQAUQ3.s:1277   .text.HAL_OSPI_HyperbusCmd:0000000000000000 HAL_OSPI_HyperbusCmd
C:\Users\Morroway\AppData\Local\Temp\ccxQAUQ3.s:1404   .text.HAL_OSPI_Transmit:0000000000000000 $t
C:\Users\Morroway\AppData\Local\Temp\ccxQAUQ3.s:1410   .text.HAL_OSPI_Transmit:0000000000000000 HAL_OSPI_Transmit
C:\Users\Morroway\AppData\Local\Temp\ccxQAUQ3.s:1581   .text.HAL_OSPI_Receive:0000000000000000 $t
C:\Users\Morroway\AppData\Local\Temp\ccxQAUQ3.s:1587   .text.HAL_OSPI_Receive:0000000000000000 HAL_OSPI_Receive
C:\Users\Morroway\AppData\Local\Temp\ccxQAUQ3.s:1805   .text.HAL_OSPI_Transmit_IT:0000000000000000 $t
C:\Users\Morroway\AppData\Local\Temp\ccxQAUQ3.s:1811   .text.HAL_OSPI_Transmit_IT:0000000000000000 HAL_OSPI_Transmit_IT
C:\Users\Morroway\AppData\Local\Temp\ccxQAUQ3.s:1920   .text.HAL_OSPI_Receive_IT:0000000000000000 $t
C:\Users\Morroway\AppData\Local\Temp\ccxQAUQ3.s:1926   .text.HAL_OSPI_Receive_IT:0000000000000000 HAL_OSPI_Receive_IT
C:\Users\Morroway\AppData\Local\Temp\ccxQAUQ3.s:2081   .text.HAL_OSPI_Transmit_DMA:0000000000000000 $t
C:\Users\Morroway\AppData\Local\Temp\ccxQAUQ3.s:2087   .text.HAL_OSPI_Transmit_DMA:0000000000000000 HAL_OSPI_Transmit_DMA
C:\Users\Morroway\AppData\Local\Temp\ccxQAUQ3.s:2373   .text.HAL_OSPI_Transmit_DMA:0000000000000190 $d
C:\Users\Morroway\AppData\Local\Temp\ccxQAUQ3.s:5445   .text.OSPI_DMACplt:0000000000000000 OSPI_DMACplt
C:\Users\Morroway\AppData\Local\Temp\ccxQAUQ3.s:5512   .text.OSPI_DMAHalfCplt:0000000000000000 OSPI_DMAHalfCplt
C:\Users\Morroway\AppData\Local\Temp\ccxQAUQ3.s:5572   .text.OSPI_DMAError:0000000000000000 OSPI_DMAError
C:\Users\Morroway\AppData\Local\Temp\ccxQAUQ3.s:2380   .text.HAL_OSPI_Receive_DMA:0000000000000000 $t
C:\Users\Morroway\AppData\Local\Temp\ccxQAUQ3.s:2386   .text.HAL_OSPI_Receive_DMA:0000000000000000 HAL_OSPI_Receive_DMA
C:\Users\Morroway\AppData\Local\Temp\ccxQAUQ3.s:2719   .text.HAL_OSPI_Receive_DMA:00000000000001e0 $d
C:\Users\Morroway\AppData\Local\Temp\ccxQAUQ3.s:2726   .text.HAL_OSPI_AutoPolling:0000000000000000 $t
C:\Users\Morroway\AppData\Local\Temp\ccxQAUQ3.s:2732   .text.HAL_OSPI_AutoPolling:0000000000000000 HAL_OSPI_AutoPolling
C:\Users\Morroway\AppData\Local\Temp\ccxQAUQ3.s:2909   .text.HAL_OSPI_AutoPolling_IT:0000000000000000 $t
C:\Users\Morroway\AppData\Local\Temp\ccxQAUQ3.s:2915   .text.HAL_OSPI_AutoPolling_IT:0000000000000000 HAL_OSPI_AutoPolling_IT
C:\Users\Morroway\AppData\Local\Temp\ccxQAUQ3.s:3074   .text.HAL_OSPI_MemoryMapped:0000000000000000 $t
C:\Users\Morroway\AppData\Local\Temp\ccxQAUQ3.s:3080   .text.HAL_OSPI_MemoryMapped:0000000000000000 HAL_OSPI_MemoryMapped
ARM GAS  C:\Users\Morroway\AppData\Local\Temp\ccxQAUQ3.s 			page 173


C:\Users\Morroway\AppData\Local\Temp\ccxQAUQ3.s:3187   .text.HAL_OSPI_ErrorCallback:0000000000000000 $t
C:\Users\Morroway\AppData\Local\Temp\ccxQAUQ3.s:3223   .text.HAL_OSPI_AbortCpltCallback:0000000000000000 $t
C:\Users\Morroway\AppData\Local\Temp\ccxQAUQ3.s:3259   .text.HAL_OSPI_FifoThresholdCallback:0000000000000000 $t
C:\Users\Morroway\AppData\Local\Temp\ccxQAUQ3.s:3295   .text.HAL_OSPI_CmdCpltCallback:0000000000000000 $t
C:\Users\Morroway\AppData\Local\Temp\ccxQAUQ3.s:3331   .text.HAL_OSPI_RxCpltCallback:0000000000000000 $t
C:\Users\Morroway\AppData\Local\Temp\ccxQAUQ3.s:3367   .text.HAL_OSPI_TxCpltCallback:0000000000000000 $t
C:\Users\Morroway\AppData\Local\Temp\ccxQAUQ3.s:3403   .text.HAL_OSPI_RxHalfCpltCallback:0000000000000000 $t
C:\Users\Morroway\AppData\Local\Temp\ccxQAUQ3.s:3409   .text.HAL_OSPI_RxHalfCpltCallback:0000000000000000 HAL_OSPI_RxHalfCpltCallback
C:\Users\Morroway\AppData\Local\Temp\ccxQAUQ3.s:3439   .text.HAL_OSPI_TxHalfCpltCallback:0000000000000000 $t
C:\Users\Morroway\AppData\Local\Temp\ccxQAUQ3.s:3445   .text.HAL_OSPI_TxHalfCpltCallback:0000000000000000 HAL_OSPI_TxHalfCpltCallback
C:\Users\Morroway\AppData\Local\Temp\ccxQAUQ3.s:3475   .text.HAL_OSPI_StatusMatchCallback:0000000000000000 $t
C:\Users\Morroway\AppData\Local\Temp\ccxQAUQ3.s:3511   .text.HAL_OSPI_TimeOutCallback:0000000000000000 $t
C:\Users\Morroway\AppData\Local\Temp\ccxQAUQ3.s:3547   .text.HAL_OSPI_Abort:0000000000000000 $t
C:\Users\Morroway\AppData\Local\Temp\ccxQAUQ3.s:3553   .text.HAL_OSPI_Abort:0000000000000000 HAL_OSPI_Abort
C:\Users\Morroway\AppData\Local\Temp\ccxQAUQ3.s:3716   .text.HAL_OSPI_Abort_IT:0000000000000000 $t
C:\Users\Morroway\AppData\Local\Temp\ccxQAUQ3.s:3722   .text.HAL_OSPI_Abort_IT:0000000000000000 HAL_OSPI_Abort_IT
C:\Users\Morroway\AppData\Local\Temp\ccxQAUQ3.s:3879   .text.HAL_OSPI_Abort_IT:00000000000000e0 $d
C:\Users\Morroway\AppData\Local\Temp\ccxQAUQ3.s:3884   .text.HAL_OSPI_SetFifoThreshold:0000000000000000 $t
C:\Users\Morroway\AppData\Local\Temp\ccxQAUQ3.s:3890   .text.HAL_OSPI_SetFifoThreshold:0000000000000000 HAL_OSPI_SetFifoThreshold
C:\Users\Morroway\AppData\Local\Temp\ccxQAUQ3.s:3961   .text.HAL_OSPI_GetFifoThreshold:0000000000000000 $t
C:\Users\Morroway\AppData\Local\Temp\ccxQAUQ3.s:3967   .text.HAL_OSPI_GetFifoThreshold:0000000000000000 HAL_OSPI_GetFifoThreshold
C:\Users\Morroway\AppData\Local\Temp\ccxQAUQ3.s:4006   .text.HAL_OSPI_SetTimeout:0000000000000000 $t
C:\Users\Morroway\AppData\Local\Temp\ccxQAUQ3.s:4049   .text.HAL_OSPI_GetError:0000000000000000 $t
C:\Users\Morroway\AppData\Local\Temp\ccxQAUQ3.s:4055   .text.HAL_OSPI_GetError:0000000000000000 HAL_OSPI_GetError
C:\Users\Morroway\AppData\Local\Temp\ccxQAUQ3.s:4088   .text.HAL_OSPI_GetState:0000000000000000 $t
C:\Users\Morroway\AppData\Local\Temp\ccxQAUQ3.s:4094   .text.HAL_OSPI_GetState:0000000000000000 HAL_OSPI_GetState
C:\Users\Morroway\AppData\Local\Temp\ccxQAUQ3.s:4127   .text.HAL_OSPIM_Config:0000000000000000 $t
C:\Users\Morroway\AppData\Local\Temp\ccxQAUQ3.s:4133   .text.HAL_OSPIM_Config:0000000000000000 HAL_OSPIM_Config
C:\Users\Morroway\AppData\Local\Temp\ccxQAUQ3.s:6286   .text.OSPIM_GetConfig:0000000000000000 OSPIM_GetConfig
C:\Users\Morroway\AppData\Local\Temp\ccxQAUQ3.s:4479   .text.HAL_OSPIM_Config:0000000000000294 $d
C:\Users\Morroway\AppData\Local\Temp\ccxQAUQ3.s:4484   .text.HAL_OSPIM_Config:00000000000002a0 $t
C:\Users\Morroway\AppData\Local\Temp\ccxQAUQ3.s:4817   .text.HAL_OSPIM_Config:0000000000000508 $d
C:\Users\Morroway\AppData\Local\Temp\ccxQAUQ3.s:4820   .text.HAL_OSPIM_Config:000000000000050c $t
C:\Users\Morroway\AppData\Local\Temp\ccxQAUQ3.s:5196   .text.HAL_OSPIM_Config:00000000000007fc $d
C:\Users\Morroway\AppData\Local\Temp\ccxQAUQ3.s:5199   .text.HAL_OSPIM_Config:0000000000000800 $t
C:\Users\Morroway\AppData\Local\Temp\ccxQAUQ3.s:5433   .text.HAL_OSPIM_Config:00000000000009c4 $d
C:\Users\Morroway\AppData\Local\Temp\ccxQAUQ3.s:5440   .text.OSPI_DMACplt:0000000000000000 $t
C:\Users\Morroway\AppData\Local\Temp\ccxQAUQ3.s:5507   .text.OSPI_DMAHalfCplt:0000000000000000 $t
C:\Users\Morroway\AppData\Local\Temp\ccxQAUQ3.s:5567   .text.OSPI_DMAError:0000000000000000 $t
C:\Users\Morroway\AppData\Local\Temp\ccxQAUQ3.s:5642   .text.OSPI_DMAAbortCplt:0000000000000000 $t
C:\Users\Morroway\AppData\Local\Temp\ccxQAUQ3.s:5738   .text.OSPI_WaitFlagStateUntilTimeout:0000000000000000 $t
C:\Users\Morroway\AppData\Local\Temp\ccxQAUQ3.s:5829   .text.OSPI_ConfigCmd:0000000000000000 $t
C:\Users\Morroway\AppData\Local\Temp\ccxQAUQ3.s:6276   .text.OSPI_ConfigCmd:00000000000002c0 $d
C:\Users\Morroway\AppData\Local\Temp\ccxQAUQ3.s:6281   .text.OSPIM_GetConfig:0000000000000000 $t
C:\Users\Morroway\AppData\Local\Temp\ccxQAUQ3.s:6549   .text.OSPIM_GetConfig:000000000000016c $d

UNDEFINED SYMBOLS
HAL_GetTick
HAL_DMA_Abort_IT
HAL_DMA_Start_IT
HAL_DMA_Abort
