ARM GAS  C:\Users\Morroway\AppData\Local\Temp\cclk5axT.s 			page 1


   1              		.cpu cortex-m4
   2              		.arch armv7e-m
   3              		.fpu fpv4-sp-d16
   4              		.eabi_attribute 27, 1
   5              		.eabi_attribute 28, 1
   6              		.eabi_attribute 20, 1
   7              		.eabi_attribute 21, 1
   8              		.eabi_attribute 23, 3
   9              		.eabi_attribute 24, 1
  10              		.eabi_attribute 25, 1
  11              		.eabi_attribute 26, 1
  12              		.eabi_attribute 30, 6
  13              		.eabi_attribute 34, 1
  14              		.eabi_attribute 18, 4
  15              		.file	"stm32l4xx_hal_ltdc.c"
  16              		.text
  17              	.Ltext0:
  18              		.cfi_sections	.debug_frame
  19              		.section	.text.HAL_LTDC_Init,"ax",%progbits
  20              		.align	1
  21              		.global	HAL_LTDC_Init
  22              		.syntax unified
  23              		.thumb
  24              		.thumb_func
  26              	HAL_LTDC_Init:
  27              	.LFB321:
  28              		.file 1 "Drivers/STM32L4xx_HAL_Driver/Src/stm32l4xx_hal_ltdc.c"
   1:Drivers/STM32L4xx_HAL_Driver/Src/stm32l4xx_hal_ltdc.c **** /**
   2:Drivers/STM32L4xx_HAL_Driver/Src/stm32l4xx_hal_ltdc.c ****   ******************************************************************************
   3:Drivers/STM32L4xx_HAL_Driver/Src/stm32l4xx_hal_ltdc.c ****   * @file    stm32l4xx_hal_ltdc.c
   4:Drivers/STM32L4xx_HAL_Driver/Src/stm32l4xx_hal_ltdc.c ****   * @author  MCD Application Team
   5:Drivers/STM32L4xx_HAL_Driver/Src/stm32l4xx_hal_ltdc.c ****   * @brief   LTDC HAL module driver.
   6:Drivers/STM32L4xx_HAL_Driver/Src/stm32l4xx_hal_ltdc.c ****   *          This file provides firmware functions to manage the following
   7:Drivers/STM32L4xx_HAL_Driver/Src/stm32l4xx_hal_ltdc.c ****   *          functionalities of the LTDC peripheral:
   8:Drivers/STM32L4xx_HAL_Driver/Src/stm32l4xx_hal_ltdc.c ****   *           + Initialization and de-initialization functions
   9:Drivers/STM32L4xx_HAL_Driver/Src/stm32l4xx_hal_ltdc.c ****   *           + IO operation functions
  10:Drivers/STM32L4xx_HAL_Driver/Src/stm32l4xx_hal_ltdc.c ****   *           + Peripheral Control functions
  11:Drivers/STM32L4xx_HAL_Driver/Src/stm32l4xx_hal_ltdc.c ****   *           + Peripheral State and Errors functions
  12:Drivers/STM32L4xx_HAL_Driver/Src/stm32l4xx_hal_ltdc.c ****   *
  13:Drivers/STM32L4xx_HAL_Driver/Src/stm32l4xx_hal_ltdc.c ****   ******************************************************************************
  14:Drivers/STM32L4xx_HAL_Driver/Src/stm32l4xx_hal_ltdc.c ****   * @attention
  15:Drivers/STM32L4xx_HAL_Driver/Src/stm32l4xx_hal_ltdc.c ****   *
  16:Drivers/STM32L4xx_HAL_Driver/Src/stm32l4xx_hal_ltdc.c ****   * Copyright (c) 2017 STMicroelectronics.
  17:Drivers/STM32L4xx_HAL_Driver/Src/stm32l4xx_hal_ltdc.c ****   * All rights reserved.
  18:Drivers/STM32L4xx_HAL_Driver/Src/stm32l4xx_hal_ltdc.c ****   *
  19:Drivers/STM32L4xx_HAL_Driver/Src/stm32l4xx_hal_ltdc.c ****   * This software is licensed under terms that can be found in the LICENSE file
  20:Drivers/STM32L4xx_HAL_Driver/Src/stm32l4xx_hal_ltdc.c ****   * in the root directory of this software component.
  21:Drivers/STM32L4xx_HAL_Driver/Src/stm32l4xx_hal_ltdc.c ****   * If no LICENSE file comes with this software, it is provided AS-IS.
  22:Drivers/STM32L4xx_HAL_Driver/Src/stm32l4xx_hal_ltdc.c ****   *
  23:Drivers/STM32L4xx_HAL_Driver/Src/stm32l4xx_hal_ltdc.c ****   ******************************************************************************
  24:Drivers/STM32L4xx_HAL_Driver/Src/stm32l4xx_hal_ltdc.c ****   @verbatim
  25:Drivers/STM32L4xx_HAL_Driver/Src/stm32l4xx_hal_ltdc.c ****   ==============================================================================
  26:Drivers/STM32L4xx_HAL_Driver/Src/stm32l4xx_hal_ltdc.c ****                         ##### How to use this driver #####
  27:Drivers/STM32L4xx_HAL_Driver/Src/stm32l4xx_hal_ltdc.c ****   ==============================================================================
  28:Drivers/STM32L4xx_HAL_Driver/Src/stm32l4xx_hal_ltdc.c ****      [..]
  29:Drivers/STM32L4xx_HAL_Driver/Src/stm32l4xx_hal_ltdc.c ****      The LTDC HAL driver can be used as follows:
  30:Drivers/STM32L4xx_HAL_Driver/Src/stm32l4xx_hal_ltdc.c **** 
ARM GAS  C:\Users\Morroway\AppData\Local\Temp\cclk5axT.s 			page 2


  31:Drivers/STM32L4xx_HAL_Driver/Src/stm32l4xx_hal_ltdc.c ****      (#) Declare a LTDC_HandleTypeDef handle structure, for example: LTDC_HandleTypeDef  hltdc;
  32:Drivers/STM32L4xx_HAL_Driver/Src/stm32l4xx_hal_ltdc.c **** 
  33:Drivers/STM32L4xx_HAL_Driver/Src/stm32l4xx_hal_ltdc.c ****      (#) Initialize the LTDC low level resources by implementing the HAL_LTDC_MspInit() API:
  34:Drivers/STM32L4xx_HAL_Driver/Src/stm32l4xx_hal_ltdc.c ****          (##) Enable the LTDC interface clock
  35:Drivers/STM32L4xx_HAL_Driver/Src/stm32l4xx_hal_ltdc.c ****          (##) NVIC configuration if you need to use interrupt process
  36:Drivers/STM32L4xx_HAL_Driver/Src/stm32l4xx_hal_ltdc.c ****              (+++) Configure the LTDC interrupt priority
  37:Drivers/STM32L4xx_HAL_Driver/Src/stm32l4xx_hal_ltdc.c ****              (+++) Enable the NVIC LTDC IRQ Channel
  38:Drivers/STM32L4xx_HAL_Driver/Src/stm32l4xx_hal_ltdc.c **** 
  39:Drivers/STM32L4xx_HAL_Driver/Src/stm32l4xx_hal_ltdc.c ****      (#) Initialize the required configuration through the following parameters:
  40:Drivers/STM32L4xx_HAL_Driver/Src/stm32l4xx_hal_ltdc.c ****          the LTDC timing, the horizontal and vertical polarity, the pixel clock polarity,
  41:Drivers/STM32L4xx_HAL_Driver/Src/stm32l4xx_hal_ltdc.c ****          Data Enable polarity and the LTDC background color value using HAL_LTDC_Init() function
  42:Drivers/STM32L4xx_HAL_Driver/Src/stm32l4xx_hal_ltdc.c **** 
  43:Drivers/STM32L4xx_HAL_Driver/Src/stm32l4xx_hal_ltdc.c ****      *** Configuration ***
  44:Drivers/STM32L4xx_HAL_Driver/Src/stm32l4xx_hal_ltdc.c ****      =========================
  45:Drivers/STM32L4xx_HAL_Driver/Src/stm32l4xx_hal_ltdc.c ****      [..]
  46:Drivers/STM32L4xx_HAL_Driver/Src/stm32l4xx_hal_ltdc.c ****      (#) Program the required configuration through the following parameters:
  47:Drivers/STM32L4xx_HAL_Driver/Src/stm32l4xx_hal_ltdc.c ****          the pixel format, the blending factors, input alpha value, the window size
  48:Drivers/STM32L4xx_HAL_Driver/Src/stm32l4xx_hal_ltdc.c ****          and the image size using HAL_LTDC_ConfigLayer() function for foreground
  49:Drivers/STM32L4xx_HAL_Driver/Src/stm32l4xx_hal_ltdc.c ****          or/and background layer.
  50:Drivers/STM32L4xx_HAL_Driver/Src/stm32l4xx_hal_ltdc.c **** 
  51:Drivers/STM32L4xx_HAL_Driver/Src/stm32l4xx_hal_ltdc.c ****      (#) Optionally, configure and enable the CLUT using HAL_LTDC_ConfigCLUT() and
  52:Drivers/STM32L4xx_HAL_Driver/Src/stm32l4xx_hal_ltdc.c ****          HAL_LTDC_EnableCLUT functions.
  53:Drivers/STM32L4xx_HAL_Driver/Src/stm32l4xx_hal_ltdc.c **** 
  54:Drivers/STM32L4xx_HAL_Driver/Src/stm32l4xx_hal_ltdc.c ****      (#) Optionally, enable the Dither using HAL_LTDC_EnableDither().
  55:Drivers/STM32L4xx_HAL_Driver/Src/stm32l4xx_hal_ltdc.c **** 
  56:Drivers/STM32L4xx_HAL_Driver/Src/stm32l4xx_hal_ltdc.c ****      (#) Optionally, configure and enable the Color keying using HAL_LTDC_ConfigColorKeying()
  57:Drivers/STM32L4xx_HAL_Driver/Src/stm32l4xx_hal_ltdc.c ****          and HAL_LTDC_EnableColorKeying functions.
  58:Drivers/STM32L4xx_HAL_Driver/Src/stm32l4xx_hal_ltdc.c **** 
  59:Drivers/STM32L4xx_HAL_Driver/Src/stm32l4xx_hal_ltdc.c ****      (#) Optionally, configure LineInterrupt using HAL_LTDC_ProgramLineEvent()
  60:Drivers/STM32L4xx_HAL_Driver/Src/stm32l4xx_hal_ltdc.c ****          function
  61:Drivers/STM32L4xx_HAL_Driver/Src/stm32l4xx_hal_ltdc.c **** 
  62:Drivers/STM32L4xx_HAL_Driver/Src/stm32l4xx_hal_ltdc.c ****      (#) If needed, reconfigure and change the pixel format value, the alpha value
  63:Drivers/STM32L4xx_HAL_Driver/Src/stm32l4xx_hal_ltdc.c ****          value, the window size, the window position and the layer start address
  64:Drivers/STM32L4xx_HAL_Driver/Src/stm32l4xx_hal_ltdc.c ****          for foreground or/and background layer using respectively the following
  65:Drivers/STM32L4xx_HAL_Driver/Src/stm32l4xx_hal_ltdc.c ****          functions: HAL_LTDC_SetPixelFormat(), HAL_LTDC_SetAlpha(), HAL_LTDC_SetWindowSize(),
  66:Drivers/STM32L4xx_HAL_Driver/Src/stm32l4xx_hal_ltdc.c ****          HAL_LTDC_SetWindowPosition() and HAL_LTDC_SetAddress().
  67:Drivers/STM32L4xx_HAL_Driver/Src/stm32l4xx_hal_ltdc.c **** 
  68:Drivers/STM32L4xx_HAL_Driver/Src/stm32l4xx_hal_ltdc.c ****      (#) Variant functions with _NoReload suffix allows to set the LTDC configuration/settings with
  69:Drivers/STM32L4xx_HAL_Driver/Src/stm32l4xx_hal_ltdc.c ****          This is useful in case when the program requires to modify serval LTDC settings (on one or
  70:Drivers/STM32L4xx_HAL_Driver/Src/stm32l4xx_hal_ltdc.c ****          then applying(reload) these settings in one shot by calling the function HAL_LTDC_Reload()
  71:Drivers/STM32L4xx_HAL_Driver/Src/stm32l4xx_hal_ltdc.c **** 
  72:Drivers/STM32L4xx_HAL_Driver/Src/stm32l4xx_hal_ltdc.c ****          After calling the _NoReload functions to set different color/format/layer settings,
  73:Drivers/STM32L4xx_HAL_Driver/Src/stm32l4xx_hal_ltdc.c ****          the program shall call the function HAL_LTDC_Reload() to apply(reload) these settings.
  74:Drivers/STM32L4xx_HAL_Driver/Src/stm32l4xx_hal_ltdc.c ****          Function HAL_LTDC_Reload() can be called with the parameter ReloadType set to LTDC_RELOAD_
  75:Drivers/STM32L4xx_HAL_Driver/Src/stm32l4xx_hal_ltdc.c ****          an immediate reload is required.
  76:Drivers/STM32L4xx_HAL_Driver/Src/stm32l4xx_hal_ltdc.c ****          Function HAL_LTDC_Reload() can be called with the parameter ReloadType set to LTDC_RELOAD_
  77:Drivers/STM32L4xx_HAL_Driver/Src/stm32l4xx_hal_ltdc.c ****          the reload should be done in the next vertical blanking period,
  78:Drivers/STM32L4xx_HAL_Driver/Src/stm32l4xx_hal_ltdc.c ****          this option allows to avoid display flicker by applying the new settings during the vertic
  79:Drivers/STM32L4xx_HAL_Driver/Src/stm32l4xx_hal_ltdc.c **** 
  80:Drivers/STM32L4xx_HAL_Driver/Src/stm32l4xx_hal_ltdc.c **** 
  81:Drivers/STM32L4xx_HAL_Driver/Src/stm32l4xx_hal_ltdc.c ****      (#) To control LTDC state you can use the following function: HAL_LTDC_GetState()
  82:Drivers/STM32L4xx_HAL_Driver/Src/stm32l4xx_hal_ltdc.c **** 
  83:Drivers/STM32L4xx_HAL_Driver/Src/stm32l4xx_hal_ltdc.c ****      *** LTDC HAL driver macros list ***
  84:Drivers/STM32L4xx_HAL_Driver/Src/stm32l4xx_hal_ltdc.c ****      =============================================
  85:Drivers/STM32L4xx_HAL_Driver/Src/stm32l4xx_hal_ltdc.c ****      [..]
  86:Drivers/STM32L4xx_HAL_Driver/Src/stm32l4xx_hal_ltdc.c ****        Below the list of most used macros in LTDC HAL driver.
  87:Drivers/STM32L4xx_HAL_Driver/Src/stm32l4xx_hal_ltdc.c **** 
ARM GAS  C:\Users\Morroway\AppData\Local\Temp\cclk5axT.s 			page 3


  88:Drivers/STM32L4xx_HAL_Driver/Src/stm32l4xx_hal_ltdc.c ****       (+) __HAL_LTDC_ENABLE: Enable the LTDC.
  89:Drivers/STM32L4xx_HAL_Driver/Src/stm32l4xx_hal_ltdc.c ****       (+) __HAL_LTDC_DISABLE: Disable the LTDC.
  90:Drivers/STM32L4xx_HAL_Driver/Src/stm32l4xx_hal_ltdc.c ****       (+) __HAL_LTDC_LAYER_ENABLE: Enable an LTDC Layer.
  91:Drivers/STM32L4xx_HAL_Driver/Src/stm32l4xx_hal_ltdc.c ****       (+) __HAL_LTDC_LAYER_DISABLE: Disable an LTDC Layer.
  92:Drivers/STM32L4xx_HAL_Driver/Src/stm32l4xx_hal_ltdc.c ****       (+) __HAL_LTDC_RELOAD_IMMEDIATE_CONFIG: Reload  Layer Configuration.
  93:Drivers/STM32L4xx_HAL_Driver/Src/stm32l4xx_hal_ltdc.c ****       (+) __HAL_LTDC_GET_FLAG: Get the LTDC pending flags.
  94:Drivers/STM32L4xx_HAL_Driver/Src/stm32l4xx_hal_ltdc.c ****       (+) __HAL_LTDC_CLEAR_FLAG: Clear the LTDC pending flags.
  95:Drivers/STM32L4xx_HAL_Driver/Src/stm32l4xx_hal_ltdc.c ****       (+) __HAL_LTDC_ENABLE_IT: Enable the specified LTDC interrupts.
  96:Drivers/STM32L4xx_HAL_Driver/Src/stm32l4xx_hal_ltdc.c ****       (+) __HAL_LTDC_DISABLE_IT: Disable the specified LTDC interrupts.
  97:Drivers/STM32L4xx_HAL_Driver/Src/stm32l4xx_hal_ltdc.c ****       (+) __HAL_LTDC_GET_IT_SOURCE: Check whether the specified LTDC interrupt has occurred or not.
  98:Drivers/STM32L4xx_HAL_Driver/Src/stm32l4xx_hal_ltdc.c **** 
  99:Drivers/STM32L4xx_HAL_Driver/Src/stm32l4xx_hal_ltdc.c ****      [..]
 100:Drivers/STM32L4xx_HAL_Driver/Src/stm32l4xx_hal_ltdc.c ****        (@) You can refer to the LTDC HAL driver header file for more useful macros
 101:Drivers/STM32L4xx_HAL_Driver/Src/stm32l4xx_hal_ltdc.c **** 
 102:Drivers/STM32L4xx_HAL_Driver/Src/stm32l4xx_hal_ltdc.c **** 
 103:Drivers/STM32L4xx_HAL_Driver/Src/stm32l4xx_hal_ltdc.c ****      *** Callback registration ***
 104:Drivers/STM32L4xx_HAL_Driver/Src/stm32l4xx_hal_ltdc.c ****      =============================================
 105:Drivers/STM32L4xx_HAL_Driver/Src/stm32l4xx_hal_ltdc.c ****      [..]
 106:Drivers/STM32L4xx_HAL_Driver/Src/stm32l4xx_hal_ltdc.c ****      The compilation define  USE_HAL_LTDC_REGISTER_CALLBACKS when set to 1
 107:Drivers/STM32L4xx_HAL_Driver/Src/stm32l4xx_hal_ltdc.c ****      allows the user to configure dynamically the driver callbacks.
 108:Drivers/STM32L4xx_HAL_Driver/Src/stm32l4xx_hal_ltdc.c ****      Use function HAL_LTDC_RegisterCallback() to register a callback.
 109:Drivers/STM32L4xx_HAL_Driver/Src/stm32l4xx_hal_ltdc.c **** 
 110:Drivers/STM32L4xx_HAL_Driver/Src/stm32l4xx_hal_ltdc.c ****     [..]
 111:Drivers/STM32L4xx_HAL_Driver/Src/stm32l4xx_hal_ltdc.c ****     Function HAL_LTDC_RegisterCallback() allows to register following callbacks:
 112:Drivers/STM32L4xx_HAL_Driver/Src/stm32l4xx_hal_ltdc.c ****       (+) LineEventCallback   : LTDC Line Event Callback.
 113:Drivers/STM32L4xx_HAL_Driver/Src/stm32l4xx_hal_ltdc.c ****       (+) ReloadEventCallback : LTDC Reload Event Callback.
 114:Drivers/STM32L4xx_HAL_Driver/Src/stm32l4xx_hal_ltdc.c ****       (+) ErrorCallback       : LTDC Error Callback
 115:Drivers/STM32L4xx_HAL_Driver/Src/stm32l4xx_hal_ltdc.c ****       (+) MspInitCallback     : LTDC MspInit.
 116:Drivers/STM32L4xx_HAL_Driver/Src/stm32l4xx_hal_ltdc.c ****       (+) MspDeInitCallback   : LTDC MspDeInit.
 117:Drivers/STM32L4xx_HAL_Driver/Src/stm32l4xx_hal_ltdc.c ****     [..]
 118:Drivers/STM32L4xx_HAL_Driver/Src/stm32l4xx_hal_ltdc.c ****     This function takes as parameters the HAL peripheral handle, the callback ID
 119:Drivers/STM32L4xx_HAL_Driver/Src/stm32l4xx_hal_ltdc.c ****     and a pointer to the user callback function.
 120:Drivers/STM32L4xx_HAL_Driver/Src/stm32l4xx_hal_ltdc.c **** 
 121:Drivers/STM32L4xx_HAL_Driver/Src/stm32l4xx_hal_ltdc.c ****     [..]
 122:Drivers/STM32L4xx_HAL_Driver/Src/stm32l4xx_hal_ltdc.c ****     Use function HAL_LTDC_UnRegisterCallback() to reset a callback to the default
 123:Drivers/STM32L4xx_HAL_Driver/Src/stm32l4xx_hal_ltdc.c ****     weak function.
 124:Drivers/STM32L4xx_HAL_Driver/Src/stm32l4xx_hal_ltdc.c ****     HAL_LTDC_UnRegisterCallback() takes as parameters the HAL peripheral handle
 125:Drivers/STM32L4xx_HAL_Driver/Src/stm32l4xx_hal_ltdc.c ****     and the callback ID.
 126:Drivers/STM32L4xx_HAL_Driver/Src/stm32l4xx_hal_ltdc.c ****     [..]
 127:Drivers/STM32L4xx_HAL_Driver/Src/stm32l4xx_hal_ltdc.c ****     This function allows to reset following callbacks:
 128:Drivers/STM32L4xx_HAL_Driver/Src/stm32l4xx_hal_ltdc.c ****       (+) LineEventCallback   : LTDC Line Event Callback
 129:Drivers/STM32L4xx_HAL_Driver/Src/stm32l4xx_hal_ltdc.c ****       (+) ReloadEventCallback : LTDC Reload Event Callback
 130:Drivers/STM32L4xx_HAL_Driver/Src/stm32l4xx_hal_ltdc.c ****       (+) ErrorCallback       : LTDC Error Callback
 131:Drivers/STM32L4xx_HAL_Driver/Src/stm32l4xx_hal_ltdc.c ****       (+) MspInitCallback     : LTDC MspInit
 132:Drivers/STM32L4xx_HAL_Driver/Src/stm32l4xx_hal_ltdc.c ****       (+) MspDeInitCallback   : LTDC MspDeInit.
 133:Drivers/STM32L4xx_HAL_Driver/Src/stm32l4xx_hal_ltdc.c **** 
 134:Drivers/STM32L4xx_HAL_Driver/Src/stm32l4xx_hal_ltdc.c ****     [..]
 135:Drivers/STM32L4xx_HAL_Driver/Src/stm32l4xx_hal_ltdc.c ****     By default, after the HAL_LTDC_Init and when the state is HAL_LTDC_STATE_RESET
 136:Drivers/STM32L4xx_HAL_Driver/Src/stm32l4xx_hal_ltdc.c ****     all callbacks are set to the corresponding weak functions:
 137:Drivers/STM32L4xx_HAL_Driver/Src/stm32l4xx_hal_ltdc.c ****     examples HAL_LTDC_LineEventCallback(), HAL_LTDC_ErrorCallback().
 138:Drivers/STM32L4xx_HAL_Driver/Src/stm32l4xx_hal_ltdc.c ****     Exception done for MspInit and MspDeInit functions that are
 139:Drivers/STM32L4xx_HAL_Driver/Src/stm32l4xx_hal_ltdc.c ****     reset to the legacy weak (surcharged) functions in the HAL_LTDC_Init() and HAL_LTDC_DeInit()
 140:Drivers/STM32L4xx_HAL_Driver/Src/stm32l4xx_hal_ltdc.c ****     only when these callbacks are null (not registered beforehand).
 141:Drivers/STM32L4xx_HAL_Driver/Src/stm32l4xx_hal_ltdc.c ****     If not, MspInit or MspDeInit are not null, the HAL_LTDC_Init() and HAL_LTDC_DeInit()
 142:Drivers/STM32L4xx_HAL_Driver/Src/stm32l4xx_hal_ltdc.c ****     keep and use the user MspInit/MspDeInit callbacks (registered beforehand).
 143:Drivers/STM32L4xx_HAL_Driver/Src/stm32l4xx_hal_ltdc.c **** 
 144:Drivers/STM32L4xx_HAL_Driver/Src/stm32l4xx_hal_ltdc.c ****     [..]
ARM GAS  C:\Users\Morroway\AppData\Local\Temp\cclk5axT.s 			page 4


 145:Drivers/STM32L4xx_HAL_Driver/Src/stm32l4xx_hal_ltdc.c ****     Callbacks can be registered/unregistered in HAL_LTDC_STATE_READY state only.
 146:Drivers/STM32L4xx_HAL_Driver/Src/stm32l4xx_hal_ltdc.c ****     Exception done MspInit/MspDeInit that can be registered/unregistered
 147:Drivers/STM32L4xx_HAL_Driver/Src/stm32l4xx_hal_ltdc.c ****     in HAL_LTDC_STATE_READY or HAL_LTDC_STATE_RESET state,
 148:Drivers/STM32L4xx_HAL_Driver/Src/stm32l4xx_hal_ltdc.c ****     thus registered (user) MspInit/DeInit callbacks can be used during the Init/DeInit.
 149:Drivers/STM32L4xx_HAL_Driver/Src/stm32l4xx_hal_ltdc.c ****     In that case first register the MspInit/MspDeInit user callbacks
 150:Drivers/STM32L4xx_HAL_Driver/Src/stm32l4xx_hal_ltdc.c ****     using HAL_LTDC_RegisterCallback() before calling HAL_LTDC_DeInit()
 151:Drivers/STM32L4xx_HAL_Driver/Src/stm32l4xx_hal_ltdc.c ****     or HAL_LTDC_Init() function.
 152:Drivers/STM32L4xx_HAL_Driver/Src/stm32l4xx_hal_ltdc.c **** 
 153:Drivers/STM32L4xx_HAL_Driver/Src/stm32l4xx_hal_ltdc.c ****     [..]
 154:Drivers/STM32L4xx_HAL_Driver/Src/stm32l4xx_hal_ltdc.c ****     When the compilation define USE_HAL_LTDC_REGISTER_CALLBACKS is set to 0 or
 155:Drivers/STM32L4xx_HAL_Driver/Src/stm32l4xx_hal_ltdc.c ****     not defined, the callback registration feature is not available and all callbacks
 156:Drivers/STM32L4xx_HAL_Driver/Src/stm32l4xx_hal_ltdc.c ****     are set to the corresponding weak functions.
 157:Drivers/STM32L4xx_HAL_Driver/Src/stm32l4xx_hal_ltdc.c **** 
 158:Drivers/STM32L4xx_HAL_Driver/Src/stm32l4xx_hal_ltdc.c ****   @endverbatim
 159:Drivers/STM32L4xx_HAL_Driver/Src/stm32l4xx_hal_ltdc.c ****   ******************************************************************************
 160:Drivers/STM32L4xx_HAL_Driver/Src/stm32l4xx_hal_ltdc.c ****   */
 161:Drivers/STM32L4xx_HAL_Driver/Src/stm32l4xx_hal_ltdc.c **** 
 162:Drivers/STM32L4xx_HAL_Driver/Src/stm32l4xx_hal_ltdc.c **** /* Includes ------------------------------------------------------------------*/
 163:Drivers/STM32L4xx_HAL_Driver/Src/stm32l4xx_hal_ltdc.c **** #include "stm32l4xx_hal.h"
 164:Drivers/STM32L4xx_HAL_Driver/Src/stm32l4xx_hal_ltdc.c **** 
 165:Drivers/STM32L4xx_HAL_Driver/Src/stm32l4xx_hal_ltdc.c **** /** @addtogroup STM32L4xx_HAL_Driver
 166:Drivers/STM32L4xx_HAL_Driver/Src/stm32l4xx_hal_ltdc.c ****   * @{
 167:Drivers/STM32L4xx_HAL_Driver/Src/stm32l4xx_hal_ltdc.c ****   */
 168:Drivers/STM32L4xx_HAL_Driver/Src/stm32l4xx_hal_ltdc.c **** 
 169:Drivers/STM32L4xx_HAL_Driver/Src/stm32l4xx_hal_ltdc.c **** #ifdef HAL_LTDC_MODULE_ENABLED
 170:Drivers/STM32L4xx_HAL_Driver/Src/stm32l4xx_hal_ltdc.c **** 
 171:Drivers/STM32L4xx_HAL_Driver/Src/stm32l4xx_hal_ltdc.c **** #if defined (LTDC)
 172:Drivers/STM32L4xx_HAL_Driver/Src/stm32l4xx_hal_ltdc.c **** 
 173:Drivers/STM32L4xx_HAL_Driver/Src/stm32l4xx_hal_ltdc.c **** /** @defgroup LTDC LTDC
 174:Drivers/STM32L4xx_HAL_Driver/Src/stm32l4xx_hal_ltdc.c ****   * @brief LTDC HAL module driver
 175:Drivers/STM32L4xx_HAL_Driver/Src/stm32l4xx_hal_ltdc.c ****   * @{
 176:Drivers/STM32L4xx_HAL_Driver/Src/stm32l4xx_hal_ltdc.c ****   */
 177:Drivers/STM32L4xx_HAL_Driver/Src/stm32l4xx_hal_ltdc.c **** 
 178:Drivers/STM32L4xx_HAL_Driver/Src/stm32l4xx_hal_ltdc.c **** 
 179:Drivers/STM32L4xx_HAL_Driver/Src/stm32l4xx_hal_ltdc.c **** /* Private typedef -----------------------------------------------------------*/
 180:Drivers/STM32L4xx_HAL_Driver/Src/stm32l4xx_hal_ltdc.c **** /* Private define ------------------------------------------------------------*/
 181:Drivers/STM32L4xx_HAL_Driver/Src/stm32l4xx_hal_ltdc.c **** #define LTDC_TIMEOUT_VALUE ((uint32_t)100U)  /* 100ms */
 182:Drivers/STM32L4xx_HAL_Driver/Src/stm32l4xx_hal_ltdc.c **** /* Private macro -------------------------------------------------------------*/
 183:Drivers/STM32L4xx_HAL_Driver/Src/stm32l4xx_hal_ltdc.c **** /* Private variables ---------------------------------------------------------*/
 184:Drivers/STM32L4xx_HAL_Driver/Src/stm32l4xx_hal_ltdc.c **** /* Private function prototypes -----------------------------------------------*/
 185:Drivers/STM32L4xx_HAL_Driver/Src/stm32l4xx_hal_ltdc.c **** static void LTDC_SetConfig(LTDC_HandleTypeDef *hltdc, LTDC_LayerCfgTypeDef *pLayerCfg, uint32_t Lay
 186:Drivers/STM32L4xx_HAL_Driver/Src/stm32l4xx_hal_ltdc.c **** /* Private functions ---------------------------------------------------------*/
 187:Drivers/STM32L4xx_HAL_Driver/Src/stm32l4xx_hal_ltdc.c **** 
 188:Drivers/STM32L4xx_HAL_Driver/Src/stm32l4xx_hal_ltdc.c **** /** @defgroup LTDC_Exported_Functions LTDC Exported Functions
 189:Drivers/STM32L4xx_HAL_Driver/Src/stm32l4xx_hal_ltdc.c ****   * @{
 190:Drivers/STM32L4xx_HAL_Driver/Src/stm32l4xx_hal_ltdc.c ****   */
 191:Drivers/STM32L4xx_HAL_Driver/Src/stm32l4xx_hal_ltdc.c **** 
 192:Drivers/STM32L4xx_HAL_Driver/Src/stm32l4xx_hal_ltdc.c **** /** @defgroup LTDC_Exported_Functions_Group1 Initialization and Configuration functions
 193:Drivers/STM32L4xx_HAL_Driver/Src/stm32l4xx_hal_ltdc.c ****   *  @brief   Initialization and Configuration functions
 194:Drivers/STM32L4xx_HAL_Driver/Src/stm32l4xx_hal_ltdc.c ****   *
 195:Drivers/STM32L4xx_HAL_Driver/Src/stm32l4xx_hal_ltdc.c **** @verbatim
 196:Drivers/STM32L4xx_HAL_Driver/Src/stm32l4xx_hal_ltdc.c ****  ===============================================================================
 197:Drivers/STM32L4xx_HAL_Driver/Src/stm32l4xx_hal_ltdc.c ****                 ##### Initialization and Configuration functions #####
 198:Drivers/STM32L4xx_HAL_Driver/Src/stm32l4xx_hal_ltdc.c ****  ===============================================================================
 199:Drivers/STM32L4xx_HAL_Driver/Src/stm32l4xx_hal_ltdc.c ****     [..]  This section provides functions allowing to:
 200:Drivers/STM32L4xx_HAL_Driver/Src/stm32l4xx_hal_ltdc.c ****       (+) Initialize and configure the LTDC
 201:Drivers/STM32L4xx_HAL_Driver/Src/stm32l4xx_hal_ltdc.c ****       (+) De-initialize the LTDC
ARM GAS  C:\Users\Morroway\AppData\Local\Temp\cclk5axT.s 			page 5


 202:Drivers/STM32L4xx_HAL_Driver/Src/stm32l4xx_hal_ltdc.c **** 
 203:Drivers/STM32L4xx_HAL_Driver/Src/stm32l4xx_hal_ltdc.c **** @endverbatim
 204:Drivers/STM32L4xx_HAL_Driver/Src/stm32l4xx_hal_ltdc.c ****   * @{
 205:Drivers/STM32L4xx_HAL_Driver/Src/stm32l4xx_hal_ltdc.c ****   */
 206:Drivers/STM32L4xx_HAL_Driver/Src/stm32l4xx_hal_ltdc.c **** 
 207:Drivers/STM32L4xx_HAL_Driver/Src/stm32l4xx_hal_ltdc.c **** /**
 208:Drivers/STM32L4xx_HAL_Driver/Src/stm32l4xx_hal_ltdc.c ****   * @brief  Initialize the LTDC according to the specified parameters in the LTDC_InitTypeDef.
 209:Drivers/STM32L4xx_HAL_Driver/Src/stm32l4xx_hal_ltdc.c ****   * @param  hltdc  pointer to a LTDC_HandleTypeDef structure that contains
 210:Drivers/STM32L4xx_HAL_Driver/Src/stm32l4xx_hal_ltdc.c ****   *                the configuration information for the LTDC.
 211:Drivers/STM32L4xx_HAL_Driver/Src/stm32l4xx_hal_ltdc.c ****   * @retval HAL status
 212:Drivers/STM32L4xx_HAL_Driver/Src/stm32l4xx_hal_ltdc.c ****   */
 213:Drivers/STM32L4xx_HAL_Driver/Src/stm32l4xx_hal_ltdc.c **** HAL_StatusTypeDef HAL_LTDC_Init(LTDC_HandleTypeDef *hltdc)
 214:Drivers/STM32L4xx_HAL_Driver/Src/stm32l4xx_hal_ltdc.c **** {
  29              		.loc 1 214 1
  30              		.cfi_startproc
  31              		@ args = 0, pretend = 0, frame = 16
  32              		@ frame_needed = 1, uses_anonymous_args = 0
  33 0000 80B5     		push	{r7, lr}
  34              		.cfi_def_cfa_offset 8
  35              		.cfi_offset 7, -8
  36              		.cfi_offset 14, -4
  37 0002 84B0     		sub	sp, sp, #16
  38              		.cfi_def_cfa_offset 24
  39 0004 00AF     		add	r7, sp, #0
  40              		.cfi_def_cfa_register 7
  41 0006 7860     		str	r0, [r7, #4]
 215:Drivers/STM32L4xx_HAL_Driver/Src/stm32l4xx_hal_ltdc.c ****   uint32_t tmp;
 216:Drivers/STM32L4xx_HAL_Driver/Src/stm32l4xx_hal_ltdc.c ****   uint32_t tmp1;
 217:Drivers/STM32L4xx_HAL_Driver/Src/stm32l4xx_hal_ltdc.c **** 
 218:Drivers/STM32L4xx_HAL_Driver/Src/stm32l4xx_hal_ltdc.c ****   /* Check the LTDC peripheral state */
 219:Drivers/STM32L4xx_HAL_Driver/Src/stm32l4xx_hal_ltdc.c ****   if (hltdc == NULL)
  42              		.loc 1 219 6
  43 0008 7B68     		ldr	r3, [r7, #4]
  44 000a 002B     		cmp	r3, #0
  45 000c 01D1     		bne	.L2
 220:Drivers/STM32L4xx_HAL_Driver/Src/stm32l4xx_hal_ltdc.c ****   {
 221:Drivers/STM32L4xx_HAL_Driver/Src/stm32l4xx_hal_ltdc.c ****     return HAL_ERROR;
  46              		.loc 1 221 12
  47 000e 0123     		movs	r3, #1
  48 0010 BEE0     		b	.L3
  49              	.L2:
 222:Drivers/STM32L4xx_HAL_Driver/Src/stm32l4xx_hal_ltdc.c ****   }
 223:Drivers/STM32L4xx_HAL_Driver/Src/stm32l4xx_hal_ltdc.c **** 
 224:Drivers/STM32L4xx_HAL_Driver/Src/stm32l4xx_hal_ltdc.c ****   /* Check function parameters */
 225:Drivers/STM32L4xx_HAL_Driver/Src/stm32l4xx_hal_ltdc.c ****   assert_param(IS_LTDC_ALL_INSTANCE(hltdc->Instance));
 226:Drivers/STM32L4xx_HAL_Driver/Src/stm32l4xx_hal_ltdc.c ****   assert_param(IS_LTDC_HSYNC(hltdc->Init.HorizontalSync));
 227:Drivers/STM32L4xx_HAL_Driver/Src/stm32l4xx_hal_ltdc.c ****   assert_param(IS_LTDC_VSYNC(hltdc->Init.VerticalSync));
 228:Drivers/STM32L4xx_HAL_Driver/Src/stm32l4xx_hal_ltdc.c ****   assert_param(IS_LTDC_AHBP(hltdc->Init.AccumulatedHBP));
 229:Drivers/STM32L4xx_HAL_Driver/Src/stm32l4xx_hal_ltdc.c ****   assert_param(IS_LTDC_AVBP(hltdc->Init.AccumulatedVBP));
 230:Drivers/STM32L4xx_HAL_Driver/Src/stm32l4xx_hal_ltdc.c ****   assert_param(IS_LTDC_AAH(hltdc->Init.AccumulatedActiveH));
 231:Drivers/STM32L4xx_HAL_Driver/Src/stm32l4xx_hal_ltdc.c ****   assert_param(IS_LTDC_AAW(hltdc->Init.AccumulatedActiveW));
 232:Drivers/STM32L4xx_HAL_Driver/Src/stm32l4xx_hal_ltdc.c ****   assert_param(IS_LTDC_TOTALH(hltdc->Init.TotalHeigh));
 233:Drivers/STM32L4xx_HAL_Driver/Src/stm32l4xx_hal_ltdc.c ****   assert_param(IS_LTDC_TOTALW(hltdc->Init.TotalWidth));
 234:Drivers/STM32L4xx_HAL_Driver/Src/stm32l4xx_hal_ltdc.c ****   assert_param(IS_LTDC_HSPOL(hltdc->Init.HSPolarity));
 235:Drivers/STM32L4xx_HAL_Driver/Src/stm32l4xx_hal_ltdc.c ****   assert_param(IS_LTDC_VSPOL(hltdc->Init.VSPolarity));
 236:Drivers/STM32L4xx_HAL_Driver/Src/stm32l4xx_hal_ltdc.c ****   assert_param(IS_LTDC_DEPOL(hltdc->Init.DEPolarity));
 237:Drivers/STM32L4xx_HAL_Driver/Src/stm32l4xx_hal_ltdc.c ****   assert_param(IS_LTDC_PCPOL(hltdc->Init.PCPolarity));
ARM GAS  C:\Users\Morroway\AppData\Local\Temp\cclk5axT.s 			page 6


 238:Drivers/STM32L4xx_HAL_Driver/Src/stm32l4xx_hal_ltdc.c **** 
 239:Drivers/STM32L4xx_HAL_Driver/Src/stm32l4xx_hal_ltdc.c **** #if (USE_HAL_LTDC_REGISTER_CALLBACKS == 1)
 240:Drivers/STM32L4xx_HAL_Driver/Src/stm32l4xx_hal_ltdc.c ****   if (hltdc->State == HAL_LTDC_STATE_RESET)
 241:Drivers/STM32L4xx_HAL_Driver/Src/stm32l4xx_hal_ltdc.c ****   {
 242:Drivers/STM32L4xx_HAL_Driver/Src/stm32l4xx_hal_ltdc.c ****     /* Allocate lock resource and initialize it */
 243:Drivers/STM32L4xx_HAL_Driver/Src/stm32l4xx_hal_ltdc.c ****     hltdc->Lock = HAL_UNLOCKED;
 244:Drivers/STM32L4xx_HAL_Driver/Src/stm32l4xx_hal_ltdc.c **** 
 245:Drivers/STM32L4xx_HAL_Driver/Src/stm32l4xx_hal_ltdc.c ****     /* Reset the LTDC callback to the legacy weak callbacks */
 246:Drivers/STM32L4xx_HAL_Driver/Src/stm32l4xx_hal_ltdc.c ****     hltdc->LineEventCallback   = HAL_LTDC_LineEventCallback;    /* Legacy weak LineEventCallback   
 247:Drivers/STM32L4xx_HAL_Driver/Src/stm32l4xx_hal_ltdc.c ****     hltdc->ReloadEventCallback = HAL_LTDC_ReloadEventCallback;  /* Legacy weak ReloadEventCallback 
 248:Drivers/STM32L4xx_HAL_Driver/Src/stm32l4xx_hal_ltdc.c ****     hltdc->ErrorCallback       = HAL_LTDC_ErrorCallback;        /* Legacy weak ErrorCallback       
 249:Drivers/STM32L4xx_HAL_Driver/Src/stm32l4xx_hal_ltdc.c **** 
 250:Drivers/STM32L4xx_HAL_Driver/Src/stm32l4xx_hal_ltdc.c ****     if (hltdc->MspInitCallback == NULL)
 251:Drivers/STM32L4xx_HAL_Driver/Src/stm32l4xx_hal_ltdc.c ****     {
 252:Drivers/STM32L4xx_HAL_Driver/Src/stm32l4xx_hal_ltdc.c ****       hltdc->MspInitCallback = HAL_LTDC_MspInit;
 253:Drivers/STM32L4xx_HAL_Driver/Src/stm32l4xx_hal_ltdc.c ****     }
 254:Drivers/STM32L4xx_HAL_Driver/Src/stm32l4xx_hal_ltdc.c ****     /* Init the low level hardware */
 255:Drivers/STM32L4xx_HAL_Driver/Src/stm32l4xx_hal_ltdc.c ****     hltdc->MspInitCallback(hltdc);
 256:Drivers/STM32L4xx_HAL_Driver/Src/stm32l4xx_hal_ltdc.c ****   }
 257:Drivers/STM32L4xx_HAL_Driver/Src/stm32l4xx_hal_ltdc.c **** #else
 258:Drivers/STM32L4xx_HAL_Driver/Src/stm32l4xx_hal_ltdc.c ****   if (hltdc->State == HAL_LTDC_STATE_RESET)
  50              		.loc 1 258 12
  51 0012 7B68     		ldr	r3, [r7, #4]
  52 0014 93F86D30 		ldrb	r3, [r3, #109]
  53 0018 DBB2     		uxtb	r3, r3
  54              		.loc 1 258 6
  55 001a 002B     		cmp	r3, #0
  56 001c 06D1     		bne	.L4
 259:Drivers/STM32L4xx_HAL_Driver/Src/stm32l4xx_hal_ltdc.c ****   {
 260:Drivers/STM32L4xx_HAL_Driver/Src/stm32l4xx_hal_ltdc.c ****     /* Allocate lock resource and initialize it */
 261:Drivers/STM32L4xx_HAL_Driver/Src/stm32l4xx_hal_ltdc.c ****     hltdc->Lock = HAL_UNLOCKED;
  57              		.loc 1 261 17
  58 001e 7B68     		ldr	r3, [r7, #4]
  59 0020 0022     		movs	r2, #0
  60 0022 83F86C20 		strb	r2, [r3, #108]
 262:Drivers/STM32L4xx_HAL_Driver/Src/stm32l4xx_hal_ltdc.c ****     /* Init the low level hardware */
 263:Drivers/STM32L4xx_HAL_Driver/Src/stm32l4xx_hal_ltdc.c ****     HAL_LTDC_MspInit(hltdc);
  61              		.loc 1 263 5
  62 0026 7868     		ldr	r0, [r7, #4]
  63 0028 FFF7FEFF 		bl	HAL_LTDC_MspInit
  64              	.L4:
 264:Drivers/STM32L4xx_HAL_Driver/Src/stm32l4xx_hal_ltdc.c ****   }
 265:Drivers/STM32L4xx_HAL_Driver/Src/stm32l4xx_hal_ltdc.c **** #endif /* USE_HAL_LTDC_REGISTER_CALLBACKS */
 266:Drivers/STM32L4xx_HAL_Driver/Src/stm32l4xx_hal_ltdc.c **** 
 267:Drivers/STM32L4xx_HAL_Driver/Src/stm32l4xx_hal_ltdc.c ****   /* Change LTDC peripheral state */
 268:Drivers/STM32L4xx_HAL_Driver/Src/stm32l4xx_hal_ltdc.c ****   hltdc->State = HAL_LTDC_STATE_BUSY;
  65              		.loc 1 268 16
  66 002c 7B68     		ldr	r3, [r7, #4]
  67 002e 0222     		movs	r2, #2
  68 0030 83F86D20 		strb	r2, [r3, #109]
 269:Drivers/STM32L4xx_HAL_Driver/Src/stm32l4xx_hal_ltdc.c **** 
 270:Drivers/STM32L4xx_HAL_Driver/Src/stm32l4xx_hal_ltdc.c ****   /* Configure the HS, VS, DE and PC polarity */
 271:Drivers/STM32L4xx_HAL_Driver/Src/stm32l4xx_hal_ltdc.c ****   hltdc->Instance->GCR &= ~(LTDC_GCR_HSPOL | LTDC_GCR_VSPOL | LTDC_GCR_DEPOL | LTDC_GCR_PCPOL);
  69              		.loc 1 271 8
  70 0034 7B68     		ldr	r3, [r7, #4]
  71 0036 1B68     		ldr	r3, [r3]
  72              		.loc 1 271 24
ARM GAS  C:\Users\Morroway\AppData\Local\Temp\cclk5axT.s 			page 7


  73 0038 9A69     		ldr	r2, [r3, #24]
  74              		.loc 1 271 8
  75 003a 7B68     		ldr	r3, [r7, #4]
  76 003c 1B68     		ldr	r3, [r3]
  77              		.loc 1 271 24
  78 003e 22F07042 		bic	r2, r2, #-268435456
  79 0042 9A61     		str	r2, [r3, #24]
 272:Drivers/STM32L4xx_HAL_Driver/Src/stm32l4xx_hal_ltdc.c ****   hltdc->Instance->GCR |= (uint32_t)(hltdc->Init.HSPolarity | hltdc->Init.VSPolarity | \
  80              		.loc 1 272 8
  81 0044 7B68     		ldr	r3, [r7, #4]
  82 0046 1B68     		ldr	r3, [r3]
  83              		.loc 1 272 24
  84 0048 9969     		ldr	r1, [r3, #24]
  85              		.loc 1 272 49
  86 004a 7B68     		ldr	r3, [r7, #4]
  87 004c 5A68     		ldr	r2, [r3, #4]
  88              		.loc 1 272 74
  89 004e 7B68     		ldr	r3, [r7, #4]
  90 0050 9B68     		ldr	r3, [r3, #8]
  91              		.loc 1 272 61
  92 0052 1A43     		orrs	r2, r2, r3
 273:Drivers/STM32L4xx_HAL_Driver/Src/stm32l4xx_hal_ltdc.c ****                                      hltdc->Init.DEPolarity | hltdc->Init.PCPolarity);
  93              		.loc 1 273 49
  94 0054 7B68     		ldr	r3, [r7, #4]
  95 0056 DB68     		ldr	r3, [r3, #12]
 272:Drivers/STM32L4xx_HAL_Driver/Src/stm32l4xx_hal_ltdc.c ****   hltdc->Instance->GCR |= (uint32_t)(hltdc->Init.HSPolarity | hltdc->Init.VSPolarity | \
  96              		.loc 1 272 86
  97 0058 1A43     		orrs	r2, r2, r3
  98              		.loc 1 273 74
  99 005a 7B68     		ldr	r3, [r7, #4]
 100 005c 1B69     		ldr	r3, [r3, #16]
 101              		.loc 1 273 61
 102 005e 1A43     		orrs	r2, r2, r3
 272:Drivers/STM32L4xx_HAL_Driver/Src/stm32l4xx_hal_ltdc.c ****   hltdc->Instance->GCR |= (uint32_t)(hltdc->Init.HSPolarity | hltdc->Init.VSPolarity | \
 103              		.loc 1 272 8
 104 0060 7B68     		ldr	r3, [r7, #4]
 105 0062 1B68     		ldr	r3, [r3]
 272:Drivers/STM32L4xx_HAL_Driver/Src/stm32l4xx_hal_ltdc.c ****   hltdc->Instance->GCR |= (uint32_t)(hltdc->Init.HSPolarity | hltdc->Init.VSPolarity | \
 106              		.loc 1 272 24
 107 0064 0A43     		orrs	r2, r2, r1
 108 0066 9A61     		str	r2, [r3, #24]
 274:Drivers/STM32L4xx_HAL_Driver/Src/stm32l4xx_hal_ltdc.c **** 
 275:Drivers/STM32L4xx_HAL_Driver/Src/stm32l4xx_hal_ltdc.c ****   /* Set Synchronization size */
 276:Drivers/STM32L4xx_HAL_Driver/Src/stm32l4xx_hal_ltdc.c ****   hltdc->Instance->SSCR &= ~(LTDC_SSCR_VSH | LTDC_SSCR_HSW);
 109              		.loc 1 276 8
 110 0068 7B68     		ldr	r3, [r7, #4]
 111 006a 1B68     		ldr	r3, [r3]
 112              		.loc 1 276 25
 113 006c 9968     		ldr	r1, [r3, #8]
 114              		.loc 1 276 8
 115 006e 7B68     		ldr	r3, [r7, #4]
 116 0070 1A68     		ldr	r2, [r3]
 117              		.loc 1 276 25
 118 0072 494B     		ldr	r3, .L5
 119 0074 0B40     		ands	r3, r3, r1
 120 0076 9360     		str	r3, [r2, #8]
 277:Drivers/STM32L4xx_HAL_Driver/Src/stm32l4xx_hal_ltdc.c ****   tmp = (hltdc->Init.HorizontalSync << 16U);
ARM GAS  C:\Users\Morroway\AppData\Local\Temp\cclk5axT.s 			page 8


 121              		.loc 1 277 21
 122 0078 7B68     		ldr	r3, [r7, #4]
 123 007a 5B69     		ldr	r3, [r3, #20]
 124              		.loc 1 277 7
 125 007c 1B04     		lsls	r3, r3, #16
 126 007e FB60     		str	r3, [r7, #12]
 278:Drivers/STM32L4xx_HAL_Driver/Src/stm32l4xx_hal_ltdc.c ****   hltdc->Instance->SSCR |= (tmp | hltdc->Init.VerticalSync);
 127              		.loc 1 278 8
 128 0080 7B68     		ldr	r3, [r7, #4]
 129 0082 1B68     		ldr	r3, [r3]
 130              		.loc 1 278 25
 131 0084 9968     		ldr	r1, [r3, #8]
 132              		.loc 1 278 46
 133 0086 7B68     		ldr	r3, [r7, #4]
 134 0088 9A69     		ldr	r2, [r3, #24]
 135              		.loc 1 278 33
 136 008a FB68     		ldr	r3, [r7, #12]
 137 008c 1A43     		orrs	r2, r2, r3
 138              		.loc 1 278 8
 139 008e 7B68     		ldr	r3, [r7, #4]
 140 0090 1B68     		ldr	r3, [r3]
 141              		.loc 1 278 25
 142 0092 0A43     		orrs	r2, r2, r1
 143 0094 9A60     		str	r2, [r3, #8]
 279:Drivers/STM32L4xx_HAL_Driver/Src/stm32l4xx_hal_ltdc.c **** 
 280:Drivers/STM32L4xx_HAL_Driver/Src/stm32l4xx_hal_ltdc.c ****   /* Set Accumulated Back porch */
 281:Drivers/STM32L4xx_HAL_Driver/Src/stm32l4xx_hal_ltdc.c ****   hltdc->Instance->BPCR &= ~(LTDC_BPCR_AVBP | LTDC_BPCR_AHBP);
 144              		.loc 1 281 8
 145 0096 7B68     		ldr	r3, [r7, #4]
 146 0098 1B68     		ldr	r3, [r3]
 147              		.loc 1 281 25
 148 009a D968     		ldr	r1, [r3, #12]
 149              		.loc 1 281 8
 150 009c 7B68     		ldr	r3, [r7, #4]
 151 009e 1A68     		ldr	r2, [r3]
 152              		.loc 1 281 25
 153 00a0 3D4B     		ldr	r3, .L5
 154 00a2 0B40     		ands	r3, r3, r1
 155 00a4 D360     		str	r3, [r2, #12]
 282:Drivers/STM32L4xx_HAL_Driver/Src/stm32l4xx_hal_ltdc.c ****   tmp = (hltdc->Init.AccumulatedHBP << 16U);
 156              		.loc 1 282 21
 157 00a6 7B68     		ldr	r3, [r7, #4]
 158 00a8 DB69     		ldr	r3, [r3, #28]
 159              		.loc 1 282 7
 160 00aa 1B04     		lsls	r3, r3, #16
 161 00ac FB60     		str	r3, [r7, #12]
 283:Drivers/STM32L4xx_HAL_Driver/Src/stm32l4xx_hal_ltdc.c ****   hltdc->Instance->BPCR |= (tmp | hltdc->Init.AccumulatedVBP);
 162              		.loc 1 283 8
 163 00ae 7B68     		ldr	r3, [r7, #4]
 164 00b0 1B68     		ldr	r3, [r3]
 165              		.loc 1 283 25
 166 00b2 D968     		ldr	r1, [r3, #12]
 167              		.loc 1 283 46
 168 00b4 7B68     		ldr	r3, [r7, #4]
 169 00b6 1A6A     		ldr	r2, [r3, #32]
 170              		.loc 1 283 33
 171 00b8 FB68     		ldr	r3, [r7, #12]
ARM GAS  C:\Users\Morroway\AppData\Local\Temp\cclk5axT.s 			page 9


 172 00ba 1A43     		orrs	r2, r2, r3
 173              		.loc 1 283 8
 174 00bc 7B68     		ldr	r3, [r7, #4]
 175 00be 1B68     		ldr	r3, [r3]
 176              		.loc 1 283 25
 177 00c0 0A43     		orrs	r2, r2, r1
 178 00c2 DA60     		str	r2, [r3, #12]
 284:Drivers/STM32L4xx_HAL_Driver/Src/stm32l4xx_hal_ltdc.c **** 
 285:Drivers/STM32L4xx_HAL_Driver/Src/stm32l4xx_hal_ltdc.c ****   /* Set Accumulated Active Width */
 286:Drivers/STM32L4xx_HAL_Driver/Src/stm32l4xx_hal_ltdc.c ****   hltdc->Instance->AWCR &= ~(LTDC_AWCR_AAH | LTDC_AWCR_AAW);
 179              		.loc 1 286 8
 180 00c4 7B68     		ldr	r3, [r7, #4]
 181 00c6 1B68     		ldr	r3, [r3]
 182              		.loc 1 286 25
 183 00c8 1969     		ldr	r1, [r3, #16]
 184              		.loc 1 286 8
 185 00ca 7B68     		ldr	r3, [r7, #4]
 186 00cc 1A68     		ldr	r2, [r3]
 187              		.loc 1 286 25
 188 00ce 324B     		ldr	r3, .L5
 189 00d0 0B40     		ands	r3, r3, r1
 190 00d2 1361     		str	r3, [r2, #16]
 287:Drivers/STM32L4xx_HAL_Driver/Src/stm32l4xx_hal_ltdc.c ****   tmp = (hltdc->Init.AccumulatedActiveW << 16U);
 191              		.loc 1 287 21
 192 00d4 7B68     		ldr	r3, [r7, #4]
 193 00d6 5B6A     		ldr	r3, [r3, #36]
 194              		.loc 1 287 7
 195 00d8 1B04     		lsls	r3, r3, #16
 196 00da FB60     		str	r3, [r7, #12]
 288:Drivers/STM32L4xx_HAL_Driver/Src/stm32l4xx_hal_ltdc.c ****   hltdc->Instance->AWCR |= (tmp | hltdc->Init.AccumulatedActiveH);
 197              		.loc 1 288 8
 198 00dc 7B68     		ldr	r3, [r7, #4]
 199 00de 1B68     		ldr	r3, [r3]
 200              		.loc 1 288 25
 201 00e0 1969     		ldr	r1, [r3, #16]
 202              		.loc 1 288 46
 203 00e2 7B68     		ldr	r3, [r7, #4]
 204 00e4 9A6A     		ldr	r2, [r3, #40]
 205              		.loc 1 288 33
 206 00e6 FB68     		ldr	r3, [r7, #12]
 207 00e8 1A43     		orrs	r2, r2, r3
 208              		.loc 1 288 8
 209 00ea 7B68     		ldr	r3, [r7, #4]
 210 00ec 1B68     		ldr	r3, [r3]
 211              		.loc 1 288 25
 212 00ee 0A43     		orrs	r2, r2, r1
 213 00f0 1A61     		str	r2, [r3, #16]
 289:Drivers/STM32L4xx_HAL_Driver/Src/stm32l4xx_hal_ltdc.c **** 
 290:Drivers/STM32L4xx_HAL_Driver/Src/stm32l4xx_hal_ltdc.c ****   /* Set Total Width */
 291:Drivers/STM32L4xx_HAL_Driver/Src/stm32l4xx_hal_ltdc.c ****   hltdc->Instance->TWCR &= ~(LTDC_TWCR_TOTALH | LTDC_TWCR_TOTALW);
 214              		.loc 1 291 8
 215 00f2 7B68     		ldr	r3, [r7, #4]
 216 00f4 1B68     		ldr	r3, [r3]
 217              		.loc 1 291 25
 218 00f6 5969     		ldr	r1, [r3, #20]
 219              		.loc 1 291 8
 220 00f8 7B68     		ldr	r3, [r7, #4]
ARM GAS  C:\Users\Morroway\AppData\Local\Temp\cclk5axT.s 			page 10


 221 00fa 1A68     		ldr	r2, [r3]
 222              		.loc 1 291 25
 223 00fc 264B     		ldr	r3, .L5
 224 00fe 0B40     		ands	r3, r3, r1
 225 0100 5361     		str	r3, [r2, #20]
 292:Drivers/STM32L4xx_HAL_Driver/Src/stm32l4xx_hal_ltdc.c ****   tmp = (hltdc->Init.TotalWidth << 16U);
 226              		.loc 1 292 21
 227 0102 7B68     		ldr	r3, [r7, #4]
 228 0104 DB6A     		ldr	r3, [r3, #44]
 229              		.loc 1 292 7
 230 0106 1B04     		lsls	r3, r3, #16
 231 0108 FB60     		str	r3, [r7, #12]
 293:Drivers/STM32L4xx_HAL_Driver/Src/stm32l4xx_hal_ltdc.c ****   hltdc->Instance->TWCR |= (tmp | hltdc->Init.TotalHeigh);
 232              		.loc 1 293 8
 233 010a 7B68     		ldr	r3, [r7, #4]
 234 010c 1B68     		ldr	r3, [r3]
 235              		.loc 1 293 25
 236 010e 5969     		ldr	r1, [r3, #20]
 237              		.loc 1 293 46
 238 0110 7B68     		ldr	r3, [r7, #4]
 239 0112 1A6B     		ldr	r2, [r3, #48]
 240              		.loc 1 293 33
 241 0114 FB68     		ldr	r3, [r7, #12]
 242 0116 1A43     		orrs	r2, r2, r3
 243              		.loc 1 293 8
 244 0118 7B68     		ldr	r3, [r7, #4]
 245 011a 1B68     		ldr	r3, [r3]
 246              		.loc 1 293 25
 247 011c 0A43     		orrs	r2, r2, r1
 248 011e 5A61     		str	r2, [r3, #20]
 294:Drivers/STM32L4xx_HAL_Driver/Src/stm32l4xx_hal_ltdc.c **** 
 295:Drivers/STM32L4xx_HAL_Driver/Src/stm32l4xx_hal_ltdc.c ****   /* Set the background color value */
 296:Drivers/STM32L4xx_HAL_Driver/Src/stm32l4xx_hal_ltdc.c ****   tmp = ((uint32_t)(hltdc->Init.Backcolor.Green) << 8U);
 249              		.loc 1 296 42
 250 0120 7B68     		ldr	r3, [r7, #4]
 251 0122 93F83530 		ldrb	r3, [r3, #53]	@ zero_extendqisi2
 252              		.loc 1 296 7
 253 0126 1B02     		lsls	r3, r3, #8
 254 0128 FB60     		str	r3, [r7, #12]
 297:Drivers/STM32L4xx_HAL_Driver/Src/stm32l4xx_hal_ltdc.c ****   tmp1 = ((uint32_t)(hltdc->Init.Backcolor.Red) << 16U);
 255              		.loc 1 297 43
 256 012a 7B68     		ldr	r3, [r7, #4]
 257 012c 93F83630 		ldrb	r3, [r3, #54]	@ zero_extendqisi2
 258              		.loc 1 297 8
 259 0130 1B04     		lsls	r3, r3, #16
 260 0132 BB60     		str	r3, [r7, #8]
 298:Drivers/STM32L4xx_HAL_Driver/Src/stm32l4xx_hal_ltdc.c ****   hltdc->Instance->BCCR &= ~(LTDC_BCCR_BCBLUE | LTDC_BCCR_BCGREEN | LTDC_BCCR_BCRED);
 261              		.loc 1 298 8
 262 0134 7B68     		ldr	r3, [r7, #4]
 263 0136 1B68     		ldr	r3, [r3]
 264              		.loc 1 298 25
 265 0138 DA6A     		ldr	r2, [r3, #44]
 266              		.loc 1 298 8
 267 013a 7B68     		ldr	r3, [r7, #4]
 268 013c 1B68     		ldr	r3, [r3]
 269              		.loc 1 298 25
 270 013e 02F07F42 		and	r2, r2, #-16777216
ARM GAS  C:\Users\Morroway\AppData\Local\Temp\cclk5axT.s 			page 11


 271 0142 DA62     		str	r2, [r3, #44]
 299:Drivers/STM32L4xx_HAL_Driver/Src/stm32l4xx_hal_ltdc.c ****   hltdc->Instance->BCCR |= (tmp1 | tmp | hltdc->Init.Backcolor.Blue);
 272              		.loc 1 299 8
 273 0144 7B68     		ldr	r3, [r7, #4]
 274 0146 1B68     		ldr	r3, [r3]
 275              		.loc 1 299 25
 276 0148 D96A     		ldr	r1, [r3, #44]
 277              		.loc 1 299 34
 278 014a BA68     		ldr	r2, [r7, #8]
 279 014c FB68     		ldr	r3, [r7, #12]
 280 014e 1343     		orrs	r3, r3, r2
 281              		.loc 1 299 63
 282 0150 7A68     		ldr	r2, [r7, #4]
 283 0152 92F83420 		ldrb	r2, [r2, #52]	@ zero_extendqisi2
 284              		.loc 1 299 40
 285 0156 1A43     		orrs	r2, r2, r3
 286              		.loc 1 299 8
 287 0158 7B68     		ldr	r3, [r7, #4]
 288 015a 1B68     		ldr	r3, [r3]
 289              		.loc 1 299 25
 290 015c 0A43     		orrs	r2, r2, r1
 291 015e DA62     		str	r2, [r3, #44]
 300:Drivers/STM32L4xx_HAL_Driver/Src/stm32l4xx_hal_ltdc.c **** 
 301:Drivers/STM32L4xx_HAL_Driver/Src/stm32l4xx_hal_ltdc.c ****   /* Enable the Transfer Error and FIFO underrun interrupts */
 302:Drivers/STM32L4xx_HAL_Driver/Src/stm32l4xx_hal_ltdc.c ****   __HAL_LTDC_ENABLE_IT(hltdc, LTDC_IT_TE | LTDC_IT_FU);
 292              		.loc 1 302 3
 293 0160 7B68     		ldr	r3, [r7, #4]
 294 0162 1B68     		ldr	r3, [r3]
 295 0164 5A6B     		ldr	r2, [r3, #52]
 296 0166 7B68     		ldr	r3, [r7, #4]
 297 0168 1B68     		ldr	r3, [r3]
 298 016a 42F00602 		orr	r2, r2, #6
 299 016e 5A63     		str	r2, [r3, #52]
 303:Drivers/STM32L4xx_HAL_Driver/Src/stm32l4xx_hal_ltdc.c **** 
 304:Drivers/STM32L4xx_HAL_Driver/Src/stm32l4xx_hal_ltdc.c ****   /* Enable LTDC by setting LTDCEN bit */
 305:Drivers/STM32L4xx_HAL_Driver/Src/stm32l4xx_hal_ltdc.c ****   __HAL_LTDC_ENABLE(hltdc);
 300              		.loc 1 305 3
 301 0170 7B68     		ldr	r3, [r7, #4]
 302 0172 1B68     		ldr	r3, [r3]
 303 0174 9A69     		ldr	r2, [r3, #24]
 304 0176 7B68     		ldr	r3, [r7, #4]
 305 0178 1B68     		ldr	r3, [r3]
 306 017a 42F00102 		orr	r2, r2, #1
 307 017e 9A61     		str	r2, [r3, #24]
 306:Drivers/STM32L4xx_HAL_Driver/Src/stm32l4xx_hal_ltdc.c **** 
 307:Drivers/STM32L4xx_HAL_Driver/Src/stm32l4xx_hal_ltdc.c ****   /* Initialize the error code */
 308:Drivers/STM32L4xx_HAL_Driver/Src/stm32l4xx_hal_ltdc.c ****   hltdc->ErrorCode = HAL_LTDC_ERROR_NONE;
 308              		.loc 1 308 20
 309 0180 7B68     		ldr	r3, [r7, #4]
 310 0182 0022     		movs	r2, #0
 311 0184 1A67     		str	r2, [r3, #112]
 309:Drivers/STM32L4xx_HAL_Driver/Src/stm32l4xx_hal_ltdc.c **** 
 310:Drivers/STM32L4xx_HAL_Driver/Src/stm32l4xx_hal_ltdc.c ****   /* Initialize the LTDC state*/
 311:Drivers/STM32L4xx_HAL_Driver/Src/stm32l4xx_hal_ltdc.c ****   hltdc->State = HAL_LTDC_STATE_READY;
 312              		.loc 1 311 16
 313 0186 7B68     		ldr	r3, [r7, #4]
 314 0188 0122     		movs	r2, #1
ARM GAS  C:\Users\Morroway\AppData\Local\Temp\cclk5axT.s 			page 12


 315 018a 83F86D20 		strb	r2, [r3, #109]
 312:Drivers/STM32L4xx_HAL_Driver/Src/stm32l4xx_hal_ltdc.c **** 
 313:Drivers/STM32L4xx_HAL_Driver/Src/stm32l4xx_hal_ltdc.c ****   return HAL_OK;
 316              		.loc 1 313 10
 317 018e 0023     		movs	r3, #0
 318              	.L3:
 314:Drivers/STM32L4xx_HAL_Driver/Src/stm32l4xx_hal_ltdc.c **** }
 319              		.loc 1 314 1
 320 0190 1846     		mov	r0, r3
 321 0192 1037     		adds	r7, r7, #16
 322              		.cfi_def_cfa_offset 8
 323 0194 BD46     		mov	sp, r7
 324              		.cfi_def_cfa_register 13
 325              		@ sp needed
 326 0196 80BD     		pop	{r7, pc}
 327              	.L6:
 328              		.align	2
 329              	.L5:
 330 0198 00F800F0 		.word	-268371968
 331              		.cfi_endproc
 332              	.LFE321:
 334              		.section	.text.HAL_LTDC_DeInit,"ax",%progbits
 335              		.align	1
 336              		.global	HAL_LTDC_DeInit
 337              		.syntax unified
 338              		.thumb
 339              		.thumb_func
 341              	HAL_LTDC_DeInit:
 342              	.LFB322:
 315:Drivers/STM32L4xx_HAL_Driver/Src/stm32l4xx_hal_ltdc.c **** 
 316:Drivers/STM32L4xx_HAL_Driver/Src/stm32l4xx_hal_ltdc.c **** /**
 317:Drivers/STM32L4xx_HAL_Driver/Src/stm32l4xx_hal_ltdc.c ****   * @brief  De-initialize the LTDC peripheral.
 318:Drivers/STM32L4xx_HAL_Driver/Src/stm32l4xx_hal_ltdc.c ****   * @param  hltdc  pointer to a LTDC_HandleTypeDef structure that contains
 319:Drivers/STM32L4xx_HAL_Driver/Src/stm32l4xx_hal_ltdc.c ****   *                the configuration information for the LTDC.
 320:Drivers/STM32L4xx_HAL_Driver/Src/stm32l4xx_hal_ltdc.c ****   * @retval None
 321:Drivers/STM32L4xx_HAL_Driver/Src/stm32l4xx_hal_ltdc.c ****   */
 322:Drivers/STM32L4xx_HAL_Driver/Src/stm32l4xx_hal_ltdc.c **** 
 323:Drivers/STM32L4xx_HAL_Driver/Src/stm32l4xx_hal_ltdc.c **** HAL_StatusTypeDef HAL_LTDC_DeInit(LTDC_HandleTypeDef *hltdc)
 324:Drivers/STM32L4xx_HAL_Driver/Src/stm32l4xx_hal_ltdc.c **** {
 343              		.loc 1 324 1
 344              		.cfi_startproc
 345              		@ args = 0, pretend = 0, frame = 16
 346              		@ frame_needed = 1, uses_anonymous_args = 0
 347 0000 80B5     		push	{r7, lr}
 348              		.cfi_def_cfa_offset 8
 349              		.cfi_offset 7, -8
 350              		.cfi_offset 14, -4
 351 0002 84B0     		sub	sp, sp, #16
 352              		.cfi_def_cfa_offset 24
 353 0004 00AF     		add	r7, sp, #0
 354              		.cfi_def_cfa_register 7
 355 0006 7860     		str	r0, [r7, #4]
 325:Drivers/STM32L4xx_HAL_Driver/Src/stm32l4xx_hal_ltdc.c ****   uint32_t tickstart;
 326:Drivers/STM32L4xx_HAL_Driver/Src/stm32l4xx_hal_ltdc.c **** 
 327:Drivers/STM32L4xx_HAL_Driver/Src/stm32l4xx_hal_ltdc.c ****   /* Check the LTDC peripheral state */
 328:Drivers/STM32L4xx_HAL_Driver/Src/stm32l4xx_hal_ltdc.c ****   if (hltdc == NULL)
 356              		.loc 1 328 6
ARM GAS  C:\Users\Morroway\AppData\Local\Temp\cclk5axT.s 			page 13


 357 0008 7B68     		ldr	r3, [r7, #4]
 358 000a 002B     		cmp	r3, #0
 359 000c 01D1     		bne	.L8
 329:Drivers/STM32L4xx_HAL_Driver/Src/stm32l4xx_hal_ltdc.c ****   {
 330:Drivers/STM32L4xx_HAL_Driver/Src/stm32l4xx_hal_ltdc.c ****     return HAL_ERROR;
 360              		.loc 1 330 12
 361 000e 0123     		movs	r3, #1
 362 0010 3CE0     		b	.L9
 363              	.L8:
 331:Drivers/STM32L4xx_HAL_Driver/Src/stm32l4xx_hal_ltdc.c ****   }
 332:Drivers/STM32L4xx_HAL_Driver/Src/stm32l4xx_hal_ltdc.c **** 
 333:Drivers/STM32L4xx_HAL_Driver/Src/stm32l4xx_hal_ltdc.c ****   /* Check function parameters */
 334:Drivers/STM32L4xx_HAL_Driver/Src/stm32l4xx_hal_ltdc.c ****   assert_param(IS_LTDC_ALL_INSTANCE(hltdc->Instance));
 335:Drivers/STM32L4xx_HAL_Driver/Src/stm32l4xx_hal_ltdc.c **** 
 336:Drivers/STM32L4xx_HAL_Driver/Src/stm32l4xx_hal_ltdc.c ****   /* Disable LTDC Layer 1 */
 337:Drivers/STM32L4xx_HAL_Driver/Src/stm32l4xx_hal_ltdc.c ****   __HAL_LTDC_LAYER_DISABLE(hltdc, LTDC_LAYER_1);
 364              		.loc 1 337 3
 365 0012 7B68     		ldr	r3, [r7, #4]
 366 0014 1B68     		ldr	r3, [r3]
 367 0016 8433     		adds	r3, r3, #132
 368 0018 1B68     		ldr	r3, [r3]
 369 001a 7A68     		ldr	r2, [r7, #4]
 370 001c 1268     		ldr	r2, [r2]
 371 001e 8432     		adds	r2, r2, #132
 372 0020 23F00103 		bic	r3, r3, #1
 373 0024 1360     		str	r3, [r2]
 338:Drivers/STM32L4xx_HAL_Driver/Src/stm32l4xx_hal_ltdc.c **** 
 339:Drivers/STM32L4xx_HAL_Driver/Src/stm32l4xx_hal_ltdc.c **** #if defined(LTDC_Layer2_BASE)
 340:Drivers/STM32L4xx_HAL_Driver/Src/stm32l4xx_hal_ltdc.c ****   /* Disable LTDC Layer 2 */
 341:Drivers/STM32L4xx_HAL_Driver/Src/stm32l4xx_hal_ltdc.c ****   __HAL_LTDC_LAYER_DISABLE(hltdc, LTDC_LAYER_2);
 342:Drivers/STM32L4xx_HAL_Driver/Src/stm32l4xx_hal_ltdc.c **** #endif /* LTDC_Layer2_BASE */
 343:Drivers/STM32L4xx_HAL_Driver/Src/stm32l4xx_hal_ltdc.c **** 
 344:Drivers/STM32L4xx_HAL_Driver/Src/stm32l4xx_hal_ltdc.c ****   /* Reload during vertical blanking period */
 345:Drivers/STM32L4xx_HAL_Driver/Src/stm32l4xx_hal_ltdc.c ****   __HAL_LTDC_VERTICAL_BLANKING_RELOAD_CONFIG(hltdc);
 374              		.loc 1 345 3
 375 0026 7B68     		ldr	r3, [r7, #4]
 376 0028 1B68     		ldr	r3, [r3]
 377 002a 5A6A     		ldr	r2, [r3, #36]
 378 002c 7B68     		ldr	r3, [r7, #4]
 379 002e 1B68     		ldr	r3, [r3]
 380 0030 42F00202 		orr	r2, r2, #2
 381 0034 5A62     		str	r2, [r3, #36]
 346:Drivers/STM32L4xx_HAL_Driver/Src/stm32l4xx_hal_ltdc.c **** 
 347:Drivers/STM32L4xx_HAL_Driver/Src/stm32l4xx_hal_ltdc.c ****   /* Get tick */
 348:Drivers/STM32L4xx_HAL_Driver/Src/stm32l4xx_hal_ltdc.c ****   tickstart = HAL_GetTick();
 382              		.loc 1 348 15
 383 0036 FFF7FEFF 		bl	HAL_GetTick
 384 003a F860     		str	r0, [r7, #12]
 349:Drivers/STM32L4xx_HAL_Driver/Src/stm32l4xx_hal_ltdc.c **** 
 350:Drivers/STM32L4xx_HAL_Driver/Src/stm32l4xx_hal_ltdc.c ****   /* Wait for VSYNC Interrupt */
 351:Drivers/STM32L4xx_HAL_Driver/Src/stm32l4xx_hal_ltdc.c ****   while (READ_BIT(hltdc->Instance->CDSR, LTDC_CDSR_VSYNCS) == 0U)
 385              		.loc 1 351 9
 386 003c 06E0     		b	.L10
 387              	.L12:
 352:Drivers/STM32L4xx_HAL_Driver/Src/stm32l4xx_hal_ltdc.c ****   {
 353:Drivers/STM32L4xx_HAL_Driver/Src/stm32l4xx_hal_ltdc.c ****     /* Check for the Timeout */
 354:Drivers/STM32L4xx_HAL_Driver/Src/stm32l4xx_hal_ltdc.c ****     if ((HAL_GetTick() - tickstart) > LTDC_TIMEOUT_VALUE)
ARM GAS  C:\Users\Morroway\AppData\Local\Temp\cclk5axT.s 			page 14


 388              		.loc 1 354 10
 389 003e FFF7FEFF 		bl	HAL_GetTick
 390 0042 0246     		mov	r2, r0
 391              		.loc 1 354 24
 392 0044 FB68     		ldr	r3, [r7, #12]
 393 0046 D31A     		subs	r3, r2, r3
 394              		.loc 1 354 8
 395 0048 642B     		cmp	r3, #100
 396 004a 07D8     		bhi	.L13
 397              	.L10:
 351:Drivers/STM32L4xx_HAL_Driver/Src/stm32l4xx_hal_ltdc.c ****   {
 398              		.loc 1 351 10
 399 004c 7B68     		ldr	r3, [r7, #4]
 400 004e 1B68     		ldr	r3, [r3]
 401 0050 9B6C     		ldr	r3, [r3, #72]
 402 0052 03F00403 		and	r3, r3, #4
 351:Drivers/STM32L4xx_HAL_Driver/Src/stm32l4xx_hal_ltdc.c ****   {
 403              		.loc 1 351 60
 404 0056 002B     		cmp	r3, #0
 405 0058 F1D0     		beq	.L12
 406 005a 00E0     		b	.L11
 407              	.L13:
 355:Drivers/STM32L4xx_HAL_Driver/Src/stm32l4xx_hal_ltdc.c ****     {
 356:Drivers/STM32L4xx_HAL_Driver/Src/stm32l4xx_hal_ltdc.c ****       break;
 408              		.loc 1 356 7
 409 005c 00BF     		nop
 410              	.L11:
 357:Drivers/STM32L4xx_HAL_Driver/Src/stm32l4xx_hal_ltdc.c ****     }
 358:Drivers/STM32L4xx_HAL_Driver/Src/stm32l4xx_hal_ltdc.c ****   }
 359:Drivers/STM32L4xx_HAL_Driver/Src/stm32l4xx_hal_ltdc.c **** 
 360:Drivers/STM32L4xx_HAL_Driver/Src/stm32l4xx_hal_ltdc.c ****   /* Disable LTDC  */
 361:Drivers/STM32L4xx_HAL_Driver/Src/stm32l4xx_hal_ltdc.c ****   __HAL_LTDC_DISABLE(hltdc);
 411              		.loc 1 361 3
 412 005e 7B68     		ldr	r3, [r7, #4]
 413 0060 1B68     		ldr	r3, [r3]
 414 0062 9A69     		ldr	r2, [r3, #24]
 415 0064 7B68     		ldr	r3, [r7, #4]
 416 0066 1B68     		ldr	r3, [r3]
 417 0068 22F00102 		bic	r2, r2, #1
 418 006c 9A61     		str	r2, [r3, #24]
 362:Drivers/STM32L4xx_HAL_Driver/Src/stm32l4xx_hal_ltdc.c **** 
 363:Drivers/STM32L4xx_HAL_Driver/Src/stm32l4xx_hal_ltdc.c **** #if (USE_HAL_LTDC_REGISTER_CALLBACKS == 1)
 364:Drivers/STM32L4xx_HAL_Driver/Src/stm32l4xx_hal_ltdc.c ****   if (hltdc->MspDeInitCallback == NULL)
 365:Drivers/STM32L4xx_HAL_Driver/Src/stm32l4xx_hal_ltdc.c ****   {
 366:Drivers/STM32L4xx_HAL_Driver/Src/stm32l4xx_hal_ltdc.c ****     hltdc->MspDeInitCallback = HAL_LTDC_MspDeInit;
 367:Drivers/STM32L4xx_HAL_Driver/Src/stm32l4xx_hal_ltdc.c ****   }
 368:Drivers/STM32L4xx_HAL_Driver/Src/stm32l4xx_hal_ltdc.c ****   /* DeInit the low level hardware */
 369:Drivers/STM32L4xx_HAL_Driver/Src/stm32l4xx_hal_ltdc.c ****   hltdc->MspDeInitCallback(hltdc);
 370:Drivers/STM32L4xx_HAL_Driver/Src/stm32l4xx_hal_ltdc.c **** #else
 371:Drivers/STM32L4xx_HAL_Driver/Src/stm32l4xx_hal_ltdc.c ****   /* DeInit the low level hardware */
 372:Drivers/STM32L4xx_HAL_Driver/Src/stm32l4xx_hal_ltdc.c ****   HAL_LTDC_MspDeInit(hltdc);
 419              		.loc 1 372 3
 420 006e 7868     		ldr	r0, [r7, #4]
 421 0070 FFF7FEFF 		bl	HAL_LTDC_MspDeInit
 373:Drivers/STM32L4xx_HAL_Driver/Src/stm32l4xx_hal_ltdc.c **** #endif /* USE_HAL_LTDC_REGISTER_CALLBACKS */
 374:Drivers/STM32L4xx_HAL_Driver/Src/stm32l4xx_hal_ltdc.c **** 
 375:Drivers/STM32L4xx_HAL_Driver/Src/stm32l4xx_hal_ltdc.c ****   /* Initialize the error code */
ARM GAS  C:\Users\Morroway\AppData\Local\Temp\cclk5axT.s 			page 15


 376:Drivers/STM32L4xx_HAL_Driver/Src/stm32l4xx_hal_ltdc.c ****   hltdc->ErrorCode = HAL_LTDC_ERROR_NONE;
 422              		.loc 1 376 20
 423 0074 7B68     		ldr	r3, [r7, #4]
 424 0076 0022     		movs	r2, #0
 425 0078 1A67     		str	r2, [r3, #112]
 377:Drivers/STM32L4xx_HAL_Driver/Src/stm32l4xx_hal_ltdc.c **** 
 378:Drivers/STM32L4xx_HAL_Driver/Src/stm32l4xx_hal_ltdc.c ****   /* Initialize the LTDC state*/
 379:Drivers/STM32L4xx_HAL_Driver/Src/stm32l4xx_hal_ltdc.c ****   hltdc->State = HAL_LTDC_STATE_RESET;
 426              		.loc 1 379 16
 427 007a 7B68     		ldr	r3, [r7, #4]
 428 007c 0022     		movs	r2, #0
 429 007e 83F86D20 		strb	r2, [r3, #109]
 380:Drivers/STM32L4xx_HAL_Driver/Src/stm32l4xx_hal_ltdc.c **** 
 381:Drivers/STM32L4xx_HAL_Driver/Src/stm32l4xx_hal_ltdc.c ****   /* Release Lock */
 382:Drivers/STM32L4xx_HAL_Driver/Src/stm32l4xx_hal_ltdc.c ****   __HAL_UNLOCK(hltdc);
 430              		.loc 1 382 3
 431 0082 7B68     		ldr	r3, [r7, #4]
 432 0084 0022     		movs	r2, #0
 433 0086 83F86C20 		strb	r2, [r3, #108]
 383:Drivers/STM32L4xx_HAL_Driver/Src/stm32l4xx_hal_ltdc.c **** 
 384:Drivers/STM32L4xx_HAL_Driver/Src/stm32l4xx_hal_ltdc.c ****   return HAL_OK;
 434              		.loc 1 384 10
 435 008a 0023     		movs	r3, #0
 436              	.L9:
 385:Drivers/STM32L4xx_HAL_Driver/Src/stm32l4xx_hal_ltdc.c **** }
 437              		.loc 1 385 1
 438 008c 1846     		mov	r0, r3
 439 008e 1037     		adds	r7, r7, #16
 440              		.cfi_def_cfa_offset 8
 441 0090 BD46     		mov	sp, r7
 442              		.cfi_def_cfa_register 13
 443              		@ sp needed
 444 0092 80BD     		pop	{r7, pc}
 445              		.cfi_endproc
 446              	.LFE322:
 448              		.section	.text.HAL_LTDC_MspInit,"ax",%progbits
 449              		.align	1
 450              		.weak	HAL_LTDC_MspInit
 451              		.syntax unified
 452              		.thumb
 453              		.thumb_func
 455              	HAL_LTDC_MspInit:
 456              	.LFB323:
 386:Drivers/STM32L4xx_HAL_Driver/Src/stm32l4xx_hal_ltdc.c **** 
 387:Drivers/STM32L4xx_HAL_Driver/Src/stm32l4xx_hal_ltdc.c **** /**
 388:Drivers/STM32L4xx_HAL_Driver/Src/stm32l4xx_hal_ltdc.c ****   * @brief  Initialize the LTDC MSP.
 389:Drivers/STM32L4xx_HAL_Driver/Src/stm32l4xx_hal_ltdc.c ****   * @param  hltdc  pointer to a LTDC_HandleTypeDef structure that contains
 390:Drivers/STM32L4xx_HAL_Driver/Src/stm32l4xx_hal_ltdc.c ****   *                the configuration information for the LTDC.
 391:Drivers/STM32L4xx_HAL_Driver/Src/stm32l4xx_hal_ltdc.c ****   * @retval None
 392:Drivers/STM32L4xx_HAL_Driver/Src/stm32l4xx_hal_ltdc.c ****   */
 393:Drivers/STM32L4xx_HAL_Driver/Src/stm32l4xx_hal_ltdc.c **** __weak void HAL_LTDC_MspInit(LTDC_HandleTypeDef *hltdc)
 394:Drivers/STM32L4xx_HAL_Driver/Src/stm32l4xx_hal_ltdc.c **** {
 457              		.loc 1 394 1
 458              		.cfi_startproc
 459              		@ args = 0, pretend = 0, frame = 8
 460              		@ frame_needed = 1, uses_anonymous_args = 0
 461              		@ link register save eliminated.
ARM GAS  C:\Users\Morroway\AppData\Local\Temp\cclk5axT.s 			page 16


 462 0000 80B4     		push	{r7}
 463              		.cfi_def_cfa_offset 4
 464              		.cfi_offset 7, -4
 465 0002 83B0     		sub	sp, sp, #12
 466              		.cfi_def_cfa_offset 16
 467 0004 00AF     		add	r7, sp, #0
 468              		.cfi_def_cfa_register 7
 469 0006 7860     		str	r0, [r7, #4]
 395:Drivers/STM32L4xx_HAL_Driver/Src/stm32l4xx_hal_ltdc.c ****   /* Prevent unused argument(s) compilation warning */
 396:Drivers/STM32L4xx_HAL_Driver/Src/stm32l4xx_hal_ltdc.c ****   UNUSED(hltdc);
 397:Drivers/STM32L4xx_HAL_Driver/Src/stm32l4xx_hal_ltdc.c **** 
 398:Drivers/STM32L4xx_HAL_Driver/Src/stm32l4xx_hal_ltdc.c ****   /* NOTE : This function should not be modified, when the callback is needed,
 399:Drivers/STM32L4xx_HAL_Driver/Src/stm32l4xx_hal_ltdc.c ****             the HAL_LTDC_MspInit could be implemented in the user file
 400:Drivers/STM32L4xx_HAL_Driver/Src/stm32l4xx_hal_ltdc.c ****    */
 401:Drivers/STM32L4xx_HAL_Driver/Src/stm32l4xx_hal_ltdc.c **** }
 470              		.loc 1 401 1
 471 0008 00BF     		nop
 472 000a 0C37     		adds	r7, r7, #12
 473              		.cfi_def_cfa_offset 4
 474 000c BD46     		mov	sp, r7
 475              		.cfi_def_cfa_register 13
 476              		@ sp needed
 477 000e 5DF8047B 		ldr	r7, [sp], #4
 478              		.cfi_restore 7
 479              		.cfi_def_cfa_offset 0
 480 0012 7047     		bx	lr
 481              		.cfi_endproc
 482              	.LFE323:
 484              		.section	.text.HAL_LTDC_MspDeInit,"ax",%progbits
 485              		.align	1
 486              		.weak	HAL_LTDC_MspDeInit
 487              		.syntax unified
 488              		.thumb
 489              		.thumb_func
 491              	HAL_LTDC_MspDeInit:
 492              	.LFB324:
 402:Drivers/STM32L4xx_HAL_Driver/Src/stm32l4xx_hal_ltdc.c **** 
 403:Drivers/STM32L4xx_HAL_Driver/Src/stm32l4xx_hal_ltdc.c **** /**
 404:Drivers/STM32L4xx_HAL_Driver/Src/stm32l4xx_hal_ltdc.c ****   * @brief  De-initialize the LTDC MSP.
 405:Drivers/STM32L4xx_HAL_Driver/Src/stm32l4xx_hal_ltdc.c ****   * @param  hltdc  pointer to a LTDC_HandleTypeDef structure that contains
 406:Drivers/STM32L4xx_HAL_Driver/Src/stm32l4xx_hal_ltdc.c ****   *                the configuration information for the LTDC.
 407:Drivers/STM32L4xx_HAL_Driver/Src/stm32l4xx_hal_ltdc.c ****   * @retval None
 408:Drivers/STM32L4xx_HAL_Driver/Src/stm32l4xx_hal_ltdc.c ****   */
 409:Drivers/STM32L4xx_HAL_Driver/Src/stm32l4xx_hal_ltdc.c **** __weak void HAL_LTDC_MspDeInit(LTDC_HandleTypeDef *hltdc)
 410:Drivers/STM32L4xx_HAL_Driver/Src/stm32l4xx_hal_ltdc.c **** {
 493              		.loc 1 410 1
 494              		.cfi_startproc
 495              		@ args = 0, pretend = 0, frame = 8
 496              		@ frame_needed = 1, uses_anonymous_args = 0
 497              		@ link register save eliminated.
 498 0000 80B4     		push	{r7}
 499              		.cfi_def_cfa_offset 4
 500              		.cfi_offset 7, -4
 501 0002 83B0     		sub	sp, sp, #12
 502              		.cfi_def_cfa_offset 16
 503 0004 00AF     		add	r7, sp, #0
 504              		.cfi_def_cfa_register 7
ARM GAS  C:\Users\Morroway\AppData\Local\Temp\cclk5axT.s 			page 17


 505 0006 7860     		str	r0, [r7, #4]
 411:Drivers/STM32L4xx_HAL_Driver/Src/stm32l4xx_hal_ltdc.c ****   /* Prevent unused argument(s) compilation warning */
 412:Drivers/STM32L4xx_HAL_Driver/Src/stm32l4xx_hal_ltdc.c ****   UNUSED(hltdc);
 413:Drivers/STM32L4xx_HAL_Driver/Src/stm32l4xx_hal_ltdc.c **** 
 414:Drivers/STM32L4xx_HAL_Driver/Src/stm32l4xx_hal_ltdc.c ****   /* NOTE : This function should not be modified, when the callback is needed,
 415:Drivers/STM32L4xx_HAL_Driver/Src/stm32l4xx_hal_ltdc.c ****             the HAL_LTDC_MspDeInit could be implemented in the user file
 416:Drivers/STM32L4xx_HAL_Driver/Src/stm32l4xx_hal_ltdc.c ****    */
 417:Drivers/STM32L4xx_HAL_Driver/Src/stm32l4xx_hal_ltdc.c **** }
 506              		.loc 1 417 1
 507 0008 00BF     		nop
 508 000a 0C37     		adds	r7, r7, #12
 509              		.cfi_def_cfa_offset 4
 510 000c BD46     		mov	sp, r7
 511              		.cfi_def_cfa_register 13
 512              		@ sp needed
 513 000e 5DF8047B 		ldr	r7, [sp], #4
 514              		.cfi_restore 7
 515              		.cfi_def_cfa_offset 0
 516 0012 7047     		bx	lr
 517              		.cfi_endproc
 518              	.LFE324:
 520              		.section	.text.HAL_LTDC_IRQHandler,"ax",%progbits
 521              		.align	1
 522              		.global	HAL_LTDC_IRQHandler
 523              		.syntax unified
 524              		.thumb
 525              		.thumb_func
 527              	HAL_LTDC_IRQHandler:
 528              	.LFB325:
 418:Drivers/STM32L4xx_HAL_Driver/Src/stm32l4xx_hal_ltdc.c **** 
 419:Drivers/STM32L4xx_HAL_Driver/Src/stm32l4xx_hal_ltdc.c **** #if (USE_HAL_LTDC_REGISTER_CALLBACKS == 1)
 420:Drivers/STM32L4xx_HAL_Driver/Src/stm32l4xx_hal_ltdc.c **** /**
 421:Drivers/STM32L4xx_HAL_Driver/Src/stm32l4xx_hal_ltdc.c ****   * @brief  Register a User LTDC Callback
 422:Drivers/STM32L4xx_HAL_Driver/Src/stm32l4xx_hal_ltdc.c ****   *         To be used instead of the weak predefined callback
 423:Drivers/STM32L4xx_HAL_Driver/Src/stm32l4xx_hal_ltdc.c ****   * @param hltdc ltdc handle
 424:Drivers/STM32L4xx_HAL_Driver/Src/stm32l4xx_hal_ltdc.c ****   * @param CallbackID ID of the callback to be registered
 425:Drivers/STM32L4xx_HAL_Driver/Src/stm32l4xx_hal_ltdc.c ****   *        This parameter can be one of the following values:
 426:Drivers/STM32L4xx_HAL_Driver/Src/stm32l4xx_hal_ltdc.c ****   *          @arg @ref HAL_LTDC_LINE_EVENT_CB_ID Line Event Callback ID
 427:Drivers/STM32L4xx_HAL_Driver/Src/stm32l4xx_hal_ltdc.c ****   *          @arg @ref HAL_LTDC_RELOAD_EVENT_CB_ID Reload Event Callback ID
 428:Drivers/STM32L4xx_HAL_Driver/Src/stm32l4xx_hal_ltdc.c ****   *          @arg @ref HAL_LTDC_ERROR_CB_ID Error Callback ID
 429:Drivers/STM32L4xx_HAL_Driver/Src/stm32l4xx_hal_ltdc.c ****   *          @arg @ref HAL_LTDC_MSPINIT_CB_ID MspInit callback ID
 430:Drivers/STM32L4xx_HAL_Driver/Src/stm32l4xx_hal_ltdc.c ****   *          @arg @ref HAL_LTDC_MSPDEINIT_CB_ID MspDeInit callback ID
 431:Drivers/STM32L4xx_HAL_Driver/Src/stm32l4xx_hal_ltdc.c ****   * @param pCallback pointer to the Callback function
 432:Drivers/STM32L4xx_HAL_Driver/Src/stm32l4xx_hal_ltdc.c ****   * @retval status
 433:Drivers/STM32L4xx_HAL_Driver/Src/stm32l4xx_hal_ltdc.c ****   */
 434:Drivers/STM32L4xx_HAL_Driver/Src/stm32l4xx_hal_ltdc.c **** HAL_StatusTypeDef HAL_LTDC_RegisterCallback(LTDC_HandleTypeDef *hltdc, HAL_LTDC_CallbackIDTypeDef C
 435:Drivers/STM32L4xx_HAL_Driver/Src/stm32l4xx_hal_ltdc.c ****                                             pLTDC_CallbackTypeDef pCallback)
 436:Drivers/STM32L4xx_HAL_Driver/Src/stm32l4xx_hal_ltdc.c **** {
 437:Drivers/STM32L4xx_HAL_Driver/Src/stm32l4xx_hal_ltdc.c ****   HAL_StatusTypeDef status = HAL_OK;
 438:Drivers/STM32L4xx_HAL_Driver/Src/stm32l4xx_hal_ltdc.c **** 
 439:Drivers/STM32L4xx_HAL_Driver/Src/stm32l4xx_hal_ltdc.c ****   if (pCallback == NULL)
 440:Drivers/STM32L4xx_HAL_Driver/Src/stm32l4xx_hal_ltdc.c ****   {
 441:Drivers/STM32L4xx_HAL_Driver/Src/stm32l4xx_hal_ltdc.c ****     /* Update the error code */
 442:Drivers/STM32L4xx_HAL_Driver/Src/stm32l4xx_hal_ltdc.c ****     hltdc->ErrorCode |= HAL_LTDC_ERROR_INVALID_CALLBACK;
 443:Drivers/STM32L4xx_HAL_Driver/Src/stm32l4xx_hal_ltdc.c **** 
 444:Drivers/STM32L4xx_HAL_Driver/Src/stm32l4xx_hal_ltdc.c ****     return HAL_ERROR;
 445:Drivers/STM32L4xx_HAL_Driver/Src/stm32l4xx_hal_ltdc.c ****   }
ARM GAS  C:\Users\Morroway\AppData\Local\Temp\cclk5axT.s 			page 18


 446:Drivers/STM32L4xx_HAL_Driver/Src/stm32l4xx_hal_ltdc.c ****   /* Process locked */
 447:Drivers/STM32L4xx_HAL_Driver/Src/stm32l4xx_hal_ltdc.c ****   __HAL_LOCK(hltdc);
 448:Drivers/STM32L4xx_HAL_Driver/Src/stm32l4xx_hal_ltdc.c **** 
 449:Drivers/STM32L4xx_HAL_Driver/Src/stm32l4xx_hal_ltdc.c ****   if (hltdc->State == HAL_LTDC_STATE_READY)
 450:Drivers/STM32L4xx_HAL_Driver/Src/stm32l4xx_hal_ltdc.c ****   {
 451:Drivers/STM32L4xx_HAL_Driver/Src/stm32l4xx_hal_ltdc.c ****     switch (CallbackID)
 452:Drivers/STM32L4xx_HAL_Driver/Src/stm32l4xx_hal_ltdc.c ****     {
 453:Drivers/STM32L4xx_HAL_Driver/Src/stm32l4xx_hal_ltdc.c ****       case HAL_LTDC_LINE_EVENT_CB_ID :
 454:Drivers/STM32L4xx_HAL_Driver/Src/stm32l4xx_hal_ltdc.c ****         hltdc->LineEventCallback = pCallback;
 455:Drivers/STM32L4xx_HAL_Driver/Src/stm32l4xx_hal_ltdc.c ****         break;
 456:Drivers/STM32L4xx_HAL_Driver/Src/stm32l4xx_hal_ltdc.c **** 
 457:Drivers/STM32L4xx_HAL_Driver/Src/stm32l4xx_hal_ltdc.c ****       case HAL_LTDC_RELOAD_EVENT_CB_ID :
 458:Drivers/STM32L4xx_HAL_Driver/Src/stm32l4xx_hal_ltdc.c ****         hltdc->ReloadEventCallback = pCallback;
 459:Drivers/STM32L4xx_HAL_Driver/Src/stm32l4xx_hal_ltdc.c ****         break;
 460:Drivers/STM32L4xx_HAL_Driver/Src/stm32l4xx_hal_ltdc.c **** 
 461:Drivers/STM32L4xx_HAL_Driver/Src/stm32l4xx_hal_ltdc.c ****       case HAL_LTDC_ERROR_CB_ID :
 462:Drivers/STM32L4xx_HAL_Driver/Src/stm32l4xx_hal_ltdc.c ****         hltdc->ErrorCallback = pCallback;
 463:Drivers/STM32L4xx_HAL_Driver/Src/stm32l4xx_hal_ltdc.c ****         break;
 464:Drivers/STM32L4xx_HAL_Driver/Src/stm32l4xx_hal_ltdc.c **** 
 465:Drivers/STM32L4xx_HAL_Driver/Src/stm32l4xx_hal_ltdc.c ****       case HAL_LTDC_MSPINIT_CB_ID :
 466:Drivers/STM32L4xx_HAL_Driver/Src/stm32l4xx_hal_ltdc.c ****         hltdc->MspInitCallback = pCallback;
 467:Drivers/STM32L4xx_HAL_Driver/Src/stm32l4xx_hal_ltdc.c ****         break;
 468:Drivers/STM32L4xx_HAL_Driver/Src/stm32l4xx_hal_ltdc.c **** 
 469:Drivers/STM32L4xx_HAL_Driver/Src/stm32l4xx_hal_ltdc.c ****       case HAL_LTDC_MSPDEINIT_CB_ID :
 470:Drivers/STM32L4xx_HAL_Driver/Src/stm32l4xx_hal_ltdc.c ****         hltdc->MspDeInitCallback = pCallback;
 471:Drivers/STM32L4xx_HAL_Driver/Src/stm32l4xx_hal_ltdc.c ****         break;
 472:Drivers/STM32L4xx_HAL_Driver/Src/stm32l4xx_hal_ltdc.c **** 
 473:Drivers/STM32L4xx_HAL_Driver/Src/stm32l4xx_hal_ltdc.c ****       default :
 474:Drivers/STM32L4xx_HAL_Driver/Src/stm32l4xx_hal_ltdc.c ****         /* Update the error code */
 475:Drivers/STM32L4xx_HAL_Driver/Src/stm32l4xx_hal_ltdc.c ****         hltdc->ErrorCode |= HAL_LTDC_ERROR_INVALID_CALLBACK;
 476:Drivers/STM32L4xx_HAL_Driver/Src/stm32l4xx_hal_ltdc.c ****         /* Return error status */
 477:Drivers/STM32L4xx_HAL_Driver/Src/stm32l4xx_hal_ltdc.c ****         status =  HAL_ERROR;
 478:Drivers/STM32L4xx_HAL_Driver/Src/stm32l4xx_hal_ltdc.c ****         break;
 479:Drivers/STM32L4xx_HAL_Driver/Src/stm32l4xx_hal_ltdc.c ****     }
 480:Drivers/STM32L4xx_HAL_Driver/Src/stm32l4xx_hal_ltdc.c ****   }
 481:Drivers/STM32L4xx_HAL_Driver/Src/stm32l4xx_hal_ltdc.c ****   else if (hltdc->State == HAL_LTDC_STATE_RESET)
 482:Drivers/STM32L4xx_HAL_Driver/Src/stm32l4xx_hal_ltdc.c ****   {
 483:Drivers/STM32L4xx_HAL_Driver/Src/stm32l4xx_hal_ltdc.c ****     switch (CallbackID)
 484:Drivers/STM32L4xx_HAL_Driver/Src/stm32l4xx_hal_ltdc.c ****     {
 485:Drivers/STM32L4xx_HAL_Driver/Src/stm32l4xx_hal_ltdc.c ****       case HAL_LTDC_MSPINIT_CB_ID :
 486:Drivers/STM32L4xx_HAL_Driver/Src/stm32l4xx_hal_ltdc.c ****         hltdc->MspInitCallback = pCallback;
 487:Drivers/STM32L4xx_HAL_Driver/Src/stm32l4xx_hal_ltdc.c ****         break;
 488:Drivers/STM32L4xx_HAL_Driver/Src/stm32l4xx_hal_ltdc.c **** 
 489:Drivers/STM32L4xx_HAL_Driver/Src/stm32l4xx_hal_ltdc.c ****       case HAL_LTDC_MSPDEINIT_CB_ID :
 490:Drivers/STM32L4xx_HAL_Driver/Src/stm32l4xx_hal_ltdc.c ****         hltdc->MspDeInitCallback = pCallback;
 491:Drivers/STM32L4xx_HAL_Driver/Src/stm32l4xx_hal_ltdc.c ****         break;
 492:Drivers/STM32L4xx_HAL_Driver/Src/stm32l4xx_hal_ltdc.c **** 
 493:Drivers/STM32L4xx_HAL_Driver/Src/stm32l4xx_hal_ltdc.c ****       default :
 494:Drivers/STM32L4xx_HAL_Driver/Src/stm32l4xx_hal_ltdc.c ****         /* Update the error code */
 495:Drivers/STM32L4xx_HAL_Driver/Src/stm32l4xx_hal_ltdc.c ****         hltdc->ErrorCode |= HAL_LTDC_ERROR_INVALID_CALLBACK;
 496:Drivers/STM32L4xx_HAL_Driver/Src/stm32l4xx_hal_ltdc.c ****         /* Return error status */
 497:Drivers/STM32L4xx_HAL_Driver/Src/stm32l4xx_hal_ltdc.c ****         status =  HAL_ERROR;
 498:Drivers/STM32L4xx_HAL_Driver/Src/stm32l4xx_hal_ltdc.c ****         break;
 499:Drivers/STM32L4xx_HAL_Driver/Src/stm32l4xx_hal_ltdc.c ****     }
 500:Drivers/STM32L4xx_HAL_Driver/Src/stm32l4xx_hal_ltdc.c ****   }
 501:Drivers/STM32L4xx_HAL_Driver/Src/stm32l4xx_hal_ltdc.c ****   else
 502:Drivers/STM32L4xx_HAL_Driver/Src/stm32l4xx_hal_ltdc.c ****   {
ARM GAS  C:\Users\Morroway\AppData\Local\Temp\cclk5axT.s 			page 19


 503:Drivers/STM32L4xx_HAL_Driver/Src/stm32l4xx_hal_ltdc.c ****     /* Update the error code */
 504:Drivers/STM32L4xx_HAL_Driver/Src/stm32l4xx_hal_ltdc.c ****     hltdc->ErrorCode |= HAL_LTDC_ERROR_INVALID_CALLBACK;
 505:Drivers/STM32L4xx_HAL_Driver/Src/stm32l4xx_hal_ltdc.c ****     /* Return error status */
 506:Drivers/STM32L4xx_HAL_Driver/Src/stm32l4xx_hal_ltdc.c ****     status =  HAL_ERROR;
 507:Drivers/STM32L4xx_HAL_Driver/Src/stm32l4xx_hal_ltdc.c ****   }
 508:Drivers/STM32L4xx_HAL_Driver/Src/stm32l4xx_hal_ltdc.c **** 
 509:Drivers/STM32L4xx_HAL_Driver/Src/stm32l4xx_hal_ltdc.c ****   /* Release Lock */
 510:Drivers/STM32L4xx_HAL_Driver/Src/stm32l4xx_hal_ltdc.c ****   __HAL_UNLOCK(hltdc);
 511:Drivers/STM32L4xx_HAL_Driver/Src/stm32l4xx_hal_ltdc.c **** 
 512:Drivers/STM32L4xx_HAL_Driver/Src/stm32l4xx_hal_ltdc.c ****   return status;
 513:Drivers/STM32L4xx_HAL_Driver/Src/stm32l4xx_hal_ltdc.c **** }
 514:Drivers/STM32L4xx_HAL_Driver/Src/stm32l4xx_hal_ltdc.c **** 
 515:Drivers/STM32L4xx_HAL_Driver/Src/stm32l4xx_hal_ltdc.c **** /**
 516:Drivers/STM32L4xx_HAL_Driver/Src/stm32l4xx_hal_ltdc.c ****   * @brief  Unregister an LTDC Callback
 517:Drivers/STM32L4xx_HAL_Driver/Src/stm32l4xx_hal_ltdc.c ****   *         LTDC callback is redirected to the weak predefined callback
 518:Drivers/STM32L4xx_HAL_Driver/Src/stm32l4xx_hal_ltdc.c ****   * @param hltdc ltdc handle
 519:Drivers/STM32L4xx_HAL_Driver/Src/stm32l4xx_hal_ltdc.c ****   * @param CallbackID ID of the callback to be unregistered
 520:Drivers/STM32L4xx_HAL_Driver/Src/stm32l4xx_hal_ltdc.c ****   *        This parameter can be one of the following values:
 521:Drivers/STM32L4xx_HAL_Driver/Src/stm32l4xx_hal_ltdc.c ****   *          @arg @ref HAL_LTDC_LINE_EVENT_CB_ID Line Event Callback ID
 522:Drivers/STM32L4xx_HAL_Driver/Src/stm32l4xx_hal_ltdc.c ****   *          @arg @ref HAL_LTDC_RELOAD_EVENT_CB_ID Reload Event Callback ID
 523:Drivers/STM32L4xx_HAL_Driver/Src/stm32l4xx_hal_ltdc.c ****   *          @arg @ref HAL_LTDC_ERROR_CB_ID Error Callback ID
 524:Drivers/STM32L4xx_HAL_Driver/Src/stm32l4xx_hal_ltdc.c ****   *          @arg @ref HAL_LTDC_MSPINIT_CB_ID MspInit callback ID
 525:Drivers/STM32L4xx_HAL_Driver/Src/stm32l4xx_hal_ltdc.c ****   *          @arg @ref HAL_LTDC_MSPDEINIT_CB_ID MspDeInit callback ID
 526:Drivers/STM32L4xx_HAL_Driver/Src/stm32l4xx_hal_ltdc.c ****   * @retval status
 527:Drivers/STM32L4xx_HAL_Driver/Src/stm32l4xx_hal_ltdc.c ****   */
 528:Drivers/STM32L4xx_HAL_Driver/Src/stm32l4xx_hal_ltdc.c **** HAL_StatusTypeDef HAL_LTDC_UnRegisterCallback(LTDC_HandleTypeDef *hltdc, HAL_LTDC_CallbackIDTypeDef
 529:Drivers/STM32L4xx_HAL_Driver/Src/stm32l4xx_hal_ltdc.c **** {
 530:Drivers/STM32L4xx_HAL_Driver/Src/stm32l4xx_hal_ltdc.c ****   HAL_StatusTypeDef status = HAL_OK;
 531:Drivers/STM32L4xx_HAL_Driver/Src/stm32l4xx_hal_ltdc.c **** 
 532:Drivers/STM32L4xx_HAL_Driver/Src/stm32l4xx_hal_ltdc.c ****   /* Process locked */
 533:Drivers/STM32L4xx_HAL_Driver/Src/stm32l4xx_hal_ltdc.c ****   __HAL_LOCK(hltdc);
 534:Drivers/STM32L4xx_HAL_Driver/Src/stm32l4xx_hal_ltdc.c **** 
 535:Drivers/STM32L4xx_HAL_Driver/Src/stm32l4xx_hal_ltdc.c ****   if (hltdc->State == HAL_LTDC_STATE_READY)
 536:Drivers/STM32L4xx_HAL_Driver/Src/stm32l4xx_hal_ltdc.c ****   {
 537:Drivers/STM32L4xx_HAL_Driver/Src/stm32l4xx_hal_ltdc.c ****     switch (CallbackID)
 538:Drivers/STM32L4xx_HAL_Driver/Src/stm32l4xx_hal_ltdc.c ****     {
 539:Drivers/STM32L4xx_HAL_Driver/Src/stm32l4xx_hal_ltdc.c ****       case HAL_LTDC_LINE_EVENT_CB_ID :
 540:Drivers/STM32L4xx_HAL_Driver/Src/stm32l4xx_hal_ltdc.c ****         hltdc->LineEventCallback = HAL_LTDC_LineEventCallback;      /* Legacy weak LineEventCallbac
 541:Drivers/STM32L4xx_HAL_Driver/Src/stm32l4xx_hal_ltdc.c ****         break;
 542:Drivers/STM32L4xx_HAL_Driver/Src/stm32l4xx_hal_ltdc.c **** 
 543:Drivers/STM32L4xx_HAL_Driver/Src/stm32l4xx_hal_ltdc.c ****       case HAL_LTDC_RELOAD_EVENT_CB_ID :
 544:Drivers/STM32L4xx_HAL_Driver/Src/stm32l4xx_hal_ltdc.c ****         hltdc->ReloadEventCallback = HAL_LTDC_ReloadEventCallback;  /* Legacy weak ReloadEventCallb
 545:Drivers/STM32L4xx_HAL_Driver/Src/stm32l4xx_hal_ltdc.c ****         break;
 546:Drivers/STM32L4xx_HAL_Driver/Src/stm32l4xx_hal_ltdc.c **** 
 547:Drivers/STM32L4xx_HAL_Driver/Src/stm32l4xx_hal_ltdc.c ****       case HAL_LTDC_ERROR_CB_ID :
 548:Drivers/STM32L4xx_HAL_Driver/Src/stm32l4xx_hal_ltdc.c ****         hltdc->ErrorCallback       = HAL_LTDC_ErrorCallback;        /* Legacy weak ErrorCallback   
 549:Drivers/STM32L4xx_HAL_Driver/Src/stm32l4xx_hal_ltdc.c ****         break;
 550:Drivers/STM32L4xx_HAL_Driver/Src/stm32l4xx_hal_ltdc.c **** 
 551:Drivers/STM32L4xx_HAL_Driver/Src/stm32l4xx_hal_ltdc.c ****       case HAL_LTDC_MSPINIT_CB_ID :
 552:Drivers/STM32L4xx_HAL_Driver/Src/stm32l4xx_hal_ltdc.c ****         hltdc->MspInitCallback = HAL_LTDC_MspInit;                  /* Legcay weak MspInit Callback
 553:Drivers/STM32L4xx_HAL_Driver/Src/stm32l4xx_hal_ltdc.c ****         break;
 554:Drivers/STM32L4xx_HAL_Driver/Src/stm32l4xx_hal_ltdc.c **** 
 555:Drivers/STM32L4xx_HAL_Driver/Src/stm32l4xx_hal_ltdc.c ****       case HAL_LTDC_MSPDEINIT_CB_ID :
 556:Drivers/STM32L4xx_HAL_Driver/Src/stm32l4xx_hal_ltdc.c ****         hltdc->MspDeInitCallback = HAL_LTDC_MspDeInit;              /* Legcay weak MspDeInit Callba
 557:Drivers/STM32L4xx_HAL_Driver/Src/stm32l4xx_hal_ltdc.c ****         break;
 558:Drivers/STM32L4xx_HAL_Driver/Src/stm32l4xx_hal_ltdc.c **** 
 559:Drivers/STM32L4xx_HAL_Driver/Src/stm32l4xx_hal_ltdc.c ****       default :
ARM GAS  C:\Users\Morroway\AppData\Local\Temp\cclk5axT.s 			page 20


 560:Drivers/STM32L4xx_HAL_Driver/Src/stm32l4xx_hal_ltdc.c ****         /* Update the error code */
 561:Drivers/STM32L4xx_HAL_Driver/Src/stm32l4xx_hal_ltdc.c ****         hltdc->ErrorCode |= HAL_LTDC_ERROR_INVALID_CALLBACK;
 562:Drivers/STM32L4xx_HAL_Driver/Src/stm32l4xx_hal_ltdc.c ****         /* Return error status */
 563:Drivers/STM32L4xx_HAL_Driver/Src/stm32l4xx_hal_ltdc.c ****         status =  HAL_ERROR;
 564:Drivers/STM32L4xx_HAL_Driver/Src/stm32l4xx_hal_ltdc.c ****         break;
 565:Drivers/STM32L4xx_HAL_Driver/Src/stm32l4xx_hal_ltdc.c ****     }
 566:Drivers/STM32L4xx_HAL_Driver/Src/stm32l4xx_hal_ltdc.c ****   }
 567:Drivers/STM32L4xx_HAL_Driver/Src/stm32l4xx_hal_ltdc.c ****   else if (hltdc->State == HAL_LTDC_STATE_RESET)
 568:Drivers/STM32L4xx_HAL_Driver/Src/stm32l4xx_hal_ltdc.c ****   {
 569:Drivers/STM32L4xx_HAL_Driver/Src/stm32l4xx_hal_ltdc.c ****     switch (CallbackID)
 570:Drivers/STM32L4xx_HAL_Driver/Src/stm32l4xx_hal_ltdc.c ****     {
 571:Drivers/STM32L4xx_HAL_Driver/Src/stm32l4xx_hal_ltdc.c ****       case HAL_LTDC_MSPINIT_CB_ID :
 572:Drivers/STM32L4xx_HAL_Driver/Src/stm32l4xx_hal_ltdc.c ****         hltdc->MspInitCallback = HAL_LTDC_MspInit;                  /* Legcay weak MspInit Callback
 573:Drivers/STM32L4xx_HAL_Driver/Src/stm32l4xx_hal_ltdc.c ****         break;
 574:Drivers/STM32L4xx_HAL_Driver/Src/stm32l4xx_hal_ltdc.c **** 
 575:Drivers/STM32L4xx_HAL_Driver/Src/stm32l4xx_hal_ltdc.c ****       case HAL_LTDC_MSPDEINIT_CB_ID :
 576:Drivers/STM32L4xx_HAL_Driver/Src/stm32l4xx_hal_ltdc.c ****         hltdc->MspDeInitCallback = HAL_LTDC_MspDeInit;              /* Legcay weak MspDeInit Callba
 577:Drivers/STM32L4xx_HAL_Driver/Src/stm32l4xx_hal_ltdc.c ****         break;
 578:Drivers/STM32L4xx_HAL_Driver/Src/stm32l4xx_hal_ltdc.c **** 
 579:Drivers/STM32L4xx_HAL_Driver/Src/stm32l4xx_hal_ltdc.c ****       default :
 580:Drivers/STM32L4xx_HAL_Driver/Src/stm32l4xx_hal_ltdc.c ****         /* Update the error code */
 581:Drivers/STM32L4xx_HAL_Driver/Src/stm32l4xx_hal_ltdc.c ****         hltdc->ErrorCode |= HAL_LTDC_ERROR_INVALID_CALLBACK;
 582:Drivers/STM32L4xx_HAL_Driver/Src/stm32l4xx_hal_ltdc.c ****         /* Return error status */
 583:Drivers/STM32L4xx_HAL_Driver/Src/stm32l4xx_hal_ltdc.c ****         status =  HAL_ERROR;
 584:Drivers/STM32L4xx_HAL_Driver/Src/stm32l4xx_hal_ltdc.c ****         break;
 585:Drivers/STM32L4xx_HAL_Driver/Src/stm32l4xx_hal_ltdc.c ****     }
 586:Drivers/STM32L4xx_HAL_Driver/Src/stm32l4xx_hal_ltdc.c ****   }
 587:Drivers/STM32L4xx_HAL_Driver/Src/stm32l4xx_hal_ltdc.c ****   else
 588:Drivers/STM32L4xx_HAL_Driver/Src/stm32l4xx_hal_ltdc.c ****   {
 589:Drivers/STM32L4xx_HAL_Driver/Src/stm32l4xx_hal_ltdc.c ****     /* Update the error code */
 590:Drivers/STM32L4xx_HAL_Driver/Src/stm32l4xx_hal_ltdc.c ****     hltdc->ErrorCode |= HAL_LTDC_ERROR_INVALID_CALLBACK;
 591:Drivers/STM32L4xx_HAL_Driver/Src/stm32l4xx_hal_ltdc.c ****     /* Return error status */
 592:Drivers/STM32L4xx_HAL_Driver/Src/stm32l4xx_hal_ltdc.c ****     status =  HAL_ERROR;
 593:Drivers/STM32L4xx_HAL_Driver/Src/stm32l4xx_hal_ltdc.c ****   }
 594:Drivers/STM32L4xx_HAL_Driver/Src/stm32l4xx_hal_ltdc.c **** 
 595:Drivers/STM32L4xx_HAL_Driver/Src/stm32l4xx_hal_ltdc.c ****   /* Release Lock */
 596:Drivers/STM32L4xx_HAL_Driver/Src/stm32l4xx_hal_ltdc.c ****   __HAL_UNLOCK(hltdc);
 597:Drivers/STM32L4xx_HAL_Driver/Src/stm32l4xx_hal_ltdc.c **** 
 598:Drivers/STM32L4xx_HAL_Driver/Src/stm32l4xx_hal_ltdc.c ****   return status;
 599:Drivers/STM32L4xx_HAL_Driver/Src/stm32l4xx_hal_ltdc.c **** }
 600:Drivers/STM32L4xx_HAL_Driver/Src/stm32l4xx_hal_ltdc.c **** #endif /* USE_HAL_LTDC_REGISTER_CALLBACKS */
 601:Drivers/STM32L4xx_HAL_Driver/Src/stm32l4xx_hal_ltdc.c **** 
 602:Drivers/STM32L4xx_HAL_Driver/Src/stm32l4xx_hal_ltdc.c **** /**
 603:Drivers/STM32L4xx_HAL_Driver/Src/stm32l4xx_hal_ltdc.c ****   * @}
 604:Drivers/STM32L4xx_HAL_Driver/Src/stm32l4xx_hal_ltdc.c ****   */
 605:Drivers/STM32L4xx_HAL_Driver/Src/stm32l4xx_hal_ltdc.c **** 
 606:Drivers/STM32L4xx_HAL_Driver/Src/stm32l4xx_hal_ltdc.c **** /** @defgroup LTDC_Exported_Functions_Group2 IO operation functions
 607:Drivers/STM32L4xx_HAL_Driver/Src/stm32l4xx_hal_ltdc.c ****   *  @brief   IO operation functions
 608:Drivers/STM32L4xx_HAL_Driver/Src/stm32l4xx_hal_ltdc.c ****   *
 609:Drivers/STM32L4xx_HAL_Driver/Src/stm32l4xx_hal_ltdc.c **** @verbatim
 610:Drivers/STM32L4xx_HAL_Driver/Src/stm32l4xx_hal_ltdc.c ****  ===============================================================================
 611:Drivers/STM32L4xx_HAL_Driver/Src/stm32l4xx_hal_ltdc.c ****                       #####  IO operation functions  #####
 612:Drivers/STM32L4xx_HAL_Driver/Src/stm32l4xx_hal_ltdc.c ****  ===============================================================================
 613:Drivers/STM32L4xx_HAL_Driver/Src/stm32l4xx_hal_ltdc.c ****     [..]  This section provides function allowing to:
 614:Drivers/STM32L4xx_HAL_Driver/Src/stm32l4xx_hal_ltdc.c ****       (+) Handle LTDC interrupt request
 615:Drivers/STM32L4xx_HAL_Driver/Src/stm32l4xx_hal_ltdc.c **** 
 616:Drivers/STM32L4xx_HAL_Driver/Src/stm32l4xx_hal_ltdc.c **** @endverbatim
ARM GAS  C:\Users\Morroway\AppData\Local\Temp\cclk5axT.s 			page 21


 617:Drivers/STM32L4xx_HAL_Driver/Src/stm32l4xx_hal_ltdc.c ****   * @{
 618:Drivers/STM32L4xx_HAL_Driver/Src/stm32l4xx_hal_ltdc.c ****   */
 619:Drivers/STM32L4xx_HAL_Driver/Src/stm32l4xx_hal_ltdc.c **** /**
 620:Drivers/STM32L4xx_HAL_Driver/Src/stm32l4xx_hal_ltdc.c ****   * @brief  Handle LTDC interrupt request.
 621:Drivers/STM32L4xx_HAL_Driver/Src/stm32l4xx_hal_ltdc.c ****   * @param  hltdc  pointer to a LTDC_HandleTypeDef structure that contains
 622:Drivers/STM32L4xx_HAL_Driver/Src/stm32l4xx_hal_ltdc.c ****   *                the configuration information for the LTDC.
 623:Drivers/STM32L4xx_HAL_Driver/Src/stm32l4xx_hal_ltdc.c ****   * @retval HAL status
 624:Drivers/STM32L4xx_HAL_Driver/Src/stm32l4xx_hal_ltdc.c ****   */
 625:Drivers/STM32L4xx_HAL_Driver/Src/stm32l4xx_hal_ltdc.c **** void HAL_LTDC_IRQHandler(LTDC_HandleTypeDef *hltdc)
 626:Drivers/STM32L4xx_HAL_Driver/Src/stm32l4xx_hal_ltdc.c **** {
 529              		.loc 1 626 1
 530              		.cfi_startproc
 531              		@ args = 0, pretend = 0, frame = 16
 532              		@ frame_needed = 1, uses_anonymous_args = 0
 533 0000 80B5     		push	{r7, lr}
 534              		.cfi_def_cfa_offset 8
 535              		.cfi_offset 7, -8
 536              		.cfi_offset 14, -4
 537 0002 84B0     		sub	sp, sp, #16
 538              		.cfi_def_cfa_offset 24
 539 0004 00AF     		add	r7, sp, #0
 540              		.cfi_def_cfa_register 7
 541 0006 7860     		str	r0, [r7, #4]
 627:Drivers/STM32L4xx_HAL_Driver/Src/stm32l4xx_hal_ltdc.c ****   uint32_t isrflags  = READ_REG(hltdc->Instance->ISR);
 542              		.loc 1 627 24
 543 0008 7B68     		ldr	r3, [r7, #4]
 544 000a 1B68     		ldr	r3, [r3]
 545              		.loc 1 627 12
 546 000c 9B6B     		ldr	r3, [r3, #56]
 547 000e FB60     		str	r3, [r7, #12]
 628:Drivers/STM32L4xx_HAL_Driver/Src/stm32l4xx_hal_ltdc.c ****   uint32_t itsources = READ_REG(hltdc->Instance->IER);
 548              		.loc 1 628 24
 549 0010 7B68     		ldr	r3, [r7, #4]
 550 0012 1B68     		ldr	r3, [r3]
 551              		.loc 1 628 12
 552 0014 5B6B     		ldr	r3, [r3, #52]
 553 0016 BB60     		str	r3, [r7, #8]
 629:Drivers/STM32L4xx_HAL_Driver/Src/stm32l4xx_hal_ltdc.c **** 
 630:Drivers/STM32L4xx_HAL_Driver/Src/stm32l4xx_hal_ltdc.c ****   /* Transfer Error Interrupt management ***************************************/
 631:Drivers/STM32L4xx_HAL_Driver/Src/stm32l4xx_hal_ltdc.c ****   if (((isrflags & LTDC_ISR_TERRIF) != 0U) && ((itsources & LTDC_IER_TERRIE) != 0U))
 554              		.loc 1 631 18
 555 0018 FB68     		ldr	r3, [r7, #12]
 556 001a 03F00403 		and	r3, r3, #4
 557              		.loc 1 631 6
 558 001e 002B     		cmp	r3, #0
 559 0020 21D0     		beq	.L17
 560              		.loc 1 631 59 discriminator 1
 561 0022 BB68     		ldr	r3, [r7, #8]
 562 0024 03F00403 		and	r3, r3, #4
 563              		.loc 1 631 44 discriminator 1
 564 0028 002B     		cmp	r3, #0
 565 002a 1CD0     		beq	.L17
 632:Drivers/STM32L4xx_HAL_Driver/Src/stm32l4xx_hal_ltdc.c ****   {
 633:Drivers/STM32L4xx_HAL_Driver/Src/stm32l4xx_hal_ltdc.c ****     /* Disable the transfer Error interrupt */
 634:Drivers/STM32L4xx_HAL_Driver/Src/stm32l4xx_hal_ltdc.c ****     __HAL_LTDC_DISABLE_IT(hltdc, LTDC_IT_TE);
 566              		.loc 1 634 5
 567 002c 7B68     		ldr	r3, [r7, #4]
ARM GAS  C:\Users\Morroway\AppData\Local\Temp\cclk5axT.s 			page 22


 568 002e 1B68     		ldr	r3, [r3]
 569 0030 5A6B     		ldr	r2, [r3, #52]
 570 0032 7B68     		ldr	r3, [r7, #4]
 571 0034 1B68     		ldr	r3, [r3]
 572 0036 22F00402 		bic	r2, r2, #4
 573 003a 5A63     		str	r2, [r3, #52]
 635:Drivers/STM32L4xx_HAL_Driver/Src/stm32l4xx_hal_ltdc.c **** 
 636:Drivers/STM32L4xx_HAL_Driver/Src/stm32l4xx_hal_ltdc.c ****     /* Clear the transfer error flag */
 637:Drivers/STM32L4xx_HAL_Driver/Src/stm32l4xx_hal_ltdc.c ****     __HAL_LTDC_CLEAR_FLAG(hltdc, LTDC_FLAG_TE);
 574              		.loc 1 637 5
 575 003c 7B68     		ldr	r3, [r7, #4]
 576 003e 1B68     		ldr	r3, [r3]
 577 0040 0422     		movs	r2, #4
 578 0042 DA63     		str	r2, [r3, #60]
 638:Drivers/STM32L4xx_HAL_Driver/Src/stm32l4xx_hal_ltdc.c **** 
 639:Drivers/STM32L4xx_HAL_Driver/Src/stm32l4xx_hal_ltdc.c ****     /* Update error code */
 640:Drivers/STM32L4xx_HAL_Driver/Src/stm32l4xx_hal_ltdc.c ****     hltdc->ErrorCode |= HAL_LTDC_ERROR_TE;
 579              		.loc 1 640 22
 580 0044 7B68     		ldr	r3, [r7, #4]
 581 0046 1B6F     		ldr	r3, [r3, #112]
 582 0048 43F00102 		orr	r2, r3, #1
 583 004c 7B68     		ldr	r3, [r7, #4]
 584 004e 1A67     		str	r2, [r3, #112]
 641:Drivers/STM32L4xx_HAL_Driver/Src/stm32l4xx_hal_ltdc.c **** 
 642:Drivers/STM32L4xx_HAL_Driver/Src/stm32l4xx_hal_ltdc.c ****     /* Change LTDC state */
 643:Drivers/STM32L4xx_HAL_Driver/Src/stm32l4xx_hal_ltdc.c ****     hltdc->State = HAL_LTDC_STATE_ERROR;
 585              		.loc 1 643 18
 586 0050 7B68     		ldr	r3, [r7, #4]
 587 0052 0422     		movs	r2, #4
 588 0054 83F86D20 		strb	r2, [r3, #109]
 644:Drivers/STM32L4xx_HAL_Driver/Src/stm32l4xx_hal_ltdc.c **** 
 645:Drivers/STM32L4xx_HAL_Driver/Src/stm32l4xx_hal_ltdc.c ****     /* Process unlocked */
 646:Drivers/STM32L4xx_HAL_Driver/Src/stm32l4xx_hal_ltdc.c ****     __HAL_UNLOCK(hltdc);
 589              		.loc 1 646 5
 590 0058 7B68     		ldr	r3, [r7, #4]
 591 005a 0022     		movs	r2, #0
 592 005c 83F86C20 		strb	r2, [r3, #108]
 647:Drivers/STM32L4xx_HAL_Driver/Src/stm32l4xx_hal_ltdc.c **** 
 648:Drivers/STM32L4xx_HAL_Driver/Src/stm32l4xx_hal_ltdc.c ****     /* Transfer error Callback */
 649:Drivers/STM32L4xx_HAL_Driver/Src/stm32l4xx_hal_ltdc.c **** #if (USE_HAL_LTDC_REGISTER_CALLBACKS == 1)
 650:Drivers/STM32L4xx_HAL_Driver/Src/stm32l4xx_hal_ltdc.c ****     /*Call registered error callback*/
 651:Drivers/STM32L4xx_HAL_Driver/Src/stm32l4xx_hal_ltdc.c ****     hltdc->ErrorCallback(hltdc);
 652:Drivers/STM32L4xx_HAL_Driver/Src/stm32l4xx_hal_ltdc.c **** #else
 653:Drivers/STM32L4xx_HAL_Driver/Src/stm32l4xx_hal_ltdc.c ****     /* Call legacy error callback*/
 654:Drivers/STM32L4xx_HAL_Driver/Src/stm32l4xx_hal_ltdc.c ****     HAL_LTDC_ErrorCallback(hltdc);
 593              		.loc 1 654 5
 594 0060 7868     		ldr	r0, [r7, #4]
 595 0062 FFF7FEFF 		bl	HAL_LTDC_ErrorCallback
 596              	.L17:
 655:Drivers/STM32L4xx_HAL_Driver/Src/stm32l4xx_hal_ltdc.c **** #endif /* USE_HAL_LTDC_REGISTER_CALLBACKS */
 656:Drivers/STM32L4xx_HAL_Driver/Src/stm32l4xx_hal_ltdc.c ****   }
 657:Drivers/STM32L4xx_HAL_Driver/Src/stm32l4xx_hal_ltdc.c **** 
 658:Drivers/STM32L4xx_HAL_Driver/Src/stm32l4xx_hal_ltdc.c ****   /* FIFO underrun Interrupt management ***************************************/
 659:Drivers/STM32L4xx_HAL_Driver/Src/stm32l4xx_hal_ltdc.c ****   if (((isrflags & LTDC_ISR_FUIF) != 0U) && ((itsources & LTDC_IER_FUIE) != 0U))
 597              		.loc 1 659 18
 598 0066 FB68     		ldr	r3, [r7, #12]
 599 0068 03F00203 		and	r3, r3, #2
ARM GAS  C:\Users\Morroway\AppData\Local\Temp\cclk5axT.s 			page 23


 600              		.loc 1 659 6
 601 006c 002B     		cmp	r3, #0
 602 006e 21D0     		beq	.L18
 603              		.loc 1 659 57 discriminator 1
 604 0070 BB68     		ldr	r3, [r7, #8]
 605 0072 03F00203 		and	r3, r3, #2
 606              		.loc 1 659 42 discriminator 1
 607 0076 002B     		cmp	r3, #0
 608 0078 1CD0     		beq	.L18
 660:Drivers/STM32L4xx_HAL_Driver/Src/stm32l4xx_hal_ltdc.c ****   {
 661:Drivers/STM32L4xx_HAL_Driver/Src/stm32l4xx_hal_ltdc.c ****     /* Disable the FIFO underrun interrupt */
 662:Drivers/STM32L4xx_HAL_Driver/Src/stm32l4xx_hal_ltdc.c ****     __HAL_LTDC_DISABLE_IT(hltdc, LTDC_IT_FU);
 609              		.loc 1 662 5
 610 007a 7B68     		ldr	r3, [r7, #4]
 611 007c 1B68     		ldr	r3, [r3]
 612 007e 5A6B     		ldr	r2, [r3, #52]
 613 0080 7B68     		ldr	r3, [r7, #4]
 614 0082 1B68     		ldr	r3, [r3]
 615 0084 22F00202 		bic	r2, r2, #2
 616 0088 5A63     		str	r2, [r3, #52]
 663:Drivers/STM32L4xx_HAL_Driver/Src/stm32l4xx_hal_ltdc.c **** 
 664:Drivers/STM32L4xx_HAL_Driver/Src/stm32l4xx_hal_ltdc.c ****     /* Clear the FIFO underrun flag */
 665:Drivers/STM32L4xx_HAL_Driver/Src/stm32l4xx_hal_ltdc.c ****     __HAL_LTDC_CLEAR_FLAG(hltdc, LTDC_FLAG_FU);
 617              		.loc 1 665 5
 618 008a 7B68     		ldr	r3, [r7, #4]
 619 008c 1B68     		ldr	r3, [r3]
 620 008e 0222     		movs	r2, #2
 621 0090 DA63     		str	r2, [r3, #60]
 666:Drivers/STM32L4xx_HAL_Driver/Src/stm32l4xx_hal_ltdc.c **** 
 667:Drivers/STM32L4xx_HAL_Driver/Src/stm32l4xx_hal_ltdc.c ****     /* Update error code */
 668:Drivers/STM32L4xx_HAL_Driver/Src/stm32l4xx_hal_ltdc.c ****     hltdc->ErrorCode |= HAL_LTDC_ERROR_FU;
 622              		.loc 1 668 22
 623 0092 7B68     		ldr	r3, [r7, #4]
 624 0094 1B6F     		ldr	r3, [r3, #112]
 625 0096 43F00202 		orr	r2, r3, #2
 626 009a 7B68     		ldr	r3, [r7, #4]
 627 009c 1A67     		str	r2, [r3, #112]
 669:Drivers/STM32L4xx_HAL_Driver/Src/stm32l4xx_hal_ltdc.c **** 
 670:Drivers/STM32L4xx_HAL_Driver/Src/stm32l4xx_hal_ltdc.c ****     /* Change LTDC state */
 671:Drivers/STM32L4xx_HAL_Driver/Src/stm32l4xx_hal_ltdc.c ****     hltdc->State = HAL_LTDC_STATE_ERROR;
 628              		.loc 1 671 18
 629 009e 7B68     		ldr	r3, [r7, #4]
 630 00a0 0422     		movs	r2, #4
 631 00a2 83F86D20 		strb	r2, [r3, #109]
 672:Drivers/STM32L4xx_HAL_Driver/Src/stm32l4xx_hal_ltdc.c **** 
 673:Drivers/STM32L4xx_HAL_Driver/Src/stm32l4xx_hal_ltdc.c ****     /* Process unlocked */
 674:Drivers/STM32L4xx_HAL_Driver/Src/stm32l4xx_hal_ltdc.c ****     __HAL_UNLOCK(hltdc);
 632              		.loc 1 674 5
 633 00a6 7B68     		ldr	r3, [r7, #4]
 634 00a8 0022     		movs	r2, #0
 635 00aa 83F86C20 		strb	r2, [r3, #108]
 675:Drivers/STM32L4xx_HAL_Driver/Src/stm32l4xx_hal_ltdc.c **** 
 676:Drivers/STM32L4xx_HAL_Driver/Src/stm32l4xx_hal_ltdc.c ****     /* Transfer error Callback */
 677:Drivers/STM32L4xx_HAL_Driver/Src/stm32l4xx_hal_ltdc.c **** #if (USE_HAL_LTDC_REGISTER_CALLBACKS == 1)
 678:Drivers/STM32L4xx_HAL_Driver/Src/stm32l4xx_hal_ltdc.c ****     /*Call registered error callback*/
 679:Drivers/STM32L4xx_HAL_Driver/Src/stm32l4xx_hal_ltdc.c ****     hltdc->ErrorCallback(hltdc);
 680:Drivers/STM32L4xx_HAL_Driver/Src/stm32l4xx_hal_ltdc.c **** #else
ARM GAS  C:\Users\Morroway\AppData\Local\Temp\cclk5axT.s 			page 24


 681:Drivers/STM32L4xx_HAL_Driver/Src/stm32l4xx_hal_ltdc.c ****     /* Call legacy error callback*/
 682:Drivers/STM32L4xx_HAL_Driver/Src/stm32l4xx_hal_ltdc.c ****     HAL_LTDC_ErrorCallback(hltdc);
 636              		.loc 1 682 5
 637 00ae 7868     		ldr	r0, [r7, #4]
 638 00b0 FFF7FEFF 		bl	HAL_LTDC_ErrorCallback
 639              	.L18:
 683:Drivers/STM32L4xx_HAL_Driver/Src/stm32l4xx_hal_ltdc.c **** #endif /* USE_HAL_LTDC_REGISTER_CALLBACKS */
 684:Drivers/STM32L4xx_HAL_Driver/Src/stm32l4xx_hal_ltdc.c ****   }
 685:Drivers/STM32L4xx_HAL_Driver/Src/stm32l4xx_hal_ltdc.c **** 
 686:Drivers/STM32L4xx_HAL_Driver/Src/stm32l4xx_hal_ltdc.c ****   /* Line Interrupt management ************************************************/
 687:Drivers/STM32L4xx_HAL_Driver/Src/stm32l4xx_hal_ltdc.c ****   if (((isrflags & LTDC_ISR_LIF) != 0U) && ((itsources & LTDC_IER_LIE) != 0U))
 640              		.loc 1 687 18
 641 00b4 FB68     		ldr	r3, [r7, #12]
 642 00b6 03F00103 		and	r3, r3, #1
 643              		.loc 1 687 6
 644 00ba 002B     		cmp	r3, #0
 645 00bc 1BD0     		beq	.L19
 646              		.loc 1 687 56 discriminator 1
 647 00be BB68     		ldr	r3, [r7, #8]
 648 00c0 03F00103 		and	r3, r3, #1
 649              		.loc 1 687 41 discriminator 1
 650 00c4 002B     		cmp	r3, #0
 651 00c6 16D0     		beq	.L19
 688:Drivers/STM32L4xx_HAL_Driver/Src/stm32l4xx_hal_ltdc.c ****   {
 689:Drivers/STM32L4xx_HAL_Driver/Src/stm32l4xx_hal_ltdc.c ****     /* Disable the Line interrupt */
 690:Drivers/STM32L4xx_HAL_Driver/Src/stm32l4xx_hal_ltdc.c ****     __HAL_LTDC_DISABLE_IT(hltdc, LTDC_IT_LI);
 652              		.loc 1 690 5
 653 00c8 7B68     		ldr	r3, [r7, #4]
 654 00ca 1B68     		ldr	r3, [r3]
 655 00cc 5A6B     		ldr	r2, [r3, #52]
 656 00ce 7B68     		ldr	r3, [r7, #4]
 657 00d0 1B68     		ldr	r3, [r3]
 658 00d2 22F00102 		bic	r2, r2, #1
 659 00d6 5A63     		str	r2, [r3, #52]
 691:Drivers/STM32L4xx_HAL_Driver/Src/stm32l4xx_hal_ltdc.c **** 
 692:Drivers/STM32L4xx_HAL_Driver/Src/stm32l4xx_hal_ltdc.c ****     /* Clear the Line interrupt flag */
 693:Drivers/STM32L4xx_HAL_Driver/Src/stm32l4xx_hal_ltdc.c ****     __HAL_LTDC_CLEAR_FLAG(hltdc, LTDC_FLAG_LI);
 660              		.loc 1 693 5
 661 00d8 7B68     		ldr	r3, [r7, #4]
 662 00da 1B68     		ldr	r3, [r3]
 663 00dc 0122     		movs	r2, #1
 664 00de DA63     		str	r2, [r3, #60]
 694:Drivers/STM32L4xx_HAL_Driver/Src/stm32l4xx_hal_ltdc.c **** 
 695:Drivers/STM32L4xx_HAL_Driver/Src/stm32l4xx_hal_ltdc.c ****     /* Change LTDC state */
 696:Drivers/STM32L4xx_HAL_Driver/Src/stm32l4xx_hal_ltdc.c ****     hltdc->State = HAL_LTDC_STATE_READY;
 665              		.loc 1 696 18
 666 00e0 7B68     		ldr	r3, [r7, #4]
 667 00e2 0122     		movs	r2, #1
 668 00e4 83F86D20 		strb	r2, [r3, #109]
 697:Drivers/STM32L4xx_HAL_Driver/Src/stm32l4xx_hal_ltdc.c **** 
 698:Drivers/STM32L4xx_HAL_Driver/Src/stm32l4xx_hal_ltdc.c ****     /* Process unlocked */
 699:Drivers/STM32L4xx_HAL_Driver/Src/stm32l4xx_hal_ltdc.c ****     __HAL_UNLOCK(hltdc);
 669              		.loc 1 699 5
 670 00e8 7B68     		ldr	r3, [r7, #4]
 671 00ea 0022     		movs	r2, #0
 672 00ec 83F86C20 		strb	r2, [r3, #108]
 700:Drivers/STM32L4xx_HAL_Driver/Src/stm32l4xx_hal_ltdc.c **** 
ARM GAS  C:\Users\Morroway\AppData\Local\Temp\cclk5axT.s 			page 25


 701:Drivers/STM32L4xx_HAL_Driver/Src/stm32l4xx_hal_ltdc.c ****     /* Line interrupt Callback */
 702:Drivers/STM32L4xx_HAL_Driver/Src/stm32l4xx_hal_ltdc.c **** #if (USE_HAL_LTDC_REGISTER_CALLBACKS == 1)
 703:Drivers/STM32L4xx_HAL_Driver/Src/stm32l4xx_hal_ltdc.c ****     /*Call registered Line Event callback */
 704:Drivers/STM32L4xx_HAL_Driver/Src/stm32l4xx_hal_ltdc.c ****     hltdc->LineEventCallback(hltdc);
 705:Drivers/STM32L4xx_HAL_Driver/Src/stm32l4xx_hal_ltdc.c **** #else
 706:Drivers/STM32L4xx_HAL_Driver/Src/stm32l4xx_hal_ltdc.c ****     /*Call Legacy Line Event callback */
 707:Drivers/STM32L4xx_HAL_Driver/Src/stm32l4xx_hal_ltdc.c ****     HAL_LTDC_LineEventCallback(hltdc);
 673              		.loc 1 707 5
 674 00f0 7868     		ldr	r0, [r7, #4]
 675 00f2 FFF7FEFF 		bl	HAL_LTDC_LineEventCallback
 676              	.L19:
 708:Drivers/STM32L4xx_HAL_Driver/Src/stm32l4xx_hal_ltdc.c **** #endif /* USE_HAL_LTDC_REGISTER_CALLBACKS */
 709:Drivers/STM32L4xx_HAL_Driver/Src/stm32l4xx_hal_ltdc.c ****   }
 710:Drivers/STM32L4xx_HAL_Driver/Src/stm32l4xx_hal_ltdc.c **** 
 711:Drivers/STM32L4xx_HAL_Driver/Src/stm32l4xx_hal_ltdc.c ****   /* Register reload Interrupt management ***************************************/
 712:Drivers/STM32L4xx_HAL_Driver/Src/stm32l4xx_hal_ltdc.c ****   if (((isrflags & LTDC_ISR_RRIF) != 0U) && ((itsources & LTDC_IER_RRIE) != 0U))
 677              		.loc 1 712 18
 678 00f6 FB68     		ldr	r3, [r7, #12]
 679 00f8 03F00803 		and	r3, r3, #8
 680              		.loc 1 712 6
 681 00fc 002B     		cmp	r3, #0
 682 00fe 1BD0     		beq	.L21
 683              		.loc 1 712 57 discriminator 1
 684 0100 BB68     		ldr	r3, [r7, #8]
 685 0102 03F00803 		and	r3, r3, #8
 686              		.loc 1 712 42 discriminator 1
 687 0106 002B     		cmp	r3, #0
 688 0108 16D0     		beq	.L21
 713:Drivers/STM32L4xx_HAL_Driver/Src/stm32l4xx_hal_ltdc.c ****   {
 714:Drivers/STM32L4xx_HAL_Driver/Src/stm32l4xx_hal_ltdc.c ****     /* Disable the register reload interrupt */
 715:Drivers/STM32L4xx_HAL_Driver/Src/stm32l4xx_hal_ltdc.c ****     __HAL_LTDC_DISABLE_IT(hltdc, LTDC_IT_RR);
 689              		.loc 1 715 5
 690 010a 7B68     		ldr	r3, [r7, #4]
 691 010c 1B68     		ldr	r3, [r3]
 692 010e 5A6B     		ldr	r2, [r3, #52]
 693 0110 7B68     		ldr	r3, [r7, #4]
 694 0112 1B68     		ldr	r3, [r3]
 695 0114 22F00802 		bic	r2, r2, #8
 696 0118 5A63     		str	r2, [r3, #52]
 716:Drivers/STM32L4xx_HAL_Driver/Src/stm32l4xx_hal_ltdc.c **** 
 717:Drivers/STM32L4xx_HAL_Driver/Src/stm32l4xx_hal_ltdc.c ****     /* Clear the register reload flag */
 718:Drivers/STM32L4xx_HAL_Driver/Src/stm32l4xx_hal_ltdc.c ****     __HAL_LTDC_CLEAR_FLAG(hltdc, LTDC_FLAG_RR);
 697              		.loc 1 718 5
 698 011a 7B68     		ldr	r3, [r7, #4]
 699 011c 1B68     		ldr	r3, [r3]
 700 011e 0822     		movs	r2, #8
 701 0120 DA63     		str	r2, [r3, #60]
 719:Drivers/STM32L4xx_HAL_Driver/Src/stm32l4xx_hal_ltdc.c **** 
 720:Drivers/STM32L4xx_HAL_Driver/Src/stm32l4xx_hal_ltdc.c ****     /* Change LTDC state */
 721:Drivers/STM32L4xx_HAL_Driver/Src/stm32l4xx_hal_ltdc.c ****     hltdc->State = HAL_LTDC_STATE_READY;
 702              		.loc 1 721 18
 703 0122 7B68     		ldr	r3, [r7, #4]
 704 0124 0122     		movs	r2, #1
 705 0126 83F86D20 		strb	r2, [r3, #109]
 722:Drivers/STM32L4xx_HAL_Driver/Src/stm32l4xx_hal_ltdc.c **** 
 723:Drivers/STM32L4xx_HAL_Driver/Src/stm32l4xx_hal_ltdc.c ****     /* Process unlocked */
 724:Drivers/STM32L4xx_HAL_Driver/Src/stm32l4xx_hal_ltdc.c ****     __HAL_UNLOCK(hltdc);
ARM GAS  C:\Users\Morroway\AppData\Local\Temp\cclk5axT.s 			page 26


 706              		.loc 1 724 5
 707 012a 7B68     		ldr	r3, [r7, #4]
 708 012c 0022     		movs	r2, #0
 709 012e 83F86C20 		strb	r2, [r3, #108]
 725:Drivers/STM32L4xx_HAL_Driver/Src/stm32l4xx_hal_ltdc.c **** 
 726:Drivers/STM32L4xx_HAL_Driver/Src/stm32l4xx_hal_ltdc.c ****     /* Reload interrupt Callback */
 727:Drivers/STM32L4xx_HAL_Driver/Src/stm32l4xx_hal_ltdc.c **** #if (USE_HAL_LTDC_REGISTER_CALLBACKS == 1)
 728:Drivers/STM32L4xx_HAL_Driver/Src/stm32l4xx_hal_ltdc.c ****     /*Call registered reload Event callback */
 729:Drivers/STM32L4xx_HAL_Driver/Src/stm32l4xx_hal_ltdc.c ****     hltdc->ReloadEventCallback(hltdc);
 730:Drivers/STM32L4xx_HAL_Driver/Src/stm32l4xx_hal_ltdc.c **** #else
 731:Drivers/STM32L4xx_HAL_Driver/Src/stm32l4xx_hal_ltdc.c ****     /*Call Legacy Reload Event callback */
 732:Drivers/STM32L4xx_HAL_Driver/Src/stm32l4xx_hal_ltdc.c ****     HAL_LTDC_ReloadEventCallback(hltdc);
 710              		.loc 1 732 5
 711 0132 7868     		ldr	r0, [r7, #4]
 712 0134 FFF7FEFF 		bl	HAL_LTDC_ReloadEventCallback
 713              	.L21:
 733:Drivers/STM32L4xx_HAL_Driver/Src/stm32l4xx_hal_ltdc.c **** #endif /* USE_HAL_LTDC_REGISTER_CALLBACKS */
 734:Drivers/STM32L4xx_HAL_Driver/Src/stm32l4xx_hal_ltdc.c ****   }
 735:Drivers/STM32L4xx_HAL_Driver/Src/stm32l4xx_hal_ltdc.c **** }
 714              		.loc 1 735 1
 715 0138 00BF     		nop
 716 013a 1037     		adds	r7, r7, #16
 717              		.cfi_def_cfa_offset 8
 718 013c BD46     		mov	sp, r7
 719              		.cfi_def_cfa_register 13
 720              		@ sp needed
 721 013e 80BD     		pop	{r7, pc}
 722              		.cfi_endproc
 723              	.LFE325:
 725              		.section	.text.HAL_LTDC_ErrorCallback,"ax",%progbits
 726              		.align	1
 727              		.weak	HAL_LTDC_ErrorCallback
 728              		.syntax unified
 729              		.thumb
 730              		.thumb_func
 732              	HAL_LTDC_ErrorCallback:
 733              	.LFB326:
 736:Drivers/STM32L4xx_HAL_Driver/Src/stm32l4xx_hal_ltdc.c **** 
 737:Drivers/STM32L4xx_HAL_Driver/Src/stm32l4xx_hal_ltdc.c **** /**
 738:Drivers/STM32L4xx_HAL_Driver/Src/stm32l4xx_hal_ltdc.c ****   * @brief  Error LTDC callback.
 739:Drivers/STM32L4xx_HAL_Driver/Src/stm32l4xx_hal_ltdc.c ****   * @param  hltdc  pointer to a LTDC_HandleTypeDef structure that contains
 740:Drivers/STM32L4xx_HAL_Driver/Src/stm32l4xx_hal_ltdc.c ****   *                the configuration information for the LTDC.
 741:Drivers/STM32L4xx_HAL_Driver/Src/stm32l4xx_hal_ltdc.c ****   * @retval None
 742:Drivers/STM32L4xx_HAL_Driver/Src/stm32l4xx_hal_ltdc.c ****   */
 743:Drivers/STM32L4xx_HAL_Driver/Src/stm32l4xx_hal_ltdc.c **** __weak void HAL_LTDC_ErrorCallback(LTDC_HandleTypeDef *hltdc)
 744:Drivers/STM32L4xx_HAL_Driver/Src/stm32l4xx_hal_ltdc.c **** {
 734              		.loc 1 744 1
 735              		.cfi_startproc
 736              		@ args = 0, pretend = 0, frame = 8
 737              		@ frame_needed = 1, uses_anonymous_args = 0
 738              		@ link register save eliminated.
 739 0000 80B4     		push	{r7}
 740              		.cfi_def_cfa_offset 4
 741              		.cfi_offset 7, -4
 742 0002 83B0     		sub	sp, sp, #12
 743              		.cfi_def_cfa_offset 16
 744 0004 00AF     		add	r7, sp, #0
ARM GAS  C:\Users\Morroway\AppData\Local\Temp\cclk5axT.s 			page 27


 745              		.cfi_def_cfa_register 7
 746 0006 7860     		str	r0, [r7, #4]
 745:Drivers/STM32L4xx_HAL_Driver/Src/stm32l4xx_hal_ltdc.c ****   /* Prevent unused argument(s) compilation warning */
 746:Drivers/STM32L4xx_HAL_Driver/Src/stm32l4xx_hal_ltdc.c ****   UNUSED(hltdc);
 747:Drivers/STM32L4xx_HAL_Driver/Src/stm32l4xx_hal_ltdc.c **** 
 748:Drivers/STM32L4xx_HAL_Driver/Src/stm32l4xx_hal_ltdc.c ****   /* NOTE : This function should not be modified, when the callback is needed,
 749:Drivers/STM32L4xx_HAL_Driver/Src/stm32l4xx_hal_ltdc.c ****             the HAL_LTDC_ErrorCallback could be implemented in the user file
 750:Drivers/STM32L4xx_HAL_Driver/Src/stm32l4xx_hal_ltdc.c ****    */
 751:Drivers/STM32L4xx_HAL_Driver/Src/stm32l4xx_hal_ltdc.c **** }
 747              		.loc 1 751 1
 748 0008 00BF     		nop
 749 000a 0C37     		adds	r7, r7, #12
 750              		.cfi_def_cfa_offset 4
 751 000c BD46     		mov	sp, r7
 752              		.cfi_def_cfa_register 13
 753              		@ sp needed
 754 000e 5DF8047B 		ldr	r7, [sp], #4
 755              		.cfi_restore 7
 756              		.cfi_def_cfa_offset 0
 757 0012 7047     		bx	lr
 758              		.cfi_endproc
 759              	.LFE326:
 761              		.section	.text.HAL_LTDC_LineEventCallback,"ax",%progbits
 762              		.align	1
 763              		.weak	HAL_LTDC_LineEventCallback
 764              		.syntax unified
 765              		.thumb
 766              		.thumb_func
 768              	HAL_LTDC_LineEventCallback:
 769              	.LFB327:
 752:Drivers/STM32L4xx_HAL_Driver/Src/stm32l4xx_hal_ltdc.c **** 
 753:Drivers/STM32L4xx_HAL_Driver/Src/stm32l4xx_hal_ltdc.c **** /**
 754:Drivers/STM32L4xx_HAL_Driver/Src/stm32l4xx_hal_ltdc.c ****   * @brief  Line Event callback.
 755:Drivers/STM32L4xx_HAL_Driver/Src/stm32l4xx_hal_ltdc.c ****   * @param  hltdc  pointer to a LTDC_HandleTypeDef structure that contains
 756:Drivers/STM32L4xx_HAL_Driver/Src/stm32l4xx_hal_ltdc.c ****   *                the configuration information for the LTDC.
 757:Drivers/STM32L4xx_HAL_Driver/Src/stm32l4xx_hal_ltdc.c ****   * @retval None
 758:Drivers/STM32L4xx_HAL_Driver/Src/stm32l4xx_hal_ltdc.c ****   */
 759:Drivers/STM32L4xx_HAL_Driver/Src/stm32l4xx_hal_ltdc.c **** __weak void HAL_LTDC_LineEventCallback(LTDC_HandleTypeDef *hltdc)
 760:Drivers/STM32L4xx_HAL_Driver/Src/stm32l4xx_hal_ltdc.c **** {
 770              		.loc 1 760 1
 771              		.cfi_startproc
 772              		@ args = 0, pretend = 0, frame = 8
 773              		@ frame_needed = 1, uses_anonymous_args = 0
 774              		@ link register save eliminated.
 775 0000 80B4     		push	{r7}
 776              		.cfi_def_cfa_offset 4
 777              		.cfi_offset 7, -4
 778 0002 83B0     		sub	sp, sp, #12
 779              		.cfi_def_cfa_offset 16
 780 0004 00AF     		add	r7, sp, #0
 781              		.cfi_def_cfa_register 7
 782 0006 7860     		str	r0, [r7, #4]
 761:Drivers/STM32L4xx_HAL_Driver/Src/stm32l4xx_hal_ltdc.c ****   /* Prevent unused argument(s) compilation warning */
 762:Drivers/STM32L4xx_HAL_Driver/Src/stm32l4xx_hal_ltdc.c ****   UNUSED(hltdc);
 763:Drivers/STM32L4xx_HAL_Driver/Src/stm32l4xx_hal_ltdc.c **** 
 764:Drivers/STM32L4xx_HAL_Driver/Src/stm32l4xx_hal_ltdc.c ****   /* NOTE : This function should not be modified, when the callback is needed,
 765:Drivers/STM32L4xx_HAL_Driver/Src/stm32l4xx_hal_ltdc.c ****             the HAL_LTDC_LineEventCallback could be implemented in the user file
ARM GAS  C:\Users\Morroway\AppData\Local\Temp\cclk5axT.s 			page 28


 766:Drivers/STM32L4xx_HAL_Driver/Src/stm32l4xx_hal_ltdc.c ****    */
 767:Drivers/STM32L4xx_HAL_Driver/Src/stm32l4xx_hal_ltdc.c **** }
 783              		.loc 1 767 1
 784 0008 00BF     		nop
 785 000a 0C37     		adds	r7, r7, #12
 786              		.cfi_def_cfa_offset 4
 787 000c BD46     		mov	sp, r7
 788              		.cfi_def_cfa_register 13
 789              		@ sp needed
 790 000e 5DF8047B 		ldr	r7, [sp], #4
 791              		.cfi_restore 7
 792              		.cfi_def_cfa_offset 0
 793 0012 7047     		bx	lr
 794              		.cfi_endproc
 795              	.LFE327:
 797              		.section	.text.HAL_LTDC_ReloadEventCallback,"ax",%progbits
 798              		.align	1
 799              		.weak	HAL_LTDC_ReloadEventCallback
 800              		.syntax unified
 801              		.thumb
 802              		.thumb_func
 804              	HAL_LTDC_ReloadEventCallback:
 805              	.LFB328:
 768:Drivers/STM32L4xx_HAL_Driver/Src/stm32l4xx_hal_ltdc.c **** 
 769:Drivers/STM32L4xx_HAL_Driver/Src/stm32l4xx_hal_ltdc.c **** /**
 770:Drivers/STM32L4xx_HAL_Driver/Src/stm32l4xx_hal_ltdc.c ****   * @brief  Reload Event callback.
 771:Drivers/STM32L4xx_HAL_Driver/Src/stm32l4xx_hal_ltdc.c ****   * @param  hltdc  pointer to a LTDC_HandleTypeDef structure that contains
 772:Drivers/STM32L4xx_HAL_Driver/Src/stm32l4xx_hal_ltdc.c ****   *                the configuration information for the LTDC.
 773:Drivers/STM32L4xx_HAL_Driver/Src/stm32l4xx_hal_ltdc.c ****   * @retval None
 774:Drivers/STM32L4xx_HAL_Driver/Src/stm32l4xx_hal_ltdc.c ****   */
 775:Drivers/STM32L4xx_HAL_Driver/Src/stm32l4xx_hal_ltdc.c **** __weak void HAL_LTDC_ReloadEventCallback(LTDC_HandleTypeDef *hltdc)
 776:Drivers/STM32L4xx_HAL_Driver/Src/stm32l4xx_hal_ltdc.c **** {
 806              		.loc 1 776 1
 807              		.cfi_startproc
 808              		@ args = 0, pretend = 0, frame = 8
 809              		@ frame_needed = 1, uses_anonymous_args = 0
 810              		@ link register save eliminated.
 811 0000 80B4     		push	{r7}
 812              		.cfi_def_cfa_offset 4
 813              		.cfi_offset 7, -4
 814 0002 83B0     		sub	sp, sp, #12
 815              		.cfi_def_cfa_offset 16
 816 0004 00AF     		add	r7, sp, #0
 817              		.cfi_def_cfa_register 7
 818 0006 7860     		str	r0, [r7, #4]
 777:Drivers/STM32L4xx_HAL_Driver/Src/stm32l4xx_hal_ltdc.c ****   /* Prevent unused argument(s) compilation warning */
 778:Drivers/STM32L4xx_HAL_Driver/Src/stm32l4xx_hal_ltdc.c ****   UNUSED(hltdc);
 779:Drivers/STM32L4xx_HAL_Driver/Src/stm32l4xx_hal_ltdc.c **** 
 780:Drivers/STM32L4xx_HAL_Driver/Src/stm32l4xx_hal_ltdc.c ****   /* NOTE : This function should not be modified, when the callback is needed,
 781:Drivers/STM32L4xx_HAL_Driver/Src/stm32l4xx_hal_ltdc.c ****             the HAL_LTDC_ReloadEvenCallback could be implemented in the user file
 782:Drivers/STM32L4xx_HAL_Driver/Src/stm32l4xx_hal_ltdc.c ****    */
 783:Drivers/STM32L4xx_HAL_Driver/Src/stm32l4xx_hal_ltdc.c **** }
 819              		.loc 1 783 1
 820 0008 00BF     		nop
 821 000a 0C37     		adds	r7, r7, #12
 822              		.cfi_def_cfa_offset 4
 823 000c BD46     		mov	sp, r7
ARM GAS  C:\Users\Morroway\AppData\Local\Temp\cclk5axT.s 			page 29


 824              		.cfi_def_cfa_register 13
 825              		@ sp needed
 826 000e 5DF8047B 		ldr	r7, [sp], #4
 827              		.cfi_restore 7
 828              		.cfi_def_cfa_offset 0
 829 0012 7047     		bx	lr
 830              		.cfi_endproc
 831              	.LFE328:
 833              		.section	.text.HAL_LTDC_ConfigLayer,"ax",%progbits
 834              		.align	1
 835              		.global	HAL_LTDC_ConfigLayer
 836              		.syntax unified
 837              		.thumb
 838              		.thumb_func
 840              	HAL_LTDC_ConfigLayer:
 841              	.LFB329:
 784:Drivers/STM32L4xx_HAL_Driver/Src/stm32l4xx_hal_ltdc.c **** 
 785:Drivers/STM32L4xx_HAL_Driver/Src/stm32l4xx_hal_ltdc.c **** /**
 786:Drivers/STM32L4xx_HAL_Driver/Src/stm32l4xx_hal_ltdc.c ****   * @}
 787:Drivers/STM32L4xx_HAL_Driver/Src/stm32l4xx_hal_ltdc.c ****   */
 788:Drivers/STM32L4xx_HAL_Driver/Src/stm32l4xx_hal_ltdc.c **** 
 789:Drivers/STM32L4xx_HAL_Driver/Src/stm32l4xx_hal_ltdc.c **** /** @defgroup LTDC_Exported_Functions_Group3 Peripheral Control functions
 790:Drivers/STM32L4xx_HAL_Driver/Src/stm32l4xx_hal_ltdc.c ****   *  @brief    Peripheral Control functions
 791:Drivers/STM32L4xx_HAL_Driver/Src/stm32l4xx_hal_ltdc.c ****   *
 792:Drivers/STM32L4xx_HAL_Driver/Src/stm32l4xx_hal_ltdc.c **** @verbatim
 793:Drivers/STM32L4xx_HAL_Driver/Src/stm32l4xx_hal_ltdc.c ****  ===============================================================================
 794:Drivers/STM32L4xx_HAL_Driver/Src/stm32l4xx_hal_ltdc.c ****                     ##### Peripheral Control functions #####
 795:Drivers/STM32L4xx_HAL_Driver/Src/stm32l4xx_hal_ltdc.c ****  ===============================================================================
 796:Drivers/STM32L4xx_HAL_Driver/Src/stm32l4xx_hal_ltdc.c ****     [..]  This section provides functions allowing to:
 797:Drivers/STM32L4xx_HAL_Driver/Src/stm32l4xx_hal_ltdc.c ****       (+) Configure the LTDC foreground or/and background parameters.
 798:Drivers/STM32L4xx_HAL_Driver/Src/stm32l4xx_hal_ltdc.c ****       (+) Set the active layer.
 799:Drivers/STM32L4xx_HAL_Driver/Src/stm32l4xx_hal_ltdc.c ****       (+) Configure the color keying.
 800:Drivers/STM32L4xx_HAL_Driver/Src/stm32l4xx_hal_ltdc.c ****       (+) Configure the C-LUT.
 801:Drivers/STM32L4xx_HAL_Driver/Src/stm32l4xx_hal_ltdc.c ****       (+) Enable / Disable the color keying.
 802:Drivers/STM32L4xx_HAL_Driver/Src/stm32l4xx_hal_ltdc.c ****       (+) Enable / Disable the C-LUT.
 803:Drivers/STM32L4xx_HAL_Driver/Src/stm32l4xx_hal_ltdc.c ****       (+) Update the layer position.
 804:Drivers/STM32L4xx_HAL_Driver/Src/stm32l4xx_hal_ltdc.c ****       (+) Update the layer size.
 805:Drivers/STM32L4xx_HAL_Driver/Src/stm32l4xx_hal_ltdc.c ****       (+) Update pixel format on the fly.
 806:Drivers/STM32L4xx_HAL_Driver/Src/stm32l4xx_hal_ltdc.c ****       (+) Update transparency on the fly.
 807:Drivers/STM32L4xx_HAL_Driver/Src/stm32l4xx_hal_ltdc.c ****       (+) Update address on the fly.
 808:Drivers/STM32L4xx_HAL_Driver/Src/stm32l4xx_hal_ltdc.c **** 
 809:Drivers/STM32L4xx_HAL_Driver/Src/stm32l4xx_hal_ltdc.c **** @endverbatim
 810:Drivers/STM32L4xx_HAL_Driver/Src/stm32l4xx_hal_ltdc.c ****   * @{
 811:Drivers/STM32L4xx_HAL_Driver/Src/stm32l4xx_hal_ltdc.c ****   */
 812:Drivers/STM32L4xx_HAL_Driver/Src/stm32l4xx_hal_ltdc.c **** 
 813:Drivers/STM32L4xx_HAL_Driver/Src/stm32l4xx_hal_ltdc.c **** /**
 814:Drivers/STM32L4xx_HAL_Driver/Src/stm32l4xx_hal_ltdc.c ****   * @brief  Configure the LTDC Layer according to the specified
 815:Drivers/STM32L4xx_HAL_Driver/Src/stm32l4xx_hal_ltdc.c ****   *         parameters in the LTDC_InitTypeDef and create the associated handle.
 816:Drivers/STM32L4xx_HAL_Driver/Src/stm32l4xx_hal_ltdc.c ****   * @param  hltdc      pointer to a LTDC_HandleTypeDef structure that contains
 817:Drivers/STM32L4xx_HAL_Driver/Src/stm32l4xx_hal_ltdc.c ****   *                    the configuration information for the LTDC.
 818:Drivers/STM32L4xx_HAL_Driver/Src/stm32l4xx_hal_ltdc.c ****   * @param  pLayerCfg  pointer to a LTDC_LayerCfgTypeDef structure that contains
 819:Drivers/STM32L4xx_HAL_Driver/Src/stm32l4xx_hal_ltdc.c ****   *                    the configuration information for the Layer.
 820:Drivers/STM32L4xx_HAL_Driver/Src/stm32l4xx_hal_ltdc.c ****   * @param  LayerIdx  LTDC Layer index.
 821:Drivers/STM32L4xx_HAL_Driver/Src/stm32l4xx_hal_ltdc.c ****   *                    This parameter can be one of the following values:
 822:Drivers/STM32L4xx_HAL_Driver/Src/stm32l4xx_hal_ltdc.c ****   *                    LTDC_LAYER_1 (0) or LTDC_LAYER_2 (1)
 823:Drivers/STM32L4xx_HAL_Driver/Src/stm32l4xx_hal_ltdc.c ****   * @retval HAL status
 824:Drivers/STM32L4xx_HAL_Driver/Src/stm32l4xx_hal_ltdc.c ****   */
ARM GAS  C:\Users\Morroway\AppData\Local\Temp\cclk5axT.s 			page 30


 825:Drivers/STM32L4xx_HAL_Driver/Src/stm32l4xx_hal_ltdc.c **** HAL_StatusTypeDef HAL_LTDC_ConfigLayer(LTDC_HandleTypeDef *hltdc, LTDC_LayerCfgTypeDef *pLayerCfg, 
 826:Drivers/STM32L4xx_HAL_Driver/Src/stm32l4xx_hal_ltdc.c **** {
 842              		.loc 1 826 1
 843              		.cfi_startproc
 844              		@ args = 0, pretend = 0, frame = 16
 845              		@ frame_needed = 1, uses_anonymous_args = 0
 846 0000 B0B5     		push	{r4, r5, r7, lr}
 847              		.cfi_def_cfa_offset 16
 848              		.cfi_offset 4, -16
 849              		.cfi_offset 5, -12
 850              		.cfi_offset 7, -8
 851              		.cfi_offset 14, -4
 852 0002 84B0     		sub	sp, sp, #16
 853              		.cfi_def_cfa_offset 32
 854 0004 00AF     		add	r7, sp, #0
 855              		.cfi_def_cfa_register 7
 856 0006 F860     		str	r0, [r7, #12]
 857 0008 B960     		str	r1, [r7, #8]
 858 000a 7A60     		str	r2, [r7, #4]
 827:Drivers/STM32L4xx_HAL_Driver/Src/stm32l4xx_hal_ltdc.c ****   /* Check the parameters */
 828:Drivers/STM32L4xx_HAL_Driver/Src/stm32l4xx_hal_ltdc.c ****   assert_param(IS_LTDC_LAYER(LayerIdx));
 829:Drivers/STM32L4xx_HAL_Driver/Src/stm32l4xx_hal_ltdc.c ****   assert_param(IS_LTDC_HCONFIGST(pLayerCfg->WindowX0));
 830:Drivers/STM32L4xx_HAL_Driver/Src/stm32l4xx_hal_ltdc.c ****   assert_param(IS_LTDC_HCONFIGSP(pLayerCfg->WindowX1));
 831:Drivers/STM32L4xx_HAL_Driver/Src/stm32l4xx_hal_ltdc.c ****   assert_param(IS_LTDC_VCONFIGST(pLayerCfg->WindowY0));
 832:Drivers/STM32L4xx_HAL_Driver/Src/stm32l4xx_hal_ltdc.c ****   assert_param(IS_LTDC_VCONFIGSP(pLayerCfg->WindowY1));
 833:Drivers/STM32L4xx_HAL_Driver/Src/stm32l4xx_hal_ltdc.c ****   assert_param(IS_LTDC_PIXEL_FORMAT(pLayerCfg->PixelFormat));
 834:Drivers/STM32L4xx_HAL_Driver/Src/stm32l4xx_hal_ltdc.c ****   assert_param(IS_LTDC_ALPHA(pLayerCfg->Alpha));
 835:Drivers/STM32L4xx_HAL_Driver/Src/stm32l4xx_hal_ltdc.c ****   assert_param(IS_LTDC_ALPHA(pLayerCfg->Alpha0));
 836:Drivers/STM32L4xx_HAL_Driver/Src/stm32l4xx_hal_ltdc.c ****   assert_param(IS_LTDC_BLENDING_FACTOR1(pLayerCfg->BlendingFactor1));
 837:Drivers/STM32L4xx_HAL_Driver/Src/stm32l4xx_hal_ltdc.c ****   assert_param(IS_LTDC_BLENDING_FACTOR2(pLayerCfg->BlendingFactor2));
 838:Drivers/STM32L4xx_HAL_Driver/Src/stm32l4xx_hal_ltdc.c ****   assert_param(IS_LTDC_CFBLL(pLayerCfg->ImageWidth));
 839:Drivers/STM32L4xx_HAL_Driver/Src/stm32l4xx_hal_ltdc.c ****   assert_param(IS_LTDC_CFBLNBR(pLayerCfg->ImageHeight));
 840:Drivers/STM32L4xx_HAL_Driver/Src/stm32l4xx_hal_ltdc.c **** 
 841:Drivers/STM32L4xx_HAL_Driver/Src/stm32l4xx_hal_ltdc.c ****   /* Process locked */
 842:Drivers/STM32L4xx_HAL_Driver/Src/stm32l4xx_hal_ltdc.c ****   __HAL_LOCK(hltdc);
 859              		.loc 1 842 3
 860 000c FB68     		ldr	r3, [r7, #12]
 861 000e 93F86C30 		ldrb	r3, [r3, #108]	@ zero_extendqisi2
 862 0012 012B     		cmp	r3, #1
 863 0014 01D1     		bne	.L26
 864              		.loc 1 842 3 is_stmt 0 discriminator 1
 865 0016 0223     		movs	r3, #2
 866 0018 2CE0     		b	.L27
 867              	.L26:
 868              		.loc 1 842 3 discriminator 2
 869 001a FB68     		ldr	r3, [r7, #12]
 870 001c 0122     		movs	r2, #1
 871 001e 83F86C20 		strb	r2, [r3, #108]
 843:Drivers/STM32L4xx_HAL_Driver/Src/stm32l4xx_hal_ltdc.c **** 
 844:Drivers/STM32L4xx_HAL_Driver/Src/stm32l4xx_hal_ltdc.c ****   /* Change LTDC peripheral state */
 845:Drivers/STM32L4xx_HAL_Driver/Src/stm32l4xx_hal_ltdc.c ****   hltdc->State = HAL_LTDC_STATE_BUSY;
 872              		.loc 1 845 16 is_stmt 1 discriminator 2
 873 0022 FB68     		ldr	r3, [r7, #12]
 874 0024 0222     		movs	r2, #2
 875 0026 83F86D20 		strb	r2, [r3, #109]
 846:Drivers/STM32L4xx_HAL_Driver/Src/stm32l4xx_hal_ltdc.c **** 
 847:Drivers/STM32L4xx_HAL_Driver/Src/stm32l4xx_hal_ltdc.c ****   /* Copy new layer configuration into handle structure */
ARM GAS  C:\Users\Morroway\AppData\Local\Temp\cclk5axT.s 			page 31


 848:Drivers/STM32L4xx_HAL_Driver/Src/stm32l4xx_hal_ltdc.c ****   hltdc->LayerCfg[LayerIdx] = *pLayerCfg;
 876              		.loc 1 848 29 discriminator 2
 877 002a FA68     		ldr	r2, [r7, #12]
 878 002c 7B68     		ldr	r3, [r7, #4]
 879 002e 3421     		movs	r1, #52
 880 0030 01FB03F3 		mul	r3, r1, r3
 881 0034 1344     		add	r3, r3, r2
 882 0036 03F13802 		add	r2, r3, #56
 883 003a BB68     		ldr	r3, [r7, #8]
 884 003c 1446     		mov	r4, r2
 885 003e 1D46     		mov	r5, r3
 886 0040 0FCD     		ldmia	r5!, {r0, r1, r2, r3}
 887 0042 0FC4     		stmia	r4!, {r0, r1, r2, r3}
 888 0044 0FCD     		ldmia	r5!, {r0, r1, r2, r3}
 889 0046 0FC4     		stmia	r4!, {r0, r1, r2, r3}
 890 0048 0FCD     		ldmia	r5!, {r0, r1, r2, r3}
 891 004a 0FC4     		stmia	r4!, {r0, r1, r2, r3}
 892 004c 2B68     		ldr	r3, [r5]
 893 004e 2360     		str	r3, [r4]
 849:Drivers/STM32L4xx_HAL_Driver/Src/stm32l4xx_hal_ltdc.c **** 
 850:Drivers/STM32L4xx_HAL_Driver/Src/stm32l4xx_hal_ltdc.c ****   /* Configure the LTDC Layer */
 851:Drivers/STM32L4xx_HAL_Driver/Src/stm32l4xx_hal_ltdc.c ****   LTDC_SetConfig(hltdc, pLayerCfg, LayerIdx);
 894              		.loc 1 851 3 discriminator 2
 895 0050 7A68     		ldr	r2, [r7, #4]
 896 0052 B968     		ldr	r1, [r7, #8]
 897 0054 F868     		ldr	r0, [r7, #12]
 898 0056 FFF7FEFF 		bl	LTDC_SetConfig
 852:Drivers/STM32L4xx_HAL_Driver/Src/stm32l4xx_hal_ltdc.c **** 
 853:Drivers/STM32L4xx_HAL_Driver/Src/stm32l4xx_hal_ltdc.c ****   /* Set the Immediate Reload type */
 854:Drivers/STM32L4xx_HAL_Driver/Src/stm32l4xx_hal_ltdc.c ****   hltdc->Instance->SRCR = LTDC_SRCR_IMR;
 899              		.loc 1 854 8 discriminator 2
 900 005a FB68     		ldr	r3, [r7, #12]
 901 005c 1B68     		ldr	r3, [r3]
 902              		.loc 1 854 25 discriminator 2
 903 005e 0122     		movs	r2, #1
 904 0060 5A62     		str	r2, [r3, #36]
 855:Drivers/STM32L4xx_HAL_Driver/Src/stm32l4xx_hal_ltdc.c **** 
 856:Drivers/STM32L4xx_HAL_Driver/Src/stm32l4xx_hal_ltdc.c ****   /* Initialize the LTDC state*/
 857:Drivers/STM32L4xx_HAL_Driver/Src/stm32l4xx_hal_ltdc.c ****   hltdc->State  = HAL_LTDC_STATE_READY;
 905              		.loc 1 857 17 discriminator 2
 906 0062 FB68     		ldr	r3, [r7, #12]
 907 0064 0122     		movs	r2, #1
 908 0066 83F86D20 		strb	r2, [r3, #109]
 858:Drivers/STM32L4xx_HAL_Driver/Src/stm32l4xx_hal_ltdc.c **** 
 859:Drivers/STM32L4xx_HAL_Driver/Src/stm32l4xx_hal_ltdc.c ****   /* Process unlocked */
 860:Drivers/STM32L4xx_HAL_Driver/Src/stm32l4xx_hal_ltdc.c ****   __HAL_UNLOCK(hltdc);
 909              		.loc 1 860 3 discriminator 2
 910 006a FB68     		ldr	r3, [r7, #12]
 911 006c 0022     		movs	r2, #0
 912 006e 83F86C20 		strb	r2, [r3, #108]
 861:Drivers/STM32L4xx_HAL_Driver/Src/stm32l4xx_hal_ltdc.c **** 
 862:Drivers/STM32L4xx_HAL_Driver/Src/stm32l4xx_hal_ltdc.c ****   return HAL_OK;
 913              		.loc 1 862 10 discriminator 2
 914 0072 0023     		movs	r3, #0
 915              	.L27:
 863:Drivers/STM32L4xx_HAL_Driver/Src/stm32l4xx_hal_ltdc.c **** }
 916              		.loc 1 863 1
ARM GAS  C:\Users\Morroway\AppData\Local\Temp\cclk5axT.s 			page 32


 917 0074 1846     		mov	r0, r3
 918 0076 1037     		adds	r7, r7, #16
 919              		.cfi_def_cfa_offset 16
 920 0078 BD46     		mov	sp, r7
 921              		.cfi_def_cfa_register 13
 922              		@ sp needed
 923 007a B0BD     		pop	{r4, r5, r7, pc}
 924              		.cfi_endproc
 925              	.LFE329:
 927              		.section	.text.HAL_LTDC_ConfigColorKeying,"ax",%progbits
 928              		.align	1
 929              		.global	HAL_LTDC_ConfigColorKeying
 930              		.syntax unified
 931              		.thumb
 932              		.thumb_func
 934              	HAL_LTDC_ConfigColorKeying:
 935              	.LFB330:
 864:Drivers/STM32L4xx_HAL_Driver/Src/stm32l4xx_hal_ltdc.c **** 
 865:Drivers/STM32L4xx_HAL_Driver/Src/stm32l4xx_hal_ltdc.c **** /**
 866:Drivers/STM32L4xx_HAL_Driver/Src/stm32l4xx_hal_ltdc.c ****   * @brief  Configure the color keying.
 867:Drivers/STM32L4xx_HAL_Driver/Src/stm32l4xx_hal_ltdc.c ****   * @param  hltdc     pointer to a LTDC_HandleTypeDef structure that contains
 868:Drivers/STM32L4xx_HAL_Driver/Src/stm32l4xx_hal_ltdc.c ****   *                   the configuration information for the LTDC.
 869:Drivers/STM32L4xx_HAL_Driver/Src/stm32l4xx_hal_ltdc.c ****   * @param  RGBValue  the color key value
 870:Drivers/STM32L4xx_HAL_Driver/Src/stm32l4xx_hal_ltdc.c ****   * @param  LayerIdx  LTDC Layer index.
 871:Drivers/STM32L4xx_HAL_Driver/Src/stm32l4xx_hal_ltdc.c ****   *                   This parameter can be one of the following values:
 872:Drivers/STM32L4xx_HAL_Driver/Src/stm32l4xx_hal_ltdc.c ****   *                   LTDC_LAYER_1 (0) or LTDC_LAYER_2 (1)
 873:Drivers/STM32L4xx_HAL_Driver/Src/stm32l4xx_hal_ltdc.c ****   * @retval HAL status
 874:Drivers/STM32L4xx_HAL_Driver/Src/stm32l4xx_hal_ltdc.c ****   */
 875:Drivers/STM32L4xx_HAL_Driver/Src/stm32l4xx_hal_ltdc.c **** HAL_StatusTypeDef HAL_LTDC_ConfigColorKeying(LTDC_HandleTypeDef *hltdc, uint32_t RGBValue, uint32_t
 876:Drivers/STM32L4xx_HAL_Driver/Src/stm32l4xx_hal_ltdc.c **** {
 936              		.loc 1 876 1
 937              		.cfi_startproc
 938              		@ args = 0, pretend = 0, frame = 16
 939              		@ frame_needed = 1, uses_anonymous_args = 0
 940              		@ link register save eliminated.
 941 0000 80B4     		push	{r7}
 942              		.cfi_def_cfa_offset 4
 943              		.cfi_offset 7, -4
 944 0002 85B0     		sub	sp, sp, #20
 945              		.cfi_def_cfa_offset 24
 946 0004 00AF     		add	r7, sp, #0
 947              		.cfi_def_cfa_register 7
 948 0006 F860     		str	r0, [r7, #12]
 949 0008 B960     		str	r1, [r7, #8]
 950 000a 7A60     		str	r2, [r7, #4]
 877:Drivers/STM32L4xx_HAL_Driver/Src/stm32l4xx_hal_ltdc.c ****   /* Check the parameters */
 878:Drivers/STM32L4xx_HAL_Driver/Src/stm32l4xx_hal_ltdc.c ****   assert_param(IS_LTDC_LAYER(LayerIdx));
 879:Drivers/STM32L4xx_HAL_Driver/Src/stm32l4xx_hal_ltdc.c **** 
 880:Drivers/STM32L4xx_HAL_Driver/Src/stm32l4xx_hal_ltdc.c ****   /* Process locked */
 881:Drivers/STM32L4xx_HAL_Driver/Src/stm32l4xx_hal_ltdc.c ****   __HAL_LOCK(hltdc);
 951              		.loc 1 881 3
 952 000c FB68     		ldr	r3, [r7, #12]
 953 000e 93F86C30 		ldrb	r3, [r3, #108]	@ zero_extendqisi2
 954 0012 012B     		cmp	r3, #1
 955 0014 01D1     		bne	.L29
 956              		.loc 1 881 3 is_stmt 0 discriminator 1
 957 0016 0223     		movs	r3, #2
ARM GAS  C:\Users\Morroway\AppData\Local\Temp\cclk5axT.s 			page 33


 958 0018 30E0     		b	.L30
 959              	.L29:
 960              		.loc 1 881 3 discriminator 2
 961 001a FB68     		ldr	r3, [r7, #12]
 962 001c 0122     		movs	r2, #1
 963 001e 83F86C20 		strb	r2, [r3, #108]
 882:Drivers/STM32L4xx_HAL_Driver/Src/stm32l4xx_hal_ltdc.c **** 
 883:Drivers/STM32L4xx_HAL_Driver/Src/stm32l4xx_hal_ltdc.c ****   /* Change LTDC peripheral state */
 884:Drivers/STM32L4xx_HAL_Driver/Src/stm32l4xx_hal_ltdc.c ****   hltdc->State = HAL_LTDC_STATE_BUSY;
 964              		.loc 1 884 16 is_stmt 1 discriminator 2
 965 0022 FB68     		ldr	r3, [r7, #12]
 966 0024 0222     		movs	r2, #2
 967 0026 83F86D20 		strb	r2, [r3, #109]
 885:Drivers/STM32L4xx_HAL_Driver/Src/stm32l4xx_hal_ltdc.c **** 
 886:Drivers/STM32L4xx_HAL_Driver/Src/stm32l4xx_hal_ltdc.c ****   /* Configure the default color values */
 887:Drivers/STM32L4xx_HAL_Driver/Src/stm32l4xx_hal_ltdc.c ****   LTDC_LAYER(hltdc, LayerIdx)->CKCR &=  ~(LTDC_LxCKCR_CKBLUE | LTDC_LxCKCR_CKGREEN | LTDC_LxCKCR_CK
 968              		.loc 1 887 3 discriminator 2
 969 002a FB68     		ldr	r3, [r7, #12]
 970 002c 1B68     		ldr	r3, [r3]
 971              		.loc 1 887 37 discriminator 2
 972 002e 1A46     		mov	r2, r3
 973 0030 7B68     		ldr	r3, [r7, #4]
 974 0032 DB01     		lsls	r3, r3, #7
 975 0034 1344     		add	r3, r3, r2
 976 0036 8433     		adds	r3, r3, #132
 977 0038 DB68     		ldr	r3, [r3, #12]
 978              		.loc 1 887 3 discriminator 2
 979 003a FA68     		ldr	r2, [r7, #12]
 980 003c 1268     		ldr	r2, [r2]
 981              		.loc 1 887 37 discriminator 2
 982 003e 1146     		mov	r1, r2
 983 0040 7A68     		ldr	r2, [r7, #4]
 984 0042 D201     		lsls	r2, r2, #7
 985 0044 0A44     		add	r2, r2, r1
 986 0046 8432     		adds	r2, r2, #132
 987 0048 03F07F43 		and	r3, r3, #-16777216
 988 004c D360     		str	r3, [r2, #12]
 888:Drivers/STM32L4xx_HAL_Driver/Src/stm32l4xx_hal_ltdc.c ****   LTDC_LAYER(hltdc, LayerIdx)->CKCR  = RGBValue;
 989              		.loc 1 888 3 discriminator 2
 990 004e FB68     		ldr	r3, [r7, #12]
 991 0050 1B68     		ldr	r3, [r3]
 992 0052 1A46     		mov	r2, r3
 993 0054 7B68     		ldr	r3, [r7, #4]
 994 0056 DB01     		lsls	r3, r3, #7
 995 0058 1344     		add	r3, r3, r2
 996 005a 8433     		adds	r3, r3, #132
 997 005c 1A46     		mov	r2, r3
 998              		.loc 1 888 38 discriminator 2
 999 005e BB68     		ldr	r3, [r7, #8]
 1000 0060 D360     		str	r3, [r2, #12]
 889:Drivers/STM32L4xx_HAL_Driver/Src/stm32l4xx_hal_ltdc.c **** 
 890:Drivers/STM32L4xx_HAL_Driver/Src/stm32l4xx_hal_ltdc.c ****   /* Set the Immediate Reload type */
 891:Drivers/STM32L4xx_HAL_Driver/Src/stm32l4xx_hal_ltdc.c ****   hltdc->Instance->SRCR = LTDC_SRCR_IMR;
 1001              		.loc 1 891 8 discriminator 2
 1002 0062 FB68     		ldr	r3, [r7, #12]
 1003 0064 1B68     		ldr	r3, [r3]
 1004              		.loc 1 891 25 discriminator 2
ARM GAS  C:\Users\Morroway\AppData\Local\Temp\cclk5axT.s 			page 34


 1005 0066 0122     		movs	r2, #1
 1006 0068 5A62     		str	r2, [r3, #36]
 892:Drivers/STM32L4xx_HAL_Driver/Src/stm32l4xx_hal_ltdc.c **** 
 893:Drivers/STM32L4xx_HAL_Driver/Src/stm32l4xx_hal_ltdc.c ****   /* Change the LTDC state*/
 894:Drivers/STM32L4xx_HAL_Driver/Src/stm32l4xx_hal_ltdc.c ****   hltdc->State = HAL_LTDC_STATE_READY;
 1007              		.loc 1 894 16 discriminator 2
 1008 006a FB68     		ldr	r3, [r7, #12]
 1009 006c 0122     		movs	r2, #1
 1010 006e 83F86D20 		strb	r2, [r3, #109]
 895:Drivers/STM32L4xx_HAL_Driver/Src/stm32l4xx_hal_ltdc.c **** 
 896:Drivers/STM32L4xx_HAL_Driver/Src/stm32l4xx_hal_ltdc.c ****   /* Process unlocked */
 897:Drivers/STM32L4xx_HAL_Driver/Src/stm32l4xx_hal_ltdc.c ****   __HAL_UNLOCK(hltdc);
 1011              		.loc 1 897 3 discriminator 2
 1012 0072 FB68     		ldr	r3, [r7, #12]
 1013 0074 0022     		movs	r2, #0
 1014 0076 83F86C20 		strb	r2, [r3, #108]
 898:Drivers/STM32L4xx_HAL_Driver/Src/stm32l4xx_hal_ltdc.c **** 
 899:Drivers/STM32L4xx_HAL_Driver/Src/stm32l4xx_hal_ltdc.c ****   return HAL_OK;
 1015              		.loc 1 899 10 discriminator 2
 1016 007a 0023     		movs	r3, #0
 1017              	.L30:
 900:Drivers/STM32L4xx_HAL_Driver/Src/stm32l4xx_hal_ltdc.c **** }
 1018              		.loc 1 900 1
 1019 007c 1846     		mov	r0, r3
 1020 007e 1437     		adds	r7, r7, #20
 1021              		.cfi_def_cfa_offset 4
 1022 0080 BD46     		mov	sp, r7
 1023              		.cfi_def_cfa_register 13
 1024              		@ sp needed
 1025 0082 5DF8047B 		ldr	r7, [sp], #4
 1026              		.cfi_restore 7
 1027              		.cfi_def_cfa_offset 0
 1028 0086 7047     		bx	lr
 1029              		.cfi_endproc
 1030              	.LFE330:
 1032              		.section	.text.HAL_LTDC_ConfigCLUT,"ax",%progbits
 1033              		.align	1
 1034              		.global	HAL_LTDC_ConfigCLUT
 1035              		.syntax unified
 1036              		.thumb
 1037              		.thumb_func
 1039              	HAL_LTDC_ConfigCLUT:
 1040              	.LFB331:
 901:Drivers/STM32L4xx_HAL_Driver/Src/stm32l4xx_hal_ltdc.c **** 
 902:Drivers/STM32L4xx_HAL_Driver/Src/stm32l4xx_hal_ltdc.c **** /**
 903:Drivers/STM32L4xx_HAL_Driver/Src/stm32l4xx_hal_ltdc.c ****   * @brief  Load the color lookup table.
 904:Drivers/STM32L4xx_HAL_Driver/Src/stm32l4xx_hal_ltdc.c ****   * @param  hltdc     pointer to a LTDC_HandleTypeDef structure that contains
 905:Drivers/STM32L4xx_HAL_Driver/Src/stm32l4xx_hal_ltdc.c ****   *                   the configuration information for the LTDC.
 906:Drivers/STM32L4xx_HAL_Driver/Src/stm32l4xx_hal_ltdc.c ****   * @param  pCLUT     pointer to the color lookup table address.
 907:Drivers/STM32L4xx_HAL_Driver/Src/stm32l4xx_hal_ltdc.c ****   * @param  CLUTSize  the color lookup table size.
 908:Drivers/STM32L4xx_HAL_Driver/Src/stm32l4xx_hal_ltdc.c ****   * @param  LayerIdx  LTDC Layer index.
 909:Drivers/STM32L4xx_HAL_Driver/Src/stm32l4xx_hal_ltdc.c ****   *                   This parameter can be one of the following values:
 910:Drivers/STM32L4xx_HAL_Driver/Src/stm32l4xx_hal_ltdc.c ****   *                   LTDC_LAYER_1 (0) or LTDC_LAYER_2 (1)
 911:Drivers/STM32L4xx_HAL_Driver/Src/stm32l4xx_hal_ltdc.c ****   * @retval HAL status
 912:Drivers/STM32L4xx_HAL_Driver/Src/stm32l4xx_hal_ltdc.c ****   */
 913:Drivers/STM32L4xx_HAL_Driver/Src/stm32l4xx_hal_ltdc.c **** HAL_StatusTypeDef HAL_LTDC_ConfigCLUT(LTDC_HandleTypeDef *hltdc, uint32_t *pCLUT, uint32_t CLUTSize
 914:Drivers/STM32L4xx_HAL_Driver/Src/stm32l4xx_hal_ltdc.c **** {
ARM GAS  C:\Users\Morroway\AppData\Local\Temp\cclk5axT.s 			page 35


 1041              		.loc 1 914 1
 1042              		.cfi_startproc
 1043              		@ args = 0, pretend = 0, frame = 32
 1044              		@ frame_needed = 1, uses_anonymous_args = 0
 1045              		@ link register save eliminated.
 1046 0000 80B4     		push	{r7}
 1047              		.cfi_def_cfa_offset 4
 1048              		.cfi_offset 7, -4
 1049 0002 89B0     		sub	sp, sp, #36
 1050              		.cfi_def_cfa_offset 40
 1051 0004 00AF     		add	r7, sp, #0
 1052              		.cfi_def_cfa_register 7
 1053 0006 F860     		str	r0, [r7, #12]
 1054 0008 B960     		str	r1, [r7, #8]
 1055 000a 7A60     		str	r2, [r7, #4]
 1056 000c 3B60     		str	r3, [r7]
 915:Drivers/STM32L4xx_HAL_Driver/Src/stm32l4xx_hal_ltdc.c ****   uint32_t tmp;
 916:Drivers/STM32L4xx_HAL_Driver/Src/stm32l4xx_hal_ltdc.c ****   uint32_t counter;
 917:Drivers/STM32L4xx_HAL_Driver/Src/stm32l4xx_hal_ltdc.c ****   uint32_t *pcolorlut = pCLUT;
 1057              		.loc 1 917 13
 1058 000e BB68     		ldr	r3, [r7, #8]
 1059 0010 7B61     		str	r3, [r7, #20]
 918:Drivers/STM32L4xx_HAL_Driver/Src/stm32l4xx_hal_ltdc.c ****   /* Check the parameters */
 919:Drivers/STM32L4xx_HAL_Driver/Src/stm32l4xx_hal_ltdc.c ****   assert_param(IS_LTDC_LAYER(LayerIdx));
 920:Drivers/STM32L4xx_HAL_Driver/Src/stm32l4xx_hal_ltdc.c **** 
 921:Drivers/STM32L4xx_HAL_Driver/Src/stm32l4xx_hal_ltdc.c ****   /* Process locked */
 922:Drivers/STM32L4xx_HAL_Driver/Src/stm32l4xx_hal_ltdc.c ****   __HAL_LOCK(hltdc);
 1060              		.loc 1 922 3
 1061 0012 FB68     		ldr	r3, [r7, #12]
 1062 0014 93F86C30 		ldrb	r3, [r3, #108]	@ zero_extendqisi2
 1063 0018 012B     		cmp	r3, #1
 1064 001a 01D1     		bne	.L32
 1065              		.loc 1 922 3 is_stmt 0 discriminator 1
 1066 001c 0223     		movs	r3, #2
 1067 001e 57E0     		b	.L33
 1068              	.L32:
 1069              		.loc 1 922 3 discriminator 2
 1070 0020 FB68     		ldr	r3, [r7, #12]
 1071 0022 0122     		movs	r2, #1
 1072 0024 83F86C20 		strb	r2, [r3, #108]
 923:Drivers/STM32L4xx_HAL_Driver/Src/stm32l4xx_hal_ltdc.c **** 
 924:Drivers/STM32L4xx_HAL_Driver/Src/stm32l4xx_hal_ltdc.c ****   /* Change LTDC peripheral state */
 925:Drivers/STM32L4xx_HAL_Driver/Src/stm32l4xx_hal_ltdc.c ****   hltdc->State = HAL_LTDC_STATE_BUSY;
 1073              		.loc 1 925 16 is_stmt 1 discriminator 2
 1074 0028 FB68     		ldr	r3, [r7, #12]
 1075 002a 0222     		movs	r2, #2
 1076 002c 83F86D20 		strb	r2, [r3, #109]
 926:Drivers/STM32L4xx_HAL_Driver/Src/stm32l4xx_hal_ltdc.c **** 
 927:Drivers/STM32L4xx_HAL_Driver/Src/stm32l4xx_hal_ltdc.c ****   for (counter = 0U; (counter < CLUTSize); counter++)
 1077              		.loc 1 927 16 discriminator 2
 1078 0030 0023     		movs	r3, #0
 1079 0032 BB61     		str	r3, [r7, #24]
 1080              		.loc 1 927 3 discriminator 2
 1081 0034 3FE0     		b	.L34
 1082              	.L37:
 928:Drivers/STM32L4xx_HAL_Driver/Src/stm32l4xx_hal_ltdc.c ****   {
 929:Drivers/STM32L4xx_HAL_Driver/Src/stm32l4xx_hal_ltdc.c ****     if (hltdc->LayerCfg[LayerIdx].PixelFormat == LTDC_PIXEL_FORMAT_AL44)
ARM GAS  C:\Users\Morroway\AppData\Local\Temp\cclk5axT.s 			page 36


 1083              		.loc 1 929 34
 1084 0036 FA68     		ldr	r2, [r7, #12]
 1085 0038 3B68     		ldr	r3, [r7]
 1086 003a 3421     		movs	r1, #52
 1087 003c 01FB03F3 		mul	r3, r1, r3
 1088 0040 1344     		add	r3, r3, r2
 1089 0042 4833     		adds	r3, r3, #72
 1090 0044 1B68     		ldr	r3, [r3]
 1091              		.loc 1 929 8
 1092 0046 062B     		cmp	r3, #6
 1093 0048 14D1     		bne	.L35
 930:Drivers/STM32L4xx_HAL_Driver/Src/stm32l4xx_hal_ltdc.c ****     {
 931:Drivers/STM32L4xx_HAL_Driver/Src/stm32l4xx_hal_ltdc.c ****       tmp  = (((counter + (16U * counter)) << 24U) | ((uint32_t)(*pcolorlut) & 0xFFU) | \
 1094              		.loc 1 931 25
 1095 004a BA69     		ldr	r2, [r7, #24]
 1096 004c 1346     		mov	r3, r2
 1097 004e 1B01     		lsls	r3, r3, #4
 1098 0050 1344     		add	r3, r3, r2
 1099              		.loc 1 931 44
 1100 0052 1A06     		lsls	r2, r3, #24
 1101              		.loc 1 931 55
 1102 0054 7B69     		ldr	r3, [r7, #20]
 1103 0056 1B68     		ldr	r3, [r3]
 1104              		.loc 1 931 78
 1105 0058 DBB2     		uxtb	r3, r3
 1106              		.loc 1 931 52
 1107 005a 1A43     		orrs	r2, r2, r3
 932:Drivers/STM32L4xx_HAL_Driver/Src/stm32l4xx_hal_ltdc.c ****               ((uint32_t)(*pcolorlut) & 0xFF00U) | ((uint32_t)(*pcolorlut) & 0xFF0000U));
 1108              		.loc 1 932 16
 1109 005c 7B69     		ldr	r3, [r7, #20]
 1110 005e 1B68     		ldr	r3, [r3]
 1111              		.loc 1 932 39
 1112 0060 03F47F43 		and	r3, r3, #65280
 931:Drivers/STM32L4xx_HAL_Driver/Src/stm32l4xx_hal_ltdc.c ****               ((uint32_t)(*pcolorlut) & 0xFF00U) | ((uint32_t)(*pcolorlut) & 0xFF0000U));
 1113              		.loc 1 931 87
 1114 0064 1A43     		orrs	r2, r2, r3
 1115              		.loc 1 932 53
 1116 0066 7B69     		ldr	r3, [r7, #20]
 1117 0068 1B68     		ldr	r3, [r3]
 1118              		.loc 1 932 76
 1119 006a 03F47F03 		and	r3, r3, #16711680
 931:Drivers/STM32L4xx_HAL_Driver/Src/stm32l4xx_hal_ltdc.c ****               ((uint32_t)(*pcolorlut) & 0xFF00U) | ((uint32_t)(*pcolorlut) & 0xFF0000U));
 1120              		.loc 1 931 12
 1121 006e 1343     		orrs	r3, r3, r2
 1122 0070 FB61     		str	r3, [r7, #28]
 1123 0072 10E0     		b	.L36
 1124              	.L35:
 933:Drivers/STM32L4xx_HAL_Driver/Src/stm32l4xx_hal_ltdc.c ****     }
 934:Drivers/STM32L4xx_HAL_Driver/Src/stm32l4xx_hal_ltdc.c ****     else
 935:Drivers/STM32L4xx_HAL_Driver/Src/stm32l4xx_hal_ltdc.c ****     {
 936:Drivers/STM32L4xx_HAL_Driver/Src/stm32l4xx_hal_ltdc.c ****       tmp  = ((counter << 24U) | ((uint32_t)(*pcolorlut) & 0xFFU) | \
 1125              		.loc 1 936 24
 1126 0074 BB69     		ldr	r3, [r7, #24]
 1127 0076 1A06     		lsls	r2, r3, #24
 1128              		.loc 1 936 35
 1129 0078 7B69     		ldr	r3, [r7, #20]
 1130 007a 1B68     		ldr	r3, [r3]
ARM GAS  C:\Users\Morroway\AppData\Local\Temp\cclk5axT.s 			page 37


 1131              		.loc 1 936 58
 1132 007c DBB2     		uxtb	r3, r3
 1133              		.loc 1 936 32
 1134 007e 1A43     		orrs	r2, r2, r3
 937:Drivers/STM32L4xx_HAL_Driver/Src/stm32l4xx_hal_ltdc.c ****               ((uint32_t)(*pcolorlut) & 0xFF00U) | ((uint32_t)(*pcolorlut) & 0xFF0000U));
 1135              		.loc 1 937 16
 1136 0080 7B69     		ldr	r3, [r7, #20]
 1137 0082 1B68     		ldr	r3, [r3]
 1138              		.loc 1 937 39
 1139 0084 03F47F43 		and	r3, r3, #65280
 936:Drivers/STM32L4xx_HAL_Driver/Src/stm32l4xx_hal_ltdc.c ****               ((uint32_t)(*pcolorlut) & 0xFF00U) | ((uint32_t)(*pcolorlut) & 0xFF0000U));
 1140              		.loc 1 936 67
 1141 0088 1A43     		orrs	r2, r2, r3
 1142              		.loc 1 937 53
 1143 008a 7B69     		ldr	r3, [r7, #20]
 1144 008c 1B68     		ldr	r3, [r3]
 1145              		.loc 1 937 76
 1146 008e 03F47F03 		and	r3, r3, #16711680
 936:Drivers/STM32L4xx_HAL_Driver/Src/stm32l4xx_hal_ltdc.c ****               ((uint32_t)(*pcolorlut) & 0xFF00U) | ((uint32_t)(*pcolorlut) & 0xFF0000U));
 1147              		.loc 1 936 12
 1148 0092 1343     		orrs	r3, r3, r2
 1149 0094 FB61     		str	r3, [r7, #28]
 1150              	.L36:
 938:Drivers/STM32L4xx_HAL_Driver/Src/stm32l4xx_hal_ltdc.c ****     }
 939:Drivers/STM32L4xx_HAL_Driver/Src/stm32l4xx_hal_ltdc.c **** 
 940:Drivers/STM32L4xx_HAL_Driver/Src/stm32l4xx_hal_ltdc.c ****     pcolorlut++;
 1151              		.loc 1 940 14 discriminator 2
 1152 0096 7B69     		ldr	r3, [r7, #20]
 1153 0098 0433     		adds	r3, r3, #4
 1154 009a 7B61     		str	r3, [r7, #20]
 941:Drivers/STM32L4xx_HAL_Driver/Src/stm32l4xx_hal_ltdc.c **** 
 942:Drivers/STM32L4xx_HAL_Driver/Src/stm32l4xx_hal_ltdc.c ****     /* Specifies the C-LUT address and RGB value */
 943:Drivers/STM32L4xx_HAL_Driver/Src/stm32l4xx_hal_ltdc.c ****     LTDC_LAYER(hltdc, LayerIdx)->CLUTWR  = tmp;
 1155              		.loc 1 943 5 discriminator 2
 1156 009c FB68     		ldr	r3, [r7, #12]
 1157 009e 1B68     		ldr	r3, [r3]
 1158 00a0 1A46     		mov	r2, r3
 1159 00a2 3B68     		ldr	r3, [r7]
 1160 00a4 DB01     		lsls	r3, r3, #7
 1161 00a6 1344     		add	r3, r3, r2
 1162 00a8 8433     		adds	r3, r3, #132
 1163 00aa 1A46     		mov	r2, r3
 1164              		.loc 1 943 42 discriminator 2
 1165 00ac FB69     		ldr	r3, [r7, #28]
 1166 00ae 1364     		str	r3, [r2, #64]
 927:Drivers/STM32L4xx_HAL_Driver/Src/stm32l4xx_hal_ltdc.c ****   {
 1167              		.loc 1 927 51 discriminator 2
 1168 00b0 BB69     		ldr	r3, [r7, #24]
 1169 00b2 0133     		adds	r3, r3, #1
 1170 00b4 BB61     		str	r3, [r7, #24]
 1171              	.L34:
 927:Drivers/STM32L4xx_HAL_Driver/Src/stm32l4xx_hal_ltdc.c ****   {
 1172              		.loc 1 927 31 discriminator 1
 1173 00b6 BA69     		ldr	r2, [r7, #24]
 1174 00b8 7B68     		ldr	r3, [r7, #4]
 1175 00ba 9A42     		cmp	r2, r3
 1176 00bc BBD3     		bcc	.L37
ARM GAS  C:\Users\Morroway\AppData\Local\Temp\cclk5axT.s 			page 38


 944:Drivers/STM32L4xx_HAL_Driver/Src/stm32l4xx_hal_ltdc.c ****   }
 945:Drivers/STM32L4xx_HAL_Driver/Src/stm32l4xx_hal_ltdc.c **** 
 946:Drivers/STM32L4xx_HAL_Driver/Src/stm32l4xx_hal_ltdc.c ****   /* Change the LTDC state*/
 947:Drivers/STM32L4xx_HAL_Driver/Src/stm32l4xx_hal_ltdc.c ****   hltdc->State = HAL_LTDC_STATE_READY;
 1177              		.loc 1 947 16
 1178 00be FB68     		ldr	r3, [r7, #12]
 1179 00c0 0122     		movs	r2, #1
 1180 00c2 83F86D20 		strb	r2, [r3, #109]
 948:Drivers/STM32L4xx_HAL_Driver/Src/stm32l4xx_hal_ltdc.c **** 
 949:Drivers/STM32L4xx_HAL_Driver/Src/stm32l4xx_hal_ltdc.c ****   /* Process unlocked */
 950:Drivers/STM32L4xx_HAL_Driver/Src/stm32l4xx_hal_ltdc.c ****   __HAL_UNLOCK(hltdc);
 1181              		.loc 1 950 3
 1182 00c6 FB68     		ldr	r3, [r7, #12]
 1183 00c8 0022     		movs	r2, #0
 1184 00ca 83F86C20 		strb	r2, [r3, #108]
 951:Drivers/STM32L4xx_HAL_Driver/Src/stm32l4xx_hal_ltdc.c **** 
 952:Drivers/STM32L4xx_HAL_Driver/Src/stm32l4xx_hal_ltdc.c ****   return HAL_OK;
 1185              		.loc 1 952 10
 1186 00ce 0023     		movs	r3, #0
 1187              	.L33:
 953:Drivers/STM32L4xx_HAL_Driver/Src/stm32l4xx_hal_ltdc.c **** }
 1188              		.loc 1 953 1
 1189 00d0 1846     		mov	r0, r3
 1190 00d2 2437     		adds	r7, r7, #36
 1191              		.cfi_def_cfa_offset 4
 1192 00d4 BD46     		mov	sp, r7
 1193              		.cfi_def_cfa_register 13
 1194              		@ sp needed
 1195 00d6 5DF8047B 		ldr	r7, [sp], #4
 1196              		.cfi_restore 7
 1197              		.cfi_def_cfa_offset 0
 1198 00da 7047     		bx	lr
 1199              		.cfi_endproc
 1200              	.LFE331:
 1202              		.section	.text.HAL_LTDC_EnableColorKeying,"ax",%progbits
 1203              		.align	1
 1204              		.global	HAL_LTDC_EnableColorKeying
 1205              		.syntax unified
 1206              		.thumb
 1207              		.thumb_func
 1209              	HAL_LTDC_EnableColorKeying:
 1210              	.LFB332:
 954:Drivers/STM32L4xx_HAL_Driver/Src/stm32l4xx_hal_ltdc.c **** 
 955:Drivers/STM32L4xx_HAL_Driver/Src/stm32l4xx_hal_ltdc.c **** /**
 956:Drivers/STM32L4xx_HAL_Driver/Src/stm32l4xx_hal_ltdc.c ****   * @brief  Enable the color keying.
 957:Drivers/STM32L4xx_HAL_Driver/Src/stm32l4xx_hal_ltdc.c ****   * @param  hltdc     pointer to a LTDC_HandleTypeDef structure that contains
 958:Drivers/STM32L4xx_HAL_Driver/Src/stm32l4xx_hal_ltdc.c ****   *                   the configuration information for the LTDC.
 959:Drivers/STM32L4xx_HAL_Driver/Src/stm32l4xx_hal_ltdc.c ****   * @param  LayerIdx  LTDC Layer index.
 960:Drivers/STM32L4xx_HAL_Driver/Src/stm32l4xx_hal_ltdc.c ****   *                   This parameter can be one of the following values:
 961:Drivers/STM32L4xx_HAL_Driver/Src/stm32l4xx_hal_ltdc.c ****   *                   LTDC_LAYER_1 (0) or LTDC_LAYER_2 (1)
 962:Drivers/STM32L4xx_HAL_Driver/Src/stm32l4xx_hal_ltdc.c ****   * @retval  HAL status
 963:Drivers/STM32L4xx_HAL_Driver/Src/stm32l4xx_hal_ltdc.c ****   */
 964:Drivers/STM32L4xx_HAL_Driver/Src/stm32l4xx_hal_ltdc.c **** HAL_StatusTypeDef HAL_LTDC_EnableColorKeying(LTDC_HandleTypeDef *hltdc, uint32_t LayerIdx)
 965:Drivers/STM32L4xx_HAL_Driver/Src/stm32l4xx_hal_ltdc.c **** {
 1211              		.loc 1 965 1
 1212              		.cfi_startproc
 1213              		@ args = 0, pretend = 0, frame = 8
ARM GAS  C:\Users\Morroway\AppData\Local\Temp\cclk5axT.s 			page 39


 1214              		@ frame_needed = 1, uses_anonymous_args = 0
 1215              		@ link register save eliminated.
 1216 0000 80B4     		push	{r7}
 1217              		.cfi_def_cfa_offset 4
 1218              		.cfi_offset 7, -4
 1219 0002 83B0     		sub	sp, sp, #12
 1220              		.cfi_def_cfa_offset 16
 1221 0004 00AF     		add	r7, sp, #0
 1222              		.cfi_def_cfa_register 7
 1223 0006 7860     		str	r0, [r7, #4]
 1224 0008 3960     		str	r1, [r7]
 966:Drivers/STM32L4xx_HAL_Driver/Src/stm32l4xx_hal_ltdc.c ****   /* Check the parameters */
 967:Drivers/STM32L4xx_HAL_Driver/Src/stm32l4xx_hal_ltdc.c ****   assert_param(IS_LTDC_LAYER(LayerIdx));
 968:Drivers/STM32L4xx_HAL_Driver/Src/stm32l4xx_hal_ltdc.c **** 
 969:Drivers/STM32L4xx_HAL_Driver/Src/stm32l4xx_hal_ltdc.c ****   /* Process locked */
 970:Drivers/STM32L4xx_HAL_Driver/Src/stm32l4xx_hal_ltdc.c ****   __HAL_LOCK(hltdc);
 1225              		.loc 1 970 3
 1226 000a 7B68     		ldr	r3, [r7, #4]
 1227 000c 93F86C30 		ldrb	r3, [r3, #108]	@ zero_extendqisi2
 1228 0010 012B     		cmp	r3, #1
 1229 0012 01D1     		bne	.L39
 1230              		.loc 1 970 3 is_stmt 0 discriminator 1
 1231 0014 0223     		movs	r3, #2
 1232 0016 26E0     		b	.L40
 1233              	.L39:
 1234              		.loc 1 970 3 discriminator 2
 1235 0018 7B68     		ldr	r3, [r7, #4]
 1236 001a 0122     		movs	r2, #1
 1237 001c 83F86C20 		strb	r2, [r3, #108]
 971:Drivers/STM32L4xx_HAL_Driver/Src/stm32l4xx_hal_ltdc.c **** 
 972:Drivers/STM32L4xx_HAL_Driver/Src/stm32l4xx_hal_ltdc.c ****   /* Change LTDC peripheral state */
 973:Drivers/STM32L4xx_HAL_Driver/Src/stm32l4xx_hal_ltdc.c ****   hltdc->State = HAL_LTDC_STATE_BUSY;
 1238              		.loc 1 973 16 is_stmt 1 discriminator 2
 1239 0020 7B68     		ldr	r3, [r7, #4]
 1240 0022 0222     		movs	r2, #2
 1241 0024 83F86D20 		strb	r2, [r3, #109]
 974:Drivers/STM32L4xx_HAL_Driver/Src/stm32l4xx_hal_ltdc.c **** 
 975:Drivers/STM32L4xx_HAL_Driver/Src/stm32l4xx_hal_ltdc.c ****   /* Enable LTDC color keying by setting COLKEN bit */
 976:Drivers/STM32L4xx_HAL_Driver/Src/stm32l4xx_hal_ltdc.c ****   LTDC_LAYER(hltdc, LayerIdx)->CR |= (uint32_t)LTDC_LxCR_COLKEN;
 1242              		.loc 1 976 3 discriminator 2
 1243 0028 7B68     		ldr	r3, [r7, #4]
 1244 002a 1B68     		ldr	r3, [r3]
 1245              		.loc 1 976 35 discriminator 2
 1246 002c 1A46     		mov	r2, r3
 1247 002e 3B68     		ldr	r3, [r7]
 1248 0030 DB01     		lsls	r3, r3, #7
 1249 0032 1344     		add	r3, r3, r2
 1250 0034 8433     		adds	r3, r3, #132
 1251 0036 1B68     		ldr	r3, [r3]
 1252              		.loc 1 976 3 discriminator 2
 1253 0038 7A68     		ldr	r2, [r7, #4]
 1254 003a 1268     		ldr	r2, [r2]
 1255              		.loc 1 976 35 discriminator 2
 1256 003c 1146     		mov	r1, r2
 1257 003e 3A68     		ldr	r2, [r7]
 1258 0040 D201     		lsls	r2, r2, #7
 1259 0042 0A44     		add	r2, r2, r1
ARM GAS  C:\Users\Morroway\AppData\Local\Temp\cclk5axT.s 			page 40


 1260 0044 8432     		adds	r2, r2, #132
 1261 0046 43F00203 		orr	r3, r3, #2
 1262 004a 1360     		str	r3, [r2]
 977:Drivers/STM32L4xx_HAL_Driver/Src/stm32l4xx_hal_ltdc.c **** 
 978:Drivers/STM32L4xx_HAL_Driver/Src/stm32l4xx_hal_ltdc.c ****   /* Set the Immediate Reload type */
 979:Drivers/STM32L4xx_HAL_Driver/Src/stm32l4xx_hal_ltdc.c ****   hltdc->Instance->SRCR = LTDC_SRCR_IMR;
 1263              		.loc 1 979 8 discriminator 2
 1264 004c 7B68     		ldr	r3, [r7, #4]
 1265 004e 1B68     		ldr	r3, [r3]
 1266              		.loc 1 979 25 discriminator 2
 1267 0050 0122     		movs	r2, #1
 1268 0052 5A62     		str	r2, [r3, #36]
 980:Drivers/STM32L4xx_HAL_Driver/Src/stm32l4xx_hal_ltdc.c **** 
 981:Drivers/STM32L4xx_HAL_Driver/Src/stm32l4xx_hal_ltdc.c ****   /* Change the LTDC state*/
 982:Drivers/STM32L4xx_HAL_Driver/Src/stm32l4xx_hal_ltdc.c ****   hltdc->State = HAL_LTDC_STATE_READY;
 1269              		.loc 1 982 16 discriminator 2
 1270 0054 7B68     		ldr	r3, [r7, #4]
 1271 0056 0122     		movs	r2, #1
 1272 0058 83F86D20 		strb	r2, [r3, #109]
 983:Drivers/STM32L4xx_HAL_Driver/Src/stm32l4xx_hal_ltdc.c **** 
 984:Drivers/STM32L4xx_HAL_Driver/Src/stm32l4xx_hal_ltdc.c ****   /* Process unlocked */
 985:Drivers/STM32L4xx_HAL_Driver/Src/stm32l4xx_hal_ltdc.c ****   __HAL_UNLOCK(hltdc);
 1273              		.loc 1 985 3 discriminator 2
 1274 005c 7B68     		ldr	r3, [r7, #4]
 1275 005e 0022     		movs	r2, #0
 1276 0060 83F86C20 		strb	r2, [r3, #108]
 986:Drivers/STM32L4xx_HAL_Driver/Src/stm32l4xx_hal_ltdc.c **** 
 987:Drivers/STM32L4xx_HAL_Driver/Src/stm32l4xx_hal_ltdc.c ****   return HAL_OK;
 1277              		.loc 1 987 10 discriminator 2
 1278 0064 0023     		movs	r3, #0
 1279              	.L40:
 988:Drivers/STM32L4xx_HAL_Driver/Src/stm32l4xx_hal_ltdc.c **** }
 1280              		.loc 1 988 1
 1281 0066 1846     		mov	r0, r3
 1282 0068 0C37     		adds	r7, r7, #12
 1283              		.cfi_def_cfa_offset 4
 1284 006a BD46     		mov	sp, r7
 1285              		.cfi_def_cfa_register 13
 1286              		@ sp needed
 1287 006c 5DF8047B 		ldr	r7, [sp], #4
 1288              		.cfi_restore 7
 1289              		.cfi_def_cfa_offset 0
 1290 0070 7047     		bx	lr
 1291              		.cfi_endproc
 1292              	.LFE332:
 1294              		.section	.text.HAL_LTDC_DisableColorKeying,"ax",%progbits
 1295              		.align	1
 1296              		.global	HAL_LTDC_DisableColorKeying
 1297              		.syntax unified
 1298              		.thumb
 1299              		.thumb_func
 1301              	HAL_LTDC_DisableColorKeying:
 1302              	.LFB333:
 989:Drivers/STM32L4xx_HAL_Driver/Src/stm32l4xx_hal_ltdc.c **** 
 990:Drivers/STM32L4xx_HAL_Driver/Src/stm32l4xx_hal_ltdc.c **** /**
 991:Drivers/STM32L4xx_HAL_Driver/Src/stm32l4xx_hal_ltdc.c ****   * @brief  Disable the color keying.
 992:Drivers/STM32L4xx_HAL_Driver/Src/stm32l4xx_hal_ltdc.c ****   * @param  hltdc     pointer to a LTDC_HandleTypeDef structure that contains
ARM GAS  C:\Users\Morroway\AppData\Local\Temp\cclk5axT.s 			page 41


 993:Drivers/STM32L4xx_HAL_Driver/Src/stm32l4xx_hal_ltdc.c ****   *                   the configuration information for the LTDC.
 994:Drivers/STM32L4xx_HAL_Driver/Src/stm32l4xx_hal_ltdc.c ****   * @param  LayerIdx  LTDC Layer index.
 995:Drivers/STM32L4xx_HAL_Driver/Src/stm32l4xx_hal_ltdc.c ****   *                   This parameter can be one of the following values:
 996:Drivers/STM32L4xx_HAL_Driver/Src/stm32l4xx_hal_ltdc.c ****   *                   LTDC_LAYER_1 (0) or LTDC_LAYER_2 (1)
 997:Drivers/STM32L4xx_HAL_Driver/Src/stm32l4xx_hal_ltdc.c ****   * @retval  HAL status
 998:Drivers/STM32L4xx_HAL_Driver/Src/stm32l4xx_hal_ltdc.c ****   */
 999:Drivers/STM32L4xx_HAL_Driver/Src/stm32l4xx_hal_ltdc.c **** HAL_StatusTypeDef HAL_LTDC_DisableColorKeying(LTDC_HandleTypeDef *hltdc, uint32_t LayerIdx)
1000:Drivers/STM32L4xx_HAL_Driver/Src/stm32l4xx_hal_ltdc.c **** {
 1303              		.loc 1 1000 1
 1304              		.cfi_startproc
 1305              		@ args = 0, pretend = 0, frame = 8
 1306              		@ frame_needed = 1, uses_anonymous_args = 0
 1307              		@ link register save eliminated.
 1308 0000 80B4     		push	{r7}
 1309              		.cfi_def_cfa_offset 4
 1310              		.cfi_offset 7, -4
 1311 0002 83B0     		sub	sp, sp, #12
 1312              		.cfi_def_cfa_offset 16
 1313 0004 00AF     		add	r7, sp, #0
 1314              		.cfi_def_cfa_register 7
 1315 0006 7860     		str	r0, [r7, #4]
 1316 0008 3960     		str	r1, [r7]
1001:Drivers/STM32L4xx_HAL_Driver/Src/stm32l4xx_hal_ltdc.c ****   /* Check the parameters */
1002:Drivers/STM32L4xx_HAL_Driver/Src/stm32l4xx_hal_ltdc.c ****   assert_param(IS_LTDC_LAYER(LayerIdx));
1003:Drivers/STM32L4xx_HAL_Driver/Src/stm32l4xx_hal_ltdc.c **** 
1004:Drivers/STM32L4xx_HAL_Driver/Src/stm32l4xx_hal_ltdc.c ****   /* Process locked */
1005:Drivers/STM32L4xx_HAL_Driver/Src/stm32l4xx_hal_ltdc.c ****   __HAL_LOCK(hltdc);
 1317              		.loc 1 1005 3
 1318 000a 7B68     		ldr	r3, [r7, #4]
 1319 000c 93F86C30 		ldrb	r3, [r3, #108]	@ zero_extendqisi2
 1320 0010 012B     		cmp	r3, #1
 1321 0012 01D1     		bne	.L42
 1322              		.loc 1 1005 3 is_stmt 0 discriminator 1
 1323 0014 0223     		movs	r3, #2
 1324 0016 26E0     		b	.L43
 1325              	.L42:
 1326              		.loc 1 1005 3 discriminator 2
 1327 0018 7B68     		ldr	r3, [r7, #4]
 1328 001a 0122     		movs	r2, #1
 1329 001c 83F86C20 		strb	r2, [r3, #108]
1006:Drivers/STM32L4xx_HAL_Driver/Src/stm32l4xx_hal_ltdc.c **** 
1007:Drivers/STM32L4xx_HAL_Driver/Src/stm32l4xx_hal_ltdc.c ****   /* Change LTDC peripheral state */
1008:Drivers/STM32L4xx_HAL_Driver/Src/stm32l4xx_hal_ltdc.c ****   hltdc->State = HAL_LTDC_STATE_BUSY;
 1330              		.loc 1 1008 16 is_stmt 1 discriminator 2
 1331 0020 7B68     		ldr	r3, [r7, #4]
 1332 0022 0222     		movs	r2, #2
 1333 0024 83F86D20 		strb	r2, [r3, #109]
1009:Drivers/STM32L4xx_HAL_Driver/Src/stm32l4xx_hal_ltdc.c **** 
1010:Drivers/STM32L4xx_HAL_Driver/Src/stm32l4xx_hal_ltdc.c ****   /* Disable LTDC color keying by setting COLKEN bit */
1011:Drivers/STM32L4xx_HAL_Driver/Src/stm32l4xx_hal_ltdc.c ****   LTDC_LAYER(hltdc, LayerIdx)->CR &= ~(uint32_t)LTDC_LxCR_COLKEN;
 1334              		.loc 1 1011 3 discriminator 2
 1335 0028 7B68     		ldr	r3, [r7, #4]
 1336 002a 1B68     		ldr	r3, [r3]
 1337              		.loc 1 1011 35 discriminator 2
 1338 002c 1A46     		mov	r2, r3
 1339 002e 3B68     		ldr	r3, [r7]
 1340 0030 DB01     		lsls	r3, r3, #7
ARM GAS  C:\Users\Morroway\AppData\Local\Temp\cclk5axT.s 			page 42


 1341 0032 1344     		add	r3, r3, r2
 1342 0034 8433     		adds	r3, r3, #132
 1343 0036 1B68     		ldr	r3, [r3]
 1344              		.loc 1 1011 3 discriminator 2
 1345 0038 7A68     		ldr	r2, [r7, #4]
 1346 003a 1268     		ldr	r2, [r2]
 1347              		.loc 1 1011 35 discriminator 2
 1348 003c 1146     		mov	r1, r2
 1349 003e 3A68     		ldr	r2, [r7]
 1350 0040 D201     		lsls	r2, r2, #7
 1351 0042 0A44     		add	r2, r2, r1
 1352 0044 8432     		adds	r2, r2, #132
 1353 0046 23F00203 		bic	r3, r3, #2
 1354 004a 1360     		str	r3, [r2]
1012:Drivers/STM32L4xx_HAL_Driver/Src/stm32l4xx_hal_ltdc.c **** 
1013:Drivers/STM32L4xx_HAL_Driver/Src/stm32l4xx_hal_ltdc.c ****   /* Set the Immediate Reload type */
1014:Drivers/STM32L4xx_HAL_Driver/Src/stm32l4xx_hal_ltdc.c ****   hltdc->Instance->SRCR = LTDC_SRCR_IMR;
 1355              		.loc 1 1014 8 discriminator 2
 1356 004c 7B68     		ldr	r3, [r7, #4]
 1357 004e 1B68     		ldr	r3, [r3]
 1358              		.loc 1 1014 25 discriminator 2
 1359 0050 0122     		movs	r2, #1
 1360 0052 5A62     		str	r2, [r3, #36]
1015:Drivers/STM32L4xx_HAL_Driver/Src/stm32l4xx_hal_ltdc.c **** 
1016:Drivers/STM32L4xx_HAL_Driver/Src/stm32l4xx_hal_ltdc.c ****   /* Change the LTDC state*/
1017:Drivers/STM32L4xx_HAL_Driver/Src/stm32l4xx_hal_ltdc.c ****   hltdc->State = HAL_LTDC_STATE_READY;
 1361              		.loc 1 1017 16 discriminator 2
 1362 0054 7B68     		ldr	r3, [r7, #4]
 1363 0056 0122     		movs	r2, #1
 1364 0058 83F86D20 		strb	r2, [r3, #109]
1018:Drivers/STM32L4xx_HAL_Driver/Src/stm32l4xx_hal_ltdc.c **** 
1019:Drivers/STM32L4xx_HAL_Driver/Src/stm32l4xx_hal_ltdc.c ****   /* Process unlocked */
1020:Drivers/STM32L4xx_HAL_Driver/Src/stm32l4xx_hal_ltdc.c ****   __HAL_UNLOCK(hltdc);
 1365              		.loc 1 1020 3 discriminator 2
 1366 005c 7B68     		ldr	r3, [r7, #4]
 1367 005e 0022     		movs	r2, #0
 1368 0060 83F86C20 		strb	r2, [r3, #108]
1021:Drivers/STM32L4xx_HAL_Driver/Src/stm32l4xx_hal_ltdc.c **** 
1022:Drivers/STM32L4xx_HAL_Driver/Src/stm32l4xx_hal_ltdc.c ****   return HAL_OK;
 1369              		.loc 1 1022 10 discriminator 2
 1370 0064 0023     		movs	r3, #0
 1371              	.L43:
1023:Drivers/STM32L4xx_HAL_Driver/Src/stm32l4xx_hal_ltdc.c **** }
 1372              		.loc 1 1023 1
 1373 0066 1846     		mov	r0, r3
 1374 0068 0C37     		adds	r7, r7, #12
 1375              		.cfi_def_cfa_offset 4
 1376 006a BD46     		mov	sp, r7
 1377              		.cfi_def_cfa_register 13
 1378              		@ sp needed
 1379 006c 5DF8047B 		ldr	r7, [sp], #4
 1380              		.cfi_restore 7
 1381              		.cfi_def_cfa_offset 0
 1382 0070 7047     		bx	lr
 1383              		.cfi_endproc
 1384              	.LFE333:
 1386              		.section	.text.HAL_LTDC_EnableCLUT,"ax",%progbits
ARM GAS  C:\Users\Morroway\AppData\Local\Temp\cclk5axT.s 			page 43


 1387              		.align	1
 1388              		.global	HAL_LTDC_EnableCLUT
 1389              		.syntax unified
 1390              		.thumb
 1391              		.thumb_func
 1393              	HAL_LTDC_EnableCLUT:
 1394              	.LFB334:
1024:Drivers/STM32L4xx_HAL_Driver/Src/stm32l4xx_hal_ltdc.c **** 
1025:Drivers/STM32L4xx_HAL_Driver/Src/stm32l4xx_hal_ltdc.c **** /**
1026:Drivers/STM32L4xx_HAL_Driver/Src/stm32l4xx_hal_ltdc.c ****   * @brief  Enable the color lookup table.
1027:Drivers/STM32L4xx_HAL_Driver/Src/stm32l4xx_hal_ltdc.c ****   * @param  hltdc     pointer to a LTDC_HandleTypeDef structure that contains
1028:Drivers/STM32L4xx_HAL_Driver/Src/stm32l4xx_hal_ltdc.c ****   *                   the configuration information for the LTDC.
1029:Drivers/STM32L4xx_HAL_Driver/Src/stm32l4xx_hal_ltdc.c ****   * @param  LayerIdx  LTDC Layer index.
1030:Drivers/STM32L4xx_HAL_Driver/Src/stm32l4xx_hal_ltdc.c ****   *                   This parameter can be one of the following values:
1031:Drivers/STM32L4xx_HAL_Driver/Src/stm32l4xx_hal_ltdc.c ****   *                   LTDC_LAYER_1 (0) or LTDC_LAYER_2 (1)
1032:Drivers/STM32L4xx_HAL_Driver/Src/stm32l4xx_hal_ltdc.c ****   * @retval  HAL status
1033:Drivers/STM32L4xx_HAL_Driver/Src/stm32l4xx_hal_ltdc.c ****   */
1034:Drivers/STM32L4xx_HAL_Driver/Src/stm32l4xx_hal_ltdc.c **** HAL_StatusTypeDef HAL_LTDC_EnableCLUT(LTDC_HandleTypeDef *hltdc, uint32_t LayerIdx)
1035:Drivers/STM32L4xx_HAL_Driver/Src/stm32l4xx_hal_ltdc.c **** {
 1395              		.loc 1 1035 1
 1396              		.cfi_startproc
 1397              		@ args = 0, pretend = 0, frame = 8
 1398              		@ frame_needed = 1, uses_anonymous_args = 0
 1399              		@ link register save eliminated.
 1400 0000 80B4     		push	{r7}
 1401              		.cfi_def_cfa_offset 4
 1402              		.cfi_offset 7, -4
 1403 0002 83B0     		sub	sp, sp, #12
 1404              		.cfi_def_cfa_offset 16
 1405 0004 00AF     		add	r7, sp, #0
 1406              		.cfi_def_cfa_register 7
 1407 0006 7860     		str	r0, [r7, #4]
 1408 0008 3960     		str	r1, [r7]
1036:Drivers/STM32L4xx_HAL_Driver/Src/stm32l4xx_hal_ltdc.c ****   /* Check the parameters */
1037:Drivers/STM32L4xx_HAL_Driver/Src/stm32l4xx_hal_ltdc.c ****   assert_param(IS_LTDC_LAYER(LayerIdx));
1038:Drivers/STM32L4xx_HAL_Driver/Src/stm32l4xx_hal_ltdc.c **** 
1039:Drivers/STM32L4xx_HAL_Driver/Src/stm32l4xx_hal_ltdc.c ****   /* Process locked */
1040:Drivers/STM32L4xx_HAL_Driver/Src/stm32l4xx_hal_ltdc.c ****   __HAL_LOCK(hltdc);
 1409              		.loc 1 1040 3
 1410 000a 7B68     		ldr	r3, [r7, #4]
 1411 000c 93F86C30 		ldrb	r3, [r3, #108]	@ zero_extendqisi2
 1412 0010 012B     		cmp	r3, #1
 1413 0012 01D1     		bne	.L45
 1414              		.loc 1 1040 3 is_stmt 0 discriminator 1
 1415 0014 0223     		movs	r3, #2
 1416 0016 26E0     		b	.L46
 1417              	.L45:
 1418              		.loc 1 1040 3 discriminator 2
 1419 0018 7B68     		ldr	r3, [r7, #4]
 1420 001a 0122     		movs	r2, #1
 1421 001c 83F86C20 		strb	r2, [r3, #108]
1041:Drivers/STM32L4xx_HAL_Driver/Src/stm32l4xx_hal_ltdc.c **** 
1042:Drivers/STM32L4xx_HAL_Driver/Src/stm32l4xx_hal_ltdc.c ****   /* Change LTDC peripheral state */
1043:Drivers/STM32L4xx_HAL_Driver/Src/stm32l4xx_hal_ltdc.c ****   hltdc->State = HAL_LTDC_STATE_BUSY;
 1422              		.loc 1 1043 16 is_stmt 1 discriminator 2
 1423 0020 7B68     		ldr	r3, [r7, #4]
 1424 0022 0222     		movs	r2, #2
ARM GAS  C:\Users\Morroway\AppData\Local\Temp\cclk5axT.s 			page 44


 1425 0024 83F86D20 		strb	r2, [r3, #109]
1044:Drivers/STM32L4xx_HAL_Driver/Src/stm32l4xx_hal_ltdc.c **** 
1045:Drivers/STM32L4xx_HAL_Driver/Src/stm32l4xx_hal_ltdc.c ****   /* Enable LTDC color lookup table by setting CLUTEN bit */
1046:Drivers/STM32L4xx_HAL_Driver/Src/stm32l4xx_hal_ltdc.c ****   LTDC_LAYER(hltdc, LayerIdx)->CR |= (uint32_t)LTDC_LxCR_CLUTEN;
 1426              		.loc 1 1046 3 discriminator 2
 1427 0028 7B68     		ldr	r3, [r7, #4]
 1428 002a 1B68     		ldr	r3, [r3]
 1429              		.loc 1 1046 35 discriminator 2
 1430 002c 1A46     		mov	r2, r3
 1431 002e 3B68     		ldr	r3, [r7]
 1432 0030 DB01     		lsls	r3, r3, #7
 1433 0032 1344     		add	r3, r3, r2
 1434 0034 8433     		adds	r3, r3, #132
 1435 0036 1B68     		ldr	r3, [r3]
 1436              		.loc 1 1046 3 discriminator 2
 1437 0038 7A68     		ldr	r2, [r7, #4]
 1438 003a 1268     		ldr	r2, [r2]
 1439              		.loc 1 1046 35 discriminator 2
 1440 003c 1146     		mov	r1, r2
 1441 003e 3A68     		ldr	r2, [r7]
 1442 0040 D201     		lsls	r2, r2, #7
 1443 0042 0A44     		add	r2, r2, r1
 1444 0044 8432     		adds	r2, r2, #132
 1445 0046 43F01003 		orr	r3, r3, #16
 1446 004a 1360     		str	r3, [r2]
1047:Drivers/STM32L4xx_HAL_Driver/Src/stm32l4xx_hal_ltdc.c **** 
1048:Drivers/STM32L4xx_HAL_Driver/Src/stm32l4xx_hal_ltdc.c ****   /* Set the Immediate Reload type */
1049:Drivers/STM32L4xx_HAL_Driver/Src/stm32l4xx_hal_ltdc.c ****   hltdc->Instance->SRCR = LTDC_SRCR_IMR;
 1447              		.loc 1 1049 8 discriminator 2
 1448 004c 7B68     		ldr	r3, [r7, #4]
 1449 004e 1B68     		ldr	r3, [r3]
 1450              		.loc 1 1049 25 discriminator 2
 1451 0050 0122     		movs	r2, #1
 1452 0052 5A62     		str	r2, [r3, #36]
1050:Drivers/STM32L4xx_HAL_Driver/Src/stm32l4xx_hal_ltdc.c **** 
1051:Drivers/STM32L4xx_HAL_Driver/Src/stm32l4xx_hal_ltdc.c ****   /* Change the LTDC state*/
1052:Drivers/STM32L4xx_HAL_Driver/Src/stm32l4xx_hal_ltdc.c ****   hltdc->State = HAL_LTDC_STATE_READY;
 1453              		.loc 1 1052 16 discriminator 2
 1454 0054 7B68     		ldr	r3, [r7, #4]
 1455 0056 0122     		movs	r2, #1
 1456 0058 83F86D20 		strb	r2, [r3, #109]
1053:Drivers/STM32L4xx_HAL_Driver/Src/stm32l4xx_hal_ltdc.c **** 
1054:Drivers/STM32L4xx_HAL_Driver/Src/stm32l4xx_hal_ltdc.c ****   /* Process unlocked */
1055:Drivers/STM32L4xx_HAL_Driver/Src/stm32l4xx_hal_ltdc.c ****   __HAL_UNLOCK(hltdc);
 1457              		.loc 1 1055 3 discriminator 2
 1458 005c 7B68     		ldr	r3, [r7, #4]
 1459 005e 0022     		movs	r2, #0
 1460 0060 83F86C20 		strb	r2, [r3, #108]
1056:Drivers/STM32L4xx_HAL_Driver/Src/stm32l4xx_hal_ltdc.c **** 
1057:Drivers/STM32L4xx_HAL_Driver/Src/stm32l4xx_hal_ltdc.c ****   return HAL_OK;
 1461              		.loc 1 1057 10 discriminator 2
 1462 0064 0023     		movs	r3, #0
 1463              	.L46:
1058:Drivers/STM32L4xx_HAL_Driver/Src/stm32l4xx_hal_ltdc.c **** }
 1464              		.loc 1 1058 1
 1465 0066 1846     		mov	r0, r3
 1466 0068 0C37     		adds	r7, r7, #12
ARM GAS  C:\Users\Morroway\AppData\Local\Temp\cclk5axT.s 			page 45


 1467              		.cfi_def_cfa_offset 4
 1468 006a BD46     		mov	sp, r7
 1469              		.cfi_def_cfa_register 13
 1470              		@ sp needed
 1471 006c 5DF8047B 		ldr	r7, [sp], #4
 1472              		.cfi_restore 7
 1473              		.cfi_def_cfa_offset 0
 1474 0070 7047     		bx	lr
 1475              		.cfi_endproc
 1476              	.LFE334:
 1478              		.section	.text.HAL_LTDC_DisableCLUT,"ax",%progbits
 1479              		.align	1
 1480              		.global	HAL_LTDC_DisableCLUT
 1481              		.syntax unified
 1482              		.thumb
 1483              		.thumb_func
 1485              	HAL_LTDC_DisableCLUT:
 1486              	.LFB335:
1059:Drivers/STM32L4xx_HAL_Driver/Src/stm32l4xx_hal_ltdc.c **** 
1060:Drivers/STM32L4xx_HAL_Driver/Src/stm32l4xx_hal_ltdc.c **** /**
1061:Drivers/STM32L4xx_HAL_Driver/Src/stm32l4xx_hal_ltdc.c ****   * @brief  Disable the color lookup table.
1062:Drivers/STM32L4xx_HAL_Driver/Src/stm32l4xx_hal_ltdc.c ****   * @param  hltdc     pointer to a LTDC_HandleTypeDef structure that contains
1063:Drivers/STM32L4xx_HAL_Driver/Src/stm32l4xx_hal_ltdc.c ****   *                   the configuration information for the LTDC.
1064:Drivers/STM32L4xx_HAL_Driver/Src/stm32l4xx_hal_ltdc.c ****   * @param  LayerIdx  LTDC Layer index.
1065:Drivers/STM32L4xx_HAL_Driver/Src/stm32l4xx_hal_ltdc.c ****   *                   This parameter can be one of the following values:
1066:Drivers/STM32L4xx_HAL_Driver/Src/stm32l4xx_hal_ltdc.c ****   *                   LTDC_LAYER_1 (0) or LTDC_LAYER_2 (1)
1067:Drivers/STM32L4xx_HAL_Driver/Src/stm32l4xx_hal_ltdc.c ****   * @retval  HAL status
1068:Drivers/STM32L4xx_HAL_Driver/Src/stm32l4xx_hal_ltdc.c ****   */
1069:Drivers/STM32L4xx_HAL_Driver/Src/stm32l4xx_hal_ltdc.c **** HAL_StatusTypeDef HAL_LTDC_DisableCLUT(LTDC_HandleTypeDef *hltdc, uint32_t LayerIdx)
1070:Drivers/STM32L4xx_HAL_Driver/Src/stm32l4xx_hal_ltdc.c **** {
 1487              		.loc 1 1070 1
 1488              		.cfi_startproc
 1489              		@ args = 0, pretend = 0, frame = 8
 1490              		@ frame_needed = 1, uses_anonymous_args = 0
 1491              		@ link register save eliminated.
 1492 0000 80B4     		push	{r7}
 1493              		.cfi_def_cfa_offset 4
 1494              		.cfi_offset 7, -4
 1495 0002 83B0     		sub	sp, sp, #12
 1496              		.cfi_def_cfa_offset 16
 1497 0004 00AF     		add	r7, sp, #0
 1498              		.cfi_def_cfa_register 7
 1499 0006 7860     		str	r0, [r7, #4]
 1500 0008 3960     		str	r1, [r7]
1071:Drivers/STM32L4xx_HAL_Driver/Src/stm32l4xx_hal_ltdc.c ****   /* Check the parameters */
1072:Drivers/STM32L4xx_HAL_Driver/Src/stm32l4xx_hal_ltdc.c ****   assert_param(IS_LTDC_LAYER(LayerIdx));
1073:Drivers/STM32L4xx_HAL_Driver/Src/stm32l4xx_hal_ltdc.c **** 
1074:Drivers/STM32L4xx_HAL_Driver/Src/stm32l4xx_hal_ltdc.c ****   /* Process locked */
1075:Drivers/STM32L4xx_HAL_Driver/Src/stm32l4xx_hal_ltdc.c ****   __HAL_LOCK(hltdc);
 1501              		.loc 1 1075 3
 1502 000a 7B68     		ldr	r3, [r7, #4]
 1503 000c 93F86C30 		ldrb	r3, [r3, #108]	@ zero_extendqisi2
 1504 0010 012B     		cmp	r3, #1
 1505 0012 01D1     		bne	.L48
 1506              		.loc 1 1075 3 is_stmt 0 discriminator 1
 1507 0014 0223     		movs	r3, #2
 1508 0016 26E0     		b	.L49
ARM GAS  C:\Users\Morroway\AppData\Local\Temp\cclk5axT.s 			page 46


 1509              	.L48:
 1510              		.loc 1 1075 3 discriminator 2
 1511 0018 7B68     		ldr	r3, [r7, #4]
 1512 001a 0122     		movs	r2, #1
 1513 001c 83F86C20 		strb	r2, [r3, #108]
1076:Drivers/STM32L4xx_HAL_Driver/Src/stm32l4xx_hal_ltdc.c **** 
1077:Drivers/STM32L4xx_HAL_Driver/Src/stm32l4xx_hal_ltdc.c ****   /* Change LTDC peripheral state */
1078:Drivers/STM32L4xx_HAL_Driver/Src/stm32l4xx_hal_ltdc.c ****   hltdc->State = HAL_LTDC_STATE_BUSY;
 1514              		.loc 1 1078 16 is_stmt 1 discriminator 2
 1515 0020 7B68     		ldr	r3, [r7, #4]
 1516 0022 0222     		movs	r2, #2
 1517 0024 83F86D20 		strb	r2, [r3, #109]
1079:Drivers/STM32L4xx_HAL_Driver/Src/stm32l4xx_hal_ltdc.c **** 
1080:Drivers/STM32L4xx_HAL_Driver/Src/stm32l4xx_hal_ltdc.c ****   /* Disable LTDC color lookup table by setting CLUTEN bit */
1081:Drivers/STM32L4xx_HAL_Driver/Src/stm32l4xx_hal_ltdc.c ****   LTDC_LAYER(hltdc, LayerIdx)->CR &= ~(uint32_t)LTDC_LxCR_CLUTEN;
 1518              		.loc 1 1081 3 discriminator 2
 1519 0028 7B68     		ldr	r3, [r7, #4]
 1520 002a 1B68     		ldr	r3, [r3]
 1521              		.loc 1 1081 35 discriminator 2
 1522 002c 1A46     		mov	r2, r3
 1523 002e 3B68     		ldr	r3, [r7]
 1524 0030 DB01     		lsls	r3, r3, #7
 1525 0032 1344     		add	r3, r3, r2
 1526 0034 8433     		adds	r3, r3, #132
 1527 0036 1B68     		ldr	r3, [r3]
 1528              		.loc 1 1081 3 discriminator 2
 1529 0038 7A68     		ldr	r2, [r7, #4]
 1530 003a 1268     		ldr	r2, [r2]
 1531              		.loc 1 1081 35 discriminator 2
 1532 003c 1146     		mov	r1, r2
 1533 003e 3A68     		ldr	r2, [r7]
 1534 0040 D201     		lsls	r2, r2, #7
 1535 0042 0A44     		add	r2, r2, r1
 1536 0044 8432     		adds	r2, r2, #132
 1537 0046 23F01003 		bic	r3, r3, #16
 1538 004a 1360     		str	r3, [r2]
1082:Drivers/STM32L4xx_HAL_Driver/Src/stm32l4xx_hal_ltdc.c **** 
1083:Drivers/STM32L4xx_HAL_Driver/Src/stm32l4xx_hal_ltdc.c ****   /* Set the Immediate Reload type */
1084:Drivers/STM32L4xx_HAL_Driver/Src/stm32l4xx_hal_ltdc.c ****   hltdc->Instance->SRCR = LTDC_SRCR_IMR;
 1539              		.loc 1 1084 8 discriminator 2
 1540 004c 7B68     		ldr	r3, [r7, #4]
 1541 004e 1B68     		ldr	r3, [r3]
 1542              		.loc 1 1084 25 discriminator 2
 1543 0050 0122     		movs	r2, #1
 1544 0052 5A62     		str	r2, [r3, #36]
1085:Drivers/STM32L4xx_HAL_Driver/Src/stm32l4xx_hal_ltdc.c **** 
1086:Drivers/STM32L4xx_HAL_Driver/Src/stm32l4xx_hal_ltdc.c ****   /* Change the LTDC state*/
1087:Drivers/STM32L4xx_HAL_Driver/Src/stm32l4xx_hal_ltdc.c ****   hltdc->State = HAL_LTDC_STATE_READY;
 1545              		.loc 1 1087 16 discriminator 2
 1546 0054 7B68     		ldr	r3, [r7, #4]
 1547 0056 0122     		movs	r2, #1
 1548 0058 83F86D20 		strb	r2, [r3, #109]
1088:Drivers/STM32L4xx_HAL_Driver/Src/stm32l4xx_hal_ltdc.c **** 
1089:Drivers/STM32L4xx_HAL_Driver/Src/stm32l4xx_hal_ltdc.c ****   /* Process unlocked */
1090:Drivers/STM32L4xx_HAL_Driver/Src/stm32l4xx_hal_ltdc.c ****   __HAL_UNLOCK(hltdc);
 1549              		.loc 1 1090 3 discriminator 2
 1550 005c 7B68     		ldr	r3, [r7, #4]
ARM GAS  C:\Users\Morroway\AppData\Local\Temp\cclk5axT.s 			page 47


 1551 005e 0022     		movs	r2, #0
 1552 0060 83F86C20 		strb	r2, [r3, #108]
1091:Drivers/STM32L4xx_HAL_Driver/Src/stm32l4xx_hal_ltdc.c **** 
1092:Drivers/STM32L4xx_HAL_Driver/Src/stm32l4xx_hal_ltdc.c ****   return HAL_OK;
 1553              		.loc 1 1092 10 discriminator 2
 1554 0064 0023     		movs	r3, #0
 1555              	.L49:
1093:Drivers/STM32L4xx_HAL_Driver/Src/stm32l4xx_hal_ltdc.c **** }
 1556              		.loc 1 1093 1
 1557 0066 1846     		mov	r0, r3
 1558 0068 0C37     		adds	r7, r7, #12
 1559              		.cfi_def_cfa_offset 4
 1560 006a BD46     		mov	sp, r7
 1561              		.cfi_def_cfa_register 13
 1562              		@ sp needed
 1563 006c 5DF8047B 		ldr	r7, [sp], #4
 1564              		.cfi_restore 7
 1565              		.cfi_def_cfa_offset 0
 1566 0070 7047     		bx	lr
 1567              		.cfi_endproc
 1568              	.LFE335:
 1570              		.section	.text.HAL_LTDC_EnableDither,"ax",%progbits
 1571              		.align	1
 1572              		.global	HAL_LTDC_EnableDither
 1573              		.syntax unified
 1574              		.thumb
 1575              		.thumb_func
 1577              	HAL_LTDC_EnableDither:
 1578              	.LFB336:
1094:Drivers/STM32L4xx_HAL_Driver/Src/stm32l4xx_hal_ltdc.c **** 
1095:Drivers/STM32L4xx_HAL_Driver/Src/stm32l4xx_hal_ltdc.c **** /**
1096:Drivers/STM32L4xx_HAL_Driver/Src/stm32l4xx_hal_ltdc.c ****   * @brief  Enable Dither.
1097:Drivers/STM32L4xx_HAL_Driver/Src/stm32l4xx_hal_ltdc.c ****   * @param  hltdc  pointer to a LTDC_HandleTypeDef structure that contains
1098:Drivers/STM32L4xx_HAL_Driver/Src/stm32l4xx_hal_ltdc.c ****   *                the configuration information for the LTDC.
1099:Drivers/STM32L4xx_HAL_Driver/Src/stm32l4xx_hal_ltdc.c ****   * @retval  HAL status
1100:Drivers/STM32L4xx_HAL_Driver/Src/stm32l4xx_hal_ltdc.c ****   */
1101:Drivers/STM32L4xx_HAL_Driver/Src/stm32l4xx_hal_ltdc.c **** 
1102:Drivers/STM32L4xx_HAL_Driver/Src/stm32l4xx_hal_ltdc.c **** HAL_StatusTypeDef HAL_LTDC_EnableDither(LTDC_HandleTypeDef *hltdc)
1103:Drivers/STM32L4xx_HAL_Driver/Src/stm32l4xx_hal_ltdc.c **** {
 1579              		.loc 1 1103 1
 1580              		.cfi_startproc
 1581              		@ args = 0, pretend = 0, frame = 8
 1582              		@ frame_needed = 1, uses_anonymous_args = 0
 1583              		@ link register save eliminated.
 1584 0000 80B4     		push	{r7}
 1585              		.cfi_def_cfa_offset 4
 1586              		.cfi_offset 7, -4
 1587 0002 83B0     		sub	sp, sp, #12
 1588              		.cfi_def_cfa_offset 16
 1589 0004 00AF     		add	r7, sp, #0
 1590              		.cfi_def_cfa_register 7
 1591 0006 7860     		str	r0, [r7, #4]
1104:Drivers/STM32L4xx_HAL_Driver/Src/stm32l4xx_hal_ltdc.c ****   /* Process locked */
1105:Drivers/STM32L4xx_HAL_Driver/Src/stm32l4xx_hal_ltdc.c ****   __HAL_LOCK(hltdc);
 1592              		.loc 1 1105 3
 1593 0008 7B68     		ldr	r3, [r7, #4]
 1594 000a 93F86C30 		ldrb	r3, [r3, #108]	@ zero_extendqisi2
ARM GAS  C:\Users\Morroway\AppData\Local\Temp\cclk5axT.s 			page 48


 1595 000e 012B     		cmp	r3, #1
 1596 0010 01D1     		bne	.L51
 1597              		.loc 1 1105 3 is_stmt 0 discriminator 1
 1598 0012 0223     		movs	r3, #2
 1599 0014 16E0     		b	.L52
 1600              	.L51:
 1601              		.loc 1 1105 3 discriminator 2
 1602 0016 7B68     		ldr	r3, [r7, #4]
 1603 0018 0122     		movs	r2, #1
 1604 001a 83F86C20 		strb	r2, [r3, #108]
1106:Drivers/STM32L4xx_HAL_Driver/Src/stm32l4xx_hal_ltdc.c **** 
1107:Drivers/STM32L4xx_HAL_Driver/Src/stm32l4xx_hal_ltdc.c ****   /* Change LTDC peripheral state */
1108:Drivers/STM32L4xx_HAL_Driver/Src/stm32l4xx_hal_ltdc.c ****   hltdc->State = HAL_LTDC_STATE_BUSY;
 1605              		.loc 1 1108 16 is_stmt 1 discriminator 2
 1606 001e 7B68     		ldr	r3, [r7, #4]
 1607 0020 0222     		movs	r2, #2
 1608 0022 83F86D20 		strb	r2, [r3, #109]
1109:Drivers/STM32L4xx_HAL_Driver/Src/stm32l4xx_hal_ltdc.c **** 
1110:Drivers/STM32L4xx_HAL_Driver/Src/stm32l4xx_hal_ltdc.c ****   /* Enable Dither by setting DTEN bit */
1111:Drivers/STM32L4xx_HAL_Driver/Src/stm32l4xx_hal_ltdc.c ****   LTDC->GCR |= (uint32_t)LTDC_GCR_DEN;
 1609              		.loc 1 1111 13 discriminator 2
 1610 0026 0A4B     		ldr	r3, .L53
 1611 0028 9B69     		ldr	r3, [r3, #24]
 1612 002a 094A     		ldr	r2, .L53
 1613 002c 43F48033 		orr	r3, r3, #65536
 1614 0030 9361     		str	r3, [r2, #24]
1112:Drivers/STM32L4xx_HAL_Driver/Src/stm32l4xx_hal_ltdc.c **** 
1113:Drivers/STM32L4xx_HAL_Driver/Src/stm32l4xx_hal_ltdc.c ****   /* Change the LTDC state*/
1114:Drivers/STM32L4xx_HAL_Driver/Src/stm32l4xx_hal_ltdc.c ****   hltdc->State = HAL_LTDC_STATE_READY;
 1615              		.loc 1 1114 16 discriminator 2
 1616 0032 7B68     		ldr	r3, [r7, #4]
 1617 0034 0122     		movs	r2, #1
 1618 0036 83F86D20 		strb	r2, [r3, #109]
1115:Drivers/STM32L4xx_HAL_Driver/Src/stm32l4xx_hal_ltdc.c **** 
1116:Drivers/STM32L4xx_HAL_Driver/Src/stm32l4xx_hal_ltdc.c ****   /* Process unlocked */
1117:Drivers/STM32L4xx_HAL_Driver/Src/stm32l4xx_hal_ltdc.c ****   __HAL_UNLOCK(hltdc);
 1619              		.loc 1 1117 3 discriminator 2
 1620 003a 7B68     		ldr	r3, [r7, #4]
 1621 003c 0022     		movs	r2, #0
 1622 003e 83F86C20 		strb	r2, [r3, #108]
1118:Drivers/STM32L4xx_HAL_Driver/Src/stm32l4xx_hal_ltdc.c **** 
1119:Drivers/STM32L4xx_HAL_Driver/Src/stm32l4xx_hal_ltdc.c ****   return HAL_OK;
 1623              		.loc 1 1119 10 discriminator 2
 1624 0042 0023     		movs	r3, #0
 1625              	.L52:
1120:Drivers/STM32L4xx_HAL_Driver/Src/stm32l4xx_hal_ltdc.c **** }
 1626              		.loc 1 1120 1
 1627 0044 1846     		mov	r0, r3
 1628 0046 0C37     		adds	r7, r7, #12
 1629              		.cfi_def_cfa_offset 4
 1630 0048 BD46     		mov	sp, r7
 1631              		.cfi_def_cfa_register 13
 1632              		@ sp needed
 1633 004a 5DF8047B 		ldr	r7, [sp], #4
 1634              		.cfi_restore 7
 1635              		.cfi_def_cfa_offset 0
 1636 004e 7047     		bx	lr
ARM GAS  C:\Users\Morroway\AppData\Local\Temp\cclk5axT.s 			page 49


 1637              	.L54:
 1638              		.align	2
 1639              	.L53:
 1640 0050 00680140 		.word	1073833984
 1641              		.cfi_endproc
 1642              	.LFE336:
 1644              		.section	.text.HAL_LTDC_DisableDither,"ax",%progbits
 1645              		.align	1
 1646              		.global	HAL_LTDC_DisableDither
 1647              		.syntax unified
 1648              		.thumb
 1649              		.thumb_func
 1651              	HAL_LTDC_DisableDither:
 1652              	.LFB337:
1121:Drivers/STM32L4xx_HAL_Driver/Src/stm32l4xx_hal_ltdc.c **** 
1122:Drivers/STM32L4xx_HAL_Driver/Src/stm32l4xx_hal_ltdc.c **** /**
1123:Drivers/STM32L4xx_HAL_Driver/Src/stm32l4xx_hal_ltdc.c ****   * @brief  Disable Dither.
1124:Drivers/STM32L4xx_HAL_Driver/Src/stm32l4xx_hal_ltdc.c ****   * @param  hltdc  pointer to a LTDC_HandleTypeDef structure that contains
1125:Drivers/STM32L4xx_HAL_Driver/Src/stm32l4xx_hal_ltdc.c ****   *                the configuration information for the LTDC.
1126:Drivers/STM32L4xx_HAL_Driver/Src/stm32l4xx_hal_ltdc.c ****   * @retval  HAL status
1127:Drivers/STM32L4xx_HAL_Driver/Src/stm32l4xx_hal_ltdc.c ****   */
1128:Drivers/STM32L4xx_HAL_Driver/Src/stm32l4xx_hal_ltdc.c **** 
1129:Drivers/STM32L4xx_HAL_Driver/Src/stm32l4xx_hal_ltdc.c **** HAL_StatusTypeDef HAL_LTDC_DisableDither(LTDC_HandleTypeDef *hltdc)
1130:Drivers/STM32L4xx_HAL_Driver/Src/stm32l4xx_hal_ltdc.c **** {
 1653              		.loc 1 1130 1
 1654              		.cfi_startproc
 1655              		@ args = 0, pretend = 0, frame = 8
 1656              		@ frame_needed = 1, uses_anonymous_args = 0
 1657              		@ link register save eliminated.
 1658 0000 80B4     		push	{r7}
 1659              		.cfi_def_cfa_offset 4
 1660              		.cfi_offset 7, -4
 1661 0002 83B0     		sub	sp, sp, #12
 1662              		.cfi_def_cfa_offset 16
 1663 0004 00AF     		add	r7, sp, #0
 1664              		.cfi_def_cfa_register 7
 1665 0006 7860     		str	r0, [r7, #4]
1131:Drivers/STM32L4xx_HAL_Driver/Src/stm32l4xx_hal_ltdc.c ****   /* Process locked */
1132:Drivers/STM32L4xx_HAL_Driver/Src/stm32l4xx_hal_ltdc.c ****   __HAL_LOCK(hltdc);
 1666              		.loc 1 1132 3
 1667 0008 7B68     		ldr	r3, [r7, #4]
 1668 000a 93F86C30 		ldrb	r3, [r3, #108]	@ zero_extendqisi2
 1669 000e 012B     		cmp	r3, #1
 1670 0010 01D1     		bne	.L56
 1671              		.loc 1 1132 3 is_stmt 0 discriminator 1
 1672 0012 0223     		movs	r3, #2
 1673 0014 16E0     		b	.L57
 1674              	.L56:
 1675              		.loc 1 1132 3 discriminator 2
 1676 0016 7B68     		ldr	r3, [r7, #4]
 1677 0018 0122     		movs	r2, #1
 1678 001a 83F86C20 		strb	r2, [r3, #108]
1133:Drivers/STM32L4xx_HAL_Driver/Src/stm32l4xx_hal_ltdc.c **** 
1134:Drivers/STM32L4xx_HAL_Driver/Src/stm32l4xx_hal_ltdc.c ****   /* Change LTDC peripheral state */
1135:Drivers/STM32L4xx_HAL_Driver/Src/stm32l4xx_hal_ltdc.c ****   hltdc->State = HAL_LTDC_STATE_BUSY;
 1679              		.loc 1 1135 16 is_stmt 1 discriminator 2
 1680 001e 7B68     		ldr	r3, [r7, #4]
ARM GAS  C:\Users\Morroway\AppData\Local\Temp\cclk5axT.s 			page 50


 1681 0020 0222     		movs	r2, #2
 1682 0022 83F86D20 		strb	r2, [r3, #109]
1136:Drivers/STM32L4xx_HAL_Driver/Src/stm32l4xx_hal_ltdc.c **** 
1137:Drivers/STM32L4xx_HAL_Driver/Src/stm32l4xx_hal_ltdc.c ****   /* Disable Dither by setting DTEN bit */
1138:Drivers/STM32L4xx_HAL_Driver/Src/stm32l4xx_hal_ltdc.c ****   LTDC->GCR &= ~(uint32_t)LTDC_GCR_DEN;
 1683              		.loc 1 1138 13 discriminator 2
 1684 0026 0A4B     		ldr	r3, .L58
 1685 0028 9B69     		ldr	r3, [r3, #24]
 1686 002a 094A     		ldr	r2, .L58
 1687 002c 23F48033 		bic	r3, r3, #65536
 1688 0030 9361     		str	r3, [r2, #24]
1139:Drivers/STM32L4xx_HAL_Driver/Src/stm32l4xx_hal_ltdc.c **** 
1140:Drivers/STM32L4xx_HAL_Driver/Src/stm32l4xx_hal_ltdc.c ****   /* Change the LTDC state*/
1141:Drivers/STM32L4xx_HAL_Driver/Src/stm32l4xx_hal_ltdc.c ****   hltdc->State = HAL_LTDC_STATE_READY;
 1689              		.loc 1 1141 16 discriminator 2
 1690 0032 7B68     		ldr	r3, [r7, #4]
 1691 0034 0122     		movs	r2, #1
 1692 0036 83F86D20 		strb	r2, [r3, #109]
1142:Drivers/STM32L4xx_HAL_Driver/Src/stm32l4xx_hal_ltdc.c **** 
1143:Drivers/STM32L4xx_HAL_Driver/Src/stm32l4xx_hal_ltdc.c ****   /* Process unlocked */
1144:Drivers/STM32L4xx_HAL_Driver/Src/stm32l4xx_hal_ltdc.c ****   __HAL_UNLOCK(hltdc);
 1693              		.loc 1 1144 3 discriminator 2
 1694 003a 7B68     		ldr	r3, [r7, #4]
 1695 003c 0022     		movs	r2, #0
 1696 003e 83F86C20 		strb	r2, [r3, #108]
1145:Drivers/STM32L4xx_HAL_Driver/Src/stm32l4xx_hal_ltdc.c **** 
1146:Drivers/STM32L4xx_HAL_Driver/Src/stm32l4xx_hal_ltdc.c ****   return HAL_OK;
 1697              		.loc 1 1146 10 discriminator 2
 1698 0042 0023     		movs	r3, #0
 1699              	.L57:
1147:Drivers/STM32L4xx_HAL_Driver/Src/stm32l4xx_hal_ltdc.c **** }
 1700              		.loc 1 1147 1
 1701 0044 1846     		mov	r0, r3
 1702 0046 0C37     		adds	r7, r7, #12
 1703              		.cfi_def_cfa_offset 4
 1704 0048 BD46     		mov	sp, r7
 1705              		.cfi_def_cfa_register 13
 1706              		@ sp needed
 1707 004a 5DF8047B 		ldr	r7, [sp], #4
 1708              		.cfi_restore 7
 1709              		.cfi_def_cfa_offset 0
 1710 004e 7047     		bx	lr
 1711              	.L59:
 1712              		.align	2
 1713              	.L58:
 1714 0050 00680140 		.word	1073833984
 1715              		.cfi_endproc
 1716              	.LFE337:
 1718              		.section	.text.HAL_LTDC_SetWindowSize,"ax",%progbits
 1719              		.align	1
 1720              		.global	HAL_LTDC_SetWindowSize
 1721              		.syntax unified
 1722              		.thumb
 1723              		.thumb_func
 1725              	HAL_LTDC_SetWindowSize:
 1726              	.LFB338:
1148:Drivers/STM32L4xx_HAL_Driver/Src/stm32l4xx_hal_ltdc.c **** 
ARM GAS  C:\Users\Morroway\AppData\Local\Temp\cclk5axT.s 			page 51


1149:Drivers/STM32L4xx_HAL_Driver/Src/stm32l4xx_hal_ltdc.c **** /**
1150:Drivers/STM32L4xx_HAL_Driver/Src/stm32l4xx_hal_ltdc.c ****   * @brief  Set the LTDC window size.
1151:Drivers/STM32L4xx_HAL_Driver/Src/stm32l4xx_hal_ltdc.c ****   * @param  hltdc     pointer to a LTDC_HandleTypeDef structure that contains
1152:Drivers/STM32L4xx_HAL_Driver/Src/stm32l4xx_hal_ltdc.c ****   *                   the configuration information for the LTDC.
1153:Drivers/STM32L4xx_HAL_Driver/Src/stm32l4xx_hal_ltdc.c ****   * @param  XSize     LTDC Pixel per line
1154:Drivers/STM32L4xx_HAL_Driver/Src/stm32l4xx_hal_ltdc.c ****   * @param  YSize     LTDC Line number
1155:Drivers/STM32L4xx_HAL_Driver/Src/stm32l4xx_hal_ltdc.c ****   * @param  LayerIdx  LTDC Layer index.
1156:Drivers/STM32L4xx_HAL_Driver/Src/stm32l4xx_hal_ltdc.c ****   *                   This parameter can be one of the following values:
1157:Drivers/STM32L4xx_HAL_Driver/Src/stm32l4xx_hal_ltdc.c ****   *                   LTDC_LAYER_1 (0) or LTDC_LAYER_2 (1)
1158:Drivers/STM32L4xx_HAL_Driver/Src/stm32l4xx_hal_ltdc.c ****   * @retval  HAL status
1159:Drivers/STM32L4xx_HAL_Driver/Src/stm32l4xx_hal_ltdc.c ****   */
1160:Drivers/STM32L4xx_HAL_Driver/Src/stm32l4xx_hal_ltdc.c **** HAL_StatusTypeDef HAL_LTDC_SetWindowSize(LTDC_HandleTypeDef *hltdc, uint32_t XSize, uint32_t YSize,
1161:Drivers/STM32L4xx_HAL_Driver/Src/stm32l4xx_hal_ltdc.c **** {
 1727              		.loc 1 1161 1
 1728              		.cfi_startproc
 1729              		@ args = 0, pretend = 0, frame = 24
 1730              		@ frame_needed = 1, uses_anonymous_args = 0
 1731 0000 80B5     		push	{r7, lr}
 1732              		.cfi_def_cfa_offset 8
 1733              		.cfi_offset 7, -8
 1734              		.cfi_offset 14, -4
 1735 0002 86B0     		sub	sp, sp, #24
 1736              		.cfi_def_cfa_offset 32
 1737 0004 00AF     		add	r7, sp, #0
 1738              		.cfi_def_cfa_register 7
 1739 0006 F860     		str	r0, [r7, #12]
 1740 0008 B960     		str	r1, [r7, #8]
 1741 000a 7A60     		str	r2, [r7, #4]
 1742 000c 3B60     		str	r3, [r7]
1162:Drivers/STM32L4xx_HAL_Driver/Src/stm32l4xx_hal_ltdc.c ****   LTDC_LayerCfgTypeDef *pLayerCfg;
1163:Drivers/STM32L4xx_HAL_Driver/Src/stm32l4xx_hal_ltdc.c **** 
1164:Drivers/STM32L4xx_HAL_Driver/Src/stm32l4xx_hal_ltdc.c ****   /* Check the parameters (Layers parameters)*/
1165:Drivers/STM32L4xx_HAL_Driver/Src/stm32l4xx_hal_ltdc.c ****   assert_param(IS_LTDC_LAYER(LayerIdx));
1166:Drivers/STM32L4xx_HAL_Driver/Src/stm32l4xx_hal_ltdc.c ****   assert_param(IS_LTDC_CFBLL(XSize));
1167:Drivers/STM32L4xx_HAL_Driver/Src/stm32l4xx_hal_ltdc.c ****   assert_param(IS_LTDC_CFBLNBR(YSize));
1168:Drivers/STM32L4xx_HAL_Driver/Src/stm32l4xx_hal_ltdc.c **** 
1169:Drivers/STM32L4xx_HAL_Driver/Src/stm32l4xx_hal_ltdc.c ****   /* Process locked */
1170:Drivers/STM32L4xx_HAL_Driver/Src/stm32l4xx_hal_ltdc.c ****   __HAL_LOCK(hltdc);
 1743              		.loc 1 1170 3
 1744 000e FB68     		ldr	r3, [r7, #12]
 1745 0010 93F86C30 		ldrb	r3, [r3, #108]	@ zero_extendqisi2
 1746 0014 012B     		cmp	r3, #1
 1747 0016 01D1     		bne	.L61
 1748              		.loc 1 1170 3 is_stmt 0 discriminator 1
 1749 0018 0223     		movs	r3, #2
 1750 001a 33E0     		b	.L62
 1751              	.L61:
 1752              		.loc 1 1170 3 discriminator 2
 1753 001c FB68     		ldr	r3, [r7, #12]
 1754 001e 0122     		movs	r2, #1
 1755 0020 83F86C20 		strb	r2, [r3, #108]
1171:Drivers/STM32L4xx_HAL_Driver/Src/stm32l4xx_hal_ltdc.c **** 
1172:Drivers/STM32L4xx_HAL_Driver/Src/stm32l4xx_hal_ltdc.c ****   /* Change LTDC peripheral state */
1173:Drivers/STM32L4xx_HAL_Driver/Src/stm32l4xx_hal_ltdc.c ****   hltdc->State = HAL_LTDC_STATE_BUSY;
 1756              		.loc 1 1173 16 is_stmt 1 discriminator 2
 1757 0024 FB68     		ldr	r3, [r7, #12]
 1758 0026 0222     		movs	r2, #2
ARM GAS  C:\Users\Morroway\AppData\Local\Temp\cclk5axT.s 			page 52


 1759 0028 83F86D20 		strb	r2, [r3, #109]
1174:Drivers/STM32L4xx_HAL_Driver/Src/stm32l4xx_hal_ltdc.c **** 
1175:Drivers/STM32L4xx_HAL_Driver/Src/stm32l4xx_hal_ltdc.c ****   /* Get layer configuration from handle structure */
1176:Drivers/STM32L4xx_HAL_Driver/Src/stm32l4xx_hal_ltdc.c ****   pLayerCfg = &hltdc->LayerCfg[LayerIdx];
 1760              		.loc 1 1176 13 discriminator 2
 1761 002c 3B68     		ldr	r3, [r7]
 1762 002e 3422     		movs	r2, #52
 1763 0030 02FB03F3 		mul	r3, r2, r3
 1764 0034 3833     		adds	r3, r3, #56
 1765 0036 FA68     		ldr	r2, [r7, #12]
 1766 0038 1344     		add	r3, r3, r2
 1767 003a 7B61     		str	r3, [r7, #20]
1177:Drivers/STM32L4xx_HAL_Driver/Src/stm32l4xx_hal_ltdc.c **** 
1178:Drivers/STM32L4xx_HAL_Driver/Src/stm32l4xx_hal_ltdc.c ****   /* update horizontal stop */
1179:Drivers/STM32L4xx_HAL_Driver/Src/stm32l4xx_hal_ltdc.c ****   pLayerCfg->WindowX1 = XSize + pLayerCfg->WindowX0;
 1768              		.loc 1 1179 42 discriminator 2
 1769 003c 7B69     		ldr	r3, [r7, #20]
 1770 003e 1A68     		ldr	r2, [r3]
 1771              		.loc 1 1179 31 discriminator 2
 1772 0040 BB68     		ldr	r3, [r7, #8]
 1773 0042 1A44     		add	r2, r2, r3
 1774              		.loc 1 1179 23 discriminator 2
 1775 0044 7B69     		ldr	r3, [r7, #20]
 1776 0046 5A60     		str	r2, [r3, #4]
1180:Drivers/STM32L4xx_HAL_Driver/Src/stm32l4xx_hal_ltdc.c **** 
1181:Drivers/STM32L4xx_HAL_Driver/Src/stm32l4xx_hal_ltdc.c ****   /* update vertical stop */
1182:Drivers/STM32L4xx_HAL_Driver/Src/stm32l4xx_hal_ltdc.c ****   pLayerCfg->WindowY1 = YSize + pLayerCfg->WindowY0;
 1777              		.loc 1 1182 42 discriminator 2
 1778 0048 7B69     		ldr	r3, [r7, #20]
 1779 004a 9A68     		ldr	r2, [r3, #8]
 1780              		.loc 1 1182 31 discriminator 2
 1781 004c 7B68     		ldr	r3, [r7, #4]
 1782 004e 1A44     		add	r2, r2, r3
 1783              		.loc 1 1182 23 discriminator 2
 1784 0050 7B69     		ldr	r3, [r7, #20]
 1785 0052 DA60     		str	r2, [r3, #12]
1183:Drivers/STM32L4xx_HAL_Driver/Src/stm32l4xx_hal_ltdc.c **** 
1184:Drivers/STM32L4xx_HAL_Driver/Src/stm32l4xx_hal_ltdc.c ****   /* Reconfigures the color frame buffer pitch in byte */
1185:Drivers/STM32L4xx_HAL_Driver/Src/stm32l4xx_hal_ltdc.c ****   pLayerCfg->ImageWidth = XSize;
 1786              		.loc 1 1185 25 discriminator 2
 1787 0054 7B69     		ldr	r3, [r7, #20]
 1788 0056 BA68     		ldr	r2, [r7, #8]
 1789 0058 9A62     		str	r2, [r3, #40]
1186:Drivers/STM32L4xx_HAL_Driver/Src/stm32l4xx_hal_ltdc.c **** 
1187:Drivers/STM32L4xx_HAL_Driver/Src/stm32l4xx_hal_ltdc.c ****   /* Reconfigures the frame buffer line number */
1188:Drivers/STM32L4xx_HAL_Driver/Src/stm32l4xx_hal_ltdc.c ****   pLayerCfg->ImageHeight = YSize;
 1790              		.loc 1 1188 26 discriminator 2
 1791 005a 7B69     		ldr	r3, [r7, #20]
 1792 005c 7A68     		ldr	r2, [r7, #4]
 1793 005e DA62     		str	r2, [r3, #44]
1189:Drivers/STM32L4xx_HAL_Driver/Src/stm32l4xx_hal_ltdc.c **** 
1190:Drivers/STM32L4xx_HAL_Driver/Src/stm32l4xx_hal_ltdc.c ****   /* Set LTDC parameters */
1191:Drivers/STM32L4xx_HAL_Driver/Src/stm32l4xx_hal_ltdc.c ****   LTDC_SetConfig(hltdc, pLayerCfg, LayerIdx);
 1794              		.loc 1 1191 3 discriminator 2
 1795 0060 3A68     		ldr	r2, [r7]
 1796 0062 7969     		ldr	r1, [r7, #20]
 1797 0064 F868     		ldr	r0, [r7, #12]
ARM GAS  C:\Users\Morroway\AppData\Local\Temp\cclk5axT.s 			page 53


 1798 0066 FFF7FEFF 		bl	LTDC_SetConfig
1192:Drivers/STM32L4xx_HAL_Driver/Src/stm32l4xx_hal_ltdc.c **** 
1193:Drivers/STM32L4xx_HAL_Driver/Src/stm32l4xx_hal_ltdc.c ****   /* Set the Immediate Reload type */
1194:Drivers/STM32L4xx_HAL_Driver/Src/stm32l4xx_hal_ltdc.c ****   hltdc->Instance->SRCR = LTDC_SRCR_IMR;
 1799              		.loc 1 1194 8 discriminator 2
 1800 006a FB68     		ldr	r3, [r7, #12]
 1801 006c 1B68     		ldr	r3, [r3]
 1802              		.loc 1 1194 25 discriminator 2
 1803 006e 0122     		movs	r2, #1
 1804 0070 5A62     		str	r2, [r3, #36]
1195:Drivers/STM32L4xx_HAL_Driver/Src/stm32l4xx_hal_ltdc.c **** 
1196:Drivers/STM32L4xx_HAL_Driver/Src/stm32l4xx_hal_ltdc.c ****   /* Change the LTDC state*/
1197:Drivers/STM32L4xx_HAL_Driver/Src/stm32l4xx_hal_ltdc.c ****   hltdc->State = HAL_LTDC_STATE_READY;
 1805              		.loc 1 1197 16 discriminator 2
 1806 0072 FB68     		ldr	r3, [r7, #12]
 1807 0074 0122     		movs	r2, #1
 1808 0076 83F86D20 		strb	r2, [r3, #109]
1198:Drivers/STM32L4xx_HAL_Driver/Src/stm32l4xx_hal_ltdc.c **** 
1199:Drivers/STM32L4xx_HAL_Driver/Src/stm32l4xx_hal_ltdc.c ****   /* Process unlocked */
1200:Drivers/STM32L4xx_HAL_Driver/Src/stm32l4xx_hal_ltdc.c ****   __HAL_UNLOCK(hltdc);
 1809              		.loc 1 1200 3 discriminator 2
 1810 007a FB68     		ldr	r3, [r7, #12]
 1811 007c 0022     		movs	r2, #0
 1812 007e 83F86C20 		strb	r2, [r3, #108]
1201:Drivers/STM32L4xx_HAL_Driver/Src/stm32l4xx_hal_ltdc.c **** 
1202:Drivers/STM32L4xx_HAL_Driver/Src/stm32l4xx_hal_ltdc.c ****   return HAL_OK;
 1813              		.loc 1 1202 10 discriminator 2
 1814 0082 0023     		movs	r3, #0
 1815              	.L62:
1203:Drivers/STM32L4xx_HAL_Driver/Src/stm32l4xx_hal_ltdc.c **** }
 1816              		.loc 1 1203 1
 1817 0084 1846     		mov	r0, r3
 1818 0086 1837     		adds	r7, r7, #24
 1819              		.cfi_def_cfa_offset 8
 1820 0088 BD46     		mov	sp, r7
 1821              		.cfi_def_cfa_register 13
 1822              		@ sp needed
 1823 008a 80BD     		pop	{r7, pc}
 1824              		.cfi_endproc
 1825              	.LFE338:
 1827              		.section	.text.HAL_LTDC_SetWindowPosition,"ax",%progbits
 1828              		.align	1
 1829              		.global	HAL_LTDC_SetWindowPosition
 1830              		.syntax unified
 1831              		.thumb
 1832              		.thumb_func
 1834              	HAL_LTDC_SetWindowPosition:
 1835              	.LFB339:
1204:Drivers/STM32L4xx_HAL_Driver/Src/stm32l4xx_hal_ltdc.c **** 
1205:Drivers/STM32L4xx_HAL_Driver/Src/stm32l4xx_hal_ltdc.c **** /**
1206:Drivers/STM32L4xx_HAL_Driver/Src/stm32l4xx_hal_ltdc.c ****   * @brief  Set the LTDC window position.
1207:Drivers/STM32L4xx_HAL_Driver/Src/stm32l4xx_hal_ltdc.c ****   * @param  hltdc     pointer to a LTDC_HandleTypeDef structure that contains
1208:Drivers/STM32L4xx_HAL_Driver/Src/stm32l4xx_hal_ltdc.c ****   *                   the configuration information for the LTDC.
1209:Drivers/STM32L4xx_HAL_Driver/Src/stm32l4xx_hal_ltdc.c ****   * @param  X0        LTDC window X offset
1210:Drivers/STM32L4xx_HAL_Driver/Src/stm32l4xx_hal_ltdc.c ****   * @param  Y0        LTDC window Y offset
1211:Drivers/STM32L4xx_HAL_Driver/Src/stm32l4xx_hal_ltdc.c ****   * @param  LayerIdx  LTDC Layer index.
1212:Drivers/STM32L4xx_HAL_Driver/Src/stm32l4xx_hal_ltdc.c ****   *                         This parameter can be one of the following values:
ARM GAS  C:\Users\Morroway\AppData\Local\Temp\cclk5axT.s 			page 54


1213:Drivers/STM32L4xx_HAL_Driver/Src/stm32l4xx_hal_ltdc.c ****   *                         LTDC_LAYER_1 (0) or LTDC_LAYER_2 (1)
1214:Drivers/STM32L4xx_HAL_Driver/Src/stm32l4xx_hal_ltdc.c ****   * @retval  HAL status
1215:Drivers/STM32L4xx_HAL_Driver/Src/stm32l4xx_hal_ltdc.c ****   */
1216:Drivers/STM32L4xx_HAL_Driver/Src/stm32l4xx_hal_ltdc.c **** HAL_StatusTypeDef HAL_LTDC_SetWindowPosition(LTDC_HandleTypeDef *hltdc, uint32_t X0, uint32_t Y0, u
1217:Drivers/STM32L4xx_HAL_Driver/Src/stm32l4xx_hal_ltdc.c **** {
 1836              		.loc 1 1217 1
 1837              		.cfi_startproc
 1838              		@ args = 0, pretend = 0, frame = 24
 1839              		@ frame_needed = 1, uses_anonymous_args = 0
 1840 0000 80B5     		push	{r7, lr}
 1841              		.cfi_def_cfa_offset 8
 1842              		.cfi_offset 7, -8
 1843              		.cfi_offset 14, -4
 1844 0002 86B0     		sub	sp, sp, #24
 1845              		.cfi_def_cfa_offset 32
 1846 0004 00AF     		add	r7, sp, #0
 1847              		.cfi_def_cfa_register 7
 1848 0006 F860     		str	r0, [r7, #12]
 1849 0008 B960     		str	r1, [r7, #8]
 1850 000a 7A60     		str	r2, [r7, #4]
 1851 000c 3B60     		str	r3, [r7]
1218:Drivers/STM32L4xx_HAL_Driver/Src/stm32l4xx_hal_ltdc.c ****   LTDC_LayerCfgTypeDef *pLayerCfg;
1219:Drivers/STM32L4xx_HAL_Driver/Src/stm32l4xx_hal_ltdc.c **** 
1220:Drivers/STM32L4xx_HAL_Driver/Src/stm32l4xx_hal_ltdc.c ****   /* Check the parameters */
1221:Drivers/STM32L4xx_HAL_Driver/Src/stm32l4xx_hal_ltdc.c ****   assert_param(IS_LTDC_LAYER(LayerIdx));
1222:Drivers/STM32L4xx_HAL_Driver/Src/stm32l4xx_hal_ltdc.c ****   assert_param(IS_LTDC_CFBLL(X0));
1223:Drivers/STM32L4xx_HAL_Driver/Src/stm32l4xx_hal_ltdc.c ****   assert_param(IS_LTDC_CFBLNBR(Y0));
1224:Drivers/STM32L4xx_HAL_Driver/Src/stm32l4xx_hal_ltdc.c **** 
1225:Drivers/STM32L4xx_HAL_Driver/Src/stm32l4xx_hal_ltdc.c ****   /* Process locked */
1226:Drivers/STM32L4xx_HAL_Driver/Src/stm32l4xx_hal_ltdc.c ****   __HAL_LOCK(hltdc);
 1852              		.loc 1 1226 3
 1853 000e FB68     		ldr	r3, [r7, #12]
 1854 0010 93F86C30 		ldrb	r3, [r3, #108]	@ zero_extendqisi2
 1855 0014 012B     		cmp	r3, #1
 1856 0016 01D1     		bne	.L64
 1857              		.loc 1 1226 3 is_stmt 0 discriminator 1
 1858 0018 0223     		movs	r3, #2
 1859 001a 33E0     		b	.L65
 1860              	.L64:
 1861              		.loc 1 1226 3 discriminator 2
 1862 001c FB68     		ldr	r3, [r7, #12]
 1863 001e 0122     		movs	r2, #1
 1864 0020 83F86C20 		strb	r2, [r3, #108]
1227:Drivers/STM32L4xx_HAL_Driver/Src/stm32l4xx_hal_ltdc.c **** 
1228:Drivers/STM32L4xx_HAL_Driver/Src/stm32l4xx_hal_ltdc.c ****   /* Change LTDC peripheral state */
1229:Drivers/STM32L4xx_HAL_Driver/Src/stm32l4xx_hal_ltdc.c ****   hltdc->State = HAL_LTDC_STATE_BUSY;
 1865              		.loc 1 1229 16 is_stmt 1 discriminator 2
 1866 0024 FB68     		ldr	r3, [r7, #12]
 1867 0026 0222     		movs	r2, #2
 1868 0028 83F86D20 		strb	r2, [r3, #109]
1230:Drivers/STM32L4xx_HAL_Driver/Src/stm32l4xx_hal_ltdc.c **** 
1231:Drivers/STM32L4xx_HAL_Driver/Src/stm32l4xx_hal_ltdc.c ****   /* Get layer configuration from handle structure */
1232:Drivers/STM32L4xx_HAL_Driver/Src/stm32l4xx_hal_ltdc.c ****   pLayerCfg = &hltdc->LayerCfg[LayerIdx];
 1869              		.loc 1 1232 13 discriminator 2
 1870 002c 3B68     		ldr	r3, [r7]
 1871 002e 3422     		movs	r2, #52
 1872 0030 02FB03F3 		mul	r3, r2, r3
ARM GAS  C:\Users\Morroway\AppData\Local\Temp\cclk5axT.s 			page 55


 1873 0034 3833     		adds	r3, r3, #56
 1874 0036 FA68     		ldr	r2, [r7, #12]
 1875 0038 1344     		add	r3, r3, r2
 1876 003a 7B61     		str	r3, [r7, #20]
1233:Drivers/STM32L4xx_HAL_Driver/Src/stm32l4xx_hal_ltdc.c **** 
1234:Drivers/STM32L4xx_HAL_Driver/Src/stm32l4xx_hal_ltdc.c ****   /* update horizontal start/stop */
1235:Drivers/STM32L4xx_HAL_Driver/Src/stm32l4xx_hal_ltdc.c ****   pLayerCfg->WindowX0 = X0;
 1877              		.loc 1 1235 23 discriminator 2
 1878 003c 7B69     		ldr	r3, [r7, #20]
 1879 003e BA68     		ldr	r2, [r7, #8]
 1880 0040 1A60     		str	r2, [r3]
1236:Drivers/STM32L4xx_HAL_Driver/Src/stm32l4xx_hal_ltdc.c ****   pLayerCfg->WindowX1 = X0 + pLayerCfg->ImageWidth;
 1881              		.loc 1 1236 39 discriminator 2
 1882 0042 7B69     		ldr	r3, [r7, #20]
 1883 0044 9A6A     		ldr	r2, [r3, #40]
 1884              		.loc 1 1236 28 discriminator 2
 1885 0046 BB68     		ldr	r3, [r7, #8]
 1886 0048 1A44     		add	r2, r2, r3
 1887              		.loc 1 1236 23 discriminator 2
 1888 004a 7B69     		ldr	r3, [r7, #20]
 1889 004c 5A60     		str	r2, [r3, #4]
1237:Drivers/STM32L4xx_HAL_Driver/Src/stm32l4xx_hal_ltdc.c **** 
1238:Drivers/STM32L4xx_HAL_Driver/Src/stm32l4xx_hal_ltdc.c ****   /* update vertical start/stop */
1239:Drivers/STM32L4xx_HAL_Driver/Src/stm32l4xx_hal_ltdc.c ****   pLayerCfg->WindowY0 = Y0;
 1890              		.loc 1 1239 23 discriminator 2
 1891 004e 7B69     		ldr	r3, [r7, #20]
 1892 0050 7A68     		ldr	r2, [r7, #4]
 1893 0052 9A60     		str	r2, [r3, #8]
1240:Drivers/STM32L4xx_HAL_Driver/Src/stm32l4xx_hal_ltdc.c ****   pLayerCfg->WindowY1 = Y0 + pLayerCfg->ImageHeight;
 1894              		.loc 1 1240 39 discriminator 2
 1895 0054 7B69     		ldr	r3, [r7, #20]
 1896 0056 DA6A     		ldr	r2, [r3, #44]
 1897              		.loc 1 1240 28 discriminator 2
 1898 0058 7B68     		ldr	r3, [r7, #4]
 1899 005a 1A44     		add	r2, r2, r3
 1900              		.loc 1 1240 23 discriminator 2
 1901 005c 7B69     		ldr	r3, [r7, #20]
 1902 005e DA60     		str	r2, [r3, #12]
1241:Drivers/STM32L4xx_HAL_Driver/Src/stm32l4xx_hal_ltdc.c **** 
1242:Drivers/STM32L4xx_HAL_Driver/Src/stm32l4xx_hal_ltdc.c ****   /* Set LTDC parameters */
1243:Drivers/STM32L4xx_HAL_Driver/Src/stm32l4xx_hal_ltdc.c ****   LTDC_SetConfig(hltdc, pLayerCfg, LayerIdx);
 1903              		.loc 1 1243 3 discriminator 2
 1904 0060 3A68     		ldr	r2, [r7]
 1905 0062 7969     		ldr	r1, [r7, #20]
 1906 0064 F868     		ldr	r0, [r7, #12]
 1907 0066 FFF7FEFF 		bl	LTDC_SetConfig
1244:Drivers/STM32L4xx_HAL_Driver/Src/stm32l4xx_hal_ltdc.c **** 
1245:Drivers/STM32L4xx_HAL_Driver/Src/stm32l4xx_hal_ltdc.c ****   /* Set the Immediate Reload type */
1246:Drivers/STM32L4xx_HAL_Driver/Src/stm32l4xx_hal_ltdc.c ****   hltdc->Instance->SRCR = LTDC_SRCR_IMR;
 1908              		.loc 1 1246 8 discriminator 2
 1909 006a FB68     		ldr	r3, [r7, #12]
 1910 006c 1B68     		ldr	r3, [r3]
 1911              		.loc 1 1246 25 discriminator 2
 1912 006e 0122     		movs	r2, #1
 1913 0070 5A62     		str	r2, [r3, #36]
1247:Drivers/STM32L4xx_HAL_Driver/Src/stm32l4xx_hal_ltdc.c **** 
1248:Drivers/STM32L4xx_HAL_Driver/Src/stm32l4xx_hal_ltdc.c ****   /* Change the LTDC state*/
ARM GAS  C:\Users\Morroway\AppData\Local\Temp\cclk5axT.s 			page 56


1249:Drivers/STM32L4xx_HAL_Driver/Src/stm32l4xx_hal_ltdc.c ****   hltdc->State = HAL_LTDC_STATE_READY;
 1914              		.loc 1 1249 16 discriminator 2
 1915 0072 FB68     		ldr	r3, [r7, #12]
 1916 0074 0122     		movs	r2, #1
 1917 0076 83F86D20 		strb	r2, [r3, #109]
1250:Drivers/STM32L4xx_HAL_Driver/Src/stm32l4xx_hal_ltdc.c **** 
1251:Drivers/STM32L4xx_HAL_Driver/Src/stm32l4xx_hal_ltdc.c ****   /* Process unlocked */
1252:Drivers/STM32L4xx_HAL_Driver/Src/stm32l4xx_hal_ltdc.c ****   __HAL_UNLOCK(hltdc);
 1918              		.loc 1 1252 3 discriminator 2
 1919 007a FB68     		ldr	r3, [r7, #12]
 1920 007c 0022     		movs	r2, #0
 1921 007e 83F86C20 		strb	r2, [r3, #108]
1253:Drivers/STM32L4xx_HAL_Driver/Src/stm32l4xx_hal_ltdc.c **** 
1254:Drivers/STM32L4xx_HAL_Driver/Src/stm32l4xx_hal_ltdc.c ****   return HAL_OK;
 1922              		.loc 1 1254 10 discriminator 2
 1923 0082 0023     		movs	r3, #0
 1924              	.L65:
1255:Drivers/STM32L4xx_HAL_Driver/Src/stm32l4xx_hal_ltdc.c **** }
 1925              		.loc 1 1255 1
 1926 0084 1846     		mov	r0, r3
 1927 0086 1837     		adds	r7, r7, #24
 1928              		.cfi_def_cfa_offset 8
 1929 0088 BD46     		mov	sp, r7
 1930              		.cfi_def_cfa_register 13
 1931              		@ sp needed
 1932 008a 80BD     		pop	{r7, pc}
 1933              		.cfi_endproc
 1934              	.LFE339:
 1936              		.section	.text.HAL_LTDC_SetPixelFormat,"ax",%progbits
 1937              		.align	1
 1938              		.global	HAL_LTDC_SetPixelFormat
 1939              		.syntax unified
 1940              		.thumb
 1941              		.thumb_func
 1943              	HAL_LTDC_SetPixelFormat:
 1944              	.LFB340:
1256:Drivers/STM32L4xx_HAL_Driver/Src/stm32l4xx_hal_ltdc.c **** 
1257:Drivers/STM32L4xx_HAL_Driver/Src/stm32l4xx_hal_ltdc.c **** /**
1258:Drivers/STM32L4xx_HAL_Driver/Src/stm32l4xx_hal_ltdc.c ****   * @brief  Reconfigure the pixel format.
1259:Drivers/STM32L4xx_HAL_Driver/Src/stm32l4xx_hal_ltdc.c ****   * @param  hltdc        pointer to a LTDC_HandleTypeDef structure that contains
1260:Drivers/STM32L4xx_HAL_Driver/Src/stm32l4xx_hal_ltdc.c ****   *                      the configuration information for the LTDC.
1261:Drivers/STM32L4xx_HAL_Driver/Src/stm32l4xx_hal_ltdc.c ****   * @param  Pixelformat  new pixel format value.
1262:Drivers/STM32L4xx_HAL_Driver/Src/stm32l4xx_hal_ltdc.c ****   * @param  LayerIdx     LTDC Layer index.
1263:Drivers/STM32L4xx_HAL_Driver/Src/stm32l4xx_hal_ltdc.c ****   *                      This parameter can be one of the following values:
1264:Drivers/STM32L4xx_HAL_Driver/Src/stm32l4xx_hal_ltdc.c ****   *                      LTDC_LAYER_1 (0) or LTDC_LAYER_2 (1).
1265:Drivers/STM32L4xx_HAL_Driver/Src/stm32l4xx_hal_ltdc.c ****   * @retval  HAL status
1266:Drivers/STM32L4xx_HAL_Driver/Src/stm32l4xx_hal_ltdc.c ****   */
1267:Drivers/STM32L4xx_HAL_Driver/Src/stm32l4xx_hal_ltdc.c **** HAL_StatusTypeDef HAL_LTDC_SetPixelFormat(LTDC_HandleTypeDef *hltdc, uint32_t Pixelformat, uint32_t
1268:Drivers/STM32L4xx_HAL_Driver/Src/stm32l4xx_hal_ltdc.c **** {
 1945              		.loc 1 1268 1
 1946              		.cfi_startproc
 1947              		@ args = 0, pretend = 0, frame = 24
 1948              		@ frame_needed = 1, uses_anonymous_args = 0
 1949 0000 80B5     		push	{r7, lr}
 1950              		.cfi_def_cfa_offset 8
 1951              		.cfi_offset 7, -8
 1952              		.cfi_offset 14, -4
ARM GAS  C:\Users\Morroway\AppData\Local\Temp\cclk5axT.s 			page 57


 1953 0002 86B0     		sub	sp, sp, #24
 1954              		.cfi_def_cfa_offset 32
 1955 0004 00AF     		add	r7, sp, #0
 1956              		.cfi_def_cfa_register 7
 1957 0006 F860     		str	r0, [r7, #12]
 1958 0008 B960     		str	r1, [r7, #8]
 1959 000a 7A60     		str	r2, [r7, #4]
1269:Drivers/STM32L4xx_HAL_Driver/Src/stm32l4xx_hal_ltdc.c ****   LTDC_LayerCfgTypeDef *pLayerCfg;
1270:Drivers/STM32L4xx_HAL_Driver/Src/stm32l4xx_hal_ltdc.c **** 
1271:Drivers/STM32L4xx_HAL_Driver/Src/stm32l4xx_hal_ltdc.c ****   /* Check the parameters */
1272:Drivers/STM32L4xx_HAL_Driver/Src/stm32l4xx_hal_ltdc.c ****   assert_param(IS_LTDC_PIXEL_FORMAT(Pixelformat));
1273:Drivers/STM32L4xx_HAL_Driver/Src/stm32l4xx_hal_ltdc.c ****   assert_param(IS_LTDC_LAYER(LayerIdx));
1274:Drivers/STM32L4xx_HAL_Driver/Src/stm32l4xx_hal_ltdc.c **** 
1275:Drivers/STM32L4xx_HAL_Driver/Src/stm32l4xx_hal_ltdc.c ****   /* Process locked */
1276:Drivers/STM32L4xx_HAL_Driver/Src/stm32l4xx_hal_ltdc.c ****   __HAL_LOCK(hltdc);
 1960              		.loc 1 1276 3
 1961 000c FB68     		ldr	r3, [r7, #12]
 1962 000e 93F86C30 		ldrb	r3, [r3, #108]	@ zero_extendqisi2
 1963 0012 012B     		cmp	r3, #1
 1964 0014 01D1     		bne	.L67
 1965              		.loc 1 1276 3 is_stmt 0 discriminator 1
 1966 0016 0223     		movs	r3, #2
 1967 0018 24E0     		b	.L68
 1968              	.L67:
 1969              		.loc 1 1276 3 discriminator 2
 1970 001a FB68     		ldr	r3, [r7, #12]
 1971 001c 0122     		movs	r2, #1
 1972 001e 83F86C20 		strb	r2, [r3, #108]
1277:Drivers/STM32L4xx_HAL_Driver/Src/stm32l4xx_hal_ltdc.c **** 
1278:Drivers/STM32L4xx_HAL_Driver/Src/stm32l4xx_hal_ltdc.c ****   /* Change LTDC peripheral state */
1279:Drivers/STM32L4xx_HAL_Driver/Src/stm32l4xx_hal_ltdc.c ****   hltdc->State = HAL_LTDC_STATE_BUSY;
 1973              		.loc 1 1279 16 is_stmt 1 discriminator 2
 1974 0022 FB68     		ldr	r3, [r7, #12]
 1975 0024 0222     		movs	r2, #2
 1976 0026 83F86D20 		strb	r2, [r3, #109]
1280:Drivers/STM32L4xx_HAL_Driver/Src/stm32l4xx_hal_ltdc.c **** 
1281:Drivers/STM32L4xx_HAL_Driver/Src/stm32l4xx_hal_ltdc.c ****   /* Get layer configuration from handle structure */
1282:Drivers/STM32L4xx_HAL_Driver/Src/stm32l4xx_hal_ltdc.c ****   pLayerCfg = &hltdc->LayerCfg[LayerIdx];
 1977              		.loc 1 1282 13 discriminator 2
 1978 002a 7B68     		ldr	r3, [r7, #4]
 1979 002c 3422     		movs	r2, #52
 1980 002e 02FB03F3 		mul	r3, r2, r3
 1981 0032 3833     		adds	r3, r3, #56
 1982 0034 FA68     		ldr	r2, [r7, #12]
 1983 0036 1344     		add	r3, r3, r2
 1984 0038 7B61     		str	r3, [r7, #20]
1283:Drivers/STM32L4xx_HAL_Driver/Src/stm32l4xx_hal_ltdc.c **** 
1284:Drivers/STM32L4xx_HAL_Driver/Src/stm32l4xx_hal_ltdc.c ****   /* Reconfigure the pixel format */
1285:Drivers/STM32L4xx_HAL_Driver/Src/stm32l4xx_hal_ltdc.c ****   pLayerCfg->PixelFormat = Pixelformat;
 1985              		.loc 1 1285 26 discriminator 2
 1986 003a 7B69     		ldr	r3, [r7, #20]
 1987 003c BA68     		ldr	r2, [r7, #8]
 1988 003e 1A61     		str	r2, [r3, #16]
1286:Drivers/STM32L4xx_HAL_Driver/Src/stm32l4xx_hal_ltdc.c **** 
1287:Drivers/STM32L4xx_HAL_Driver/Src/stm32l4xx_hal_ltdc.c ****   /* Set LTDC parameters */
1288:Drivers/STM32L4xx_HAL_Driver/Src/stm32l4xx_hal_ltdc.c ****   LTDC_SetConfig(hltdc, pLayerCfg, LayerIdx);
 1989              		.loc 1 1288 3 discriminator 2
ARM GAS  C:\Users\Morroway\AppData\Local\Temp\cclk5axT.s 			page 58


 1990 0040 7A68     		ldr	r2, [r7, #4]
 1991 0042 7969     		ldr	r1, [r7, #20]
 1992 0044 F868     		ldr	r0, [r7, #12]
 1993 0046 FFF7FEFF 		bl	LTDC_SetConfig
1289:Drivers/STM32L4xx_HAL_Driver/Src/stm32l4xx_hal_ltdc.c **** 
1290:Drivers/STM32L4xx_HAL_Driver/Src/stm32l4xx_hal_ltdc.c ****   /* Set the Immediate Reload type */
1291:Drivers/STM32L4xx_HAL_Driver/Src/stm32l4xx_hal_ltdc.c ****   hltdc->Instance->SRCR = LTDC_SRCR_IMR;
 1994              		.loc 1 1291 8 discriminator 2
 1995 004a FB68     		ldr	r3, [r7, #12]
 1996 004c 1B68     		ldr	r3, [r3]
 1997              		.loc 1 1291 25 discriminator 2
 1998 004e 0122     		movs	r2, #1
 1999 0050 5A62     		str	r2, [r3, #36]
1292:Drivers/STM32L4xx_HAL_Driver/Src/stm32l4xx_hal_ltdc.c **** 
1293:Drivers/STM32L4xx_HAL_Driver/Src/stm32l4xx_hal_ltdc.c ****   /* Change the LTDC state*/
1294:Drivers/STM32L4xx_HAL_Driver/Src/stm32l4xx_hal_ltdc.c ****   hltdc->State = HAL_LTDC_STATE_READY;
 2000              		.loc 1 1294 16 discriminator 2
 2001 0052 FB68     		ldr	r3, [r7, #12]
 2002 0054 0122     		movs	r2, #1
 2003 0056 83F86D20 		strb	r2, [r3, #109]
1295:Drivers/STM32L4xx_HAL_Driver/Src/stm32l4xx_hal_ltdc.c **** 
1296:Drivers/STM32L4xx_HAL_Driver/Src/stm32l4xx_hal_ltdc.c ****   /* Process unlocked */
1297:Drivers/STM32L4xx_HAL_Driver/Src/stm32l4xx_hal_ltdc.c ****   __HAL_UNLOCK(hltdc);
 2004              		.loc 1 1297 3 discriminator 2
 2005 005a FB68     		ldr	r3, [r7, #12]
 2006 005c 0022     		movs	r2, #0
 2007 005e 83F86C20 		strb	r2, [r3, #108]
1298:Drivers/STM32L4xx_HAL_Driver/Src/stm32l4xx_hal_ltdc.c **** 
1299:Drivers/STM32L4xx_HAL_Driver/Src/stm32l4xx_hal_ltdc.c ****   return HAL_OK;
 2008              		.loc 1 1299 10 discriminator 2
 2009 0062 0023     		movs	r3, #0
 2010              	.L68:
1300:Drivers/STM32L4xx_HAL_Driver/Src/stm32l4xx_hal_ltdc.c **** }
 2011              		.loc 1 1300 1
 2012 0064 1846     		mov	r0, r3
 2013 0066 1837     		adds	r7, r7, #24
 2014              		.cfi_def_cfa_offset 8
 2015 0068 BD46     		mov	sp, r7
 2016              		.cfi_def_cfa_register 13
 2017              		@ sp needed
 2018 006a 80BD     		pop	{r7, pc}
 2019              		.cfi_endproc
 2020              	.LFE340:
 2022              		.section	.text.HAL_LTDC_SetAlpha,"ax",%progbits
 2023              		.align	1
 2024              		.global	HAL_LTDC_SetAlpha
 2025              		.syntax unified
 2026              		.thumb
 2027              		.thumb_func
 2029              	HAL_LTDC_SetAlpha:
 2030              	.LFB341:
1301:Drivers/STM32L4xx_HAL_Driver/Src/stm32l4xx_hal_ltdc.c **** 
1302:Drivers/STM32L4xx_HAL_Driver/Src/stm32l4xx_hal_ltdc.c **** /**
1303:Drivers/STM32L4xx_HAL_Driver/Src/stm32l4xx_hal_ltdc.c ****   * @brief  Reconfigure the layer alpha value.
1304:Drivers/STM32L4xx_HAL_Driver/Src/stm32l4xx_hal_ltdc.c ****   * @param  hltdc     pointer to a LTDC_HandleTypeDef structure that contains
1305:Drivers/STM32L4xx_HAL_Driver/Src/stm32l4xx_hal_ltdc.c ****   *                   the configuration information for the LTDC.
1306:Drivers/STM32L4xx_HAL_Driver/Src/stm32l4xx_hal_ltdc.c ****   * @param  Alpha     new alpha value.
ARM GAS  C:\Users\Morroway\AppData\Local\Temp\cclk5axT.s 			page 59


1307:Drivers/STM32L4xx_HAL_Driver/Src/stm32l4xx_hal_ltdc.c ****   * @param  LayerIdx  LTDC Layer index.
1308:Drivers/STM32L4xx_HAL_Driver/Src/stm32l4xx_hal_ltdc.c ****   *                   This parameter can be one of the following values:
1309:Drivers/STM32L4xx_HAL_Driver/Src/stm32l4xx_hal_ltdc.c ****   *                   LTDC_LAYER_1 (0) or LTDC_LAYER_2 (1)
1310:Drivers/STM32L4xx_HAL_Driver/Src/stm32l4xx_hal_ltdc.c ****   * @retval  HAL status
1311:Drivers/STM32L4xx_HAL_Driver/Src/stm32l4xx_hal_ltdc.c ****   */
1312:Drivers/STM32L4xx_HAL_Driver/Src/stm32l4xx_hal_ltdc.c **** HAL_StatusTypeDef HAL_LTDC_SetAlpha(LTDC_HandleTypeDef *hltdc, uint32_t Alpha, uint32_t LayerIdx)
1313:Drivers/STM32L4xx_HAL_Driver/Src/stm32l4xx_hal_ltdc.c **** {
 2031              		.loc 1 1313 1
 2032              		.cfi_startproc
 2033              		@ args = 0, pretend = 0, frame = 24
 2034              		@ frame_needed = 1, uses_anonymous_args = 0
 2035 0000 80B5     		push	{r7, lr}
 2036              		.cfi_def_cfa_offset 8
 2037              		.cfi_offset 7, -8
 2038              		.cfi_offset 14, -4
 2039 0002 86B0     		sub	sp, sp, #24
 2040              		.cfi_def_cfa_offset 32
 2041 0004 00AF     		add	r7, sp, #0
 2042              		.cfi_def_cfa_register 7
 2043 0006 F860     		str	r0, [r7, #12]
 2044 0008 B960     		str	r1, [r7, #8]
 2045 000a 7A60     		str	r2, [r7, #4]
1314:Drivers/STM32L4xx_HAL_Driver/Src/stm32l4xx_hal_ltdc.c ****   LTDC_LayerCfgTypeDef *pLayerCfg;
1315:Drivers/STM32L4xx_HAL_Driver/Src/stm32l4xx_hal_ltdc.c **** 
1316:Drivers/STM32L4xx_HAL_Driver/Src/stm32l4xx_hal_ltdc.c ****   /* Check the parameters */
1317:Drivers/STM32L4xx_HAL_Driver/Src/stm32l4xx_hal_ltdc.c ****   assert_param(IS_LTDC_ALPHA(Alpha));
1318:Drivers/STM32L4xx_HAL_Driver/Src/stm32l4xx_hal_ltdc.c ****   assert_param(IS_LTDC_LAYER(LayerIdx));
1319:Drivers/STM32L4xx_HAL_Driver/Src/stm32l4xx_hal_ltdc.c **** 
1320:Drivers/STM32L4xx_HAL_Driver/Src/stm32l4xx_hal_ltdc.c ****   /* Process locked */
1321:Drivers/STM32L4xx_HAL_Driver/Src/stm32l4xx_hal_ltdc.c ****   __HAL_LOCK(hltdc);
 2046              		.loc 1 1321 3
 2047 000c FB68     		ldr	r3, [r7, #12]
 2048 000e 93F86C30 		ldrb	r3, [r3, #108]	@ zero_extendqisi2
 2049 0012 012B     		cmp	r3, #1
 2050 0014 01D1     		bne	.L70
 2051              		.loc 1 1321 3 is_stmt 0 discriminator 1
 2052 0016 0223     		movs	r3, #2
 2053 0018 24E0     		b	.L71
 2054              	.L70:
 2055              		.loc 1 1321 3 discriminator 2
 2056 001a FB68     		ldr	r3, [r7, #12]
 2057 001c 0122     		movs	r2, #1
 2058 001e 83F86C20 		strb	r2, [r3, #108]
1322:Drivers/STM32L4xx_HAL_Driver/Src/stm32l4xx_hal_ltdc.c **** 
1323:Drivers/STM32L4xx_HAL_Driver/Src/stm32l4xx_hal_ltdc.c ****   /* Change LTDC peripheral state */
1324:Drivers/STM32L4xx_HAL_Driver/Src/stm32l4xx_hal_ltdc.c ****   hltdc->State = HAL_LTDC_STATE_BUSY;
 2059              		.loc 1 1324 16 is_stmt 1 discriminator 2
 2060 0022 FB68     		ldr	r3, [r7, #12]
 2061 0024 0222     		movs	r2, #2
 2062 0026 83F86D20 		strb	r2, [r3, #109]
1325:Drivers/STM32L4xx_HAL_Driver/Src/stm32l4xx_hal_ltdc.c **** 
1326:Drivers/STM32L4xx_HAL_Driver/Src/stm32l4xx_hal_ltdc.c ****   /* Get layer configuration from handle structure */
1327:Drivers/STM32L4xx_HAL_Driver/Src/stm32l4xx_hal_ltdc.c ****   pLayerCfg = &hltdc->LayerCfg[LayerIdx];
 2063              		.loc 1 1327 13 discriminator 2
 2064 002a 7B68     		ldr	r3, [r7, #4]
 2065 002c 3422     		movs	r2, #52
 2066 002e 02FB03F3 		mul	r3, r2, r3
ARM GAS  C:\Users\Morroway\AppData\Local\Temp\cclk5axT.s 			page 60


 2067 0032 3833     		adds	r3, r3, #56
 2068 0034 FA68     		ldr	r2, [r7, #12]
 2069 0036 1344     		add	r3, r3, r2
 2070 0038 7B61     		str	r3, [r7, #20]
1328:Drivers/STM32L4xx_HAL_Driver/Src/stm32l4xx_hal_ltdc.c **** 
1329:Drivers/STM32L4xx_HAL_Driver/Src/stm32l4xx_hal_ltdc.c ****   /* Reconfigure the Alpha value */
1330:Drivers/STM32L4xx_HAL_Driver/Src/stm32l4xx_hal_ltdc.c ****   pLayerCfg->Alpha = Alpha;
 2071              		.loc 1 1330 20 discriminator 2
 2072 003a 7B69     		ldr	r3, [r7, #20]
 2073 003c BA68     		ldr	r2, [r7, #8]
 2074 003e 5A61     		str	r2, [r3, #20]
1331:Drivers/STM32L4xx_HAL_Driver/Src/stm32l4xx_hal_ltdc.c **** 
1332:Drivers/STM32L4xx_HAL_Driver/Src/stm32l4xx_hal_ltdc.c ****   /* Set LTDC parameters */
1333:Drivers/STM32L4xx_HAL_Driver/Src/stm32l4xx_hal_ltdc.c ****   LTDC_SetConfig(hltdc, pLayerCfg, LayerIdx);
 2075              		.loc 1 1333 3 discriminator 2
 2076 0040 7A68     		ldr	r2, [r7, #4]
 2077 0042 7969     		ldr	r1, [r7, #20]
 2078 0044 F868     		ldr	r0, [r7, #12]
 2079 0046 FFF7FEFF 		bl	LTDC_SetConfig
1334:Drivers/STM32L4xx_HAL_Driver/Src/stm32l4xx_hal_ltdc.c **** 
1335:Drivers/STM32L4xx_HAL_Driver/Src/stm32l4xx_hal_ltdc.c ****   /* Set the Immediate Reload type */
1336:Drivers/STM32L4xx_HAL_Driver/Src/stm32l4xx_hal_ltdc.c ****   hltdc->Instance->SRCR = LTDC_SRCR_IMR;
 2080              		.loc 1 1336 8 discriminator 2
 2081 004a FB68     		ldr	r3, [r7, #12]
 2082 004c 1B68     		ldr	r3, [r3]
 2083              		.loc 1 1336 25 discriminator 2
 2084 004e 0122     		movs	r2, #1
 2085 0050 5A62     		str	r2, [r3, #36]
1337:Drivers/STM32L4xx_HAL_Driver/Src/stm32l4xx_hal_ltdc.c **** 
1338:Drivers/STM32L4xx_HAL_Driver/Src/stm32l4xx_hal_ltdc.c ****   /* Change the LTDC state*/
1339:Drivers/STM32L4xx_HAL_Driver/Src/stm32l4xx_hal_ltdc.c ****   hltdc->State = HAL_LTDC_STATE_READY;
 2086              		.loc 1 1339 16 discriminator 2
 2087 0052 FB68     		ldr	r3, [r7, #12]
 2088 0054 0122     		movs	r2, #1
 2089 0056 83F86D20 		strb	r2, [r3, #109]
1340:Drivers/STM32L4xx_HAL_Driver/Src/stm32l4xx_hal_ltdc.c **** 
1341:Drivers/STM32L4xx_HAL_Driver/Src/stm32l4xx_hal_ltdc.c ****   /* Process unlocked */
1342:Drivers/STM32L4xx_HAL_Driver/Src/stm32l4xx_hal_ltdc.c ****   __HAL_UNLOCK(hltdc);
 2090              		.loc 1 1342 3 discriminator 2
 2091 005a FB68     		ldr	r3, [r7, #12]
 2092 005c 0022     		movs	r2, #0
 2093 005e 83F86C20 		strb	r2, [r3, #108]
1343:Drivers/STM32L4xx_HAL_Driver/Src/stm32l4xx_hal_ltdc.c **** 
1344:Drivers/STM32L4xx_HAL_Driver/Src/stm32l4xx_hal_ltdc.c ****   return HAL_OK;
 2094              		.loc 1 1344 10 discriminator 2
 2095 0062 0023     		movs	r3, #0
 2096              	.L71:
1345:Drivers/STM32L4xx_HAL_Driver/Src/stm32l4xx_hal_ltdc.c **** }
 2097              		.loc 1 1345 1
 2098 0064 1846     		mov	r0, r3
 2099 0066 1837     		adds	r7, r7, #24
 2100              		.cfi_def_cfa_offset 8
 2101 0068 BD46     		mov	sp, r7
 2102              		.cfi_def_cfa_register 13
 2103              		@ sp needed
 2104 006a 80BD     		pop	{r7, pc}
 2105              		.cfi_endproc
ARM GAS  C:\Users\Morroway\AppData\Local\Temp\cclk5axT.s 			page 61


 2106              	.LFE341:
 2108              		.section	.text.HAL_LTDC_SetAddress,"ax",%progbits
 2109              		.align	1
 2110              		.global	HAL_LTDC_SetAddress
 2111              		.syntax unified
 2112              		.thumb
 2113              		.thumb_func
 2115              	HAL_LTDC_SetAddress:
 2116              	.LFB342:
1346:Drivers/STM32L4xx_HAL_Driver/Src/stm32l4xx_hal_ltdc.c **** /**
1347:Drivers/STM32L4xx_HAL_Driver/Src/stm32l4xx_hal_ltdc.c ****   * @brief  Reconfigure the frame buffer Address.
1348:Drivers/STM32L4xx_HAL_Driver/Src/stm32l4xx_hal_ltdc.c ****   * @param  hltdc     pointer to a LTDC_HandleTypeDef structure that contains
1349:Drivers/STM32L4xx_HAL_Driver/Src/stm32l4xx_hal_ltdc.c ****   *                   the configuration information for the LTDC.
1350:Drivers/STM32L4xx_HAL_Driver/Src/stm32l4xx_hal_ltdc.c ****   * @param  Address   new address value.
1351:Drivers/STM32L4xx_HAL_Driver/Src/stm32l4xx_hal_ltdc.c ****   * @param  LayerIdx  LTDC Layer index.
1352:Drivers/STM32L4xx_HAL_Driver/Src/stm32l4xx_hal_ltdc.c ****   *                   This parameter can be one of the following values:
1353:Drivers/STM32L4xx_HAL_Driver/Src/stm32l4xx_hal_ltdc.c ****   *                   LTDC_LAYER_1 (0) or LTDC_LAYER_2 (1).
1354:Drivers/STM32L4xx_HAL_Driver/Src/stm32l4xx_hal_ltdc.c ****   * @retval  HAL status
1355:Drivers/STM32L4xx_HAL_Driver/Src/stm32l4xx_hal_ltdc.c ****   */
1356:Drivers/STM32L4xx_HAL_Driver/Src/stm32l4xx_hal_ltdc.c **** HAL_StatusTypeDef HAL_LTDC_SetAddress(LTDC_HandleTypeDef *hltdc, uint32_t Address, uint32_t LayerId
1357:Drivers/STM32L4xx_HAL_Driver/Src/stm32l4xx_hal_ltdc.c **** {
 2117              		.loc 1 1357 1
 2118              		.cfi_startproc
 2119              		@ args = 0, pretend = 0, frame = 24
 2120              		@ frame_needed = 1, uses_anonymous_args = 0
 2121 0000 80B5     		push	{r7, lr}
 2122              		.cfi_def_cfa_offset 8
 2123              		.cfi_offset 7, -8
 2124              		.cfi_offset 14, -4
 2125 0002 86B0     		sub	sp, sp, #24
 2126              		.cfi_def_cfa_offset 32
 2127 0004 00AF     		add	r7, sp, #0
 2128              		.cfi_def_cfa_register 7
 2129 0006 F860     		str	r0, [r7, #12]
 2130 0008 B960     		str	r1, [r7, #8]
 2131 000a 7A60     		str	r2, [r7, #4]
1358:Drivers/STM32L4xx_HAL_Driver/Src/stm32l4xx_hal_ltdc.c ****   LTDC_LayerCfgTypeDef *pLayerCfg;
1359:Drivers/STM32L4xx_HAL_Driver/Src/stm32l4xx_hal_ltdc.c **** 
1360:Drivers/STM32L4xx_HAL_Driver/Src/stm32l4xx_hal_ltdc.c ****   /* Check the parameters */
1361:Drivers/STM32L4xx_HAL_Driver/Src/stm32l4xx_hal_ltdc.c ****   assert_param(IS_LTDC_LAYER(LayerIdx));
1362:Drivers/STM32L4xx_HAL_Driver/Src/stm32l4xx_hal_ltdc.c **** 
1363:Drivers/STM32L4xx_HAL_Driver/Src/stm32l4xx_hal_ltdc.c ****   /* Process locked */
1364:Drivers/STM32L4xx_HAL_Driver/Src/stm32l4xx_hal_ltdc.c ****   __HAL_LOCK(hltdc);
 2132              		.loc 1 1364 3
 2133 000c FB68     		ldr	r3, [r7, #12]
 2134 000e 93F86C30 		ldrb	r3, [r3, #108]	@ zero_extendqisi2
 2135 0012 012B     		cmp	r3, #1
 2136 0014 01D1     		bne	.L73
 2137              		.loc 1 1364 3 is_stmt 0 discriminator 1
 2138 0016 0223     		movs	r3, #2
 2139 0018 24E0     		b	.L74
 2140              	.L73:
 2141              		.loc 1 1364 3 discriminator 2
 2142 001a FB68     		ldr	r3, [r7, #12]
 2143 001c 0122     		movs	r2, #1
 2144 001e 83F86C20 		strb	r2, [r3, #108]
1365:Drivers/STM32L4xx_HAL_Driver/Src/stm32l4xx_hal_ltdc.c **** 
ARM GAS  C:\Users\Morroway\AppData\Local\Temp\cclk5axT.s 			page 62


1366:Drivers/STM32L4xx_HAL_Driver/Src/stm32l4xx_hal_ltdc.c ****   /* Change LTDC peripheral state */
1367:Drivers/STM32L4xx_HAL_Driver/Src/stm32l4xx_hal_ltdc.c ****   hltdc->State = HAL_LTDC_STATE_BUSY;
 2145              		.loc 1 1367 16 is_stmt 1 discriminator 2
 2146 0022 FB68     		ldr	r3, [r7, #12]
 2147 0024 0222     		movs	r2, #2
 2148 0026 83F86D20 		strb	r2, [r3, #109]
1368:Drivers/STM32L4xx_HAL_Driver/Src/stm32l4xx_hal_ltdc.c **** 
1369:Drivers/STM32L4xx_HAL_Driver/Src/stm32l4xx_hal_ltdc.c ****   /* Get layer configuration from handle structure */
1370:Drivers/STM32L4xx_HAL_Driver/Src/stm32l4xx_hal_ltdc.c ****   pLayerCfg = &hltdc->LayerCfg[LayerIdx];
 2149              		.loc 1 1370 13 discriminator 2
 2150 002a 7B68     		ldr	r3, [r7, #4]
 2151 002c 3422     		movs	r2, #52
 2152 002e 02FB03F3 		mul	r3, r2, r3
 2153 0032 3833     		adds	r3, r3, #56
 2154 0034 FA68     		ldr	r2, [r7, #12]
 2155 0036 1344     		add	r3, r3, r2
 2156 0038 7B61     		str	r3, [r7, #20]
1371:Drivers/STM32L4xx_HAL_Driver/Src/stm32l4xx_hal_ltdc.c **** 
1372:Drivers/STM32L4xx_HAL_Driver/Src/stm32l4xx_hal_ltdc.c ****   /* Reconfigure the Address */
1373:Drivers/STM32L4xx_HAL_Driver/Src/stm32l4xx_hal_ltdc.c ****   pLayerCfg->FBStartAdress = Address;
 2157              		.loc 1 1373 28 discriminator 2
 2158 003a 7B69     		ldr	r3, [r7, #20]
 2159 003c BA68     		ldr	r2, [r7, #8]
 2160 003e 5A62     		str	r2, [r3, #36]
1374:Drivers/STM32L4xx_HAL_Driver/Src/stm32l4xx_hal_ltdc.c **** 
1375:Drivers/STM32L4xx_HAL_Driver/Src/stm32l4xx_hal_ltdc.c ****   /* Set LTDC parameters */
1376:Drivers/STM32L4xx_HAL_Driver/Src/stm32l4xx_hal_ltdc.c ****   LTDC_SetConfig(hltdc, pLayerCfg, LayerIdx);
 2161              		.loc 1 1376 3 discriminator 2
 2162 0040 7A68     		ldr	r2, [r7, #4]
 2163 0042 7969     		ldr	r1, [r7, #20]
 2164 0044 F868     		ldr	r0, [r7, #12]
 2165 0046 FFF7FEFF 		bl	LTDC_SetConfig
1377:Drivers/STM32L4xx_HAL_Driver/Src/stm32l4xx_hal_ltdc.c **** 
1378:Drivers/STM32L4xx_HAL_Driver/Src/stm32l4xx_hal_ltdc.c ****   /* Set the Immediate Reload type */
1379:Drivers/STM32L4xx_HAL_Driver/Src/stm32l4xx_hal_ltdc.c ****   hltdc->Instance->SRCR = LTDC_SRCR_IMR;
 2166              		.loc 1 1379 8 discriminator 2
 2167 004a FB68     		ldr	r3, [r7, #12]
 2168 004c 1B68     		ldr	r3, [r3]
 2169              		.loc 1 1379 25 discriminator 2
 2170 004e 0122     		movs	r2, #1
 2171 0050 5A62     		str	r2, [r3, #36]
1380:Drivers/STM32L4xx_HAL_Driver/Src/stm32l4xx_hal_ltdc.c **** 
1381:Drivers/STM32L4xx_HAL_Driver/Src/stm32l4xx_hal_ltdc.c ****   /* Change the LTDC state*/
1382:Drivers/STM32L4xx_HAL_Driver/Src/stm32l4xx_hal_ltdc.c ****   hltdc->State = HAL_LTDC_STATE_READY;
 2172              		.loc 1 1382 16 discriminator 2
 2173 0052 FB68     		ldr	r3, [r7, #12]
 2174 0054 0122     		movs	r2, #1
 2175 0056 83F86D20 		strb	r2, [r3, #109]
1383:Drivers/STM32L4xx_HAL_Driver/Src/stm32l4xx_hal_ltdc.c **** 
1384:Drivers/STM32L4xx_HAL_Driver/Src/stm32l4xx_hal_ltdc.c ****   /* Process unlocked */
1385:Drivers/STM32L4xx_HAL_Driver/Src/stm32l4xx_hal_ltdc.c ****   __HAL_UNLOCK(hltdc);
 2176              		.loc 1 1385 3 discriminator 2
 2177 005a FB68     		ldr	r3, [r7, #12]
 2178 005c 0022     		movs	r2, #0
 2179 005e 83F86C20 		strb	r2, [r3, #108]
1386:Drivers/STM32L4xx_HAL_Driver/Src/stm32l4xx_hal_ltdc.c **** 
1387:Drivers/STM32L4xx_HAL_Driver/Src/stm32l4xx_hal_ltdc.c ****   return HAL_OK;
ARM GAS  C:\Users\Morroway\AppData\Local\Temp\cclk5axT.s 			page 63


 2180              		.loc 1 1387 10 discriminator 2
 2181 0062 0023     		movs	r3, #0
 2182              	.L74:
1388:Drivers/STM32L4xx_HAL_Driver/Src/stm32l4xx_hal_ltdc.c **** }
 2183              		.loc 1 1388 1
 2184 0064 1846     		mov	r0, r3
 2185 0066 1837     		adds	r7, r7, #24
 2186              		.cfi_def_cfa_offset 8
 2187 0068 BD46     		mov	sp, r7
 2188              		.cfi_def_cfa_register 13
 2189              		@ sp needed
 2190 006a 80BD     		pop	{r7, pc}
 2191              		.cfi_endproc
 2192              	.LFE342:
 2194              		.section	.text.HAL_LTDC_SetPitch,"ax",%progbits
 2195              		.align	1
 2196              		.global	HAL_LTDC_SetPitch
 2197              		.syntax unified
 2198              		.thumb
 2199              		.thumb_func
 2201              	HAL_LTDC_SetPitch:
 2202              	.LFB343:
1389:Drivers/STM32L4xx_HAL_Driver/Src/stm32l4xx_hal_ltdc.c **** 
1390:Drivers/STM32L4xx_HAL_Driver/Src/stm32l4xx_hal_ltdc.c **** /**
1391:Drivers/STM32L4xx_HAL_Driver/Src/stm32l4xx_hal_ltdc.c ****   * @brief  Function used to reconfigure the pitch for specific cases where the attached LayerIdx b
1392:Drivers/STM32L4xx_HAL_Driver/Src/stm32l4xx_hal_ltdc.c ****   *         that is larger than the one intended to be displayed on screen. Example of a buffer 800
1393:Drivers/STM32L4xx_HAL_Driver/Src/stm32l4xx_hal_ltdc.c ****   *         layer for which we want to read and display on screen only a portion 320x240 taken in t
1394:Drivers/STM32L4xx_HAL_Driver/Src/stm32l4xx_hal_ltdc.c ****   *         of the buffer.
1395:Drivers/STM32L4xx_HAL_Driver/Src/stm32l4xx_hal_ltdc.c ****   *         The pitch in pixels will be in that case 800 pixels and not 320 pixels as initially con
1396:Drivers/STM32L4xx_HAL_Driver/Src/stm32l4xx_hal_ltdc.c ****   *         call to HAL_LTDC_ConfigLayer().
1397:Drivers/STM32L4xx_HAL_Driver/Src/stm32l4xx_hal_ltdc.c ****   * @note   This function should be called only after a previous call to HAL_LTDC_ConfigLayer() to 
1398:Drivers/STM32L4xx_HAL_Driver/Src/stm32l4xx_hal_ltdc.c ****   *         pitch configured by HAL_LTDC_ConfigLayer() when required (refer to example described ju
1399:Drivers/STM32L4xx_HAL_Driver/Src/stm32l4xx_hal_ltdc.c ****   * @param  hltdc              pointer to a LTDC_HandleTypeDef structure that contains
1400:Drivers/STM32L4xx_HAL_Driver/Src/stm32l4xx_hal_ltdc.c ****   *                            the configuration information for the LTDC.
1401:Drivers/STM32L4xx_HAL_Driver/Src/stm32l4xx_hal_ltdc.c ****   * @param  LinePitchInPixels  New line pitch in pixels to configure for LTDC layer 'LayerIdx'.
1402:Drivers/STM32L4xx_HAL_Driver/Src/stm32l4xx_hal_ltdc.c ****   * @param  LayerIdx           LTDC layer index concerned by the modification of line pitch.
1403:Drivers/STM32L4xx_HAL_Driver/Src/stm32l4xx_hal_ltdc.c ****   * @retval HAL status
1404:Drivers/STM32L4xx_HAL_Driver/Src/stm32l4xx_hal_ltdc.c ****   */
1405:Drivers/STM32L4xx_HAL_Driver/Src/stm32l4xx_hal_ltdc.c **** HAL_StatusTypeDef HAL_LTDC_SetPitch(LTDC_HandleTypeDef *hltdc, uint32_t LinePitchInPixels, uint32_t
1406:Drivers/STM32L4xx_HAL_Driver/Src/stm32l4xx_hal_ltdc.c **** {
 2203              		.loc 1 1406 1
 2204              		.cfi_startproc
 2205              		@ args = 0, pretend = 0, frame = 32
 2206              		@ frame_needed = 1, uses_anonymous_args = 0
 2207              		@ link register save eliminated.
 2208 0000 80B4     		push	{r7}
 2209              		.cfi_def_cfa_offset 4
 2210              		.cfi_offset 7, -4
 2211 0002 89B0     		sub	sp, sp, #36
 2212              		.cfi_def_cfa_offset 40
 2213 0004 00AF     		add	r7, sp, #0
 2214              		.cfi_def_cfa_register 7
 2215 0006 F860     		str	r0, [r7, #12]
 2216 0008 B960     		str	r1, [r7, #8]
 2217 000a 7A60     		str	r2, [r7, #4]
1407:Drivers/STM32L4xx_HAL_Driver/Src/stm32l4xx_hal_ltdc.c ****   uint32_t tmp;
1408:Drivers/STM32L4xx_HAL_Driver/Src/stm32l4xx_hal_ltdc.c ****   uint32_t pitchUpdate;
ARM GAS  C:\Users\Morroway\AppData\Local\Temp\cclk5axT.s 			page 64


1409:Drivers/STM32L4xx_HAL_Driver/Src/stm32l4xx_hal_ltdc.c ****   uint32_t pixelFormat;
1410:Drivers/STM32L4xx_HAL_Driver/Src/stm32l4xx_hal_ltdc.c **** 
1411:Drivers/STM32L4xx_HAL_Driver/Src/stm32l4xx_hal_ltdc.c ****   /* Check the parameters */
1412:Drivers/STM32L4xx_HAL_Driver/Src/stm32l4xx_hal_ltdc.c ****   assert_param(IS_LTDC_LAYER(LayerIdx));
1413:Drivers/STM32L4xx_HAL_Driver/Src/stm32l4xx_hal_ltdc.c **** 
1414:Drivers/STM32L4xx_HAL_Driver/Src/stm32l4xx_hal_ltdc.c ****   /* Process locked */
1415:Drivers/STM32L4xx_HAL_Driver/Src/stm32l4xx_hal_ltdc.c ****   __HAL_LOCK(hltdc);
 2218              		.loc 1 1415 3
 2219 000c FB68     		ldr	r3, [r7, #12]
 2220 000e 93F86C30 		ldrb	r3, [r3, #108]	@ zero_extendqisi2
 2221 0012 012B     		cmp	r3, #1
 2222 0014 01D1     		bne	.L76
 2223              		.loc 1 1415 3 is_stmt 0 discriminator 1
 2224 0016 0223     		movs	r3, #2
 2225 0018 6FE0     		b	.L77
 2226              	.L76:
 2227              		.loc 1 1415 3 discriminator 2
 2228 001a FB68     		ldr	r3, [r7, #12]
 2229 001c 0122     		movs	r2, #1
 2230 001e 83F86C20 		strb	r2, [r3, #108]
1416:Drivers/STM32L4xx_HAL_Driver/Src/stm32l4xx_hal_ltdc.c **** 
1417:Drivers/STM32L4xx_HAL_Driver/Src/stm32l4xx_hal_ltdc.c ****   /* Change LTDC peripheral state */
1418:Drivers/STM32L4xx_HAL_Driver/Src/stm32l4xx_hal_ltdc.c ****   hltdc->State = HAL_LTDC_STATE_BUSY;
 2231              		.loc 1 1418 16 is_stmt 1 discriminator 2
 2232 0022 FB68     		ldr	r3, [r7, #12]
 2233 0024 0222     		movs	r2, #2
 2234 0026 83F86D20 		strb	r2, [r3, #109]
1419:Drivers/STM32L4xx_HAL_Driver/Src/stm32l4xx_hal_ltdc.c **** 
1420:Drivers/STM32L4xx_HAL_Driver/Src/stm32l4xx_hal_ltdc.c ****   /* get LayerIdx used pixel format */
1421:Drivers/STM32L4xx_HAL_Driver/Src/stm32l4xx_hal_ltdc.c ****   pixelFormat = hltdc->LayerCfg[LayerIdx].PixelFormat;
 2235              		.loc 1 1421 15 discriminator 2
 2236 002a FA68     		ldr	r2, [r7, #12]
 2237 002c 7B68     		ldr	r3, [r7, #4]
 2238 002e 3421     		movs	r1, #52
 2239 0030 01FB03F3 		mul	r3, r1, r3
 2240 0034 1344     		add	r3, r3, r2
 2241 0036 4833     		adds	r3, r3, #72
 2242 0038 1B68     		ldr	r3, [r3]
 2243 003a BB61     		str	r3, [r7, #24]
1422:Drivers/STM32L4xx_HAL_Driver/Src/stm32l4xx_hal_ltdc.c **** 
1423:Drivers/STM32L4xx_HAL_Driver/Src/stm32l4xx_hal_ltdc.c ****   if (pixelFormat == LTDC_PIXEL_FORMAT_ARGB8888)
 2244              		.loc 1 1423 6 discriminator 2
 2245 003c BB69     		ldr	r3, [r7, #24]
 2246 003e 002B     		cmp	r3, #0
 2247 0040 02D1     		bne	.L78
1424:Drivers/STM32L4xx_HAL_Driver/Src/stm32l4xx_hal_ltdc.c ****   {
1425:Drivers/STM32L4xx_HAL_Driver/Src/stm32l4xx_hal_ltdc.c ****     tmp = 4U;
 2248              		.loc 1 1425 9
 2249 0042 0423     		movs	r3, #4
 2250 0044 FB61     		str	r3, [r7, #28]
 2251 0046 16E0     		b	.L79
 2252              	.L78:
1426:Drivers/STM32L4xx_HAL_Driver/Src/stm32l4xx_hal_ltdc.c ****   }
1427:Drivers/STM32L4xx_HAL_Driver/Src/stm32l4xx_hal_ltdc.c ****   else if (pixelFormat == LTDC_PIXEL_FORMAT_RGB888)
 2253              		.loc 1 1427 11
 2254 0048 BB69     		ldr	r3, [r7, #24]
 2255 004a 012B     		cmp	r3, #1
ARM GAS  C:\Users\Morroway\AppData\Local\Temp\cclk5axT.s 			page 65


 2256 004c 02D1     		bne	.L80
1428:Drivers/STM32L4xx_HAL_Driver/Src/stm32l4xx_hal_ltdc.c ****   {
1429:Drivers/STM32L4xx_HAL_Driver/Src/stm32l4xx_hal_ltdc.c ****     tmp = 3U;
 2257              		.loc 1 1429 9
 2258 004e 0323     		movs	r3, #3
 2259 0050 FB61     		str	r3, [r7, #28]
 2260 0052 10E0     		b	.L79
 2261              	.L80:
1430:Drivers/STM32L4xx_HAL_Driver/Src/stm32l4xx_hal_ltdc.c ****   }
1431:Drivers/STM32L4xx_HAL_Driver/Src/stm32l4xx_hal_ltdc.c ****   else if ((pixelFormat == LTDC_PIXEL_FORMAT_ARGB4444) || \
 2262              		.loc 1 1431 11
 2263 0054 BB69     		ldr	r3, [r7, #24]
 2264 0056 042B     		cmp	r3, #4
 2265 0058 08D0     		beq	.L81
 2266              		.loc 1 1431 56 discriminator 1
 2267 005a BB69     		ldr	r3, [r7, #24]
 2268 005c 022B     		cmp	r3, #2
 2269 005e 05D0     		beq	.L81
1432:Drivers/STM32L4xx_HAL_Driver/Src/stm32l4xx_hal_ltdc.c ****            (pixelFormat == LTDC_PIXEL_FORMAT_RGB565)   || \
 2270              		.loc 1 1432 56
 2271 0060 BB69     		ldr	r3, [r7, #24]
 2272 0062 032B     		cmp	r3, #3
 2273 0064 02D0     		beq	.L81
1433:Drivers/STM32L4xx_HAL_Driver/Src/stm32l4xx_hal_ltdc.c ****            (pixelFormat == LTDC_PIXEL_FORMAT_ARGB1555) || \
 2274              		.loc 1 1433 56
 2275 0066 BB69     		ldr	r3, [r7, #24]
 2276 0068 072B     		cmp	r3, #7
 2277 006a 02D1     		bne	.L82
 2278              	.L81:
1434:Drivers/STM32L4xx_HAL_Driver/Src/stm32l4xx_hal_ltdc.c ****            (pixelFormat == LTDC_PIXEL_FORMAT_AL88))
1435:Drivers/STM32L4xx_HAL_Driver/Src/stm32l4xx_hal_ltdc.c ****   {
1436:Drivers/STM32L4xx_HAL_Driver/Src/stm32l4xx_hal_ltdc.c ****     tmp = 2U;
 2279              		.loc 1 1436 9
 2280 006c 0223     		movs	r3, #2
 2281 006e FB61     		str	r3, [r7, #28]
 2282 0070 01E0     		b	.L79
 2283              	.L82:
1437:Drivers/STM32L4xx_HAL_Driver/Src/stm32l4xx_hal_ltdc.c ****   }
1438:Drivers/STM32L4xx_HAL_Driver/Src/stm32l4xx_hal_ltdc.c ****   else
1439:Drivers/STM32L4xx_HAL_Driver/Src/stm32l4xx_hal_ltdc.c ****   {
1440:Drivers/STM32L4xx_HAL_Driver/Src/stm32l4xx_hal_ltdc.c ****     tmp = 1U;
 2284              		.loc 1 1440 9
 2285 0072 0123     		movs	r3, #1
 2286 0074 FB61     		str	r3, [r7, #28]
 2287              	.L79:
1441:Drivers/STM32L4xx_HAL_Driver/Src/stm32l4xx_hal_ltdc.c ****   }
1442:Drivers/STM32L4xx_HAL_Driver/Src/stm32l4xx_hal_ltdc.c **** 
1443:Drivers/STM32L4xx_HAL_Driver/Src/stm32l4xx_hal_ltdc.c ****   pitchUpdate = ((LinePitchInPixels * tmp) << 16U);
 2288              		.loc 1 1443 37
 2289 0076 BB68     		ldr	r3, [r7, #8]
 2290 0078 FA69     		ldr	r2, [r7, #28]
 2291 007a 02FB03F3 		mul	r3, r2, r3
 2292              		.loc 1 1443 15
 2293 007e 1B04     		lsls	r3, r3, #16
 2294 0080 7B61     		str	r3, [r7, #20]
1444:Drivers/STM32L4xx_HAL_Driver/Src/stm32l4xx_hal_ltdc.c **** 
1445:Drivers/STM32L4xx_HAL_Driver/Src/stm32l4xx_hal_ltdc.c ****   /* Clear previously set standard pitch */
ARM GAS  C:\Users\Morroway\AppData\Local\Temp\cclk5axT.s 			page 66


1446:Drivers/STM32L4xx_HAL_Driver/Src/stm32l4xx_hal_ltdc.c ****   LTDC_LAYER(hltdc, LayerIdx)->CFBLR &= ~LTDC_LxCFBLR_CFBP;
 2295              		.loc 1 1446 3
 2296 0082 FB68     		ldr	r3, [r7, #12]
 2297 0084 1B68     		ldr	r3, [r3]
 2298              		.loc 1 1446 38
 2299 0086 1A46     		mov	r2, r3
 2300 0088 7B68     		ldr	r3, [r7, #4]
 2301 008a DB01     		lsls	r3, r3, #7
 2302 008c 1344     		add	r3, r3, r2
 2303 008e 8433     		adds	r3, r3, #132
 2304 0090 DB6A     		ldr	r3, [r3, #44]
 2305              		.loc 1 1446 3
 2306 0092 FA68     		ldr	r2, [r7, #12]
 2307 0094 1268     		ldr	r2, [r2]
 2308              		.loc 1 1446 38
 2309 0096 1146     		mov	r1, r2
 2310 0098 7A68     		ldr	r2, [r7, #4]
 2311 009a D201     		lsls	r2, r2, #7
 2312 009c 0A44     		add	r2, r2, r1
 2313 009e 8432     		adds	r2, r2, #132
 2314 00a0 23F0FF53 		bic	r3, r3, #534773760
 2315 00a4 23F4F813 		bic	r3, r3, #2031616
 2316 00a8 D362     		str	r3, [r2, #44]
1447:Drivers/STM32L4xx_HAL_Driver/Src/stm32l4xx_hal_ltdc.c **** 
1448:Drivers/STM32L4xx_HAL_Driver/Src/stm32l4xx_hal_ltdc.c ****   /* Set the Reload type as immediate update of LTDC pitch configured above */
1449:Drivers/STM32L4xx_HAL_Driver/Src/stm32l4xx_hal_ltdc.c ****   LTDC->SRCR |= LTDC_SRCR_IMR;
 2317              		.loc 1 1449 14
 2318 00aa 174B     		ldr	r3, .L83
 2319 00ac 5B6A     		ldr	r3, [r3, #36]
 2320 00ae 164A     		ldr	r2, .L83
 2321 00b0 43F00103 		orr	r3, r3, #1
 2322 00b4 5362     		str	r3, [r2, #36]
1450:Drivers/STM32L4xx_HAL_Driver/Src/stm32l4xx_hal_ltdc.c **** 
1451:Drivers/STM32L4xx_HAL_Driver/Src/stm32l4xx_hal_ltdc.c ****   /* Set new line pitch value */
1452:Drivers/STM32L4xx_HAL_Driver/Src/stm32l4xx_hal_ltdc.c ****   LTDC_LAYER(hltdc, LayerIdx)->CFBLR |= pitchUpdate;
 2323              		.loc 1 1452 3
 2324 00b6 FB68     		ldr	r3, [r7, #12]
 2325 00b8 1B68     		ldr	r3, [r3]
 2326              		.loc 1 1452 38
 2327 00ba 1A46     		mov	r2, r3
 2328 00bc 7B68     		ldr	r3, [r7, #4]
 2329 00be DB01     		lsls	r3, r3, #7
 2330 00c0 1344     		add	r3, r3, r2
 2331 00c2 8433     		adds	r3, r3, #132
 2332 00c4 DA6A     		ldr	r2, [r3, #44]
 2333              		.loc 1 1452 3
 2334 00c6 FB68     		ldr	r3, [r7, #12]
 2335 00c8 1B68     		ldr	r3, [r3]
 2336              		.loc 1 1452 38
 2337 00ca 1946     		mov	r1, r3
 2338 00cc 7B68     		ldr	r3, [r7, #4]
 2339 00ce DB01     		lsls	r3, r3, #7
 2340 00d0 0B44     		add	r3, r3, r1
 2341 00d2 8433     		adds	r3, r3, #132
 2342 00d4 1946     		mov	r1, r3
 2343 00d6 7B69     		ldr	r3, [r7, #20]
 2344 00d8 1343     		orrs	r3, r3, r2
ARM GAS  C:\Users\Morroway\AppData\Local\Temp\cclk5axT.s 			page 67


 2345 00da CB62     		str	r3, [r1, #44]
1453:Drivers/STM32L4xx_HAL_Driver/Src/stm32l4xx_hal_ltdc.c **** 
1454:Drivers/STM32L4xx_HAL_Driver/Src/stm32l4xx_hal_ltdc.c ****   /* Set the Reload type as immediate update of LTDC pitch configured above */
1455:Drivers/STM32L4xx_HAL_Driver/Src/stm32l4xx_hal_ltdc.c ****   LTDC->SRCR |= LTDC_SRCR_IMR;
 2346              		.loc 1 1455 14
 2347 00dc 0A4B     		ldr	r3, .L83
 2348 00de 5B6A     		ldr	r3, [r3, #36]
 2349 00e0 094A     		ldr	r2, .L83
 2350 00e2 43F00103 		orr	r3, r3, #1
 2351 00e6 5362     		str	r3, [r2, #36]
1456:Drivers/STM32L4xx_HAL_Driver/Src/stm32l4xx_hal_ltdc.c **** 
1457:Drivers/STM32L4xx_HAL_Driver/Src/stm32l4xx_hal_ltdc.c ****   /* Change the LTDC state*/
1458:Drivers/STM32L4xx_HAL_Driver/Src/stm32l4xx_hal_ltdc.c ****   hltdc->State = HAL_LTDC_STATE_READY;
 2352              		.loc 1 1458 16
 2353 00e8 FB68     		ldr	r3, [r7, #12]
 2354 00ea 0122     		movs	r2, #1
 2355 00ec 83F86D20 		strb	r2, [r3, #109]
1459:Drivers/STM32L4xx_HAL_Driver/Src/stm32l4xx_hal_ltdc.c **** 
1460:Drivers/STM32L4xx_HAL_Driver/Src/stm32l4xx_hal_ltdc.c ****   /* Process unlocked */
1461:Drivers/STM32L4xx_HAL_Driver/Src/stm32l4xx_hal_ltdc.c ****   __HAL_UNLOCK(hltdc);
 2356              		.loc 1 1461 3
 2357 00f0 FB68     		ldr	r3, [r7, #12]
 2358 00f2 0022     		movs	r2, #0
 2359 00f4 83F86C20 		strb	r2, [r3, #108]
1462:Drivers/STM32L4xx_HAL_Driver/Src/stm32l4xx_hal_ltdc.c **** 
1463:Drivers/STM32L4xx_HAL_Driver/Src/stm32l4xx_hal_ltdc.c ****   return HAL_OK;
 2360              		.loc 1 1463 10
 2361 00f8 0023     		movs	r3, #0
 2362              	.L77:
1464:Drivers/STM32L4xx_HAL_Driver/Src/stm32l4xx_hal_ltdc.c **** }
 2363              		.loc 1 1464 1
 2364 00fa 1846     		mov	r0, r3
 2365 00fc 2437     		adds	r7, r7, #36
 2366              		.cfi_def_cfa_offset 4
 2367 00fe BD46     		mov	sp, r7
 2368              		.cfi_def_cfa_register 13
 2369              		@ sp needed
 2370 0100 5DF8047B 		ldr	r7, [sp], #4
 2371              		.cfi_restore 7
 2372              		.cfi_def_cfa_offset 0
 2373 0104 7047     		bx	lr
 2374              	.L84:
 2375 0106 00BF     		.align	2
 2376              	.L83:
 2377 0108 00680140 		.word	1073833984
 2378              		.cfi_endproc
 2379              	.LFE343:
 2381              		.section	.text.HAL_LTDC_ProgramLineEvent,"ax",%progbits
 2382              		.align	1
 2383              		.global	HAL_LTDC_ProgramLineEvent
 2384              		.syntax unified
 2385              		.thumb
 2386              		.thumb_func
 2388              	HAL_LTDC_ProgramLineEvent:
 2389              	.LFB344:
1465:Drivers/STM32L4xx_HAL_Driver/Src/stm32l4xx_hal_ltdc.c **** 
1466:Drivers/STM32L4xx_HAL_Driver/Src/stm32l4xx_hal_ltdc.c **** /**
ARM GAS  C:\Users\Morroway\AppData\Local\Temp\cclk5axT.s 			page 68


1467:Drivers/STM32L4xx_HAL_Driver/Src/stm32l4xx_hal_ltdc.c ****   * @brief  Define the position of the line interrupt.
1468:Drivers/STM32L4xx_HAL_Driver/Src/stm32l4xx_hal_ltdc.c ****   * @param  hltdc   pointer to a LTDC_HandleTypeDef structure that contains
1469:Drivers/STM32L4xx_HAL_Driver/Src/stm32l4xx_hal_ltdc.c ****   *                 the configuration information for the LTDC.
1470:Drivers/STM32L4xx_HAL_Driver/Src/stm32l4xx_hal_ltdc.c ****   * @param  Line    Line Interrupt Position.
1471:Drivers/STM32L4xx_HAL_Driver/Src/stm32l4xx_hal_ltdc.c ****   * @note   User application may resort to HAL_LTDC_LineEventCallback() at line interrupt generatio
1472:Drivers/STM32L4xx_HAL_Driver/Src/stm32l4xx_hal_ltdc.c ****   * @retval  HAL status
1473:Drivers/STM32L4xx_HAL_Driver/Src/stm32l4xx_hal_ltdc.c ****   */
1474:Drivers/STM32L4xx_HAL_Driver/Src/stm32l4xx_hal_ltdc.c **** HAL_StatusTypeDef HAL_LTDC_ProgramLineEvent(LTDC_HandleTypeDef *hltdc, uint32_t Line)
1475:Drivers/STM32L4xx_HAL_Driver/Src/stm32l4xx_hal_ltdc.c **** {
 2390              		.loc 1 1475 1
 2391              		.cfi_startproc
 2392              		@ args = 0, pretend = 0, frame = 8
 2393              		@ frame_needed = 1, uses_anonymous_args = 0
 2394              		@ link register save eliminated.
 2395 0000 80B4     		push	{r7}
 2396              		.cfi_def_cfa_offset 4
 2397              		.cfi_offset 7, -4
 2398 0002 83B0     		sub	sp, sp, #12
 2399              		.cfi_def_cfa_offset 16
 2400 0004 00AF     		add	r7, sp, #0
 2401              		.cfi_def_cfa_register 7
 2402 0006 7860     		str	r0, [r7, #4]
 2403 0008 3960     		str	r1, [r7]
1476:Drivers/STM32L4xx_HAL_Driver/Src/stm32l4xx_hal_ltdc.c ****   /* Check the parameters */
1477:Drivers/STM32L4xx_HAL_Driver/Src/stm32l4xx_hal_ltdc.c ****   assert_param(IS_LTDC_LIPOS(Line));
1478:Drivers/STM32L4xx_HAL_Driver/Src/stm32l4xx_hal_ltdc.c **** 
1479:Drivers/STM32L4xx_HAL_Driver/Src/stm32l4xx_hal_ltdc.c ****   /* Process locked */
1480:Drivers/STM32L4xx_HAL_Driver/Src/stm32l4xx_hal_ltdc.c ****   __HAL_LOCK(hltdc);
 2404              		.loc 1 1480 3
 2405 000a 7B68     		ldr	r3, [r7, #4]
 2406 000c 93F86C30 		ldrb	r3, [r3, #108]	@ zero_extendqisi2
 2407 0010 012B     		cmp	r3, #1
 2408 0012 01D1     		bne	.L86
 2409              		.loc 1 1480 3 is_stmt 0 discriminator 1
 2410 0014 0223     		movs	r3, #2
 2411 0016 23E0     		b	.L87
 2412              	.L86:
 2413              		.loc 1 1480 3 discriminator 2
 2414 0018 7B68     		ldr	r3, [r7, #4]
 2415 001a 0122     		movs	r2, #1
 2416 001c 83F86C20 		strb	r2, [r3, #108]
1481:Drivers/STM32L4xx_HAL_Driver/Src/stm32l4xx_hal_ltdc.c **** 
1482:Drivers/STM32L4xx_HAL_Driver/Src/stm32l4xx_hal_ltdc.c ****   /* Change LTDC peripheral state */
1483:Drivers/STM32L4xx_HAL_Driver/Src/stm32l4xx_hal_ltdc.c ****   hltdc->State = HAL_LTDC_STATE_BUSY;
 2417              		.loc 1 1483 16 is_stmt 1 discriminator 2
 2418 0020 7B68     		ldr	r3, [r7, #4]
 2419 0022 0222     		movs	r2, #2
 2420 0024 83F86D20 		strb	r2, [r3, #109]
1484:Drivers/STM32L4xx_HAL_Driver/Src/stm32l4xx_hal_ltdc.c **** 
1485:Drivers/STM32L4xx_HAL_Driver/Src/stm32l4xx_hal_ltdc.c ****   /* Disable the Line interrupt */
1486:Drivers/STM32L4xx_HAL_Driver/Src/stm32l4xx_hal_ltdc.c ****   __HAL_LTDC_DISABLE_IT(hltdc, LTDC_IT_LI);
 2421              		.loc 1 1486 3 discriminator 2
 2422 0028 7B68     		ldr	r3, [r7, #4]
 2423 002a 1B68     		ldr	r3, [r3]
 2424 002c 5A6B     		ldr	r2, [r3, #52]
 2425 002e 7B68     		ldr	r3, [r7, #4]
 2426 0030 1B68     		ldr	r3, [r3]
ARM GAS  C:\Users\Morroway\AppData\Local\Temp\cclk5axT.s 			page 69


 2427 0032 22F00102 		bic	r2, r2, #1
 2428 0036 5A63     		str	r2, [r3, #52]
1487:Drivers/STM32L4xx_HAL_Driver/Src/stm32l4xx_hal_ltdc.c **** 
1488:Drivers/STM32L4xx_HAL_Driver/Src/stm32l4xx_hal_ltdc.c ****   /* Set the Line Interrupt position */
1489:Drivers/STM32L4xx_HAL_Driver/Src/stm32l4xx_hal_ltdc.c ****   LTDC->LIPCR = (uint32_t)Line;
 2429              		.loc 1 1489 7 discriminator 2
 2430 0038 0C4A     		ldr	r2, .L88
 2431              		.loc 1 1489 15 discriminator 2
 2432 003a 3B68     		ldr	r3, [r7]
 2433 003c 1364     		str	r3, [r2, #64]
1490:Drivers/STM32L4xx_HAL_Driver/Src/stm32l4xx_hal_ltdc.c **** 
1491:Drivers/STM32L4xx_HAL_Driver/Src/stm32l4xx_hal_ltdc.c ****   /* Enable the Line interrupt */
1492:Drivers/STM32L4xx_HAL_Driver/Src/stm32l4xx_hal_ltdc.c ****   __HAL_LTDC_ENABLE_IT(hltdc, LTDC_IT_LI);
 2434              		.loc 1 1492 3 discriminator 2
 2435 003e 7B68     		ldr	r3, [r7, #4]
 2436 0040 1B68     		ldr	r3, [r3]
 2437 0042 5A6B     		ldr	r2, [r3, #52]
 2438 0044 7B68     		ldr	r3, [r7, #4]
 2439 0046 1B68     		ldr	r3, [r3]
 2440 0048 42F00102 		orr	r2, r2, #1
 2441 004c 5A63     		str	r2, [r3, #52]
1493:Drivers/STM32L4xx_HAL_Driver/Src/stm32l4xx_hal_ltdc.c **** 
1494:Drivers/STM32L4xx_HAL_Driver/Src/stm32l4xx_hal_ltdc.c ****   /* Change the LTDC state*/
1495:Drivers/STM32L4xx_HAL_Driver/Src/stm32l4xx_hal_ltdc.c ****   hltdc->State = HAL_LTDC_STATE_READY;
 2442              		.loc 1 1495 16 discriminator 2
 2443 004e 7B68     		ldr	r3, [r7, #4]
 2444 0050 0122     		movs	r2, #1
 2445 0052 83F86D20 		strb	r2, [r3, #109]
1496:Drivers/STM32L4xx_HAL_Driver/Src/stm32l4xx_hal_ltdc.c **** 
1497:Drivers/STM32L4xx_HAL_Driver/Src/stm32l4xx_hal_ltdc.c ****   /* Process unlocked */
1498:Drivers/STM32L4xx_HAL_Driver/Src/stm32l4xx_hal_ltdc.c ****   __HAL_UNLOCK(hltdc);
 2446              		.loc 1 1498 3 discriminator 2
 2447 0056 7B68     		ldr	r3, [r7, #4]
 2448 0058 0022     		movs	r2, #0
 2449 005a 83F86C20 		strb	r2, [r3, #108]
1499:Drivers/STM32L4xx_HAL_Driver/Src/stm32l4xx_hal_ltdc.c **** 
1500:Drivers/STM32L4xx_HAL_Driver/Src/stm32l4xx_hal_ltdc.c ****   return HAL_OK;
 2450              		.loc 1 1500 10 discriminator 2
 2451 005e 0023     		movs	r3, #0
 2452              	.L87:
1501:Drivers/STM32L4xx_HAL_Driver/Src/stm32l4xx_hal_ltdc.c **** }
 2453              		.loc 1 1501 1
 2454 0060 1846     		mov	r0, r3
 2455 0062 0C37     		adds	r7, r7, #12
 2456              		.cfi_def_cfa_offset 4
 2457 0064 BD46     		mov	sp, r7
 2458              		.cfi_def_cfa_register 13
 2459              		@ sp needed
 2460 0066 5DF8047B 		ldr	r7, [sp], #4
 2461              		.cfi_restore 7
 2462              		.cfi_def_cfa_offset 0
 2463 006a 7047     		bx	lr
 2464              	.L89:
 2465              		.align	2
 2466              	.L88:
 2467 006c 00680140 		.word	1073833984
 2468              		.cfi_endproc
ARM GAS  C:\Users\Morroway\AppData\Local\Temp\cclk5axT.s 			page 70


 2469              	.LFE344:
 2471              		.section	.text.HAL_LTDC_Reload,"ax",%progbits
 2472              		.align	1
 2473              		.global	HAL_LTDC_Reload
 2474              		.syntax unified
 2475              		.thumb
 2476              		.thumb_func
 2478              	HAL_LTDC_Reload:
 2479              	.LFB345:
1502:Drivers/STM32L4xx_HAL_Driver/Src/stm32l4xx_hal_ltdc.c **** 
1503:Drivers/STM32L4xx_HAL_Driver/Src/stm32l4xx_hal_ltdc.c **** /**
1504:Drivers/STM32L4xx_HAL_Driver/Src/stm32l4xx_hal_ltdc.c ****   * @brief  Reload LTDC Layers configuration.
1505:Drivers/STM32L4xx_HAL_Driver/Src/stm32l4xx_hal_ltdc.c ****   * @param  hltdc      pointer to a LTDC_HandleTypeDef structure that contains
1506:Drivers/STM32L4xx_HAL_Driver/Src/stm32l4xx_hal_ltdc.c ****   *                    the configuration information for the LTDC.
1507:Drivers/STM32L4xx_HAL_Driver/Src/stm32l4xx_hal_ltdc.c ****   * @param  ReloadType This parameter can be one of the following values :
1508:Drivers/STM32L4xx_HAL_Driver/Src/stm32l4xx_hal_ltdc.c ****   *                      LTDC_RELOAD_IMMEDIATE : Immediate Reload
1509:Drivers/STM32L4xx_HAL_Driver/Src/stm32l4xx_hal_ltdc.c ****   *                      LTDC_RELOAD_VERTICAL_BLANKING  : Reload in the next Vertical Blanking
1510:Drivers/STM32L4xx_HAL_Driver/Src/stm32l4xx_hal_ltdc.c ****   * @note   User application may resort to HAL_LTDC_ReloadEventCallback() at reload interrupt gener
1511:Drivers/STM32L4xx_HAL_Driver/Src/stm32l4xx_hal_ltdc.c ****   * @retval  HAL status
1512:Drivers/STM32L4xx_HAL_Driver/Src/stm32l4xx_hal_ltdc.c ****   */
1513:Drivers/STM32L4xx_HAL_Driver/Src/stm32l4xx_hal_ltdc.c **** HAL_StatusTypeDef  HAL_LTDC_Reload(LTDC_HandleTypeDef *hltdc, uint32_t ReloadType)
1514:Drivers/STM32L4xx_HAL_Driver/Src/stm32l4xx_hal_ltdc.c **** {
 2480              		.loc 1 1514 1
 2481              		.cfi_startproc
 2482              		@ args = 0, pretend = 0, frame = 8
 2483              		@ frame_needed = 1, uses_anonymous_args = 0
 2484              		@ link register save eliminated.
 2485 0000 80B4     		push	{r7}
 2486              		.cfi_def_cfa_offset 4
 2487              		.cfi_offset 7, -4
 2488 0002 83B0     		sub	sp, sp, #12
 2489              		.cfi_def_cfa_offset 16
 2490 0004 00AF     		add	r7, sp, #0
 2491              		.cfi_def_cfa_register 7
 2492 0006 7860     		str	r0, [r7, #4]
 2493 0008 3960     		str	r1, [r7]
1515:Drivers/STM32L4xx_HAL_Driver/Src/stm32l4xx_hal_ltdc.c ****   /* Check the parameters */
1516:Drivers/STM32L4xx_HAL_Driver/Src/stm32l4xx_hal_ltdc.c ****   assert_param(IS_LTDC_RELOAD(ReloadType));
1517:Drivers/STM32L4xx_HAL_Driver/Src/stm32l4xx_hal_ltdc.c **** 
1518:Drivers/STM32L4xx_HAL_Driver/Src/stm32l4xx_hal_ltdc.c ****   /* Process locked */
1519:Drivers/STM32L4xx_HAL_Driver/Src/stm32l4xx_hal_ltdc.c ****   __HAL_LOCK(hltdc);
 2494              		.loc 1 1519 3
 2495 000a 7B68     		ldr	r3, [r7, #4]
 2496 000c 93F86C30 		ldrb	r3, [r3, #108]	@ zero_extendqisi2
 2497 0010 012B     		cmp	r3, #1
 2498 0012 01D1     		bne	.L91
 2499              		.loc 1 1519 3 is_stmt 0 discriminator 1
 2500 0014 0223     		movs	r3, #2
 2501 0016 1CE0     		b	.L92
 2502              	.L91:
 2503              		.loc 1 1519 3 discriminator 2
 2504 0018 7B68     		ldr	r3, [r7, #4]
 2505 001a 0122     		movs	r2, #1
 2506 001c 83F86C20 		strb	r2, [r3, #108]
1520:Drivers/STM32L4xx_HAL_Driver/Src/stm32l4xx_hal_ltdc.c **** 
1521:Drivers/STM32L4xx_HAL_Driver/Src/stm32l4xx_hal_ltdc.c ****   /* Change LTDC peripheral state */
1522:Drivers/STM32L4xx_HAL_Driver/Src/stm32l4xx_hal_ltdc.c ****   hltdc->State = HAL_LTDC_STATE_BUSY;
ARM GAS  C:\Users\Morroway\AppData\Local\Temp\cclk5axT.s 			page 71


 2507              		.loc 1 1522 16 is_stmt 1 discriminator 2
 2508 0020 7B68     		ldr	r3, [r7, #4]
 2509 0022 0222     		movs	r2, #2
 2510 0024 83F86D20 		strb	r2, [r3, #109]
1523:Drivers/STM32L4xx_HAL_Driver/Src/stm32l4xx_hal_ltdc.c **** 
1524:Drivers/STM32L4xx_HAL_Driver/Src/stm32l4xx_hal_ltdc.c ****   /* Enable the Reload interrupt */
1525:Drivers/STM32L4xx_HAL_Driver/Src/stm32l4xx_hal_ltdc.c ****   __HAL_LTDC_ENABLE_IT(hltdc, LTDC_IT_RR);
 2511              		.loc 1 1525 3 discriminator 2
 2512 0028 7B68     		ldr	r3, [r7, #4]
 2513 002a 1B68     		ldr	r3, [r3]
 2514 002c 5A6B     		ldr	r2, [r3, #52]
 2515 002e 7B68     		ldr	r3, [r7, #4]
 2516 0030 1B68     		ldr	r3, [r3]
 2517 0032 42F00802 		orr	r2, r2, #8
 2518 0036 5A63     		str	r2, [r3, #52]
1526:Drivers/STM32L4xx_HAL_Driver/Src/stm32l4xx_hal_ltdc.c **** 
1527:Drivers/STM32L4xx_HAL_Driver/Src/stm32l4xx_hal_ltdc.c ****   /* Apply Reload type */
1528:Drivers/STM32L4xx_HAL_Driver/Src/stm32l4xx_hal_ltdc.c ****   hltdc->Instance->SRCR = ReloadType;
 2519              		.loc 1 1528 8 discriminator 2
 2520 0038 7B68     		ldr	r3, [r7, #4]
 2521 003a 1B68     		ldr	r3, [r3]
 2522              		.loc 1 1528 25 discriminator 2
 2523 003c 3A68     		ldr	r2, [r7]
 2524 003e 5A62     		str	r2, [r3, #36]
1529:Drivers/STM32L4xx_HAL_Driver/Src/stm32l4xx_hal_ltdc.c **** 
1530:Drivers/STM32L4xx_HAL_Driver/Src/stm32l4xx_hal_ltdc.c ****   /* Change the LTDC state*/
1531:Drivers/STM32L4xx_HAL_Driver/Src/stm32l4xx_hal_ltdc.c ****   hltdc->State = HAL_LTDC_STATE_READY;
 2525              		.loc 1 1531 16 discriminator 2
 2526 0040 7B68     		ldr	r3, [r7, #4]
 2527 0042 0122     		movs	r2, #1
 2528 0044 83F86D20 		strb	r2, [r3, #109]
1532:Drivers/STM32L4xx_HAL_Driver/Src/stm32l4xx_hal_ltdc.c **** 
1533:Drivers/STM32L4xx_HAL_Driver/Src/stm32l4xx_hal_ltdc.c ****   /* Process unlocked */
1534:Drivers/STM32L4xx_HAL_Driver/Src/stm32l4xx_hal_ltdc.c ****   __HAL_UNLOCK(hltdc);
 2529              		.loc 1 1534 3 discriminator 2
 2530 0048 7B68     		ldr	r3, [r7, #4]
 2531 004a 0022     		movs	r2, #0
 2532 004c 83F86C20 		strb	r2, [r3, #108]
1535:Drivers/STM32L4xx_HAL_Driver/Src/stm32l4xx_hal_ltdc.c **** 
1536:Drivers/STM32L4xx_HAL_Driver/Src/stm32l4xx_hal_ltdc.c ****   return HAL_OK;
 2533              		.loc 1 1536 10 discriminator 2
 2534 0050 0023     		movs	r3, #0
 2535              	.L92:
1537:Drivers/STM32L4xx_HAL_Driver/Src/stm32l4xx_hal_ltdc.c **** }
 2536              		.loc 1 1537 1
 2537 0052 1846     		mov	r0, r3
 2538 0054 0C37     		adds	r7, r7, #12
 2539              		.cfi_def_cfa_offset 4
 2540 0056 BD46     		mov	sp, r7
 2541              		.cfi_def_cfa_register 13
 2542              		@ sp needed
 2543 0058 5DF8047B 		ldr	r7, [sp], #4
 2544              		.cfi_restore 7
 2545              		.cfi_def_cfa_offset 0
 2546 005c 7047     		bx	lr
 2547              		.cfi_endproc
 2548              	.LFE345:
ARM GAS  C:\Users\Morroway\AppData\Local\Temp\cclk5axT.s 			page 72


 2550              		.section	.text.HAL_LTDC_ConfigLayer_NoReload,"ax",%progbits
 2551              		.align	1
 2552              		.global	HAL_LTDC_ConfigLayer_NoReload
 2553              		.syntax unified
 2554              		.thumb
 2555              		.thumb_func
 2557              	HAL_LTDC_ConfigLayer_NoReload:
 2558              	.LFB346:
1538:Drivers/STM32L4xx_HAL_Driver/Src/stm32l4xx_hal_ltdc.c **** 
1539:Drivers/STM32L4xx_HAL_Driver/Src/stm32l4xx_hal_ltdc.c **** /**
1540:Drivers/STM32L4xx_HAL_Driver/Src/stm32l4xx_hal_ltdc.c ****   * @brief  Configure the LTDC Layer according to the specified without reloading
1541:Drivers/STM32L4xx_HAL_Driver/Src/stm32l4xx_hal_ltdc.c ****   *         parameters in the LTDC_InitTypeDef and create the associated handle.
1542:Drivers/STM32L4xx_HAL_Driver/Src/stm32l4xx_hal_ltdc.c ****   *         Variant of the function HAL_LTDC_ConfigLayer without immediate reload.
1543:Drivers/STM32L4xx_HAL_Driver/Src/stm32l4xx_hal_ltdc.c ****   * @param  hltdc      pointer to a LTDC_HandleTypeDef structure that contains
1544:Drivers/STM32L4xx_HAL_Driver/Src/stm32l4xx_hal_ltdc.c ****   *                    the configuration information for the LTDC.
1545:Drivers/STM32L4xx_HAL_Driver/Src/stm32l4xx_hal_ltdc.c ****   * @param  pLayerCfg  pointer to a LTDC_LayerCfgTypeDef structure that contains
1546:Drivers/STM32L4xx_HAL_Driver/Src/stm32l4xx_hal_ltdc.c ****   *                    the configuration information for the Layer.
1547:Drivers/STM32L4xx_HAL_Driver/Src/stm32l4xx_hal_ltdc.c ****   * @param  LayerIdx   LTDC Layer index.
1548:Drivers/STM32L4xx_HAL_Driver/Src/stm32l4xx_hal_ltdc.c ****   *                    This parameter can be one of the following values:
1549:Drivers/STM32L4xx_HAL_Driver/Src/stm32l4xx_hal_ltdc.c ****   *                    LTDC_LAYER_1 (0) or LTDC_LAYER_2 (1)
1550:Drivers/STM32L4xx_HAL_Driver/Src/stm32l4xx_hal_ltdc.c ****   * @retval HAL status
1551:Drivers/STM32L4xx_HAL_Driver/Src/stm32l4xx_hal_ltdc.c ****   */
1552:Drivers/STM32L4xx_HAL_Driver/Src/stm32l4xx_hal_ltdc.c **** HAL_StatusTypeDef HAL_LTDC_ConfigLayer_NoReload(LTDC_HandleTypeDef *hltdc, LTDC_LayerCfgTypeDef *pL
1553:Drivers/STM32L4xx_HAL_Driver/Src/stm32l4xx_hal_ltdc.c ****                                                 uint32_t LayerIdx)
1554:Drivers/STM32L4xx_HAL_Driver/Src/stm32l4xx_hal_ltdc.c **** {
 2559              		.loc 1 1554 1
 2560              		.cfi_startproc
 2561              		@ args = 0, pretend = 0, frame = 16
 2562              		@ frame_needed = 1, uses_anonymous_args = 0
 2563 0000 B0B5     		push	{r4, r5, r7, lr}
 2564              		.cfi_def_cfa_offset 16
 2565              		.cfi_offset 4, -16
 2566              		.cfi_offset 5, -12
 2567              		.cfi_offset 7, -8
 2568              		.cfi_offset 14, -4
 2569 0002 84B0     		sub	sp, sp, #16
 2570              		.cfi_def_cfa_offset 32
 2571 0004 00AF     		add	r7, sp, #0
 2572              		.cfi_def_cfa_register 7
 2573 0006 F860     		str	r0, [r7, #12]
 2574 0008 B960     		str	r1, [r7, #8]
 2575 000a 7A60     		str	r2, [r7, #4]
1555:Drivers/STM32L4xx_HAL_Driver/Src/stm32l4xx_hal_ltdc.c ****   /* Check the parameters */
1556:Drivers/STM32L4xx_HAL_Driver/Src/stm32l4xx_hal_ltdc.c ****   assert_param(IS_LTDC_LAYER(LayerIdx));
1557:Drivers/STM32L4xx_HAL_Driver/Src/stm32l4xx_hal_ltdc.c ****   assert_param(IS_LTDC_HCONFIGST(pLayerCfg->WindowX0));
1558:Drivers/STM32L4xx_HAL_Driver/Src/stm32l4xx_hal_ltdc.c ****   assert_param(IS_LTDC_HCONFIGSP(pLayerCfg->WindowX1));
1559:Drivers/STM32L4xx_HAL_Driver/Src/stm32l4xx_hal_ltdc.c ****   assert_param(IS_LTDC_VCONFIGST(pLayerCfg->WindowY0));
1560:Drivers/STM32L4xx_HAL_Driver/Src/stm32l4xx_hal_ltdc.c ****   assert_param(IS_LTDC_VCONFIGSP(pLayerCfg->WindowY1));
1561:Drivers/STM32L4xx_HAL_Driver/Src/stm32l4xx_hal_ltdc.c ****   assert_param(IS_LTDC_PIXEL_FORMAT(pLayerCfg->PixelFormat));
1562:Drivers/STM32L4xx_HAL_Driver/Src/stm32l4xx_hal_ltdc.c ****   assert_param(IS_LTDC_ALPHA(pLayerCfg->Alpha));
1563:Drivers/STM32L4xx_HAL_Driver/Src/stm32l4xx_hal_ltdc.c ****   assert_param(IS_LTDC_ALPHA(pLayerCfg->Alpha0));
1564:Drivers/STM32L4xx_HAL_Driver/Src/stm32l4xx_hal_ltdc.c ****   assert_param(IS_LTDC_BLENDING_FACTOR1(pLayerCfg->BlendingFactor1));
1565:Drivers/STM32L4xx_HAL_Driver/Src/stm32l4xx_hal_ltdc.c ****   assert_param(IS_LTDC_BLENDING_FACTOR2(pLayerCfg->BlendingFactor2));
1566:Drivers/STM32L4xx_HAL_Driver/Src/stm32l4xx_hal_ltdc.c ****   assert_param(IS_LTDC_CFBLL(pLayerCfg->ImageWidth));
1567:Drivers/STM32L4xx_HAL_Driver/Src/stm32l4xx_hal_ltdc.c ****   assert_param(IS_LTDC_CFBLNBR(pLayerCfg->ImageHeight));
1568:Drivers/STM32L4xx_HAL_Driver/Src/stm32l4xx_hal_ltdc.c **** 
1569:Drivers/STM32L4xx_HAL_Driver/Src/stm32l4xx_hal_ltdc.c ****   /* Process locked */
ARM GAS  C:\Users\Morroway\AppData\Local\Temp\cclk5axT.s 			page 73


1570:Drivers/STM32L4xx_HAL_Driver/Src/stm32l4xx_hal_ltdc.c ****   __HAL_LOCK(hltdc);
 2576              		.loc 1 1570 3
 2577 000c FB68     		ldr	r3, [r7, #12]
 2578 000e 93F86C30 		ldrb	r3, [r3, #108]	@ zero_extendqisi2
 2579 0012 012B     		cmp	r3, #1
 2580 0014 01D1     		bne	.L94
 2581              		.loc 1 1570 3 is_stmt 0 discriminator 1
 2582 0016 0223     		movs	r3, #2
 2583 0018 28E0     		b	.L95
 2584              	.L94:
 2585              		.loc 1 1570 3 discriminator 2
 2586 001a FB68     		ldr	r3, [r7, #12]
 2587 001c 0122     		movs	r2, #1
 2588 001e 83F86C20 		strb	r2, [r3, #108]
1571:Drivers/STM32L4xx_HAL_Driver/Src/stm32l4xx_hal_ltdc.c **** 
1572:Drivers/STM32L4xx_HAL_Driver/Src/stm32l4xx_hal_ltdc.c ****   /* Change LTDC peripheral state */
1573:Drivers/STM32L4xx_HAL_Driver/Src/stm32l4xx_hal_ltdc.c ****   hltdc->State = HAL_LTDC_STATE_BUSY;
 2589              		.loc 1 1573 16 is_stmt 1 discriminator 2
 2590 0022 FB68     		ldr	r3, [r7, #12]
 2591 0024 0222     		movs	r2, #2
 2592 0026 83F86D20 		strb	r2, [r3, #109]
1574:Drivers/STM32L4xx_HAL_Driver/Src/stm32l4xx_hal_ltdc.c **** 
1575:Drivers/STM32L4xx_HAL_Driver/Src/stm32l4xx_hal_ltdc.c ****   /* Copy new layer configuration into handle structure */
1576:Drivers/STM32L4xx_HAL_Driver/Src/stm32l4xx_hal_ltdc.c ****   hltdc->LayerCfg[LayerIdx] = *pLayerCfg;
 2593              		.loc 1 1576 29 discriminator 2
 2594 002a FA68     		ldr	r2, [r7, #12]
 2595 002c 7B68     		ldr	r3, [r7, #4]
 2596 002e 3421     		movs	r1, #52
 2597 0030 01FB03F3 		mul	r3, r1, r3
 2598 0034 1344     		add	r3, r3, r2
 2599 0036 03F13802 		add	r2, r3, #56
 2600 003a BB68     		ldr	r3, [r7, #8]
 2601 003c 1446     		mov	r4, r2
 2602 003e 1D46     		mov	r5, r3
 2603 0040 0FCD     		ldmia	r5!, {r0, r1, r2, r3}
 2604 0042 0FC4     		stmia	r4!, {r0, r1, r2, r3}
 2605 0044 0FCD     		ldmia	r5!, {r0, r1, r2, r3}
 2606 0046 0FC4     		stmia	r4!, {r0, r1, r2, r3}
 2607 0048 0FCD     		ldmia	r5!, {r0, r1, r2, r3}
 2608 004a 0FC4     		stmia	r4!, {r0, r1, r2, r3}
 2609 004c 2B68     		ldr	r3, [r5]
 2610 004e 2360     		str	r3, [r4]
1577:Drivers/STM32L4xx_HAL_Driver/Src/stm32l4xx_hal_ltdc.c **** 
1578:Drivers/STM32L4xx_HAL_Driver/Src/stm32l4xx_hal_ltdc.c ****   /* Configure the LTDC Layer */
1579:Drivers/STM32L4xx_HAL_Driver/Src/stm32l4xx_hal_ltdc.c ****   LTDC_SetConfig(hltdc, pLayerCfg, LayerIdx);
 2611              		.loc 1 1579 3 discriminator 2
 2612 0050 7A68     		ldr	r2, [r7, #4]
 2613 0052 B968     		ldr	r1, [r7, #8]
 2614 0054 F868     		ldr	r0, [r7, #12]
 2615 0056 FFF7FEFF 		bl	LTDC_SetConfig
1580:Drivers/STM32L4xx_HAL_Driver/Src/stm32l4xx_hal_ltdc.c **** 
1581:Drivers/STM32L4xx_HAL_Driver/Src/stm32l4xx_hal_ltdc.c ****   /* Initialize the LTDC state*/
1582:Drivers/STM32L4xx_HAL_Driver/Src/stm32l4xx_hal_ltdc.c ****   hltdc->State  = HAL_LTDC_STATE_READY;
 2616              		.loc 1 1582 17 discriminator 2
 2617 005a FB68     		ldr	r3, [r7, #12]
 2618 005c 0122     		movs	r2, #1
 2619 005e 83F86D20 		strb	r2, [r3, #109]
ARM GAS  C:\Users\Morroway\AppData\Local\Temp\cclk5axT.s 			page 74


1583:Drivers/STM32L4xx_HAL_Driver/Src/stm32l4xx_hal_ltdc.c **** 
1584:Drivers/STM32L4xx_HAL_Driver/Src/stm32l4xx_hal_ltdc.c ****   /* Process unlocked */
1585:Drivers/STM32L4xx_HAL_Driver/Src/stm32l4xx_hal_ltdc.c ****   __HAL_UNLOCK(hltdc);
 2620              		.loc 1 1585 3 discriminator 2
 2621 0062 FB68     		ldr	r3, [r7, #12]
 2622 0064 0022     		movs	r2, #0
 2623 0066 83F86C20 		strb	r2, [r3, #108]
1586:Drivers/STM32L4xx_HAL_Driver/Src/stm32l4xx_hal_ltdc.c **** 
1587:Drivers/STM32L4xx_HAL_Driver/Src/stm32l4xx_hal_ltdc.c ****   return HAL_OK;
 2624              		.loc 1 1587 10 discriminator 2
 2625 006a 0023     		movs	r3, #0
 2626              	.L95:
1588:Drivers/STM32L4xx_HAL_Driver/Src/stm32l4xx_hal_ltdc.c **** }
 2627              		.loc 1 1588 1
 2628 006c 1846     		mov	r0, r3
 2629 006e 1037     		adds	r7, r7, #16
 2630              		.cfi_def_cfa_offset 16
 2631 0070 BD46     		mov	sp, r7
 2632              		.cfi_def_cfa_register 13
 2633              		@ sp needed
 2634 0072 B0BD     		pop	{r4, r5, r7, pc}
 2635              		.cfi_endproc
 2636              	.LFE346:
 2638              		.section	.text.HAL_LTDC_SetWindowSize_NoReload,"ax",%progbits
 2639              		.align	1
 2640              		.global	HAL_LTDC_SetWindowSize_NoReload
 2641              		.syntax unified
 2642              		.thumb
 2643              		.thumb_func
 2645              	HAL_LTDC_SetWindowSize_NoReload:
 2646              	.LFB347:
1589:Drivers/STM32L4xx_HAL_Driver/Src/stm32l4xx_hal_ltdc.c **** 
1590:Drivers/STM32L4xx_HAL_Driver/Src/stm32l4xx_hal_ltdc.c **** /**
1591:Drivers/STM32L4xx_HAL_Driver/Src/stm32l4xx_hal_ltdc.c ****   * @brief  Set the LTDC window size without reloading.
1592:Drivers/STM32L4xx_HAL_Driver/Src/stm32l4xx_hal_ltdc.c ****   *         Variant of the function HAL_LTDC_SetWindowSize without immediate reload.
1593:Drivers/STM32L4xx_HAL_Driver/Src/stm32l4xx_hal_ltdc.c ****   * @param  hltdc     pointer to a LTDC_HandleTypeDef structure that contains
1594:Drivers/STM32L4xx_HAL_Driver/Src/stm32l4xx_hal_ltdc.c ****   *                   the configuration information for the LTDC.
1595:Drivers/STM32L4xx_HAL_Driver/Src/stm32l4xx_hal_ltdc.c ****   * @param  XSize     LTDC Pixel per line
1596:Drivers/STM32L4xx_HAL_Driver/Src/stm32l4xx_hal_ltdc.c ****   * @param  YSize     LTDC Line number
1597:Drivers/STM32L4xx_HAL_Driver/Src/stm32l4xx_hal_ltdc.c ****   * @param  LayerIdx  LTDC Layer index.
1598:Drivers/STM32L4xx_HAL_Driver/Src/stm32l4xx_hal_ltdc.c ****   *                   This parameter can be one of the following values:
1599:Drivers/STM32L4xx_HAL_Driver/Src/stm32l4xx_hal_ltdc.c ****   *                   LTDC_LAYER_1 (0) or LTDC_LAYER_2 (1)
1600:Drivers/STM32L4xx_HAL_Driver/Src/stm32l4xx_hal_ltdc.c ****   * @retval  HAL status
1601:Drivers/STM32L4xx_HAL_Driver/Src/stm32l4xx_hal_ltdc.c ****   */
1602:Drivers/STM32L4xx_HAL_Driver/Src/stm32l4xx_hal_ltdc.c **** HAL_StatusTypeDef HAL_LTDC_SetWindowSize_NoReload(LTDC_HandleTypeDef *hltdc, uint32_t XSize, uint32
1603:Drivers/STM32L4xx_HAL_Driver/Src/stm32l4xx_hal_ltdc.c ****                                                   uint32_t LayerIdx)
1604:Drivers/STM32L4xx_HAL_Driver/Src/stm32l4xx_hal_ltdc.c **** {
 2647              		.loc 1 1604 1
 2648              		.cfi_startproc
 2649              		@ args = 0, pretend = 0, frame = 24
 2650              		@ frame_needed = 1, uses_anonymous_args = 0
 2651 0000 80B5     		push	{r7, lr}
 2652              		.cfi_def_cfa_offset 8
 2653              		.cfi_offset 7, -8
 2654              		.cfi_offset 14, -4
 2655 0002 86B0     		sub	sp, sp, #24
 2656              		.cfi_def_cfa_offset 32
ARM GAS  C:\Users\Morroway\AppData\Local\Temp\cclk5axT.s 			page 75


 2657 0004 00AF     		add	r7, sp, #0
 2658              		.cfi_def_cfa_register 7
 2659 0006 F860     		str	r0, [r7, #12]
 2660 0008 B960     		str	r1, [r7, #8]
 2661 000a 7A60     		str	r2, [r7, #4]
 2662 000c 3B60     		str	r3, [r7]
1605:Drivers/STM32L4xx_HAL_Driver/Src/stm32l4xx_hal_ltdc.c ****   LTDC_LayerCfgTypeDef *pLayerCfg;
1606:Drivers/STM32L4xx_HAL_Driver/Src/stm32l4xx_hal_ltdc.c **** 
1607:Drivers/STM32L4xx_HAL_Driver/Src/stm32l4xx_hal_ltdc.c ****   /* Check the parameters (Layers parameters)*/
1608:Drivers/STM32L4xx_HAL_Driver/Src/stm32l4xx_hal_ltdc.c ****   assert_param(IS_LTDC_LAYER(LayerIdx));
1609:Drivers/STM32L4xx_HAL_Driver/Src/stm32l4xx_hal_ltdc.c ****   assert_param(IS_LTDC_CFBLL(XSize));
1610:Drivers/STM32L4xx_HAL_Driver/Src/stm32l4xx_hal_ltdc.c ****   assert_param(IS_LTDC_CFBLNBR(YSize));
1611:Drivers/STM32L4xx_HAL_Driver/Src/stm32l4xx_hal_ltdc.c **** 
1612:Drivers/STM32L4xx_HAL_Driver/Src/stm32l4xx_hal_ltdc.c ****   /* Process locked */
1613:Drivers/STM32L4xx_HAL_Driver/Src/stm32l4xx_hal_ltdc.c ****   __HAL_LOCK(hltdc);
 2663              		.loc 1 1613 3
 2664 000e FB68     		ldr	r3, [r7, #12]
 2665 0010 93F86C30 		ldrb	r3, [r3, #108]	@ zero_extendqisi2
 2666 0014 012B     		cmp	r3, #1
 2667 0016 01D1     		bne	.L97
 2668              		.loc 1 1613 3 is_stmt 0 discriminator 1
 2669 0018 0223     		movs	r3, #2
 2670 001a 2FE0     		b	.L98
 2671              	.L97:
 2672              		.loc 1 1613 3 discriminator 2
 2673 001c FB68     		ldr	r3, [r7, #12]
 2674 001e 0122     		movs	r2, #1
 2675 0020 83F86C20 		strb	r2, [r3, #108]
1614:Drivers/STM32L4xx_HAL_Driver/Src/stm32l4xx_hal_ltdc.c **** 
1615:Drivers/STM32L4xx_HAL_Driver/Src/stm32l4xx_hal_ltdc.c ****   /* Change LTDC peripheral state */
1616:Drivers/STM32L4xx_HAL_Driver/Src/stm32l4xx_hal_ltdc.c ****   hltdc->State = HAL_LTDC_STATE_BUSY;
 2676              		.loc 1 1616 16 is_stmt 1 discriminator 2
 2677 0024 FB68     		ldr	r3, [r7, #12]
 2678 0026 0222     		movs	r2, #2
 2679 0028 83F86D20 		strb	r2, [r3, #109]
1617:Drivers/STM32L4xx_HAL_Driver/Src/stm32l4xx_hal_ltdc.c **** 
1618:Drivers/STM32L4xx_HAL_Driver/Src/stm32l4xx_hal_ltdc.c ****   /* Get layer configuration from handle structure */
1619:Drivers/STM32L4xx_HAL_Driver/Src/stm32l4xx_hal_ltdc.c ****   pLayerCfg = &hltdc->LayerCfg[LayerIdx];
 2680              		.loc 1 1619 13 discriminator 2
 2681 002c 3B68     		ldr	r3, [r7]
 2682 002e 3422     		movs	r2, #52
 2683 0030 02FB03F3 		mul	r3, r2, r3
 2684 0034 3833     		adds	r3, r3, #56
 2685 0036 FA68     		ldr	r2, [r7, #12]
 2686 0038 1344     		add	r3, r3, r2
 2687 003a 7B61     		str	r3, [r7, #20]
1620:Drivers/STM32L4xx_HAL_Driver/Src/stm32l4xx_hal_ltdc.c **** 
1621:Drivers/STM32L4xx_HAL_Driver/Src/stm32l4xx_hal_ltdc.c ****   /* update horizontal stop */
1622:Drivers/STM32L4xx_HAL_Driver/Src/stm32l4xx_hal_ltdc.c ****   pLayerCfg->WindowX1 = XSize + pLayerCfg->WindowX0;
 2688              		.loc 1 1622 42 discriminator 2
 2689 003c 7B69     		ldr	r3, [r7, #20]
 2690 003e 1A68     		ldr	r2, [r3]
 2691              		.loc 1 1622 31 discriminator 2
 2692 0040 BB68     		ldr	r3, [r7, #8]
 2693 0042 1A44     		add	r2, r2, r3
 2694              		.loc 1 1622 23 discriminator 2
 2695 0044 7B69     		ldr	r3, [r7, #20]
ARM GAS  C:\Users\Morroway\AppData\Local\Temp\cclk5axT.s 			page 76


 2696 0046 5A60     		str	r2, [r3, #4]
1623:Drivers/STM32L4xx_HAL_Driver/Src/stm32l4xx_hal_ltdc.c **** 
1624:Drivers/STM32L4xx_HAL_Driver/Src/stm32l4xx_hal_ltdc.c ****   /* update vertical stop */
1625:Drivers/STM32L4xx_HAL_Driver/Src/stm32l4xx_hal_ltdc.c ****   pLayerCfg->WindowY1 = YSize + pLayerCfg->WindowY0;
 2697              		.loc 1 1625 42 discriminator 2
 2698 0048 7B69     		ldr	r3, [r7, #20]
 2699 004a 9A68     		ldr	r2, [r3, #8]
 2700              		.loc 1 1625 31 discriminator 2
 2701 004c 7B68     		ldr	r3, [r7, #4]
 2702 004e 1A44     		add	r2, r2, r3
 2703              		.loc 1 1625 23 discriminator 2
 2704 0050 7B69     		ldr	r3, [r7, #20]
 2705 0052 DA60     		str	r2, [r3, #12]
1626:Drivers/STM32L4xx_HAL_Driver/Src/stm32l4xx_hal_ltdc.c **** 
1627:Drivers/STM32L4xx_HAL_Driver/Src/stm32l4xx_hal_ltdc.c ****   /* Reconfigures the color frame buffer pitch in byte */
1628:Drivers/STM32L4xx_HAL_Driver/Src/stm32l4xx_hal_ltdc.c ****   pLayerCfg->ImageWidth = XSize;
 2706              		.loc 1 1628 25 discriminator 2
 2707 0054 7B69     		ldr	r3, [r7, #20]
 2708 0056 BA68     		ldr	r2, [r7, #8]
 2709 0058 9A62     		str	r2, [r3, #40]
1629:Drivers/STM32L4xx_HAL_Driver/Src/stm32l4xx_hal_ltdc.c **** 
1630:Drivers/STM32L4xx_HAL_Driver/Src/stm32l4xx_hal_ltdc.c ****   /* Reconfigures the frame buffer line number */
1631:Drivers/STM32L4xx_HAL_Driver/Src/stm32l4xx_hal_ltdc.c ****   pLayerCfg->ImageHeight = YSize;
 2710              		.loc 1 1631 26 discriminator 2
 2711 005a 7B69     		ldr	r3, [r7, #20]
 2712 005c 7A68     		ldr	r2, [r7, #4]
 2713 005e DA62     		str	r2, [r3, #44]
1632:Drivers/STM32L4xx_HAL_Driver/Src/stm32l4xx_hal_ltdc.c **** 
1633:Drivers/STM32L4xx_HAL_Driver/Src/stm32l4xx_hal_ltdc.c ****   /* Set LTDC parameters */
1634:Drivers/STM32L4xx_HAL_Driver/Src/stm32l4xx_hal_ltdc.c ****   LTDC_SetConfig(hltdc, pLayerCfg, LayerIdx);
 2714              		.loc 1 1634 3 discriminator 2
 2715 0060 3A68     		ldr	r2, [r7]
 2716 0062 7969     		ldr	r1, [r7, #20]
 2717 0064 F868     		ldr	r0, [r7, #12]
 2718 0066 FFF7FEFF 		bl	LTDC_SetConfig
1635:Drivers/STM32L4xx_HAL_Driver/Src/stm32l4xx_hal_ltdc.c **** 
1636:Drivers/STM32L4xx_HAL_Driver/Src/stm32l4xx_hal_ltdc.c ****   /* Change the LTDC state*/
1637:Drivers/STM32L4xx_HAL_Driver/Src/stm32l4xx_hal_ltdc.c ****   hltdc->State = HAL_LTDC_STATE_READY;
 2719              		.loc 1 1637 16 discriminator 2
 2720 006a FB68     		ldr	r3, [r7, #12]
 2721 006c 0122     		movs	r2, #1
 2722 006e 83F86D20 		strb	r2, [r3, #109]
1638:Drivers/STM32L4xx_HAL_Driver/Src/stm32l4xx_hal_ltdc.c **** 
1639:Drivers/STM32L4xx_HAL_Driver/Src/stm32l4xx_hal_ltdc.c ****   /* Process unlocked */
1640:Drivers/STM32L4xx_HAL_Driver/Src/stm32l4xx_hal_ltdc.c ****   __HAL_UNLOCK(hltdc);
 2723              		.loc 1 1640 3 discriminator 2
 2724 0072 FB68     		ldr	r3, [r7, #12]
 2725 0074 0022     		movs	r2, #0
 2726 0076 83F86C20 		strb	r2, [r3, #108]
1641:Drivers/STM32L4xx_HAL_Driver/Src/stm32l4xx_hal_ltdc.c **** 
1642:Drivers/STM32L4xx_HAL_Driver/Src/stm32l4xx_hal_ltdc.c ****   return HAL_OK;
 2727              		.loc 1 1642 10 discriminator 2
 2728 007a 0023     		movs	r3, #0
 2729              	.L98:
1643:Drivers/STM32L4xx_HAL_Driver/Src/stm32l4xx_hal_ltdc.c **** }
 2730              		.loc 1 1643 1
 2731 007c 1846     		mov	r0, r3
ARM GAS  C:\Users\Morroway\AppData\Local\Temp\cclk5axT.s 			page 77


 2732 007e 1837     		adds	r7, r7, #24
 2733              		.cfi_def_cfa_offset 8
 2734 0080 BD46     		mov	sp, r7
 2735              		.cfi_def_cfa_register 13
 2736              		@ sp needed
 2737 0082 80BD     		pop	{r7, pc}
 2738              		.cfi_endproc
 2739              	.LFE347:
 2741              		.section	.text.HAL_LTDC_SetWindowPosition_NoReload,"ax",%progbits
 2742              		.align	1
 2743              		.global	HAL_LTDC_SetWindowPosition_NoReload
 2744              		.syntax unified
 2745              		.thumb
 2746              		.thumb_func
 2748              	HAL_LTDC_SetWindowPosition_NoReload:
 2749              	.LFB348:
1644:Drivers/STM32L4xx_HAL_Driver/Src/stm32l4xx_hal_ltdc.c **** 
1645:Drivers/STM32L4xx_HAL_Driver/Src/stm32l4xx_hal_ltdc.c **** /**
1646:Drivers/STM32L4xx_HAL_Driver/Src/stm32l4xx_hal_ltdc.c ****   * @brief  Set the LTDC window position without reloading.
1647:Drivers/STM32L4xx_HAL_Driver/Src/stm32l4xx_hal_ltdc.c ****   *         Variant of the function HAL_LTDC_SetWindowPosition without immediate reload.
1648:Drivers/STM32L4xx_HAL_Driver/Src/stm32l4xx_hal_ltdc.c ****   * @param  hltdc     pointer to a LTDC_HandleTypeDef structure that contains
1649:Drivers/STM32L4xx_HAL_Driver/Src/stm32l4xx_hal_ltdc.c ****   *                   the configuration information for the LTDC.
1650:Drivers/STM32L4xx_HAL_Driver/Src/stm32l4xx_hal_ltdc.c ****   * @param  X0        LTDC window X offset
1651:Drivers/STM32L4xx_HAL_Driver/Src/stm32l4xx_hal_ltdc.c ****   * @param  Y0        LTDC window Y offset
1652:Drivers/STM32L4xx_HAL_Driver/Src/stm32l4xx_hal_ltdc.c ****   * @param  LayerIdx  LTDC Layer index.
1653:Drivers/STM32L4xx_HAL_Driver/Src/stm32l4xx_hal_ltdc.c ****   *                         This parameter can be one of the following values:
1654:Drivers/STM32L4xx_HAL_Driver/Src/stm32l4xx_hal_ltdc.c ****   *                         LTDC_LAYER_1 (0) or LTDC_LAYER_2 (1)
1655:Drivers/STM32L4xx_HAL_Driver/Src/stm32l4xx_hal_ltdc.c ****   * @retval  HAL status
1656:Drivers/STM32L4xx_HAL_Driver/Src/stm32l4xx_hal_ltdc.c ****   */
1657:Drivers/STM32L4xx_HAL_Driver/Src/stm32l4xx_hal_ltdc.c **** HAL_StatusTypeDef HAL_LTDC_SetWindowPosition_NoReload(LTDC_HandleTypeDef *hltdc, uint32_t X0, uint3
1658:Drivers/STM32L4xx_HAL_Driver/Src/stm32l4xx_hal_ltdc.c ****                                                       uint32_t LayerIdx)
1659:Drivers/STM32L4xx_HAL_Driver/Src/stm32l4xx_hal_ltdc.c **** {
 2750              		.loc 1 1659 1
 2751              		.cfi_startproc
 2752              		@ args = 0, pretend = 0, frame = 24
 2753              		@ frame_needed = 1, uses_anonymous_args = 0
 2754 0000 80B5     		push	{r7, lr}
 2755              		.cfi_def_cfa_offset 8
 2756              		.cfi_offset 7, -8
 2757              		.cfi_offset 14, -4
 2758 0002 86B0     		sub	sp, sp, #24
 2759              		.cfi_def_cfa_offset 32
 2760 0004 00AF     		add	r7, sp, #0
 2761              		.cfi_def_cfa_register 7
 2762 0006 F860     		str	r0, [r7, #12]
 2763 0008 B960     		str	r1, [r7, #8]
 2764 000a 7A60     		str	r2, [r7, #4]
 2765 000c 3B60     		str	r3, [r7]
1660:Drivers/STM32L4xx_HAL_Driver/Src/stm32l4xx_hal_ltdc.c ****   LTDC_LayerCfgTypeDef *pLayerCfg;
1661:Drivers/STM32L4xx_HAL_Driver/Src/stm32l4xx_hal_ltdc.c **** 
1662:Drivers/STM32L4xx_HAL_Driver/Src/stm32l4xx_hal_ltdc.c ****   /* Check the parameters */
1663:Drivers/STM32L4xx_HAL_Driver/Src/stm32l4xx_hal_ltdc.c ****   assert_param(IS_LTDC_LAYER(LayerIdx));
1664:Drivers/STM32L4xx_HAL_Driver/Src/stm32l4xx_hal_ltdc.c ****   assert_param(IS_LTDC_CFBLL(X0));
1665:Drivers/STM32L4xx_HAL_Driver/Src/stm32l4xx_hal_ltdc.c ****   assert_param(IS_LTDC_CFBLNBR(Y0));
1666:Drivers/STM32L4xx_HAL_Driver/Src/stm32l4xx_hal_ltdc.c **** 
1667:Drivers/STM32L4xx_HAL_Driver/Src/stm32l4xx_hal_ltdc.c ****   /* Process locked */
1668:Drivers/STM32L4xx_HAL_Driver/Src/stm32l4xx_hal_ltdc.c ****   __HAL_LOCK(hltdc);
ARM GAS  C:\Users\Morroway\AppData\Local\Temp\cclk5axT.s 			page 78


 2766              		.loc 1 1668 3
 2767 000e FB68     		ldr	r3, [r7, #12]
 2768 0010 93F86C30 		ldrb	r3, [r3, #108]	@ zero_extendqisi2
 2769 0014 012B     		cmp	r3, #1
 2770 0016 01D1     		bne	.L100
 2771              		.loc 1 1668 3 is_stmt 0 discriminator 1
 2772 0018 0223     		movs	r3, #2
 2773 001a 2FE0     		b	.L101
 2774              	.L100:
 2775              		.loc 1 1668 3 discriminator 2
 2776 001c FB68     		ldr	r3, [r7, #12]
 2777 001e 0122     		movs	r2, #1
 2778 0020 83F86C20 		strb	r2, [r3, #108]
1669:Drivers/STM32L4xx_HAL_Driver/Src/stm32l4xx_hal_ltdc.c **** 
1670:Drivers/STM32L4xx_HAL_Driver/Src/stm32l4xx_hal_ltdc.c ****   /* Change LTDC peripheral state */
1671:Drivers/STM32L4xx_HAL_Driver/Src/stm32l4xx_hal_ltdc.c ****   hltdc->State = HAL_LTDC_STATE_BUSY;
 2779              		.loc 1 1671 16 is_stmt 1 discriminator 2
 2780 0024 FB68     		ldr	r3, [r7, #12]
 2781 0026 0222     		movs	r2, #2
 2782 0028 83F86D20 		strb	r2, [r3, #109]
1672:Drivers/STM32L4xx_HAL_Driver/Src/stm32l4xx_hal_ltdc.c **** 
1673:Drivers/STM32L4xx_HAL_Driver/Src/stm32l4xx_hal_ltdc.c ****   /* Get layer configuration from handle structure */
1674:Drivers/STM32L4xx_HAL_Driver/Src/stm32l4xx_hal_ltdc.c ****   pLayerCfg = &hltdc->LayerCfg[LayerIdx];
 2783              		.loc 1 1674 13 discriminator 2
 2784 002c 3B68     		ldr	r3, [r7]
 2785 002e 3422     		movs	r2, #52
 2786 0030 02FB03F3 		mul	r3, r2, r3
 2787 0034 3833     		adds	r3, r3, #56
 2788 0036 FA68     		ldr	r2, [r7, #12]
 2789 0038 1344     		add	r3, r3, r2
 2790 003a 7B61     		str	r3, [r7, #20]
1675:Drivers/STM32L4xx_HAL_Driver/Src/stm32l4xx_hal_ltdc.c **** 
1676:Drivers/STM32L4xx_HAL_Driver/Src/stm32l4xx_hal_ltdc.c ****   /* update horizontal start/stop */
1677:Drivers/STM32L4xx_HAL_Driver/Src/stm32l4xx_hal_ltdc.c ****   pLayerCfg->WindowX0 = X0;
 2791              		.loc 1 1677 23 discriminator 2
 2792 003c 7B69     		ldr	r3, [r7, #20]
 2793 003e BA68     		ldr	r2, [r7, #8]
 2794 0040 1A60     		str	r2, [r3]
1678:Drivers/STM32L4xx_HAL_Driver/Src/stm32l4xx_hal_ltdc.c ****   pLayerCfg->WindowX1 = X0 + pLayerCfg->ImageWidth;
 2795              		.loc 1 1678 39 discriminator 2
 2796 0042 7B69     		ldr	r3, [r7, #20]
 2797 0044 9A6A     		ldr	r2, [r3, #40]
 2798              		.loc 1 1678 28 discriminator 2
 2799 0046 BB68     		ldr	r3, [r7, #8]
 2800 0048 1A44     		add	r2, r2, r3
 2801              		.loc 1 1678 23 discriminator 2
 2802 004a 7B69     		ldr	r3, [r7, #20]
 2803 004c 5A60     		str	r2, [r3, #4]
1679:Drivers/STM32L4xx_HAL_Driver/Src/stm32l4xx_hal_ltdc.c **** 
1680:Drivers/STM32L4xx_HAL_Driver/Src/stm32l4xx_hal_ltdc.c ****   /* update vertical start/stop */
1681:Drivers/STM32L4xx_HAL_Driver/Src/stm32l4xx_hal_ltdc.c ****   pLayerCfg->WindowY0 = Y0;
 2804              		.loc 1 1681 23 discriminator 2
 2805 004e 7B69     		ldr	r3, [r7, #20]
 2806 0050 7A68     		ldr	r2, [r7, #4]
 2807 0052 9A60     		str	r2, [r3, #8]
1682:Drivers/STM32L4xx_HAL_Driver/Src/stm32l4xx_hal_ltdc.c ****   pLayerCfg->WindowY1 = Y0 + pLayerCfg->ImageHeight;
 2808              		.loc 1 1682 39 discriminator 2
ARM GAS  C:\Users\Morroway\AppData\Local\Temp\cclk5axT.s 			page 79


 2809 0054 7B69     		ldr	r3, [r7, #20]
 2810 0056 DA6A     		ldr	r2, [r3, #44]
 2811              		.loc 1 1682 28 discriminator 2
 2812 0058 7B68     		ldr	r3, [r7, #4]
 2813 005a 1A44     		add	r2, r2, r3
 2814              		.loc 1 1682 23 discriminator 2
 2815 005c 7B69     		ldr	r3, [r7, #20]
 2816 005e DA60     		str	r2, [r3, #12]
1683:Drivers/STM32L4xx_HAL_Driver/Src/stm32l4xx_hal_ltdc.c **** 
1684:Drivers/STM32L4xx_HAL_Driver/Src/stm32l4xx_hal_ltdc.c ****   /* Set LTDC parameters */
1685:Drivers/STM32L4xx_HAL_Driver/Src/stm32l4xx_hal_ltdc.c ****   LTDC_SetConfig(hltdc, pLayerCfg, LayerIdx);
 2817              		.loc 1 1685 3 discriminator 2
 2818 0060 3A68     		ldr	r2, [r7]
 2819 0062 7969     		ldr	r1, [r7, #20]
 2820 0064 F868     		ldr	r0, [r7, #12]
 2821 0066 FFF7FEFF 		bl	LTDC_SetConfig
1686:Drivers/STM32L4xx_HAL_Driver/Src/stm32l4xx_hal_ltdc.c **** 
1687:Drivers/STM32L4xx_HAL_Driver/Src/stm32l4xx_hal_ltdc.c ****   /* Change the LTDC state*/
1688:Drivers/STM32L4xx_HAL_Driver/Src/stm32l4xx_hal_ltdc.c ****   hltdc->State = HAL_LTDC_STATE_READY;
 2822              		.loc 1 1688 16 discriminator 2
 2823 006a FB68     		ldr	r3, [r7, #12]
 2824 006c 0122     		movs	r2, #1
 2825 006e 83F86D20 		strb	r2, [r3, #109]
1689:Drivers/STM32L4xx_HAL_Driver/Src/stm32l4xx_hal_ltdc.c **** 
1690:Drivers/STM32L4xx_HAL_Driver/Src/stm32l4xx_hal_ltdc.c ****   /* Process unlocked */
1691:Drivers/STM32L4xx_HAL_Driver/Src/stm32l4xx_hal_ltdc.c ****   __HAL_UNLOCK(hltdc);
 2826              		.loc 1 1691 3 discriminator 2
 2827 0072 FB68     		ldr	r3, [r7, #12]
 2828 0074 0022     		movs	r2, #0
 2829 0076 83F86C20 		strb	r2, [r3, #108]
1692:Drivers/STM32L4xx_HAL_Driver/Src/stm32l4xx_hal_ltdc.c **** 
1693:Drivers/STM32L4xx_HAL_Driver/Src/stm32l4xx_hal_ltdc.c ****   return HAL_OK;
 2830              		.loc 1 1693 10 discriminator 2
 2831 007a 0023     		movs	r3, #0
 2832              	.L101:
1694:Drivers/STM32L4xx_HAL_Driver/Src/stm32l4xx_hal_ltdc.c **** }
 2833              		.loc 1 1694 1
 2834 007c 1846     		mov	r0, r3
 2835 007e 1837     		adds	r7, r7, #24
 2836              		.cfi_def_cfa_offset 8
 2837 0080 BD46     		mov	sp, r7
 2838              		.cfi_def_cfa_register 13
 2839              		@ sp needed
 2840 0082 80BD     		pop	{r7, pc}
 2841              		.cfi_endproc
 2842              	.LFE348:
 2844              		.section	.text.HAL_LTDC_SetPixelFormat_NoReload,"ax",%progbits
 2845              		.align	1
 2846              		.global	HAL_LTDC_SetPixelFormat_NoReload
 2847              		.syntax unified
 2848              		.thumb
 2849              		.thumb_func
 2851              	HAL_LTDC_SetPixelFormat_NoReload:
 2852              	.LFB349:
1695:Drivers/STM32L4xx_HAL_Driver/Src/stm32l4xx_hal_ltdc.c **** 
1696:Drivers/STM32L4xx_HAL_Driver/Src/stm32l4xx_hal_ltdc.c **** /**
1697:Drivers/STM32L4xx_HAL_Driver/Src/stm32l4xx_hal_ltdc.c ****   * @brief  Reconfigure the pixel format without reloading.
ARM GAS  C:\Users\Morroway\AppData\Local\Temp\cclk5axT.s 			page 80


1698:Drivers/STM32L4xx_HAL_Driver/Src/stm32l4xx_hal_ltdc.c ****   *         Variant of the function HAL_LTDC_SetPixelFormat without immediate reload.
1699:Drivers/STM32L4xx_HAL_Driver/Src/stm32l4xx_hal_ltdc.c ****   * @param  hltdc        pointer to a LTDC_HandleTypeDfef structure that contains
1700:Drivers/STM32L4xx_HAL_Driver/Src/stm32l4xx_hal_ltdc.c ****   *                      the configuration information for the LTDC.
1701:Drivers/STM32L4xx_HAL_Driver/Src/stm32l4xx_hal_ltdc.c ****   * @param  Pixelformat  new pixel format value.
1702:Drivers/STM32L4xx_HAL_Driver/Src/stm32l4xx_hal_ltdc.c ****   * @param  LayerIdx     LTDC Layer index.
1703:Drivers/STM32L4xx_HAL_Driver/Src/stm32l4xx_hal_ltdc.c ****   *                      This parameter can be one of the following values:
1704:Drivers/STM32L4xx_HAL_Driver/Src/stm32l4xx_hal_ltdc.c ****   *                      LTDC_LAYER_1 (0) or LTDC_LAYER_2 (1).
1705:Drivers/STM32L4xx_HAL_Driver/Src/stm32l4xx_hal_ltdc.c ****   * @retval  HAL status
1706:Drivers/STM32L4xx_HAL_Driver/Src/stm32l4xx_hal_ltdc.c ****   */
1707:Drivers/STM32L4xx_HAL_Driver/Src/stm32l4xx_hal_ltdc.c **** HAL_StatusTypeDef HAL_LTDC_SetPixelFormat_NoReload(LTDC_HandleTypeDef *hltdc, uint32_t Pixelformat,
1708:Drivers/STM32L4xx_HAL_Driver/Src/stm32l4xx_hal_ltdc.c **** {
 2853              		.loc 1 1708 1
 2854              		.cfi_startproc
 2855              		@ args = 0, pretend = 0, frame = 24
 2856              		@ frame_needed = 1, uses_anonymous_args = 0
 2857 0000 80B5     		push	{r7, lr}
 2858              		.cfi_def_cfa_offset 8
 2859              		.cfi_offset 7, -8
 2860              		.cfi_offset 14, -4
 2861 0002 86B0     		sub	sp, sp, #24
 2862              		.cfi_def_cfa_offset 32
 2863 0004 00AF     		add	r7, sp, #0
 2864              		.cfi_def_cfa_register 7
 2865 0006 F860     		str	r0, [r7, #12]
 2866 0008 B960     		str	r1, [r7, #8]
 2867 000a 7A60     		str	r2, [r7, #4]
1709:Drivers/STM32L4xx_HAL_Driver/Src/stm32l4xx_hal_ltdc.c ****   LTDC_LayerCfgTypeDef *pLayerCfg;
1710:Drivers/STM32L4xx_HAL_Driver/Src/stm32l4xx_hal_ltdc.c **** 
1711:Drivers/STM32L4xx_HAL_Driver/Src/stm32l4xx_hal_ltdc.c ****   /* Check the parameters */
1712:Drivers/STM32L4xx_HAL_Driver/Src/stm32l4xx_hal_ltdc.c ****   assert_param(IS_LTDC_PIXEL_FORMAT(Pixelformat));
1713:Drivers/STM32L4xx_HAL_Driver/Src/stm32l4xx_hal_ltdc.c ****   assert_param(IS_LTDC_LAYER(LayerIdx));
1714:Drivers/STM32L4xx_HAL_Driver/Src/stm32l4xx_hal_ltdc.c **** 
1715:Drivers/STM32L4xx_HAL_Driver/Src/stm32l4xx_hal_ltdc.c ****   /* Process locked */
1716:Drivers/STM32L4xx_HAL_Driver/Src/stm32l4xx_hal_ltdc.c ****   __HAL_LOCK(hltdc);
 2868              		.loc 1 1716 3
 2869 000c FB68     		ldr	r3, [r7, #12]
 2870 000e 93F86C30 		ldrb	r3, [r3, #108]	@ zero_extendqisi2
 2871 0012 012B     		cmp	r3, #1
 2872 0014 01D1     		bne	.L103
 2873              		.loc 1 1716 3 is_stmt 0 discriminator 1
 2874 0016 0223     		movs	r3, #2
 2875 0018 20E0     		b	.L104
 2876              	.L103:
 2877              		.loc 1 1716 3 discriminator 2
 2878 001a FB68     		ldr	r3, [r7, #12]
 2879 001c 0122     		movs	r2, #1
 2880 001e 83F86C20 		strb	r2, [r3, #108]
1717:Drivers/STM32L4xx_HAL_Driver/Src/stm32l4xx_hal_ltdc.c **** 
1718:Drivers/STM32L4xx_HAL_Driver/Src/stm32l4xx_hal_ltdc.c ****   /* Change LTDC peripheral state */
1719:Drivers/STM32L4xx_HAL_Driver/Src/stm32l4xx_hal_ltdc.c ****   hltdc->State = HAL_LTDC_STATE_BUSY;
 2881              		.loc 1 1719 16 is_stmt 1 discriminator 2
 2882 0022 FB68     		ldr	r3, [r7, #12]
 2883 0024 0222     		movs	r2, #2
 2884 0026 83F86D20 		strb	r2, [r3, #109]
1720:Drivers/STM32L4xx_HAL_Driver/Src/stm32l4xx_hal_ltdc.c **** 
1721:Drivers/STM32L4xx_HAL_Driver/Src/stm32l4xx_hal_ltdc.c ****   /* Get layer configuration from handle structure */
1722:Drivers/STM32L4xx_HAL_Driver/Src/stm32l4xx_hal_ltdc.c ****   pLayerCfg = &hltdc->LayerCfg[LayerIdx];
ARM GAS  C:\Users\Morroway\AppData\Local\Temp\cclk5axT.s 			page 81


 2885              		.loc 1 1722 13 discriminator 2
 2886 002a 7B68     		ldr	r3, [r7, #4]
 2887 002c 3422     		movs	r2, #52
 2888 002e 02FB03F3 		mul	r3, r2, r3
 2889 0032 3833     		adds	r3, r3, #56
 2890 0034 FA68     		ldr	r2, [r7, #12]
 2891 0036 1344     		add	r3, r3, r2
 2892 0038 7B61     		str	r3, [r7, #20]
1723:Drivers/STM32L4xx_HAL_Driver/Src/stm32l4xx_hal_ltdc.c **** 
1724:Drivers/STM32L4xx_HAL_Driver/Src/stm32l4xx_hal_ltdc.c ****   /* Reconfigure the pixel format */
1725:Drivers/STM32L4xx_HAL_Driver/Src/stm32l4xx_hal_ltdc.c ****   pLayerCfg->PixelFormat = Pixelformat;
 2893              		.loc 1 1725 26 discriminator 2
 2894 003a 7B69     		ldr	r3, [r7, #20]
 2895 003c BA68     		ldr	r2, [r7, #8]
 2896 003e 1A61     		str	r2, [r3, #16]
1726:Drivers/STM32L4xx_HAL_Driver/Src/stm32l4xx_hal_ltdc.c **** 
1727:Drivers/STM32L4xx_HAL_Driver/Src/stm32l4xx_hal_ltdc.c ****   /* Set LTDC parameters */
1728:Drivers/STM32L4xx_HAL_Driver/Src/stm32l4xx_hal_ltdc.c ****   LTDC_SetConfig(hltdc, pLayerCfg, LayerIdx);
 2897              		.loc 1 1728 3 discriminator 2
 2898 0040 7A68     		ldr	r2, [r7, #4]
 2899 0042 7969     		ldr	r1, [r7, #20]
 2900 0044 F868     		ldr	r0, [r7, #12]
 2901 0046 FFF7FEFF 		bl	LTDC_SetConfig
1729:Drivers/STM32L4xx_HAL_Driver/Src/stm32l4xx_hal_ltdc.c **** 
1730:Drivers/STM32L4xx_HAL_Driver/Src/stm32l4xx_hal_ltdc.c ****   /* Change the LTDC state*/
1731:Drivers/STM32L4xx_HAL_Driver/Src/stm32l4xx_hal_ltdc.c ****   hltdc->State = HAL_LTDC_STATE_READY;
 2902              		.loc 1 1731 16 discriminator 2
 2903 004a FB68     		ldr	r3, [r7, #12]
 2904 004c 0122     		movs	r2, #1
 2905 004e 83F86D20 		strb	r2, [r3, #109]
1732:Drivers/STM32L4xx_HAL_Driver/Src/stm32l4xx_hal_ltdc.c **** 
1733:Drivers/STM32L4xx_HAL_Driver/Src/stm32l4xx_hal_ltdc.c ****   /* Process unlocked */
1734:Drivers/STM32L4xx_HAL_Driver/Src/stm32l4xx_hal_ltdc.c ****   __HAL_UNLOCK(hltdc);
 2906              		.loc 1 1734 3 discriminator 2
 2907 0052 FB68     		ldr	r3, [r7, #12]
 2908 0054 0022     		movs	r2, #0
 2909 0056 83F86C20 		strb	r2, [r3, #108]
1735:Drivers/STM32L4xx_HAL_Driver/Src/stm32l4xx_hal_ltdc.c **** 
1736:Drivers/STM32L4xx_HAL_Driver/Src/stm32l4xx_hal_ltdc.c ****   return HAL_OK;
 2910              		.loc 1 1736 10 discriminator 2
 2911 005a 0023     		movs	r3, #0
 2912              	.L104:
1737:Drivers/STM32L4xx_HAL_Driver/Src/stm32l4xx_hal_ltdc.c **** }
 2913              		.loc 1 1737 1
 2914 005c 1846     		mov	r0, r3
 2915 005e 1837     		adds	r7, r7, #24
 2916              		.cfi_def_cfa_offset 8
 2917 0060 BD46     		mov	sp, r7
 2918              		.cfi_def_cfa_register 13
 2919              		@ sp needed
 2920 0062 80BD     		pop	{r7, pc}
 2921              		.cfi_endproc
 2922              	.LFE349:
 2924              		.section	.text.HAL_LTDC_SetAlpha_NoReload,"ax",%progbits
 2925              		.align	1
 2926              		.global	HAL_LTDC_SetAlpha_NoReload
 2927              		.syntax unified
ARM GAS  C:\Users\Morroway\AppData\Local\Temp\cclk5axT.s 			page 82


 2928              		.thumb
 2929              		.thumb_func
 2931              	HAL_LTDC_SetAlpha_NoReload:
 2932              	.LFB350:
1738:Drivers/STM32L4xx_HAL_Driver/Src/stm32l4xx_hal_ltdc.c **** 
1739:Drivers/STM32L4xx_HAL_Driver/Src/stm32l4xx_hal_ltdc.c **** /**
1740:Drivers/STM32L4xx_HAL_Driver/Src/stm32l4xx_hal_ltdc.c ****   * @brief  Reconfigure the layer alpha value without reloading.
1741:Drivers/STM32L4xx_HAL_Driver/Src/stm32l4xx_hal_ltdc.c ****   *         Variant of the function HAL_LTDC_SetAlpha without immediate reload.
1742:Drivers/STM32L4xx_HAL_Driver/Src/stm32l4xx_hal_ltdc.c ****   * @param  hltdc     pointer to a LTDC_HandleTypeDef structure that contains
1743:Drivers/STM32L4xx_HAL_Driver/Src/stm32l4xx_hal_ltdc.c ****   *                   the configuration information for the LTDC.
1744:Drivers/STM32L4xx_HAL_Driver/Src/stm32l4xx_hal_ltdc.c ****   * @param  Alpha     new alpha value.
1745:Drivers/STM32L4xx_HAL_Driver/Src/stm32l4xx_hal_ltdc.c ****   * @param  LayerIdx  LTDC Layer index.
1746:Drivers/STM32L4xx_HAL_Driver/Src/stm32l4xx_hal_ltdc.c ****   *                   This parameter can be one of the following values:
1747:Drivers/STM32L4xx_HAL_Driver/Src/stm32l4xx_hal_ltdc.c ****   *                   LTDC_LAYER_1 (0) or LTDC_LAYER_2 (1)
1748:Drivers/STM32L4xx_HAL_Driver/Src/stm32l4xx_hal_ltdc.c ****   * @retval  HAL status
1749:Drivers/STM32L4xx_HAL_Driver/Src/stm32l4xx_hal_ltdc.c ****   */
1750:Drivers/STM32L4xx_HAL_Driver/Src/stm32l4xx_hal_ltdc.c **** HAL_StatusTypeDef HAL_LTDC_SetAlpha_NoReload(LTDC_HandleTypeDef *hltdc, uint32_t Alpha, uint32_t La
1751:Drivers/STM32L4xx_HAL_Driver/Src/stm32l4xx_hal_ltdc.c **** {
 2933              		.loc 1 1751 1
 2934              		.cfi_startproc
 2935              		@ args = 0, pretend = 0, frame = 24
 2936              		@ frame_needed = 1, uses_anonymous_args = 0
 2937 0000 80B5     		push	{r7, lr}
 2938              		.cfi_def_cfa_offset 8
 2939              		.cfi_offset 7, -8
 2940              		.cfi_offset 14, -4
 2941 0002 86B0     		sub	sp, sp, #24
 2942              		.cfi_def_cfa_offset 32
 2943 0004 00AF     		add	r7, sp, #0
 2944              		.cfi_def_cfa_register 7
 2945 0006 F860     		str	r0, [r7, #12]
 2946 0008 B960     		str	r1, [r7, #8]
 2947 000a 7A60     		str	r2, [r7, #4]
1752:Drivers/STM32L4xx_HAL_Driver/Src/stm32l4xx_hal_ltdc.c ****   LTDC_LayerCfgTypeDef *pLayerCfg;
1753:Drivers/STM32L4xx_HAL_Driver/Src/stm32l4xx_hal_ltdc.c **** 
1754:Drivers/STM32L4xx_HAL_Driver/Src/stm32l4xx_hal_ltdc.c ****   /* Check the parameters */
1755:Drivers/STM32L4xx_HAL_Driver/Src/stm32l4xx_hal_ltdc.c ****   assert_param(IS_LTDC_ALPHA(Alpha));
1756:Drivers/STM32L4xx_HAL_Driver/Src/stm32l4xx_hal_ltdc.c ****   assert_param(IS_LTDC_LAYER(LayerIdx));
1757:Drivers/STM32L4xx_HAL_Driver/Src/stm32l4xx_hal_ltdc.c **** 
1758:Drivers/STM32L4xx_HAL_Driver/Src/stm32l4xx_hal_ltdc.c ****   /* Process locked */
1759:Drivers/STM32L4xx_HAL_Driver/Src/stm32l4xx_hal_ltdc.c ****   __HAL_LOCK(hltdc);
 2948              		.loc 1 1759 3
 2949 000c FB68     		ldr	r3, [r7, #12]
 2950 000e 93F86C30 		ldrb	r3, [r3, #108]	@ zero_extendqisi2
 2951 0012 012B     		cmp	r3, #1
 2952 0014 01D1     		bne	.L106
 2953              		.loc 1 1759 3 is_stmt 0 discriminator 1
 2954 0016 0223     		movs	r3, #2
 2955 0018 20E0     		b	.L107
 2956              	.L106:
 2957              		.loc 1 1759 3 discriminator 2
 2958 001a FB68     		ldr	r3, [r7, #12]
 2959 001c 0122     		movs	r2, #1
 2960 001e 83F86C20 		strb	r2, [r3, #108]
1760:Drivers/STM32L4xx_HAL_Driver/Src/stm32l4xx_hal_ltdc.c **** 
1761:Drivers/STM32L4xx_HAL_Driver/Src/stm32l4xx_hal_ltdc.c ****   /* Change LTDC peripheral state */
1762:Drivers/STM32L4xx_HAL_Driver/Src/stm32l4xx_hal_ltdc.c ****   hltdc->State = HAL_LTDC_STATE_BUSY;
ARM GAS  C:\Users\Morroway\AppData\Local\Temp\cclk5axT.s 			page 83


 2961              		.loc 1 1762 16 is_stmt 1 discriminator 2
 2962 0022 FB68     		ldr	r3, [r7, #12]
 2963 0024 0222     		movs	r2, #2
 2964 0026 83F86D20 		strb	r2, [r3, #109]
1763:Drivers/STM32L4xx_HAL_Driver/Src/stm32l4xx_hal_ltdc.c **** 
1764:Drivers/STM32L4xx_HAL_Driver/Src/stm32l4xx_hal_ltdc.c ****   /* Get layer configuration from handle structure */
1765:Drivers/STM32L4xx_HAL_Driver/Src/stm32l4xx_hal_ltdc.c ****   pLayerCfg = &hltdc->LayerCfg[LayerIdx];
 2965              		.loc 1 1765 13 discriminator 2
 2966 002a 7B68     		ldr	r3, [r7, #4]
 2967 002c 3422     		movs	r2, #52
 2968 002e 02FB03F3 		mul	r3, r2, r3
 2969 0032 3833     		adds	r3, r3, #56
 2970 0034 FA68     		ldr	r2, [r7, #12]
 2971 0036 1344     		add	r3, r3, r2
 2972 0038 7B61     		str	r3, [r7, #20]
1766:Drivers/STM32L4xx_HAL_Driver/Src/stm32l4xx_hal_ltdc.c **** 
1767:Drivers/STM32L4xx_HAL_Driver/Src/stm32l4xx_hal_ltdc.c ****   /* Reconfigure the Alpha value */
1768:Drivers/STM32L4xx_HAL_Driver/Src/stm32l4xx_hal_ltdc.c ****   pLayerCfg->Alpha = Alpha;
 2973              		.loc 1 1768 20 discriminator 2
 2974 003a 7B69     		ldr	r3, [r7, #20]
 2975 003c BA68     		ldr	r2, [r7, #8]
 2976 003e 5A61     		str	r2, [r3, #20]
1769:Drivers/STM32L4xx_HAL_Driver/Src/stm32l4xx_hal_ltdc.c **** 
1770:Drivers/STM32L4xx_HAL_Driver/Src/stm32l4xx_hal_ltdc.c ****   /* Set LTDC parameters */
1771:Drivers/STM32L4xx_HAL_Driver/Src/stm32l4xx_hal_ltdc.c ****   LTDC_SetConfig(hltdc, pLayerCfg, LayerIdx);
 2977              		.loc 1 1771 3 discriminator 2
 2978 0040 7A68     		ldr	r2, [r7, #4]
 2979 0042 7969     		ldr	r1, [r7, #20]
 2980 0044 F868     		ldr	r0, [r7, #12]
 2981 0046 FFF7FEFF 		bl	LTDC_SetConfig
1772:Drivers/STM32L4xx_HAL_Driver/Src/stm32l4xx_hal_ltdc.c **** 
1773:Drivers/STM32L4xx_HAL_Driver/Src/stm32l4xx_hal_ltdc.c ****   /* Change the LTDC state*/
1774:Drivers/STM32L4xx_HAL_Driver/Src/stm32l4xx_hal_ltdc.c ****   hltdc->State = HAL_LTDC_STATE_READY;
 2982              		.loc 1 1774 16 discriminator 2
 2983 004a FB68     		ldr	r3, [r7, #12]
 2984 004c 0122     		movs	r2, #1
 2985 004e 83F86D20 		strb	r2, [r3, #109]
1775:Drivers/STM32L4xx_HAL_Driver/Src/stm32l4xx_hal_ltdc.c **** 
1776:Drivers/STM32L4xx_HAL_Driver/Src/stm32l4xx_hal_ltdc.c ****   /* Process unlocked */
1777:Drivers/STM32L4xx_HAL_Driver/Src/stm32l4xx_hal_ltdc.c ****   __HAL_UNLOCK(hltdc);
 2986              		.loc 1 1777 3 discriminator 2
 2987 0052 FB68     		ldr	r3, [r7, #12]
 2988 0054 0022     		movs	r2, #0
 2989 0056 83F86C20 		strb	r2, [r3, #108]
1778:Drivers/STM32L4xx_HAL_Driver/Src/stm32l4xx_hal_ltdc.c **** 
1779:Drivers/STM32L4xx_HAL_Driver/Src/stm32l4xx_hal_ltdc.c ****   return HAL_OK;
 2990              		.loc 1 1779 10 discriminator 2
 2991 005a 0023     		movs	r3, #0
 2992              	.L107:
1780:Drivers/STM32L4xx_HAL_Driver/Src/stm32l4xx_hal_ltdc.c **** }
 2993              		.loc 1 1780 1
 2994 005c 1846     		mov	r0, r3
 2995 005e 1837     		adds	r7, r7, #24
 2996              		.cfi_def_cfa_offset 8
 2997 0060 BD46     		mov	sp, r7
 2998              		.cfi_def_cfa_register 13
 2999              		@ sp needed
ARM GAS  C:\Users\Morroway\AppData\Local\Temp\cclk5axT.s 			page 84


 3000 0062 80BD     		pop	{r7, pc}
 3001              		.cfi_endproc
 3002              	.LFE350:
 3004              		.section	.text.HAL_LTDC_SetAddress_NoReload,"ax",%progbits
 3005              		.align	1
 3006              		.global	HAL_LTDC_SetAddress_NoReload
 3007              		.syntax unified
 3008              		.thumb
 3009              		.thumb_func
 3011              	HAL_LTDC_SetAddress_NoReload:
 3012              	.LFB351:
1781:Drivers/STM32L4xx_HAL_Driver/Src/stm32l4xx_hal_ltdc.c **** 
1782:Drivers/STM32L4xx_HAL_Driver/Src/stm32l4xx_hal_ltdc.c **** /**
1783:Drivers/STM32L4xx_HAL_Driver/Src/stm32l4xx_hal_ltdc.c ****   * @brief  Reconfigure the frame buffer Address without reloading.
1784:Drivers/STM32L4xx_HAL_Driver/Src/stm32l4xx_hal_ltdc.c ****   *         Variant of the function HAL_LTDC_SetAddress without immediate reload.
1785:Drivers/STM32L4xx_HAL_Driver/Src/stm32l4xx_hal_ltdc.c ****   * @param  hltdc     pointer to a LTDC_HandleTypeDef structure that contains
1786:Drivers/STM32L4xx_HAL_Driver/Src/stm32l4xx_hal_ltdc.c ****   *                   the configuration information for the LTDC.
1787:Drivers/STM32L4xx_HAL_Driver/Src/stm32l4xx_hal_ltdc.c ****   * @param  Address   new address value.
1788:Drivers/STM32L4xx_HAL_Driver/Src/stm32l4xx_hal_ltdc.c ****   * @param  LayerIdx  LTDC Layer index.
1789:Drivers/STM32L4xx_HAL_Driver/Src/stm32l4xx_hal_ltdc.c ****   *                   This parameter can be one of the following values:
1790:Drivers/STM32L4xx_HAL_Driver/Src/stm32l4xx_hal_ltdc.c ****   *                   LTDC_LAYER_1 (0) or LTDC_LAYER_2 (1).
1791:Drivers/STM32L4xx_HAL_Driver/Src/stm32l4xx_hal_ltdc.c ****   * @retval  HAL status
1792:Drivers/STM32L4xx_HAL_Driver/Src/stm32l4xx_hal_ltdc.c ****   */
1793:Drivers/STM32L4xx_HAL_Driver/Src/stm32l4xx_hal_ltdc.c **** HAL_StatusTypeDef HAL_LTDC_SetAddress_NoReload(LTDC_HandleTypeDef *hltdc, uint32_t Address, uint32_
1794:Drivers/STM32L4xx_HAL_Driver/Src/stm32l4xx_hal_ltdc.c **** {
 3013              		.loc 1 1794 1
 3014              		.cfi_startproc
 3015              		@ args = 0, pretend = 0, frame = 24
 3016              		@ frame_needed = 1, uses_anonymous_args = 0
 3017 0000 80B5     		push	{r7, lr}
 3018              		.cfi_def_cfa_offset 8
 3019              		.cfi_offset 7, -8
 3020              		.cfi_offset 14, -4
 3021 0002 86B0     		sub	sp, sp, #24
 3022              		.cfi_def_cfa_offset 32
 3023 0004 00AF     		add	r7, sp, #0
 3024              		.cfi_def_cfa_register 7
 3025 0006 F860     		str	r0, [r7, #12]
 3026 0008 B960     		str	r1, [r7, #8]
 3027 000a 7A60     		str	r2, [r7, #4]
1795:Drivers/STM32L4xx_HAL_Driver/Src/stm32l4xx_hal_ltdc.c ****   LTDC_LayerCfgTypeDef *pLayerCfg;
1796:Drivers/STM32L4xx_HAL_Driver/Src/stm32l4xx_hal_ltdc.c **** 
1797:Drivers/STM32L4xx_HAL_Driver/Src/stm32l4xx_hal_ltdc.c ****   /* Check the parameters */
1798:Drivers/STM32L4xx_HAL_Driver/Src/stm32l4xx_hal_ltdc.c ****   assert_param(IS_LTDC_LAYER(LayerIdx));
1799:Drivers/STM32L4xx_HAL_Driver/Src/stm32l4xx_hal_ltdc.c **** 
1800:Drivers/STM32L4xx_HAL_Driver/Src/stm32l4xx_hal_ltdc.c ****   /* Process locked */
1801:Drivers/STM32L4xx_HAL_Driver/Src/stm32l4xx_hal_ltdc.c ****   __HAL_LOCK(hltdc);
 3028              		.loc 1 1801 3
 3029 000c FB68     		ldr	r3, [r7, #12]
 3030 000e 93F86C30 		ldrb	r3, [r3, #108]	@ zero_extendqisi2
 3031 0012 012B     		cmp	r3, #1
 3032 0014 01D1     		bne	.L109
 3033              		.loc 1 1801 3 is_stmt 0 discriminator 1
 3034 0016 0223     		movs	r3, #2
 3035 0018 20E0     		b	.L110
 3036              	.L109:
 3037              		.loc 1 1801 3 discriminator 2
ARM GAS  C:\Users\Morroway\AppData\Local\Temp\cclk5axT.s 			page 85


 3038 001a FB68     		ldr	r3, [r7, #12]
 3039 001c 0122     		movs	r2, #1
 3040 001e 83F86C20 		strb	r2, [r3, #108]
1802:Drivers/STM32L4xx_HAL_Driver/Src/stm32l4xx_hal_ltdc.c **** 
1803:Drivers/STM32L4xx_HAL_Driver/Src/stm32l4xx_hal_ltdc.c ****   /* Change LTDC peripheral state */
1804:Drivers/STM32L4xx_HAL_Driver/Src/stm32l4xx_hal_ltdc.c ****   hltdc->State = HAL_LTDC_STATE_BUSY;
 3041              		.loc 1 1804 16 is_stmt 1 discriminator 2
 3042 0022 FB68     		ldr	r3, [r7, #12]
 3043 0024 0222     		movs	r2, #2
 3044 0026 83F86D20 		strb	r2, [r3, #109]
1805:Drivers/STM32L4xx_HAL_Driver/Src/stm32l4xx_hal_ltdc.c **** 
1806:Drivers/STM32L4xx_HAL_Driver/Src/stm32l4xx_hal_ltdc.c ****   /* Get layer configuration from handle structure */
1807:Drivers/STM32L4xx_HAL_Driver/Src/stm32l4xx_hal_ltdc.c ****   pLayerCfg = &hltdc->LayerCfg[LayerIdx];
 3045              		.loc 1 1807 13 discriminator 2
 3046 002a 7B68     		ldr	r3, [r7, #4]
 3047 002c 3422     		movs	r2, #52
 3048 002e 02FB03F3 		mul	r3, r2, r3
 3049 0032 3833     		adds	r3, r3, #56
 3050 0034 FA68     		ldr	r2, [r7, #12]
 3051 0036 1344     		add	r3, r3, r2
 3052 0038 7B61     		str	r3, [r7, #20]
1808:Drivers/STM32L4xx_HAL_Driver/Src/stm32l4xx_hal_ltdc.c **** 
1809:Drivers/STM32L4xx_HAL_Driver/Src/stm32l4xx_hal_ltdc.c ****   /* Reconfigure the Address */
1810:Drivers/STM32L4xx_HAL_Driver/Src/stm32l4xx_hal_ltdc.c ****   pLayerCfg->FBStartAdress = Address;
 3053              		.loc 1 1810 28 discriminator 2
 3054 003a 7B69     		ldr	r3, [r7, #20]
 3055 003c BA68     		ldr	r2, [r7, #8]
 3056 003e 5A62     		str	r2, [r3, #36]
1811:Drivers/STM32L4xx_HAL_Driver/Src/stm32l4xx_hal_ltdc.c **** 
1812:Drivers/STM32L4xx_HAL_Driver/Src/stm32l4xx_hal_ltdc.c ****   /* Set LTDC parameters */
1813:Drivers/STM32L4xx_HAL_Driver/Src/stm32l4xx_hal_ltdc.c ****   LTDC_SetConfig(hltdc, pLayerCfg, LayerIdx);
 3057              		.loc 1 1813 3 discriminator 2
 3058 0040 7A68     		ldr	r2, [r7, #4]
 3059 0042 7969     		ldr	r1, [r7, #20]
 3060 0044 F868     		ldr	r0, [r7, #12]
 3061 0046 FFF7FEFF 		bl	LTDC_SetConfig
1814:Drivers/STM32L4xx_HAL_Driver/Src/stm32l4xx_hal_ltdc.c **** 
1815:Drivers/STM32L4xx_HAL_Driver/Src/stm32l4xx_hal_ltdc.c ****   /* Change the LTDC state*/
1816:Drivers/STM32L4xx_HAL_Driver/Src/stm32l4xx_hal_ltdc.c ****   hltdc->State = HAL_LTDC_STATE_READY;
 3062              		.loc 1 1816 16 discriminator 2
 3063 004a FB68     		ldr	r3, [r7, #12]
 3064 004c 0122     		movs	r2, #1
 3065 004e 83F86D20 		strb	r2, [r3, #109]
1817:Drivers/STM32L4xx_HAL_Driver/Src/stm32l4xx_hal_ltdc.c **** 
1818:Drivers/STM32L4xx_HAL_Driver/Src/stm32l4xx_hal_ltdc.c ****   /* Process unlocked */
1819:Drivers/STM32L4xx_HAL_Driver/Src/stm32l4xx_hal_ltdc.c ****   __HAL_UNLOCK(hltdc);
 3066              		.loc 1 1819 3 discriminator 2
 3067 0052 FB68     		ldr	r3, [r7, #12]
 3068 0054 0022     		movs	r2, #0
 3069 0056 83F86C20 		strb	r2, [r3, #108]
1820:Drivers/STM32L4xx_HAL_Driver/Src/stm32l4xx_hal_ltdc.c **** 
1821:Drivers/STM32L4xx_HAL_Driver/Src/stm32l4xx_hal_ltdc.c ****   return HAL_OK;
 3070              		.loc 1 1821 10 discriminator 2
 3071 005a 0023     		movs	r3, #0
 3072              	.L110:
1822:Drivers/STM32L4xx_HAL_Driver/Src/stm32l4xx_hal_ltdc.c **** }
 3073              		.loc 1 1822 1
ARM GAS  C:\Users\Morroway\AppData\Local\Temp\cclk5axT.s 			page 86


 3074 005c 1846     		mov	r0, r3
 3075 005e 1837     		adds	r7, r7, #24
 3076              		.cfi_def_cfa_offset 8
 3077 0060 BD46     		mov	sp, r7
 3078              		.cfi_def_cfa_register 13
 3079              		@ sp needed
 3080 0062 80BD     		pop	{r7, pc}
 3081              		.cfi_endproc
 3082              	.LFE351:
 3084              		.section	.text.HAL_LTDC_SetPitch_NoReload,"ax",%progbits
 3085              		.align	1
 3086              		.global	HAL_LTDC_SetPitch_NoReload
 3087              		.syntax unified
 3088              		.thumb
 3089              		.thumb_func
 3091              	HAL_LTDC_SetPitch_NoReload:
 3092              	.LFB352:
1823:Drivers/STM32L4xx_HAL_Driver/Src/stm32l4xx_hal_ltdc.c **** 
1824:Drivers/STM32L4xx_HAL_Driver/Src/stm32l4xx_hal_ltdc.c **** /**
1825:Drivers/STM32L4xx_HAL_Driver/Src/stm32l4xx_hal_ltdc.c ****   * @brief  Function used to reconfigure the pitch for specific cases where the attached LayerIdx b
1826:Drivers/STM32L4xx_HAL_Driver/Src/stm32l4xx_hal_ltdc.c ****   *         that is larger than the one intended to be displayed on screen. Example of a buffer 800
1827:Drivers/STM32L4xx_HAL_Driver/Src/stm32l4xx_hal_ltdc.c ****   *         layer for which we want to read and display on screen only a portion 320x240 taken in t
1828:Drivers/STM32L4xx_HAL_Driver/Src/stm32l4xx_hal_ltdc.c ****   *         of the buffer.
1829:Drivers/STM32L4xx_HAL_Driver/Src/stm32l4xx_hal_ltdc.c ****   *         The pitch in pixels will be in that case 800 pixels and not 320 pixels as initially con
1830:Drivers/STM32L4xx_HAL_Driver/Src/stm32l4xx_hal_ltdc.c ****   *         previous call to HAL_LTDC_ConfigLayer().
1831:Drivers/STM32L4xx_HAL_Driver/Src/stm32l4xx_hal_ltdc.c ****   * @note   This function should be called only after a previous call to HAL_LTDC_ConfigLayer() to 
1832:Drivers/STM32L4xx_HAL_Driver/Src/stm32l4xx_hal_ltdc.c ****   *         pitch configured by HAL_LTDC_ConfigLayer() when required (refer to example described ju
1833:Drivers/STM32L4xx_HAL_Driver/Src/stm32l4xx_hal_ltdc.c ****   *         Variant of the function HAL_LTDC_SetPitch without immediate reload.
1834:Drivers/STM32L4xx_HAL_Driver/Src/stm32l4xx_hal_ltdc.c ****   * @param  hltdc              pointer to a LTDC_HandleTypeDef structure that contains
1835:Drivers/STM32L4xx_HAL_Driver/Src/stm32l4xx_hal_ltdc.c ****   *                            the configuration information for the LTDC.
1836:Drivers/STM32L4xx_HAL_Driver/Src/stm32l4xx_hal_ltdc.c ****   * @param  LinePitchInPixels  New line pitch in pixels to configure for LTDC layer 'LayerIdx'.
1837:Drivers/STM32L4xx_HAL_Driver/Src/stm32l4xx_hal_ltdc.c ****   * @param  LayerIdx           LTDC layer index concerned by the modification of line pitch.
1838:Drivers/STM32L4xx_HAL_Driver/Src/stm32l4xx_hal_ltdc.c ****   * @retval HAL status
1839:Drivers/STM32L4xx_HAL_Driver/Src/stm32l4xx_hal_ltdc.c ****   */
1840:Drivers/STM32L4xx_HAL_Driver/Src/stm32l4xx_hal_ltdc.c **** HAL_StatusTypeDef HAL_LTDC_SetPitch_NoReload(LTDC_HandleTypeDef *hltdc, uint32_t LinePitchInPixels,
1841:Drivers/STM32L4xx_HAL_Driver/Src/stm32l4xx_hal_ltdc.c **** {
 3093              		.loc 1 1841 1
 3094              		.cfi_startproc
 3095              		@ args = 0, pretend = 0, frame = 32
 3096              		@ frame_needed = 1, uses_anonymous_args = 0
 3097              		@ link register save eliminated.
 3098 0000 80B4     		push	{r7}
 3099              		.cfi_def_cfa_offset 4
 3100              		.cfi_offset 7, -4
 3101 0002 89B0     		sub	sp, sp, #36
 3102              		.cfi_def_cfa_offset 40
 3103 0004 00AF     		add	r7, sp, #0
 3104              		.cfi_def_cfa_register 7
 3105 0006 F860     		str	r0, [r7, #12]
 3106 0008 B960     		str	r1, [r7, #8]
 3107 000a 7A60     		str	r2, [r7, #4]
1842:Drivers/STM32L4xx_HAL_Driver/Src/stm32l4xx_hal_ltdc.c ****   uint32_t tmp;
1843:Drivers/STM32L4xx_HAL_Driver/Src/stm32l4xx_hal_ltdc.c ****   uint32_t pitchUpdate;
1844:Drivers/STM32L4xx_HAL_Driver/Src/stm32l4xx_hal_ltdc.c ****   uint32_t pixelFormat;
1845:Drivers/STM32L4xx_HAL_Driver/Src/stm32l4xx_hal_ltdc.c **** 
1846:Drivers/STM32L4xx_HAL_Driver/Src/stm32l4xx_hal_ltdc.c ****   /* Check the parameters */
1847:Drivers/STM32L4xx_HAL_Driver/Src/stm32l4xx_hal_ltdc.c ****   assert_param(IS_LTDC_LAYER(LayerIdx));
ARM GAS  C:\Users\Morroway\AppData\Local\Temp\cclk5axT.s 			page 87


1848:Drivers/STM32L4xx_HAL_Driver/Src/stm32l4xx_hal_ltdc.c **** 
1849:Drivers/STM32L4xx_HAL_Driver/Src/stm32l4xx_hal_ltdc.c ****   /* Process locked */
1850:Drivers/STM32L4xx_HAL_Driver/Src/stm32l4xx_hal_ltdc.c ****   __HAL_LOCK(hltdc);
 3108              		.loc 1 1850 3
 3109 000c FB68     		ldr	r3, [r7, #12]
 3110 000e 93F86C30 		ldrb	r3, [r3, #108]	@ zero_extendqisi2
 3111 0012 012B     		cmp	r3, #1
 3112 0014 01D1     		bne	.L112
 3113              		.loc 1 1850 3 is_stmt 0 discriminator 1
 3114 0016 0223     		movs	r3, #2
 3115 0018 63E0     		b	.L113
 3116              	.L112:
 3117              		.loc 1 1850 3 discriminator 2
 3118 001a FB68     		ldr	r3, [r7, #12]
 3119 001c 0122     		movs	r2, #1
 3120 001e 83F86C20 		strb	r2, [r3, #108]
1851:Drivers/STM32L4xx_HAL_Driver/Src/stm32l4xx_hal_ltdc.c **** 
1852:Drivers/STM32L4xx_HAL_Driver/Src/stm32l4xx_hal_ltdc.c ****   /* Change LTDC peripheral state */
1853:Drivers/STM32L4xx_HAL_Driver/Src/stm32l4xx_hal_ltdc.c ****   hltdc->State = HAL_LTDC_STATE_BUSY;
 3121              		.loc 1 1853 16 is_stmt 1 discriminator 2
 3122 0022 FB68     		ldr	r3, [r7, #12]
 3123 0024 0222     		movs	r2, #2
 3124 0026 83F86D20 		strb	r2, [r3, #109]
1854:Drivers/STM32L4xx_HAL_Driver/Src/stm32l4xx_hal_ltdc.c **** 
1855:Drivers/STM32L4xx_HAL_Driver/Src/stm32l4xx_hal_ltdc.c ****   /* get LayerIdx used pixel format */
1856:Drivers/STM32L4xx_HAL_Driver/Src/stm32l4xx_hal_ltdc.c ****   pixelFormat = hltdc->LayerCfg[LayerIdx].PixelFormat;
 3125              		.loc 1 1856 15 discriminator 2
 3126 002a FA68     		ldr	r2, [r7, #12]
 3127 002c 7B68     		ldr	r3, [r7, #4]
 3128 002e 3421     		movs	r1, #52
 3129 0030 01FB03F3 		mul	r3, r1, r3
 3130 0034 1344     		add	r3, r3, r2
 3131 0036 4833     		adds	r3, r3, #72
 3132 0038 1B68     		ldr	r3, [r3]
 3133 003a BB61     		str	r3, [r7, #24]
1857:Drivers/STM32L4xx_HAL_Driver/Src/stm32l4xx_hal_ltdc.c **** 
1858:Drivers/STM32L4xx_HAL_Driver/Src/stm32l4xx_hal_ltdc.c ****   if (pixelFormat == LTDC_PIXEL_FORMAT_ARGB8888)
 3134              		.loc 1 1858 6 discriminator 2
 3135 003c BB69     		ldr	r3, [r7, #24]
 3136 003e 002B     		cmp	r3, #0
 3137 0040 02D1     		bne	.L114
1859:Drivers/STM32L4xx_HAL_Driver/Src/stm32l4xx_hal_ltdc.c ****   {
1860:Drivers/STM32L4xx_HAL_Driver/Src/stm32l4xx_hal_ltdc.c ****     tmp = 4U;
 3138              		.loc 1 1860 9
 3139 0042 0423     		movs	r3, #4
 3140 0044 FB61     		str	r3, [r7, #28]
 3141 0046 16E0     		b	.L115
 3142              	.L114:
1861:Drivers/STM32L4xx_HAL_Driver/Src/stm32l4xx_hal_ltdc.c ****   }
1862:Drivers/STM32L4xx_HAL_Driver/Src/stm32l4xx_hal_ltdc.c ****   else if (pixelFormat == LTDC_PIXEL_FORMAT_RGB888)
 3143              		.loc 1 1862 11
 3144 0048 BB69     		ldr	r3, [r7, #24]
 3145 004a 012B     		cmp	r3, #1
 3146 004c 02D1     		bne	.L116
1863:Drivers/STM32L4xx_HAL_Driver/Src/stm32l4xx_hal_ltdc.c ****   {
1864:Drivers/STM32L4xx_HAL_Driver/Src/stm32l4xx_hal_ltdc.c ****     tmp = 3U;
 3147              		.loc 1 1864 9
ARM GAS  C:\Users\Morroway\AppData\Local\Temp\cclk5axT.s 			page 88


 3148 004e 0323     		movs	r3, #3
 3149 0050 FB61     		str	r3, [r7, #28]
 3150 0052 10E0     		b	.L115
 3151              	.L116:
1865:Drivers/STM32L4xx_HAL_Driver/Src/stm32l4xx_hal_ltdc.c ****   }
1866:Drivers/STM32L4xx_HAL_Driver/Src/stm32l4xx_hal_ltdc.c ****   else if ((pixelFormat == LTDC_PIXEL_FORMAT_ARGB4444) || \
 3152              		.loc 1 1866 11
 3153 0054 BB69     		ldr	r3, [r7, #24]
 3154 0056 042B     		cmp	r3, #4
 3155 0058 08D0     		beq	.L117
 3156              		.loc 1 1866 56 discriminator 1
 3157 005a BB69     		ldr	r3, [r7, #24]
 3158 005c 022B     		cmp	r3, #2
 3159 005e 05D0     		beq	.L117
1867:Drivers/STM32L4xx_HAL_Driver/Src/stm32l4xx_hal_ltdc.c ****            (pixelFormat == LTDC_PIXEL_FORMAT_RGB565)   || \
 3160              		.loc 1 1867 56
 3161 0060 BB69     		ldr	r3, [r7, #24]
 3162 0062 032B     		cmp	r3, #3
 3163 0064 02D0     		beq	.L117
1868:Drivers/STM32L4xx_HAL_Driver/Src/stm32l4xx_hal_ltdc.c ****            (pixelFormat == LTDC_PIXEL_FORMAT_ARGB1555) || \
 3164              		.loc 1 1868 56
 3165 0066 BB69     		ldr	r3, [r7, #24]
 3166 0068 072B     		cmp	r3, #7
 3167 006a 02D1     		bne	.L118
 3168              	.L117:
1869:Drivers/STM32L4xx_HAL_Driver/Src/stm32l4xx_hal_ltdc.c ****            (pixelFormat == LTDC_PIXEL_FORMAT_AL88))
1870:Drivers/STM32L4xx_HAL_Driver/Src/stm32l4xx_hal_ltdc.c ****   {
1871:Drivers/STM32L4xx_HAL_Driver/Src/stm32l4xx_hal_ltdc.c ****     tmp = 2U;
 3169              		.loc 1 1871 9
 3170 006c 0223     		movs	r3, #2
 3171 006e FB61     		str	r3, [r7, #28]
 3172 0070 01E0     		b	.L115
 3173              	.L118:
1872:Drivers/STM32L4xx_HAL_Driver/Src/stm32l4xx_hal_ltdc.c ****   }
1873:Drivers/STM32L4xx_HAL_Driver/Src/stm32l4xx_hal_ltdc.c ****   else
1874:Drivers/STM32L4xx_HAL_Driver/Src/stm32l4xx_hal_ltdc.c ****   {
1875:Drivers/STM32L4xx_HAL_Driver/Src/stm32l4xx_hal_ltdc.c ****     tmp = 1U;
 3174              		.loc 1 1875 9
 3175 0072 0123     		movs	r3, #1
 3176 0074 FB61     		str	r3, [r7, #28]
 3177              	.L115:
1876:Drivers/STM32L4xx_HAL_Driver/Src/stm32l4xx_hal_ltdc.c ****   }
1877:Drivers/STM32L4xx_HAL_Driver/Src/stm32l4xx_hal_ltdc.c **** 
1878:Drivers/STM32L4xx_HAL_Driver/Src/stm32l4xx_hal_ltdc.c ****   pitchUpdate = ((LinePitchInPixels * tmp) << 16U);
 3178              		.loc 1 1878 37
 3179 0076 BB68     		ldr	r3, [r7, #8]
 3180 0078 FA69     		ldr	r2, [r7, #28]
 3181 007a 02FB03F3 		mul	r3, r2, r3
 3182              		.loc 1 1878 15
 3183 007e 1B04     		lsls	r3, r3, #16
 3184 0080 7B61     		str	r3, [r7, #20]
1879:Drivers/STM32L4xx_HAL_Driver/Src/stm32l4xx_hal_ltdc.c **** 
1880:Drivers/STM32L4xx_HAL_Driver/Src/stm32l4xx_hal_ltdc.c ****   /* Clear previously set standard pitch */
1881:Drivers/STM32L4xx_HAL_Driver/Src/stm32l4xx_hal_ltdc.c ****   LTDC_LAYER(hltdc, LayerIdx)->CFBLR &= ~LTDC_LxCFBLR_CFBP;
 3185              		.loc 1 1881 3
 3186 0082 FB68     		ldr	r3, [r7, #12]
 3187 0084 1B68     		ldr	r3, [r3]
ARM GAS  C:\Users\Morroway\AppData\Local\Temp\cclk5axT.s 			page 89


 3188              		.loc 1 1881 38
 3189 0086 1A46     		mov	r2, r3
 3190 0088 7B68     		ldr	r3, [r7, #4]
 3191 008a DB01     		lsls	r3, r3, #7
 3192 008c 1344     		add	r3, r3, r2
 3193 008e 8433     		adds	r3, r3, #132
 3194 0090 DB6A     		ldr	r3, [r3, #44]
 3195              		.loc 1 1881 3
 3196 0092 FA68     		ldr	r2, [r7, #12]
 3197 0094 1268     		ldr	r2, [r2]
 3198              		.loc 1 1881 38
 3199 0096 1146     		mov	r1, r2
 3200 0098 7A68     		ldr	r2, [r7, #4]
 3201 009a D201     		lsls	r2, r2, #7
 3202 009c 0A44     		add	r2, r2, r1
 3203 009e 8432     		adds	r2, r2, #132
 3204 00a0 23F0FF53 		bic	r3, r3, #534773760
 3205 00a4 23F4F813 		bic	r3, r3, #2031616
 3206 00a8 D362     		str	r3, [r2, #44]
1882:Drivers/STM32L4xx_HAL_Driver/Src/stm32l4xx_hal_ltdc.c **** 
1883:Drivers/STM32L4xx_HAL_Driver/Src/stm32l4xx_hal_ltdc.c ****   /* Set new line pitch value */
1884:Drivers/STM32L4xx_HAL_Driver/Src/stm32l4xx_hal_ltdc.c ****   LTDC_LAYER(hltdc, LayerIdx)->CFBLR |= pitchUpdate;
 3207              		.loc 1 1884 3
 3208 00aa FB68     		ldr	r3, [r7, #12]
 3209 00ac 1B68     		ldr	r3, [r3]
 3210              		.loc 1 1884 38
 3211 00ae 1A46     		mov	r2, r3
 3212 00b0 7B68     		ldr	r3, [r7, #4]
 3213 00b2 DB01     		lsls	r3, r3, #7
 3214 00b4 1344     		add	r3, r3, r2
 3215 00b6 8433     		adds	r3, r3, #132
 3216 00b8 DA6A     		ldr	r2, [r3, #44]
 3217              		.loc 1 1884 3
 3218 00ba FB68     		ldr	r3, [r7, #12]
 3219 00bc 1B68     		ldr	r3, [r3]
 3220              		.loc 1 1884 38
 3221 00be 1946     		mov	r1, r3
 3222 00c0 7B68     		ldr	r3, [r7, #4]
 3223 00c2 DB01     		lsls	r3, r3, #7
 3224 00c4 0B44     		add	r3, r3, r1
 3225 00c6 8433     		adds	r3, r3, #132
 3226 00c8 1946     		mov	r1, r3
 3227 00ca 7B69     		ldr	r3, [r7, #20]
 3228 00cc 1343     		orrs	r3, r3, r2
 3229 00ce CB62     		str	r3, [r1, #44]
1885:Drivers/STM32L4xx_HAL_Driver/Src/stm32l4xx_hal_ltdc.c **** 
1886:Drivers/STM32L4xx_HAL_Driver/Src/stm32l4xx_hal_ltdc.c ****   /* Change the LTDC state*/
1887:Drivers/STM32L4xx_HAL_Driver/Src/stm32l4xx_hal_ltdc.c ****   hltdc->State = HAL_LTDC_STATE_READY;
 3230              		.loc 1 1887 16
 3231 00d0 FB68     		ldr	r3, [r7, #12]
 3232 00d2 0122     		movs	r2, #1
 3233 00d4 83F86D20 		strb	r2, [r3, #109]
1888:Drivers/STM32L4xx_HAL_Driver/Src/stm32l4xx_hal_ltdc.c **** 
1889:Drivers/STM32L4xx_HAL_Driver/Src/stm32l4xx_hal_ltdc.c ****   /* Process unlocked */
1890:Drivers/STM32L4xx_HAL_Driver/Src/stm32l4xx_hal_ltdc.c ****   __HAL_UNLOCK(hltdc);
 3234              		.loc 1 1890 3
 3235 00d8 FB68     		ldr	r3, [r7, #12]
ARM GAS  C:\Users\Morroway\AppData\Local\Temp\cclk5axT.s 			page 90


 3236 00da 0022     		movs	r2, #0
 3237 00dc 83F86C20 		strb	r2, [r3, #108]
1891:Drivers/STM32L4xx_HAL_Driver/Src/stm32l4xx_hal_ltdc.c **** 
1892:Drivers/STM32L4xx_HAL_Driver/Src/stm32l4xx_hal_ltdc.c ****   return HAL_OK;
 3238              		.loc 1 1892 10
 3239 00e0 0023     		movs	r3, #0
 3240              	.L113:
1893:Drivers/STM32L4xx_HAL_Driver/Src/stm32l4xx_hal_ltdc.c **** }
 3241              		.loc 1 1893 1
 3242 00e2 1846     		mov	r0, r3
 3243 00e4 2437     		adds	r7, r7, #36
 3244              		.cfi_def_cfa_offset 4
 3245 00e6 BD46     		mov	sp, r7
 3246              		.cfi_def_cfa_register 13
 3247              		@ sp needed
 3248 00e8 5DF8047B 		ldr	r7, [sp], #4
 3249              		.cfi_restore 7
 3250              		.cfi_def_cfa_offset 0
 3251 00ec 7047     		bx	lr
 3252              		.cfi_endproc
 3253              	.LFE352:
 3255              		.section	.text.HAL_LTDC_ConfigColorKeying_NoReload,"ax",%progbits
 3256              		.align	1
 3257              		.global	HAL_LTDC_ConfigColorKeying_NoReload
 3258              		.syntax unified
 3259              		.thumb
 3260              		.thumb_func
 3262              	HAL_LTDC_ConfigColorKeying_NoReload:
 3263              	.LFB353:
1894:Drivers/STM32L4xx_HAL_Driver/Src/stm32l4xx_hal_ltdc.c **** 
1895:Drivers/STM32L4xx_HAL_Driver/Src/stm32l4xx_hal_ltdc.c **** 
1896:Drivers/STM32L4xx_HAL_Driver/Src/stm32l4xx_hal_ltdc.c **** /**
1897:Drivers/STM32L4xx_HAL_Driver/Src/stm32l4xx_hal_ltdc.c ****   * @brief  Configure the color keying without reloading.
1898:Drivers/STM32L4xx_HAL_Driver/Src/stm32l4xx_hal_ltdc.c ****   *         Variant of the function HAL_LTDC_ConfigColorKeying without immediate reload.
1899:Drivers/STM32L4xx_HAL_Driver/Src/stm32l4xx_hal_ltdc.c ****   * @param  hltdc     pointer to a LTDC_HandleTypeDef structure that contains
1900:Drivers/STM32L4xx_HAL_Driver/Src/stm32l4xx_hal_ltdc.c ****   *                   the configuration information for the LTDC.
1901:Drivers/STM32L4xx_HAL_Driver/Src/stm32l4xx_hal_ltdc.c ****   * @param  RGBValue the color key value
1902:Drivers/STM32L4xx_HAL_Driver/Src/stm32l4xx_hal_ltdc.c ****   * @param  LayerIdx  LTDC Layer index.
1903:Drivers/STM32L4xx_HAL_Driver/Src/stm32l4xx_hal_ltdc.c ****   *                   This parameter can be one of the following values:
1904:Drivers/STM32L4xx_HAL_Driver/Src/stm32l4xx_hal_ltdc.c ****   *                   LTDC_LAYER_1 (0) or LTDC_LAYER_2 (1)
1905:Drivers/STM32L4xx_HAL_Driver/Src/stm32l4xx_hal_ltdc.c ****   * @retval HAL status
1906:Drivers/STM32L4xx_HAL_Driver/Src/stm32l4xx_hal_ltdc.c ****   */
1907:Drivers/STM32L4xx_HAL_Driver/Src/stm32l4xx_hal_ltdc.c **** HAL_StatusTypeDef HAL_LTDC_ConfigColorKeying_NoReload(LTDC_HandleTypeDef *hltdc, uint32_t RGBValue,
1908:Drivers/STM32L4xx_HAL_Driver/Src/stm32l4xx_hal_ltdc.c **** {
 3264              		.loc 1 1908 1
 3265              		.cfi_startproc
 3266              		@ args = 0, pretend = 0, frame = 16
 3267              		@ frame_needed = 1, uses_anonymous_args = 0
 3268              		@ link register save eliminated.
 3269 0000 80B4     		push	{r7}
 3270              		.cfi_def_cfa_offset 4
 3271              		.cfi_offset 7, -4
 3272 0002 85B0     		sub	sp, sp, #20
 3273              		.cfi_def_cfa_offset 24
 3274 0004 00AF     		add	r7, sp, #0
 3275              		.cfi_def_cfa_register 7
 3276 0006 F860     		str	r0, [r7, #12]
ARM GAS  C:\Users\Morroway\AppData\Local\Temp\cclk5axT.s 			page 91


 3277 0008 B960     		str	r1, [r7, #8]
 3278 000a 7A60     		str	r2, [r7, #4]
1909:Drivers/STM32L4xx_HAL_Driver/Src/stm32l4xx_hal_ltdc.c ****   /* Check the parameters */
1910:Drivers/STM32L4xx_HAL_Driver/Src/stm32l4xx_hal_ltdc.c ****   assert_param(IS_LTDC_LAYER(LayerIdx));
1911:Drivers/STM32L4xx_HAL_Driver/Src/stm32l4xx_hal_ltdc.c **** 
1912:Drivers/STM32L4xx_HAL_Driver/Src/stm32l4xx_hal_ltdc.c ****   /* Process locked */
1913:Drivers/STM32L4xx_HAL_Driver/Src/stm32l4xx_hal_ltdc.c ****   __HAL_LOCK(hltdc);
 3279              		.loc 1 1913 3
 3280 000c FB68     		ldr	r3, [r7, #12]
 3281 000e 93F86C30 		ldrb	r3, [r3, #108]	@ zero_extendqisi2
 3282 0012 012B     		cmp	r3, #1
 3283 0014 01D1     		bne	.L120
 3284              		.loc 1 1913 3 is_stmt 0 discriminator 1
 3285 0016 0223     		movs	r3, #2
 3286 0018 2CE0     		b	.L121
 3287              	.L120:
 3288              		.loc 1 1913 3 discriminator 2
 3289 001a FB68     		ldr	r3, [r7, #12]
 3290 001c 0122     		movs	r2, #1
 3291 001e 83F86C20 		strb	r2, [r3, #108]
1914:Drivers/STM32L4xx_HAL_Driver/Src/stm32l4xx_hal_ltdc.c **** 
1915:Drivers/STM32L4xx_HAL_Driver/Src/stm32l4xx_hal_ltdc.c ****   /* Change LTDC peripheral state */
1916:Drivers/STM32L4xx_HAL_Driver/Src/stm32l4xx_hal_ltdc.c ****   hltdc->State = HAL_LTDC_STATE_BUSY;
 3292              		.loc 1 1916 16 is_stmt 1 discriminator 2
 3293 0022 FB68     		ldr	r3, [r7, #12]
 3294 0024 0222     		movs	r2, #2
 3295 0026 83F86D20 		strb	r2, [r3, #109]
1917:Drivers/STM32L4xx_HAL_Driver/Src/stm32l4xx_hal_ltdc.c **** 
1918:Drivers/STM32L4xx_HAL_Driver/Src/stm32l4xx_hal_ltdc.c ****   /* Configure the default color values */
1919:Drivers/STM32L4xx_HAL_Driver/Src/stm32l4xx_hal_ltdc.c ****   LTDC_LAYER(hltdc, LayerIdx)->CKCR &=  ~(LTDC_LxCKCR_CKBLUE | LTDC_LxCKCR_CKGREEN | LTDC_LxCKCR_CK
 3296              		.loc 1 1919 3 discriminator 2
 3297 002a FB68     		ldr	r3, [r7, #12]
 3298 002c 1B68     		ldr	r3, [r3]
 3299              		.loc 1 1919 37 discriminator 2
 3300 002e 1A46     		mov	r2, r3
 3301 0030 7B68     		ldr	r3, [r7, #4]
 3302 0032 DB01     		lsls	r3, r3, #7
 3303 0034 1344     		add	r3, r3, r2
 3304 0036 8433     		adds	r3, r3, #132
 3305 0038 DB68     		ldr	r3, [r3, #12]
 3306              		.loc 1 1919 3 discriminator 2
 3307 003a FA68     		ldr	r2, [r7, #12]
 3308 003c 1268     		ldr	r2, [r2]
 3309              		.loc 1 1919 37 discriminator 2
 3310 003e 1146     		mov	r1, r2
 3311 0040 7A68     		ldr	r2, [r7, #4]
 3312 0042 D201     		lsls	r2, r2, #7
 3313 0044 0A44     		add	r2, r2, r1
 3314 0046 8432     		adds	r2, r2, #132
 3315 0048 03F07F43 		and	r3, r3, #-16777216
 3316 004c D360     		str	r3, [r2, #12]
1920:Drivers/STM32L4xx_HAL_Driver/Src/stm32l4xx_hal_ltdc.c ****   LTDC_LAYER(hltdc, LayerIdx)->CKCR  = RGBValue;
 3317              		.loc 1 1920 3 discriminator 2
 3318 004e FB68     		ldr	r3, [r7, #12]
 3319 0050 1B68     		ldr	r3, [r3]
 3320 0052 1A46     		mov	r2, r3
 3321 0054 7B68     		ldr	r3, [r7, #4]
ARM GAS  C:\Users\Morroway\AppData\Local\Temp\cclk5axT.s 			page 92


 3322 0056 DB01     		lsls	r3, r3, #7
 3323 0058 1344     		add	r3, r3, r2
 3324 005a 8433     		adds	r3, r3, #132
 3325 005c 1A46     		mov	r2, r3
 3326              		.loc 1 1920 38 discriminator 2
 3327 005e BB68     		ldr	r3, [r7, #8]
 3328 0060 D360     		str	r3, [r2, #12]
1921:Drivers/STM32L4xx_HAL_Driver/Src/stm32l4xx_hal_ltdc.c **** 
1922:Drivers/STM32L4xx_HAL_Driver/Src/stm32l4xx_hal_ltdc.c ****   /* Change the LTDC state*/
1923:Drivers/STM32L4xx_HAL_Driver/Src/stm32l4xx_hal_ltdc.c ****   hltdc->State = HAL_LTDC_STATE_READY;
 3329              		.loc 1 1923 16 discriminator 2
 3330 0062 FB68     		ldr	r3, [r7, #12]
 3331 0064 0122     		movs	r2, #1
 3332 0066 83F86D20 		strb	r2, [r3, #109]
1924:Drivers/STM32L4xx_HAL_Driver/Src/stm32l4xx_hal_ltdc.c **** 
1925:Drivers/STM32L4xx_HAL_Driver/Src/stm32l4xx_hal_ltdc.c ****   /* Process unlocked */
1926:Drivers/STM32L4xx_HAL_Driver/Src/stm32l4xx_hal_ltdc.c ****   __HAL_UNLOCK(hltdc);
 3333              		.loc 1 1926 3 discriminator 2
 3334 006a FB68     		ldr	r3, [r7, #12]
 3335 006c 0022     		movs	r2, #0
 3336 006e 83F86C20 		strb	r2, [r3, #108]
1927:Drivers/STM32L4xx_HAL_Driver/Src/stm32l4xx_hal_ltdc.c **** 
1928:Drivers/STM32L4xx_HAL_Driver/Src/stm32l4xx_hal_ltdc.c ****   return HAL_OK;
 3337              		.loc 1 1928 10 discriminator 2
 3338 0072 0023     		movs	r3, #0
 3339              	.L121:
1929:Drivers/STM32L4xx_HAL_Driver/Src/stm32l4xx_hal_ltdc.c **** }
 3340              		.loc 1 1929 1
 3341 0074 1846     		mov	r0, r3
 3342 0076 1437     		adds	r7, r7, #20
 3343              		.cfi_def_cfa_offset 4
 3344 0078 BD46     		mov	sp, r7
 3345              		.cfi_def_cfa_register 13
 3346              		@ sp needed
 3347 007a 5DF8047B 		ldr	r7, [sp], #4
 3348              		.cfi_restore 7
 3349              		.cfi_def_cfa_offset 0
 3350 007e 7047     		bx	lr
 3351              		.cfi_endproc
 3352              	.LFE353:
 3354              		.section	.text.HAL_LTDC_EnableColorKeying_NoReload,"ax",%progbits
 3355              		.align	1
 3356              		.global	HAL_LTDC_EnableColorKeying_NoReload
 3357              		.syntax unified
 3358              		.thumb
 3359              		.thumb_func
 3361              	HAL_LTDC_EnableColorKeying_NoReload:
 3362              	.LFB354:
1930:Drivers/STM32L4xx_HAL_Driver/Src/stm32l4xx_hal_ltdc.c **** 
1931:Drivers/STM32L4xx_HAL_Driver/Src/stm32l4xx_hal_ltdc.c **** /**
1932:Drivers/STM32L4xx_HAL_Driver/Src/stm32l4xx_hal_ltdc.c ****   * @brief  Enable the color keying without reloading.
1933:Drivers/STM32L4xx_HAL_Driver/Src/stm32l4xx_hal_ltdc.c ****   *         Variant of the function HAL_LTDC_EnableColorKeying without immediate reload.
1934:Drivers/STM32L4xx_HAL_Driver/Src/stm32l4xx_hal_ltdc.c ****   * @param  hltdc     pointer to a LTDC_HandleTypeDef structure that contains
1935:Drivers/STM32L4xx_HAL_Driver/Src/stm32l4xx_hal_ltdc.c ****   *                   the configuration information for the LTDC.
1936:Drivers/STM32L4xx_HAL_Driver/Src/stm32l4xx_hal_ltdc.c ****   * @param  LayerIdx  LTDC Layer index.
1937:Drivers/STM32L4xx_HAL_Driver/Src/stm32l4xx_hal_ltdc.c ****   *                   This parameter can be one of the following values:
1938:Drivers/STM32L4xx_HAL_Driver/Src/stm32l4xx_hal_ltdc.c ****   *                   LTDC_LAYER_1 (0) or LTDC_LAYER_2 (1)
ARM GAS  C:\Users\Morroway\AppData\Local\Temp\cclk5axT.s 			page 93


1939:Drivers/STM32L4xx_HAL_Driver/Src/stm32l4xx_hal_ltdc.c ****   * @retval  HAL status
1940:Drivers/STM32L4xx_HAL_Driver/Src/stm32l4xx_hal_ltdc.c ****   */
1941:Drivers/STM32L4xx_HAL_Driver/Src/stm32l4xx_hal_ltdc.c **** HAL_StatusTypeDef HAL_LTDC_EnableColorKeying_NoReload(LTDC_HandleTypeDef *hltdc, uint32_t LayerIdx)
1942:Drivers/STM32L4xx_HAL_Driver/Src/stm32l4xx_hal_ltdc.c **** {
 3363              		.loc 1 1942 1
 3364              		.cfi_startproc
 3365              		@ args = 0, pretend = 0, frame = 8
 3366              		@ frame_needed = 1, uses_anonymous_args = 0
 3367              		@ link register save eliminated.
 3368 0000 80B4     		push	{r7}
 3369              		.cfi_def_cfa_offset 4
 3370              		.cfi_offset 7, -4
 3371 0002 83B0     		sub	sp, sp, #12
 3372              		.cfi_def_cfa_offset 16
 3373 0004 00AF     		add	r7, sp, #0
 3374              		.cfi_def_cfa_register 7
 3375 0006 7860     		str	r0, [r7, #4]
 3376 0008 3960     		str	r1, [r7]
1943:Drivers/STM32L4xx_HAL_Driver/Src/stm32l4xx_hal_ltdc.c ****   /* Check the parameters */
1944:Drivers/STM32L4xx_HAL_Driver/Src/stm32l4xx_hal_ltdc.c ****   assert_param(IS_LTDC_LAYER(LayerIdx));
1945:Drivers/STM32L4xx_HAL_Driver/Src/stm32l4xx_hal_ltdc.c **** 
1946:Drivers/STM32L4xx_HAL_Driver/Src/stm32l4xx_hal_ltdc.c ****   /* Process locked */
1947:Drivers/STM32L4xx_HAL_Driver/Src/stm32l4xx_hal_ltdc.c ****   __HAL_LOCK(hltdc);
 3377              		.loc 1 1947 3
 3378 000a 7B68     		ldr	r3, [r7, #4]
 3379 000c 93F86C30 		ldrb	r3, [r3, #108]	@ zero_extendqisi2
 3380 0010 012B     		cmp	r3, #1
 3381 0012 01D1     		bne	.L123
 3382              		.loc 1 1947 3 is_stmt 0 discriminator 1
 3383 0014 0223     		movs	r3, #2
 3384 0016 22E0     		b	.L124
 3385              	.L123:
 3386              		.loc 1 1947 3 discriminator 2
 3387 0018 7B68     		ldr	r3, [r7, #4]
 3388 001a 0122     		movs	r2, #1
 3389 001c 83F86C20 		strb	r2, [r3, #108]
1948:Drivers/STM32L4xx_HAL_Driver/Src/stm32l4xx_hal_ltdc.c **** 
1949:Drivers/STM32L4xx_HAL_Driver/Src/stm32l4xx_hal_ltdc.c ****   /* Change LTDC peripheral state */
1950:Drivers/STM32L4xx_HAL_Driver/Src/stm32l4xx_hal_ltdc.c ****   hltdc->State = HAL_LTDC_STATE_BUSY;
 3390              		.loc 1 1950 16 is_stmt 1 discriminator 2
 3391 0020 7B68     		ldr	r3, [r7, #4]
 3392 0022 0222     		movs	r2, #2
 3393 0024 83F86D20 		strb	r2, [r3, #109]
1951:Drivers/STM32L4xx_HAL_Driver/Src/stm32l4xx_hal_ltdc.c **** 
1952:Drivers/STM32L4xx_HAL_Driver/Src/stm32l4xx_hal_ltdc.c ****   /* Enable LTDC color keying by setting COLKEN bit */
1953:Drivers/STM32L4xx_HAL_Driver/Src/stm32l4xx_hal_ltdc.c ****   LTDC_LAYER(hltdc, LayerIdx)->CR |= (uint32_t)LTDC_LxCR_COLKEN;
 3394              		.loc 1 1953 3 discriminator 2
 3395 0028 7B68     		ldr	r3, [r7, #4]
 3396 002a 1B68     		ldr	r3, [r3]
 3397              		.loc 1 1953 35 discriminator 2
 3398 002c 1A46     		mov	r2, r3
 3399 002e 3B68     		ldr	r3, [r7]
 3400 0030 DB01     		lsls	r3, r3, #7
 3401 0032 1344     		add	r3, r3, r2
 3402 0034 8433     		adds	r3, r3, #132
 3403 0036 1B68     		ldr	r3, [r3]
 3404              		.loc 1 1953 3 discriminator 2
ARM GAS  C:\Users\Morroway\AppData\Local\Temp\cclk5axT.s 			page 94


 3405 0038 7A68     		ldr	r2, [r7, #4]
 3406 003a 1268     		ldr	r2, [r2]
 3407              		.loc 1 1953 35 discriminator 2
 3408 003c 1146     		mov	r1, r2
 3409 003e 3A68     		ldr	r2, [r7]
 3410 0040 D201     		lsls	r2, r2, #7
 3411 0042 0A44     		add	r2, r2, r1
 3412 0044 8432     		adds	r2, r2, #132
 3413 0046 43F00203 		orr	r3, r3, #2
 3414 004a 1360     		str	r3, [r2]
1954:Drivers/STM32L4xx_HAL_Driver/Src/stm32l4xx_hal_ltdc.c **** 
1955:Drivers/STM32L4xx_HAL_Driver/Src/stm32l4xx_hal_ltdc.c ****   /* Change the LTDC state*/
1956:Drivers/STM32L4xx_HAL_Driver/Src/stm32l4xx_hal_ltdc.c ****   hltdc->State = HAL_LTDC_STATE_READY;
 3415              		.loc 1 1956 16 discriminator 2
 3416 004c 7B68     		ldr	r3, [r7, #4]
 3417 004e 0122     		movs	r2, #1
 3418 0050 83F86D20 		strb	r2, [r3, #109]
1957:Drivers/STM32L4xx_HAL_Driver/Src/stm32l4xx_hal_ltdc.c **** 
1958:Drivers/STM32L4xx_HAL_Driver/Src/stm32l4xx_hal_ltdc.c ****   /* Process unlocked */
1959:Drivers/STM32L4xx_HAL_Driver/Src/stm32l4xx_hal_ltdc.c ****   __HAL_UNLOCK(hltdc);
 3419              		.loc 1 1959 3 discriminator 2
 3420 0054 7B68     		ldr	r3, [r7, #4]
 3421 0056 0022     		movs	r2, #0
 3422 0058 83F86C20 		strb	r2, [r3, #108]
1960:Drivers/STM32L4xx_HAL_Driver/Src/stm32l4xx_hal_ltdc.c **** 
1961:Drivers/STM32L4xx_HAL_Driver/Src/stm32l4xx_hal_ltdc.c ****   return HAL_OK;
 3423              		.loc 1 1961 10 discriminator 2
 3424 005c 0023     		movs	r3, #0
 3425              	.L124:
1962:Drivers/STM32L4xx_HAL_Driver/Src/stm32l4xx_hal_ltdc.c **** }
 3426              		.loc 1 1962 1
 3427 005e 1846     		mov	r0, r3
 3428 0060 0C37     		adds	r7, r7, #12
 3429              		.cfi_def_cfa_offset 4
 3430 0062 BD46     		mov	sp, r7
 3431              		.cfi_def_cfa_register 13
 3432              		@ sp needed
 3433 0064 5DF8047B 		ldr	r7, [sp], #4
 3434              		.cfi_restore 7
 3435              		.cfi_def_cfa_offset 0
 3436 0068 7047     		bx	lr
 3437              		.cfi_endproc
 3438              	.LFE354:
 3440              		.section	.text.HAL_LTDC_DisableColorKeying_NoReload,"ax",%progbits
 3441              		.align	1
 3442              		.global	HAL_LTDC_DisableColorKeying_NoReload
 3443              		.syntax unified
 3444              		.thumb
 3445              		.thumb_func
 3447              	HAL_LTDC_DisableColorKeying_NoReload:
 3448              	.LFB355:
1963:Drivers/STM32L4xx_HAL_Driver/Src/stm32l4xx_hal_ltdc.c **** 
1964:Drivers/STM32L4xx_HAL_Driver/Src/stm32l4xx_hal_ltdc.c **** /**
1965:Drivers/STM32L4xx_HAL_Driver/Src/stm32l4xx_hal_ltdc.c ****   * @brief  Disable the color keying without reloading.
1966:Drivers/STM32L4xx_HAL_Driver/Src/stm32l4xx_hal_ltdc.c ****   *         Variant of the function HAL_LTDC_DisableColorKeying without immediate reload.
1967:Drivers/STM32L4xx_HAL_Driver/Src/stm32l4xx_hal_ltdc.c ****   * @param  hltdc     pointer to a LTDC_HandleTypeDef structure that contains
1968:Drivers/STM32L4xx_HAL_Driver/Src/stm32l4xx_hal_ltdc.c ****   *                   the configuration information for the LTDC.
ARM GAS  C:\Users\Morroway\AppData\Local\Temp\cclk5axT.s 			page 95


1969:Drivers/STM32L4xx_HAL_Driver/Src/stm32l4xx_hal_ltdc.c ****   * @param  LayerIdx  LTDC Layer index.
1970:Drivers/STM32L4xx_HAL_Driver/Src/stm32l4xx_hal_ltdc.c ****   *                   This parameter can be one of the following values:
1971:Drivers/STM32L4xx_HAL_Driver/Src/stm32l4xx_hal_ltdc.c ****   *                   LTDC_LAYER_1 (0) or LTDC_LAYER_2 (1)
1972:Drivers/STM32L4xx_HAL_Driver/Src/stm32l4xx_hal_ltdc.c ****   * @retval  HAL status
1973:Drivers/STM32L4xx_HAL_Driver/Src/stm32l4xx_hal_ltdc.c ****   */
1974:Drivers/STM32L4xx_HAL_Driver/Src/stm32l4xx_hal_ltdc.c **** HAL_StatusTypeDef HAL_LTDC_DisableColorKeying_NoReload(LTDC_HandleTypeDef *hltdc, uint32_t LayerIdx
1975:Drivers/STM32L4xx_HAL_Driver/Src/stm32l4xx_hal_ltdc.c **** {
 3449              		.loc 1 1975 1
 3450              		.cfi_startproc
 3451              		@ args = 0, pretend = 0, frame = 8
 3452              		@ frame_needed = 1, uses_anonymous_args = 0
 3453              		@ link register save eliminated.
 3454 0000 80B4     		push	{r7}
 3455              		.cfi_def_cfa_offset 4
 3456              		.cfi_offset 7, -4
 3457 0002 83B0     		sub	sp, sp, #12
 3458              		.cfi_def_cfa_offset 16
 3459 0004 00AF     		add	r7, sp, #0
 3460              		.cfi_def_cfa_register 7
 3461 0006 7860     		str	r0, [r7, #4]
 3462 0008 3960     		str	r1, [r7]
1976:Drivers/STM32L4xx_HAL_Driver/Src/stm32l4xx_hal_ltdc.c ****   /* Check the parameters */
1977:Drivers/STM32L4xx_HAL_Driver/Src/stm32l4xx_hal_ltdc.c ****   assert_param(IS_LTDC_LAYER(LayerIdx));
1978:Drivers/STM32L4xx_HAL_Driver/Src/stm32l4xx_hal_ltdc.c **** 
1979:Drivers/STM32L4xx_HAL_Driver/Src/stm32l4xx_hal_ltdc.c ****   /* Process locked */
1980:Drivers/STM32L4xx_HAL_Driver/Src/stm32l4xx_hal_ltdc.c ****   __HAL_LOCK(hltdc);
 3463              		.loc 1 1980 3
 3464 000a 7B68     		ldr	r3, [r7, #4]
 3465 000c 93F86C30 		ldrb	r3, [r3, #108]	@ zero_extendqisi2
 3466 0010 012B     		cmp	r3, #1
 3467 0012 01D1     		bne	.L126
 3468              		.loc 1 1980 3 is_stmt 0 discriminator 1
 3469 0014 0223     		movs	r3, #2
 3470 0016 22E0     		b	.L127
 3471              	.L126:
 3472              		.loc 1 1980 3 discriminator 2
 3473 0018 7B68     		ldr	r3, [r7, #4]
 3474 001a 0122     		movs	r2, #1
 3475 001c 83F86C20 		strb	r2, [r3, #108]
1981:Drivers/STM32L4xx_HAL_Driver/Src/stm32l4xx_hal_ltdc.c **** 
1982:Drivers/STM32L4xx_HAL_Driver/Src/stm32l4xx_hal_ltdc.c ****   /* Change LTDC peripheral state */
1983:Drivers/STM32L4xx_HAL_Driver/Src/stm32l4xx_hal_ltdc.c ****   hltdc->State = HAL_LTDC_STATE_BUSY;
 3476              		.loc 1 1983 16 is_stmt 1 discriminator 2
 3477 0020 7B68     		ldr	r3, [r7, #4]
 3478 0022 0222     		movs	r2, #2
 3479 0024 83F86D20 		strb	r2, [r3, #109]
1984:Drivers/STM32L4xx_HAL_Driver/Src/stm32l4xx_hal_ltdc.c **** 
1985:Drivers/STM32L4xx_HAL_Driver/Src/stm32l4xx_hal_ltdc.c ****   /* Disable LTDC color keying by setting COLKEN bit */
1986:Drivers/STM32L4xx_HAL_Driver/Src/stm32l4xx_hal_ltdc.c ****   LTDC_LAYER(hltdc, LayerIdx)->CR &= ~(uint32_t)LTDC_LxCR_COLKEN;
 3480              		.loc 1 1986 3 discriminator 2
 3481 0028 7B68     		ldr	r3, [r7, #4]
 3482 002a 1B68     		ldr	r3, [r3]
 3483              		.loc 1 1986 35 discriminator 2
 3484 002c 1A46     		mov	r2, r3
 3485 002e 3B68     		ldr	r3, [r7]
 3486 0030 DB01     		lsls	r3, r3, #7
 3487 0032 1344     		add	r3, r3, r2
ARM GAS  C:\Users\Morroway\AppData\Local\Temp\cclk5axT.s 			page 96


 3488 0034 8433     		adds	r3, r3, #132
 3489 0036 1B68     		ldr	r3, [r3]
 3490              		.loc 1 1986 3 discriminator 2
 3491 0038 7A68     		ldr	r2, [r7, #4]
 3492 003a 1268     		ldr	r2, [r2]
 3493              		.loc 1 1986 35 discriminator 2
 3494 003c 1146     		mov	r1, r2
 3495 003e 3A68     		ldr	r2, [r7]
 3496 0040 D201     		lsls	r2, r2, #7
 3497 0042 0A44     		add	r2, r2, r1
 3498 0044 8432     		adds	r2, r2, #132
 3499 0046 23F00203 		bic	r3, r3, #2
 3500 004a 1360     		str	r3, [r2]
1987:Drivers/STM32L4xx_HAL_Driver/Src/stm32l4xx_hal_ltdc.c **** 
1988:Drivers/STM32L4xx_HAL_Driver/Src/stm32l4xx_hal_ltdc.c ****   /* Change the LTDC state*/
1989:Drivers/STM32L4xx_HAL_Driver/Src/stm32l4xx_hal_ltdc.c ****   hltdc->State = HAL_LTDC_STATE_READY;
 3501              		.loc 1 1989 16 discriminator 2
 3502 004c 7B68     		ldr	r3, [r7, #4]
 3503 004e 0122     		movs	r2, #1
 3504 0050 83F86D20 		strb	r2, [r3, #109]
1990:Drivers/STM32L4xx_HAL_Driver/Src/stm32l4xx_hal_ltdc.c **** 
1991:Drivers/STM32L4xx_HAL_Driver/Src/stm32l4xx_hal_ltdc.c ****   /* Process unlocked */
1992:Drivers/STM32L4xx_HAL_Driver/Src/stm32l4xx_hal_ltdc.c ****   __HAL_UNLOCK(hltdc);
 3505              		.loc 1 1992 3 discriminator 2
 3506 0054 7B68     		ldr	r3, [r7, #4]
 3507 0056 0022     		movs	r2, #0
 3508 0058 83F86C20 		strb	r2, [r3, #108]
1993:Drivers/STM32L4xx_HAL_Driver/Src/stm32l4xx_hal_ltdc.c **** 
1994:Drivers/STM32L4xx_HAL_Driver/Src/stm32l4xx_hal_ltdc.c ****   return HAL_OK;
 3509              		.loc 1 1994 10 discriminator 2
 3510 005c 0023     		movs	r3, #0
 3511              	.L127:
1995:Drivers/STM32L4xx_HAL_Driver/Src/stm32l4xx_hal_ltdc.c **** }
 3512              		.loc 1 1995 1
 3513 005e 1846     		mov	r0, r3
 3514 0060 0C37     		adds	r7, r7, #12
 3515              		.cfi_def_cfa_offset 4
 3516 0062 BD46     		mov	sp, r7
 3517              		.cfi_def_cfa_register 13
 3518              		@ sp needed
 3519 0064 5DF8047B 		ldr	r7, [sp], #4
 3520              		.cfi_restore 7
 3521              		.cfi_def_cfa_offset 0
 3522 0068 7047     		bx	lr
 3523              		.cfi_endproc
 3524              	.LFE355:
 3526              		.section	.text.HAL_LTDC_EnableCLUT_NoReload,"ax",%progbits
 3527              		.align	1
 3528              		.global	HAL_LTDC_EnableCLUT_NoReload
 3529              		.syntax unified
 3530              		.thumb
 3531              		.thumb_func
 3533              	HAL_LTDC_EnableCLUT_NoReload:
 3534              	.LFB356:
1996:Drivers/STM32L4xx_HAL_Driver/Src/stm32l4xx_hal_ltdc.c **** 
1997:Drivers/STM32L4xx_HAL_Driver/Src/stm32l4xx_hal_ltdc.c **** /**
1998:Drivers/STM32L4xx_HAL_Driver/Src/stm32l4xx_hal_ltdc.c ****   * @brief  Enable the color lookup table without reloading.
ARM GAS  C:\Users\Morroway\AppData\Local\Temp\cclk5axT.s 			page 97


1999:Drivers/STM32L4xx_HAL_Driver/Src/stm32l4xx_hal_ltdc.c ****   *         Variant of the function HAL_LTDC_EnableCLUT without immediate reload.
2000:Drivers/STM32L4xx_HAL_Driver/Src/stm32l4xx_hal_ltdc.c ****   * @param  hltdc     pointer to a LTDC_HandleTypeDef structure that contains
2001:Drivers/STM32L4xx_HAL_Driver/Src/stm32l4xx_hal_ltdc.c ****   *                   the configuration information for the LTDC.
2002:Drivers/STM32L4xx_HAL_Driver/Src/stm32l4xx_hal_ltdc.c ****   * @param  LayerIdx  LTDC Layer index.
2003:Drivers/STM32L4xx_HAL_Driver/Src/stm32l4xx_hal_ltdc.c ****   *                   This parameter can be one of the following values:
2004:Drivers/STM32L4xx_HAL_Driver/Src/stm32l4xx_hal_ltdc.c ****   *                   LTDC_LAYER_1 (0) or LTDC_LAYER_2 (1)
2005:Drivers/STM32L4xx_HAL_Driver/Src/stm32l4xx_hal_ltdc.c ****   * @retval  HAL status
2006:Drivers/STM32L4xx_HAL_Driver/Src/stm32l4xx_hal_ltdc.c ****   */
2007:Drivers/STM32L4xx_HAL_Driver/Src/stm32l4xx_hal_ltdc.c **** HAL_StatusTypeDef HAL_LTDC_EnableCLUT_NoReload(LTDC_HandleTypeDef *hltdc, uint32_t LayerIdx)
2008:Drivers/STM32L4xx_HAL_Driver/Src/stm32l4xx_hal_ltdc.c **** {
 3535              		.loc 1 2008 1
 3536              		.cfi_startproc
 3537              		@ args = 0, pretend = 0, frame = 8
 3538              		@ frame_needed = 1, uses_anonymous_args = 0
 3539              		@ link register save eliminated.
 3540 0000 80B4     		push	{r7}
 3541              		.cfi_def_cfa_offset 4
 3542              		.cfi_offset 7, -4
 3543 0002 83B0     		sub	sp, sp, #12
 3544              		.cfi_def_cfa_offset 16
 3545 0004 00AF     		add	r7, sp, #0
 3546              		.cfi_def_cfa_register 7
 3547 0006 7860     		str	r0, [r7, #4]
 3548 0008 3960     		str	r1, [r7]
2009:Drivers/STM32L4xx_HAL_Driver/Src/stm32l4xx_hal_ltdc.c ****   /* Check the parameters */
2010:Drivers/STM32L4xx_HAL_Driver/Src/stm32l4xx_hal_ltdc.c ****   assert_param(IS_LTDC_LAYER(LayerIdx));
2011:Drivers/STM32L4xx_HAL_Driver/Src/stm32l4xx_hal_ltdc.c **** 
2012:Drivers/STM32L4xx_HAL_Driver/Src/stm32l4xx_hal_ltdc.c ****   /* Process locked */
2013:Drivers/STM32L4xx_HAL_Driver/Src/stm32l4xx_hal_ltdc.c ****   __HAL_LOCK(hltdc);
 3549              		.loc 1 2013 3
 3550 000a 7B68     		ldr	r3, [r7, #4]
 3551 000c 93F86C30 		ldrb	r3, [r3, #108]	@ zero_extendqisi2
 3552 0010 012B     		cmp	r3, #1
 3553 0012 01D1     		bne	.L129
 3554              		.loc 1 2013 3 is_stmt 0 discriminator 1
 3555 0014 0223     		movs	r3, #2
 3556 0016 22E0     		b	.L130
 3557              	.L129:
 3558              		.loc 1 2013 3 discriminator 2
 3559 0018 7B68     		ldr	r3, [r7, #4]
 3560 001a 0122     		movs	r2, #1
 3561 001c 83F86C20 		strb	r2, [r3, #108]
2014:Drivers/STM32L4xx_HAL_Driver/Src/stm32l4xx_hal_ltdc.c **** 
2015:Drivers/STM32L4xx_HAL_Driver/Src/stm32l4xx_hal_ltdc.c ****   /* Change LTDC peripheral state */
2016:Drivers/STM32L4xx_HAL_Driver/Src/stm32l4xx_hal_ltdc.c ****   hltdc->State = HAL_LTDC_STATE_BUSY;
 3562              		.loc 1 2016 16 is_stmt 1 discriminator 2
 3563 0020 7B68     		ldr	r3, [r7, #4]
 3564 0022 0222     		movs	r2, #2
 3565 0024 83F86D20 		strb	r2, [r3, #109]
2017:Drivers/STM32L4xx_HAL_Driver/Src/stm32l4xx_hal_ltdc.c **** 
2018:Drivers/STM32L4xx_HAL_Driver/Src/stm32l4xx_hal_ltdc.c ****   /* Disable LTDC color lookup table by setting CLUTEN bit */
2019:Drivers/STM32L4xx_HAL_Driver/Src/stm32l4xx_hal_ltdc.c ****   LTDC_LAYER(hltdc, LayerIdx)->CR |= (uint32_t)LTDC_LxCR_CLUTEN;
 3566              		.loc 1 2019 3 discriminator 2
 3567 0028 7B68     		ldr	r3, [r7, #4]
 3568 002a 1B68     		ldr	r3, [r3]
 3569              		.loc 1 2019 35 discriminator 2
 3570 002c 1A46     		mov	r2, r3
ARM GAS  C:\Users\Morroway\AppData\Local\Temp\cclk5axT.s 			page 98


 3571 002e 3B68     		ldr	r3, [r7]
 3572 0030 DB01     		lsls	r3, r3, #7
 3573 0032 1344     		add	r3, r3, r2
 3574 0034 8433     		adds	r3, r3, #132
 3575 0036 1B68     		ldr	r3, [r3]
 3576              		.loc 1 2019 3 discriminator 2
 3577 0038 7A68     		ldr	r2, [r7, #4]
 3578 003a 1268     		ldr	r2, [r2]
 3579              		.loc 1 2019 35 discriminator 2
 3580 003c 1146     		mov	r1, r2
 3581 003e 3A68     		ldr	r2, [r7]
 3582 0040 D201     		lsls	r2, r2, #7
 3583 0042 0A44     		add	r2, r2, r1
 3584 0044 8432     		adds	r2, r2, #132
 3585 0046 43F01003 		orr	r3, r3, #16
 3586 004a 1360     		str	r3, [r2]
2020:Drivers/STM32L4xx_HAL_Driver/Src/stm32l4xx_hal_ltdc.c **** 
2021:Drivers/STM32L4xx_HAL_Driver/Src/stm32l4xx_hal_ltdc.c ****   /* Change the LTDC state*/
2022:Drivers/STM32L4xx_HAL_Driver/Src/stm32l4xx_hal_ltdc.c ****   hltdc->State = HAL_LTDC_STATE_READY;
 3587              		.loc 1 2022 16 discriminator 2
 3588 004c 7B68     		ldr	r3, [r7, #4]
 3589 004e 0122     		movs	r2, #1
 3590 0050 83F86D20 		strb	r2, [r3, #109]
2023:Drivers/STM32L4xx_HAL_Driver/Src/stm32l4xx_hal_ltdc.c **** 
2024:Drivers/STM32L4xx_HAL_Driver/Src/stm32l4xx_hal_ltdc.c ****   /* Process unlocked */
2025:Drivers/STM32L4xx_HAL_Driver/Src/stm32l4xx_hal_ltdc.c ****   __HAL_UNLOCK(hltdc);
 3591              		.loc 1 2025 3 discriminator 2
 3592 0054 7B68     		ldr	r3, [r7, #4]
 3593 0056 0022     		movs	r2, #0
 3594 0058 83F86C20 		strb	r2, [r3, #108]
2026:Drivers/STM32L4xx_HAL_Driver/Src/stm32l4xx_hal_ltdc.c **** 
2027:Drivers/STM32L4xx_HAL_Driver/Src/stm32l4xx_hal_ltdc.c ****   return HAL_OK;
 3595              		.loc 1 2027 10 discriminator 2
 3596 005c 0023     		movs	r3, #0
 3597              	.L130:
2028:Drivers/STM32L4xx_HAL_Driver/Src/stm32l4xx_hal_ltdc.c **** }
 3598              		.loc 1 2028 1
 3599 005e 1846     		mov	r0, r3
 3600 0060 0C37     		adds	r7, r7, #12
 3601              		.cfi_def_cfa_offset 4
 3602 0062 BD46     		mov	sp, r7
 3603              		.cfi_def_cfa_register 13
 3604              		@ sp needed
 3605 0064 5DF8047B 		ldr	r7, [sp], #4
 3606              		.cfi_restore 7
 3607              		.cfi_def_cfa_offset 0
 3608 0068 7047     		bx	lr
 3609              		.cfi_endproc
 3610              	.LFE356:
 3612              		.section	.text.HAL_LTDC_DisableCLUT_NoReload,"ax",%progbits
 3613              		.align	1
 3614              		.global	HAL_LTDC_DisableCLUT_NoReload
 3615              		.syntax unified
 3616              		.thumb
 3617              		.thumb_func
 3619              	HAL_LTDC_DisableCLUT_NoReload:
 3620              	.LFB357:
ARM GAS  C:\Users\Morroway\AppData\Local\Temp\cclk5axT.s 			page 99


2029:Drivers/STM32L4xx_HAL_Driver/Src/stm32l4xx_hal_ltdc.c **** 
2030:Drivers/STM32L4xx_HAL_Driver/Src/stm32l4xx_hal_ltdc.c **** /**
2031:Drivers/STM32L4xx_HAL_Driver/Src/stm32l4xx_hal_ltdc.c ****   * @brief  Disable the color lookup table without reloading.
2032:Drivers/STM32L4xx_HAL_Driver/Src/stm32l4xx_hal_ltdc.c ****   *         Variant of the function HAL_LTDC_DisableCLUT without immediate reload.
2033:Drivers/STM32L4xx_HAL_Driver/Src/stm32l4xx_hal_ltdc.c ****   * @param  hltdc     pointer to a LTDC_HandleTypeDef structure that contains
2034:Drivers/STM32L4xx_HAL_Driver/Src/stm32l4xx_hal_ltdc.c ****   *                   the configuration information for the LTDC.
2035:Drivers/STM32L4xx_HAL_Driver/Src/stm32l4xx_hal_ltdc.c ****   * @param  LayerIdx  LTDC Layer index.
2036:Drivers/STM32L4xx_HAL_Driver/Src/stm32l4xx_hal_ltdc.c ****   *                   This parameter can be one of the following values:
2037:Drivers/STM32L4xx_HAL_Driver/Src/stm32l4xx_hal_ltdc.c ****   *                   LTDC_LAYER_1 (0) or LTDC_LAYER_2 (1)
2038:Drivers/STM32L4xx_HAL_Driver/Src/stm32l4xx_hal_ltdc.c ****   * @retval  HAL status
2039:Drivers/STM32L4xx_HAL_Driver/Src/stm32l4xx_hal_ltdc.c ****   */
2040:Drivers/STM32L4xx_HAL_Driver/Src/stm32l4xx_hal_ltdc.c **** HAL_StatusTypeDef HAL_LTDC_DisableCLUT_NoReload(LTDC_HandleTypeDef *hltdc, uint32_t LayerIdx)
2041:Drivers/STM32L4xx_HAL_Driver/Src/stm32l4xx_hal_ltdc.c **** {
 3621              		.loc 1 2041 1
 3622              		.cfi_startproc
 3623              		@ args = 0, pretend = 0, frame = 8
 3624              		@ frame_needed = 1, uses_anonymous_args = 0
 3625              		@ link register save eliminated.
 3626 0000 80B4     		push	{r7}
 3627              		.cfi_def_cfa_offset 4
 3628              		.cfi_offset 7, -4
 3629 0002 83B0     		sub	sp, sp, #12
 3630              		.cfi_def_cfa_offset 16
 3631 0004 00AF     		add	r7, sp, #0
 3632              		.cfi_def_cfa_register 7
 3633 0006 7860     		str	r0, [r7, #4]
 3634 0008 3960     		str	r1, [r7]
2042:Drivers/STM32L4xx_HAL_Driver/Src/stm32l4xx_hal_ltdc.c ****   /* Check the parameters */
2043:Drivers/STM32L4xx_HAL_Driver/Src/stm32l4xx_hal_ltdc.c ****   assert_param(IS_LTDC_LAYER(LayerIdx));
2044:Drivers/STM32L4xx_HAL_Driver/Src/stm32l4xx_hal_ltdc.c **** 
2045:Drivers/STM32L4xx_HAL_Driver/Src/stm32l4xx_hal_ltdc.c ****   /* Process locked */
2046:Drivers/STM32L4xx_HAL_Driver/Src/stm32l4xx_hal_ltdc.c ****   __HAL_LOCK(hltdc);
 3635              		.loc 1 2046 3
 3636 000a 7B68     		ldr	r3, [r7, #4]
 3637 000c 93F86C30 		ldrb	r3, [r3, #108]	@ zero_extendqisi2
 3638 0010 012B     		cmp	r3, #1
 3639 0012 01D1     		bne	.L132
 3640              		.loc 1 2046 3 is_stmt 0 discriminator 1
 3641 0014 0223     		movs	r3, #2
 3642 0016 22E0     		b	.L133
 3643              	.L132:
 3644              		.loc 1 2046 3 discriminator 2
 3645 0018 7B68     		ldr	r3, [r7, #4]
 3646 001a 0122     		movs	r2, #1
 3647 001c 83F86C20 		strb	r2, [r3, #108]
2047:Drivers/STM32L4xx_HAL_Driver/Src/stm32l4xx_hal_ltdc.c **** 
2048:Drivers/STM32L4xx_HAL_Driver/Src/stm32l4xx_hal_ltdc.c ****   /* Change LTDC peripheral state */
2049:Drivers/STM32L4xx_HAL_Driver/Src/stm32l4xx_hal_ltdc.c ****   hltdc->State = HAL_LTDC_STATE_BUSY;
 3648              		.loc 1 2049 16 is_stmt 1 discriminator 2
 3649 0020 7B68     		ldr	r3, [r7, #4]
 3650 0022 0222     		movs	r2, #2
 3651 0024 83F86D20 		strb	r2, [r3, #109]
2050:Drivers/STM32L4xx_HAL_Driver/Src/stm32l4xx_hal_ltdc.c **** 
2051:Drivers/STM32L4xx_HAL_Driver/Src/stm32l4xx_hal_ltdc.c ****   /* Disable LTDC color lookup table by setting CLUTEN bit */
2052:Drivers/STM32L4xx_HAL_Driver/Src/stm32l4xx_hal_ltdc.c ****   LTDC_LAYER(hltdc, LayerIdx)->CR &= ~(uint32_t)LTDC_LxCR_CLUTEN;
 3652              		.loc 1 2052 3 discriminator 2
 3653 0028 7B68     		ldr	r3, [r7, #4]
ARM GAS  C:\Users\Morroway\AppData\Local\Temp\cclk5axT.s 			page 100


 3654 002a 1B68     		ldr	r3, [r3]
 3655              		.loc 1 2052 35 discriminator 2
 3656 002c 1A46     		mov	r2, r3
 3657 002e 3B68     		ldr	r3, [r7]
 3658 0030 DB01     		lsls	r3, r3, #7
 3659 0032 1344     		add	r3, r3, r2
 3660 0034 8433     		adds	r3, r3, #132
 3661 0036 1B68     		ldr	r3, [r3]
 3662              		.loc 1 2052 3 discriminator 2
 3663 0038 7A68     		ldr	r2, [r7, #4]
 3664 003a 1268     		ldr	r2, [r2]
 3665              		.loc 1 2052 35 discriminator 2
 3666 003c 1146     		mov	r1, r2
 3667 003e 3A68     		ldr	r2, [r7]
 3668 0040 D201     		lsls	r2, r2, #7
 3669 0042 0A44     		add	r2, r2, r1
 3670 0044 8432     		adds	r2, r2, #132
 3671 0046 23F01003 		bic	r3, r3, #16
 3672 004a 1360     		str	r3, [r2]
2053:Drivers/STM32L4xx_HAL_Driver/Src/stm32l4xx_hal_ltdc.c **** 
2054:Drivers/STM32L4xx_HAL_Driver/Src/stm32l4xx_hal_ltdc.c ****   /* Change the LTDC state*/
2055:Drivers/STM32L4xx_HAL_Driver/Src/stm32l4xx_hal_ltdc.c ****   hltdc->State = HAL_LTDC_STATE_READY;
 3673              		.loc 1 2055 16 discriminator 2
 3674 004c 7B68     		ldr	r3, [r7, #4]
 3675 004e 0122     		movs	r2, #1
 3676 0050 83F86D20 		strb	r2, [r3, #109]
2056:Drivers/STM32L4xx_HAL_Driver/Src/stm32l4xx_hal_ltdc.c **** 
2057:Drivers/STM32L4xx_HAL_Driver/Src/stm32l4xx_hal_ltdc.c ****   /* Process unlocked */
2058:Drivers/STM32L4xx_HAL_Driver/Src/stm32l4xx_hal_ltdc.c ****   __HAL_UNLOCK(hltdc);
 3677              		.loc 1 2058 3 discriminator 2
 3678 0054 7B68     		ldr	r3, [r7, #4]
 3679 0056 0022     		movs	r2, #0
 3680 0058 83F86C20 		strb	r2, [r3, #108]
2059:Drivers/STM32L4xx_HAL_Driver/Src/stm32l4xx_hal_ltdc.c **** 
2060:Drivers/STM32L4xx_HAL_Driver/Src/stm32l4xx_hal_ltdc.c ****   return HAL_OK;
 3681              		.loc 1 2060 10 discriminator 2
 3682 005c 0023     		movs	r3, #0
 3683              	.L133:
2061:Drivers/STM32L4xx_HAL_Driver/Src/stm32l4xx_hal_ltdc.c **** }
 3684              		.loc 1 2061 1
 3685 005e 1846     		mov	r0, r3
 3686 0060 0C37     		adds	r7, r7, #12
 3687              		.cfi_def_cfa_offset 4
 3688 0062 BD46     		mov	sp, r7
 3689              		.cfi_def_cfa_register 13
 3690              		@ sp needed
 3691 0064 5DF8047B 		ldr	r7, [sp], #4
 3692              		.cfi_restore 7
 3693              		.cfi_def_cfa_offset 0
 3694 0068 7047     		bx	lr
 3695              		.cfi_endproc
 3696              	.LFE357:
 3698              		.section	.text.HAL_LTDC_GetState,"ax",%progbits
 3699              		.align	1
 3700              		.global	HAL_LTDC_GetState
 3701              		.syntax unified
 3702              		.thumb
ARM GAS  C:\Users\Morroway\AppData\Local\Temp\cclk5axT.s 			page 101


 3703              		.thumb_func
 3705              	HAL_LTDC_GetState:
 3706              	.LFB358:
2062:Drivers/STM32L4xx_HAL_Driver/Src/stm32l4xx_hal_ltdc.c **** 
2063:Drivers/STM32L4xx_HAL_Driver/Src/stm32l4xx_hal_ltdc.c **** /**
2064:Drivers/STM32L4xx_HAL_Driver/Src/stm32l4xx_hal_ltdc.c ****   * @}
2065:Drivers/STM32L4xx_HAL_Driver/Src/stm32l4xx_hal_ltdc.c ****   */
2066:Drivers/STM32L4xx_HAL_Driver/Src/stm32l4xx_hal_ltdc.c **** 
2067:Drivers/STM32L4xx_HAL_Driver/Src/stm32l4xx_hal_ltdc.c **** /** @defgroup LTDC_Exported_Functions_Group4 Peripheral State and Errors functions
2068:Drivers/STM32L4xx_HAL_Driver/Src/stm32l4xx_hal_ltdc.c ****   *  @brief    Peripheral State and Errors functions
2069:Drivers/STM32L4xx_HAL_Driver/Src/stm32l4xx_hal_ltdc.c ****   *
2070:Drivers/STM32L4xx_HAL_Driver/Src/stm32l4xx_hal_ltdc.c **** @verbatim
2071:Drivers/STM32L4xx_HAL_Driver/Src/stm32l4xx_hal_ltdc.c ****  ===============================================================================
2072:Drivers/STM32L4xx_HAL_Driver/Src/stm32l4xx_hal_ltdc.c ****                   ##### Peripheral State and Errors functions #####
2073:Drivers/STM32L4xx_HAL_Driver/Src/stm32l4xx_hal_ltdc.c ****  ===============================================================================
2074:Drivers/STM32L4xx_HAL_Driver/Src/stm32l4xx_hal_ltdc.c ****     [..]
2075:Drivers/STM32L4xx_HAL_Driver/Src/stm32l4xx_hal_ltdc.c ****     This subsection provides functions allowing to
2076:Drivers/STM32L4xx_HAL_Driver/Src/stm32l4xx_hal_ltdc.c ****       (+) Check the LTDC handle state.
2077:Drivers/STM32L4xx_HAL_Driver/Src/stm32l4xx_hal_ltdc.c ****       (+) Get the LTDC handle error code.
2078:Drivers/STM32L4xx_HAL_Driver/Src/stm32l4xx_hal_ltdc.c **** 
2079:Drivers/STM32L4xx_HAL_Driver/Src/stm32l4xx_hal_ltdc.c **** @endverbatim
2080:Drivers/STM32L4xx_HAL_Driver/Src/stm32l4xx_hal_ltdc.c ****   * @{
2081:Drivers/STM32L4xx_HAL_Driver/Src/stm32l4xx_hal_ltdc.c ****   */
2082:Drivers/STM32L4xx_HAL_Driver/Src/stm32l4xx_hal_ltdc.c **** 
2083:Drivers/STM32L4xx_HAL_Driver/Src/stm32l4xx_hal_ltdc.c **** /**
2084:Drivers/STM32L4xx_HAL_Driver/Src/stm32l4xx_hal_ltdc.c ****   * @brief  Return the LTDC handle state.
2085:Drivers/STM32L4xx_HAL_Driver/Src/stm32l4xx_hal_ltdc.c ****   * @param  hltdc  pointer to a LTDC_HandleTypeDef structure that contains
2086:Drivers/STM32L4xx_HAL_Driver/Src/stm32l4xx_hal_ltdc.c ****   *                the configuration information for the LTDC.
2087:Drivers/STM32L4xx_HAL_Driver/Src/stm32l4xx_hal_ltdc.c ****   * @retval HAL state
2088:Drivers/STM32L4xx_HAL_Driver/Src/stm32l4xx_hal_ltdc.c ****   */
2089:Drivers/STM32L4xx_HAL_Driver/Src/stm32l4xx_hal_ltdc.c **** HAL_LTDC_StateTypeDef HAL_LTDC_GetState(LTDC_HandleTypeDef *hltdc)
2090:Drivers/STM32L4xx_HAL_Driver/Src/stm32l4xx_hal_ltdc.c **** {
 3707              		.loc 1 2090 1
 3708              		.cfi_startproc
 3709              		@ args = 0, pretend = 0, frame = 8
 3710              		@ frame_needed = 1, uses_anonymous_args = 0
 3711              		@ link register save eliminated.
 3712 0000 80B4     		push	{r7}
 3713              		.cfi_def_cfa_offset 4
 3714              		.cfi_offset 7, -4
 3715 0002 83B0     		sub	sp, sp, #12
 3716              		.cfi_def_cfa_offset 16
 3717 0004 00AF     		add	r7, sp, #0
 3718              		.cfi_def_cfa_register 7
 3719 0006 7860     		str	r0, [r7, #4]
2091:Drivers/STM32L4xx_HAL_Driver/Src/stm32l4xx_hal_ltdc.c ****   return hltdc->State;
 3720              		.loc 1 2091 15
 3721 0008 7B68     		ldr	r3, [r7, #4]
 3722 000a 93F86D30 		ldrb	r3, [r3, #109]
 3723 000e DBB2     		uxtb	r3, r3
2092:Drivers/STM32L4xx_HAL_Driver/Src/stm32l4xx_hal_ltdc.c **** }
 3724              		.loc 1 2092 1
 3725 0010 1846     		mov	r0, r3
 3726 0012 0C37     		adds	r7, r7, #12
 3727              		.cfi_def_cfa_offset 4
 3728 0014 BD46     		mov	sp, r7
 3729              		.cfi_def_cfa_register 13
ARM GAS  C:\Users\Morroway\AppData\Local\Temp\cclk5axT.s 			page 102


 3730              		@ sp needed
 3731 0016 5DF8047B 		ldr	r7, [sp], #4
 3732              		.cfi_restore 7
 3733              		.cfi_def_cfa_offset 0
 3734 001a 7047     		bx	lr
 3735              		.cfi_endproc
 3736              	.LFE358:
 3738              		.section	.text.HAL_LTDC_GetError,"ax",%progbits
 3739              		.align	1
 3740              		.global	HAL_LTDC_GetError
 3741              		.syntax unified
 3742              		.thumb
 3743              		.thumb_func
 3745              	HAL_LTDC_GetError:
 3746              	.LFB359:
2093:Drivers/STM32L4xx_HAL_Driver/Src/stm32l4xx_hal_ltdc.c **** 
2094:Drivers/STM32L4xx_HAL_Driver/Src/stm32l4xx_hal_ltdc.c **** /**
2095:Drivers/STM32L4xx_HAL_Driver/Src/stm32l4xx_hal_ltdc.c ****   * @brief  Return the LTDC handle error code.
2096:Drivers/STM32L4xx_HAL_Driver/Src/stm32l4xx_hal_ltdc.c ****   * @param  hltdc  pointer to a LTDC_HandleTypeDef structure that contains
2097:Drivers/STM32L4xx_HAL_Driver/Src/stm32l4xx_hal_ltdc.c ****   *               the configuration information for the LTDC.
2098:Drivers/STM32L4xx_HAL_Driver/Src/stm32l4xx_hal_ltdc.c ****   * @retval LTDC Error Code
2099:Drivers/STM32L4xx_HAL_Driver/Src/stm32l4xx_hal_ltdc.c ****   */
2100:Drivers/STM32L4xx_HAL_Driver/Src/stm32l4xx_hal_ltdc.c **** uint32_t HAL_LTDC_GetError(LTDC_HandleTypeDef *hltdc)
2101:Drivers/STM32L4xx_HAL_Driver/Src/stm32l4xx_hal_ltdc.c **** {
 3747              		.loc 1 2101 1
 3748              		.cfi_startproc
 3749              		@ args = 0, pretend = 0, frame = 8
 3750              		@ frame_needed = 1, uses_anonymous_args = 0
 3751              		@ link register save eliminated.
 3752 0000 80B4     		push	{r7}
 3753              		.cfi_def_cfa_offset 4
 3754              		.cfi_offset 7, -4
 3755 0002 83B0     		sub	sp, sp, #12
 3756              		.cfi_def_cfa_offset 16
 3757 0004 00AF     		add	r7, sp, #0
 3758              		.cfi_def_cfa_register 7
 3759 0006 7860     		str	r0, [r7, #4]
2102:Drivers/STM32L4xx_HAL_Driver/Src/stm32l4xx_hal_ltdc.c ****   return hltdc->ErrorCode;
 3760              		.loc 1 2102 15
 3761 0008 7B68     		ldr	r3, [r7, #4]
 3762 000a 1B6F     		ldr	r3, [r3, #112]
2103:Drivers/STM32L4xx_HAL_Driver/Src/stm32l4xx_hal_ltdc.c **** }
 3763              		.loc 1 2103 1
 3764 000c 1846     		mov	r0, r3
 3765 000e 0C37     		adds	r7, r7, #12
 3766              		.cfi_def_cfa_offset 4
 3767 0010 BD46     		mov	sp, r7
 3768              		.cfi_def_cfa_register 13
 3769              		@ sp needed
 3770 0012 5DF8047B 		ldr	r7, [sp], #4
 3771              		.cfi_restore 7
 3772              		.cfi_def_cfa_offset 0
 3773 0016 7047     		bx	lr
 3774              		.cfi_endproc
 3775              	.LFE359:
 3777              		.section	.text.LTDC_SetConfig,"ax",%progbits
 3778              		.align	1
ARM GAS  C:\Users\Morroway\AppData\Local\Temp\cclk5axT.s 			page 103


 3779              		.syntax unified
 3780              		.thumb
 3781              		.thumb_func
 3783              	LTDC_SetConfig:
 3784              	.LFB360:
2104:Drivers/STM32L4xx_HAL_Driver/Src/stm32l4xx_hal_ltdc.c **** 
2105:Drivers/STM32L4xx_HAL_Driver/Src/stm32l4xx_hal_ltdc.c **** /**
2106:Drivers/STM32L4xx_HAL_Driver/Src/stm32l4xx_hal_ltdc.c ****   * @}
2107:Drivers/STM32L4xx_HAL_Driver/Src/stm32l4xx_hal_ltdc.c ****   */
2108:Drivers/STM32L4xx_HAL_Driver/Src/stm32l4xx_hal_ltdc.c **** 
2109:Drivers/STM32L4xx_HAL_Driver/Src/stm32l4xx_hal_ltdc.c **** /**
2110:Drivers/STM32L4xx_HAL_Driver/Src/stm32l4xx_hal_ltdc.c ****   * @}
2111:Drivers/STM32L4xx_HAL_Driver/Src/stm32l4xx_hal_ltdc.c ****   */
2112:Drivers/STM32L4xx_HAL_Driver/Src/stm32l4xx_hal_ltdc.c **** 
2113:Drivers/STM32L4xx_HAL_Driver/Src/stm32l4xx_hal_ltdc.c **** /** @defgroup LTDC_Private_Functions LTDC Private Functions
2114:Drivers/STM32L4xx_HAL_Driver/Src/stm32l4xx_hal_ltdc.c ****   * @{
2115:Drivers/STM32L4xx_HAL_Driver/Src/stm32l4xx_hal_ltdc.c ****   */
2116:Drivers/STM32L4xx_HAL_Driver/Src/stm32l4xx_hal_ltdc.c **** 
2117:Drivers/STM32L4xx_HAL_Driver/Src/stm32l4xx_hal_ltdc.c **** /**
2118:Drivers/STM32L4xx_HAL_Driver/Src/stm32l4xx_hal_ltdc.c ****   * @brief  Configure the LTDC peripheral
2119:Drivers/STM32L4xx_HAL_Driver/Src/stm32l4xx_hal_ltdc.c ****   * @param  hltdc     Pointer to a LTDC_HandleTypeDef structure that contains
2120:Drivers/STM32L4xx_HAL_Driver/Src/stm32l4xx_hal_ltdc.c ****   *                   the configuration information for the LTDC.
2121:Drivers/STM32L4xx_HAL_Driver/Src/stm32l4xx_hal_ltdc.c ****   * @param  pLayerCfg Pointer LTDC Layer Configuration structure
2122:Drivers/STM32L4xx_HAL_Driver/Src/stm32l4xx_hal_ltdc.c ****   * @param  LayerIdx  LTDC Layer index.
2123:Drivers/STM32L4xx_HAL_Driver/Src/stm32l4xx_hal_ltdc.c ****   *                   This parameter can be one of the following values: LTDC_LAYER_1 (0) or LTDC_L
2124:Drivers/STM32L4xx_HAL_Driver/Src/stm32l4xx_hal_ltdc.c ****   * @retval None
2125:Drivers/STM32L4xx_HAL_Driver/Src/stm32l4xx_hal_ltdc.c ****   */
2126:Drivers/STM32L4xx_HAL_Driver/Src/stm32l4xx_hal_ltdc.c **** static void LTDC_SetConfig(LTDC_HandleTypeDef *hltdc, LTDC_LayerCfgTypeDef *pLayerCfg, uint32_t Lay
2127:Drivers/STM32L4xx_HAL_Driver/Src/stm32l4xx_hal_ltdc.c **** {
 3785              		.loc 1 2127 1
 3786              		.cfi_startproc
 3787              		@ args = 0, pretend = 0, frame = 32
 3788              		@ frame_needed = 1, uses_anonymous_args = 0
 3789              		@ link register save eliminated.
 3790 0000 80B4     		push	{r7}
 3791              		.cfi_def_cfa_offset 4
 3792              		.cfi_offset 7, -4
 3793 0002 89B0     		sub	sp, sp, #36
 3794              		.cfi_def_cfa_offset 40
 3795 0004 00AF     		add	r7, sp, #0
 3796              		.cfi_def_cfa_register 7
 3797 0006 F860     		str	r0, [r7, #12]
 3798 0008 B960     		str	r1, [r7, #8]
 3799 000a 7A60     		str	r2, [r7, #4]
2128:Drivers/STM32L4xx_HAL_Driver/Src/stm32l4xx_hal_ltdc.c ****   uint32_t tmp;
2129:Drivers/STM32L4xx_HAL_Driver/Src/stm32l4xx_hal_ltdc.c ****   uint32_t tmp1;
2130:Drivers/STM32L4xx_HAL_Driver/Src/stm32l4xx_hal_ltdc.c ****   uint32_t tmp2;
2131:Drivers/STM32L4xx_HAL_Driver/Src/stm32l4xx_hal_ltdc.c **** 
2132:Drivers/STM32L4xx_HAL_Driver/Src/stm32l4xx_hal_ltdc.c ****   /* Configure the horizontal start and stop position */
2133:Drivers/STM32L4xx_HAL_Driver/Src/stm32l4xx_hal_ltdc.c ****   tmp = ((pLayerCfg->WindowX1 + ((hltdc->Instance->BPCR & LTDC_BPCR_AHBP) >> 16U)) << 16U);
 3800              		.loc 1 2133 20
 3801 000c BB68     		ldr	r3, [r7, #8]
 3802 000e 5A68     		ldr	r2, [r3, #4]
 3803              		.loc 1 2133 40
 3804 0010 FB68     		ldr	r3, [r7, #12]
 3805 0012 1B68     		ldr	r3, [r3]
 3806              		.loc 1 2133 50
ARM GAS  C:\Users\Morroway\AppData\Local\Temp\cclk5axT.s 			page 104


 3807 0014 DB68     		ldr	r3, [r3, #12]
 3808              		.loc 1 2133 75
 3809 0016 1B0C     		lsrs	r3, r3, #16
 3810 0018 C3F30B03 		ubfx	r3, r3, #0, #12
 3811              		.loc 1 2133 31
 3812 001c 1344     		add	r3, r3, r2
 3813              		.loc 1 2133 7
 3814 001e 1B04     		lsls	r3, r3, #16
 3815 0020 FB61     		str	r3, [r7, #28]
2134:Drivers/STM32L4xx_HAL_Driver/Src/stm32l4xx_hal_ltdc.c ****   LTDC_LAYER(hltdc, LayerIdx)->WHPCR &= ~(LTDC_LxWHPCR_WHSTPOS | LTDC_LxWHPCR_WHSPPOS);
 3816              		.loc 1 2134 3
 3817 0022 FB68     		ldr	r3, [r7, #12]
 3818 0024 1B68     		ldr	r3, [r3]
 3819              		.loc 1 2134 38
 3820 0026 1A46     		mov	r2, r3
 3821 0028 7B68     		ldr	r3, [r7, #4]
 3822 002a DB01     		lsls	r3, r3, #7
 3823 002c 1344     		add	r3, r3, r2
 3824 002e 8433     		adds	r3, r3, #132
 3825 0030 5B68     		ldr	r3, [r3, #4]
 3826              		.loc 1 2134 3
 3827 0032 FA68     		ldr	r2, [r7, #12]
 3828 0034 1268     		ldr	r2, [r2]
 3829              		.loc 1 2134 38
 3830 0036 1146     		mov	r1, r2
 3831 0038 7A68     		ldr	r2, [r7, #4]
 3832 003a D201     		lsls	r2, r2, #7
 3833 003c 0A44     		add	r2, r2, r1
 3834 003e 8432     		adds	r2, r2, #132
 3835 0040 03F0F023 		and	r3, r3, #-268374016
 3836 0044 5360     		str	r3, [r2, #4]
2135:Drivers/STM32L4xx_HAL_Driver/Src/stm32l4xx_hal_ltdc.c ****   LTDC_LAYER(hltdc, LayerIdx)->WHPCR = ((pLayerCfg->WindowX0 + \
 3837              		.loc 1 2135 51
 3838 0046 BB68     		ldr	r3, [r7, #8]
 3839 0048 1A68     		ldr	r2, [r3]
2136:Drivers/STM32L4xx_HAL_Driver/Src/stm32l4xx_hal_ltdc.c ****                                          ((hltdc->Instance->BPCR & LTDC_BPCR_AHBP) >> 16U) + 1U) | 
 3840              		.loc 1 2136 49
 3841 004a FB68     		ldr	r3, [r7, #12]
 3842 004c 1B68     		ldr	r3, [r3]
 3843              		.loc 1 2136 59
 3844 004e DB68     		ldr	r3, [r3, #12]
 3845              		.loc 1 2136 84
 3846 0050 1B0C     		lsrs	r3, r3, #16
 3847 0052 C3F30B03 		ubfx	r3, r3, #0, #12
2135:Drivers/STM32L4xx_HAL_Driver/Src/stm32l4xx_hal_ltdc.c ****   LTDC_LAYER(hltdc, LayerIdx)->WHPCR = ((pLayerCfg->WindowX0 + \
 3848              		.loc 1 2135 62
 3849 0056 1344     		add	r3, r3, r2
 3850              		.loc 1 2136 92
 3851 0058 5A1C     		adds	r2, r3, #1
2135:Drivers/STM32L4xx_HAL_Driver/Src/stm32l4xx_hal_ltdc.c ****   LTDC_LAYER(hltdc, LayerIdx)->WHPCR = ((pLayerCfg->WindowX0 + \
 3852              		.loc 1 2135 3
 3853 005a FB68     		ldr	r3, [r7, #12]
 3854 005c 1B68     		ldr	r3, [r3]
 3855 005e 1946     		mov	r1, r3
 3856 0060 7B68     		ldr	r3, [r7, #4]
 3857 0062 DB01     		lsls	r3, r3, #7
 3858 0064 0B44     		add	r3, r3, r1
ARM GAS  C:\Users\Morroway\AppData\Local\Temp\cclk5axT.s 			page 105


 3859 0066 8433     		adds	r3, r3, #132
 3860 0068 1946     		mov	r1, r3
 3861              		.loc 1 2136 98
 3862 006a FB69     		ldr	r3, [r7, #28]
 3863 006c 1343     		orrs	r3, r3, r2
2135:Drivers/STM32L4xx_HAL_Driver/Src/stm32l4xx_hal_ltdc.c ****   LTDC_LAYER(hltdc, LayerIdx)->WHPCR = ((pLayerCfg->WindowX0 + \
 3864              		.loc 1 2135 38
 3865 006e 4B60     		str	r3, [r1, #4]
2137:Drivers/STM32L4xx_HAL_Driver/Src/stm32l4xx_hal_ltdc.c **** 
2138:Drivers/STM32L4xx_HAL_Driver/Src/stm32l4xx_hal_ltdc.c ****   /* Configure the vertical start and stop position */
2139:Drivers/STM32L4xx_HAL_Driver/Src/stm32l4xx_hal_ltdc.c ****   tmp = ((pLayerCfg->WindowY1 + (hltdc->Instance->BPCR & LTDC_BPCR_AVBP)) << 16U);
 3866              		.loc 1 2139 20
 3867 0070 BB68     		ldr	r3, [r7, #8]
 3868 0072 DA68     		ldr	r2, [r3, #12]
 3869              		.loc 1 2139 39
 3870 0074 FB68     		ldr	r3, [r7, #12]
 3871 0076 1B68     		ldr	r3, [r3]
 3872              		.loc 1 2139 49
 3873 0078 DB68     		ldr	r3, [r3, #12]
 3874              		.loc 1 2139 56
 3875 007a C3F30A03 		ubfx	r3, r3, #0, #11
 3876              		.loc 1 2139 31
 3877 007e 1344     		add	r3, r3, r2
 3878              		.loc 1 2139 7
 3879 0080 1B04     		lsls	r3, r3, #16
 3880 0082 FB61     		str	r3, [r7, #28]
2140:Drivers/STM32L4xx_HAL_Driver/Src/stm32l4xx_hal_ltdc.c ****   LTDC_LAYER(hltdc, LayerIdx)->WVPCR &= ~(LTDC_LxWVPCR_WVSTPOS | LTDC_LxWVPCR_WVSPPOS);
 3881              		.loc 1 2140 3
 3882 0084 FB68     		ldr	r3, [r7, #12]
 3883 0086 1B68     		ldr	r3, [r3]
 3884              		.loc 1 2140 38
 3885 0088 1A46     		mov	r2, r3
 3886 008a 7B68     		ldr	r3, [r7, #4]
 3887 008c DB01     		lsls	r3, r3, #7
 3888 008e 1344     		add	r3, r3, r2
 3889 0090 8433     		adds	r3, r3, #132
 3890 0092 9B68     		ldr	r3, [r3, #8]
 3891              		.loc 1 2140 3
 3892 0094 FA68     		ldr	r2, [r7, #12]
 3893 0096 1268     		ldr	r2, [r2]
 3894              		.loc 1 2140 38
 3895 0098 1146     		mov	r1, r2
 3896 009a 7A68     		ldr	r2, [r7, #4]
 3897 009c D201     		lsls	r2, r2, #7
 3898 009e 0A44     		add	r2, r2, r1
 3899 00a0 8432     		adds	r2, r2, #132
 3900 00a2 03F0F023 		and	r3, r3, #-268374016
 3901 00a6 9360     		str	r3, [r2, #8]
2141:Drivers/STM32L4xx_HAL_Driver/Src/stm32l4xx_hal_ltdc.c ****   LTDC_LAYER(hltdc, LayerIdx)->WVPCR  = ((pLayerCfg->WindowY0 + (hltdc->Instance->BPCR & LTDC_BPCR_
 3902              		.loc 1 2141 52
 3903 00a8 BB68     		ldr	r3, [r7, #8]
 3904 00aa 9A68     		ldr	r2, [r3, #8]
 3905              		.loc 1 2141 71
 3906 00ac FB68     		ldr	r3, [r7, #12]
 3907 00ae 1B68     		ldr	r3, [r3]
 3908              		.loc 1 2141 81
 3909 00b0 DB68     		ldr	r3, [r3, #12]
ARM GAS  C:\Users\Morroway\AppData\Local\Temp\cclk5axT.s 			page 106


 3910              		.loc 1 2141 88
 3911 00b2 C3F30A03 		ubfx	r3, r3, #0, #11
 3912              		.loc 1 2141 63
 3913 00b6 1344     		add	r3, r3, r2
 3914              		.loc 1 2141 106
 3915 00b8 5A1C     		adds	r2, r3, #1
 3916              		.loc 1 2141 3
 3917 00ba FB68     		ldr	r3, [r7, #12]
 3918 00bc 1B68     		ldr	r3, [r3]
 3919 00be 1946     		mov	r1, r3
 3920 00c0 7B68     		ldr	r3, [r7, #4]
 3921 00c2 DB01     		lsls	r3, r3, #7
 3922 00c4 0B44     		add	r3, r3, r1
 3923 00c6 8433     		adds	r3, r3, #132
 3924 00c8 1946     		mov	r1, r3
 3925              		.loc 1 2141 112
 3926 00ca FB69     		ldr	r3, [r7, #28]
 3927 00cc 1343     		orrs	r3, r3, r2
 3928              		.loc 1 2141 39
 3929 00ce 8B60     		str	r3, [r1, #8]
2142:Drivers/STM32L4xx_HAL_Driver/Src/stm32l4xx_hal_ltdc.c **** 
2143:Drivers/STM32L4xx_HAL_Driver/Src/stm32l4xx_hal_ltdc.c ****   /* Specifies the pixel format */
2144:Drivers/STM32L4xx_HAL_Driver/Src/stm32l4xx_hal_ltdc.c ****   LTDC_LAYER(hltdc, LayerIdx)->PFCR &= ~(LTDC_LxPFCR_PF);
 3930              		.loc 1 2144 3
 3931 00d0 FB68     		ldr	r3, [r7, #12]
 3932 00d2 1B68     		ldr	r3, [r3]
 3933              		.loc 1 2144 37
 3934 00d4 1A46     		mov	r2, r3
 3935 00d6 7B68     		ldr	r3, [r7, #4]
 3936 00d8 DB01     		lsls	r3, r3, #7
 3937 00da 1344     		add	r3, r3, r2
 3938 00dc 8433     		adds	r3, r3, #132
 3939 00de 1B69     		ldr	r3, [r3, #16]
 3940              		.loc 1 2144 3
 3941 00e0 FA68     		ldr	r2, [r7, #12]
 3942 00e2 1268     		ldr	r2, [r2]
 3943              		.loc 1 2144 37
 3944 00e4 1146     		mov	r1, r2
 3945 00e6 7A68     		ldr	r2, [r7, #4]
 3946 00e8 D201     		lsls	r2, r2, #7
 3947 00ea 0A44     		add	r2, r2, r1
 3948 00ec 8432     		adds	r2, r2, #132
 3949 00ee 23F00703 		bic	r3, r3, #7
 3950 00f2 1361     		str	r3, [r2, #16]
2145:Drivers/STM32L4xx_HAL_Driver/Src/stm32l4xx_hal_ltdc.c ****   LTDC_LAYER(hltdc, LayerIdx)->PFCR = (pLayerCfg->PixelFormat);
 3951              		.loc 1 2145 3
 3952 00f4 FB68     		ldr	r3, [r7, #12]
 3953 00f6 1B68     		ldr	r3, [r3]
 3954 00f8 1A46     		mov	r2, r3
 3955 00fa 7B68     		ldr	r3, [r7, #4]
 3956 00fc DB01     		lsls	r3, r3, #7
 3957 00fe 1344     		add	r3, r3, r2
 3958 0100 8433     		adds	r3, r3, #132
 3959 0102 1A46     		mov	r2, r3
 3960              		.loc 1 2145 49
 3961 0104 BB68     		ldr	r3, [r7, #8]
 3962 0106 1B69     		ldr	r3, [r3, #16]
ARM GAS  C:\Users\Morroway\AppData\Local\Temp\cclk5axT.s 			page 107


 3963              		.loc 1 2145 37
 3964 0108 1361     		str	r3, [r2, #16]
2146:Drivers/STM32L4xx_HAL_Driver/Src/stm32l4xx_hal_ltdc.c **** 
2147:Drivers/STM32L4xx_HAL_Driver/Src/stm32l4xx_hal_ltdc.c ****   /* Configure the default color values */
2148:Drivers/STM32L4xx_HAL_Driver/Src/stm32l4xx_hal_ltdc.c ****   tmp = ((uint32_t)(pLayerCfg->Backcolor.Green) << 8U);
 3965              		.loc 1 2148 41
 3966 010a BB68     		ldr	r3, [r7, #8]
 3967 010c 93F83130 		ldrb	r3, [r3, #49]	@ zero_extendqisi2
 3968              		.loc 1 2148 7
 3969 0110 1B02     		lsls	r3, r3, #8
 3970 0112 FB61     		str	r3, [r7, #28]
2149:Drivers/STM32L4xx_HAL_Driver/Src/stm32l4xx_hal_ltdc.c ****   tmp1 = ((uint32_t)(pLayerCfg->Backcolor.Red) << 16U);
 3971              		.loc 1 2149 42
 3972 0114 BB68     		ldr	r3, [r7, #8]
 3973 0116 93F83230 		ldrb	r3, [r3, #50]	@ zero_extendqisi2
 3974              		.loc 1 2149 8
 3975 011a 1B04     		lsls	r3, r3, #16
 3976 011c BB61     		str	r3, [r7, #24]
2150:Drivers/STM32L4xx_HAL_Driver/Src/stm32l4xx_hal_ltdc.c ****   tmp2 = (pLayerCfg->Alpha0 << 24U);
 3977              		.loc 1 2150 20
 3978 011e BB68     		ldr	r3, [r7, #8]
 3979 0120 9B69     		ldr	r3, [r3, #24]
 3980              		.loc 1 2150 8
 3981 0122 1B06     		lsls	r3, r3, #24
 3982 0124 7B61     		str	r3, [r7, #20]
2151:Drivers/STM32L4xx_HAL_Driver/Src/stm32l4xx_hal_ltdc.c ****   LTDC_LAYER(hltdc, LayerIdx)->DCCR &= ~(LTDC_LxDCCR_DCBLUE | LTDC_LxDCCR_DCGREEN | LTDC_LxDCCR_DCR
 3983              		.loc 1 2151 3
 3984 0126 FB68     		ldr	r3, [r7, #12]
 3985 0128 1B68     		ldr	r3, [r3]
 3986              		.loc 1 2151 37
 3987 012a 1A46     		mov	r2, r3
 3988 012c 7B68     		ldr	r3, [r7, #4]
 3989 012e DB01     		lsls	r3, r3, #7
 3990 0130 1344     		add	r3, r3, r2
 3991 0132 8433     		adds	r3, r3, #132
 3992 0134 9B69     		ldr	r3, [r3, #24]
 3993              		.loc 1 2151 3
 3994 0136 FB68     		ldr	r3, [r7, #12]
 3995 0138 1B68     		ldr	r3, [r3]
 3996              		.loc 1 2151 37
 3997 013a 1A46     		mov	r2, r3
 3998 013c 7B68     		ldr	r3, [r7, #4]
 3999 013e DB01     		lsls	r3, r3, #7
 4000 0140 1344     		add	r3, r3, r2
 4001 0142 8433     		adds	r3, r3, #132
 4002 0144 1A46     		mov	r2, r3
 4003 0146 0023     		movs	r3, #0
 4004 0148 9361     		str	r3, [r2, #24]
2152:Drivers/STM32L4xx_HAL_Driver/Src/stm32l4xx_hal_ltdc.c ****                                          LTDC_LxDCCR_DCALPHA);
2153:Drivers/STM32L4xx_HAL_Driver/Src/stm32l4xx_hal_ltdc.c ****   LTDC_LAYER(hltdc, LayerIdx)->DCCR = (pLayerCfg->Backcolor.Blue | tmp | tmp1 | tmp2);
 4005              		.loc 1 2153 60
 4006 014a BB68     		ldr	r3, [r7, #8]
 4007 014c 93F83030 		ldrb	r3, [r3, #48]	@ zero_extendqisi2
 4008 0150 1A46     		mov	r2, r3
 4009              		.loc 1 2153 66
 4010 0152 FB69     		ldr	r3, [r7, #28]
 4011 0154 1A43     		orrs	r2, r2, r3
ARM GAS  C:\Users\Morroway\AppData\Local\Temp\cclk5axT.s 			page 108


 4012              		.loc 1 2153 72
 4013 0156 BB69     		ldr	r3, [r7, #24]
 4014 0158 1A43     		orrs	r2, r2, r3
 4015              		.loc 1 2153 3
 4016 015a FB68     		ldr	r3, [r7, #12]
 4017 015c 1B68     		ldr	r3, [r3]
 4018 015e 1946     		mov	r1, r3
 4019 0160 7B68     		ldr	r3, [r7, #4]
 4020 0162 DB01     		lsls	r3, r3, #7
 4021 0164 0B44     		add	r3, r3, r1
 4022 0166 8433     		adds	r3, r3, #132
 4023 0168 1946     		mov	r1, r3
 4024              		.loc 1 2153 79
 4025 016a 7B69     		ldr	r3, [r7, #20]
 4026 016c 1343     		orrs	r3, r3, r2
 4027              		.loc 1 2153 37
 4028 016e 8B61     		str	r3, [r1, #24]
2154:Drivers/STM32L4xx_HAL_Driver/Src/stm32l4xx_hal_ltdc.c **** 
2155:Drivers/STM32L4xx_HAL_Driver/Src/stm32l4xx_hal_ltdc.c ****   /* Specifies the constant alpha value */
2156:Drivers/STM32L4xx_HAL_Driver/Src/stm32l4xx_hal_ltdc.c ****   LTDC_LAYER(hltdc, LayerIdx)->CACR &= ~(LTDC_LxCACR_CONSTA);
 4029              		.loc 1 2156 3
 4030 0170 FB68     		ldr	r3, [r7, #12]
 4031 0172 1B68     		ldr	r3, [r3]
 4032              		.loc 1 2156 37
 4033 0174 1A46     		mov	r2, r3
 4034 0176 7B68     		ldr	r3, [r7, #4]
 4035 0178 DB01     		lsls	r3, r3, #7
 4036 017a 1344     		add	r3, r3, r2
 4037 017c 8433     		adds	r3, r3, #132
 4038 017e 5B69     		ldr	r3, [r3, #20]
 4039              		.loc 1 2156 3
 4040 0180 FA68     		ldr	r2, [r7, #12]
 4041 0182 1268     		ldr	r2, [r2]
 4042              		.loc 1 2156 37
 4043 0184 1146     		mov	r1, r2
 4044 0186 7A68     		ldr	r2, [r7, #4]
 4045 0188 D201     		lsls	r2, r2, #7
 4046 018a 0A44     		add	r2, r2, r1
 4047 018c 8432     		adds	r2, r2, #132
 4048 018e 23F0FF03 		bic	r3, r3, #255
 4049 0192 5361     		str	r3, [r2, #20]
2157:Drivers/STM32L4xx_HAL_Driver/Src/stm32l4xx_hal_ltdc.c ****   LTDC_LAYER(hltdc, LayerIdx)->CACR = (pLayerCfg->Alpha);
 4050              		.loc 1 2157 3
 4051 0194 FB68     		ldr	r3, [r7, #12]
 4052 0196 1B68     		ldr	r3, [r3]
 4053 0198 1A46     		mov	r2, r3
 4054 019a 7B68     		ldr	r3, [r7, #4]
 4055 019c DB01     		lsls	r3, r3, #7
 4056 019e 1344     		add	r3, r3, r2
 4057 01a0 8433     		adds	r3, r3, #132
 4058 01a2 1A46     		mov	r2, r3
 4059              		.loc 1 2157 49
 4060 01a4 BB68     		ldr	r3, [r7, #8]
 4061 01a6 5B69     		ldr	r3, [r3, #20]
 4062              		.loc 1 2157 37
 4063 01a8 5361     		str	r3, [r2, #20]
2158:Drivers/STM32L4xx_HAL_Driver/Src/stm32l4xx_hal_ltdc.c **** 
ARM GAS  C:\Users\Morroway\AppData\Local\Temp\cclk5axT.s 			page 109


2159:Drivers/STM32L4xx_HAL_Driver/Src/stm32l4xx_hal_ltdc.c ****   /* Specifies the blending factors */
2160:Drivers/STM32L4xx_HAL_Driver/Src/stm32l4xx_hal_ltdc.c ****   LTDC_LAYER(hltdc, LayerIdx)->BFCR &= ~(LTDC_LxBFCR_BF2 | LTDC_LxBFCR_BF1);
 4064              		.loc 1 2160 3
 4065 01aa FB68     		ldr	r3, [r7, #12]
 4066 01ac 1B68     		ldr	r3, [r3]
 4067              		.loc 1 2160 37
 4068 01ae 1A46     		mov	r2, r3
 4069 01b0 7B68     		ldr	r3, [r7, #4]
 4070 01b2 DB01     		lsls	r3, r3, #7
 4071 01b4 1344     		add	r3, r3, r2
 4072 01b6 8433     		adds	r3, r3, #132
 4073 01b8 DB69     		ldr	r3, [r3, #28]
 4074              		.loc 1 2160 3
 4075 01ba FA68     		ldr	r2, [r7, #12]
 4076 01bc 1268     		ldr	r2, [r2]
 4077              		.loc 1 2160 37
 4078 01be 1146     		mov	r1, r2
 4079 01c0 7A68     		ldr	r2, [r7, #4]
 4080 01c2 D201     		lsls	r2, r2, #7
 4081 01c4 0A44     		add	r2, r2, r1
 4082 01c6 8432     		adds	r2, r2, #132
 4083 01c8 23F4E063 		bic	r3, r3, #1792
 4084 01cc 23F00703 		bic	r3, r3, #7
 4085 01d0 D361     		str	r3, [r2, #28]
2161:Drivers/STM32L4xx_HAL_Driver/Src/stm32l4xx_hal_ltdc.c ****   LTDC_LAYER(hltdc, LayerIdx)->BFCR = (pLayerCfg->BlendingFactor1 | pLayerCfg->BlendingFactor2);
 4086              		.loc 1 2161 49
 4087 01d2 BB68     		ldr	r3, [r7, #8]
 4088 01d4 DA69     		ldr	r2, [r3, #28]
 4089              		.loc 1 2161 78
 4090 01d6 BB68     		ldr	r3, [r7, #8]
 4091 01d8 1B6A     		ldr	r3, [r3, #32]
 4092              		.loc 1 2161 3
 4093 01da F968     		ldr	r1, [r7, #12]
 4094 01dc 0968     		ldr	r1, [r1]
 4095 01de 0846     		mov	r0, r1
 4096 01e0 7968     		ldr	r1, [r7, #4]
 4097 01e2 C901     		lsls	r1, r1, #7
 4098 01e4 0144     		add	r1, r1, r0
 4099 01e6 8431     		adds	r1, r1, #132
 4100              		.loc 1 2161 67
 4101 01e8 1343     		orrs	r3, r3, r2
 4102              		.loc 1 2161 37
 4103 01ea CB61     		str	r3, [r1, #28]
2162:Drivers/STM32L4xx_HAL_Driver/Src/stm32l4xx_hal_ltdc.c **** 
2163:Drivers/STM32L4xx_HAL_Driver/Src/stm32l4xx_hal_ltdc.c ****   /* Configure the color frame buffer start address */
2164:Drivers/STM32L4xx_HAL_Driver/Src/stm32l4xx_hal_ltdc.c ****   LTDC_LAYER(hltdc, LayerIdx)->CFBAR &= ~(LTDC_LxCFBAR_CFBADD);
 4104              		.loc 1 2164 3
 4105 01ec FB68     		ldr	r3, [r7, #12]
 4106 01ee 1B68     		ldr	r3, [r3]
 4107              		.loc 1 2164 38
 4108 01f0 1A46     		mov	r2, r3
 4109 01f2 7B68     		ldr	r3, [r7, #4]
 4110 01f4 DB01     		lsls	r3, r3, #7
 4111 01f6 1344     		add	r3, r3, r2
 4112 01f8 8433     		adds	r3, r3, #132
 4113 01fa 9B6A     		ldr	r3, [r3, #40]
 4114              		.loc 1 2164 3
ARM GAS  C:\Users\Morroway\AppData\Local\Temp\cclk5axT.s 			page 110


 4115 01fc FB68     		ldr	r3, [r7, #12]
 4116 01fe 1B68     		ldr	r3, [r3]
 4117              		.loc 1 2164 38
 4118 0200 1A46     		mov	r2, r3
 4119 0202 7B68     		ldr	r3, [r7, #4]
 4120 0204 DB01     		lsls	r3, r3, #7
 4121 0206 1344     		add	r3, r3, r2
 4122 0208 8433     		adds	r3, r3, #132
 4123 020a 1A46     		mov	r2, r3
 4124 020c 0023     		movs	r3, #0
 4125 020e 9362     		str	r3, [r2, #40]
2165:Drivers/STM32L4xx_HAL_Driver/Src/stm32l4xx_hal_ltdc.c ****   LTDC_LAYER(hltdc, LayerIdx)->CFBAR = (pLayerCfg->FBStartAdress);
 4126              		.loc 1 2165 3
 4127 0210 FB68     		ldr	r3, [r7, #12]
 4128 0212 1B68     		ldr	r3, [r3]
 4129 0214 1A46     		mov	r2, r3
 4130 0216 7B68     		ldr	r3, [r7, #4]
 4131 0218 DB01     		lsls	r3, r3, #7
 4132 021a 1344     		add	r3, r3, r2
 4133 021c 8433     		adds	r3, r3, #132
 4134 021e 1A46     		mov	r2, r3
 4135              		.loc 1 2165 50
 4136 0220 BB68     		ldr	r3, [r7, #8]
 4137 0222 5B6A     		ldr	r3, [r3, #36]
 4138              		.loc 1 2165 38
 4139 0224 9362     		str	r3, [r2, #40]
2166:Drivers/STM32L4xx_HAL_Driver/Src/stm32l4xx_hal_ltdc.c **** 
2167:Drivers/STM32L4xx_HAL_Driver/Src/stm32l4xx_hal_ltdc.c ****   if (pLayerCfg->PixelFormat == LTDC_PIXEL_FORMAT_ARGB8888)
 4140              		.loc 1 2167 16
 4141 0226 BB68     		ldr	r3, [r7, #8]
 4142 0228 1B69     		ldr	r3, [r3, #16]
 4143              		.loc 1 2167 6
 4144 022a 002B     		cmp	r3, #0
 4145 022c 02D1     		bne	.L139
2168:Drivers/STM32L4xx_HAL_Driver/Src/stm32l4xx_hal_ltdc.c ****   {
2169:Drivers/STM32L4xx_HAL_Driver/Src/stm32l4xx_hal_ltdc.c ****     tmp = 4U;
 4146              		.loc 1 2169 9
 4147 022e 0423     		movs	r3, #4
 4148 0230 FB61     		str	r3, [r7, #28]
 4149 0232 1BE0     		b	.L140
 4150              	.L139:
2170:Drivers/STM32L4xx_HAL_Driver/Src/stm32l4xx_hal_ltdc.c ****   }
2171:Drivers/STM32L4xx_HAL_Driver/Src/stm32l4xx_hal_ltdc.c ****   else if (pLayerCfg->PixelFormat == LTDC_PIXEL_FORMAT_RGB888)
 4151              		.loc 1 2171 21
 4152 0234 BB68     		ldr	r3, [r7, #8]
 4153 0236 1B69     		ldr	r3, [r3, #16]
 4154              		.loc 1 2171 11
 4155 0238 012B     		cmp	r3, #1
 4156 023a 02D1     		bne	.L141
2172:Drivers/STM32L4xx_HAL_Driver/Src/stm32l4xx_hal_ltdc.c ****   {
2173:Drivers/STM32L4xx_HAL_Driver/Src/stm32l4xx_hal_ltdc.c ****     tmp = 3U;
 4157              		.loc 1 2173 9
 4158 023c 0323     		movs	r3, #3
 4159 023e FB61     		str	r3, [r7, #28]
 4160 0240 14E0     		b	.L140
 4161              	.L141:
2174:Drivers/STM32L4xx_HAL_Driver/Src/stm32l4xx_hal_ltdc.c ****   }
ARM GAS  C:\Users\Morroway\AppData\Local\Temp\cclk5axT.s 			page 111


2175:Drivers/STM32L4xx_HAL_Driver/Src/stm32l4xx_hal_ltdc.c ****   else if ((pLayerCfg->PixelFormat == LTDC_PIXEL_FORMAT_ARGB4444) || \
 4162              		.loc 1 2175 22
 4163 0242 BB68     		ldr	r3, [r7, #8]
 4164 0244 1B69     		ldr	r3, [r3, #16]
 4165              		.loc 1 2175 11
 4166 0246 042B     		cmp	r3, #4
 4167 0248 0BD0     		beq	.L142
2176:Drivers/STM32L4xx_HAL_Driver/Src/stm32l4xx_hal_ltdc.c ****            (pLayerCfg->PixelFormat == LTDC_PIXEL_FORMAT_RGB565)   || \
 4168              		.loc 1 2176 22 discriminator 1
 4169 024a BB68     		ldr	r3, [r7, #8]
 4170 024c 1B69     		ldr	r3, [r3, #16]
2175:Drivers/STM32L4xx_HAL_Driver/Src/stm32l4xx_hal_ltdc.c ****            (pLayerCfg->PixelFormat == LTDC_PIXEL_FORMAT_RGB565)   || \
 4171              		.loc 1 2175 67 discriminator 1
 4172 024e 022B     		cmp	r3, #2
 4173 0250 07D0     		beq	.L142
2177:Drivers/STM32L4xx_HAL_Driver/Src/stm32l4xx_hal_ltdc.c ****            (pLayerCfg->PixelFormat == LTDC_PIXEL_FORMAT_ARGB1555) || \
 4174              		.loc 1 2177 22
 4175 0252 BB68     		ldr	r3, [r7, #8]
 4176 0254 1B69     		ldr	r3, [r3, #16]
2176:Drivers/STM32L4xx_HAL_Driver/Src/stm32l4xx_hal_ltdc.c ****            (pLayerCfg->PixelFormat == LTDC_PIXEL_FORMAT_RGB565)   || \
 4177              		.loc 1 2176 67
 4178 0256 032B     		cmp	r3, #3
 4179 0258 03D0     		beq	.L142
2178:Drivers/STM32L4xx_HAL_Driver/Src/stm32l4xx_hal_ltdc.c ****            (pLayerCfg->PixelFormat == LTDC_PIXEL_FORMAT_AL88))
 4180              		.loc 1 2178 22
 4181 025a BB68     		ldr	r3, [r7, #8]
 4182 025c 1B69     		ldr	r3, [r3, #16]
2177:Drivers/STM32L4xx_HAL_Driver/Src/stm32l4xx_hal_ltdc.c ****            (pLayerCfg->PixelFormat == LTDC_PIXEL_FORMAT_ARGB1555) || \
 4183              		.loc 1 2177 67
 4184 025e 072B     		cmp	r3, #7
 4185 0260 02D1     		bne	.L143
 4186              	.L142:
2179:Drivers/STM32L4xx_HAL_Driver/Src/stm32l4xx_hal_ltdc.c ****   {
2180:Drivers/STM32L4xx_HAL_Driver/Src/stm32l4xx_hal_ltdc.c ****     tmp = 2U;
 4187              		.loc 1 2180 9
 4188 0262 0223     		movs	r3, #2
 4189 0264 FB61     		str	r3, [r7, #28]
 4190 0266 01E0     		b	.L140
 4191              	.L143:
2181:Drivers/STM32L4xx_HAL_Driver/Src/stm32l4xx_hal_ltdc.c ****   }
2182:Drivers/STM32L4xx_HAL_Driver/Src/stm32l4xx_hal_ltdc.c ****   else
2183:Drivers/STM32L4xx_HAL_Driver/Src/stm32l4xx_hal_ltdc.c ****   {
2184:Drivers/STM32L4xx_HAL_Driver/Src/stm32l4xx_hal_ltdc.c ****     tmp = 1U;
 4192              		.loc 1 2184 9
 4193 0268 0123     		movs	r3, #1
 4194 026a FB61     		str	r3, [r7, #28]
 4195              	.L140:
2185:Drivers/STM32L4xx_HAL_Driver/Src/stm32l4xx_hal_ltdc.c ****   }
2186:Drivers/STM32L4xx_HAL_Driver/Src/stm32l4xx_hal_ltdc.c **** 
2187:Drivers/STM32L4xx_HAL_Driver/Src/stm32l4xx_hal_ltdc.c ****   /* Configure the color frame buffer pitch in byte */
2188:Drivers/STM32L4xx_HAL_Driver/Src/stm32l4xx_hal_ltdc.c ****   LTDC_LAYER(hltdc, LayerIdx)->CFBLR  &= ~(LTDC_LxCFBLR_CFBLL | LTDC_LxCFBLR_CFBP);
 4196              		.loc 1 2188 3
 4197 026c FB68     		ldr	r3, [r7, #12]
 4198 026e 1B68     		ldr	r3, [r3]
 4199              		.loc 1 2188 39
 4200 0270 1A46     		mov	r2, r3
 4201 0272 7B68     		ldr	r3, [r7, #4]
ARM GAS  C:\Users\Morroway\AppData\Local\Temp\cclk5axT.s 			page 112


 4202 0274 DB01     		lsls	r3, r3, #7
 4203 0276 1344     		add	r3, r3, r2
 4204 0278 8433     		adds	r3, r3, #132
 4205 027a DB6A     		ldr	r3, [r3, #44]
 4206              		.loc 1 2188 3
 4207 027c FA68     		ldr	r2, [r7, #12]
 4208 027e 1268     		ldr	r2, [r2]
 4209              		.loc 1 2188 39
 4210 0280 1146     		mov	r1, r2
 4211 0282 7A68     		ldr	r2, [r7, #4]
 4212 0284 D201     		lsls	r2, r2, #7
 4213 0286 0A44     		add	r2, r2, r1
 4214 0288 8432     		adds	r2, r2, #132
 4215 028a 03F0E023 		and	r3, r3, #-536813568
 4216 028e D362     		str	r3, [r2, #44]
2189:Drivers/STM32L4xx_HAL_Driver/Src/stm32l4xx_hal_ltdc.c ****   LTDC_LAYER(hltdc, LayerIdx)->CFBLR  = (((pLayerCfg->ImageWidth * tmp) << 16U) | \
 4217              		.loc 1 2189 53
 4218 0290 BB68     		ldr	r3, [r7, #8]
 4219 0292 9B6A     		ldr	r3, [r3, #40]
 4220              		.loc 1 2189 66
 4221 0294 FA69     		ldr	r2, [r7, #28]
 4222 0296 02FB03F3 		mul	r3, r2, r3
 4223              		.loc 1 2189 73
 4224 029a 1A04     		lsls	r2, r3, #16
2190:Drivers/STM32L4xx_HAL_Driver/Src/stm32l4xx_hal_ltdc.c ****                                          (((pLayerCfg->WindowX1 - pLayerCfg->WindowX0) * tmp)  + 3U
 4225              		.loc 1 2190 54
 4226 029c BB68     		ldr	r3, [r7, #8]
 4227 029e 5968     		ldr	r1, [r3, #4]
 4228              		.loc 1 2190 76
 4229 02a0 BB68     		ldr	r3, [r7, #8]
 4230 02a2 1B68     		ldr	r3, [r3]
 4231              		.loc 1 2190 65
 4232 02a4 CB1A     		subs	r3, r1, r3
 4233              		.loc 1 2190 88
 4234 02a6 F969     		ldr	r1, [r7, #28]
 4235 02a8 01FB03F3 		mul	r3, r1, r3
 4236              		.loc 1 2190 96
 4237 02ac 0333     		adds	r3, r3, #3
2189:Drivers/STM32L4xx_HAL_Driver/Src/stm32l4xx_hal_ltdc.c ****   LTDC_LAYER(hltdc, LayerIdx)->CFBLR  = (((pLayerCfg->ImageWidth * tmp) << 16U) | \
 4238              		.loc 1 2189 3
 4239 02ae F968     		ldr	r1, [r7, #12]
 4240 02b0 0968     		ldr	r1, [r1]
 4241 02b2 0846     		mov	r0, r1
 4242 02b4 7968     		ldr	r1, [r7, #4]
 4243 02b6 C901     		lsls	r1, r1, #7
 4244 02b8 0144     		add	r1, r1, r0
 4245 02ba 8431     		adds	r1, r1, #132
2189:Drivers/STM32L4xx_HAL_Driver/Src/stm32l4xx_hal_ltdc.c ****   LTDC_LAYER(hltdc, LayerIdx)->CFBLR  = (((pLayerCfg->ImageWidth * tmp) << 16U) | \
 4246              		.loc 1 2189 81
 4247 02bc 1343     		orrs	r3, r3, r2
2189:Drivers/STM32L4xx_HAL_Driver/Src/stm32l4xx_hal_ltdc.c ****   LTDC_LAYER(hltdc, LayerIdx)->CFBLR  = (((pLayerCfg->ImageWidth * tmp) << 16U) | \
 4248              		.loc 1 2189 39
 4249 02be CB62     		str	r3, [r1, #44]
2191:Drivers/STM32L4xx_HAL_Driver/Src/stm32l4xx_hal_ltdc.c ****   /* Configure the frame buffer line number */
2192:Drivers/STM32L4xx_HAL_Driver/Src/stm32l4xx_hal_ltdc.c ****   LTDC_LAYER(hltdc, LayerIdx)->CFBLNR  &= ~(LTDC_LxCFBLNR_CFBLNBR);
 4250              		.loc 1 2192 3
 4251 02c0 FB68     		ldr	r3, [r7, #12]
ARM GAS  C:\Users\Morroway\AppData\Local\Temp\cclk5axT.s 			page 113


 4252 02c2 1B68     		ldr	r3, [r3]
 4253              		.loc 1 2192 40
 4254 02c4 1A46     		mov	r2, r3
 4255 02c6 7B68     		ldr	r3, [r7, #4]
 4256 02c8 DB01     		lsls	r3, r3, #7
 4257 02ca 1344     		add	r3, r3, r2
 4258 02cc 8433     		adds	r3, r3, #132
 4259 02ce 1B6B     		ldr	r3, [r3, #48]
 4260              		.loc 1 2192 3
 4261 02d0 FA68     		ldr	r2, [r7, #12]
 4262 02d2 1268     		ldr	r2, [r2]
 4263              		.loc 1 2192 40
 4264 02d4 1146     		mov	r1, r2
 4265 02d6 7A68     		ldr	r2, [r7, #4]
 4266 02d8 D201     		lsls	r2, r2, #7
 4267 02da 0A44     		add	r2, r2, r1
 4268 02dc 8432     		adds	r2, r2, #132
 4269 02de 23F4FF63 		bic	r3, r3, #2040
 4270 02e2 23F00703 		bic	r3, r3, #7
 4271 02e6 1363     		str	r3, [r2, #48]
2193:Drivers/STM32L4xx_HAL_Driver/Src/stm32l4xx_hal_ltdc.c ****   LTDC_LAYER(hltdc, LayerIdx)->CFBLNR  = (pLayerCfg->ImageHeight);
 4272              		.loc 1 2193 3
 4273 02e8 FB68     		ldr	r3, [r7, #12]
 4274 02ea 1B68     		ldr	r3, [r3]
 4275 02ec 1A46     		mov	r2, r3
 4276 02ee 7B68     		ldr	r3, [r7, #4]
 4277 02f0 DB01     		lsls	r3, r3, #7
 4278 02f2 1344     		add	r3, r3, r2
 4279 02f4 8433     		adds	r3, r3, #132
 4280 02f6 1A46     		mov	r2, r3
 4281              		.loc 1 2193 52
 4282 02f8 BB68     		ldr	r3, [r7, #8]
 4283 02fa DB6A     		ldr	r3, [r3, #44]
 4284              		.loc 1 2193 40
 4285 02fc 1363     		str	r3, [r2, #48]
2194:Drivers/STM32L4xx_HAL_Driver/Src/stm32l4xx_hal_ltdc.c **** 
2195:Drivers/STM32L4xx_HAL_Driver/Src/stm32l4xx_hal_ltdc.c ****   /* Enable LTDC_Layer by setting LEN bit */
2196:Drivers/STM32L4xx_HAL_Driver/Src/stm32l4xx_hal_ltdc.c ****   LTDC_LAYER(hltdc, LayerIdx)->CR |= (uint32_t)LTDC_LxCR_LEN;
 4286              		.loc 1 2196 3
 4287 02fe FB68     		ldr	r3, [r7, #12]
 4288 0300 1B68     		ldr	r3, [r3]
 4289              		.loc 1 2196 35
 4290 0302 1A46     		mov	r2, r3
 4291 0304 7B68     		ldr	r3, [r7, #4]
 4292 0306 DB01     		lsls	r3, r3, #7
 4293 0308 1344     		add	r3, r3, r2
 4294 030a 8433     		adds	r3, r3, #132
 4295 030c 1B68     		ldr	r3, [r3]
 4296              		.loc 1 2196 3
 4297 030e FA68     		ldr	r2, [r7, #12]
 4298 0310 1268     		ldr	r2, [r2]
 4299              		.loc 1 2196 35
 4300 0312 1146     		mov	r1, r2
 4301 0314 7A68     		ldr	r2, [r7, #4]
 4302 0316 D201     		lsls	r2, r2, #7
 4303 0318 0A44     		add	r2, r2, r1
 4304 031a 8432     		adds	r2, r2, #132
ARM GAS  C:\Users\Morroway\AppData\Local\Temp\cclk5axT.s 			page 114


 4305 031c 43F00103 		orr	r3, r3, #1
 4306 0320 1360     		str	r3, [r2]
2197:Drivers/STM32L4xx_HAL_Driver/Src/stm32l4xx_hal_ltdc.c **** }
 4307              		.loc 1 2197 1
 4308 0322 00BF     		nop
 4309 0324 2437     		adds	r7, r7, #36
 4310              		.cfi_def_cfa_offset 4
 4311 0326 BD46     		mov	sp, r7
 4312              		.cfi_def_cfa_register 13
 4313              		@ sp needed
 4314 0328 5DF8047B 		ldr	r7, [sp], #4
 4315              		.cfi_restore 7
 4316              		.cfi_def_cfa_offset 0
 4317 032c 7047     		bx	lr
 4318              		.cfi_endproc
 4319              	.LFE360:
 4321              		.text
 4322              	.Letext0:
 4323              		.file 2 "c:\\users\\morroway\\appdata\\roaming\\code\\user\\globalstorage\\bmd.stm32-for-vscode\\@
 4324              		.file 3 "c:\\users\\morroway\\appdata\\roaming\\code\\user\\globalstorage\\bmd.stm32-for-vscode\\@
 4325              		.file 4 "Drivers/CMSIS/Device/ST/STM32L4xx/Include/stm32l4p5xx.h"
 4326              		.file 5 "Drivers/STM32L4xx_HAL_Driver/Inc/stm32l4xx_hal_def.h"
 4327              		.file 6 "Drivers/STM32L4xx_HAL_Driver/Inc/stm32l4xx_hal_ltdc.h"
 4328              		.file 7 "Drivers/STM32L4xx_HAL_Driver/Inc/stm32l4xx_hal.h"
ARM GAS  C:\Users\Morroway\AppData\Local\Temp\cclk5axT.s 			page 115


DEFINED SYMBOLS
                            *ABS*:0000000000000000 stm32l4xx_hal_ltdc.c
C:\Users\Morroway\AppData\Local\Temp\cclk5axT.s:20     .text.HAL_LTDC_Init:0000000000000000 $t
C:\Users\Morroway\AppData\Local\Temp\cclk5axT.s:26     .text.HAL_LTDC_Init:0000000000000000 HAL_LTDC_Init
C:\Users\Morroway\AppData\Local\Temp\cclk5axT.s:455    .text.HAL_LTDC_MspInit:0000000000000000 HAL_LTDC_MspInit
C:\Users\Morroway\AppData\Local\Temp\cclk5axT.s:330    .text.HAL_LTDC_Init:0000000000000198 $d
C:\Users\Morroway\AppData\Local\Temp\cclk5axT.s:335    .text.HAL_LTDC_DeInit:0000000000000000 $t
C:\Users\Morroway\AppData\Local\Temp\cclk5axT.s:341    .text.HAL_LTDC_DeInit:0000000000000000 HAL_LTDC_DeInit
C:\Users\Morroway\AppData\Local\Temp\cclk5axT.s:491    .text.HAL_LTDC_MspDeInit:0000000000000000 HAL_LTDC_MspDeInit
C:\Users\Morroway\AppData\Local\Temp\cclk5axT.s:449    .text.HAL_LTDC_MspInit:0000000000000000 $t
C:\Users\Morroway\AppData\Local\Temp\cclk5axT.s:485    .text.HAL_LTDC_MspDeInit:0000000000000000 $t
C:\Users\Morroway\AppData\Local\Temp\cclk5axT.s:521    .text.HAL_LTDC_IRQHandler:0000000000000000 $t
C:\Users\Morroway\AppData\Local\Temp\cclk5axT.s:527    .text.HAL_LTDC_IRQHandler:0000000000000000 HAL_LTDC_IRQHandler
C:\Users\Morroway\AppData\Local\Temp\cclk5axT.s:732    .text.HAL_LTDC_ErrorCallback:0000000000000000 HAL_LTDC_ErrorCallback
C:\Users\Morroway\AppData\Local\Temp\cclk5axT.s:768    .text.HAL_LTDC_LineEventCallback:0000000000000000 HAL_LTDC_LineEventCallback
C:\Users\Morroway\AppData\Local\Temp\cclk5axT.s:804    .text.HAL_LTDC_ReloadEventCallback:0000000000000000 HAL_LTDC_ReloadEventCallback
C:\Users\Morroway\AppData\Local\Temp\cclk5axT.s:726    .text.HAL_LTDC_ErrorCallback:0000000000000000 $t
C:\Users\Morroway\AppData\Local\Temp\cclk5axT.s:762    .text.HAL_LTDC_LineEventCallback:0000000000000000 $t
C:\Users\Morroway\AppData\Local\Temp\cclk5axT.s:798    .text.HAL_LTDC_ReloadEventCallback:0000000000000000 $t
C:\Users\Morroway\AppData\Local\Temp\cclk5axT.s:834    .text.HAL_LTDC_ConfigLayer:0000000000000000 $t
C:\Users\Morroway\AppData\Local\Temp\cclk5axT.s:840    .text.HAL_LTDC_ConfigLayer:0000000000000000 HAL_LTDC_ConfigLayer
C:\Users\Morroway\AppData\Local\Temp\cclk5axT.s:3783   .text.LTDC_SetConfig:0000000000000000 LTDC_SetConfig
C:\Users\Morroway\AppData\Local\Temp\cclk5axT.s:928    .text.HAL_LTDC_ConfigColorKeying:0000000000000000 $t
C:\Users\Morroway\AppData\Local\Temp\cclk5axT.s:934    .text.HAL_LTDC_ConfigColorKeying:0000000000000000 HAL_LTDC_ConfigColorKeying
C:\Users\Morroway\AppData\Local\Temp\cclk5axT.s:1033   .text.HAL_LTDC_ConfigCLUT:0000000000000000 $t
C:\Users\Morroway\AppData\Local\Temp\cclk5axT.s:1039   .text.HAL_LTDC_ConfigCLUT:0000000000000000 HAL_LTDC_ConfigCLUT
C:\Users\Morroway\AppData\Local\Temp\cclk5axT.s:1203   .text.HAL_LTDC_EnableColorKeying:0000000000000000 $t
C:\Users\Morroway\AppData\Local\Temp\cclk5axT.s:1209   .text.HAL_LTDC_EnableColorKeying:0000000000000000 HAL_LTDC_EnableColorKeying
C:\Users\Morroway\AppData\Local\Temp\cclk5axT.s:1295   .text.HAL_LTDC_DisableColorKeying:0000000000000000 $t
C:\Users\Morroway\AppData\Local\Temp\cclk5axT.s:1301   .text.HAL_LTDC_DisableColorKeying:0000000000000000 HAL_LTDC_DisableColorKeying
C:\Users\Morroway\AppData\Local\Temp\cclk5axT.s:1387   .text.HAL_LTDC_EnableCLUT:0000000000000000 $t
C:\Users\Morroway\AppData\Local\Temp\cclk5axT.s:1393   .text.HAL_LTDC_EnableCLUT:0000000000000000 HAL_LTDC_EnableCLUT
C:\Users\Morroway\AppData\Local\Temp\cclk5axT.s:1479   .text.HAL_LTDC_DisableCLUT:0000000000000000 $t
C:\Users\Morroway\AppData\Local\Temp\cclk5axT.s:1485   .text.HAL_LTDC_DisableCLUT:0000000000000000 HAL_LTDC_DisableCLUT
C:\Users\Morroway\AppData\Local\Temp\cclk5axT.s:1571   .text.HAL_LTDC_EnableDither:0000000000000000 $t
C:\Users\Morroway\AppData\Local\Temp\cclk5axT.s:1577   .text.HAL_LTDC_EnableDither:0000000000000000 HAL_LTDC_EnableDither
C:\Users\Morroway\AppData\Local\Temp\cclk5axT.s:1640   .text.HAL_LTDC_EnableDither:0000000000000050 $d
C:\Users\Morroway\AppData\Local\Temp\cclk5axT.s:1645   .text.HAL_LTDC_DisableDither:0000000000000000 $t
C:\Users\Morroway\AppData\Local\Temp\cclk5axT.s:1651   .text.HAL_LTDC_DisableDither:0000000000000000 HAL_LTDC_DisableDither
C:\Users\Morroway\AppData\Local\Temp\cclk5axT.s:1714   .text.HAL_LTDC_DisableDither:0000000000000050 $d
C:\Users\Morroway\AppData\Local\Temp\cclk5axT.s:1719   .text.HAL_LTDC_SetWindowSize:0000000000000000 $t
C:\Users\Morroway\AppData\Local\Temp\cclk5axT.s:1725   .text.HAL_LTDC_SetWindowSize:0000000000000000 HAL_LTDC_SetWindowSize
C:\Users\Morroway\AppData\Local\Temp\cclk5axT.s:1828   .text.HAL_LTDC_SetWindowPosition:0000000000000000 $t
C:\Users\Morroway\AppData\Local\Temp\cclk5axT.s:1834   .text.HAL_LTDC_SetWindowPosition:0000000000000000 HAL_LTDC_SetWindowPosition
C:\Users\Morroway\AppData\Local\Temp\cclk5axT.s:1937   .text.HAL_LTDC_SetPixelFormat:0000000000000000 $t
C:\Users\Morroway\AppData\Local\Temp\cclk5axT.s:1943   .text.HAL_LTDC_SetPixelFormat:0000000000000000 HAL_LTDC_SetPixelFormat
C:\Users\Morroway\AppData\Local\Temp\cclk5axT.s:2023   .text.HAL_LTDC_SetAlpha:0000000000000000 $t
C:\Users\Morroway\AppData\Local\Temp\cclk5axT.s:2029   .text.HAL_LTDC_SetAlpha:0000000000000000 HAL_LTDC_SetAlpha
C:\Users\Morroway\AppData\Local\Temp\cclk5axT.s:2109   .text.HAL_LTDC_SetAddress:0000000000000000 $t
C:\Users\Morroway\AppData\Local\Temp\cclk5axT.s:2115   .text.HAL_LTDC_SetAddress:0000000000000000 HAL_LTDC_SetAddress
C:\Users\Morroway\AppData\Local\Temp\cclk5axT.s:2195   .text.HAL_LTDC_SetPitch:0000000000000000 $t
C:\Users\Morroway\AppData\Local\Temp\cclk5axT.s:2201   .text.HAL_LTDC_SetPitch:0000000000000000 HAL_LTDC_SetPitch
C:\Users\Morroway\AppData\Local\Temp\cclk5axT.s:2377   .text.HAL_LTDC_SetPitch:0000000000000108 $d
C:\Users\Morroway\AppData\Local\Temp\cclk5axT.s:2382   .text.HAL_LTDC_ProgramLineEvent:0000000000000000 $t
C:\Users\Morroway\AppData\Local\Temp\cclk5axT.s:2388   .text.HAL_LTDC_ProgramLineEvent:0000000000000000 HAL_LTDC_ProgramLineEvent
C:\Users\Morroway\AppData\Local\Temp\cclk5axT.s:2467   .text.HAL_LTDC_ProgramLineEvent:000000000000006c $d
C:\Users\Morroway\AppData\Local\Temp\cclk5axT.s:2472   .text.HAL_LTDC_Reload:0000000000000000 $t
ARM GAS  C:\Users\Morroway\AppData\Local\Temp\cclk5axT.s 			page 116


C:\Users\Morroway\AppData\Local\Temp\cclk5axT.s:2478   .text.HAL_LTDC_Reload:0000000000000000 HAL_LTDC_Reload
C:\Users\Morroway\AppData\Local\Temp\cclk5axT.s:2551   .text.HAL_LTDC_ConfigLayer_NoReload:0000000000000000 $t
C:\Users\Morroway\AppData\Local\Temp\cclk5axT.s:2557   .text.HAL_LTDC_ConfigLayer_NoReload:0000000000000000 HAL_LTDC_ConfigLayer_NoReload
C:\Users\Morroway\AppData\Local\Temp\cclk5axT.s:2639   .text.HAL_LTDC_SetWindowSize_NoReload:0000000000000000 $t
C:\Users\Morroway\AppData\Local\Temp\cclk5axT.s:2645   .text.HAL_LTDC_SetWindowSize_NoReload:0000000000000000 HAL_LTDC_SetWindowSize_NoReload
C:\Users\Morroway\AppData\Local\Temp\cclk5axT.s:2742   .text.HAL_LTDC_SetWindowPosition_NoReload:0000000000000000 $t
C:\Users\Morroway\AppData\Local\Temp\cclk5axT.s:2748   .text.HAL_LTDC_SetWindowPosition_NoReload:0000000000000000 HAL_LTDC_SetWindowPosition_NoReload
C:\Users\Morroway\AppData\Local\Temp\cclk5axT.s:2845   .text.HAL_LTDC_SetPixelFormat_NoReload:0000000000000000 $t
C:\Users\Morroway\AppData\Local\Temp\cclk5axT.s:2851   .text.HAL_LTDC_SetPixelFormat_NoReload:0000000000000000 HAL_LTDC_SetPixelFormat_NoReload
C:\Users\Morroway\AppData\Local\Temp\cclk5axT.s:2925   .text.HAL_LTDC_SetAlpha_NoReload:0000000000000000 $t
C:\Users\Morroway\AppData\Local\Temp\cclk5axT.s:2931   .text.HAL_LTDC_SetAlpha_NoReload:0000000000000000 HAL_LTDC_SetAlpha_NoReload
C:\Users\Morroway\AppData\Local\Temp\cclk5axT.s:3005   .text.HAL_LTDC_SetAddress_NoReload:0000000000000000 $t
C:\Users\Morroway\AppData\Local\Temp\cclk5axT.s:3011   .text.HAL_LTDC_SetAddress_NoReload:0000000000000000 HAL_LTDC_SetAddress_NoReload
C:\Users\Morroway\AppData\Local\Temp\cclk5axT.s:3085   .text.HAL_LTDC_SetPitch_NoReload:0000000000000000 $t
C:\Users\Morroway\AppData\Local\Temp\cclk5axT.s:3091   .text.HAL_LTDC_SetPitch_NoReload:0000000000000000 HAL_LTDC_SetPitch_NoReload
C:\Users\Morroway\AppData\Local\Temp\cclk5axT.s:3256   .text.HAL_LTDC_ConfigColorKeying_NoReload:0000000000000000 $t
C:\Users\Morroway\AppData\Local\Temp\cclk5axT.s:3262   .text.HAL_LTDC_ConfigColorKeying_NoReload:0000000000000000 HAL_LTDC_ConfigColorKeying_NoReload
C:\Users\Morroway\AppData\Local\Temp\cclk5axT.s:3355   .text.HAL_LTDC_EnableColorKeying_NoReload:0000000000000000 $t
C:\Users\Morroway\AppData\Local\Temp\cclk5axT.s:3361   .text.HAL_LTDC_EnableColorKeying_NoReload:0000000000000000 HAL_LTDC_EnableColorKeying_NoReload
C:\Users\Morroway\AppData\Local\Temp\cclk5axT.s:3441   .text.HAL_LTDC_DisableColorKeying_NoReload:0000000000000000 $t
C:\Users\Morroway\AppData\Local\Temp\cclk5axT.s:3447   .text.HAL_LTDC_DisableColorKeying_NoReload:0000000000000000 HAL_LTDC_DisableColorKeying_NoReload
C:\Users\Morroway\AppData\Local\Temp\cclk5axT.s:3527   .text.HAL_LTDC_EnableCLUT_NoReload:0000000000000000 $t
C:\Users\Morroway\AppData\Local\Temp\cclk5axT.s:3533   .text.HAL_LTDC_EnableCLUT_NoReload:0000000000000000 HAL_LTDC_EnableCLUT_NoReload
C:\Users\Morroway\AppData\Local\Temp\cclk5axT.s:3613   .text.HAL_LTDC_DisableCLUT_NoReload:0000000000000000 $t
C:\Users\Morroway\AppData\Local\Temp\cclk5axT.s:3619   .text.HAL_LTDC_DisableCLUT_NoReload:0000000000000000 HAL_LTDC_DisableCLUT_NoReload
C:\Users\Morroway\AppData\Local\Temp\cclk5axT.s:3699   .text.HAL_LTDC_GetState:0000000000000000 $t
C:\Users\Morroway\AppData\Local\Temp\cclk5axT.s:3705   .text.HAL_LTDC_GetState:0000000000000000 HAL_LTDC_GetState
C:\Users\Morroway\AppData\Local\Temp\cclk5axT.s:3739   .text.HAL_LTDC_GetError:0000000000000000 $t
C:\Users\Morroway\AppData\Local\Temp\cclk5axT.s:3745   .text.HAL_LTDC_GetError:0000000000000000 HAL_LTDC_GetError
C:\Users\Morroway\AppData\Local\Temp\cclk5axT.s:3778   .text.LTDC_SetConfig:0000000000000000 $t

UNDEFINED SYMBOLS
HAL_GetTick
