ARM GAS  C:\Users\Morroway\AppData\Local\Temp\ccOO6pGb.s 			page 1


   1              		.cpu cortex-m4
   2              		.arch armv7e-m
   3              		.fpu fpv4-sp-d16
   4              		.eabi_attribute 27, 1
   5              		.eabi_attribute 28, 1
   6              		.eabi_attribute 20, 1
   7              		.eabi_attribute 21, 1
   8              		.eabi_attribute 23, 3
   9              		.eabi_attribute 24, 1
  10              		.eabi_attribute 25, 1
  11              		.eabi_attribute 26, 1
  12              		.eabi_attribute 30, 1
  13              		.eabi_attribute 34, 1
  14              		.eabi_attribute 18, 4
  15              		.file	"TMC2208Stepper_DRVSTATUS.cpp"
  16              		.text
  17              	.Ltext0:
  18              		.cfi_sections	.debug_frame
  19              		.section	.text._ZN14TMC2208Stepper10DRV_STATUSEPm,"ax",%progbits
  20              		.align	1
  21              		.global	_ZN14TMC2208Stepper10DRV_STATUSEPm
  22              		.syntax unified
  23              		.thumb
  24              		.thumb_func
  26              	_ZN14TMC2208Stepper10DRV_STATUSEPm:
  27              		.fnstart
  28              	.LVL0:
  29              	.LFB137:
  30              		.file 1 "Core/Src/TMC2208Stepper_DRVSTATUS.cpp"
   1:Core/Src/TMC2208Stepper_DRVSTATUS.cpp **** #include "TMC2208Stepper.h"
   2:Core/Src/TMC2208Stepper_DRVSTATUS.cpp **** #include "TMC2208Stepper_MACROS.h"
   3:Core/Src/TMC2208Stepper_DRVSTATUS.cpp **** 
   4:Core/Src/TMC2208Stepper_DRVSTATUS.cpp **** bool TMC2208Stepper::DRV_STATUS(uint32_t *data) {
  31              		.loc 1 4 49 view -0
  32              		.cfi_startproc
  33              		@ args = 0, pretend = 0, frame = 0
  34              		@ frame_needed = 0, uses_anonymous_args = 0
  35              		.loc 1 4 49 is_stmt 0 view .LVU1
  36 0000 8446     		mov	ip, r0
   5:Core/Src/TMC2208Stepper_DRVSTATUS.cpp **** 	if (write_only) return 1;
  37              		.loc 1 5 2 is_stmt 1 view .LVU2
  38              		.loc 1 5 6 is_stmt 0 view .LVU3
  39 0002 90F84C00 		ldrb	r0, [r0, #76]	@ zero_extendqisi2
  40              	.LVL1:
  41              		.loc 1 5 2 view .LVU4
  42 0006 00B1     		cbz	r0, .L7
   6:Core/Src/TMC2208Stepper_DRVSTATUS.cpp **** 	bool b = sendDatagram(TMC2208_READ|REG_DRV_STATUS, data);
   7:Core/Src/TMC2208Stepper_DRVSTATUS.cpp **** 	return b;
   8:Core/Src/TMC2208Stepper_DRVSTATUS.cpp **** }
  43              		.loc 1 8 1 view .LVU5
  44 0008 7047     		bx	lr
  45              	.L7:
   4:Core/Src/TMC2208Stepper_DRVSTATUS.cpp **** 	if (write_only) return 1;
  46              		.loc 1 4 49 view .LVU6
  47 000a 08B5     		push	{r3, lr}
  48              		.save {r3, lr}
  49              		.cfi_def_cfa_offset 8
ARM GAS  C:\Users\Morroway\AppData\Local\Temp\ccOO6pGb.s 			page 2


  50              		.cfi_offset 3, -8
  51              		.cfi_offset 14, -4
   6:Core/Src/TMC2208Stepper_DRVSTATUS.cpp **** 	bool b = sendDatagram(TMC2208_READ|REG_DRV_STATUS, data);
  52              		.loc 1 6 2 is_stmt 1 view .LVU7
   6:Core/Src/TMC2208Stepper_DRVSTATUS.cpp **** 	bool b = sendDatagram(TMC2208_READ|REG_DRV_STATUS, data);
  53              		.loc 1 6 23 is_stmt 0 view .LVU8
  54 000c 0323     		movs	r3, #3
  55 000e 0A46     		mov	r2, r1
  56 0010 6F21     		movs	r1, #111
  57              	.LVL2:
   6:Core/Src/TMC2208Stepper_DRVSTATUS.cpp **** 	bool b = sendDatagram(TMC2208_READ|REG_DRV_STATUS, data);
  58              		.loc 1 6 23 view .LVU9
  59 0012 6046     		mov	r0, ip
  60 0014 FFF7FEFF 		bl	_ZN14TMC2208Stepper12sendDatagramEhPmh
  61              	.LVL3:
   7:Core/Src/TMC2208Stepper_DRVSTATUS.cpp **** }
  62              		.loc 1 7 2 is_stmt 1 view .LVU10
  63              		.loc 1 8 1 is_stmt 0 view .LVU11
  64 0018 08BD     		pop	{r3, pc}
  65              		.cfi_endproc
  66              	.LFE137:
  67              		.fnend
  69              		.section	.text._ZN14TMC2208Stepper10DRV_STATUSEv,"ax",%progbits
  70              		.align	1
  71              		.global	_ZN14TMC2208Stepper10DRV_STATUSEv
  72              		.syntax unified
  73              		.thumb
  74              		.thumb_func
  76              	_ZN14TMC2208Stepper10DRV_STATUSEv:
  77              		.fnstart
  78              	.LVL4:
  79              	.LFB138:
   9:Core/Src/TMC2208Stepper_DRVSTATUS.cpp **** uint32_t TMC2208Stepper::DRV_STATUS() {
  80              		.loc 1 9 39 is_stmt 1 view -0
  81              		.cfi_startproc
  82              		@ args = 0, pretend = 0, frame = 8
  83              		@ frame_needed = 0, uses_anonymous_args = 0
  84              		.loc 1 9 39 is_stmt 0 view .LVU13
  85 0000 00B5     		push	{lr}
  86              		.save {lr}
  87              		.cfi_def_cfa_offset 4
  88              		.cfi_offset 14, -4
  89              		.pad #12
  90 0002 83B0     		sub	sp, sp, #12
  91              		.cfi_def_cfa_offset 16
  10:Core/Src/TMC2208Stepper_DRVSTATUS.cpp **** 	uint32_t data = 0;
  92              		.loc 1 10 2 is_stmt 1 view .LVU14
  93              		.loc 1 10 11 is_stmt 0 view .LVU15
  94 0004 0023     		movs	r3, #0
  95 0006 0193     		str	r3, [sp, #4]
  11:Core/Src/TMC2208Stepper_DRVSTATUS.cpp **** 	DRV_STATUS(&data);
  96              		.loc 1 11 2 is_stmt 1 view .LVU16
  97              		.loc 1 11 12 is_stmt 0 view .LVU17
  98 0008 01A9     		add	r1, sp, #4
  99 000a FFF7FEFF 		bl	_ZN14TMC2208Stepper10DRV_STATUSEPm
 100              	.LVL5:
  12:Core/Src/TMC2208Stepper_DRVSTATUS.cpp **** 	return data;
ARM GAS  C:\Users\Morroway\AppData\Local\Temp\ccOO6pGb.s 			page 3


 101              		.loc 1 12 2 is_stmt 1 view .LVU18
  13:Core/Src/TMC2208Stepper_DRVSTATUS.cpp **** }
 102              		.loc 1 13 1 is_stmt 0 view .LVU19
 103 000e 0198     		ldr	r0, [sp, #4]
 104 0010 03B0     		add	sp, sp, #12
 105              		.cfi_def_cfa_offset 4
 106              		@ sp needed
 107 0012 5DF804FB 		ldr	pc, [sp], #4
 108              		.cfi_endproc
 109              	.LFE138:
 110              		.fnend
 112              		.section	.text._ZN14TMC2208Stepper4otpwEv,"ax",%progbits
 113              		.align	1
 114              		.global	_ZN14TMC2208Stepper4otpwEv
 115              		.syntax unified
 116              		.thumb
 117              		.thumb_func
 119              	_ZN14TMC2208Stepper4otpwEv:
 120              		.fnstart
 121              	.LVL6:
 122              	.LFB139:
  14:Core/Src/TMC2208Stepper_DRVSTATUS.cpp **** 
  15:Core/Src/TMC2208Stepper_DRVSTATUS.cpp **** bool 		TMC2208Stepper::otpw()		{ GET_BYTE_R(DRV_STATUS, OTPW); 	}
 123              		.loc 1 15 32 is_stmt 1 view -0
 124              		.cfi_startproc
 125              		@ args = 0, pretend = 0, frame = 0
 126              		@ frame_needed = 0, uses_anonymous_args = 0
 127              		.loc 1 15 32 is_stmt 0 view .LVU21
 128 0000 10B5     		push	{r4, lr}
 129              		.save {r4, lr}
 130              		.cfi_def_cfa_offset 8
 131              		.cfi_offset 4, -8
 132              		.cfi_offset 14, -4
 133 0002 0446     		mov	r4, r0
 134              		.loc 1 15 34 is_stmt 1 view .LVU22
 135 0004 00F14801 		add	r1, r0, #72
 136 0008 FFF7FEFF 		bl	_ZN14TMC2208Stepper10DRV_STATUSEPm
 137              	.LVL7:
 138              		.loc 1 15 34 view .LVU23
 139 000c A06C     		ldr	r0, [r4, #72]
 140              		.loc 1 15 62 view .LVU24
 141              		.loc 1 15 65 is_stmt 0 view .LVU25
 142 000e 00F00100 		and	r0, r0, #1
 143 0012 10BD     		pop	{r4, pc}
 144              		.loc 1 15 65 view .LVU26
 145              		.cfi_endproc
 146              	.LFE139:
 147              		.fnend
 149              		.section	.text._ZN14TMC2208Stepper2otEv,"ax",%progbits
 150              		.align	1
 151              		.global	_ZN14TMC2208Stepper2otEv
 152              		.syntax unified
 153              		.thumb
 154              		.thumb_func
 156              	_ZN14TMC2208Stepper2otEv:
 157              		.fnstart
 158              	.LVL8:
ARM GAS  C:\Users\Morroway\AppData\Local\Temp\ccOO6pGb.s 			page 4


 159              	.LFB140:
  16:Core/Src/TMC2208Stepper_DRVSTATUS.cpp **** bool 		TMC2208Stepper::ot() 		{ GET_BYTE_R(DRV_STATUS, OT); 	 	}
 160              		.loc 1 16 31 is_stmt 1 view -0
 161              		.cfi_startproc
 162              		@ args = 0, pretend = 0, frame = 0
 163              		@ frame_needed = 0, uses_anonymous_args = 0
 164              		.loc 1 16 31 is_stmt 0 view .LVU28
 165 0000 10B5     		push	{r4, lr}
 166              		.save {r4, lr}
 167              		.cfi_def_cfa_offset 8
 168              		.cfi_offset 4, -8
 169              		.cfi_offset 14, -4
 170 0002 0446     		mov	r4, r0
 171              		.loc 1 16 33 is_stmt 1 view .LVU29
 172 0004 00F14801 		add	r1, r0, #72
 173 0008 FFF7FEFF 		bl	_ZN14TMC2208Stepper10DRV_STATUSEPm
 174              	.LVL9:
 175              		.loc 1 16 33 view .LVU30
 176 000c A06C     		ldr	r0, [r4, #72]
 177              		.loc 1 16 59 view .LVU31
 178              		.loc 1 16 64 is_stmt 0 view .LVU32
 179 000e C0F34000 		ubfx	r0, r0, #1, #1
 180 0012 10BD     		pop	{r4, pc}
 181              		.loc 1 16 64 view .LVU33
 182              		.cfi_endproc
 183              	.LFE140:
 184              		.fnend
 186              		.section	.text._ZN14TMC2208Stepper4s2gaEv,"ax",%progbits
 187              		.align	1
 188              		.global	_ZN14TMC2208Stepper4s2gaEv
 189              		.syntax unified
 190              		.thumb
 191              		.thumb_func
 193              	_ZN14TMC2208Stepper4s2gaEv:
 194              		.fnstart
 195              	.LVL10:
 196              	.LFB141:
  17:Core/Src/TMC2208Stepper_DRVSTATUS.cpp **** bool 		TMC2208Stepper::s2ga() 		{ GET_BYTE_R(DRV_STATUS, S2GA); 	}
 197              		.loc 1 17 33 is_stmt 1 view -0
 198              		.cfi_startproc
 199              		@ args = 0, pretend = 0, frame = 0
 200              		@ frame_needed = 0, uses_anonymous_args = 0
 201              		.loc 1 17 33 is_stmt 0 view .LVU35
 202 0000 10B5     		push	{r4, lr}
 203              		.save {r4, lr}
 204              		.cfi_def_cfa_offset 8
 205              		.cfi_offset 4, -8
 206              		.cfi_offset 14, -4
 207 0002 0446     		mov	r4, r0
 208              		.loc 1 17 35 is_stmt 1 view .LVU36
 209 0004 00F14801 		add	r1, r0, #72
 210 0008 FFF7FEFF 		bl	_ZN14TMC2208Stepper10DRV_STATUSEPm
 211              	.LVL11:
 212              		.loc 1 17 35 view .LVU37
 213 000c A06C     		ldr	r0, [r4, #72]
 214              		.loc 1 17 63 view .LVU38
 215              		.loc 1 17 66 is_stmt 0 view .LVU39
ARM GAS  C:\Users\Morroway\AppData\Local\Temp\ccOO6pGb.s 			page 5


 216 000e C0F38000 		ubfx	r0, r0, #2, #1
 217 0012 10BD     		pop	{r4, pc}
 218              		.loc 1 17 66 view .LVU40
 219              		.cfi_endproc
 220              	.LFE141:
 221              		.fnend
 223              		.section	.text._ZN14TMC2208Stepper4s2gbEv,"ax",%progbits
 224              		.align	1
 225              		.global	_ZN14TMC2208Stepper4s2gbEv
 226              		.syntax unified
 227              		.thumb
 228              		.thumb_func
 230              	_ZN14TMC2208Stepper4s2gbEv:
 231              		.fnstart
 232              	.LVL12:
 233              	.LFB142:
  18:Core/Src/TMC2208Stepper_DRVSTATUS.cpp **** bool 		TMC2208Stepper::s2gb() 		{ GET_BYTE_R(DRV_STATUS, S2GB); 	}
 234              		.loc 1 18 33 is_stmt 1 view -0
 235              		.cfi_startproc
 236              		@ args = 0, pretend = 0, frame = 0
 237              		@ frame_needed = 0, uses_anonymous_args = 0
 238              		.loc 1 18 33 is_stmt 0 view .LVU42
 239 0000 10B5     		push	{r4, lr}
 240              		.save {r4, lr}
 241              		.cfi_def_cfa_offset 8
 242              		.cfi_offset 4, -8
 243              		.cfi_offset 14, -4
 244 0002 0446     		mov	r4, r0
 245              		.loc 1 18 35 is_stmt 1 view .LVU43
 246 0004 00F14801 		add	r1, r0, #72
 247 0008 FFF7FEFF 		bl	_ZN14TMC2208Stepper10DRV_STATUSEPm
 248              	.LVL13:
 249              		.loc 1 18 35 view .LVU44
 250 000c A06C     		ldr	r0, [r4, #72]
 251              		.loc 1 18 63 view .LVU45
 252              		.loc 1 18 66 is_stmt 0 view .LVU46
 253 000e C0F3C000 		ubfx	r0, r0, #3, #1
 254 0012 10BD     		pop	{r4, pc}
 255              		.loc 1 18 66 view .LVU47
 256              		.cfi_endproc
 257              	.LFE142:
 258              		.fnend
 260              		.section	.text._ZN14TMC2208Stepper5s2vsaEv,"ax",%progbits
 261              		.align	1
 262              		.global	_ZN14TMC2208Stepper5s2vsaEv
 263              		.syntax unified
 264              		.thumb
 265              		.thumb_func
 267              	_ZN14TMC2208Stepper5s2vsaEv:
 268              		.fnstart
 269              	.LVL14:
 270              	.LFB143:
  19:Core/Src/TMC2208Stepper_DRVSTATUS.cpp **** bool 		TMC2208Stepper::s2vsa() 	{ GET_BYTE_R(DRV_STATUS, S2VSA);	}
 271              		.loc 1 19 33 is_stmt 1 view -0
 272              		.cfi_startproc
 273              		@ args = 0, pretend = 0, frame = 0
 274              		@ frame_needed = 0, uses_anonymous_args = 0
ARM GAS  C:\Users\Morroway\AppData\Local\Temp\ccOO6pGb.s 			page 6


 275              		.loc 1 19 33 is_stmt 0 view .LVU49
 276 0000 10B5     		push	{r4, lr}
 277              		.save {r4, lr}
 278              		.cfi_def_cfa_offset 8
 279              		.cfi_offset 4, -8
 280              		.cfi_offset 14, -4
 281 0002 0446     		mov	r4, r0
 282              		.loc 1 19 35 is_stmt 1 view .LVU50
 283 0004 00F14801 		add	r1, r0, #72
 284 0008 FFF7FEFF 		bl	_ZN14TMC2208Stepper10DRV_STATUSEPm
 285              	.LVL15:
 286              		.loc 1 19 35 view .LVU51
 287 000c A06C     		ldr	r0, [r4, #72]
 288              		.loc 1 19 64 view .LVU52
 289              		.loc 1 19 66 is_stmt 0 view .LVU53
 290 000e C0F30010 		ubfx	r0, r0, #4, #1
 291 0012 10BD     		pop	{r4, pc}
 292              		.loc 1 19 66 view .LVU54
 293              		.cfi_endproc
 294              	.LFE143:
 295              		.fnend
 297              		.section	.text._ZN14TMC2208Stepper5s2vsbEv,"ax",%progbits
 298              		.align	1
 299              		.global	_ZN14TMC2208Stepper5s2vsbEv
 300              		.syntax unified
 301              		.thumb
 302              		.thumb_func
 304              	_ZN14TMC2208Stepper5s2vsbEv:
 305              		.fnstart
 306              	.LVL16:
 307              	.LFB144:
  20:Core/Src/TMC2208Stepper_DRVSTATUS.cpp **** bool 		TMC2208Stepper::s2vsb() 	{ GET_BYTE_R(DRV_STATUS, S2VSB);	}
 308              		.loc 1 20 33 is_stmt 1 view -0
 309              		.cfi_startproc
 310              		@ args = 0, pretend = 0, frame = 0
 311              		@ frame_needed = 0, uses_anonymous_args = 0
 312              		.loc 1 20 33 is_stmt 0 view .LVU56
 313 0000 10B5     		push	{r4, lr}
 314              		.save {r4, lr}
 315              		.cfi_def_cfa_offset 8
 316              		.cfi_offset 4, -8
 317              		.cfi_offset 14, -4
 318 0002 0446     		mov	r4, r0
 319              		.loc 1 20 35 is_stmt 1 view .LVU57
 320 0004 00F14801 		add	r1, r0, #72
 321 0008 FFF7FEFF 		bl	_ZN14TMC2208Stepper10DRV_STATUSEPm
 322              	.LVL17:
 323              		.loc 1 20 35 view .LVU58
 324 000c A06C     		ldr	r0, [r4, #72]
 325              		.loc 1 20 64 view .LVU59
 326              		.loc 1 20 66 is_stmt 0 view .LVU60
 327 000e C0F34010 		ubfx	r0, r0, #5, #1
 328 0012 10BD     		pop	{r4, pc}
 329              		.loc 1 20 66 view .LVU61
 330              		.cfi_endproc
 331              	.LFE144:
 332              		.fnend
ARM GAS  C:\Users\Morroway\AppData\Local\Temp\ccOO6pGb.s 			page 7


 334              		.section	.text._ZN14TMC2208Stepper3olaEv,"ax",%progbits
 335              		.align	1
 336              		.global	_ZN14TMC2208Stepper3olaEv
 337              		.syntax unified
 338              		.thumb
 339              		.thumb_func
 341              	_ZN14TMC2208Stepper3olaEv:
 342              		.fnstart
 343              	.LVL18:
 344              	.LFB145:
  21:Core/Src/TMC2208Stepper_DRVSTATUS.cpp **** bool 		TMC2208Stepper::ola() 		{ GET_BYTE_R(DRV_STATUS, OLA);  	}
 345              		.loc 1 21 32 is_stmt 1 view -0
 346              		.cfi_startproc
 347              		@ args = 0, pretend = 0, frame = 0
 348              		@ frame_needed = 0, uses_anonymous_args = 0
 349              		.loc 1 21 32 is_stmt 0 view .LVU63
 350 0000 10B5     		push	{r4, lr}
 351              		.save {r4, lr}
 352              		.cfi_def_cfa_offset 8
 353              		.cfi_offset 4, -8
 354              		.cfi_offset 14, -4
 355 0002 0446     		mov	r4, r0
 356              		.loc 1 21 34 is_stmt 1 view .LVU64
 357 0004 00F14801 		add	r1, r0, #72
 358 0008 FFF7FEFF 		bl	_ZN14TMC2208Stepper10DRV_STATUSEPm
 359              	.LVL19:
 360              		.loc 1 21 34 view .LVU65
 361 000c A06C     		ldr	r0, [r4, #72]
 362              		.loc 1 21 61 view .LVU66
 363              		.loc 1 21 65 is_stmt 0 view .LVU67
 364 000e C0F38010 		ubfx	r0, r0, #6, #1
 365 0012 10BD     		pop	{r4, pc}
 366              		.loc 1 21 65 view .LVU68
 367              		.cfi_endproc
 368              	.LFE145:
 369              		.fnend
 371              		.section	.text._ZN14TMC2208Stepper3olbEv,"ax",%progbits
 372              		.align	1
 373              		.global	_ZN14TMC2208Stepper3olbEv
 374              		.syntax unified
 375              		.thumb
 376              		.thumb_func
 378              	_ZN14TMC2208Stepper3olbEv:
 379              		.fnstart
 380              	.LVL20:
 381              	.LFB146:
  22:Core/Src/TMC2208Stepper_DRVSTATUS.cpp **** bool 		TMC2208Stepper::olb() 		{ GET_BYTE_R(DRV_STATUS, OLB);  	}
 382              		.loc 1 22 32 is_stmt 1 view -0
 383              		.cfi_startproc
 384              		@ args = 0, pretend = 0, frame = 0
 385              		@ frame_needed = 0, uses_anonymous_args = 0
 386              		.loc 1 22 32 is_stmt 0 view .LVU70
 387 0000 10B5     		push	{r4, lr}
 388              		.save {r4, lr}
 389              		.cfi_def_cfa_offset 8
 390              		.cfi_offset 4, -8
 391              		.cfi_offset 14, -4
ARM GAS  C:\Users\Morroway\AppData\Local\Temp\ccOO6pGb.s 			page 8


 392 0002 0446     		mov	r4, r0
 393              		.loc 1 22 34 is_stmt 1 view .LVU71
 394 0004 00F14801 		add	r1, r0, #72
 395 0008 FFF7FEFF 		bl	_ZN14TMC2208Stepper10DRV_STATUSEPm
 396              	.LVL21:
 397              		.loc 1 22 34 view .LVU72
 398 000c A06C     		ldr	r0, [r4, #72]
 399              		.loc 1 22 61 view .LVU73
 400              		.loc 1 22 65 is_stmt 0 view .LVU74
 401 000e C0F3C010 		ubfx	r0, r0, #7, #1
 402 0012 10BD     		pop	{r4, pc}
 403              		.loc 1 22 65 view .LVU75
 404              		.cfi_endproc
 405              	.LFE146:
 406              		.fnend
 408              		.section	.text._ZN14TMC2208Stepper4t120Ev,"ax",%progbits
 409              		.align	1
 410              		.global	_ZN14TMC2208Stepper4t120Ev
 411              		.syntax unified
 412              		.thumb
 413              		.thumb_func
 415              	_ZN14TMC2208Stepper4t120Ev:
 416              		.fnstart
 417              	.LVL22:
 418              	.LFB147:
  23:Core/Src/TMC2208Stepper_DRVSTATUS.cpp **** bool 		TMC2208Stepper::t120() 		{ GET_BYTE_R(DRV_STATUS, T120); 	}
 419              		.loc 1 23 33 is_stmt 1 view -0
 420              		.cfi_startproc
 421              		@ args = 0, pretend = 0, frame = 0
 422              		@ frame_needed = 0, uses_anonymous_args = 0
 423              		.loc 1 23 33 is_stmt 0 view .LVU77
 424 0000 10B5     		push	{r4, lr}
 425              		.save {r4, lr}
 426              		.cfi_def_cfa_offset 8
 427              		.cfi_offset 4, -8
 428              		.cfi_offset 14, -4
 429 0002 0446     		mov	r4, r0
 430              		.loc 1 23 35 is_stmt 1 view .LVU78
 431 0004 00F14801 		add	r1, r0, #72
 432 0008 FFF7FEFF 		bl	_ZN14TMC2208Stepper10DRV_STATUSEPm
 433              	.LVL23:
 434              		.loc 1 23 35 view .LVU79
 435 000c A06C     		ldr	r0, [r4, #72]
 436              		.loc 1 23 63 view .LVU80
 437              		.loc 1 23 66 is_stmt 0 view .LVU81
 438 000e C0F30020 		ubfx	r0, r0, #8, #1
 439 0012 10BD     		pop	{r4, pc}
 440              		.loc 1 23 66 view .LVU82
 441              		.cfi_endproc
 442              	.LFE147:
 443              		.fnend
 445              		.section	.text._ZN14TMC2208Stepper4t143Ev,"ax",%progbits
 446              		.align	1
 447              		.global	_ZN14TMC2208Stepper4t143Ev
 448              		.syntax unified
 449              		.thumb
 450              		.thumb_func
ARM GAS  C:\Users\Morroway\AppData\Local\Temp\ccOO6pGb.s 			page 9


 452              	_ZN14TMC2208Stepper4t143Ev:
 453              		.fnstart
 454              	.LVL24:
 455              	.LFB148:
  24:Core/Src/TMC2208Stepper_DRVSTATUS.cpp **** bool 		TMC2208Stepper::t143() 		{ GET_BYTE_R(DRV_STATUS, T143); 	}
 456              		.loc 1 24 33 is_stmt 1 view -0
 457              		.cfi_startproc
 458              		@ args = 0, pretend = 0, frame = 0
 459              		@ frame_needed = 0, uses_anonymous_args = 0
 460              		.loc 1 24 33 is_stmt 0 view .LVU84
 461 0000 10B5     		push	{r4, lr}
 462              		.save {r4, lr}
 463              		.cfi_def_cfa_offset 8
 464              		.cfi_offset 4, -8
 465              		.cfi_offset 14, -4
 466 0002 0446     		mov	r4, r0
 467              		.loc 1 24 35 is_stmt 1 view .LVU85
 468 0004 00F14801 		add	r1, r0, #72
 469 0008 FFF7FEFF 		bl	_ZN14TMC2208Stepper10DRV_STATUSEPm
 470              	.LVL25:
 471              		.loc 1 24 35 view .LVU86
 472 000c A06C     		ldr	r0, [r4, #72]
 473              		.loc 1 24 63 view .LVU87
 474              		.loc 1 24 66 is_stmt 0 view .LVU88
 475 000e C0F34020 		ubfx	r0, r0, #9, #1
 476 0012 10BD     		pop	{r4, pc}
 477              		.loc 1 24 66 view .LVU89
 478              		.cfi_endproc
 479              	.LFE148:
 480              		.fnend
 482              		.section	.text._ZN14TMC2208Stepper4t150Ev,"ax",%progbits
 483              		.align	1
 484              		.global	_ZN14TMC2208Stepper4t150Ev
 485              		.syntax unified
 486              		.thumb
 487              		.thumb_func
 489              	_ZN14TMC2208Stepper4t150Ev:
 490              		.fnstart
 491              	.LVL26:
 492              	.LFB149:
  25:Core/Src/TMC2208Stepper_DRVSTATUS.cpp **** bool 		TMC2208Stepper::t150() 		{ GET_BYTE_R(DRV_STATUS, T150); 	}
 493              		.loc 1 25 33 is_stmt 1 view -0
 494              		.cfi_startproc
 495              		@ args = 0, pretend = 0, frame = 0
 496              		@ frame_needed = 0, uses_anonymous_args = 0
 497              		.loc 1 25 33 is_stmt 0 view .LVU91
 498 0000 10B5     		push	{r4, lr}
 499              		.save {r4, lr}
 500              		.cfi_def_cfa_offset 8
 501              		.cfi_offset 4, -8
 502              		.cfi_offset 14, -4
 503 0002 0446     		mov	r4, r0
 504              		.loc 1 25 35 is_stmt 1 view .LVU92
 505 0004 00F14801 		add	r1, r0, #72
 506 0008 FFF7FEFF 		bl	_ZN14TMC2208Stepper10DRV_STATUSEPm
 507              	.LVL27:
 508              		.loc 1 25 35 view .LVU93
ARM GAS  C:\Users\Morroway\AppData\Local\Temp\ccOO6pGb.s 			page 10


 509 000c A06C     		ldr	r0, [r4, #72]
 510              		.loc 1 25 63 view .LVU94
 511              		.loc 1 25 66 is_stmt 0 view .LVU95
 512 000e C0F38020 		ubfx	r0, r0, #10, #1
 513 0012 10BD     		pop	{r4, pc}
 514              		.loc 1 25 66 view .LVU96
 515              		.cfi_endproc
 516              	.LFE149:
 517              		.fnend
 519              		.section	.text._ZN14TMC2208Stepper4t157Ev,"ax",%progbits
 520              		.align	1
 521              		.global	_ZN14TMC2208Stepper4t157Ev
 522              		.syntax unified
 523              		.thumb
 524              		.thumb_func
 526              	_ZN14TMC2208Stepper4t157Ev:
 527              		.fnstart
 528              	.LVL28:
 529              	.LFB150:
  26:Core/Src/TMC2208Stepper_DRVSTATUS.cpp **** bool 		TMC2208Stepper::t157() 		{ GET_BYTE_R(DRV_STATUS, T157); 	}
 530              		.loc 1 26 33 is_stmt 1 view -0
 531              		.cfi_startproc
 532              		@ args = 0, pretend = 0, frame = 0
 533              		@ frame_needed = 0, uses_anonymous_args = 0
 534              		.loc 1 26 33 is_stmt 0 view .LVU98
 535 0000 10B5     		push	{r4, lr}
 536              		.save {r4, lr}
 537              		.cfi_def_cfa_offset 8
 538              		.cfi_offset 4, -8
 539              		.cfi_offset 14, -4
 540 0002 0446     		mov	r4, r0
 541              		.loc 1 26 35 is_stmt 1 view .LVU99
 542 0004 00F14801 		add	r1, r0, #72
 543 0008 FFF7FEFF 		bl	_ZN14TMC2208Stepper10DRV_STATUSEPm
 544              	.LVL29:
 545              		.loc 1 26 35 view .LVU100
 546 000c A06C     		ldr	r0, [r4, #72]
 547              		.loc 1 26 63 view .LVU101
 548              		.loc 1 26 66 is_stmt 0 view .LVU102
 549 000e C0F3C020 		ubfx	r0, r0, #11, #1
 550 0012 10BD     		pop	{r4, pc}
 551              		.loc 1 26 66 view .LVU103
 552              		.cfi_endproc
 553              	.LFE150:
 554              		.fnend
 556              		.section	.text._ZN14TMC2208Stepper9cs_actualEv,"ax",%progbits
 557              		.align	1
 558              		.global	_ZN14TMC2208Stepper9cs_actualEv
 559              		.syntax unified
 560              		.thumb
 561              		.thumb_func
 563              	_ZN14TMC2208Stepper9cs_actualEv:
 564              		.fnstart
 565              	.LVL30:
 566              	.LFB151:
  27:Core/Src/TMC2208Stepper_DRVSTATUS.cpp **** uint16_t 	TMC2208Stepper::cs_actual()	{ GET_BYTE_R(DRV_STATUS, CS_ACTUAL);}
 567              		.loc 1 27 39 is_stmt 1 view -0
ARM GAS  C:\Users\Morroway\AppData\Local\Temp\ccOO6pGb.s 			page 11


 568              		.cfi_startproc
 569              		@ args = 0, pretend = 0, frame = 0
 570              		@ frame_needed = 0, uses_anonymous_args = 0
 571              		.loc 1 27 39 is_stmt 0 view .LVU105
 572 0000 10B5     		push	{r4, lr}
 573              		.save {r4, lr}
 574              		.cfi_def_cfa_offset 8
 575              		.cfi_offset 4, -8
 576              		.cfi_offset 14, -4
 577 0002 0446     		mov	r4, r0
 578              		.loc 1 27 41 is_stmt 1 view .LVU106
 579 0004 00F14801 		add	r1, r0, #72
 580 0008 FFF7FEFF 		bl	_ZN14TMC2208Stepper10DRV_STATUSEPm
 581              	.LVL31:
 582              		.loc 1 27 41 view .LVU107
 583 000c B4F84A00 		ldrh	r0, [r4, #74]
 584              		.loc 1 27 74 view .LVU108
 585              		.loc 1 27 75 is_stmt 0 view .LVU109
 586 0010 00F01F00 		and	r0, r0, #31
 587 0014 10BD     		pop	{r4, pc}
 588              		.loc 1 27 75 view .LVU110
 589              		.cfi_endproc
 590              	.LFE151:
 591              		.fnend
 593              		.section	.text._ZN14TMC2208Stepper7stealthEv,"ax",%progbits
 594              		.align	1
 595              		.global	_ZN14TMC2208Stepper7stealthEv
 596              		.syntax unified
 597              		.thumb
 598              		.thumb_func
 600              	_ZN14TMC2208Stepper7stealthEv:
 601              		.fnstart
 602              	.LVL32:
 603              	.LFB152:
  28:Core/Src/TMC2208Stepper_DRVSTATUS.cpp **** bool 		TMC2208Stepper::stealth() 	{ GET_BYTE_R(DRV_STATUS, STEALTH);	}
 604              		.loc 1 28 35 is_stmt 1 view -0
 605              		.cfi_startproc
 606              		@ args = 0, pretend = 0, frame = 0
 607              		@ frame_needed = 0, uses_anonymous_args = 0
 608              		.loc 1 28 35 is_stmt 0 view .LVU112
 609 0000 10B5     		push	{r4, lr}
 610              		.save {r4, lr}
 611              		.cfi_def_cfa_offset 8
 612              		.cfi_offset 4, -8
 613              		.cfi_offset 14, -4
 614 0002 0446     		mov	r4, r0
 615              		.loc 1 28 37 is_stmt 1 view .LVU113
 616 0004 00F14801 		add	r1, r0, #72
 617 0008 FFF7FEFF 		bl	_ZN14TMC2208Stepper10DRV_STATUSEPm
 618              	.LVL33:
 619              		.loc 1 28 37 view .LVU114
 620 000c A06C     		ldr	r0, [r4, #72]
 621              		.loc 1 28 68 view .LVU115
 622              		.loc 1 28 70 is_stmt 0 view .LVU116
 623 000e C0F38070 		ubfx	r0, r0, #30, #1
 624 0012 10BD     		pop	{r4, pc}
 625              		.loc 1 28 70 view .LVU117
ARM GAS  C:\Users\Morroway\AppData\Local\Temp\ccOO6pGb.s 			page 12


 626              		.cfi_endproc
 627              	.LFE152:
 628              		.fnend
 630              		.section	.text._ZN14TMC2208Stepper4ststEv,"ax",%progbits
 631              		.align	1
 632              		.global	_ZN14TMC2208Stepper4ststEv
 633              		.syntax unified
 634              		.thumb
 635              		.thumb_func
 637              	_ZN14TMC2208Stepper4ststEv:
 638              		.fnstart
 639              	.LVL34:
 640              	.LFB153:
  29:Core/Src/TMC2208Stepper_DRVSTATUS.cpp **** bool 		TMC2208Stepper::stst() 		{ GET_BYTE_R(DRV_STATUS, STST); 	}
 641              		.loc 1 29 33 is_stmt 1 view -0
 642              		.cfi_startproc
 643              		@ args = 0, pretend = 0, frame = 0
 644              		@ frame_needed = 0, uses_anonymous_args = 0
 645              		.loc 1 29 33 is_stmt 0 view .LVU119
 646 0000 10B5     		push	{r4, lr}
 647              		.save {r4, lr}
 648              		.cfi_def_cfa_offset 8
 649              		.cfi_offset 4, -8
 650              		.cfi_offset 14, -4
 651 0002 0446     		mov	r4, r0
 652              		.loc 1 29 35 is_stmt 1 view .LVU120
 653 0004 00F14801 		add	r1, r0, #72
 654 0008 FFF7FEFF 		bl	_ZN14TMC2208Stepper10DRV_STATUSEPm
 655              	.LVL35:
 656              		.loc 1 29 35 view .LVU121
 657 000c A06C     		ldr	r0, [r4, #72]
 658              		.loc 1 29 63 view .LVU122
 659              		.loc 1 29 66 is_stmt 0 view .LVU123
 660 000e C00F     		lsrs	r0, r0, #31
 661 0010 10BD     		pop	{r4, pc}
 662              		.loc 1 29 66 view .LVU124
 663              		.cfi_endproc
 664              	.LFE153:
 665              		.fnend
 667              		.text
 668              	.Letext0:
 669              		.file 2 "c:\\users\\morroway\\appdata\\roaming\\code\\user\\globalstorage\\bmd.stm32-for-vscode\\@
 670              		.file 3 "c:\\users\\morroway\\appdata\\roaming\\code\\user\\globalstorage\\bmd.stm32-for-vscode\\@
 671              		.file 4 "Drivers/CMSIS/Device/ST/STM32L4xx/Include/stm32l4p5xx.h"
 672              		.file 5 "Drivers/STM32L4xx_HAL_Driver/Inc/stm32l4xx_hal_def.h"
 673              		.file 6 "Drivers/STM32L4xx_HAL_Driver/Inc/stm32l4xx_hal_dma.h"
 674              		.file 7 "Drivers/STM32L4xx_HAL_Driver/Inc/stm32l4xx_hal_uart.h"
 675              		.file 8 "Core/Inc/TMC2208Stepper.h"
ARM GAS  C:\Users\Morroway\AppData\Local\Temp\ccOO6pGb.s 			page 13

