ARM GAS  C:\Users\Morroway\AppData\Local\Temp\cc27PKds.s 			page 1


   1              		.cpu cortex-m4
   2              		.arch armv7e-m
   3              		.fpu fpv4-sp-d16
   4              		.eabi_attribute 27, 1
   5              		.eabi_attribute 28, 1
   6              		.eabi_attribute 20, 1
   7              		.eabi_attribute 21, 1
   8              		.eabi_attribute 23, 3
   9              		.eabi_attribute 24, 1
  10              		.eabi_attribute 25, 1
  11              		.eabi_attribute 26, 1
  12              		.eabi_attribute 30, 1
  13              		.eabi_attribute 34, 1
  14              		.eabi_attribute 18, 4
  15              		.file	"TMC2208Stepper_PWMCONF.cpp"
  16              		.text
  17              	.Ltext0:
  18              		.cfi_sections	.debug_frame
  19              		.section	.text._ZN14TMC2208Stepper7PWMCONFEPm,"ax",%progbits
  20              		.align	1
  21              		.global	_ZN14TMC2208Stepper7PWMCONFEPm
  22              		.syntax unified
  23              		.thumb
  24              		.thumb_func
  26              	_ZN14TMC2208Stepper7PWMCONFEPm:
  27              		.fnstart
  28              	.LVL0:
  29              	.LFB137:
  30              		.file 1 "Core/Src/TMC2208Stepper_PWMCONF.cpp"
   1:Core/Src/TMC2208Stepper_PWMCONF.cpp **** #include "TMC2208Stepper.h"
   2:Core/Src/TMC2208Stepper_PWMCONF.cpp **** #include "TMC2208Stepper_MACROS.h"
   3:Core/Src/TMC2208Stepper_PWMCONF.cpp **** 
   4:Core/Src/TMC2208Stepper_PWMCONF.cpp **** // PWMCONF
   5:Core/Src/TMC2208Stepper_PWMCONF.cpp **** bool TMC2208Stepper::PWMCONF(uint32_t *data) {
  31              		.loc 1 5 46 view -0
  32              		.cfi_startproc
  33              		@ args = 0, pretend = 0, frame = 0
  34              		@ frame_needed = 0, uses_anonymous_args = 0
  35              		.loc 1 5 46 is_stmt 0 view .LVU1
  36 0000 38B5     		push	{r3, r4, r5, lr}
  37              		.save {r3, r4, r5, lr}
  38              		.cfi_def_cfa_offset 16
  39              		.cfi_offset 3, -16
  40              		.cfi_offset 4, -12
  41              		.cfi_offset 5, -8
  42              		.cfi_offset 14, -4
  43 0002 0446     		mov	r4, r0
  44 0004 0D46     		mov	r5, r1
   6:Core/Src/TMC2208Stepper_PWMCONF.cpp **** 	if (write_only) {
  45              		.loc 1 6 2 is_stmt 1 view .LVU2
  46              		.loc 1 6 6 is_stmt 0 view .LVU3
  47 0006 90F84C30 		ldrb	r3, [r0, #76]	@ zero_extendqisi2
  48              		.loc 1 6 2 view .LVU4
  49 000a 1BB1     		cbz	r3, .L2
   7:Core/Src/TMC2208Stepper_PWMCONF.cpp **** 		*data = PWMCONF_sr;
  50              		.loc 1 7 3 is_stmt 1 view .LVU5
  51              		.loc 1 7 11 is_stmt 0 view .LVU6
ARM GAS  C:\Users\Morroway\AppData\Local\Temp\cc27PKds.s 			page 2


  52 000c 436C     		ldr	r3, [r0, #68]
  53              		.loc 1 7 9 view .LVU7
  54 000e 0B60     		str	r3, [r1]
   8:Core/Src/TMC2208Stepper_PWMCONF.cpp **** 		return 0;
  55              		.loc 1 8 3 is_stmt 1 view .LVU8
  56              		.loc 1 8 10 is_stmt 0 view .LVU9
  57 0010 0020     		movs	r0, #0
  58              	.LVL1:
  59              	.L3:
   9:Core/Src/TMC2208Stepper_PWMCONF.cpp **** 	}
  10:Core/Src/TMC2208Stepper_PWMCONF.cpp **** 	REGISTER_R(PWMCONF);
  60              		.loc 1 10 21 is_stmt 1 discriminator 1 view .LVU10
  11:Core/Src/TMC2208Stepper_PWMCONF.cpp **** }
  61              		.loc 1 11 1 is_stmt 0 discriminator 1 view .LVU11
  62 0012 38BD     		pop	{r3, r4, r5, pc}
  63              	.LVL2:
  64              	.L2:
  10:Core/Src/TMC2208Stepper_PWMCONF.cpp **** }
  65              		.loc 1 10 2 is_stmt 1 view .LVU12
  66 0014 0323     		movs	r3, #3
  67 0016 0A46     		mov	r2, r1
  68 0018 7021     		movs	r1, #112
  69              	.LVL3:
  10:Core/Src/TMC2208Stepper_PWMCONF.cpp **** }
  70              		.loc 1 10 2 is_stmt 0 view .LVU13
  71 001a FFF7FEFF 		bl	_ZN14TMC2208Stepper12sendDatagramEhPmh
  72              	.LVL4:
  10:Core/Src/TMC2208Stepper_PWMCONF.cpp **** }
  73              		.loc 1 10 2 is_stmt 1 view .LVU14
  74 001e 2B68     		ldr	r3, [r5]
  75 0020 6364     		str	r3, [r4, #68]
  10:Core/Src/TMC2208Stepper_PWMCONF.cpp **** }
  76              		.loc 1 10 2 view .LVU15
  77 0022 F6E7     		b	.L3
  78              		.cfi_endproc
  79              	.LFE137:
  80              		.fnend
  82              		.section	.text._ZN14TMC2208Stepper7PWMCONFEm,"ax",%progbits
  83              		.align	1
  84              		.global	_ZN14TMC2208Stepper7PWMCONFEm
  85              		.syntax unified
  86              		.thumb
  87              		.thumb_func
  89              	_ZN14TMC2208Stepper7PWMCONFEm:
  90              		.fnstart
  91              	.LVL5:
  92              	.LFB138:
  12:Core/Src/TMC2208Stepper_PWMCONF.cpp **** void TMC2208Stepper::PWMCONF(uint32_t input) {
  93              		.loc 1 12 46 view -0
  94              		.cfi_startproc
  95              		@ args = 0, pretend = 0, frame = 0
  96              		@ frame_needed = 0, uses_anonymous_args = 0
  97              		.loc 1 12 46 is_stmt 0 view .LVU17
  98 0000 08B5     		push	{r3, lr}
  99              		.save {r3, lr}
 100              		.cfi_def_cfa_offset 8
 101              		.cfi_offset 3, -8
ARM GAS  C:\Users\Morroway\AppData\Local\Temp\cc27PKds.s 			page 3


 102              		.cfi_offset 14, -4
 103 0002 0A46     		mov	r2, r1
  13:Core/Src/TMC2208Stepper_PWMCONF.cpp **** 	PWMCONF_sr = input;
 104              		.loc 1 13 2 is_stmt 1 view .LVU18
 105              		.loc 1 13 13 is_stmt 0 view .LVU19
 106 0004 4164     		str	r1, [r0, #68]
  14:Core/Src/TMC2208Stepper_PWMCONF.cpp **** 	REGISTER_W(PWMCONF);
 107              		.loc 1 14 2 is_stmt 1 view .LVU20
 108 0006 0723     		movs	r3, #7
 109 0008 F021     		movs	r1, #240
 110              	.LVL6:
 111              		.loc 1 14 2 is_stmt 0 view .LVU21
 112 000a FFF7FEFF 		bl	_ZN14TMC2208Stepper12sendDatagramEhmh
 113              	.LVL7:
 114              		.loc 1 14 21 is_stmt 1 view .LVU22
  15:Core/Src/TMC2208Stepper_PWMCONF.cpp **** }
 115              		.loc 1 15 1 is_stmt 0 view .LVU23
 116 000e 08BD     		pop	{r3, pc}
 117              		.cfi_endproc
 118              	.LFE138:
 119              		.fnend
 121              		.section	.text._ZN14TMC2208Stepper7pwm_ofsEh,"ax",%progbits
 122              		.align	1
 123              		.global	_ZN14TMC2208Stepper7pwm_ofsEh
 124              		.syntax unified
 125              		.thumb
 126              		.thumb_func
 128              	_ZN14TMC2208Stepper7pwm_ofsEh:
 129              		.fnstart
 130              	.LVL8:
 131              	.LFB139:
  16:Core/Src/TMC2208Stepper_PWMCONF.cpp **** 
  17:Core/Src/TMC2208Stepper_PWMCONF.cpp **** void TMC2208Stepper::pwm_ofs		( uint8_t B ) { MOD_REG(PWMCONF, PWM_OFS); 		}
 132              		.loc 1 17 45 is_stmt 1 view -0
 133              		.cfi_startproc
 134              		@ args = 0, pretend = 0, frame = 0
 135              		@ frame_needed = 0, uses_anonymous_args = 0
 136              		.loc 1 17 45 is_stmt 0 view .LVU25
 137 0000 08B5     		push	{r3, lr}
 138              		.save {r3, lr}
 139              		.cfi_def_cfa_offset 8
 140              		.cfi_offset 3, -8
 141              		.cfi_offset 14, -4
 142              		.loc 1 17 47 is_stmt 1 view .LVU26
 143 0002 426C     		ldr	r2, [r0, #68]
 144 0004 22F0FF02 		bic	r2, r2, #255
 145 0008 4264     		str	r2, [r0, #68]
 146              		.loc 1 17 47 view .LVU27
 147 000a 0A43     		orrs	r2, r2, r1
 148 000c 4264     		str	r2, [r0, #68]
 149              		.loc 1 17 47 view .LVU28
 150 000e 0723     		movs	r3, #7
 151 0010 F021     		movs	r1, #240
 152              	.LVL9:
 153              		.loc 1 17 47 is_stmt 0 view .LVU29
 154 0012 FFF7FEFF 		bl	_ZN14TMC2208Stepper12sendDatagramEhmh
 155              	.LVL10:
ARM GAS  C:\Users\Morroway\AppData\Local\Temp\cc27PKds.s 			page 4


 156              		.loc 1 17 47 is_stmt 1 view .LVU30
 157              		.loc 1 17 72 view .LVU31
 158              		.loc 1 17 76 is_stmt 0 view .LVU32
 159 0016 08BD     		pop	{r3, pc}
 160              		.cfi_endproc
 161              	.LFE139:
 162              		.fnend
 164              		.section	.text._ZN14TMC2208Stepper8pwm_gradEh,"ax",%progbits
 165              		.align	1
 166              		.global	_ZN14TMC2208Stepper8pwm_gradEh
 167              		.syntax unified
 168              		.thumb
 169              		.thumb_func
 171              	_ZN14TMC2208Stepper8pwm_gradEh:
 172              		.fnstart
 173              	.LVL11:
 174              	.LFB140:
  18:Core/Src/TMC2208Stepper_PWMCONF.cpp **** void TMC2208Stepper::pwm_grad		( uint8_t B ) { MOD_REG(PWMCONF, PWM_GRAD); 	}
 175              		.loc 1 18 46 is_stmt 1 view -0
 176              		.cfi_startproc
 177              		@ args = 0, pretend = 0, frame = 0
 178              		@ frame_needed = 0, uses_anonymous_args = 0
 179              		.loc 1 18 46 is_stmt 0 view .LVU34
 180 0000 08B5     		push	{r3, lr}
 181              		.save {r3, lr}
 182              		.cfi_def_cfa_offset 8
 183              		.cfi_offset 3, -8
 184              		.cfi_offset 14, -4
 185              		.loc 1 18 48 is_stmt 1 view .LVU35
 186 0002 426C     		ldr	r2, [r0, #68]
 187 0004 22F47F42 		bic	r2, r2, #65280
 188 0008 4264     		str	r2, [r0, #68]
 189              		.loc 1 18 48 view .LVU36
 190 000a 42EA0122 		orr	r2, r2, r1, lsl #8
 191 000e 4264     		str	r2, [r0, #68]
 192              		.loc 1 18 48 view .LVU37
 193 0010 0723     		movs	r3, #7
 194 0012 F021     		movs	r1, #240
 195              	.LVL12:
 196              		.loc 1 18 48 is_stmt 0 view .LVU38
 197 0014 FFF7FEFF 		bl	_ZN14TMC2208Stepper12sendDatagramEhmh
 198              	.LVL13:
 199              		.loc 1 18 48 is_stmt 1 view .LVU39
 200              		.loc 1 18 74 view .LVU40
 201              		.loc 1 18 77 is_stmt 0 view .LVU41
 202 0018 08BD     		pop	{r3, pc}
 203              		.cfi_endproc
 204              	.LFE140:
 205              		.fnend
 207              		.section	.text._ZN14TMC2208Stepper8pwm_freqEh,"ax",%progbits
 208              		.align	1
 209              		.global	_ZN14TMC2208Stepper8pwm_freqEh
 210              		.syntax unified
 211              		.thumb
 212              		.thumb_func
 214              	_ZN14TMC2208Stepper8pwm_freqEh:
 215              		.fnstart
ARM GAS  C:\Users\Morroway\AppData\Local\Temp\cc27PKds.s 			page 5


 216              	.LVL14:
 217              	.LFB141:
  19:Core/Src/TMC2208Stepper_PWMCONF.cpp **** void TMC2208Stepper::pwm_freq		( uint8_t B ) { MOD_REG(PWMCONF, PWM_FREQ); 	}
 218              		.loc 1 19 46 is_stmt 1 view -0
 219              		.cfi_startproc
 220              		@ args = 0, pretend = 0, frame = 0
 221              		@ frame_needed = 0, uses_anonymous_args = 0
 222              		.loc 1 19 46 is_stmt 0 view .LVU43
 223 0000 08B5     		push	{r3, lr}
 224              		.save {r3, lr}
 225              		.cfi_def_cfa_offset 8
 226              		.cfi_offset 3, -8
 227              		.cfi_offset 14, -4
 228              		.loc 1 19 48 is_stmt 1 view .LVU44
 229 0002 426C     		ldr	r2, [r0, #68]
 230 0004 22F44032 		bic	r2, r2, #196608
 231 0008 4264     		str	r2, [r0, #68]
 232              		.loc 1 19 48 view .LVU45
 233 000a 0904     		lsls	r1, r1, #16
 234              	.LVL15:
 235              		.loc 1 19 48 is_stmt 0 view .LVU46
 236 000c 01F44031 		and	r1, r1, #196608
 237 0010 0A43     		orrs	r2, r2, r1
 238 0012 4264     		str	r2, [r0, #68]
 239              		.loc 1 19 48 is_stmt 1 view .LVU47
 240 0014 0723     		movs	r3, #7
 241 0016 F021     		movs	r1, #240
 242 0018 FFF7FEFF 		bl	_ZN14TMC2208Stepper12sendDatagramEhmh
 243              	.LVL16:
 244              		.loc 1 19 48 view .LVU48
 245              		.loc 1 19 74 view .LVU49
 246              		.loc 1 19 77 is_stmt 0 view .LVU50
 247 001c 08BD     		pop	{r3, pc}
 248              		.cfi_endproc
 249              	.LFE141:
 250              		.fnend
 252              		.section	.text._ZN14TMC2208Stepper13pwm_autoscaleEb,"ax",%progbits
 253              		.align	1
 254              		.global	_ZN14TMC2208Stepper13pwm_autoscaleEb
 255              		.syntax unified
 256              		.thumb
 257              		.thumb_func
 259              	_ZN14TMC2208Stepper13pwm_autoscaleEb:
 260              		.fnstart
 261              	.LVL17:
 262              	.LFB142:
  20:Core/Src/TMC2208Stepper_PWMCONF.cpp **** void TMC2208Stepper::pwm_autoscale	( bool 	  B ) { MOD_REG(PWMCONF, PWM_AUTOSCALE);}
 263              		.loc 1 20 50 is_stmt 1 view -0
 264              		.cfi_startproc
 265              		@ args = 0, pretend = 0, frame = 0
 266              		@ frame_needed = 0, uses_anonymous_args = 0
 267              		.loc 1 20 50 is_stmt 0 view .LVU52
 268 0000 08B5     		push	{r3, lr}
 269              		.save {r3, lr}
 270              		.cfi_def_cfa_offset 8
 271              		.cfi_offset 3, -8
 272              		.cfi_offset 14, -4
ARM GAS  C:\Users\Morroway\AppData\Local\Temp\cc27PKds.s 			page 6


 273              		.loc 1 20 52 is_stmt 1 view .LVU53
 274 0002 426C     		ldr	r2, [r0, #68]
 275 0004 22F48022 		bic	r2, r2, #262144
 276 0008 4264     		str	r2, [r0, #68]
 277              		.loc 1 20 52 view .LVU54
 278 000a 8904     		lsls	r1, r1, #18
 279              	.LVL18:
 280              		.loc 1 20 52 is_stmt 0 view .LVU55
 281 000c 01F48021 		and	r1, r1, #262144
 282 0010 0A43     		orrs	r2, r2, r1
 283 0012 4264     		str	r2, [r0, #68]
 284              		.loc 1 20 52 is_stmt 1 view .LVU56
 285 0014 0723     		movs	r3, #7
 286 0016 F021     		movs	r1, #240
 287 0018 FFF7FEFF 		bl	_ZN14TMC2208Stepper12sendDatagramEhmh
 288              	.LVL19:
 289              		.loc 1 20 52 view .LVU57
 290              		.loc 1 20 83 view .LVU58
 291              		.loc 1 20 84 is_stmt 0 view .LVU59
 292 001c 08BD     		pop	{r3, pc}
 293              		.cfi_endproc
 294              	.LFE142:
 295              		.fnend
 297              		.section	.text._ZN14TMC2208Stepper12pwm_autogradEb,"ax",%progbits
 298              		.align	1
 299              		.global	_ZN14TMC2208Stepper12pwm_autogradEb
 300              		.syntax unified
 301              		.thumb
 302              		.thumb_func
 304              	_ZN14TMC2208Stepper12pwm_autogradEb:
 305              		.fnstart
 306              	.LVL20:
 307              	.LFB143:
  21:Core/Src/TMC2208Stepper_PWMCONF.cpp **** void TMC2208Stepper::pwm_autograd	( bool    B ) { MOD_REG(PWMCONF, PWM_AUTOGRAD); }
 308              		.loc 1 21 49 is_stmt 1 view -0
 309              		.cfi_startproc
 310              		@ args = 0, pretend = 0, frame = 0
 311              		@ frame_needed = 0, uses_anonymous_args = 0
 312              		.loc 1 21 49 is_stmt 0 view .LVU61
 313 0000 08B5     		push	{r3, lr}
 314              		.save {r3, lr}
 315              		.cfi_def_cfa_offset 8
 316              		.cfi_offset 3, -8
 317              		.cfi_offset 14, -4
 318              		.loc 1 21 51 is_stmt 1 view .LVU62
 319 0002 426C     		ldr	r2, [r0, #68]
 320 0004 22F40022 		bic	r2, r2, #524288
 321 0008 4264     		str	r2, [r0, #68]
 322              		.loc 1 21 51 view .LVU63
 323 000a C904     		lsls	r1, r1, #19
 324              	.LVL21:
 325              		.loc 1 21 51 is_stmt 0 view .LVU64
 326 000c 01F40021 		and	r1, r1, #524288
 327 0010 0A43     		orrs	r2, r2, r1
 328 0012 4264     		str	r2, [r0, #68]
 329              		.loc 1 21 51 is_stmt 1 view .LVU65
 330 0014 0723     		movs	r3, #7
ARM GAS  C:\Users\Morroway\AppData\Local\Temp\cc27PKds.s 			page 7


 331 0016 F021     		movs	r1, #240
 332 0018 FFF7FEFF 		bl	_ZN14TMC2208Stepper12sendDatagramEhmh
 333              	.LVL22:
 334              		.loc 1 21 51 view .LVU66
 335              		.loc 1 21 81 view .LVU67
 336              		.loc 1 21 83 is_stmt 0 view .LVU68
 337 001c 08BD     		pop	{r3, pc}
 338              		.cfi_endproc
 339              	.LFE143:
 340              		.fnend
 342              		.section	.text._ZN14TMC2208Stepper9freewheelEh,"ax",%progbits
 343              		.align	1
 344              		.global	_ZN14TMC2208Stepper9freewheelEh
 345              		.syntax unified
 346              		.thumb
 347              		.thumb_func
 349              	_ZN14TMC2208Stepper9freewheelEh:
 350              		.fnstart
 351              	.LVL23:
 352              	.LFB144:
  22:Core/Src/TMC2208Stepper_PWMCONF.cpp **** void TMC2208Stepper::freewheel		( uint8_t B ) { MOD_REG(PWMCONF, FREEWHEEL); 	}
 353              		.loc 1 22 47 is_stmt 1 view -0
 354              		.cfi_startproc
 355              		@ args = 0, pretend = 0, frame = 0
 356              		@ frame_needed = 0, uses_anonymous_args = 0
 357              		.loc 1 22 47 is_stmt 0 view .LVU70
 358 0000 08B5     		push	{r3, lr}
 359              		.save {r3, lr}
 360              		.cfi_def_cfa_offset 8
 361              		.cfi_offset 3, -8
 362              		.cfi_offset 14, -4
 363              		.loc 1 22 49 is_stmt 1 view .LVU71
 364 0002 426C     		ldr	r2, [r0, #68]
 365 0004 22F44012 		bic	r2, r2, #3145728
 366 0008 4264     		str	r2, [r0, #68]
 367              		.loc 1 22 49 view .LVU72
 368 000a 0905     		lsls	r1, r1, #20
 369              	.LVL24:
 370              		.loc 1 22 49 is_stmt 0 view .LVU73
 371 000c 01F44011 		and	r1, r1, #3145728
 372 0010 0A43     		orrs	r2, r2, r1
 373 0012 4264     		str	r2, [r0, #68]
 374              		.loc 1 22 49 is_stmt 1 view .LVU74
 375 0014 0723     		movs	r3, #7
 376 0016 F021     		movs	r1, #240
 377 0018 FFF7FEFF 		bl	_ZN14TMC2208Stepper12sendDatagramEhmh
 378              	.LVL25:
 379              		.loc 1 22 49 view .LVU75
 380              		.loc 1 22 76 view .LVU76
 381              		.loc 1 22 79 is_stmt 0 view .LVU77
 382 001c 08BD     		pop	{r3, pc}
 383              		.cfi_endproc
 384              	.LFE144:
 385              		.fnend
 387              		.section	.text._ZN14TMC2208Stepper7pwm_regEh,"ax",%progbits
 388              		.align	1
 389              		.global	_ZN14TMC2208Stepper7pwm_regEh
ARM GAS  C:\Users\Morroway\AppData\Local\Temp\cc27PKds.s 			page 8


 390              		.syntax unified
 391              		.thumb
 392              		.thumb_func
 394              	_ZN14TMC2208Stepper7pwm_regEh:
 395              		.fnstart
 396              	.LVL26:
 397              	.LFB145:
  23:Core/Src/TMC2208Stepper_PWMCONF.cpp **** void TMC2208Stepper::pwm_reg		( uint8_t B ) { MOD_REG(PWMCONF, PWM_REG); 		}
 398              		.loc 1 23 45 is_stmt 1 view -0
 399              		.cfi_startproc
 400              		@ args = 0, pretend = 0, frame = 0
 401              		@ frame_needed = 0, uses_anonymous_args = 0
 402              		.loc 1 23 45 is_stmt 0 view .LVU79
 403 0000 08B5     		push	{r3, lr}
 404              		.save {r3, lr}
 405              		.cfi_def_cfa_offset 8
 406              		.cfi_offset 3, -8
 407              		.cfi_offset 14, -4
 408              		.loc 1 23 47 is_stmt 1 view .LVU80
 409 0002 426C     		ldr	r2, [r0, #68]
 410 0004 22F07062 		bic	r2, r2, #251658240
 411 0008 4264     		str	r2, [r0, #68]
 412              		.loc 1 23 47 view .LVU81
 413 000a 0906     		lsls	r1, r1, #24
 414              	.LVL27:
 415              		.loc 1 23 47 is_stmt 0 view .LVU82
 416 000c 01F07061 		and	r1, r1, #251658240
 417 0010 0A43     		orrs	r2, r2, r1
 418 0012 4264     		str	r2, [r0, #68]
 419              		.loc 1 23 47 is_stmt 1 view .LVU83
 420 0014 0723     		movs	r3, #7
 421 0016 F021     		movs	r1, #240
 422 0018 FFF7FEFF 		bl	_ZN14TMC2208Stepper12sendDatagramEhmh
 423              	.LVL28:
 424              		.loc 1 23 47 view .LVU84
 425              		.loc 1 23 72 view .LVU85
 426              		.loc 1 23 76 is_stmt 0 view .LVU86
 427 001c 08BD     		pop	{r3, pc}
 428              		.cfi_endproc
 429              	.LFE145:
 430              		.fnend
 432              		.section	.text._ZN14TMC2208Stepper7pwm_limEh,"ax",%progbits
 433              		.align	1
 434              		.global	_ZN14TMC2208Stepper7pwm_limEh
 435              		.syntax unified
 436              		.thumb
 437              		.thumb_func
 439              	_ZN14TMC2208Stepper7pwm_limEh:
 440              		.fnstart
 441              	.LVL29:
 442              	.LFB146:
  24:Core/Src/TMC2208Stepper_PWMCONF.cpp **** void TMC2208Stepper::pwm_lim		( uint8_t B ) { MOD_REG(PWMCONF, PWM_LIM); 		}
 443              		.loc 1 24 45 is_stmt 1 view -0
 444              		.cfi_startproc
 445              		@ args = 0, pretend = 0, frame = 0
 446              		@ frame_needed = 0, uses_anonymous_args = 0
 447              		.loc 1 24 45 is_stmt 0 view .LVU88
ARM GAS  C:\Users\Morroway\AppData\Local\Temp\cc27PKds.s 			page 9


 448 0000 08B5     		push	{r3, lr}
 449              		.save {r3, lr}
 450              		.cfi_def_cfa_offset 8
 451              		.cfi_offset 3, -8
 452              		.cfi_offset 14, -4
 453              		.loc 1 24 47 is_stmt 1 view .LVU89
 454 0002 426C     		ldr	r2, [r0, #68]
 455 0004 22F07042 		bic	r2, r2, #-268435456
 456 0008 4264     		str	r2, [r0, #68]
 457              		.loc 1 24 47 view .LVU90
 458 000a 42EA0172 		orr	r2, r2, r1, lsl #28
 459 000e 4264     		str	r2, [r0, #68]
 460              		.loc 1 24 47 view .LVU91
 461 0010 0723     		movs	r3, #7
 462 0012 F021     		movs	r1, #240
 463              	.LVL30:
 464              		.loc 1 24 47 is_stmt 0 view .LVU92
 465 0014 FFF7FEFF 		bl	_ZN14TMC2208Stepper12sendDatagramEhmh
 466              	.LVL31:
 467              		.loc 1 24 47 is_stmt 1 view .LVU93
 468              		.loc 1 24 72 view .LVU94
 469              		.loc 1 24 76 is_stmt 0 view .LVU95
 470 0018 08BD     		pop	{r3, pc}
 471              		.cfi_endproc
 472              	.LFE146:
 473              		.fnend
 475              		.section	.text._ZN14TMC2208Stepper7pwm_ofsEv,"ax",%progbits
 476              		.align	1
 477              		.global	_ZN14TMC2208Stepper7pwm_ofsEv
 478              		.syntax unified
 479              		.thumb
 480              		.thumb_func
 482              	_ZN14TMC2208Stepper7pwm_ofsEv:
 483              		.fnstart
 484              	.LVL32:
 485              	.LFB147:
  25:Core/Src/TMC2208Stepper_PWMCONF.cpp **** 
  26:Core/Src/TMC2208Stepper_PWMCONF.cpp **** uint8_t TMC2208Stepper::pwm_ofs()		{ GET_BYTE(PWMCONF, PWM_OFS);		}
 486              		.loc 1 26 36 is_stmt 1 view -0
 487              		.cfi_startproc
 488              		@ args = 0, pretend = 0, frame = 0
 489              		@ frame_needed = 0, uses_anonymous_args = 0
 490              		.loc 1 26 36 is_stmt 0 view .LVU97
 491 0000 10B5     		push	{r4, lr}
 492              		.save {r4, lr}
 493              		.cfi_def_cfa_offset 8
 494              		.cfi_offset 4, -8
 495              		.cfi_offset 14, -4
 496 0002 0446     		mov	r4, r0
 497              		.loc 1 26 38 is_stmt 1 view .LVU98
 498 0004 00F14401 		add	r1, r0, #68
 499 0008 FFF7FEFF 		bl	_ZN14TMC2208Stepper7PWMCONFEPm
 500              	.LVL33:
 501              		.loc 1 26 38 view .LVU99
 502              		.loc 1 26 64 view .LVU100
 503              		.loc 1 26 67 is_stmt 0 view .LVU101
 504 000c 94F84400 		ldrb	r0, [r4, #68]	@ zero_extendqisi2
ARM GAS  C:\Users\Morroway\AppData\Local\Temp\cc27PKds.s 			page 10


 505 0010 10BD     		pop	{r4, pc}
 506              		.loc 1 26 67 view .LVU102
 507              		.cfi_endproc
 508              	.LFE147:
 509              		.fnend
 511              		.section	.text._ZN14TMC2208Stepper8pwm_gradEv,"ax",%progbits
 512              		.align	1
 513              		.global	_ZN14TMC2208Stepper8pwm_gradEv
 514              		.syntax unified
 515              		.thumb
 516              		.thumb_func
 518              	_ZN14TMC2208Stepper8pwm_gradEv:
 519              		.fnstart
 520              	.LVL34:
 521              	.LFB148:
  27:Core/Src/TMC2208Stepper_PWMCONF.cpp **** uint8_t TMC2208Stepper::pwm_grad()		{ GET_BYTE(PWMCONF, PWM_GRAD);		}
 522              		.loc 1 27 37 is_stmt 1 view -0
 523              		.cfi_startproc
 524              		@ args = 0, pretend = 0, frame = 0
 525              		@ frame_needed = 0, uses_anonymous_args = 0
 526              		.loc 1 27 37 is_stmt 0 view .LVU104
 527 0000 10B5     		push	{r4, lr}
 528              		.save {r4, lr}
 529              		.cfi_def_cfa_offset 8
 530              		.cfi_offset 4, -8
 531              		.cfi_offset 14, -4
 532 0002 0446     		mov	r4, r0
 533              		.loc 1 27 39 is_stmt 1 view .LVU105
 534 0004 00F14401 		add	r1, r0, #68
 535 0008 FFF7FEFF 		bl	_ZN14TMC2208Stepper7PWMCONFEPm
 536              	.LVL35:
 537              		.loc 1 27 39 view .LVU106
 538              		.loc 1 27 66 view .LVU107
 539              		.loc 1 27 69 is_stmt 0 view .LVU108
 540 000c 94F84500 		ldrb	r0, [r4, #69]	@ zero_extendqisi2
 541 0010 10BD     		pop	{r4, pc}
 542              		.loc 1 27 69 view .LVU109
 543              		.cfi_endproc
 544              	.LFE148:
 545              		.fnend
 547              		.section	.text._ZN14TMC2208Stepper8pwm_freqEv,"ax",%progbits
 548              		.align	1
 549              		.global	_ZN14TMC2208Stepper8pwm_freqEv
 550              		.syntax unified
 551              		.thumb
 552              		.thumb_func
 554              	_ZN14TMC2208Stepper8pwm_freqEv:
 555              		.fnstart
 556              	.LVL36:
 557              	.LFB149:
  28:Core/Src/TMC2208Stepper_PWMCONF.cpp **** uint8_t TMC2208Stepper::pwm_freq()		{ GET_BYTE(PWMCONF, PWM_FREQ);		}
 558              		.loc 1 28 37 is_stmt 1 view -0
 559              		.cfi_startproc
 560              		@ args = 0, pretend = 0, frame = 0
 561              		@ frame_needed = 0, uses_anonymous_args = 0
 562              		.loc 1 28 37 is_stmt 0 view .LVU111
 563 0000 10B5     		push	{r4, lr}
ARM GAS  C:\Users\Morroway\AppData\Local\Temp\cc27PKds.s 			page 11


 564              		.save {r4, lr}
 565              		.cfi_def_cfa_offset 8
 566              		.cfi_offset 4, -8
 567              		.cfi_offset 14, -4
 568 0002 0446     		mov	r4, r0
 569              		.loc 1 28 39 is_stmt 1 view .LVU112
 570 0004 00F14401 		add	r1, r0, #68
 571 0008 FFF7FEFF 		bl	_ZN14TMC2208Stepper7PWMCONFEPm
 572              	.LVL37:
 573              		.loc 1 28 39 view .LVU113
 574 000c 94F84600 		ldrb	r0, [r4, #70]	@ zero_extendqisi2
 575              		.loc 1 28 66 view .LVU114
 576              		.loc 1 28 69 is_stmt 0 view .LVU115
 577 0010 00F00300 		and	r0, r0, #3
 578 0014 10BD     		pop	{r4, pc}
 579              		.loc 1 28 69 view .LVU116
 580              		.cfi_endproc
 581              	.LFE149:
 582              		.fnend
 584              		.section	.text._ZN14TMC2208Stepper13pwm_autoscaleEv,"ax",%progbits
 585              		.align	1
 586              		.global	_ZN14TMC2208Stepper13pwm_autoscaleEv
 587              		.syntax unified
 588              		.thumb
 589              		.thumb_func
 591              	_ZN14TMC2208Stepper13pwm_autoscaleEv:
 592              		.fnstart
 593              	.LVL38:
 594              	.LFB150:
  29:Core/Src/TMC2208Stepper_PWMCONF.cpp **** bool 	TMC2208Stepper::pwm_autoscale()	{ GET_BYTE(PWMCONF, PWM_AUTOSCALE);	}
 595              		.loc 1 29 39 is_stmt 1 view -0
 596              		.cfi_startproc
 597              		@ args = 0, pretend = 0, frame = 0
 598              		@ frame_needed = 0, uses_anonymous_args = 0
 599              		.loc 1 29 39 is_stmt 0 view .LVU118
 600 0000 10B5     		push	{r4, lr}
 601              		.save {r4, lr}
 602              		.cfi_def_cfa_offset 8
 603              		.cfi_offset 4, -8
 604              		.cfi_offset 14, -4
 605 0002 0446     		mov	r4, r0
 606              		.loc 1 29 41 is_stmt 1 view .LVU119
 607 0004 00F14401 		add	r1, r0, #68
 608 0008 FFF7FEFF 		bl	_ZN14TMC2208Stepper7PWMCONFEPm
 609              	.LVL39:
 610              		.loc 1 29 41 view .LVU120
 611 000c 606C     		ldr	r0, [r4, #68]
 612              		.loc 1 29 73 view .LVU121
 613              		.loc 1 29 75 is_stmt 0 view .LVU122
 614 000e C0F38040 		ubfx	r0, r0, #18, #1
 615 0012 10BD     		pop	{r4, pc}
 616              		.loc 1 29 75 view .LVU123
 617              		.cfi_endproc
 618              	.LFE150:
 619              		.fnend
 621              		.section	.text._ZN14TMC2208Stepper12pwm_autogradEv,"ax",%progbits
 622              		.align	1
ARM GAS  C:\Users\Morroway\AppData\Local\Temp\cc27PKds.s 			page 12


 623              		.global	_ZN14TMC2208Stepper12pwm_autogradEv
 624              		.syntax unified
 625              		.thumb
 626              		.thumb_func
 628              	_ZN14TMC2208Stepper12pwm_autogradEv:
 629              		.fnstart
 630              	.LVL40:
 631              	.LFB151:
  30:Core/Src/TMC2208Stepper_PWMCONF.cpp **** bool 	TMC2208Stepper::pwm_autograd()	{ GET_BYTE(PWMCONF, PWM_AUTOGRAD);	}
 632              		.loc 1 30 38 is_stmt 1 view -0
 633              		.cfi_startproc
 634              		@ args = 0, pretend = 0, frame = 0
 635              		@ frame_needed = 0, uses_anonymous_args = 0
 636              		.loc 1 30 38 is_stmt 0 view .LVU125
 637 0000 10B5     		push	{r4, lr}
 638              		.save {r4, lr}
 639              		.cfi_def_cfa_offset 8
 640              		.cfi_offset 4, -8
 641              		.cfi_offset 14, -4
 642 0002 0446     		mov	r4, r0
 643              		.loc 1 30 40 is_stmt 1 view .LVU126
 644 0004 00F14401 		add	r1, r0, #68
 645 0008 FFF7FEFF 		bl	_ZN14TMC2208Stepper7PWMCONFEPm
 646              	.LVL41:
 647              		.loc 1 30 40 view .LVU127
 648 000c 606C     		ldr	r0, [r4, #68]
 649              		.loc 1 30 71 view .LVU128
 650              		.loc 1 30 73 is_stmt 0 view .LVU129
 651 000e C0F3C040 		ubfx	r0, r0, #19, #1
 652 0012 10BD     		pop	{r4, pc}
 653              		.loc 1 30 73 view .LVU130
 654              		.cfi_endproc
 655              	.LFE151:
 656              		.fnend
 658              		.section	.text._ZN14TMC2208Stepper9freewheelEv,"ax",%progbits
 659              		.align	1
 660              		.global	_ZN14TMC2208Stepper9freewheelEv
 661              		.syntax unified
 662              		.thumb
 663              		.thumb_func
 665              	_ZN14TMC2208Stepper9freewheelEv:
 666              		.fnstart
 667              	.LVL42:
 668              	.LFB152:
  31:Core/Src/TMC2208Stepper_PWMCONF.cpp **** uint8_t TMC2208Stepper::freewheel()		{ GET_BYTE(PWMCONF, FREEWHEEL);		}
 669              		.loc 1 31 38 is_stmt 1 view -0
 670              		.cfi_startproc
 671              		@ args = 0, pretend = 0, frame = 0
 672              		@ frame_needed = 0, uses_anonymous_args = 0
 673              		.loc 1 31 38 is_stmt 0 view .LVU132
 674 0000 10B5     		push	{r4, lr}
 675              		.save {r4, lr}
 676              		.cfi_def_cfa_offset 8
 677              		.cfi_offset 4, -8
 678              		.cfi_offset 14, -4
 679 0002 0446     		mov	r4, r0
 680              		.loc 1 31 40 is_stmt 1 view .LVU133
ARM GAS  C:\Users\Morroway\AppData\Local\Temp\cc27PKds.s 			page 13


 681 0004 00F14401 		add	r1, r0, #68
 682 0008 FFF7FEFF 		bl	_ZN14TMC2208Stepper7PWMCONFEPm
 683              	.LVL43:
 684              		.loc 1 31 40 view .LVU134
 685 000c 606C     		ldr	r0, [r4, #68]
 686              		.loc 1 31 68 view .LVU135
 687              		.loc 1 31 71 is_stmt 0 view .LVU136
 688 000e C0F30150 		ubfx	r0, r0, #20, #2
 689 0012 10BD     		pop	{r4, pc}
 690              		.loc 1 31 71 view .LVU137
 691              		.cfi_endproc
 692              	.LFE152:
 693              		.fnend
 695              		.section	.text._ZN14TMC2208Stepper7pwm_regEv,"ax",%progbits
 696              		.align	1
 697              		.global	_ZN14TMC2208Stepper7pwm_regEv
 698              		.syntax unified
 699              		.thumb
 700              		.thumb_func
 702              	_ZN14TMC2208Stepper7pwm_regEv:
 703              		.fnstart
 704              	.LVL44:
 705              	.LFB153:
  32:Core/Src/TMC2208Stepper_PWMCONF.cpp **** uint8_t TMC2208Stepper::pwm_reg()		{ GET_BYTE(PWMCONF, PWM_REG);		}
 706              		.loc 1 32 36 is_stmt 1 view -0
 707              		.cfi_startproc
 708              		@ args = 0, pretend = 0, frame = 0
 709              		@ frame_needed = 0, uses_anonymous_args = 0
 710              		.loc 1 32 36 is_stmt 0 view .LVU139
 711 0000 10B5     		push	{r4, lr}
 712              		.save {r4, lr}
 713              		.cfi_def_cfa_offset 8
 714              		.cfi_offset 4, -8
 715              		.cfi_offset 14, -4
 716 0002 0446     		mov	r4, r0
 717              		.loc 1 32 38 is_stmt 1 view .LVU140
 718 0004 00F14401 		add	r1, r0, #68
 719 0008 FFF7FEFF 		bl	_ZN14TMC2208Stepper7PWMCONFEPm
 720              	.LVL45:
 721              		.loc 1 32 38 view .LVU141
 722 000c 94F84700 		ldrb	r0, [r4, #71]	@ zero_extendqisi2
 723              		.loc 1 32 64 view .LVU142
 724              		.loc 1 32 67 is_stmt 0 view .LVU143
 725 0010 00F00F00 		and	r0, r0, #15
 726 0014 10BD     		pop	{r4, pc}
 727              		.loc 1 32 67 view .LVU144
 728              		.cfi_endproc
 729              	.LFE153:
 730              		.fnend
 732              		.section	.text._ZN14TMC2208Stepper7pwm_limEv,"ax",%progbits
 733              		.align	1
 734              		.global	_ZN14TMC2208Stepper7pwm_limEv
 735              		.syntax unified
 736              		.thumb
 737              		.thumb_func
 739              	_ZN14TMC2208Stepper7pwm_limEv:
 740              		.fnstart
ARM GAS  C:\Users\Morroway\AppData\Local\Temp\cc27PKds.s 			page 14


 741              	.LVL46:
 742              	.LFB154:
  33:Core/Src/TMC2208Stepper_PWMCONF.cpp **** uint8_t TMC2208Stepper::pwm_lim()		{ GET_BYTE(PWMCONF, PWM_LIM);		}
 743              		.loc 1 33 36 is_stmt 1 view -0
 744              		.cfi_startproc
 745              		@ args = 0, pretend = 0, frame = 0
 746              		@ frame_needed = 0, uses_anonymous_args = 0
 747              		.loc 1 33 36 is_stmt 0 view .LVU146
 748 0000 10B5     		push	{r4, lr}
 749              		.save {r4, lr}
 750              		.cfi_def_cfa_offset 8
 751              		.cfi_offset 4, -8
 752              		.cfi_offset 14, -4
 753 0002 0446     		mov	r4, r0
 754              		.loc 1 33 38 is_stmt 1 view .LVU147
 755 0004 00F14401 		add	r1, r0, #68
 756 0008 FFF7FEFF 		bl	_ZN14TMC2208Stepper7PWMCONFEPm
 757              	.LVL47:
 758              		.loc 1 33 38 view .LVU148
 759 000c 606C     		ldr	r0, [r4, #68]
 760              		.loc 1 33 64 view .LVU149
 761              		.loc 1 33 67 is_stmt 0 view .LVU150
 762 000e 000F     		lsrs	r0, r0, #28
 763 0010 10BD     		pop	{r4, pc}
 764              		.loc 1 33 67 view .LVU151
 765              		.cfi_endproc
 766              	.LFE154:
 767              		.fnend
 769              		.text
 770              	.Letext0:
 771              		.file 2 "c:\\users\\morroway\\appdata\\roaming\\code\\user\\globalstorage\\bmd.stm32-for-vscode\\@
 772              		.file 3 "c:\\users\\morroway\\appdata\\roaming\\code\\user\\globalstorage\\bmd.stm32-for-vscode\\@
 773              		.file 4 "Drivers/CMSIS/Device/ST/STM32L4xx/Include/stm32l4p5xx.h"
 774              		.file 5 "Drivers/STM32L4xx_HAL_Driver/Inc/stm32l4xx_hal_def.h"
 775              		.file 6 "Drivers/STM32L4xx_HAL_Driver/Inc/stm32l4xx_hal_dma.h"
 776              		.file 7 "Drivers/STM32L4xx_HAL_Driver/Inc/stm32l4xx_hal_uart.h"
 777              		.file 8 "Core/Inc/TMC2208Stepper.h"
ARM GAS  C:\Users\Morroway\AppData\Local\Temp\cc27PKds.s 			page 15

