ARM GAS  C:\Users\Morroway\AppData\Local\Temp\ccKjJYc2.s 			page 1


   1              		.cpu cortex-m4
   2              		.arch armv7e-m
   3              		.fpu fpv4-sp-d16
   4              		.eabi_attribute 27, 1
   5              		.eabi_attribute 28, 1
   6              		.eabi_attribute 20, 1
   7              		.eabi_attribute 21, 1
   8              		.eabi_attribute 23, 3
   9              		.eabi_attribute 24, 1
  10              		.eabi_attribute 25, 1
  11              		.eabi_attribute 26, 1
  12              		.eabi_attribute 30, 6
  13              		.eabi_attribute 34, 1
  14              		.eabi_attribute 18, 4
  15              		.file	"vl53l0x_api_core.c"
  16              		.text
  17              	.Ltext0:
  18              		.cfi_sections	.debug_frame
  19              		.section	.text.VL53L0X_reverse_bytes,"ax",%progbits
  20              		.align	1
  21              		.global	VL53L0X_reverse_bytes
  22              		.syntax unified
  23              		.thumb
  24              		.thumb_func
  26              	VL53L0X_reverse_bytes:
  27              	.LFB324:
  28              		.file 1 "Drivers/VL53L0X/core/src/vl53l0x_api_core.c"
   1:Drivers/VL53L0X/core/src/vl53l0x_api_core.c **** /*******************************************************************************
   2:Drivers/VL53L0X/core/src/vl53l0x_api_core.c ****  Copyright © 2016, STMicroelectronics International N.V.
   3:Drivers/VL53L0X/core/src/vl53l0x_api_core.c ****  All rights reserved.
   4:Drivers/VL53L0X/core/src/vl53l0x_api_core.c **** 
   5:Drivers/VL53L0X/core/src/vl53l0x_api_core.c ****  Redistribution and use in source and binary forms, with or without
   6:Drivers/VL53L0X/core/src/vl53l0x_api_core.c ****  modification, are permitted provided that the following conditions are met:
   7:Drivers/VL53L0X/core/src/vl53l0x_api_core.c ****  * Redistributions of source code must retain the above copyright
   8:Drivers/VL53L0X/core/src/vl53l0x_api_core.c ****  notice, this list of conditions and the following disclaimer.
   9:Drivers/VL53L0X/core/src/vl53l0x_api_core.c ****  * Redistributions in binary form must reproduce the above copyright
  10:Drivers/VL53L0X/core/src/vl53l0x_api_core.c ****  notice, this list of conditions and the following disclaimer in the
  11:Drivers/VL53L0X/core/src/vl53l0x_api_core.c ****  documentation and/or other materials provided with the distribution.
  12:Drivers/VL53L0X/core/src/vl53l0x_api_core.c ****  * Neither the name of STMicroelectronics nor the
  13:Drivers/VL53L0X/core/src/vl53l0x_api_core.c ****  names of its contributors may be used to endorse or promote products
  14:Drivers/VL53L0X/core/src/vl53l0x_api_core.c ****  derived from this software without specific prior written permission.
  15:Drivers/VL53L0X/core/src/vl53l0x_api_core.c **** 
  16:Drivers/VL53L0X/core/src/vl53l0x_api_core.c ****  THIS SOFTWARE IS PROVIDED BY THE COPYRIGHT HOLDERS AND CONTRIBUTORS "AS IS" AND
  17:Drivers/VL53L0X/core/src/vl53l0x_api_core.c ****  ANY EXPRESS OR IMPLIED WARRANTIES, INCLUDING, BUT NOT LIMITED TO, THE IMPLIED
  18:Drivers/VL53L0X/core/src/vl53l0x_api_core.c ****  WARRANTIES OF MERCHANTABILITY, FITNESS FOR A PARTICULAR PURPOSE, AND
  19:Drivers/VL53L0X/core/src/vl53l0x_api_core.c ****  NON-INFRINGEMENT OF INTELLECTUAL PROPERTY RIGHTS ARE DISCLAIMED.
  20:Drivers/VL53L0X/core/src/vl53l0x_api_core.c ****  IN NO EVENT SHALL STMICROELECTRONICS INTERNATIONAL N.V. BE LIABLE FOR ANY
  21:Drivers/VL53L0X/core/src/vl53l0x_api_core.c ****  DIRECT, INDIRECT, INCIDENTAL, SPECIAL, EXEMPLARY, OR CONSEQUENTIAL DAMAGES
  22:Drivers/VL53L0X/core/src/vl53l0x_api_core.c ****  (INCLUDING, BUT NOT LIMITED TO, PROCUREMENT OF SUBSTITUTE GOODS OR SERVICES;
  23:Drivers/VL53L0X/core/src/vl53l0x_api_core.c ****  LOSS OF USE, DATA, OR PROFITS; OR BUSINESS INTERRUPTION) HOWEVER CAUSED AND
  24:Drivers/VL53L0X/core/src/vl53l0x_api_core.c ****  ON ANY THEORY OF LIABILITY, WHETHER IN CONTRACT, STRICT LIABILITY, OR TORT
  25:Drivers/VL53L0X/core/src/vl53l0x_api_core.c ****  (INCLUDING NEGLIGENCE OR OTHERWISE) ARISING IN ANY WAY OUT OF THE USE OF THIS
  26:Drivers/VL53L0X/core/src/vl53l0x_api_core.c ****  SOFTWARE, EVEN IF ADVISED OF THE POSSIBILITY OF SUCH DAMAGE.
  27:Drivers/VL53L0X/core/src/vl53l0x_api_core.c ****  ******************************************************************************/
  28:Drivers/VL53L0X/core/src/vl53l0x_api_core.c **** 
  29:Drivers/VL53L0X/core/src/vl53l0x_api_core.c **** #include "vl53l0x_api.h"
  30:Drivers/VL53L0X/core/src/vl53l0x_api_core.c **** #include "vl53l0x_api_core.h"
ARM GAS  C:\Users\Morroway\AppData\Local\Temp\ccKjJYc2.s 			page 2


  31:Drivers/VL53L0X/core/src/vl53l0x_api_core.c **** #include "vl53l0x_api_calibration.h"
  32:Drivers/VL53L0X/core/src/vl53l0x_api_core.c **** 
  33:Drivers/VL53L0X/core/src/vl53l0x_api_core.c **** 
  34:Drivers/VL53L0X/core/src/vl53l0x_api_core.c **** #ifndef __KERNEL__
  35:Drivers/VL53L0X/core/src/vl53l0x_api_core.c **** #include <stdlib.h>
  36:Drivers/VL53L0X/core/src/vl53l0x_api_core.c **** #endif
  37:Drivers/VL53L0X/core/src/vl53l0x_api_core.c **** #define LOG_FUNCTION_START(fmt, ...) \
  38:Drivers/VL53L0X/core/src/vl53l0x_api_core.c **** 	_LOG_FUNCTION_START(TRACE_MODULE_API, fmt, ##__VA_ARGS__)
  39:Drivers/VL53L0X/core/src/vl53l0x_api_core.c **** #define LOG_FUNCTION_END(status, ...) \
  40:Drivers/VL53L0X/core/src/vl53l0x_api_core.c **** 	_LOG_FUNCTION_END(TRACE_MODULE_API, status, ##__VA_ARGS__)
  41:Drivers/VL53L0X/core/src/vl53l0x_api_core.c **** #define LOG_FUNCTION_END_FMT(status, fmt, ...) \
  42:Drivers/VL53L0X/core/src/vl53l0x_api_core.c **** 	_LOG_FUNCTION_END_FMT(TRACE_MODULE_API, status, fmt, ##__VA_ARGS__)
  43:Drivers/VL53L0X/core/src/vl53l0x_api_core.c **** 
  44:Drivers/VL53L0X/core/src/vl53l0x_api_core.c **** VL53L0X_Error VL53L0X_reverse_bytes(uint8_t *data, uint32_t size)
  45:Drivers/VL53L0X/core/src/vl53l0x_api_core.c **** {
  29              		.loc 1 45 1
  30              		.cfi_startproc
  31              		@ args = 0, pretend = 0, frame = 32
  32              		@ frame_needed = 1, uses_anonymous_args = 0
  33              		@ link register save eliminated.
  34 0000 80B4     		push	{r7}
  35              		.cfi_def_cfa_offset 4
  36              		.cfi_offset 7, -4
  37 0002 89B0     		sub	sp, sp, #36
  38              		.cfi_def_cfa_offset 40
  39 0004 00AF     		add	r7, sp, #0
  40              		.cfi_def_cfa_register 7
  41 0006 7860     		str	r0, [r7, #4]
  42 0008 3960     		str	r1, [r7]
  46:Drivers/VL53L0X/core/src/vl53l0x_api_core.c **** 	VL53L0X_Error Status = VL53L0X_ERROR_NONE;
  43              		.loc 1 46 16
  44 000a 0023     		movs	r3, #0
  45 000c FB76     		strb	r3, [r7, #27]
  47:Drivers/VL53L0X/core/src/vl53l0x_api_core.c **** 	uint8_t tempData;
  48:Drivers/VL53L0X/core/src/vl53l0x_api_core.c **** 	uint32_t mirrorIndex;
  49:Drivers/VL53L0X/core/src/vl53l0x_api_core.c **** 	uint32_t middle = size/2;
  46              		.loc 1 49 11
  47 000e 3B68     		ldr	r3, [r7]
  48 0010 5B08     		lsrs	r3, r3, #1
  49 0012 7B61     		str	r3, [r7, #20]
  50:Drivers/VL53L0X/core/src/vl53l0x_api_core.c **** 	uint32_t index;
  51:Drivers/VL53L0X/core/src/vl53l0x_api_core.c **** 
  52:Drivers/VL53L0X/core/src/vl53l0x_api_core.c **** 	for (index = 0; index < middle; index++) {
  50              		.loc 1 52 13
  51 0014 0023     		movs	r3, #0
  52 0016 FB61     		str	r3, [r7, #28]
  53              		.loc 1 52 2
  54 0018 19E0     		b	.L2
  55              	.L3:
  53:Drivers/VL53L0X/core/src/vl53l0x_api_core.c **** 		mirrorIndex		 = size - index - 1;
  56              		.loc 1 53 24 discriminator 3
  57 001a 3A68     		ldr	r2, [r7]
  58 001c FB69     		ldr	r3, [r7, #28]
  59 001e D31A     		subs	r3, r2, r3
  60              		.loc 1 53 17 discriminator 3
  61 0020 013B     		subs	r3, r3, #1
  62 0022 3B61     		str	r3, [r7, #16]
ARM GAS  C:\Users\Morroway\AppData\Local\Temp\ccKjJYc2.s 			page 3


  54:Drivers/VL53L0X/core/src/vl53l0x_api_core.c **** 		tempData		 = data[index];
  63              		.loc 1 54 20 discriminator 3
  64 0024 7A68     		ldr	r2, [r7, #4]
  65 0026 FB69     		ldr	r3, [r7, #28]
  66 0028 1344     		add	r3, r3, r2
  67              		.loc 1 54 14 discriminator 3
  68 002a 1B78     		ldrb	r3, [r3]
  69 002c FB73     		strb	r3, [r7, #15]
  55:Drivers/VL53L0X/core/src/vl53l0x_api_core.c **** 		data[index]		 = data[mirrorIndex];
  70              		.loc 1 55 23 discriminator 3
  71 002e 7A68     		ldr	r2, [r7, #4]
  72 0030 3B69     		ldr	r3, [r7, #16]
  73 0032 1A44     		add	r2, r2, r3
  74              		.loc 1 55 7 discriminator 3
  75 0034 7968     		ldr	r1, [r7, #4]
  76 0036 FB69     		ldr	r3, [r7, #28]
  77 0038 0B44     		add	r3, r3, r1
  78              		.loc 1 55 23 discriminator 3
  79 003a 1278     		ldrb	r2, [r2]	@ zero_extendqisi2
  80              		.loc 1 55 17 discriminator 3
  81 003c 1A70     		strb	r2, [r3]
  56:Drivers/VL53L0X/core/src/vl53l0x_api_core.c **** 		data[mirrorIndex] = tempData;
  82              		.loc 1 56 7 discriminator 3
  83 003e 7A68     		ldr	r2, [r7, #4]
  84 0040 3B69     		ldr	r3, [r7, #16]
  85 0042 1344     		add	r3, r3, r2
  86              		.loc 1 56 21 discriminator 3
  87 0044 FA7B     		ldrb	r2, [r7, #15]
  88 0046 1A70     		strb	r2, [r3]
  52:Drivers/VL53L0X/core/src/vl53l0x_api_core.c **** 		mirrorIndex		 = size - index - 1;
  89              		.loc 1 52 39 discriminator 3
  90 0048 FB69     		ldr	r3, [r7, #28]
  91 004a 0133     		adds	r3, r3, #1
  92 004c FB61     		str	r3, [r7, #28]
  93              	.L2:
  52:Drivers/VL53L0X/core/src/vl53l0x_api_core.c **** 		mirrorIndex		 = size - index - 1;
  94              		.loc 1 52 24 discriminator 1
  95 004e FA69     		ldr	r2, [r7, #28]
  96 0050 7B69     		ldr	r3, [r7, #20]
  97 0052 9A42     		cmp	r2, r3
  98 0054 E1D3     		bcc	.L3
  57:Drivers/VL53L0X/core/src/vl53l0x_api_core.c **** 	}
  58:Drivers/VL53L0X/core/src/vl53l0x_api_core.c **** 	return Status;
  99              		.loc 1 58 9
 100 0056 97F91B30 		ldrsb	r3, [r7, #27]
  59:Drivers/VL53L0X/core/src/vl53l0x_api_core.c **** }
 101              		.loc 1 59 1
 102 005a 1846     		mov	r0, r3
 103 005c 2437     		adds	r7, r7, #36
 104              		.cfi_def_cfa_offset 4
 105 005e BD46     		mov	sp, r7
 106              		.cfi_def_cfa_register 13
 107              		@ sp needed
 108 0060 5DF8047B 		ldr	r7, [sp], #4
 109              		.cfi_restore 7
 110              		.cfi_def_cfa_offset 0
 111 0064 7047     		bx	lr
ARM GAS  C:\Users\Morroway\AppData\Local\Temp\ccKjJYc2.s 			page 4


 112              		.cfi_endproc
 113              	.LFE324:
 115              		.section	.text.VL53L0X_measurement_poll_for_completion,"ax",%progbits
 116              		.align	1
 117              		.global	VL53L0X_measurement_poll_for_completion
 118              		.syntax unified
 119              		.thumb
 120              		.thumb_func
 122              	VL53L0X_measurement_poll_for_completion:
 123              	.LFB325:
  60:Drivers/VL53L0X/core/src/vl53l0x_api_core.c **** 
  61:Drivers/VL53L0X/core/src/vl53l0x_api_core.c **** VL53L0X_Error VL53L0X_measurement_poll_for_completion(VL53L0X_DEV Dev)
  62:Drivers/VL53L0X/core/src/vl53l0x_api_core.c **** {
 124              		.loc 1 62 1
 125              		.cfi_startproc
 126              		@ args = 0, pretend = 0, frame = 24
 127              		@ frame_needed = 1, uses_anonymous_args = 0
 128 0000 80B5     		push	{r7, lr}
 129              		.cfi_def_cfa_offset 8
 130              		.cfi_offset 7, -8
 131              		.cfi_offset 14, -4
 132 0002 86B0     		sub	sp, sp, #24
 133              		.cfi_def_cfa_offset 32
 134 0004 00AF     		add	r7, sp, #0
 135              		.cfi_def_cfa_register 7
 136 0006 7860     		str	r0, [r7, #4]
  63:Drivers/VL53L0X/core/src/vl53l0x_api_core.c **** 	VL53L0X_Error Status = VL53L0X_ERROR_NONE;
 137              		.loc 1 63 16
 138 0008 0023     		movs	r3, #0
 139 000a FB75     		strb	r3, [r7, #23]
  64:Drivers/VL53L0X/core/src/vl53l0x_api_core.c **** 	uint8_t NewDataReady = 0;
 140              		.loc 1 64 10
 141 000c 0023     		movs	r3, #0
 142 000e FB73     		strb	r3, [r7, #15]
  65:Drivers/VL53L0X/core/src/vl53l0x_api_core.c **** 	uint32_t LoopNb;
  66:Drivers/VL53L0X/core/src/vl53l0x_api_core.c **** 
  67:Drivers/VL53L0X/core/src/vl53l0x_api_core.c **** 	LOG_FUNCTION_START("");
  68:Drivers/VL53L0X/core/src/vl53l0x_api_core.c **** 
  69:Drivers/VL53L0X/core/src/vl53l0x_api_core.c **** 	LoopNb = 0;
 143              		.loc 1 69 9
 144 0010 0023     		movs	r3, #0
 145 0012 3B61     		str	r3, [r7, #16]
 146              	.L10:
  70:Drivers/VL53L0X/core/src/vl53l0x_api_core.c **** 
  71:Drivers/VL53L0X/core/src/vl53l0x_api_core.c **** 	do {
  72:Drivers/VL53L0X/core/src/vl53l0x_api_core.c **** 		Status = VL53L0X_GetMeasurementDataReady(Dev, &NewDataReady);
 147              		.loc 1 72 12
 148 0014 07F10F03 		add	r3, r7, #15
 149 0018 1946     		mov	r1, r3
 150 001a 7868     		ldr	r0, [r7, #4]
 151 001c FFF7FEFF 		bl	VL53L0X_GetMeasurementDataReady
 152 0020 0346     		mov	r3, r0
 153 0022 FB75     		strb	r3, [r7, #23]
  73:Drivers/VL53L0X/core/src/vl53l0x_api_core.c **** 		if (Status != 0)
 154              		.loc 1 73 6
 155 0024 97F91730 		ldrsb	r3, [r7, #23]
 156 0028 002B     		cmp	r3, #0
ARM GAS  C:\Users\Morroway\AppData\Local\Temp\ccKjJYc2.s 			page 5


 157 002a 10D1     		bne	.L12
  74:Drivers/VL53L0X/core/src/vl53l0x_api_core.c **** 			break; /* the error is set */
  75:Drivers/VL53L0X/core/src/vl53l0x_api_core.c **** 
  76:Drivers/VL53L0X/core/src/vl53l0x_api_core.c **** 		if (NewDataReady == 1)
 158              		.loc 1 76 20
 159 002c FB7B     		ldrb	r3, [r7, #15]	@ zero_extendqisi2
 160              		.loc 1 76 6
 161 002e 012B     		cmp	r3, #1
 162 0030 0FD0     		beq	.L13
  77:Drivers/VL53L0X/core/src/vl53l0x_api_core.c **** 			break; /* done note that status == 0 */
  78:Drivers/VL53L0X/core/src/vl53l0x_api_core.c **** 
  79:Drivers/VL53L0X/core/src/vl53l0x_api_core.c **** 		LoopNb++;
 163              		.loc 1 79 9
 164 0032 3B69     		ldr	r3, [r7, #16]
 165 0034 0133     		adds	r3, r3, #1
 166 0036 3B61     		str	r3, [r7, #16]
  80:Drivers/VL53L0X/core/src/vl53l0x_api_core.c **** 		if (LoopNb >= VL53L0X_DEFAULT_MAX_LOOP) {
 167              		.loc 1 80 6
 168 0038 3B69     		ldr	r3, [r7, #16]
 169 003a B3F5FA6F 		cmp	r3, #2000
 170 003e 02D3     		bcc	.L9
  81:Drivers/VL53L0X/core/src/vl53l0x_api_core.c **** 			Status = VL53L0X_ERROR_TIME_OUT;
 171              		.loc 1 81 11
 172 0040 F923     		movs	r3, #249
 173 0042 FB75     		strb	r3, [r7, #23]
  82:Drivers/VL53L0X/core/src/vl53l0x_api_core.c **** 			break;
 174              		.loc 1 82 4
 175 0044 06E0     		b	.L7
 176              	.L9:
  83:Drivers/VL53L0X/core/src/vl53l0x_api_core.c **** 		}
  84:Drivers/VL53L0X/core/src/vl53l0x_api_core.c **** 
  85:Drivers/VL53L0X/core/src/vl53l0x_api_core.c **** 		VL53L0X_PollingDelay(Dev);
 177              		.loc 1 85 3
 178 0046 7868     		ldr	r0, [r7, #4]
 179 0048 FFF7FEFF 		bl	VL53L0X_PollingDelay
  72:Drivers/VL53L0X/core/src/vl53l0x_api_core.c **** 		if (Status != 0)
 180              		.loc 1 72 10
 181 004c E2E7     		b	.L10
 182              	.L12:
  74:Drivers/VL53L0X/core/src/vl53l0x_api_core.c **** 
 183              		.loc 1 74 4
 184 004e 00BF     		nop
 185 0050 00E0     		b	.L7
 186              	.L13:
  77:Drivers/VL53L0X/core/src/vl53l0x_api_core.c **** 
 187              		.loc 1 77 4
 188 0052 00BF     		nop
 189              	.L7:
  86:Drivers/VL53L0X/core/src/vl53l0x_api_core.c **** 	} while (1);
  87:Drivers/VL53L0X/core/src/vl53l0x_api_core.c **** 
  88:Drivers/VL53L0X/core/src/vl53l0x_api_core.c **** 	LOG_FUNCTION_END(Status);
  89:Drivers/VL53L0X/core/src/vl53l0x_api_core.c **** 
  90:Drivers/VL53L0X/core/src/vl53l0x_api_core.c **** 	return Status;
 190              		.loc 1 90 9
 191 0054 97F91730 		ldrsb	r3, [r7, #23]
  91:Drivers/VL53L0X/core/src/vl53l0x_api_core.c **** }
 192              		.loc 1 91 1
ARM GAS  C:\Users\Morroway\AppData\Local\Temp\ccKjJYc2.s 			page 6


 193 0058 1846     		mov	r0, r3
 194 005a 1837     		adds	r7, r7, #24
 195              		.cfi_def_cfa_offset 8
 196 005c BD46     		mov	sp, r7
 197              		.cfi_def_cfa_register 13
 198              		@ sp needed
 199 005e 80BD     		pop	{r7, pc}
 200              		.cfi_endproc
 201              	.LFE325:
 203              		.section	.text.VL53L0X_decode_vcsel_period,"ax",%progbits
 204              		.align	1
 205              		.global	VL53L0X_decode_vcsel_period
 206              		.syntax unified
 207              		.thumb
 208              		.thumb_func
 210              	VL53L0X_decode_vcsel_period:
 211              	.LFB326:
  92:Drivers/VL53L0X/core/src/vl53l0x_api_core.c **** 
  93:Drivers/VL53L0X/core/src/vl53l0x_api_core.c **** 
  94:Drivers/VL53L0X/core/src/vl53l0x_api_core.c **** uint8_t VL53L0X_decode_vcsel_period(uint8_t vcsel_period_reg)
  95:Drivers/VL53L0X/core/src/vl53l0x_api_core.c **** {
 212              		.loc 1 95 1
 213              		.cfi_startproc
 214              		@ args = 0, pretend = 0, frame = 16
 215              		@ frame_needed = 1, uses_anonymous_args = 0
 216              		@ link register save eliminated.
 217 0000 80B4     		push	{r7}
 218              		.cfi_def_cfa_offset 4
 219              		.cfi_offset 7, -4
 220 0002 85B0     		sub	sp, sp, #20
 221              		.cfi_def_cfa_offset 24
 222 0004 00AF     		add	r7, sp, #0
 223              		.cfi_def_cfa_register 7
 224 0006 0346     		mov	r3, r0
 225 0008 FB71     		strb	r3, [r7, #7]
  96:Drivers/VL53L0X/core/src/vl53l0x_api_core.c **** 	/*!
  97:Drivers/VL53L0X/core/src/vl53l0x_api_core.c **** 	 * Converts the encoded VCSEL period register value into the real
  98:Drivers/VL53L0X/core/src/vl53l0x_api_core.c **** 	 * period in PLL clocks
  99:Drivers/VL53L0X/core/src/vl53l0x_api_core.c **** 	 */
 100:Drivers/VL53L0X/core/src/vl53l0x_api_core.c **** 
 101:Drivers/VL53L0X/core/src/vl53l0x_api_core.c **** 	uint8_t vcsel_period_pclks = 0;
 226              		.loc 1 101 10
 227 000a 0023     		movs	r3, #0
 228 000c FB73     		strb	r3, [r7, #15]
 102:Drivers/VL53L0X/core/src/vl53l0x_api_core.c **** 
 103:Drivers/VL53L0X/core/src/vl53l0x_api_core.c **** 	vcsel_period_pclks = (vcsel_period_reg + 1) << 1;
 229              		.loc 1 103 41
 230 000e FB79     		ldrb	r3, [r7, #7]
 231 0010 0133     		adds	r3, r3, #1
 232 0012 DBB2     		uxtb	r3, r3
 233              		.loc 1 103 21
 234 0014 5B00     		lsls	r3, r3, #1
 235 0016 FB73     		strb	r3, [r7, #15]
 104:Drivers/VL53L0X/core/src/vl53l0x_api_core.c **** 
 105:Drivers/VL53L0X/core/src/vl53l0x_api_core.c **** 	return vcsel_period_pclks;
 236              		.loc 1 105 9
 237 0018 FB7B     		ldrb	r3, [r7, #15]	@ zero_extendqisi2
ARM GAS  C:\Users\Morroway\AppData\Local\Temp\ccKjJYc2.s 			page 7


 106:Drivers/VL53L0X/core/src/vl53l0x_api_core.c **** }
 238              		.loc 1 106 1
 239 001a 1846     		mov	r0, r3
 240 001c 1437     		adds	r7, r7, #20
 241              		.cfi_def_cfa_offset 4
 242 001e BD46     		mov	sp, r7
 243              		.cfi_def_cfa_register 13
 244              		@ sp needed
 245 0020 5DF8047B 		ldr	r7, [sp], #4
 246              		.cfi_restore 7
 247              		.cfi_def_cfa_offset 0
 248 0024 7047     		bx	lr
 249              		.cfi_endproc
 250              	.LFE326:
 252              		.section	.text.VL53L0X_encode_vcsel_period,"ax",%progbits
 253              		.align	1
 254              		.global	VL53L0X_encode_vcsel_period
 255              		.syntax unified
 256              		.thumb
 257              		.thumb_func
 259              	VL53L0X_encode_vcsel_period:
 260              	.LFB327:
 107:Drivers/VL53L0X/core/src/vl53l0x_api_core.c **** 
 108:Drivers/VL53L0X/core/src/vl53l0x_api_core.c **** uint8_t VL53L0X_encode_vcsel_period(uint8_t vcsel_period_pclks)
 109:Drivers/VL53L0X/core/src/vl53l0x_api_core.c **** {
 261              		.loc 1 109 1
 262              		.cfi_startproc
 263              		@ args = 0, pretend = 0, frame = 16
 264              		@ frame_needed = 1, uses_anonymous_args = 0
 265              		@ link register save eliminated.
 266 0000 80B4     		push	{r7}
 267              		.cfi_def_cfa_offset 4
 268              		.cfi_offset 7, -4
 269 0002 85B0     		sub	sp, sp, #20
 270              		.cfi_def_cfa_offset 24
 271 0004 00AF     		add	r7, sp, #0
 272              		.cfi_def_cfa_register 7
 273 0006 0346     		mov	r3, r0
 274 0008 FB71     		strb	r3, [r7, #7]
 110:Drivers/VL53L0X/core/src/vl53l0x_api_core.c **** 	/*!
 111:Drivers/VL53L0X/core/src/vl53l0x_api_core.c **** 	 * Converts the encoded VCSEL period register value into the real period
 112:Drivers/VL53L0X/core/src/vl53l0x_api_core.c **** 	 * in PLL clocks
 113:Drivers/VL53L0X/core/src/vl53l0x_api_core.c **** 	 */
 114:Drivers/VL53L0X/core/src/vl53l0x_api_core.c **** 
 115:Drivers/VL53L0X/core/src/vl53l0x_api_core.c **** 	uint8_t vcsel_period_reg = 0;
 275              		.loc 1 115 10
 276 000a 0023     		movs	r3, #0
 277 000c FB73     		strb	r3, [r7, #15]
 116:Drivers/VL53L0X/core/src/vl53l0x_api_core.c **** 
 117:Drivers/VL53L0X/core/src/vl53l0x_api_core.c **** 	vcsel_period_reg = (vcsel_period_pclks >> 1) - 1;
 278              		.loc 1 117 47
 279 000e FB79     		ldrb	r3, [r7, #7]	@ zero_extendqisi2
 280 0010 5B08     		lsrs	r3, r3, #1
 281 0012 DBB2     		uxtb	r3, r3
 282              		.loc 1 117 19
 283 0014 013B     		subs	r3, r3, #1
 284 0016 FB73     		strb	r3, [r7, #15]
ARM GAS  C:\Users\Morroway\AppData\Local\Temp\ccKjJYc2.s 			page 8


 118:Drivers/VL53L0X/core/src/vl53l0x_api_core.c **** 
 119:Drivers/VL53L0X/core/src/vl53l0x_api_core.c **** 	return vcsel_period_reg;
 285              		.loc 1 119 9
 286 0018 FB7B     		ldrb	r3, [r7, #15]	@ zero_extendqisi2
 120:Drivers/VL53L0X/core/src/vl53l0x_api_core.c **** }
 287              		.loc 1 120 1
 288 001a 1846     		mov	r0, r3
 289 001c 1437     		adds	r7, r7, #20
 290              		.cfi_def_cfa_offset 4
 291 001e BD46     		mov	sp, r7
 292              		.cfi_def_cfa_register 13
 293              		@ sp needed
 294 0020 5DF8047B 		ldr	r7, [sp], #4
 295              		.cfi_restore 7
 296              		.cfi_def_cfa_offset 0
 297 0024 7047     		bx	lr
 298              		.cfi_endproc
 299              	.LFE327:
 301              		.section	.text.VL53L0X_isqrt,"ax",%progbits
 302              		.align	1
 303              		.global	VL53L0X_isqrt
 304              		.syntax unified
 305              		.thumb
 306              		.thumb_func
 308              	VL53L0X_isqrt:
 309              	.LFB328:
 121:Drivers/VL53L0X/core/src/vl53l0x_api_core.c **** 
 122:Drivers/VL53L0X/core/src/vl53l0x_api_core.c **** 
 123:Drivers/VL53L0X/core/src/vl53l0x_api_core.c **** uint32_t VL53L0X_isqrt(uint32_t num)
 124:Drivers/VL53L0X/core/src/vl53l0x_api_core.c **** {
 310              		.loc 1 124 1
 311              		.cfi_startproc
 312              		@ args = 0, pretend = 0, frame = 16
 313              		@ frame_needed = 1, uses_anonymous_args = 0
 314              		@ link register save eliminated.
 315 0000 80B4     		push	{r7}
 316              		.cfi_def_cfa_offset 4
 317              		.cfi_offset 7, -4
 318 0002 85B0     		sub	sp, sp, #20
 319              		.cfi_def_cfa_offset 24
 320 0004 00AF     		add	r7, sp, #0
 321              		.cfi_def_cfa_register 7
 322 0006 7860     		str	r0, [r7, #4]
 125:Drivers/VL53L0X/core/src/vl53l0x_api_core.c **** 	/*
 126:Drivers/VL53L0X/core/src/vl53l0x_api_core.c **** 	 * Implements an integer square root
 127:Drivers/VL53L0X/core/src/vl53l0x_api_core.c **** 	 *
 128:Drivers/VL53L0X/core/src/vl53l0x_api_core.c **** 	 * From: http://en.wikipedia.org/wiki/Methods_of_computing_square_roots
 129:Drivers/VL53L0X/core/src/vl53l0x_api_core.c **** 	 */
 130:Drivers/VL53L0X/core/src/vl53l0x_api_core.c **** 
 131:Drivers/VL53L0X/core/src/vl53l0x_api_core.c **** 	uint32_t  res = 0;
 323              		.loc 1 131 12
 324 0008 0023     		movs	r3, #0
 325 000a FB60     		str	r3, [r7, #12]
 132:Drivers/VL53L0X/core/src/vl53l0x_api_core.c **** 	uint32_t  bit = 1 << 30;
 326              		.loc 1 132 12
 327 000c 4FF08043 		mov	r3, #1073741824
 328 0010 BB60     		str	r3, [r7, #8]
ARM GAS  C:\Users\Morroway\AppData\Local\Temp\ccKjJYc2.s 			page 9


 133:Drivers/VL53L0X/core/src/vl53l0x_api_core.c **** 	/* The second-to-top bit is set:
 134:Drivers/VL53L0X/core/src/vl53l0x_api_core.c **** 	 *	1 << 14 for 16-bits, 1 << 30 for 32 bits */
 135:Drivers/VL53L0X/core/src/vl53l0x_api_core.c **** 
 136:Drivers/VL53L0X/core/src/vl53l0x_api_core.c **** 	 /* "bit" starts at the highest power of four <= the argument. */
 137:Drivers/VL53L0X/core/src/vl53l0x_api_core.c **** 	while (bit > num)
 329              		.loc 1 137 8
 330 0012 02E0     		b	.L19
 331              	.L20:
 138:Drivers/VL53L0X/core/src/vl53l0x_api_core.c **** 		bit >>= 2;
 332              		.loc 1 138 7
 333 0014 BB68     		ldr	r3, [r7, #8]
 334 0016 9B08     		lsrs	r3, r3, #2
 335 0018 BB60     		str	r3, [r7, #8]
 336              	.L19:
 137:Drivers/VL53L0X/core/src/vl53l0x_api_core.c **** 		bit >>= 2;
 337              		.loc 1 137 13
 338 001a BA68     		ldr	r2, [r7, #8]
 339 001c 7B68     		ldr	r3, [r7, #4]
 340 001e 9A42     		cmp	r2, r3
 341 0020 F8D8     		bhi	.L20
 139:Drivers/VL53L0X/core/src/vl53l0x_api_core.c **** 
 140:Drivers/VL53L0X/core/src/vl53l0x_api_core.c **** 
 141:Drivers/VL53L0X/core/src/vl53l0x_api_core.c **** 	while (bit != 0) {
 342              		.loc 1 141 8
 343 0022 17E0     		b	.L21
 344              	.L24:
 142:Drivers/VL53L0X/core/src/vl53l0x_api_core.c **** 		if (num >= res + bit) {
 345              		.loc 1 142 18
 346 0024 FA68     		ldr	r2, [r7, #12]
 347 0026 BB68     		ldr	r3, [r7, #8]
 348 0028 1344     		add	r3, r3, r2
 349              		.loc 1 142 6
 350 002a 7A68     		ldr	r2, [r7, #4]
 351 002c 9A42     		cmp	r2, r3
 352 002e 0BD3     		bcc	.L22
 143:Drivers/VL53L0X/core/src/vl53l0x_api_core.c **** 			num -= res + bit;
 353              		.loc 1 143 15
 354 0030 FA68     		ldr	r2, [r7, #12]
 355 0032 BB68     		ldr	r3, [r7, #8]
 356 0034 1344     		add	r3, r3, r2
 357              		.loc 1 143 8
 358 0036 7A68     		ldr	r2, [r7, #4]
 359 0038 D31A     		subs	r3, r2, r3
 360 003a 7B60     		str	r3, [r7, #4]
 144:Drivers/VL53L0X/core/src/vl53l0x_api_core.c **** 			res = (res >> 1) + bit;
 361              		.loc 1 144 15
 362 003c FB68     		ldr	r3, [r7, #12]
 363 003e 5B08     		lsrs	r3, r3, #1
 364              		.loc 1 144 8
 365 0040 BA68     		ldr	r2, [r7, #8]
 366 0042 1344     		add	r3, r3, r2
 367 0044 FB60     		str	r3, [r7, #12]
 368 0046 02E0     		b	.L23
 369              	.L22:
 145:Drivers/VL53L0X/core/src/vl53l0x_api_core.c **** 		} else
 146:Drivers/VL53L0X/core/src/vl53l0x_api_core.c **** 			res >>= 1;
 370              		.loc 1 146 8
ARM GAS  C:\Users\Morroway\AppData\Local\Temp\ccKjJYc2.s 			page 10


 371 0048 FB68     		ldr	r3, [r7, #12]
 372 004a 5B08     		lsrs	r3, r3, #1
 373 004c FB60     		str	r3, [r7, #12]
 374              	.L23:
 147:Drivers/VL53L0X/core/src/vl53l0x_api_core.c **** 
 148:Drivers/VL53L0X/core/src/vl53l0x_api_core.c **** 		bit >>= 2;
 375              		.loc 1 148 7
 376 004e BB68     		ldr	r3, [r7, #8]
 377 0050 9B08     		lsrs	r3, r3, #2
 378 0052 BB60     		str	r3, [r7, #8]
 379              	.L21:
 141:Drivers/VL53L0X/core/src/vl53l0x_api_core.c **** 		if (num >= res + bit) {
 380              		.loc 1 141 13
 381 0054 BB68     		ldr	r3, [r7, #8]
 382 0056 002B     		cmp	r3, #0
 383 0058 E4D1     		bne	.L24
 149:Drivers/VL53L0X/core/src/vl53l0x_api_core.c **** 	}
 150:Drivers/VL53L0X/core/src/vl53l0x_api_core.c **** 
 151:Drivers/VL53L0X/core/src/vl53l0x_api_core.c **** 	return res;
 384              		.loc 1 151 9
 385 005a FB68     		ldr	r3, [r7, #12]
 152:Drivers/VL53L0X/core/src/vl53l0x_api_core.c **** }
 386              		.loc 1 152 1
 387 005c 1846     		mov	r0, r3
 388 005e 1437     		adds	r7, r7, #20
 389              		.cfi_def_cfa_offset 4
 390 0060 BD46     		mov	sp, r7
 391              		.cfi_def_cfa_register 13
 392              		@ sp needed
 393 0062 5DF8047B 		ldr	r7, [sp], #4
 394              		.cfi_restore 7
 395              		.cfi_def_cfa_offset 0
 396 0066 7047     		bx	lr
 397              		.cfi_endproc
 398              	.LFE328:
 400              		.section	.text.VL53L0X_quadrature_sum,"ax",%progbits
 401              		.align	1
 402              		.global	VL53L0X_quadrature_sum
 403              		.syntax unified
 404              		.thumb
 405              		.thumb_func
 407              	VL53L0X_quadrature_sum:
 408              	.LFB329:
 153:Drivers/VL53L0X/core/src/vl53l0x_api_core.c **** 
 154:Drivers/VL53L0X/core/src/vl53l0x_api_core.c **** 
 155:Drivers/VL53L0X/core/src/vl53l0x_api_core.c **** uint32_t VL53L0X_quadrature_sum(uint32_t a, uint32_t b)
 156:Drivers/VL53L0X/core/src/vl53l0x_api_core.c **** {
 409              		.loc 1 156 1
 410              		.cfi_startproc
 411              		@ args = 0, pretend = 0, frame = 16
 412              		@ frame_needed = 1, uses_anonymous_args = 0
 413 0000 80B5     		push	{r7, lr}
 414              		.cfi_def_cfa_offset 8
 415              		.cfi_offset 7, -8
 416              		.cfi_offset 14, -4
 417 0002 84B0     		sub	sp, sp, #16
 418              		.cfi_def_cfa_offset 24
ARM GAS  C:\Users\Morroway\AppData\Local\Temp\ccKjJYc2.s 			page 11


 419 0004 00AF     		add	r7, sp, #0
 420              		.cfi_def_cfa_register 7
 421 0006 7860     		str	r0, [r7, #4]
 422 0008 3960     		str	r1, [r7]
 157:Drivers/VL53L0X/core/src/vl53l0x_api_core.c **** 	/*
 158:Drivers/VL53L0X/core/src/vl53l0x_api_core.c **** 	 * Implements a quadrature sum
 159:Drivers/VL53L0X/core/src/vl53l0x_api_core.c **** 	 *
 160:Drivers/VL53L0X/core/src/vl53l0x_api_core.c **** 	 * rea = sqrt(a^2 + b^2)
 161:Drivers/VL53L0X/core/src/vl53l0x_api_core.c **** 	 *
 162:Drivers/VL53L0X/core/src/vl53l0x_api_core.c **** 	 * Trap overflow case max input value is 65535 (16-bit value)
 163:Drivers/VL53L0X/core/src/vl53l0x_api_core.c **** 	 * as internal calc are 32-bit wide
 164:Drivers/VL53L0X/core/src/vl53l0x_api_core.c **** 	 *
 165:Drivers/VL53L0X/core/src/vl53l0x_api_core.c **** 	 * If overflow then seta output to maximum
 166:Drivers/VL53L0X/core/src/vl53l0x_api_core.c **** 	 */
 167:Drivers/VL53L0X/core/src/vl53l0x_api_core.c **** 	uint32_t  res = 0;
 423              		.loc 1 167 12
 424 000a 0023     		movs	r3, #0
 425 000c FB60     		str	r3, [r7, #12]
 168:Drivers/VL53L0X/core/src/vl53l0x_api_core.c **** 
 169:Drivers/VL53L0X/core/src/vl53l0x_api_core.c **** 	if (a > 65535 || b > 65535)
 426              		.loc 1 169 5
 427 000e 7B68     		ldr	r3, [r7, #4]
 428 0010 B3F5803F 		cmp	r3, #65536
 429 0014 03D2     		bcs	.L27
 430              		.loc 1 169 16 discriminator 1
 431 0016 3B68     		ldr	r3, [r7]
 432 0018 B3F5803F 		cmp	r3, #65536
 433 001c 03D3     		bcc	.L28
 434              	.L27:
 170:Drivers/VL53L0X/core/src/vl53l0x_api_core.c **** 		res = 65535;
 435              		.loc 1 170 7
 436 001e 4FF6FF73 		movw	r3, #65535
 437 0022 FB60     		str	r3, [r7, #12]
 438 0024 0AE0     		b	.L29
 439              	.L28:
 171:Drivers/VL53L0X/core/src/vl53l0x_api_core.c **** 	else
 172:Drivers/VL53L0X/core/src/vl53l0x_api_core.c **** 		res = VL53L0X_isqrt(a * a + b * b);
 440              		.loc 1 172 25
 441 0026 7B68     		ldr	r3, [r7, #4]
 442 0028 03FB03F2 		mul	r2, r3, r3
 443              		.loc 1 172 33
 444 002c 3B68     		ldr	r3, [r7]
 445 002e 03FB03F3 		mul	r3, r3, r3
 446              		.loc 1 172 9
 447 0032 1344     		add	r3, r3, r2
 448 0034 1846     		mov	r0, r3
 449 0036 FFF7FEFF 		bl	VL53L0X_isqrt
 450 003a F860     		str	r0, [r7, #12]
 451              	.L29:
 173:Drivers/VL53L0X/core/src/vl53l0x_api_core.c **** 
 174:Drivers/VL53L0X/core/src/vl53l0x_api_core.c **** 	return res;
 452              		.loc 1 174 9
 453 003c FB68     		ldr	r3, [r7, #12]
 175:Drivers/VL53L0X/core/src/vl53l0x_api_core.c **** }
 454              		.loc 1 175 1
 455 003e 1846     		mov	r0, r3
 456 0040 1037     		adds	r7, r7, #16
ARM GAS  C:\Users\Morroway\AppData\Local\Temp\ccKjJYc2.s 			page 12


 457              		.cfi_def_cfa_offset 8
 458 0042 BD46     		mov	sp, r7
 459              		.cfi_def_cfa_register 13
 460              		@ sp needed
 461 0044 80BD     		pop	{r7, pc}
 462              		.cfi_endproc
 463              	.LFE329:
 465              		.section	.text.VL53L0X_device_read_strobe,"ax",%progbits
 466              		.align	1
 467              		.global	VL53L0X_device_read_strobe
 468              		.syntax unified
 469              		.thumb
 470              		.thumb_func
 472              	VL53L0X_device_read_strobe:
 473              	.LFB330:
 176:Drivers/VL53L0X/core/src/vl53l0x_api_core.c **** 
 177:Drivers/VL53L0X/core/src/vl53l0x_api_core.c **** 
 178:Drivers/VL53L0X/core/src/vl53l0x_api_core.c **** VL53L0X_Error VL53L0X_device_read_strobe(VL53L0X_DEV Dev)
 179:Drivers/VL53L0X/core/src/vl53l0x_api_core.c **** {
 474              		.loc 1 179 1
 475              		.cfi_startproc
 476              		@ args = 0, pretend = 0, frame = 24
 477              		@ frame_needed = 1, uses_anonymous_args = 0
 478 0000 80B5     		push	{r7, lr}
 479              		.cfi_def_cfa_offset 8
 480              		.cfi_offset 7, -8
 481              		.cfi_offset 14, -4
 482 0002 86B0     		sub	sp, sp, #24
 483              		.cfi_def_cfa_offset 32
 484 0004 00AF     		add	r7, sp, #0
 485              		.cfi_def_cfa_register 7
 486 0006 7860     		str	r0, [r7, #4]
 180:Drivers/VL53L0X/core/src/vl53l0x_api_core.c **** 	VL53L0X_Error Status = VL53L0X_ERROR_NONE;
 487              		.loc 1 180 16
 488 0008 0023     		movs	r3, #0
 489 000a FB75     		strb	r3, [r7, #23]
 181:Drivers/VL53L0X/core/src/vl53l0x_api_core.c **** 	uint8_t strobe;
 182:Drivers/VL53L0X/core/src/vl53l0x_api_core.c **** 	uint32_t LoopNb;
 183:Drivers/VL53L0X/core/src/vl53l0x_api_core.c **** 	LOG_FUNCTION_START("");
 184:Drivers/VL53L0X/core/src/vl53l0x_api_core.c **** 
 185:Drivers/VL53L0X/core/src/vl53l0x_api_core.c **** 	Status |= VL53L0X_WrByte(Dev, 0x83, 0x00);
 490              		.loc 1 185 12
 491 000c 0022     		movs	r2, #0
 492 000e 8321     		movs	r1, #131
 493 0010 7868     		ldr	r0, [r7, #4]
 494 0012 FFF7FEFF 		bl	VL53L0X_WrByte
 495 0016 0346     		mov	r3, r0
 496 0018 1A46     		mov	r2, r3
 497              		.loc 1 185 9
 498 001a FB7D     		ldrb	r3, [r7, #23]
 499 001c 1343     		orrs	r3, r3, r2
 500 001e FB75     		strb	r3, [r7, #23]
 186:Drivers/VL53L0X/core/src/vl53l0x_api_core.c **** 
 187:Drivers/VL53L0X/core/src/vl53l0x_api_core.c **** 	/* polling
 188:Drivers/VL53L0X/core/src/vl53l0x_api_core.c **** 	 * use timeout to avoid deadlock*/
 189:Drivers/VL53L0X/core/src/vl53l0x_api_core.c **** 	if (Status == VL53L0X_ERROR_NONE) {
 501              		.loc 1 189 5
ARM GAS  C:\Users\Morroway\AppData\Local\Temp\ccKjJYc2.s 			page 13


 502 0020 97F91730 		ldrsb	r3, [r7, #23]
 503 0024 002B     		cmp	r3, #0
 504 0026 1ED1     		bne	.L32
 190:Drivers/VL53L0X/core/src/vl53l0x_api_core.c **** 		LoopNb = 0;
 505              		.loc 1 190 10
 506 0028 0023     		movs	r3, #0
 507 002a 3B61     		str	r3, [r7, #16]
 508              	.L34:
 191:Drivers/VL53L0X/core/src/vl53l0x_api_core.c **** 		do {
 192:Drivers/VL53L0X/core/src/vl53l0x_api_core.c **** 			Status = VL53L0X_RdByte(Dev, 0x83, &strobe);
 509              		.loc 1 192 13
 510 002c 07F10F03 		add	r3, r7, #15
 511 0030 1A46     		mov	r2, r3
 512 0032 8321     		movs	r1, #131
 513 0034 7868     		ldr	r0, [r7, #4]
 514 0036 FFF7FEFF 		bl	VL53L0X_RdByte
 515 003a 0346     		mov	r3, r0
 516 003c FB75     		strb	r3, [r7, #23]
 193:Drivers/VL53L0X/core/src/vl53l0x_api_core.c **** 			if ((strobe != 0x00) || Status != VL53L0X_ERROR_NONE)
 517              		.loc 1 193 16
 518 003e FB7B     		ldrb	r3, [r7, #15]	@ zero_extendqisi2
 519              		.loc 1 193 7
 520 0040 002B     		cmp	r3, #0
 521 0042 0AD1     		bne	.L33
 522              		.loc 1 193 25 discriminator 1
 523 0044 97F91730 		ldrsb	r3, [r7, #23]
 524 0048 002B     		cmp	r3, #0
 525 004a 06D1     		bne	.L33
 194:Drivers/VL53L0X/core/src/vl53l0x_api_core.c **** 					break;
 195:Drivers/VL53L0X/core/src/vl53l0x_api_core.c **** 
 196:Drivers/VL53L0X/core/src/vl53l0x_api_core.c **** 			LoopNb = LoopNb + 1;
 526              		.loc 1 196 11
 527 004c 3B69     		ldr	r3, [r7, #16]
 528 004e 0133     		adds	r3, r3, #1
 529 0050 3B61     		str	r3, [r7, #16]
 197:Drivers/VL53L0X/core/src/vl53l0x_api_core.c **** 		} while (LoopNb < VL53L0X_DEFAULT_MAX_LOOP);
 530              		.loc 1 197 19
 531 0052 3B69     		ldr	r3, [r7, #16]
 532 0054 B3F5FA6F 		cmp	r3, #2000
 533 0058 E8D3     		bcc	.L34
 534              	.L33:
 198:Drivers/VL53L0X/core/src/vl53l0x_api_core.c **** 
 199:Drivers/VL53L0X/core/src/vl53l0x_api_core.c **** 		if (LoopNb >= VL53L0X_DEFAULT_MAX_LOOP)
 535              		.loc 1 199 6
 536 005a 3B69     		ldr	r3, [r7, #16]
 537 005c B3F5FA6F 		cmp	r3, #2000
 538 0060 01D3     		bcc	.L32
 200:Drivers/VL53L0X/core/src/vl53l0x_api_core.c **** 			Status = VL53L0X_ERROR_TIME_OUT;
 539              		.loc 1 200 11
 540 0062 F923     		movs	r3, #249
 541 0064 FB75     		strb	r3, [r7, #23]
 542              	.L32:
 201:Drivers/VL53L0X/core/src/vl53l0x_api_core.c **** 
 202:Drivers/VL53L0X/core/src/vl53l0x_api_core.c **** 	}
 203:Drivers/VL53L0X/core/src/vl53l0x_api_core.c **** 
 204:Drivers/VL53L0X/core/src/vl53l0x_api_core.c **** 	Status |= VL53L0X_WrByte(Dev, 0x83, 0x01);
 543              		.loc 1 204 12
ARM GAS  C:\Users\Morroway\AppData\Local\Temp\ccKjJYc2.s 			page 14


 544 0066 0122     		movs	r2, #1
 545 0068 8321     		movs	r1, #131
 546 006a 7868     		ldr	r0, [r7, #4]
 547 006c FFF7FEFF 		bl	VL53L0X_WrByte
 548 0070 0346     		mov	r3, r0
 549 0072 1A46     		mov	r2, r3
 550              		.loc 1 204 9
 551 0074 FB7D     		ldrb	r3, [r7, #23]
 552 0076 1343     		orrs	r3, r3, r2
 553 0078 FB75     		strb	r3, [r7, #23]
 205:Drivers/VL53L0X/core/src/vl53l0x_api_core.c **** 
 206:Drivers/VL53L0X/core/src/vl53l0x_api_core.c **** 	LOG_FUNCTION_END(Status);
 207:Drivers/VL53L0X/core/src/vl53l0x_api_core.c **** 	return Status;
 554              		.loc 1 207 9
 555 007a 97F91730 		ldrsb	r3, [r7, #23]
 208:Drivers/VL53L0X/core/src/vl53l0x_api_core.c **** 
 209:Drivers/VL53L0X/core/src/vl53l0x_api_core.c **** }
 556              		.loc 1 209 1
 557 007e 1846     		mov	r0, r3
 558 0080 1837     		adds	r7, r7, #24
 559              		.cfi_def_cfa_offset 8
 560 0082 BD46     		mov	sp, r7
 561              		.cfi_def_cfa_register 13
 562              		@ sp needed
 563 0084 80BD     		pop	{r7, pc}
 564              		.cfi_endproc
 565              	.LFE330:
 567              		.section	.text.VL53L0X_get_info_from_device,"ax",%progbits
 568              		.align	1
 569              		.global	VL53L0X_get_info_from_device
 570              		.syntax unified
 571              		.thumb
 572              		.thumb_func
 574              	VL53L0X_get_info_from_device:
 575              	.LFB331:
 210:Drivers/VL53L0X/core/src/vl53l0x_api_core.c **** 
 211:Drivers/VL53L0X/core/src/vl53l0x_api_core.c **** VL53L0X_Error VL53L0X_get_info_from_device(VL53L0X_DEV Dev, uint8_t option)
 212:Drivers/VL53L0X/core/src/vl53l0x_api_core.c **** {
 576              		.loc 1 212 1
 577              		.cfi_startproc
 578              		@ args = 0, pretend = 0, frame = 96
 579              		@ frame_needed = 1, uses_anonymous_args = 0
 580 0000 80B5     		push	{r7, lr}
 581              		.cfi_def_cfa_offset 8
 582              		.cfi_offset 7, -8
 583              		.cfi_offset 14, -4
 584 0002 98B0     		sub	sp, sp, #96
 585              		.cfi_def_cfa_offset 104
 586 0004 00AF     		add	r7, sp, #0
 587              		.cfi_def_cfa_register 7
 588 0006 7860     		str	r0, [r7, #4]
 589 0008 0B46     		mov	r3, r1
 590 000a FB70     		strb	r3, [r7, #3]
 213:Drivers/VL53L0X/core/src/vl53l0x_api_core.c **** 
 214:Drivers/VL53L0X/core/src/vl53l0x_api_core.c **** 	VL53L0X_Error Status = VL53L0X_ERROR_NONE;
 591              		.loc 1 214 16
 592 000c 0023     		movs	r3, #0
ARM GAS  C:\Users\Morroway\AppData\Local\Temp\ccKjJYc2.s 			page 15


 593 000e 87F85F30 		strb	r3, [r7, #95]
 215:Drivers/VL53L0X/core/src/vl53l0x_api_core.c **** 	uint8_t byte;
 216:Drivers/VL53L0X/core/src/vl53l0x_api_core.c **** 	uint32_t TmpDWord;
 217:Drivers/VL53L0X/core/src/vl53l0x_api_core.c **** 	uint8_t ModuleId;
 218:Drivers/VL53L0X/core/src/vl53l0x_api_core.c **** 	uint8_t Revision;
 219:Drivers/VL53L0X/core/src/vl53l0x_api_core.c **** 	uint8_t ReferenceSpadCount = 0;
 594              		.loc 1 219 10
 595 0012 0023     		movs	r3, #0
 596 0014 87F85E30 		strb	r3, [r7, #94]
 220:Drivers/VL53L0X/core/src/vl53l0x_api_core.c **** 	uint8_t ReferenceSpadType = 0;
 597              		.loc 1 220 10
 598 0018 0023     		movs	r3, #0
 599 001a 87F85D30 		strb	r3, [r7, #93]
 221:Drivers/VL53L0X/core/src/vl53l0x_api_core.c **** 	uint32_t PartUIDUpper = 0;
 600              		.loc 1 221 11
 601 001e 0023     		movs	r3, #0
 602 0020 BB62     		str	r3, [r7, #40]
 222:Drivers/VL53L0X/core/src/vl53l0x_api_core.c **** 	uint32_t PartUIDLower = 0;
 603              		.loc 1 222 11
 604 0022 0023     		movs	r3, #0
 605 0024 7B62     		str	r3, [r7, #36]
 223:Drivers/VL53L0X/core/src/vl53l0x_api_core.c **** 	uint32_t OffsetFixed1104_mm = 0;
 606              		.loc 1 223 11
 607 0026 0023     		movs	r3, #0
 608 0028 BB64     		str	r3, [r7, #72]
 224:Drivers/VL53L0X/core/src/vl53l0x_api_core.c **** 	int16_t OffsetMicroMeters = 0;
 609              		.loc 1 224 10
 610 002a 0023     		movs	r3, #0
 611 002c A7F85A30 		strh	r3, [r7, #90]	@ movhi
 225:Drivers/VL53L0X/core/src/vl53l0x_api_core.c **** 	uint32_t DistMeasTgtFixed1104_mm = 400 << 4;
 612              		.loc 1 225 11
 613 0030 4FF4C853 		mov	r3, #6400
 614 0034 7B64     		str	r3, [r7, #68]
 226:Drivers/VL53L0X/core/src/vl53l0x_api_core.c **** 	uint32_t DistMeasFixed1104_400_mm = 0;
 615              		.loc 1 226 11
 616 0036 0023     		movs	r3, #0
 617 0038 7B65     		str	r3, [r7, #84]
 227:Drivers/VL53L0X/core/src/vl53l0x_api_core.c **** 	uint32_t SignalRateMeasFixed1104_400_mm = 0;
 618              		.loc 1 227 11
 619 003a 0023     		movs	r3, #0
 620 003c 3B65     		str	r3, [r7, #80]
 228:Drivers/VL53L0X/core/src/vl53l0x_api_core.c **** 	char ProductId[19];
 229:Drivers/VL53L0X/core/src/vl53l0x_api_core.c **** 	char *ProductId_tmp;
 230:Drivers/VL53L0X/core/src/vl53l0x_api_core.c **** 	uint8_t ReadDataFromDeviceDone;
 231:Drivers/VL53L0X/core/src/vl53l0x_api_core.c **** 	FixPoint1616_t SignalRateMeasFixed400mmFix = 0;
 621              		.loc 1 231 17
 622 003e 0023     		movs	r3, #0
 623 0040 3B64     		str	r3, [r7, #64]
 232:Drivers/VL53L0X/core/src/vl53l0x_api_core.c **** 	uint8_t NvmRefGoodSpadMap[VL53L0X_REF_SPAD_BUFFER_SIZE];
 233:Drivers/VL53L0X/core/src/vl53l0x_api_core.c **** 	int i;
 234:Drivers/VL53L0X/core/src/vl53l0x_api_core.c **** 
 235:Drivers/VL53L0X/core/src/vl53l0x_api_core.c **** 
 236:Drivers/VL53L0X/core/src/vl53l0x_api_core.c **** 	LOG_FUNCTION_START("");
 237:Drivers/VL53L0X/core/src/vl53l0x_api_core.c **** 
 238:Drivers/VL53L0X/core/src/vl53l0x_api_core.c **** 	ReadDataFromDeviceDone = VL53L0X_GETDEVICESPECIFICPARAMETER(Dev,
 624              		.loc 1 238 25
 625 0042 7B68     		ldr	r3, [r7, #4]
ARM GAS  C:\Users\Morroway\AppData\Local\Temp\ccKjJYc2.s 			page 16


 626 0044 93F8F030 		ldrb	r3, [r3, #240]
 627 0048 87F83F30 		strb	r3, [r7, #63]
 239:Drivers/VL53L0X/core/src/vl53l0x_api_core.c **** 			ReadDataFromDeviceDone);
 240:Drivers/VL53L0X/core/src/vl53l0x_api_core.c **** 
 241:Drivers/VL53L0X/core/src/vl53l0x_api_core.c **** 	/* This access is done only once after that a GetDeviceInfo or
 242:Drivers/VL53L0X/core/src/vl53l0x_api_core.c **** 	 * datainit is done*/
 243:Drivers/VL53L0X/core/src/vl53l0x_api_core.c **** 	if (ReadDataFromDeviceDone != 7) {
 628              		.loc 1 243 5
 629 004c 97F83F30 		ldrb	r3, [r7, #63]	@ zero_extendqisi2
 630 0050 072B     		cmp	r3, #7
 631 0052 00F00884 		beq	.L37
 244:Drivers/VL53L0X/core/src/vl53l0x_api_core.c **** 
 245:Drivers/VL53L0X/core/src/vl53l0x_api_core.c **** 		Status |= VL53L0X_WrByte(Dev, 0x80, 0x01);
 632              		.loc 1 245 13
 633 0056 0122     		movs	r2, #1
 634 0058 8021     		movs	r1, #128
 635 005a 7868     		ldr	r0, [r7, #4]
 636 005c FFF7FEFF 		bl	VL53L0X_WrByte
 637 0060 0346     		mov	r3, r0
 638 0062 1A46     		mov	r2, r3
 639              		.loc 1 245 10
 640 0064 97F85F30 		ldrb	r3, [r7, #95]
 641 0068 1343     		orrs	r3, r3, r2
 642 006a 87F85F30 		strb	r3, [r7, #95]
 246:Drivers/VL53L0X/core/src/vl53l0x_api_core.c **** 		Status |= VL53L0X_WrByte(Dev, 0xFF, 0x01);
 643              		.loc 1 246 13
 644 006e 0122     		movs	r2, #1
 645 0070 FF21     		movs	r1, #255
 646 0072 7868     		ldr	r0, [r7, #4]
 647 0074 FFF7FEFF 		bl	VL53L0X_WrByte
 648 0078 0346     		mov	r3, r0
 649 007a 1A46     		mov	r2, r3
 650              		.loc 1 246 10
 651 007c 97F85F30 		ldrb	r3, [r7, #95]
 652 0080 1343     		orrs	r3, r3, r2
 653 0082 87F85F30 		strb	r3, [r7, #95]
 247:Drivers/VL53L0X/core/src/vl53l0x_api_core.c **** 		Status |= VL53L0X_WrByte(Dev, 0x00, 0x00);
 654              		.loc 1 247 13
 655 0086 0022     		movs	r2, #0
 656 0088 0021     		movs	r1, #0
 657 008a 7868     		ldr	r0, [r7, #4]
 658 008c FFF7FEFF 		bl	VL53L0X_WrByte
 659 0090 0346     		mov	r3, r0
 660 0092 1A46     		mov	r2, r3
 661              		.loc 1 247 10
 662 0094 97F85F30 		ldrb	r3, [r7, #95]
 663 0098 1343     		orrs	r3, r3, r2
 664 009a 87F85F30 		strb	r3, [r7, #95]
 248:Drivers/VL53L0X/core/src/vl53l0x_api_core.c **** 
 249:Drivers/VL53L0X/core/src/vl53l0x_api_core.c **** 		Status |= VL53L0X_WrByte(Dev, 0xFF, 0x06);
 665              		.loc 1 249 13
 666 009e 0622     		movs	r2, #6
 667 00a0 FF21     		movs	r1, #255
 668 00a2 7868     		ldr	r0, [r7, #4]
 669 00a4 FFF7FEFF 		bl	VL53L0X_WrByte
 670 00a8 0346     		mov	r3, r0
 671 00aa 1A46     		mov	r2, r3
ARM GAS  C:\Users\Morroway\AppData\Local\Temp\ccKjJYc2.s 			page 17


 672              		.loc 1 249 10
 673 00ac 97F85F30 		ldrb	r3, [r7, #95]
 674 00b0 1343     		orrs	r3, r3, r2
 675 00b2 87F85F30 		strb	r3, [r7, #95]
 250:Drivers/VL53L0X/core/src/vl53l0x_api_core.c **** 		Status |= VL53L0X_RdByte(Dev, 0x83, &byte);
 676              		.loc 1 250 13
 677 00b6 07F13703 		add	r3, r7, #55
 678 00ba 1A46     		mov	r2, r3
 679 00bc 8321     		movs	r1, #131
 680 00be 7868     		ldr	r0, [r7, #4]
 681 00c0 FFF7FEFF 		bl	VL53L0X_RdByte
 682 00c4 0346     		mov	r3, r0
 683 00c6 1A46     		mov	r2, r3
 684              		.loc 1 250 10
 685 00c8 97F85F30 		ldrb	r3, [r7, #95]
 686 00cc 1343     		orrs	r3, r3, r2
 687 00ce 87F85F30 		strb	r3, [r7, #95]
 251:Drivers/VL53L0X/core/src/vl53l0x_api_core.c **** 		Status |= VL53L0X_WrByte(Dev, 0x83, byte|4);
 688              		.loc 1 251 13
 689 00d2 97F83730 		ldrb	r3, [r7, #55]	@ zero_extendqisi2
 690 00d6 43F00403 		orr	r3, r3, #4
 691 00da DBB2     		uxtb	r3, r3
 692 00dc 1A46     		mov	r2, r3
 693 00de 8321     		movs	r1, #131
 694 00e0 7868     		ldr	r0, [r7, #4]
 695 00e2 FFF7FEFF 		bl	VL53L0X_WrByte
 696 00e6 0346     		mov	r3, r0
 697 00e8 1A46     		mov	r2, r3
 698              		.loc 1 251 10
 699 00ea 97F85F30 		ldrb	r3, [r7, #95]
 700 00ee 1343     		orrs	r3, r3, r2
 701 00f0 87F85F30 		strb	r3, [r7, #95]
 252:Drivers/VL53L0X/core/src/vl53l0x_api_core.c **** 		Status |= VL53L0X_WrByte(Dev, 0xFF, 0x07);
 702              		.loc 1 252 13
 703 00f4 0722     		movs	r2, #7
 704 00f6 FF21     		movs	r1, #255
 705 00f8 7868     		ldr	r0, [r7, #4]
 706 00fa FFF7FEFF 		bl	VL53L0X_WrByte
 707 00fe 0346     		mov	r3, r0
 708 0100 1A46     		mov	r2, r3
 709              		.loc 1 252 10
 710 0102 97F85F30 		ldrb	r3, [r7, #95]
 711 0106 1343     		orrs	r3, r3, r2
 712 0108 87F85F30 		strb	r3, [r7, #95]
 253:Drivers/VL53L0X/core/src/vl53l0x_api_core.c **** 		Status |= VL53L0X_WrByte(Dev, 0x81, 0x01);
 713              		.loc 1 253 13
 714 010c 0122     		movs	r2, #1
 715 010e 8121     		movs	r1, #129
 716 0110 7868     		ldr	r0, [r7, #4]
 717 0112 FFF7FEFF 		bl	VL53L0X_WrByte
 718 0116 0346     		mov	r3, r0
 719 0118 1A46     		mov	r2, r3
 720              		.loc 1 253 10
 721 011a 97F85F30 		ldrb	r3, [r7, #95]
 722 011e 1343     		orrs	r3, r3, r2
 723 0120 87F85F30 		strb	r3, [r7, #95]
 254:Drivers/VL53L0X/core/src/vl53l0x_api_core.c **** 
ARM GAS  C:\Users\Morroway\AppData\Local\Temp\ccKjJYc2.s 			page 18


 255:Drivers/VL53L0X/core/src/vl53l0x_api_core.c **** 		Status |= VL53L0X_PollingDelay(Dev);
 724              		.loc 1 255 13
 725 0124 7868     		ldr	r0, [r7, #4]
 726 0126 FFF7FEFF 		bl	VL53L0X_PollingDelay
 727 012a 0346     		mov	r3, r0
 728 012c 1A46     		mov	r2, r3
 729              		.loc 1 255 10
 730 012e 97F85F30 		ldrb	r3, [r7, #95]
 731 0132 1343     		orrs	r3, r3, r2
 732 0134 87F85F30 		strb	r3, [r7, #95]
 256:Drivers/VL53L0X/core/src/vl53l0x_api_core.c **** 
 257:Drivers/VL53L0X/core/src/vl53l0x_api_core.c **** 		Status |= VL53L0X_WrByte(Dev, 0x80, 0x01);
 733              		.loc 1 257 13
 734 0138 0122     		movs	r2, #1
 735 013a 8021     		movs	r1, #128
 736 013c 7868     		ldr	r0, [r7, #4]
 737 013e FFF7FEFF 		bl	VL53L0X_WrByte
 738 0142 0346     		mov	r3, r0
 739 0144 1A46     		mov	r2, r3
 740              		.loc 1 257 10
 741 0146 97F85F30 		ldrb	r3, [r7, #95]
 742 014a 1343     		orrs	r3, r3, r2
 743 014c 87F85F30 		strb	r3, [r7, #95]
 258:Drivers/VL53L0X/core/src/vl53l0x_api_core.c **** 
 259:Drivers/VL53L0X/core/src/vl53l0x_api_core.c **** 		if (((option & 1) == 1) &&
 744              		.loc 1 259 16
 745 0150 FB78     		ldrb	r3, [r7, #3]	@ zero_extendqisi2
 746 0152 03F00103 		and	r3, r3, #1
 747              		.loc 1 259 6
 748 0156 002B     		cmp	r3, #0
 749 0158 00F09880 		beq	.L38
 260:Drivers/VL53L0X/core/src/vl53l0x_api_core.c **** 			((ReadDataFromDeviceDone & 1) == 0)) {
 750              		.loc 1 260 29 discriminator 1
 751 015c 97F83F30 		ldrb	r3, [r7, #63]	@ zero_extendqisi2
 752 0160 03F00103 		and	r3, r3, #1
 259:Drivers/VL53L0X/core/src/vl53l0x_api_core.c **** 			((ReadDataFromDeviceDone & 1) == 0)) {
 753              		.loc 1 259 27 discriminator 1
 754 0164 002B     		cmp	r3, #0
 755 0166 40F09180 		bne	.L38
 261:Drivers/VL53L0X/core/src/vl53l0x_api_core.c **** 			Status |= VL53L0X_WrByte(Dev, 0x94, 0x6b);
 756              		.loc 1 261 14
 757 016a 6B22     		movs	r2, #107
 758 016c 9421     		movs	r1, #148
 759 016e 7868     		ldr	r0, [r7, #4]
 760 0170 FFF7FEFF 		bl	VL53L0X_WrByte
 761 0174 0346     		mov	r3, r0
 762 0176 1A46     		mov	r2, r3
 763              		.loc 1 261 11
 764 0178 97F85F30 		ldrb	r3, [r7, #95]
 765 017c 1343     		orrs	r3, r3, r2
 766 017e 87F85F30 		strb	r3, [r7, #95]
 262:Drivers/VL53L0X/core/src/vl53l0x_api_core.c **** 			Status |= VL53L0X_device_read_strobe(Dev);
 767              		.loc 1 262 14
 768 0182 7868     		ldr	r0, [r7, #4]
 769 0184 FFF7FEFF 		bl	VL53L0X_device_read_strobe
 770 0188 0346     		mov	r3, r0
 771 018a 1A46     		mov	r2, r3
ARM GAS  C:\Users\Morroway\AppData\Local\Temp\ccKjJYc2.s 			page 19


 772              		.loc 1 262 11
 773 018c 97F85F30 		ldrb	r3, [r7, #95]
 774 0190 1343     		orrs	r3, r3, r2
 775 0192 87F85F30 		strb	r3, [r7, #95]
 263:Drivers/VL53L0X/core/src/vl53l0x_api_core.c **** 			Status |= VL53L0X_RdDWord(Dev, 0x90, &TmpDWord);
 776              		.loc 1 263 14
 777 0196 07F13003 		add	r3, r7, #48
 778 019a 1A46     		mov	r2, r3
 779 019c 9021     		movs	r1, #144
 780 019e 7868     		ldr	r0, [r7, #4]
 781 01a0 FFF7FEFF 		bl	VL53L0X_RdDWord
 782 01a4 0346     		mov	r3, r0
 783 01a6 1A46     		mov	r2, r3
 784              		.loc 1 263 11
 785 01a8 97F85F30 		ldrb	r3, [r7, #95]
 786 01ac 1343     		orrs	r3, r3, r2
 787 01ae 87F85F30 		strb	r3, [r7, #95]
 264:Drivers/VL53L0X/core/src/vl53l0x_api_core.c **** 
 265:Drivers/VL53L0X/core/src/vl53l0x_api_core.c **** 			ReferenceSpadCount = (uint8_t)((TmpDWord >> 8) & 0x07f);
 788              		.loc 1 265 45
 789 01b2 3B6B     		ldr	r3, [r7, #48]
 790 01b4 1B0A     		lsrs	r3, r3, #8
 791              		.loc 1 265 25
 792 01b6 DBB2     		uxtb	r3, r3
 793              		.loc 1 265 23
 794 01b8 03F07F03 		and	r3, r3, #127
 795 01bc 87F85E30 		strb	r3, [r7, #94]
 266:Drivers/VL53L0X/core/src/vl53l0x_api_core.c **** 			ReferenceSpadType  = (uint8_t)((TmpDWord >> 15) & 0x01);
 796              		.loc 1 266 45
 797 01c0 3B6B     		ldr	r3, [r7, #48]
 798 01c2 DB0B     		lsrs	r3, r3, #15
 799              		.loc 1 266 25
 800 01c4 DBB2     		uxtb	r3, r3
 801              		.loc 1 266 23
 802 01c6 03F00103 		and	r3, r3, #1
 803 01ca 87F85D30 		strb	r3, [r7, #93]
 267:Drivers/VL53L0X/core/src/vl53l0x_api_core.c **** 
 268:Drivers/VL53L0X/core/src/vl53l0x_api_core.c **** 			Status |= VL53L0X_WrByte(Dev, 0x94, 0x24);
 804              		.loc 1 268 14
 805 01ce 2422     		movs	r2, #36
 806 01d0 9421     		movs	r1, #148
 807 01d2 7868     		ldr	r0, [r7, #4]
 808 01d4 FFF7FEFF 		bl	VL53L0X_WrByte
 809 01d8 0346     		mov	r3, r0
 810 01da 1A46     		mov	r2, r3
 811              		.loc 1 268 11
 812 01dc 97F85F30 		ldrb	r3, [r7, #95]
 813 01e0 1343     		orrs	r3, r3, r2
 814 01e2 87F85F30 		strb	r3, [r7, #95]
 269:Drivers/VL53L0X/core/src/vl53l0x_api_core.c **** 			Status |= VL53L0X_device_read_strobe(Dev);
 815              		.loc 1 269 14
 816 01e6 7868     		ldr	r0, [r7, #4]
 817 01e8 FFF7FEFF 		bl	VL53L0X_device_read_strobe
 818 01ec 0346     		mov	r3, r0
 819 01ee 1A46     		mov	r2, r3
 820              		.loc 1 269 11
 821 01f0 97F85F30 		ldrb	r3, [r7, #95]
ARM GAS  C:\Users\Morroway\AppData\Local\Temp\ccKjJYc2.s 			page 20


 822 01f4 1343     		orrs	r3, r3, r2
 823 01f6 87F85F30 		strb	r3, [r7, #95]
 270:Drivers/VL53L0X/core/src/vl53l0x_api_core.c **** 			Status |= VL53L0X_RdDWord(Dev, 0x90, &TmpDWord);
 824              		.loc 1 270 14
 825 01fa 07F13003 		add	r3, r7, #48
 826 01fe 1A46     		mov	r2, r3
 827 0200 9021     		movs	r1, #144
 828 0202 7868     		ldr	r0, [r7, #4]
 829 0204 FFF7FEFF 		bl	VL53L0X_RdDWord
 830 0208 0346     		mov	r3, r0
 831 020a 1A46     		mov	r2, r3
 832              		.loc 1 270 11
 833 020c 97F85F30 		ldrb	r3, [r7, #95]
 834 0210 1343     		orrs	r3, r3, r2
 835 0212 87F85F30 		strb	r3, [r7, #95]
 271:Drivers/VL53L0X/core/src/vl53l0x_api_core.c **** 
 272:Drivers/VL53L0X/core/src/vl53l0x_api_core.c **** 
 273:Drivers/VL53L0X/core/src/vl53l0x_api_core.c **** 			NvmRefGoodSpadMap[0] = (uint8_t)((TmpDWord >> 24)
 836              		.loc 1 273 47
 837 0216 3B6B     		ldr	r3, [r7, #48]
 838 0218 1B0E     		lsrs	r3, r3, #24
 839              		.loc 1 273 27
 840 021a DBB2     		uxtb	r3, r3
 841              		.loc 1 273 25
 842 021c 3B72     		strb	r3, [r7, #8]
 274:Drivers/VL53L0X/core/src/vl53l0x_api_core.c **** 				& 0xff);
 275:Drivers/VL53L0X/core/src/vl53l0x_api_core.c **** 			NvmRefGoodSpadMap[1] = (uint8_t)((TmpDWord >> 16)
 843              		.loc 1 275 47
 844 021e 3B6B     		ldr	r3, [r7, #48]
 845 0220 1B0C     		lsrs	r3, r3, #16
 846              		.loc 1 275 27
 847 0222 DBB2     		uxtb	r3, r3
 848              		.loc 1 275 25
 849 0224 7B72     		strb	r3, [r7, #9]
 276:Drivers/VL53L0X/core/src/vl53l0x_api_core.c **** 				& 0xff);
 277:Drivers/VL53L0X/core/src/vl53l0x_api_core.c **** 			NvmRefGoodSpadMap[2] = (uint8_t)((TmpDWord >> 8)
 850              		.loc 1 277 47
 851 0226 3B6B     		ldr	r3, [r7, #48]
 852 0228 1B0A     		lsrs	r3, r3, #8
 853              		.loc 1 277 27
 854 022a DBB2     		uxtb	r3, r3
 855              		.loc 1 277 25
 856 022c BB72     		strb	r3, [r7, #10]
 278:Drivers/VL53L0X/core/src/vl53l0x_api_core.c **** 				& 0xff);
 279:Drivers/VL53L0X/core/src/vl53l0x_api_core.c **** 			NvmRefGoodSpadMap[3] = (uint8_t)(TmpDWord & 0xff);
 857              		.loc 1 279 27
 858 022e 3B6B     		ldr	r3, [r7, #48]
 859 0230 DBB2     		uxtb	r3, r3
 860              		.loc 1 279 25
 861 0232 FB72     		strb	r3, [r7, #11]
 280:Drivers/VL53L0X/core/src/vl53l0x_api_core.c **** 
 281:Drivers/VL53L0X/core/src/vl53l0x_api_core.c **** 			Status |= VL53L0X_WrByte(Dev, 0x94, 0x25);
 862              		.loc 1 281 14
 863 0234 2522     		movs	r2, #37
 864 0236 9421     		movs	r1, #148
 865 0238 7868     		ldr	r0, [r7, #4]
 866 023a FFF7FEFF 		bl	VL53L0X_WrByte
ARM GAS  C:\Users\Morroway\AppData\Local\Temp\ccKjJYc2.s 			page 21


 867 023e 0346     		mov	r3, r0
 868 0240 1A46     		mov	r2, r3
 869              		.loc 1 281 11
 870 0242 97F85F30 		ldrb	r3, [r7, #95]
 871 0246 1343     		orrs	r3, r3, r2
 872 0248 87F85F30 		strb	r3, [r7, #95]
 282:Drivers/VL53L0X/core/src/vl53l0x_api_core.c **** 			Status |= VL53L0X_device_read_strobe(Dev);
 873              		.loc 1 282 14
 874 024c 7868     		ldr	r0, [r7, #4]
 875 024e FFF7FEFF 		bl	VL53L0X_device_read_strobe
 876 0252 0346     		mov	r3, r0
 877 0254 1A46     		mov	r2, r3
 878              		.loc 1 282 11
 879 0256 97F85F30 		ldrb	r3, [r7, #95]
 880 025a 1343     		orrs	r3, r3, r2
 881 025c 87F85F30 		strb	r3, [r7, #95]
 283:Drivers/VL53L0X/core/src/vl53l0x_api_core.c **** 			Status |= VL53L0X_RdDWord(Dev, 0x90, &TmpDWord);
 882              		.loc 1 283 14
 883 0260 07F13003 		add	r3, r7, #48
 884 0264 1A46     		mov	r2, r3
 885 0266 9021     		movs	r1, #144
 886 0268 7868     		ldr	r0, [r7, #4]
 887 026a FFF7FEFF 		bl	VL53L0X_RdDWord
 888 026e 0346     		mov	r3, r0
 889 0270 1A46     		mov	r2, r3
 890              		.loc 1 283 11
 891 0272 97F85F30 		ldrb	r3, [r7, #95]
 892 0276 1343     		orrs	r3, r3, r2
 893 0278 87F85F30 		strb	r3, [r7, #95]
 284:Drivers/VL53L0X/core/src/vl53l0x_api_core.c **** 
 285:Drivers/VL53L0X/core/src/vl53l0x_api_core.c **** 			NvmRefGoodSpadMap[4] = (uint8_t)((TmpDWord >> 24)
 894              		.loc 1 285 47
 895 027c 3B6B     		ldr	r3, [r7, #48]
 896 027e 1B0E     		lsrs	r3, r3, #24
 897              		.loc 1 285 27
 898 0280 DBB2     		uxtb	r3, r3
 899              		.loc 1 285 25
 900 0282 3B73     		strb	r3, [r7, #12]
 286:Drivers/VL53L0X/core/src/vl53l0x_api_core.c **** 				& 0xff);
 287:Drivers/VL53L0X/core/src/vl53l0x_api_core.c **** 			NvmRefGoodSpadMap[5] = (uint8_t)((TmpDWord >> 16)
 901              		.loc 1 287 47
 902 0284 3B6B     		ldr	r3, [r7, #48]
 903 0286 1B0C     		lsrs	r3, r3, #16
 904              		.loc 1 287 27
 905 0288 DBB2     		uxtb	r3, r3
 906              		.loc 1 287 25
 907 028a 7B73     		strb	r3, [r7, #13]
 908              	.L38:
 288:Drivers/VL53L0X/core/src/vl53l0x_api_core.c **** 				& 0xff);
 289:Drivers/VL53L0X/core/src/vl53l0x_api_core.c **** 		}
 290:Drivers/VL53L0X/core/src/vl53l0x_api_core.c **** 
 291:Drivers/VL53L0X/core/src/vl53l0x_api_core.c **** 		if (((option & 2) == 2) &&
 909              		.loc 1 291 16
 910 028c FB78     		ldrb	r3, [r7, #3]	@ zero_extendqisi2
 911 028e 03F00203 		and	r3, r3, #2
 912              		.loc 1 291 6
 913 0292 002B     		cmp	r3, #0
ARM GAS  C:\Users\Morroway\AppData\Local\Temp\ccKjJYc2.s 			page 22


 914 0294 00F08981 		beq	.L39
 292:Drivers/VL53L0X/core/src/vl53l0x_api_core.c **** 			((ReadDataFromDeviceDone & 2) == 0)) {
 915              		.loc 1 292 29 discriminator 1
 916 0298 97F83F30 		ldrb	r3, [r7, #63]	@ zero_extendqisi2
 917 029c 03F00203 		and	r3, r3, #2
 291:Drivers/VL53L0X/core/src/vl53l0x_api_core.c **** 			((ReadDataFromDeviceDone & 2) == 0)) {
 918              		.loc 1 291 27 discriminator 1
 919 02a0 002B     		cmp	r3, #0
 920 02a2 40F08281 		bne	.L39
 293:Drivers/VL53L0X/core/src/vl53l0x_api_core.c **** 
 294:Drivers/VL53L0X/core/src/vl53l0x_api_core.c **** 			Status |= VL53L0X_WrByte(Dev, 0x94, 0x02);
 921              		.loc 1 294 14
 922 02a6 0222     		movs	r2, #2
 923 02a8 9421     		movs	r1, #148
 924 02aa 7868     		ldr	r0, [r7, #4]
 925 02ac FFF7FEFF 		bl	VL53L0X_WrByte
 926 02b0 0346     		mov	r3, r0
 927 02b2 1A46     		mov	r2, r3
 928              		.loc 1 294 11
 929 02b4 97F85F30 		ldrb	r3, [r7, #95]
 930 02b8 1343     		orrs	r3, r3, r2
 931 02ba 87F85F30 		strb	r3, [r7, #95]
 295:Drivers/VL53L0X/core/src/vl53l0x_api_core.c **** 			Status |= VL53L0X_device_read_strobe(Dev);
 932              		.loc 1 295 14
 933 02be 7868     		ldr	r0, [r7, #4]
 934 02c0 FFF7FEFF 		bl	VL53L0X_device_read_strobe
 935 02c4 0346     		mov	r3, r0
 936 02c6 1A46     		mov	r2, r3
 937              		.loc 1 295 11
 938 02c8 97F85F30 		ldrb	r3, [r7, #95]
 939 02cc 1343     		orrs	r3, r3, r2
 940 02ce 87F85F30 		strb	r3, [r7, #95]
 296:Drivers/VL53L0X/core/src/vl53l0x_api_core.c **** 			Status |= VL53L0X_RdByte(Dev, 0x90, &ModuleId);
 941              		.loc 1 296 14
 942 02d2 07F12F03 		add	r3, r7, #47
 943 02d6 1A46     		mov	r2, r3
 944 02d8 9021     		movs	r1, #144
 945 02da 7868     		ldr	r0, [r7, #4]
 946 02dc FFF7FEFF 		bl	VL53L0X_RdByte
 947 02e0 0346     		mov	r3, r0
 948 02e2 1A46     		mov	r2, r3
 949              		.loc 1 296 11
 950 02e4 97F85F30 		ldrb	r3, [r7, #95]
 951 02e8 1343     		orrs	r3, r3, r2
 952 02ea 87F85F30 		strb	r3, [r7, #95]
 297:Drivers/VL53L0X/core/src/vl53l0x_api_core.c **** 
 298:Drivers/VL53L0X/core/src/vl53l0x_api_core.c **** 			Status |= VL53L0X_WrByte(Dev, 0x94, 0x7B);
 953              		.loc 1 298 14
 954 02ee 7B22     		movs	r2, #123
 955 02f0 9421     		movs	r1, #148
 956 02f2 7868     		ldr	r0, [r7, #4]
 957 02f4 FFF7FEFF 		bl	VL53L0X_WrByte
 958 02f8 0346     		mov	r3, r0
 959 02fa 1A46     		mov	r2, r3
 960              		.loc 1 298 11
 961 02fc 97F85F30 		ldrb	r3, [r7, #95]
 962 0300 1343     		orrs	r3, r3, r2
ARM GAS  C:\Users\Morroway\AppData\Local\Temp\ccKjJYc2.s 			page 23


 963 0302 87F85F30 		strb	r3, [r7, #95]
 299:Drivers/VL53L0X/core/src/vl53l0x_api_core.c **** 			Status |= VL53L0X_device_read_strobe(Dev);
 964              		.loc 1 299 14
 965 0306 7868     		ldr	r0, [r7, #4]
 966 0308 FFF7FEFF 		bl	VL53L0X_device_read_strobe
 967 030c 0346     		mov	r3, r0
 968 030e 1A46     		mov	r2, r3
 969              		.loc 1 299 11
 970 0310 97F85F30 		ldrb	r3, [r7, #95]
 971 0314 1343     		orrs	r3, r3, r2
 972 0316 87F85F30 		strb	r3, [r7, #95]
 300:Drivers/VL53L0X/core/src/vl53l0x_api_core.c **** 			Status |= VL53L0X_RdByte(Dev, 0x90, &Revision);
 973              		.loc 1 300 14
 974 031a 07F12E03 		add	r3, r7, #46
 975 031e 1A46     		mov	r2, r3
 976 0320 9021     		movs	r1, #144
 977 0322 7868     		ldr	r0, [r7, #4]
 978 0324 FFF7FEFF 		bl	VL53L0X_RdByte
 979 0328 0346     		mov	r3, r0
 980 032a 1A46     		mov	r2, r3
 981              		.loc 1 300 11
 982 032c 97F85F30 		ldrb	r3, [r7, #95]
 983 0330 1343     		orrs	r3, r3, r2
 984 0332 87F85F30 		strb	r3, [r7, #95]
 301:Drivers/VL53L0X/core/src/vl53l0x_api_core.c **** 
 302:Drivers/VL53L0X/core/src/vl53l0x_api_core.c **** 			Status |= VL53L0X_WrByte(Dev, 0x94, 0x77);
 985              		.loc 1 302 14
 986 0336 7722     		movs	r2, #119
 987 0338 9421     		movs	r1, #148
 988 033a 7868     		ldr	r0, [r7, #4]
 989 033c FFF7FEFF 		bl	VL53L0X_WrByte
 990 0340 0346     		mov	r3, r0
 991 0342 1A46     		mov	r2, r3
 992              		.loc 1 302 11
 993 0344 97F85F30 		ldrb	r3, [r7, #95]
 994 0348 1343     		orrs	r3, r3, r2
 995 034a 87F85F30 		strb	r3, [r7, #95]
 303:Drivers/VL53L0X/core/src/vl53l0x_api_core.c **** 			Status |= VL53L0X_device_read_strobe(Dev);
 996              		.loc 1 303 14
 997 034e 7868     		ldr	r0, [r7, #4]
 998 0350 FFF7FEFF 		bl	VL53L0X_device_read_strobe
 999 0354 0346     		mov	r3, r0
 1000 0356 1A46     		mov	r2, r3
 1001              		.loc 1 303 11
 1002 0358 97F85F30 		ldrb	r3, [r7, #95]
 1003 035c 1343     		orrs	r3, r3, r2
 1004 035e 87F85F30 		strb	r3, [r7, #95]
 304:Drivers/VL53L0X/core/src/vl53l0x_api_core.c **** 			Status |= VL53L0X_RdDWord(Dev, 0x90, &TmpDWord);
 1005              		.loc 1 304 14
 1006 0362 07F13003 		add	r3, r7, #48
 1007 0366 1A46     		mov	r2, r3
 1008 0368 9021     		movs	r1, #144
 1009 036a 7868     		ldr	r0, [r7, #4]
 1010 036c FFF7FEFF 		bl	VL53L0X_RdDWord
 1011 0370 0346     		mov	r3, r0
 1012 0372 1A46     		mov	r2, r3
 1013              		.loc 1 304 11
ARM GAS  C:\Users\Morroway\AppData\Local\Temp\ccKjJYc2.s 			page 24


 1014 0374 97F85F30 		ldrb	r3, [r7, #95]
 1015 0378 1343     		orrs	r3, r3, r2
 1016 037a 87F85F30 		strb	r3, [r7, #95]
 305:Drivers/VL53L0X/core/src/vl53l0x_api_core.c **** 
 306:Drivers/VL53L0X/core/src/vl53l0x_api_core.c **** 			ProductId[0] = (char)((TmpDWord >> 25) & 0x07f);
 1017              		.loc 1 306 36
 1018 037e 3B6B     		ldr	r3, [r7, #48]
 1019 0380 5B0E     		lsrs	r3, r3, #25
 1020              		.loc 1 306 19
 1021 0382 DBB2     		uxtb	r3, r3
 1022 0384 03F07F03 		and	r3, r3, #127
 1023 0388 DBB2     		uxtb	r3, r3
 1024              		.loc 1 306 17
 1025 038a 3B74     		strb	r3, [r7, #16]
 307:Drivers/VL53L0X/core/src/vl53l0x_api_core.c **** 			ProductId[1] = (char)((TmpDWord >> 18) & 0x07f);
 1026              		.loc 1 307 36
 1027 038c 3B6B     		ldr	r3, [r7, #48]
 1028 038e 9B0C     		lsrs	r3, r3, #18
 1029              		.loc 1 307 19
 1030 0390 DBB2     		uxtb	r3, r3
 1031 0392 03F07F03 		and	r3, r3, #127
 1032 0396 DBB2     		uxtb	r3, r3
 1033              		.loc 1 307 17
 1034 0398 7B74     		strb	r3, [r7, #17]
 308:Drivers/VL53L0X/core/src/vl53l0x_api_core.c **** 			ProductId[2] = (char)((TmpDWord >> 11) & 0x07f);
 1035              		.loc 1 308 36
 1036 039a 3B6B     		ldr	r3, [r7, #48]
 1037 039c DB0A     		lsrs	r3, r3, #11
 1038              		.loc 1 308 19
 1039 039e DBB2     		uxtb	r3, r3
 1040 03a0 03F07F03 		and	r3, r3, #127
 1041 03a4 DBB2     		uxtb	r3, r3
 1042              		.loc 1 308 17
 1043 03a6 BB74     		strb	r3, [r7, #18]
 309:Drivers/VL53L0X/core/src/vl53l0x_api_core.c **** 			ProductId[3] = (char)((TmpDWord >> 4) & 0x07f);
 1044              		.loc 1 309 36
 1045 03a8 3B6B     		ldr	r3, [r7, #48]
 1046 03aa 1B09     		lsrs	r3, r3, #4
 1047              		.loc 1 309 19
 1048 03ac DBB2     		uxtb	r3, r3
 1049 03ae 03F07F03 		and	r3, r3, #127
 1050 03b2 DBB2     		uxtb	r3, r3
 1051              		.loc 1 309 17
 1052 03b4 FB74     		strb	r3, [r7, #19]
 310:Drivers/VL53L0X/core/src/vl53l0x_api_core.c **** 
 311:Drivers/VL53L0X/core/src/vl53l0x_api_core.c **** 			byte = (uint8_t)((TmpDWord & 0x00f) << 3);
 1053              		.loc 1 311 40
 1054 03b6 3B6B     		ldr	r3, [r7, #48]
 1055 03b8 DBB2     		uxtb	r3, r3
 1056 03ba DB00     		lsls	r3, r3, #3
 1057 03bc DBB2     		uxtb	r3, r3
 1058              		.loc 1 311 11
 1059 03be 03F07803 		and	r3, r3, #120
 1060 03c2 DBB2     		uxtb	r3, r3
 1061              		.loc 1 311 9
 1062 03c4 87F83730 		strb	r3, [r7, #55]
 312:Drivers/VL53L0X/core/src/vl53l0x_api_core.c **** 
ARM GAS  C:\Users\Morroway\AppData\Local\Temp\ccKjJYc2.s 			page 25


 313:Drivers/VL53L0X/core/src/vl53l0x_api_core.c **** 			Status |= VL53L0X_WrByte(Dev, 0x94, 0x78);
 1063              		.loc 1 313 14
 1064 03c8 7822     		movs	r2, #120
 1065 03ca 9421     		movs	r1, #148
 1066 03cc 7868     		ldr	r0, [r7, #4]
 1067 03ce FFF7FEFF 		bl	VL53L0X_WrByte
 1068 03d2 0346     		mov	r3, r0
 1069 03d4 1A46     		mov	r2, r3
 1070              		.loc 1 313 11
 1071 03d6 97F85F30 		ldrb	r3, [r7, #95]
 1072 03da 1343     		orrs	r3, r3, r2
 1073 03dc 87F85F30 		strb	r3, [r7, #95]
 314:Drivers/VL53L0X/core/src/vl53l0x_api_core.c **** 			Status |= VL53L0X_device_read_strobe(Dev);
 1074              		.loc 1 314 14
 1075 03e0 7868     		ldr	r0, [r7, #4]
 1076 03e2 FFF7FEFF 		bl	VL53L0X_device_read_strobe
 1077 03e6 0346     		mov	r3, r0
 1078 03e8 1A46     		mov	r2, r3
 1079              		.loc 1 314 11
 1080 03ea 97F85F30 		ldrb	r3, [r7, #95]
 1081 03ee 1343     		orrs	r3, r3, r2
 1082 03f0 87F85F30 		strb	r3, [r7, #95]
 315:Drivers/VL53L0X/core/src/vl53l0x_api_core.c **** 			Status |= VL53L0X_RdDWord(Dev, 0x90, &TmpDWord);
 1083              		.loc 1 315 14
 1084 03f4 07F13003 		add	r3, r7, #48
 1085 03f8 1A46     		mov	r2, r3
 1086 03fa 9021     		movs	r1, #144
 1087 03fc 7868     		ldr	r0, [r7, #4]
 1088 03fe FFF7FEFF 		bl	VL53L0X_RdDWord
 1089 0402 0346     		mov	r3, r0
 1090 0404 1A46     		mov	r2, r3
 1091              		.loc 1 315 11
 1092 0406 97F85F30 		ldrb	r3, [r7, #95]
 1093 040a 1343     		orrs	r3, r3, r2
 1094 040c 87F85F30 		strb	r3, [r7, #95]
 316:Drivers/VL53L0X/core/src/vl53l0x_api_core.c **** 
 317:Drivers/VL53L0X/core/src/vl53l0x_api_core.c **** 			ProductId[4] = (char)(byte +
 318:Drivers/VL53L0X/core/src/vl53l0x_api_core.c **** 					((TmpDWord >> 29) & 0x07f));
 1095              		.loc 1 318 17
 1096 0410 3B6B     		ldr	r3, [r7, #48]
 1097 0412 5B0F     		lsrs	r3, r3, #29
 1098              		.loc 1 318 24
 1099 0414 DBB2     		uxtb	r3, r3
 1100 0416 03F07F03 		and	r3, r3, #127
 1101 041a DAB2     		uxtb	r2, r3
 317:Drivers/VL53L0X/core/src/vl53l0x_api_core.c **** 					((TmpDWord >> 29) & 0x07f));
 1102              		.loc 1 317 19
 1103 041c 97F83730 		ldrb	r3, [r7, #55]	@ zero_extendqisi2
 1104 0420 1344     		add	r3, r3, r2
 1105 0422 DBB2     		uxtb	r3, r3
 317:Drivers/VL53L0X/core/src/vl53l0x_api_core.c **** 					((TmpDWord >> 29) & 0x07f));
 1106              		.loc 1 317 17
 1107 0424 3B75     		strb	r3, [r7, #20]
 319:Drivers/VL53L0X/core/src/vl53l0x_api_core.c **** 			ProductId[5] = (char)((TmpDWord >> 22) & 0x07f);
 1108              		.loc 1 319 36
 1109 0426 3B6B     		ldr	r3, [r7, #48]
 1110 0428 9B0D     		lsrs	r3, r3, #22
ARM GAS  C:\Users\Morroway\AppData\Local\Temp\ccKjJYc2.s 			page 26


 1111              		.loc 1 319 19
 1112 042a DBB2     		uxtb	r3, r3
 1113 042c 03F07F03 		and	r3, r3, #127
 1114 0430 DBB2     		uxtb	r3, r3
 1115              		.loc 1 319 17
 1116 0432 7B75     		strb	r3, [r7, #21]
 320:Drivers/VL53L0X/core/src/vl53l0x_api_core.c **** 			ProductId[6] = (char)((TmpDWord >> 15) & 0x07f);
 1117              		.loc 1 320 36
 1118 0434 3B6B     		ldr	r3, [r7, #48]
 1119 0436 DB0B     		lsrs	r3, r3, #15
 1120              		.loc 1 320 19
 1121 0438 DBB2     		uxtb	r3, r3
 1122 043a 03F07F03 		and	r3, r3, #127
 1123 043e DBB2     		uxtb	r3, r3
 1124              		.loc 1 320 17
 1125 0440 BB75     		strb	r3, [r7, #22]
 321:Drivers/VL53L0X/core/src/vl53l0x_api_core.c **** 			ProductId[7] = (char)((TmpDWord >> 8) & 0x07f);
 1126              		.loc 1 321 36
 1127 0442 3B6B     		ldr	r3, [r7, #48]
 1128 0444 1B0A     		lsrs	r3, r3, #8
 1129              		.loc 1 321 19
 1130 0446 DBB2     		uxtb	r3, r3
 1131 0448 03F07F03 		and	r3, r3, #127
 1132 044c DBB2     		uxtb	r3, r3
 1133              		.loc 1 321 17
 1134 044e FB75     		strb	r3, [r7, #23]
 322:Drivers/VL53L0X/core/src/vl53l0x_api_core.c **** 			ProductId[8] = (char)((TmpDWord >> 1) & 0x07f);
 1135              		.loc 1 322 36
 1136 0450 3B6B     		ldr	r3, [r7, #48]
 1137 0452 5B08     		lsrs	r3, r3, #1
 1138              		.loc 1 322 19
 1139 0454 DBB2     		uxtb	r3, r3
 1140 0456 03F07F03 		and	r3, r3, #127
 1141 045a DBB2     		uxtb	r3, r3
 1142              		.loc 1 322 17
 1143 045c 3B76     		strb	r3, [r7, #24]
 323:Drivers/VL53L0X/core/src/vl53l0x_api_core.c **** 
 324:Drivers/VL53L0X/core/src/vl53l0x_api_core.c **** 			byte = (uint8_t)((TmpDWord & 0x001) << 6);
 1144              		.loc 1 324 40
 1145 045e 3B6B     		ldr	r3, [r7, #48]
 1146 0460 DBB2     		uxtb	r3, r3
 1147 0462 9B01     		lsls	r3, r3, #6
 1148 0464 DBB2     		uxtb	r3, r3
 1149              		.loc 1 324 11
 1150 0466 03F04003 		and	r3, r3, #64
 1151 046a DBB2     		uxtb	r3, r3
 1152              		.loc 1 324 9
 1153 046c 87F83730 		strb	r3, [r7, #55]
 325:Drivers/VL53L0X/core/src/vl53l0x_api_core.c **** 
 326:Drivers/VL53L0X/core/src/vl53l0x_api_core.c **** 			Status |= VL53L0X_WrByte(Dev, 0x94, 0x79);
 1154              		.loc 1 326 14
 1155 0470 7922     		movs	r2, #121
 1156 0472 9421     		movs	r1, #148
 1157 0474 7868     		ldr	r0, [r7, #4]
 1158 0476 FFF7FEFF 		bl	VL53L0X_WrByte
 1159 047a 0346     		mov	r3, r0
 1160 047c 1A46     		mov	r2, r3
ARM GAS  C:\Users\Morroway\AppData\Local\Temp\ccKjJYc2.s 			page 27


 1161              		.loc 1 326 11
 1162 047e 97F85F30 		ldrb	r3, [r7, #95]
 1163 0482 1343     		orrs	r3, r3, r2
 1164 0484 87F85F30 		strb	r3, [r7, #95]
 327:Drivers/VL53L0X/core/src/vl53l0x_api_core.c **** 
 328:Drivers/VL53L0X/core/src/vl53l0x_api_core.c **** 			Status |= VL53L0X_device_read_strobe(Dev);
 1165              		.loc 1 328 14
 1166 0488 7868     		ldr	r0, [r7, #4]
 1167 048a FFF7FEFF 		bl	VL53L0X_device_read_strobe
 1168 048e 0346     		mov	r3, r0
 1169 0490 1A46     		mov	r2, r3
 1170              		.loc 1 328 11
 1171 0492 97F85F30 		ldrb	r3, [r7, #95]
 1172 0496 1343     		orrs	r3, r3, r2
 1173 0498 87F85F30 		strb	r3, [r7, #95]
 329:Drivers/VL53L0X/core/src/vl53l0x_api_core.c **** 
 330:Drivers/VL53L0X/core/src/vl53l0x_api_core.c **** 			Status |= VL53L0X_RdDWord(Dev, 0x90, &TmpDWord);
 1174              		.loc 1 330 14
 1175 049c 07F13003 		add	r3, r7, #48
 1176 04a0 1A46     		mov	r2, r3
 1177 04a2 9021     		movs	r1, #144
 1178 04a4 7868     		ldr	r0, [r7, #4]
 1179 04a6 FFF7FEFF 		bl	VL53L0X_RdDWord
 1180 04aa 0346     		mov	r3, r0
 1181 04ac 1A46     		mov	r2, r3
 1182              		.loc 1 330 11
 1183 04ae 97F85F30 		ldrb	r3, [r7, #95]
 1184 04b2 1343     		orrs	r3, r3, r2
 1185 04b4 87F85F30 		strb	r3, [r7, #95]
 331:Drivers/VL53L0X/core/src/vl53l0x_api_core.c **** 
 332:Drivers/VL53L0X/core/src/vl53l0x_api_core.c **** 			ProductId[9] = (char)(byte +
 333:Drivers/VL53L0X/core/src/vl53l0x_api_core.c **** 					((TmpDWord >> 26) & 0x07f));
 1186              		.loc 1 333 17
 1187 04b8 3B6B     		ldr	r3, [r7, #48]
 1188 04ba 9B0E     		lsrs	r3, r3, #26
 1189              		.loc 1 333 24
 1190 04bc DBB2     		uxtb	r3, r3
 1191 04be 03F07F03 		and	r3, r3, #127
 1192 04c2 DAB2     		uxtb	r2, r3
 332:Drivers/VL53L0X/core/src/vl53l0x_api_core.c **** 					((TmpDWord >> 26) & 0x07f));
 1193              		.loc 1 332 19
 1194 04c4 97F83730 		ldrb	r3, [r7, #55]	@ zero_extendqisi2
 1195 04c8 1344     		add	r3, r3, r2
 1196 04ca DBB2     		uxtb	r3, r3
 332:Drivers/VL53L0X/core/src/vl53l0x_api_core.c **** 					((TmpDWord >> 26) & 0x07f));
 1197              		.loc 1 332 17
 1198 04cc 7B76     		strb	r3, [r7, #25]
 334:Drivers/VL53L0X/core/src/vl53l0x_api_core.c **** 			ProductId[10] = (char)((TmpDWord >> 19) & 0x07f);
 1199              		.loc 1 334 37
 1200 04ce 3B6B     		ldr	r3, [r7, #48]
 1201 04d0 DB0C     		lsrs	r3, r3, #19
 1202              		.loc 1 334 20
 1203 04d2 DBB2     		uxtb	r3, r3
 1204 04d4 03F07F03 		and	r3, r3, #127
 1205 04d8 DBB2     		uxtb	r3, r3
 1206              		.loc 1 334 18
 1207 04da BB76     		strb	r3, [r7, #26]
ARM GAS  C:\Users\Morroway\AppData\Local\Temp\ccKjJYc2.s 			page 28


 335:Drivers/VL53L0X/core/src/vl53l0x_api_core.c **** 			ProductId[11] = (char)((TmpDWord >> 12) & 0x07f);
 1208              		.loc 1 335 37
 1209 04dc 3B6B     		ldr	r3, [r7, #48]
 1210 04de 1B0B     		lsrs	r3, r3, #12
 1211              		.loc 1 335 20
 1212 04e0 DBB2     		uxtb	r3, r3
 1213 04e2 03F07F03 		and	r3, r3, #127
 1214 04e6 DBB2     		uxtb	r3, r3
 1215              		.loc 1 335 18
 1216 04e8 FB76     		strb	r3, [r7, #27]
 336:Drivers/VL53L0X/core/src/vl53l0x_api_core.c **** 			ProductId[12] = (char)((TmpDWord >> 5) & 0x07f);
 1217              		.loc 1 336 37
 1218 04ea 3B6B     		ldr	r3, [r7, #48]
 1219 04ec 5B09     		lsrs	r3, r3, #5
 1220              		.loc 1 336 20
 1221 04ee DBB2     		uxtb	r3, r3
 1222 04f0 03F07F03 		and	r3, r3, #127
 1223 04f4 DBB2     		uxtb	r3, r3
 1224              		.loc 1 336 18
 1225 04f6 3B77     		strb	r3, [r7, #28]
 337:Drivers/VL53L0X/core/src/vl53l0x_api_core.c **** 
 338:Drivers/VL53L0X/core/src/vl53l0x_api_core.c **** 			byte = (uint8_t)((TmpDWord & 0x01f) << 2);
 1226              		.loc 1 338 40
 1227 04f8 3B6B     		ldr	r3, [r7, #48]
 1228 04fa DBB2     		uxtb	r3, r3
 1229 04fc 9B00     		lsls	r3, r3, #2
 1230 04fe DBB2     		uxtb	r3, r3
 1231              		.loc 1 338 11
 1232 0500 03F07C03 		and	r3, r3, #124
 1233 0504 DBB2     		uxtb	r3, r3
 1234              		.loc 1 338 9
 1235 0506 87F83730 		strb	r3, [r7, #55]
 339:Drivers/VL53L0X/core/src/vl53l0x_api_core.c **** 
 340:Drivers/VL53L0X/core/src/vl53l0x_api_core.c **** 			Status |= VL53L0X_WrByte(Dev, 0x94, 0x7A);
 1236              		.loc 1 340 14
 1237 050a 7A22     		movs	r2, #122
 1238 050c 9421     		movs	r1, #148
 1239 050e 7868     		ldr	r0, [r7, #4]
 1240 0510 FFF7FEFF 		bl	VL53L0X_WrByte
 1241 0514 0346     		mov	r3, r0
 1242 0516 1A46     		mov	r2, r3
 1243              		.loc 1 340 11
 1244 0518 97F85F30 		ldrb	r3, [r7, #95]
 1245 051c 1343     		orrs	r3, r3, r2
 1246 051e 87F85F30 		strb	r3, [r7, #95]
 341:Drivers/VL53L0X/core/src/vl53l0x_api_core.c **** 
 342:Drivers/VL53L0X/core/src/vl53l0x_api_core.c **** 			Status |= VL53L0X_device_read_strobe(Dev);
 1247              		.loc 1 342 14
 1248 0522 7868     		ldr	r0, [r7, #4]
 1249 0524 FFF7FEFF 		bl	VL53L0X_device_read_strobe
 1250 0528 0346     		mov	r3, r0
 1251 052a 1A46     		mov	r2, r3
 1252              		.loc 1 342 11
 1253 052c 97F85F30 		ldrb	r3, [r7, #95]
 1254 0530 1343     		orrs	r3, r3, r2
 1255 0532 87F85F30 		strb	r3, [r7, #95]
 343:Drivers/VL53L0X/core/src/vl53l0x_api_core.c **** 
ARM GAS  C:\Users\Morroway\AppData\Local\Temp\ccKjJYc2.s 			page 29


 344:Drivers/VL53L0X/core/src/vl53l0x_api_core.c **** 			Status |= VL53L0X_RdDWord(Dev, 0x90, &TmpDWord);
 1256              		.loc 1 344 14
 1257 0536 07F13003 		add	r3, r7, #48
 1258 053a 1A46     		mov	r2, r3
 1259 053c 9021     		movs	r1, #144
 1260 053e 7868     		ldr	r0, [r7, #4]
 1261 0540 FFF7FEFF 		bl	VL53L0X_RdDWord
 1262 0544 0346     		mov	r3, r0
 1263 0546 1A46     		mov	r2, r3
 1264              		.loc 1 344 11
 1265 0548 97F85F30 		ldrb	r3, [r7, #95]
 1266 054c 1343     		orrs	r3, r3, r2
 1267 054e 87F85F30 		strb	r3, [r7, #95]
 345:Drivers/VL53L0X/core/src/vl53l0x_api_core.c **** 
 346:Drivers/VL53L0X/core/src/vl53l0x_api_core.c **** 			ProductId[13] = (char)(byte +
 347:Drivers/VL53L0X/core/src/vl53l0x_api_core.c **** 					((TmpDWord >> 30) & 0x07f));
 1268              		.loc 1 347 17
 1269 0552 3B6B     		ldr	r3, [r7, #48]
 1270 0554 9B0F     		lsrs	r3, r3, #30
 1271              		.loc 1 347 24
 1272 0556 DBB2     		uxtb	r3, r3
 1273 0558 03F07F03 		and	r3, r3, #127
 1274 055c DAB2     		uxtb	r2, r3
 346:Drivers/VL53L0X/core/src/vl53l0x_api_core.c **** 					((TmpDWord >> 30) & 0x07f));
 1275              		.loc 1 346 20
 1276 055e 97F83730 		ldrb	r3, [r7, #55]	@ zero_extendqisi2
 1277 0562 1344     		add	r3, r3, r2
 1278 0564 DBB2     		uxtb	r3, r3
 346:Drivers/VL53L0X/core/src/vl53l0x_api_core.c **** 					((TmpDWord >> 30) & 0x07f));
 1279              		.loc 1 346 18
 1280 0566 7B77     		strb	r3, [r7, #29]
 348:Drivers/VL53L0X/core/src/vl53l0x_api_core.c **** 			ProductId[14] = (char)((TmpDWord >> 23) & 0x07f);
 1281              		.loc 1 348 37
 1282 0568 3B6B     		ldr	r3, [r7, #48]
 1283 056a DB0D     		lsrs	r3, r3, #23
 1284              		.loc 1 348 20
 1285 056c DBB2     		uxtb	r3, r3
 1286 056e 03F07F03 		and	r3, r3, #127
 1287 0572 DBB2     		uxtb	r3, r3
 1288              		.loc 1 348 18
 1289 0574 BB77     		strb	r3, [r7, #30]
 349:Drivers/VL53L0X/core/src/vl53l0x_api_core.c **** 			ProductId[15] = (char)((TmpDWord >> 16) & 0x07f);
 1290              		.loc 1 349 37
 1291 0576 3B6B     		ldr	r3, [r7, #48]
 1292 0578 1B0C     		lsrs	r3, r3, #16
 1293              		.loc 1 349 20
 1294 057a DBB2     		uxtb	r3, r3
 1295 057c 03F07F03 		and	r3, r3, #127
 1296 0580 DBB2     		uxtb	r3, r3
 1297              		.loc 1 349 18
 1298 0582 FB77     		strb	r3, [r7, #31]
 350:Drivers/VL53L0X/core/src/vl53l0x_api_core.c **** 			ProductId[16] = (char)((TmpDWord >> 9) & 0x07f);
 1299              		.loc 1 350 37
 1300 0584 3B6B     		ldr	r3, [r7, #48]
 1301 0586 5B0A     		lsrs	r3, r3, #9
 1302              		.loc 1 350 20
 1303 0588 DBB2     		uxtb	r3, r3
ARM GAS  C:\Users\Morroway\AppData\Local\Temp\ccKjJYc2.s 			page 30


 1304 058a 03F07F03 		and	r3, r3, #127
 1305 058e DBB2     		uxtb	r3, r3
 1306              		.loc 1 350 18
 1307 0590 87F82030 		strb	r3, [r7, #32]
 351:Drivers/VL53L0X/core/src/vl53l0x_api_core.c **** 			ProductId[17] = (char)((TmpDWord >> 2) & 0x07f);
 1308              		.loc 1 351 37
 1309 0594 3B6B     		ldr	r3, [r7, #48]
 1310 0596 9B08     		lsrs	r3, r3, #2
 1311              		.loc 1 351 20
 1312 0598 DBB2     		uxtb	r3, r3
 1313 059a 03F07F03 		and	r3, r3, #127
 1314 059e DBB2     		uxtb	r3, r3
 1315              		.loc 1 351 18
 1316 05a0 87F82130 		strb	r3, [r7, #33]
 352:Drivers/VL53L0X/core/src/vl53l0x_api_core.c **** 			ProductId[18] = '\0';
 1317              		.loc 1 352 18
 1318 05a4 0023     		movs	r3, #0
 1319 05a6 87F82230 		strb	r3, [r7, #34]
 1320              	.L39:
 353:Drivers/VL53L0X/core/src/vl53l0x_api_core.c **** 
 354:Drivers/VL53L0X/core/src/vl53l0x_api_core.c **** 		}
 355:Drivers/VL53L0X/core/src/vl53l0x_api_core.c **** 
 356:Drivers/VL53L0X/core/src/vl53l0x_api_core.c **** 		if (((option & 4) == 4) &&
 1321              		.loc 1 356 16
 1322 05aa FB78     		ldrb	r3, [r7, #3]	@ zero_extendqisi2
 1323 05ac 03F00403 		and	r3, r3, #4
 1324              		.loc 1 356 6
 1325 05b0 002B     		cmp	r3, #0
 1326 05b2 00F0F180 		beq	.L40
 357:Drivers/VL53L0X/core/src/vl53l0x_api_core.c **** 			((ReadDataFromDeviceDone & 4) == 0)) {
 1327              		.loc 1 357 29 discriminator 1
 1328 05b6 97F83F30 		ldrb	r3, [r7, #63]	@ zero_extendqisi2
 1329 05ba 03F00403 		and	r3, r3, #4
 356:Drivers/VL53L0X/core/src/vl53l0x_api_core.c **** 			((ReadDataFromDeviceDone & 4) == 0)) {
 1330              		.loc 1 356 27 discriminator 1
 1331 05be 002B     		cmp	r3, #0
 1332 05c0 40F0EA80 		bne	.L40
 358:Drivers/VL53L0X/core/src/vl53l0x_api_core.c **** 
 359:Drivers/VL53L0X/core/src/vl53l0x_api_core.c **** 			Status |= VL53L0X_WrByte(Dev, 0x94, 0x7B);
 1333              		.loc 1 359 14
 1334 05c4 7B22     		movs	r2, #123
 1335 05c6 9421     		movs	r1, #148
 1336 05c8 7868     		ldr	r0, [r7, #4]
 1337 05ca FFF7FEFF 		bl	VL53L0X_WrByte
 1338 05ce 0346     		mov	r3, r0
 1339 05d0 1A46     		mov	r2, r3
 1340              		.loc 1 359 11
 1341 05d2 97F85F30 		ldrb	r3, [r7, #95]
 1342 05d6 1343     		orrs	r3, r3, r2
 1343 05d8 87F85F30 		strb	r3, [r7, #95]
 360:Drivers/VL53L0X/core/src/vl53l0x_api_core.c **** 			Status |= VL53L0X_device_read_strobe(Dev);
 1344              		.loc 1 360 14
 1345 05dc 7868     		ldr	r0, [r7, #4]
 1346 05de FFF7FEFF 		bl	VL53L0X_device_read_strobe
 1347 05e2 0346     		mov	r3, r0
 1348 05e4 1A46     		mov	r2, r3
 1349              		.loc 1 360 11
ARM GAS  C:\Users\Morroway\AppData\Local\Temp\ccKjJYc2.s 			page 31


 1350 05e6 97F85F30 		ldrb	r3, [r7, #95]
 1351 05ea 1343     		orrs	r3, r3, r2
 1352 05ec 87F85F30 		strb	r3, [r7, #95]
 361:Drivers/VL53L0X/core/src/vl53l0x_api_core.c **** 			Status |= VL53L0X_RdDWord(Dev, 0x90, &PartUIDUpper);
 1353              		.loc 1 361 14
 1354 05f0 07F12803 		add	r3, r7, #40
 1355 05f4 1A46     		mov	r2, r3
 1356 05f6 9021     		movs	r1, #144
 1357 05f8 7868     		ldr	r0, [r7, #4]
 1358 05fa FFF7FEFF 		bl	VL53L0X_RdDWord
 1359 05fe 0346     		mov	r3, r0
 1360 0600 1A46     		mov	r2, r3
 1361              		.loc 1 361 11
 1362 0602 97F85F30 		ldrb	r3, [r7, #95]
 1363 0606 1343     		orrs	r3, r3, r2
 1364 0608 87F85F30 		strb	r3, [r7, #95]
 362:Drivers/VL53L0X/core/src/vl53l0x_api_core.c **** 
 363:Drivers/VL53L0X/core/src/vl53l0x_api_core.c **** 			Status |= VL53L0X_WrByte(Dev, 0x94, 0x7C);
 1365              		.loc 1 363 14
 1366 060c 7C22     		movs	r2, #124
 1367 060e 9421     		movs	r1, #148
 1368 0610 7868     		ldr	r0, [r7, #4]
 1369 0612 FFF7FEFF 		bl	VL53L0X_WrByte
 1370 0616 0346     		mov	r3, r0
 1371 0618 1A46     		mov	r2, r3
 1372              		.loc 1 363 11
 1373 061a 97F85F30 		ldrb	r3, [r7, #95]
 1374 061e 1343     		orrs	r3, r3, r2
 1375 0620 87F85F30 		strb	r3, [r7, #95]
 364:Drivers/VL53L0X/core/src/vl53l0x_api_core.c **** 			Status |= VL53L0X_device_read_strobe(Dev);
 1376              		.loc 1 364 14
 1377 0624 7868     		ldr	r0, [r7, #4]
 1378 0626 FFF7FEFF 		bl	VL53L0X_device_read_strobe
 1379 062a 0346     		mov	r3, r0
 1380 062c 1A46     		mov	r2, r3
 1381              		.loc 1 364 11
 1382 062e 97F85F30 		ldrb	r3, [r7, #95]
 1383 0632 1343     		orrs	r3, r3, r2
 1384 0634 87F85F30 		strb	r3, [r7, #95]
 365:Drivers/VL53L0X/core/src/vl53l0x_api_core.c **** 			Status |= VL53L0X_RdDWord(Dev, 0x90, &PartUIDLower);
 1385              		.loc 1 365 14
 1386 0638 07F12403 		add	r3, r7, #36
 1387 063c 1A46     		mov	r2, r3
 1388 063e 9021     		movs	r1, #144
 1389 0640 7868     		ldr	r0, [r7, #4]
 1390 0642 FFF7FEFF 		bl	VL53L0X_RdDWord
 1391 0646 0346     		mov	r3, r0
 1392 0648 1A46     		mov	r2, r3
 1393              		.loc 1 365 11
 1394 064a 97F85F30 		ldrb	r3, [r7, #95]
 1395 064e 1343     		orrs	r3, r3, r2
 1396 0650 87F85F30 		strb	r3, [r7, #95]
 366:Drivers/VL53L0X/core/src/vl53l0x_api_core.c **** 
 367:Drivers/VL53L0X/core/src/vl53l0x_api_core.c **** 			Status |= VL53L0X_WrByte(Dev, 0x94, 0x73);
 1397              		.loc 1 367 14
 1398 0654 7322     		movs	r2, #115
 1399 0656 9421     		movs	r1, #148
ARM GAS  C:\Users\Morroway\AppData\Local\Temp\ccKjJYc2.s 			page 32


 1400 0658 7868     		ldr	r0, [r7, #4]
 1401 065a FFF7FEFF 		bl	VL53L0X_WrByte
 1402 065e 0346     		mov	r3, r0
 1403 0660 1A46     		mov	r2, r3
 1404              		.loc 1 367 11
 1405 0662 97F85F30 		ldrb	r3, [r7, #95]
 1406 0666 1343     		orrs	r3, r3, r2
 1407 0668 87F85F30 		strb	r3, [r7, #95]
 368:Drivers/VL53L0X/core/src/vl53l0x_api_core.c **** 			Status |= VL53L0X_device_read_strobe(Dev);
 1408              		.loc 1 368 14
 1409 066c 7868     		ldr	r0, [r7, #4]
 1410 066e FFF7FEFF 		bl	VL53L0X_device_read_strobe
 1411 0672 0346     		mov	r3, r0
 1412 0674 1A46     		mov	r2, r3
 1413              		.loc 1 368 11
 1414 0676 97F85F30 		ldrb	r3, [r7, #95]
 1415 067a 1343     		orrs	r3, r3, r2
 1416 067c 87F85F30 		strb	r3, [r7, #95]
 369:Drivers/VL53L0X/core/src/vl53l0x_api_core.c **** 			Status |= VL53L0X_RdDWord(Dev, 0x90, &TmpDWord);
 1417              		.loc 1 369 14
 1418 0680 07F13003 		add	r3, r7, #48
 1419 0684 1A46     		mov	r2, r3
 1420 0686 9021     		movs	r1, #144
 1421 0688 7868     		ldr	r0, [r7, #4]
 1422 068a FFF7FEFF 		bl	VL53L0X_RdDWord
 1423 068e 0346     		mov	r3, r0
 1424 0690 1A46     		mov	r2, r3
 1425              		.loc 1 369 11
 1426 0692 97F85F30 		ldrb	r3, [r7, #95]
 1427 0696 1343     		orrs	r3, r3, r2
 1428 0698 87F85F30 		strb	r3, [r7, #95]
 370:Drivers/VL53L0X/core/src/vl53l0x_api_core.c **** 
 371:Drivers/VL53L0X/core/src/vl53l0x_api_core.c **** 			SignalRateMeasFixed1104_400_mm = (TmpDWord &
 372:Drivers/VL53L0X/core/src/vl53l0x_api_core.c **** 				0x0000000ff) << 8;
 1429              		.loc 1 372 18
 1430 069c 3B6B     		ldr	r3, [r7, #48]
 1431 069e 1B02     		lsls	r3, r3, #8
 371:Drivers/VL53L0X/core/src/vl53l0x_api_core.c **** 				0x0000000ff) << 8;
 1432              		.loc 1 371 35
 1433 06a0 9BB2     		uxth	r3, r3
 1434 06a2 3B65     		str	r3, [r7, #80]
 373:Drivers/VL53L0X/core/src/vl53l0x_api_core.c **** 
 374:Drivers/VL53L0X/core/src/vl53l0x_api_core.c **** 			Status |= VL53L0X_WrByte(Dev, 0x94, 0x74);
 1435              		.loc 1 374 14
 1436 06a4 7422     		movs	r2, #116
 1437 06a6 9421     		movs	r1, #148
 1438 06a8 7868     		ldr	r0, [r7, #4]
 1439 06aa FFF7FEFF 		bl	VL53L0X_WrByte
 1440 06ae 0346     		mov	r3, r0
 1441 06b0 1A46     		mov	r2, r3
 1442              		.loc 1 374 11
 1443 06b2 97F85F30 		ldrb	r3, [r7, #95]
 1444 06b6 1343     		orrs	r3, r3, r2
 1445 06b8 87F85F30 		strb	r3, [r7, #95]
 375:Drivers/VL53L0X/core/src/vl53l0x_api_core.c **** 			Status |= VL53L0X_device_read_strobe(Dev);
 1446              		.loc 1 375 14
 1447 06bc 7868     		ldr	r0, [r7, #4]
ARM GAS  C:\Users\Morroway\AppData\Local\Temp\ccKjJYc2.s 			page 33


 1448 06be FFF7FEFF 		bl	VL53L0X_device_read_strobe
 1449 06c2 0346     		mov	r3, r0
 1450 06c4 1A46     		mov	r2, r3
 1451              		.loc 1 375 11
 1452 06c6 97F85F30 		ldrb	r3, [r7, #95]
 1453 06ca 1343     		orrs	r3, r3, r2
 1454 06cc 87F85F30 		strb	r3, [r7, #95]
 376:Drivers/VL53L0X/core/src/vl53l0x_api_core.c **** 			Status |= VL53L0X_RdDWord(Dev, 0x90, &TmpDWord);
 1455              		.loc 1 376 14
 1456 06d0 07F13003 		add	r3, r7, #48
 1457 06d4 1A46     		mov	r2, r3
 1458 06d6 9021     		movs	r1, #144
 1459 06d8 7868     		ldr	r0, [r7, #4]
 1460 06da FFF7FEFF 		bl	VL53L0X_RdDWord
 1461 06de 0346     		mov	r3, r0
 1462 06e0 1A46     		mov	r2, r3
 1463              		.loc 1 376 11
 1464 06e2 97F85F30 		ldrb	r3, [r7, #95]
 1465 06e6 1343     		orrs	r3, r3, r2
 1466 06e8 87F85F30 		strb	r3, [r7, #95]
 377:Drivers/VL53L0X/core/src/vl53l0x_api_core.c **** 
 378:Drivers/VL53L0X/core/src/vl53l0x_api_core.c **** 			SignalRateMeasFixed1104_400_mm |= ((TmpDWord &
 379:Drivers/VL53L0X/core/src/vl53l0x_api_core.c **** 				0xff000000) >> 24);
 1467              		.loc 1 379 17
 1468 06ec 3B6B     		ldr	r3, [r7, #48]
 1469 06ee 1B0E     		lsrs	r3, r3, #24
 378:Drivers/VL53L0X/core/src/vl53l0x_api_core.c **** 				0xff000000) >> 24);
 1470              		.loc 1 378 35
 1471 06f0 3A6D     		ldr	r2, [r7, #80]
 1472 06f2 1343     		orrs	r3, r3, r2
 1473 06f4 3B65     		str	r3, [r7, #80]
 380:Drivers/VL53L0X/core/src/vl53l0x_api_core.c **** 
 381:Drivers/VL53L0X/core/src/vl53l0x_api_core.c **** 			Status |= VL53L0X_WrByte(Dev, 0x94, 0x75);
 1474              		.loc 1 381 14
 1475 06f6 7522     		movs	r2, #117
 1476 06f8 9421     		movs	r1, #148
 1477 06fa 7868     		ldr	r0, [r7, #4]
 1478 06fc FFF7FEFF 		bl	VL53L0X_WrByte
 1479 0700 0346     		mov	r3, r0
 1480 0702 1A46     		mov	r2, r3
 1481              		.loc 1 381 11
 1482 0704 97F85F30 		ldrb	r3, [r7, #95]
 1483 0708 1343     		orrs	r3, r3, r2
 1484 070a 87F85F30 		strb	r3, [r7, #95]
 382:Drivers/VL53L0X/core/src/vl53l0x_api_core.c **** 			Status |= VL53L0X_device_read_strobe(Dev);
 1485              		.loc 1 382 14
 1486 070e 7868     		ldr	r0, [r7, #4]
 1487 0710 FFF7FEFF 		bl	VL53L0X_device_read_strobe
 1488 0714 0346     		mov	r3, r0
 1489 0716 1A46     		mov	r2, r3
 1490              		.loc 1 382 11
 1491 0718 97F85F30 		ldrb	r3, [r7, #95]
 1492 071c 1343     		orrs	r3, r3, r2
 1493 071e 87F85F30 		strb	r3, [r7, #95]
 383:Drivers/VL53L0X/core/src/vl53l0x_api_core.c **** 			Status |= VL53L0X_RdDWord(Dev, 0x90, &TmpDWord);
 1494              		.loc 1 383 14
 1495 0722 07F13003 		add	r3, r7, #48
ARM GAS  C:\Users\Morroway\AppData\Local\Temp\ccKjJYc2.s 			page 34


 1496 0726 1A46     		mov	r2, r3
 1497 0728 9021     		movs	r1, #144
 1498 072a 7868     		ldr	r0, [r7, #4]
 1499 072c FFF7FEFF 		bl	VL53L0X_RdDWord
 1500 0730 0346     		mov	r3, r0
 1501 0732 1A46     		mov	r2, r3
 1502              		.loc 1 383 11
 1503 0734 97F85F30 		ldrb	r3, [r7, #95]
 1504 0738 1343     		orrs	r3, r3, r2
 1505 073a 87F85F30 		strb	r3, [r7, #95]
 384:Drivers/VL53L0X/core/src/vl53l0x_api_core.c **** 
 385:Drivers/VL53L0X/core/src/vl53l0x_api_core.c **** 			DistMeasFixed1104_400_mm = (TmpDWord & 0x0000000ff)
 386:Drivers/VL53L0X/core/src/vl53l0x_api_core.c **** 							<< 8;
 1506              		.loc 1 386 8
 1507 073e 3B6B     		ldr	r3, [r7, #48]
 1508 0740 1B02     		lsls	r3, r3, #8
 385:Drivers/VL53L0X/core/src/vl53l0x_api_core.c **** 							<< 8;
 1509              		.loc 1 385 29
 1510 0742 9BB2     		uxth	r3, r3
 1511 0744 7B65     		str	r3, [r7, #84]
 387:Drivers/VL53L0X/core/src/vl53l0x_api_core.c **** 
 388:Drivers/VL53L0X/core/src/vl53l0x_api_core.c **** 			Status |= VL53L0X_WrByte(Dev, 0x94, 0x76);
 1512              		.loc 1 388 14
 1513 0746 7622     		movs	r2, #118
 1514 0748 9421     		movs	r1, #148
 1515 074a 7868     		ldr	r0, [r7, #4]
 1516 074c FFF7FEFF 		bl	VL53L0X_WrByte
 1517 0750 0346     		mov	r3, r0
 1518 0752 1A46     		mov	r2, r3
 1519              		.loc 1 388 11
 1520 0754 97F85F30 		ldrb	r3, [r7, #95]
 1521 0758 1343     		orrs	r3, r3, r2
 1522 075a 87F85F30 		strb	r3, [r7, #95]
 389:Drivers/VL53L0X/core/src/vl53l0x_api_core.c **** 			Status |= VL53L0X_device_read_strobe(Dev);
 1523              		.loc 1 389 14
 1524 075e 7868     		ldr	r0, [r7, #4]
 1525 0760 FFF7FEFF 		bl	VL53L0X_device_read_strobe
 1526 0764 0346     		mov	r3, r0
 1527 0766 1A46     		mov	r2, r3
 1528              		.loc 1 389 11
 1529 0768 97F85F30 		ldrb	r3, [r7, #95]
 1530 076c 1343     		orrs	r3, r3, r2
 1531 076e 87F85F30 		strb	r3, [r7, #95]
 390:Drivers/VL53L0X/core/src/vl53l0x_api_core.c **** 			Status |= VL53L0X_RdDWord(Dev, 0x90, &TmpDWord);
 1532              		.loc 1 390 14
 1533 0772 07F13003 		add	r3, r7, #48
 1534 0776 1A46     		mov	r2, r3
 1535 0778 9021     		movs	r1, #144
 1536 077a 7868     		ldr	r0, [r7, #4]
 1537 077c FFF7FEFF 		bl	VL53L0X_RdDWord
 1538 0780 0346     		mov	r3, r0
 1539 0782 1A46     		mov	r2, r3
 1540              		.loc 1 390 11
 1541 0784 97F85F30 		ldrb	r3, [r7, #95]
 1542 0788 1343     		orrs	r3, r3, r2
 1543 078a 87F85F30 		strb	r3, [r7, #95]
 391:Drivers/VL53L0X/core/src/vl53l0x_api_core.c **** 
ARM GAS  C:\Users\Morroway\AppData\Local\Temp\ccKjJYc2.s 			page 35


 392:Drivers/VL53L0X/core/src/vl53l0x_api_core.c **** 			DistMeasFixed1104_400_mm |= ((TmpDWord & 0xff000000)
 393:Drivers/VL53L0X/core/src/vl53l0x_api_core.c **** 							>> 24);
 1544              		.loc 1 393 8
 1545 078e 3B6B     		ldr	r3, [r7, #48]
 1546 0790 1B0E     		lsrs	r3, r3, #24
 392:Drivers/VL53L0X/core/src/vl53l0x_api_core.c **** 							>> 24);
 1547              		.loc 1 392 29
 1548 0792 7A6D     		ldr	r2, [r7, #84]
 1549 0794 1343     		orrs	r3, r3, r2
 1550 0796 7B65     		str	r3, [r7, #84]
 1551              	.L40:
 394:Drivers/VL53L0X/core/src/vl53l0x_api_core.c **** 		}
 395:Drivers/VL53L0X/core/src/vl53l0x_api_core.c **** 
 396:Drivers/VL53L0X/core/src/vl53l0x_api_core.c **** 		Status |= VL53L0X_WrByte(Dev, 0x81, 0x00);
 1552              		.loc 1 396 13
 1553 0798 0022     		movs	r2, #0
 1554 079a 8121     		movs	r1, #129
 1555 079c 7868     		ldr	r0, [r7, #4]
 1556 079e FFF7FEFF 		bl	VL53L0X_WrByte
 1557 07a2 0346     		mov	r3, r0
 1558 07a4 1A46     		mov	r2, r3
 1559              		.loc 1 396 10
 1560 07a6 97F85F30 		ldrb	r3, [r7, #95]
 1561 07aa 1343     		orrs	r3, r3, r2
 1562 07ac 87F85F30 		strb	r3, [r7, #95]
 397:Drivers/VL53L0X/core/src/vl53l0x_api_core.c **** 		Status |= VL53L0X_WrByte(Dev, 0xFF, 0x06);
 1563              		.loc 1 397 13
 1564 07b0 0622     		movs	r2, #6
 1565 07b2 FF21     		movs	r1, #255
 1566 07b4 7868     		ldr	r0, [r7, #4]
 1567 07b6 FFF7FEFF 		bl	VL53L0X_WrByte
 1568 07ba 0346     		mov	r3, r0
 1569 07bc 1A46     		mov	r2, r3
 1570              		.loc 1 397 10
 1571 07be 97F85F30 		ldrb	r3, [r7, #95]
 1572 07c2 1343     		orrs	r3, r3, r2
 1573 07c4 87F85F30 		strb	r3, [r7, #95]
 398:Drivers/VL53L0X/core/src/vl53l0x_api_core.c **** 		Status |= VL53L0X_RdByte(Dev, 0x83, &byte);
 1574              		.loc 1 398 13
 1575 07c8 07F13703 		add	r3, r7, #55
 1576 07cc 1A46     		mov	r2, r3
 1577 07ce 8321     		movs	r1, #131
 1578 07d0 7868     		ldr	r0, [r7, #4]
 1579 07d2 FFF7FEFF 		bl	VL53L0X_RdByte
 1580 07d6 0346     		mov	r3, r0
 1581 07d8 1A46     		mov	r2, r3
 1582              		.loc 1 398 10
 1583 07da 97F85F30 		ldrb	r3, [r7, #95]
 1584 07de 1343     		orrs	r3, r3, r2
 1585 07e0 87F85F30 		strb	r3, [r7, #95]
 399:Drivers/VL53L0X/core/src/vl53l0x_api_core.c **** 		Status |= VL53L0X_WrByte(Dev, 0x83, byte&0xfb);
 1586              		.loc 1 399 13
 1587 07e4 97F83730 		ldrb	r3, [r7, #55]	@ zero_extendqisi2
 1588 07e8 23F00403 		bic	r3, r3, #4
 1589 07ec DBB2     		uxtb	r3, r3
 1590 07ee 1A46     		mov	r2, r3
 1591 07f0 8321     		movs	r1, #131
ARM GAS  C:\Users\Morroway\AppData\Local\Temp\ccKjJYc2.s 			page 36


 1592 07f2 7868     		ldr	r0, [r7, #4]
 1593 07f4 FFF7FEFF 		bl	VL53L0X_WrByte
 1594 07f8 0346     		mov	r3, r0
 1595 07fa 1A46     		mov	r2, r3
 1596              		.loc 1 399 10
 1597 07fc 97F85F30 		ldrb	r3, [r7, #95]
 1598 0800 1343     		orrs	r3, r3, r2
 1599 0802 87F85F30 		strb	r3, [r7, #95]
 400:Drivers/VL53L0X/core/src/vl53l0x_api_core.c **** 		Status |= VL53L0X_WrByte(Dev, 0xFF, 0x01);
 1600              		.loc 1 400 13
 1601 0806 0122     		movs	r2, #1
 1602 0808 FF21     		movs	r1, #255
 1603 080a 7868     		ldr	r0, [r7, #4]
 1604 080c FFF7FEFF 		bl	VL53L0X_WrByte
 1605 0810 0346     		mov	r3, r0
 1606 0812 1A46     		mov	r2, r3
 1607              		.loc 1 400 10
 1608 0814 97F85F30 		ldrb	r3, [r7, #95]
 1609 0818 1343     		orrs	r3, r3, r2
 1610 081a 87F85F30 		strb	r3, [r7, #95]
 401:Drivers/VL53L0X/core/src/vl53l0x_api_core.c **** 		Status |= VL53L0X_WrByte(Dev, 0x00, 0x01);
 1611              		.loc 1 401 13
 1612 081e 0122     		movs	r2, #1
 1613 0820 0021     		movs	r1, #0
 1614 0822 7868     		ldr	r0, [r7, #4]
 1615 0824 FFF7FEFF 		bl	VL53L0X_WrByte
 1616 0828 0346     		mov	r3, r0
 1617 082a 1A46     		mov	r2, r3
 1618              		.loc 1 401 10
 1619 082c 97F85F30 		ldrb	r3, [r7, #95]
 1620 0830 1343     		orrs	r3, r3, r2
 1621 0832 87F85F30 		strb	r3, [r7, #95]
 402:Drivers/VL53L0X/core/src/vl53l0x_api_core.c **** 
 403:Drivers/VL53L0X/core/src/vl53l0x_api_core.c **** 		Status |= VL53L0X_WrByte(Dev, 0xFF, 0x00);
 1622              		.loc 1 403 13
 1623 0836 0022     		movs	r2, #0
 1624 0838 FF21     		movs	r1, #255
 1625 083a 7868     		ldr	r0, [r7, #4]
 1626 083c FFF7FEFF 		bl	VL53L0X_WrByte
 1627 0840 0346     		mov	r3, r0
 1628 0842 1A46     		mov	r2, r3
 1629              		.loc 1 403 10
 1630 0844 97F85F30 		ldrb	r3, [r7, #95]
 1631 0848 1343     		orrs	r3, r3, r2
 1632 084a 87F85F30 		strb	r3, [r7, #95]
 404:Drivers/VL53L0X/core/src/vl53l0x_api_core.c **** 		Status |= VL53L0X_WrByte(Dev, 0x80, 0x00);
 1633              		.loc 1 404 13
 1634 084e 0022     		movs	r2, #0
 1635 0850 8021     		movs	r1, #128
 1636 0852 7868     		ldr	r0, [r7, #4]
 1637 0854 FFF7FEFF 		bl	VL53L0X_WrByte
 1638 0858 0346     		mov	r3, r0
 1639 085a 1A46     		mov	r2, r3
 1640              		.loc 1 404 10
 1641 085c 97F85F30 		ldrb	r3, [r7, #95]
 1642 0860 1343     		orrs	r3, r3, r2
 1643 0862 87F85F30 		strb	r3, [r7, #95]
ARM GAS  C:\Users\Morroway\AppData\Local\Temp\ccKjJYc2.s 			page 37


 1644              	.L37:
 405:Drivers/VL53L0X/core/src/vl53l0x_api_core.c **** 	}
 406:Drivers/VL53L0X/core/src/vl53l0x_api_core.c **** 
 407:Drivers/VL53L0X/core/src/vl53l0x_api_core.c **** 	if ((Status == VL53L0X_ERROR_NONE) &&
 1645              		.loc 1 407 5
 1646 0866 97F95F30 		ldrsb	r3, [r7, #95]
 1647 086a 002B     		cmp	r3, #0
 1648 086c 40F08F80 		bne	.L41
 1649              		.loc 1 407 37 discriminator 1
 1650 0870 97F83F30 		ldrb	r3, [r7, #63]	@ zero_extendqisi2
 1651 0874 072B     		cmp	r3, #7
 1652 0876 00F08A80 		beq	.L41
 408:Drivers/VL53L0X/core/src/vl53l0x_api_core.c **** 		(ReadDataFromDeviceDone != 7)) {
 409:Drivers/VL53L0X/core/src/vl53l0x_api_core.c **** 		/* Assign to variable if status is ok */
 410:Drivers/VL53L0X/core/src/vl53l0x_api_core.c **** 		if (((option & 1) == 1) &&
 1653              		.loc 1 410 16
 1654 087a FB78     		ldrb	r3, [r7, #3]	@ zero_extendqisi2
 1655 087c 03F00103 		and	r3, r3, #1
 1656              		.loc 1 410 6
 1657 0880 002B     		cmp	r3, #0
 1658 0882 24D0     		beq	.L42
 411:Drivers/VL53L0X/core/src/vl53l0x_api_core.c **** 			((ReadDataFromDeviceDone & 1) == 0)) {
 1659              		.loc 1 411 29 discriminator 1
 1660 0884 97F83F30 		ldrb	r3, [r7, #63]	@ zero_extendqisi2
 1661 0888 03F00103 		and	r3, r3, #1
 410:Drivers/VL53L0X/core/src/vl53l0x_api_core.c **** 			((ReadDataFromDeviceDone & 1) == 0)) {
 1662              		.loc 1 410 27 discriminator 1
 1663 088c 002B     		cmp	r3, #0
 1664 088e 1ED1     		bne	.L42
 412:Drivers/VL53L0X/core/src/vl53l0x_api_core.c **** 			VL53L0X_SETDEVICESPECIFICPARAMETER(Dev,
 1665              		.loc 1 412 4
 1666 0890 7B68     		ldr	r3, [r7, #4]
 1667 0892 97F85E20 		ldrb	r2, [r7, #94]
 1668 0896 83F81321 		strb	r2, [r3, #275]
 413:Drivers/VL53L0X/core/src/vl53l0x_api_core.c **** 				ReferenceSpadCount, ReferenceSpadCount);
 414:Drivers/VL53L0X/core/src/vl53l0x_api_core.c **** 
 415:Drivers/VL53L0X/core/src/vl53l0x_api_core.c **** 			VL53L0X_SETDEVICESPECIFICPARAMETER(Dev,
 1669              		.loc 1 415 4
 1670 089a 7B68     		ldr	r3, [r7, #4]
 1671 089c 97F85D20 		ldrb	r2, [r7, #93]
 1672 08a0 83F81421 		strb	r2, [r3, #276]
 416:Drivers/VL53L0X/core/src/vl53l0x_api_core.c **** 				ReferenceSpadType, ReferenceSpadType);
 417:Drivers/VL53L0X/core/src/vl53l0x_api_core.c **** 
 418:Drivers/VL53L0X/core/src/vl53l0x_api_core.c **** 			for (i = 0; i < VL53L0X_REF_SPAD_BUFFER_SIZE; i++) {
 1673              		.loc 1 418 11
 1674 08a4 0023     		movs	r3, #0
 1675 08a6 FB64     		str	r3, [r7, #76]
 1676              		.loc 1 418 4
 1677 08a8 0EE0     		b	.L43
 1678              	.L44:
 419:Drivers/VL53L0X/core/src/vl53l0x_api_core.c **** 				Dev->Data.SpadData.RefGoodSpadMap[i] =
 420:Drivers/VL53L0X/core/src/vl53l0x_api_core.c **** 					NvmRefGoodSpadMap[i];
 1679              		.loc 1 420 23 discriminator 3
 1680 08aa 07F10802 		add	r2, r7, #8
 1681 08ae FB6C     		ldr	r3, [r7, #76]
 1682 08b0 1344     		add	r3, r3, r2
 1683 08b2 1978     		ldrb	r1, [r3]	@ zero_extendqisi2
ARM GAS  C:\Users\Morroway\AppData\Local\Temp\ccKjJYc2.s 			page 38


 419:Drivers/VL53L0X/core/src/vl53l0x_api_core.c **** 				Dev->Data.SpadData.RefGoodSpadMap[i] =
 1684              		.loc 1 419 42 discriminator 3
 1685 08b4 7A68     		ldr	r2, [r7, #4]
 1686 08b6 FB6C     		ldr	r3, [r7, #76]
 1687 08b8 1344     		add	r3, r3, r2
 1688 08ba 03F59573 		add	r3, r3, #298
 1689 08be 0A46     		mov	r2, r1
 1690 08c0 1A70     		strb	r2, [r3]
 418:Drivers/VL53L0X/core/src/vl53l0x_api_core.c **** 				Dev->Data.SpadData.RefGoodSpadMap[i] =
 1691              		.loc 1 418 51 discriminator 3
 1692 08c2 FB6C     		ldr	r3, [r7, #76]
 1693 08c4 0133     		adds	r3, r3, #1
 1694 08c6 FB64     		str	r3, [r7, #76]
 1695              	.L43:
 418:Drivers/VL53L0X/core/src/vl53l0x_api_core.c **** 				Dev->Data.SpadData.RefGoodSpadMap[i] =
 1696              		.loc 1 418 18 discriminator 1
 1697 08c8 FB6C     		ldr	r3, [r7, #76]
 1698 08ca 052B     		cmp	r3, #5
 1699 08cc EDDD     		ble	.L44
 1700              	.L42:
 421:Drivers/VL53L0X/core/src/vl53l0x_api_core.c **** 			}
 422:Drivers/VL53L0X/core/src/vl53l0x_api_core.c **** 		}
 423:Drivers/VL53L0X/core/src/vl53l0x_api_core.c **** 
 424:Drivers/VL53L0X/core/src/vl53l0x_api_core.c **** 		if (((option & 2) == 2) &&
 1701              		.loc 1 424 16
 1702 08ce FB78     		ldrb	r3, [r7, #3]	@ zero_extendqisi2
 1703 08d0 03F00203 		and	r3, r3, #2
 1704              		.loc 1 424 6
 1705 08d4 002B     		cmp	r3, #0
 1706 08d6 18D0     		beq	.L45
 425:Drivers/VL53L0X/core/src/vl53l0x_api_core.c **** 			((ReadDataFromDeviceDone & 2) == 0)) {
 1707              		.loc 1 425 29 discriminator 1
 1708 08d8 97F83F30 		ldrb	r3, [r7, #63]	@ zero_extendqisi2
 1709 08dc 03F00203 		and	r3, r3, #2
 424:Drivers/VL53L0X/core/src/vl53l0x_api_core.c **** 			((ReadDataFromDeviceDone & 2) == 0)) {
 1710              		.loc 1 424 27 discriminator 1
 1711 08e0 002B     		cmp	r3, #0
 1712 08e2 12D1     		bne	.L45
 426:Drivers/VL53L0X/core/src/vl53l0x_api_core.c **** 			VL53L0X_SETDEVICESPECIFICPARAMETER(Dev,
 1713              		.loc 1 426 4
 1714 08e4 97F82F20 		ldrb	r2, [r7, #47]	@ zero_extendqisi2
 1715 08e8 7B68     		ldr	r3, [r7, #4]
 1716 08ea 83F8F120 		strb	r2, [r3, #241]
 427:Drivers/VL53L0X/core/src/vl53l0x_api_core.c **** 					ModuleId, ModuleId);
 428:Drivers/VL53L0X/core/src/vl53l0x_api_core.c **** 
 429:Drivers/VL53L0X/core/src/vl53l0x_api_core.c **** 			VL53L0X_SETDEVICESPECIFICPARAMETER(Dev,
 1717              		.loc 1 429 4
 1718 08ee 97F82E20 		ldrb	r2, [r7, #46]	@ zero_extendqisi2
 1719 08f2 7B68     		ldr	r3, [r7, #4]
 1720 08f4 83F8F220 		strb	r2, [r3, #242]
 430:Drivers/VL53L0X/core/src/vl53l0x_api_core.c **** 					Revision, Revision);
 431:Drivers/VL53L0X/core/src/vl53l0x_api_core.c **** 
 432:Drivers/VL53L0X/core/src/vl53l0x_api_core.c **** 			ProductId_tmp = VL53L0X_GETDEVICESPECIFICPARAMETER(Dev,
 1721              		.loc 1 432 18
 1722 08f8 7B68     		ldr	r3, [r7, #4]
 1723 08fa F333     		adds	r3, r3, #243
 1724 08fc BB63     		str	r3, [r7, #56]
ARM GAS  C:\Users\Morroway\AppData\Local\Temp\ccKjJYc2.s 			page 39


 433:Drivers/VL53L0X/core/src/vl53l0x_api_core.c **** 					ProductId);
 434:Drivers/VL53L0X/core/src/vl53l0x_api_core.c **** 			VL53L0X_COPYSTRING(ProductId_tmp, ProductId);
 1725              		.loc 1 434 4
 1726 08fe 07F11003 		add	r3, r7, #16
 1727 0902 1946     		mov	r1, r3
 1728 0904 B86B     		ldr	r0, [r7, #56]
 1729 0906 FFF7FEFF 		bl	strcpy
 1730              	.L45:
 435:Drivers/VL53L0X/core/src/vl53l0x_api_core.c **** 
 436:Drivers/VL53L0X/core/src/vl53l0x_api_core.c **** 		}
 437:Drivers/VL53L0X/core/src/vl53l0x_api_core.c **** 
 438:Drivers/VL53L0X/core/src/vl53l0x_api_core.c **** 		if (((option & 4) == 4) &&
 1731              		.loc 1 438 16
 1732 090a FB78     		ldrb	r3, [r7, #3]	@ zero_extendqisi2
 1733 090c 03F00403 		and	r3, r3, #4
 1734              		.loc 1 438 6
 1735 0910 002B     		cmp	r3, #0
 1736 0912 30D0     		beq	.L46
 439:Drivers/VL53L0X/core/src/vl53l0x_api_core.c **** 			((ReadDataFromDeviceDone & 4) == 0)) {
 1737              		.loc 1 439 29 discriminator 1
 1738 0914 97F83F30 		ldrb	r3, [r7, #63]	@ zero_extendqisi2
 1739 0918 03F00403 		and	r3, r3, #4
 438:Drivers/VL53L0X/core/src/vl53l0x_api_core.c **** 			((ReadDataFromDeviceDone & 4) == 0)) {
 1740              		.loc 1 438 27 discriminator 1
 1741 091c 002B     		cmp	r3, #0
 1742 091e 2AD1     		bne	.L46
 440:Drivers/VL53L0X/core/src/vl53l0x_api_core.c **** 			VL53L0X_SETDEVICESPECIFICPARAMETER(Dev,
 1743              		.loc 1 440 4
 1744 0920 BA6A     		ldr	r2, [r7, #40]
 1745 0922 7B68     		ldr	r3, [r7, #4]
 1746 0924 C3F81821 		str	r2, [r3, #280]
 441:Drivers/VL53L0X/core/src/vl53l0x_api_core.c **** 						PartUIDUpper, PartUIDUpper);
 442:Drivers/VL53L0X/core/src/vl53l0x_api_core.c **** 
 443:Drivers/VL53L0X/core/src/vl53l0x_api_core.c **** 			VL53L0X_SETDEVICESPECIFICPARAMETER(Dev,
 1747              		.loc 1 443 4
 1748 0928 7A6A     		ldr	r2, [r7, #36]
 1749 092a 7B68     		ldr	r3, [r7, #4]
 1750 092c C3F81C21 		str	r2, [r3, #284]
 444:Drivers/VL53L0X/core/src/vl53l0x_api_core.c **** 						PartUIDLower, PartUIDLower);
 445:Drivers/VL53L0X/core/src/vl53l0x_api_core.c **** 
 446:Drivers/VL53L0X/core/src/vl53l0x_api_core.c **** 			SignalRateMeasFixed400mmFix =
 1751              		.loc 1 446 32
 1752 0930 3B6D     		ldr	r3, [r7, #80]
 1753 0932 5B02     		lsls	r3, r3, #9
 1754 0934 3B64     		str	r3, [r7, #64]
 447:Drivers/VL53L0X/core/src/vl53l0x_api_core.c **** 				VL53L0X_FIXPOINT97TOFIXPOINT1616(
 448:Drivers/VL53L0X/core/src/vl53l0x_api_core.c **** 					SignalRateMeasFixed1104_400_mm);
 449:Drivers/VL53L0X/core/src/vl53l0x_api_core.c **** 
 450:Drivers/VL53L0X/core/src/vl53l0x_api_core.c **** 			VL53L0X_SETDEVICESPECIFICPARAMETER(Dev,
 1755              		.loc 1 450 4
 1756 0936 7B68     		ldr	r3, [r7, #4]
 1757 0938 3A6C     		ldr	r2, [r7, #64]
 1758 093a C3F82021 		str	r2, [r3, #288]
 451:Drivers/VL53L0X/core/src/vl53l0x_api_core.c **** 				SignalRateMeasFixed400mm,
 452:Drivers/VL53L0X/core/src/vl53l0x_api_core.c **** 				SignalRateMeasFixed400mmFix);
 453:Drivers/VL53L0X/core/src/vl53l0x_api_core.c **** 
 454:Drivers/VL53L0X/core/src/vl53l0x_api_core.c **** 			OffsetMicroMeters = 0;
ARM GAS  C:\Users\Morroway\AppData\Local\Temp\ccKjJYc2.s 			page 40


 1759              		.loc 1 454 22
 1760 093e 0023     		movs	r3, #0
 1761 0940 A7F85A30 		strh	r3, [r7, #90]	@ movhi
 455:Drivers/VL53L0X/core/src/vl53l0x_api_core.c **** 			if (DistMeasFixed1104_400_mm != 0) {
 1762              		.loc 1 455 7
 1763 0944 7B6D     		ldr	r3, [r7, #84]
 1764 0946 002B     		cmp	r3, #0
 1765 0948 11D0     		beq	.L47
 456:Drivers/VL53L0X/core/src/vl53l0x_api_core.c **** 					OffsetFixed1104_mm =
 1766              		.loc 1 456 25
 1767 094a 7A6D     		ldr	r2, [r7, #84]
 1768 094c 7B6C     		ldr	r3, [r7, #68]
 1769 094e D31A     		subs	r3, r2, r3
 1770 0950 BB64     		str	r3, [r7, #72]
 457:Drivers/VL53L0X/core/src/vl53l0x_api_core.c **** 						DistMeasFixed1104_400_mm -
 458:Drivers/VL53L0X/core/src/vl53l0x_api_core.c **** 						DistMeasTgtFixed1104_mm;
 459:Drivers/VL53L0X/core/src/vl53l0x_api_core.c **** 					OffsetMicroMeters = (OffsetFixed1104_mm
 460:Drivers/VL53L0X/core/src/vl53l0x_api_core.c **** 						* 1000) >> 4;
 1771              		.loc 1 460 7
 1772 0952 BB6C     		ldr	r3, [r7, #72]
 1773 0954 4FF47A72 		mov	r2, #1000
 1774 0958 02FB03F3 		mul	r3, r2, r3
 1775              		.loc 1 460 15
 1776 095c 1B09     		lsrs	r3, r3, #4
 459:Drivers/VL53L0X/core/src/vl53l0x_api_core.c **** 						* 1000) >> 4;
 1777              		.loc 1 459 24
 1778 095e A7F85A30 		strh	r3, [r7, #90]	@ movhi
 461:Drivers/VL53L0X/core/src/vl53l0x_api_core.c **** 					OffsetMicroMeters *= -1;
 1779              		.loc 1 461 24
 1780 0962 B7F85A30 		ldrh	r3, [r7, #90]
 1781 0966 5B42     		rsbs	r3, r3, #0
 1782 0968 9BB2     		uxth	r3, r3
 1783 096a A7F85A30 		strh	r3, [r7, #90]	@ movhi
 1784              	.L47:
 462:Drivers/VL53L0X/core/src/vl53l0x_api_core.c **** 			}
 463:Drivers/VL53L0X/core/src/vl53l0x_api_core.c **** 
 464:Drivers/VL53L0X/core/src/vl53l0x_api_core.c **** 			PALDevDataSet(Dev,
 1785              		.loc 1 464 4
 1786 096e B7F95A20 		ldrsh	r2, [r7, #90]
 1787 0972 7B68     		ldr	r3, [r7, #4]
 1788 0974 DA60     		str	r2, [r3, #12]
 1789              	.L46:
 465:Drivers/VL53L0X/core/src/vl53l0x_api_core.c **** 				Part2PartOffsetAdjustmentNVMMicroMeter,
 466:Drivers/VL53L0X/core/src/vl53l0x_api_core.c **** 				OffsetMicroMeters);
 467:Drivers/VL53L0X/core/src/vl53l0x_api_core.c **** 		}
 468:Drivers/VL53L0X/core/src/vl53l0x_api_core.c **** 		byte = (uint8_t)(ReadDataFromDeviceDone|option);
 1790              		.loc 1 468 10
 1791 0976 97F83F20 		ldrb	r2, [r7, #63]
 1792 097a FB78     		ldrb	r3, [r7, #3]
 1793 097c 1343     		orrs	r3, r3, r2
 1794 097e DBB2     		uxtb	r3, r3
 1795              		.loc 1 468 8
 1796 0980 87F83730 		strb	r3, [r7, #55]
 469:Drivers/VL53L0X/core/src/vl53l0x_api_core.c **** 		VL53L0X_SETDEVICESPECIFICPARAMETER(Dev, ReadDataFromDeviceDone,
 1797              		.loc 1 469 3
 1798 0984 97F83720 		ldrb	r2, [r7, #55]	@ zero_extendqisi2
 1799 0988 7B68     		ldr	r3, [r7, #4]
ARM GAS  C:\Users\Morroway\AppData\Local\Temp\ccKjJYc2.s 			page 41


 1800 098a 83F8F020 		strb	r2, [r3, #240]
 1801              	.L41:
 470:Drivers/VL53L0X/core/src/vl53l0x_api_core.c **** 				byte);
 471:Drivers/VL53L0X/core/src/vl53l0x_api_core.c **** 	}
 472:Drivers/VL53L0X/core/src/vl53l0x_api_core.c **** 
 473:Drivers/VL53L0X/core/src/vl53l0x_api_core.c **** 	LOG_FUNCTION_END(Status);
 474:Drivers/VL53L0X/core/src/vl53l0x_api_core.c **** 	return Status;
 1802              		.loc 1 474 9
 1803 098e 97F95F30 		ldrsb	r3, [r7, #95]
 475:Drivers/VL53L0X/core/src/vl53l0x_api_core.c **** }
 1804              		.loc 1 475 1
 1805 0992 1846     		mov	r0, r3
 1806 0994 6037     		adds	r7, r7, #96
 1807              		.cfi_def_cfa_offset 8
 1808 0996 BD46     		mov	sp, r7
 1809              		.cfi_def_cfa_register 13
 1810              		@ sp needed
 1811 0998 80BD     		pop	{r7, pc}
 1812              		.cfi_endproc
 1813              	.LFE331:
 1815              		.section	.text.VL53L0X_calc_macro_period_ps,"ax",%progbits
 1816              		.align	1
 1817              		.global	VL53L0X_calc_macro_period_ps
 1818              		.syntax unified
 1819              		.thumb
 1820              		.thumb_func
 1822              	VL53L0X_calc_macro_period_ps:
 1823              	.LFB332:
 476:Drivers/VL53L0X/core/src/vl53l0x_api_core.c **** 
 477:Drivers/VL53L0X/core/src/vl53l0x_api_core.c **** 
 478:Drivers/VL53L0X/core/src/vl53l0x_api_core.c **** uint32_t VL53L0X_calc_macro_period_ps(VL53L0X_DEV Dev, uint8_t vcsel_period_pclks)
 479:Drivers/VL53L0X/core/src/vl53l0x_api_core.c **** {
 1824              		.loc 1 479 1
 1825              		.cfi_startproc
 1826              		@ args = 0, pretend = 0, frame = 24
 1827              		@ frame_needed = 1, uses_anonymous_args = 0
 1828              		@ link register save eliminated.
 1829 0000 80B4     		push	{r7}
 1830              		.cfi_def_cfa_offset 4
 1831              		.cfi_offset 7, -4
 1832 0002 87B0     		sub	sp, sp, #28
 1833              		.cfi_def_cfa_offset 32
 1834 0004 00AF     		add	r7, sp, #0
 1835              		.cfi_def_cfa_register 7
 1836 0006 7860     		str	r0, [r7, #4]
 1837 0008 0B46     		mov	r3, r1
 1838 000a FB70     		strb	r3, [r7, #3]
 480:Drivers/VL53L0X/core/src/vl53l0x_api_core.c **** 	uint64_t PLL_period_ps;
 481:Drivers/VL53L0X/core/src/vl53l0x_api_core.c **** 	uint32_t macro_period_vclks;
 482:Drivers/VL53L0X/core/src/vl53l0x_api_core.c **** 	uint32_t macro_period_ps;
 483:Drivers/VL53L0X/core/src/vl53l0x_api_core.c **** 
 484:Drivers/VL53L0X/core/src/vl53l0x_api_core.c **** 	LOG_FUNCTION_START("");
 485:Drivers/VL53L0X/core/src/vl53l0x_api_core.c **** 
 486:Drivers/VL53L0X/core/src/vl53l0x_api_core.c **** 	/* The above calculation will produce rounding errors,
 487:Drivers/VL53L0X/core/src/vl53l0x_api_core.c **** 	   therefore set fixed value
 488:Drivers/VL53L0X/core/src/vl53l0x_api_core.c **** 	*/
 489:Drivers/VL53L0X/core/src/vl53l0x_api_core.c **** 	PLL_period_ps = 1655;
ARM GAS  C:\Users\Morroway\AppData\Local\Temp\ccKjJYc2.s 			page 42


 1839              		.loc 1 489 16
 1840 000c 40F27762 		movw	r2, #1655
 1841 0010 4FF00003 		mov	r3, #0
 1842 0014 C7E90423 		strd	r2, [r7, #16]
 490:Drivers/VL53L0X/core/src/vl53l0x_api_core.c **** 
 491:Drivers/VL53L0X/core/src/vl53l0x_api_core.c **** 	macro_period_vclks = 2304;
 1843              		.loc 1 491 21
 1844 0018 4FF41063 		mov	r3, #2304
 1845 001c FB60     		str	r3, [r7, #12]
 492:Drivers/VL53L0X/core/src/vl53l0x_api_core.c **** 	macro_period_ps = (uint32_t)(macro_period_vclks
 493:Drivers/VL53L0X/core/src/vl53l0x_api_core.c **** 			* vcsel_period_pclks * PLL_period_ps);
 1846              		.loc 1 493 4
 1847 001e FB78     		ldrb	r3, [r7, #3]	@ zero_extendqisi2
 1848 0020 FA68     		ldr	r2, [r7, #12]
 1849 0022 02FB03F3 		mul	r3, r2, r3
 492:Drivers/VL53L0X/core/src/vl53l0x_api_core.c **** 	macro_period_ps = (uint32_t)(macro_period_vclks
 1850              		.loc 1 492 20
 1851 0026 3A69     		ldr	r2, [r7, #16]
 492:Drivers/VL53L0X/core/src/vl53l0x_api_core.c **** 	macro_period_ps = (uint32_t)(macro_period_vclks
 1852              		.loc 1 492 18
 1853 0028 02FB03F3 		mul	r3, r2, r3
 1854 002c BB60     		str	r3, [r7, #8]
 494:Drivers/VL53L0X/core/src/vl53l0x_api_core.c **** 
 495:Drivers/VL53L0X/core/src/vl53l0x_api_core.c **** 	LOG_FUNCTION_END("");
 496:Drivers/VL53L0X/core/src/vl53l0x_api_core.c **** 	return macro_period_ps;
 1855              		.loc 1 496 9
 1856 002e BB68     		ldr	r3, [r7, #8]
 497:Drivers/VL53L0X/core/src/vl53l0x_api_core.c **** }
 1857              		.loc 1 497 1
 1858 0030 1846     		mov	r0, r3
 1859 0032 1C37     		adds	r7, r7, #28
 1860              		.cfi_def_cfa_offset 4
 1861 0034 BD46     		mov	sp, r7
 1862              		.cfi_def_cfa_register 13
 1863              		@ sp needed
 1864 0036 5DF8047B 		ldr	r7, [sp], #4
 1865              		.cfi_restore 7
 1866              		.cfi_def_cfa_offset 0
 1867 003a 7047     		bx	lr
 1868              		.cfi_endproc
 1869              	.LFE332:
 1871              		.section	.text.VL53L0X_encode_timeout,"ax",%progbits
 1872              		.align	1
 1873              		.global	VL53L0X_encode_timeout
 1874              		.syntax unified
 1875              		.thumb
 1876              		.thumb_func
 1878              	VL53L0X_encode_timeout:
 1879              	.LFB333:
 498:Drivers/VL53L0X/core/src/vl53l0x_api_core.c **** 
 499:Drivers/VL53L0X/core/src/vl53l0x_api_core.c **** uint16_t VL53L0X_encode_timeout(uint32_t timeout_macro_clks)
 500:Drivers/VL53L0X/core/src/vl53l0x_api_core.c **** {
 1880              		.loc 1 500 1
 1881              		.cfi_startproc
 1882              		@ args = 0, pretend = 0, frame = 24
 1883              		@ frame_needed = 1, uses_anonymous_args = 0
 1884              		@ link register save eliminated.
ARM GAS  C:\Users\Morroway\AppData\Local\Temp\ccKjJYc2.s 			page 43


 1885 0000 80B4     		push	{r7}
 1886              		.cfi_def_cfa_offset 4
 1887              		.cfi_offset 7, -4
 1888 0002 87B0     		sub	sp, sp, #28
 1889              		.cfi_def_cfa_offset 32
 1890 0004 00AF     		add	r7, sp, #0
 1891              		.cfi_def_cfa_register 7
 1892 0006 7860     		str	r0, [r7, #4]
 501:Drivers/VL53L0X/core/src/vl53l0x_api_core.c **** 	/*!
 502:Drivers/VL53L0X/core/src/vl53l0x_api_core.c **** 	 * Encode timeout in macro periods in (LSByte * 2^MSByte) + 1 format
 503:Drivers/VL53L0X/core/src/vl53l0x_api_core.c **** 	 */
 504:Drivers/VL53L0X/core/src/vl53l0x_api_core.c **** 
 505:Drivers/VL53L0X/core/src/vl53l0x_api_core.c **** 	uint16_t encoded_timeout = 0;
 1893              		.loc 1 505 11
 1894 0008 0023     		movs	r3, #0
 1895 000a FB82     		strh	r3, [r7, #22]	@ movhi
 506:Drivers/VL53L0X/core/src/vl53l0x_api_core.c **** 	uint32_t ls_byte = 0;
 1896              		.loc 1 506 11
 1897 000c 0023     		movs	r3, #0
 1898 000e 3B61     		str	r3, [r7, #16]
 507:Drivers/VL53L0X/core/src/vl53l0x_api_core.c **** 	uint16_t ms_byte = 0;
 1899              		.loc 1 507 11
 1900 0010 0023     		movs	r3, #0
 1901 0012 FB81     		strh	r3, [r7, #14]	@ movhi
 508:Drivers/VL53L0X/core/src/vl53l0x_api_core.c **** 
 509:Drivers/VL53L0X/core/src/vl53l0x_api_core.c **** 	if (timeout_macro_clks > 0) {
 1902              		.loc 1 509 5
 1903 0014 7B68     		ldr	r3, [r7, #4]
 1904 0016 002B     		cmp	r3, #0
 1905 0018 17D0     		beq	.L52
 510:Drivers/VL53L0X/core/src/vl53l0x_api_core.c **** 		ls_byte = timeout_macro_clks - 1;
 1906              		.loc 1 510 11
 1907 001a 7B68     		ldr	r3, [r7, #4]
 1908 001c 013B     		subs	r3, r3, #1
 1909 001e 3B61     		str	r3, [r7, #16]
 511:Drivers/VL53L0X/core/src/vl53l0x_api_core.c **** 
 512:Drivers/VL53L0X/core/src/vl53l0x_api_core.c **** 		while ((ls_byte & 0xFFFFFF00) > 0) {
 1910              		.loc 1 512 9
 1911 0020 05E0     		b	.L53
 1912              	.L54:
 513:Drivers/VL53L0X/core/src/vl53l0x_api_core.c **** 			ls_byte = ls_byte >> 1;
 1913              		.loc 1 513 12
 1914 0022 3B69     		ldr	r3, [r7, #16]
 1915 0024 5B08     		lsrs	r3, r3, #1
 1916 0026 3B61     		str	r3, [r7, #16]
 514:Drivers/VL53L0X/core/src/vl53l0x_api_core.c **** 			ms_byte++;
 1917              		.loc 1 514 11
 1918 0028 FB89     		ldrh	r3, [r7, #14]
 1919 002a 0133     		adds	r3, r3, #1
 1920 002c FB81     		strh	r3, [r7, #14]	@ movhi
 1921              	.L53:
 512:Drivers/VL53L0X/core/src/vl53l0x_api_core.c **** 			ls_byte = ls_byte >> 1;
 1922              		.loc 1 512 19
 1923 002e 3B69     		ldr	r3, [r7, #16]
 1924 0030 23F0FF03 		bic	r3, r3, #255
 512:Drivers/VL53L0X/core/src/vl53l0x_api_core.c **** 			ls_byte = ls_byte >> 1;
 1925              		.loc 1 512 33
ARM GAS  C:\Users\Morroway\AppData\Local\Temp\ccKjJYc2.s 			page 44


 1926 0034 002B     		cmp	r3, #0
 1927 0036 F4D1     		bne	.L54
 515:Drivers/VL53L0X/core/src/vl53l0x_api_core.c **** 		}
 516:Drivers/VL53L0X/core/src/vl53l0x_api_core.c **** 
 517:Drivers/VL53L0X/core/src/vl53l0x_api_core.c **** 		encoded_timeout = (ms_byte << 8)
 1928              		.loc 1 517 30
 1929 0038 FB89     		ldrh	r3, [r7, #14]	@ movhi
 1930 003a 1B02     		lsls	r3, r3, #8
 1931 003c 9AB2     		uxth	r2, r3
 518:Drivers/VL53L0X/core/src/vl53l0x_api_core.c **** 				+ (uint16_t) (ls_byte & 0x000000FF);
 1932              		.loc 1 518 7
 1933 003e 3B69     		ldr	r3, [r7, #16]
 1934 0040 9BB2     		uxth	r3, r3
 1935 0042 DBB2     		uxtb	r3, r3
 1936 0044 9BB2     		uxth	r3, r3
 517:Drivers/VL53L0X/core/src/vl53l0x_api_core.c **** 				+ (uint16_t) (ls_byte & 0x000000FF);
 1937              		.loc 1 517 19
 1938 0046 1344     		add	r3, r3, r2
 1939 0048 FB82     		strh	r3, [r7, #22]	@ movhi
 1940              	.L52:
 519:Drivers/VL53L0X/core/src/vl53l0x_api_core.c **** 	}
 520:Drivers/VL53L0X/core/src/vl53l0x_api_core.c **** 
 521:Drivers/VL53L0X/core/src/vl53l0x_api_core.c **** 	return encoded_timeout;
 1941              		.loc 1 521 9
 1942 004a FB8A     		ldrh	r3, [r7, #22]
 522:Drivers/VL53L0X/core/src/vl53l0x_api_core.c **** 
 523:Drivers/VL53L0X/core/src/vl53l0x_api_core.c **** }
 1943              		.loc 1 523 1
 1944 004c 1846     		mov	r0, r3
 1945 004e 1C37     		adds	r7, r7, #28
 1946              		.cfi_def_cfa_offset 4
 1947 0050 BD46     		mov	sp, r7
 1948              		.cfi_def_cfa_register 13
 1949              		@ sp needed
 1950 0052 5DF8047B 		ldr	r7, [sp], #4
 1951              		.cfi_restore 7
 1952              		.cfi_def_cfa_offset 0
 1953 0056 7047     		bx	lr
 1954              		.cfi_endproc
 1955              	.LFE333:
 1957              		.section	.text.VL53L0X_decode_timeout,"ax",%progbits
 1958              		.align	1
 1959              		.global	VL53L0X_decode_timeout
 1960              		.syntax unified
 1961              		.thumb
 1962              		.thumb_func
 1964              	VL53L0X_decode_timeout:
 1965              	.LFB334:
 524:Drivers/VL53L0X/core/src/vl53l0x_api_core.c **** 
 525:Drivers/VL53L0X/core/src/vl53l0x_api_core.c **** uint32_t VL53L0X_decode_timeout(uint16_t encoded_timeout)
 526:Drivers/VL53L0X/core/src/vl53l0x_api_core.c **** {
 1966              		.loc 1 526 1
 1967              		.cfi_startproc
 1968              		@ args = 0, pretend = 0, frame = 16
 1969              		@ frame_needed = 1, uses_anonymous_args = 0
 1970              		@ link register save eliminated.
 1971 0000 80B4     		push	{r7}
ARM GAS  C:\Users\Morroway\AppData\Local\Temp\ccKjJYc2.s 			page 45


 1972              		.cfi_def_cfa_offset 4
 1973              		.cfi_offset 7, -4
 1974 0002 85B0     		sub	sp, sp, #20
 1975              		.cfi_def_cfa_offset 24
 1976 0004 00AF     		add	r7, sp, #0
 1977              		.cfi_def_cfa_register 7
 1978 0006 0346     		mov	r3, r0
 1979 0008 FB80     		strh	r3, [r7, #6]	@ movhi
 527:Drivers/VL53L0X/core/src/vl53l0x_api_core.c **** 	/*!
 528:Drivers/VL53L0X/core/src/vl53l0x_api_core.c **** 	 * Decode 16-bit timeout register value - format (LSByte * 2^MSByte) + 1
 529:Drivers/VL53L0X/core/src/vl53l0x_api_core.c **** 	 */
 530:Drivers/VL53L0X/core/src/vl53l0x_api_core.c **** 
 531:Drivers/VL53L0X/core/src/vl53l0x_api_core.c **** 	uint32_t timeout_macro_clks = 0;
 1980              		.loc 1 531 11
 1981 000a 0023     		movs	r3, #0
 1982 000c FB60     		str	r3, [r7, #12]
 532:Drivers/VL53L0X/core/src/vl53l0x_api_core.c **** 
 533:Drivers/VL53L0X/core/src/vl53l0x_api_core.c **** 	timeout_macro_clks = ((uint32_t) (encoded_timeout & 0x00FF)
 1983              		.loc 1 533 52
 1984 000e FB88     		ldrh	r3, [r7, #6]
 1985              		.loc 1 533 24
 1986 0010 DBB2     		uxtb	r3, r3
 534:Drivers/VL53L0X/core/src/vl53l0x_api_core.c **** 			<< (uint32_t) ((encoded_timeout & 0xFF00) >> 8)) + 1;
 1987              		.loc 1 534 46
 1988 0012 FA88     		ldrh	r2, [r7, #6]
 1989 0014 120A     		lsrs	r2, r2, #8
 1990 0016 92B2     		uxth	r2, r2
 1991              		.loc 1 534 4
 1992 0018 9340     		lsls	r3, r3, r2
 533:Drivers/VL53L0X/core/src/vl53l0x_api_core.c **** 			<< (uint32_t) ((encoded_timeout & 0xFF00) >> 8)) + 1;
 1993              		.loc 1 533 21
 1994 001a 0133     		adds	r3, r3, #1
 1995 001c FB60     		str	r3, [r7, #12]
 535:Drivers/VL53L0X/core/src/vl53l0x_api_core.c **** 
 536:Drivers/VL53L0X/core/src/vl53l0x_api_core.c **** 	return timeout_macro_clks;
 1996              		.loc 1 536 9
 1997 001e FB68     		ldr	r3, [r7, #12]
 537:Drivers/VL53L0X/core/src/vl53l0x_api_core.c **** }
 1998              		.loc 1 537 1
 1999 0020 1846     		mov	r0, r3
 2000 0022 1437     		adds	r7, r7, #20
 2001              		.cfi_def_cfa_offset 4
 2002 0024 BD46     		mov	sp, r7
 2003              		.cfi_def_cfa_register 13
 2004              		@ sp needed
 2005 0026 5DF8047B 		ldr	r7, [sp], #4
 2006              		.cfi_restore 7
 2007              		.cfi_def_cfa_offset 0
 2008 002a 7047     		bx	lr
 2009              		.cfi_endproc
 2010              	.LFE334:
 2012              		.section	.text.VL53L0X_calc_timeout_mclks,"ax",%progbits
 2013              		.align	1
 2014              		.global	VL53L0X_calc_timeout_mclks
 2015              		.syntax unified
 2016              		.thumb
 2017              		.thumb_func
ARM GAS  C:\Users\Morroway\AppData\Local\Temp\ccKjJYc2.s 			page 46


 2019              	VL53L0X_calc_timeout_mclks:
 2020              	.LFB335:
 538:Drivers/VL53L0X/core/src/vl53l0x_api_core.c **** 
 539:Drivers/VL53L0X/core/src/vl53l0x_api_core.c **** 
 540:Drivers/VL53L0X/core/src/vl53l0x_api_core.c **** /* To convert ms into register value */
 541:Drivers/VL53L0X/core/src/vl53l0x_api_core.c **** uint32_t VL53L0X_calc_timeout_mclks(VL53L0X_DEV Dev,
 542:Drivers/VL53L0X/core/src/vl53l0x_api_core.c **** 		uint32_t timeout_period_us,
 543:Drivers/VL53L0X/core/src/vl53l0x_api_core.c **** 		uint8_t vcsel_period_pclks)
 544:Drivers/VL53L0X/core/src/vl53l0x_api_core.c **** {
 2021              		.loc 1 544 1
 2022              		.cfi_startproc
 2023              		@ args = 0, pretend = 0, frame = 32
 2024              		@ frame_needed = 1, uses_anonymous_args = 0
 2025 0000 80B5     		push	{r7, lr}
 2026              		.cfi_def_cfa_offset 8
 2027              		.cfi_offset 7, -8
 2028              		.cfi_offset 14, -4
 2029 0002 88B0     		sub	sp, sp, #32
 2030              		.cfi_def_cfa_offset 40
 2031 0004 00AF     		add	r7, sp, #0
 2032              		.cfi_def_cfa_register 7
 2033 0006 F860     		str	r0, [r7, #12]
 2034 0008 B960     		str	r1, [r7, #8]
 2035 000a 1346     		mov	r3, r2
 2036 000c FB71     		strb	r3, [r7, #7]
 545:Drivers/VL53L0X/core/src/vl53l0x_api_core.c **** 	uint32_t macro_period_ps;
 546:Drivers/VL53L0X/core/src/vl53l0x_api_core.c **** 	uint32_t macro_period_ns;
 547:Drivers/VL53L0X/core/src/vl53l0x_api_core.c **** 	uint32_t timeout_period_mclks = 0;
 2037              		.loc 1 547 11
 2038 000e 0023     		movs	r3, #0
 2039 0010 FB61     		str	r3, [r7, #28]
 548:Drivers/VL53L0X/core/src/vl53l0x_api_core.c **** 
 549:Drivers/VL53L0X/core/src/vl53l0x_api_core.c **** 	macro_period_ps = VL53L0X_calc_macro_period_ps(Dev, vcsel_period_pclks);
 2040              		.loc 1 549 20
 2041 0012 FB79     		ldrb	r3, [r7, #7]	@ zero_extendqisi2
 2042 0014 1946     		mov	r1, r3
 2043 0016 F868     		ldr	r0, [r7, #12]
 2044 0018 FFF7FEFF 		bl	VL53L0X_calc_macro_period_ps
 2045 001c B861     		str	r0, [r7, #24]
 550:Drivers/VL53L0X/core/src/vl53l0x_api_core.c **** 	macro_period_ns = (macro_period_ps + 500) / 1000;
 2046              		.loc 1 550 37
 2047 001e BB69     		ldr	r3, [r7, #24]
 2048 0020 03F5FA73 		add	r3, r3, #500
 2049              		.loc 1 550 18
 2050 0024 0A4A     		ldr	r2, .L60
 2051 0026 A2FB0323 		umull	r2, r3, r2, r3
 2052 002a 9B09     		lsrs	r3, r3, #6
 2053 002c 7B61     		str	r3, [r7, #20]
 551:Drivers/VL53L0X/core/src/vl53l0x_api_core.c **** 
 552:Drivers/VL53L0X/core/src/vl53l0x_api_core.c **** 	timeout_period_mclks =
 553:Drivers/VL53L0X/core/src/vl53l0x_api_core.c **** 		(uint32_t) (((timeout_period_us * 1000)
 2054              		.loc 1 553 35
 2055 002e BB68     		ldr	r3, [r7, #8]
 2056 0030 4FF47A72 		mov	r2, #1000
 2057 0034 03FB02F2 		mul	r2, r3, r2
 554:Drivers/VL53L0X/core/src/vl53l0x_api_core.c **** 		+ (macro_period_ns / 2)) / macro_period_ns);
 2058              		.loc 1 554 22
ARM GAS  C:\Users\Morroway\AppData\Local\Temp\ccKjJYc2.s 			page 47


 2059 0038 7B69     		ldr	r3, [r7, #20]
 2060 003a 5B08     		lsrs	r3, r3, #1
 2061              		.loc 1 554 3
 2062 003c 1A44     		add	r2, r2, r3
 552:Drivers/VL53L0X/core/src/vl53l0x_api_core.c **** 		(uint32_t) (((timeout_period_us * 1000)
 2063              		.loc 1 552 23
 2064 003e 7B69     		ldr	r3, [r7, #20]
 2065 0040 B2FBF3F3 		udiv	r3, r2, r3
 2066 0044 FB61     		str	r3, [r7, #28]
 555:Drivers/VL53L0X/core/src/vl53l0x_api_core.c **** 
 556:Drivers/VL53L0X/core/src/vl53l0x_api_core.c ****     return timeout_period_mclks;
 2067              		.loc 1 556 12
 2068 0046 FB69     		ldr	r3, [r7, #28]
 557:Drivers/VL53L0X/core/src/vl53l0x_api_core.c **** }
 2069              		.loc 1 557 1
 2070 0048 1846     		mov	r0, r3
 2071 004a 2037     		adds	r7, r7, #32
 2072              		.cfi_def_cfa_offset 8
 2073 004c BD46     		mov	sp, r7
 2074              		.cfi_def_cfa_register 13
 2075              		@ sp needed
 2076 004e 80BD     		pop	{r7, pc}
 2077              	.L61:
 2078              		.align	2
 2079              	.L60:
 2080 0050 D34D6210 		.word	274877907
 2081              		.cfi_endproc
 2082              	.LFE335:
 2084              		.section	.text.VL53L0X_calc_timeout_us,"ax",%progbits
 2085              		.align	1
 2086              		.global	VL53L0X_calc_timeout_us
 2087              		.syntax unified
 2088              		.thumb
 2089              		.thumb_func
 2091              	VL53L0X_calc_timeout_us:
 2092              	.LFB336:
 558:Drivers/VL53L0X/core/src/vl53l0x_api_core.c **** 
 559:Drivers/VL53L0X/core/src/vl53l0x_api_core.c **** /* To convert register value into us */
 560:Drivers/VL53L0X/core/src/vl53l0x_api_core.c **** uint32_t VL53L0X_calc_timeout_us(VL53L0X_DEV Dev,
 561:Drivers/VL53L0X/core/src/vl53l0x_api_core.c **** 		uint16_t timeout_period_mclks,
 562:Drivers/VL53L0X/core/src/vl53l0x_api_core.c **** 		uint8_t vcsel_period_pclks)
 563:Drivers/VL53L0X/core/src/vl53l0x_api_core.c **** {
 2093              		.loc 1 563 1
 2094              		.cfi_startproc
 2095              		@ args = 0, pretend = 0, frame = 24
 2096              		@ frame_needed = 1, uses_anonymous_args = 0
 2097 0000 80B5     		push	{r7, lr}
 2098              		.cfi_def_cfa_offset 8
 2099              		.cfi_offset 7, -8
 2100              		.cfi_offset 14, -4
 2101 0002 86B0     		sub	sp, sp, #24
 2102              		.cfi_def_cfa_offset 32
 2103 0004 00AF     		add	r7, sp, #0
 2104              		.cfi_def_cfa_register 7
 2105 0006 7860     		str	r0, [r7, #4]
 2106 0008 0B46     		mov	r3, r1
 2107 000a 7B80     		strh	r3, [r7, #2]	@ movhi
ARM GAS  C:\Users\Morroway\AppData\Local\Temp\ccKjJYc2.s 			page 48


 2108 000c 1346     		mov	r3, r2
 2109 000e 7B70     		strb	r3, [r7, #1]
 564:Drivers/VL53L0X/core/src/vl53l0x_api_core.c **** 	uint32_t macro_period_ps;
 565:Drivers/VL53L0X/core/src/vl53l0x_api_core.c **** 	uint32_t macro_period_ns;
 566:Drivers/VL53L0X/core/src/vl53l0x_api_core.c **** 	uint32_t actual_timeout_period_us = 0;
 2110              		.loc 1 566 11
 2111 0010 0023     		movs	r3, #0
 2112 0012 7B61     		str	r3, [r7, #20]
 567:Drivers/VL53L0X/core/src/vl53l0x_api_core.c **** 
 568:Drivers/VL53L0X/core/src/vl53l0x_api_core.c **** 	macro_period_ps = VL53L0X_calc_macro_period_ps(Dev, vcsel_period_pclks);
 2113              		.loc 1 568 20
 2114 0014 7B78     		ldrb	r3, [r7, #1]	@ zero_extendqisi2
 2115 0016 1946     		mov	r1, r3
 2116 0018 7868     		ldr	r0, [r7, #4]
 2117 001a FFF7FEFF 		bl	VL53L0X_calc_macro_period_ps
 2118 001e 3861     		str	r0, [r7, #16]
 569:Drivers/VL53L0X/core/src/vl53l0x_api_core.c **** 	macro_period_ns = (macro_period_ps + 500) / 1000;
 2119              		.loc 1 569 37
 2120 0020 3B69     		ldr	r3, [r7, #16]
 2121 0022 03F5FA73 		add	r3, r3, #500
 2122              		.loc 1 569 18
 2123 0026 0A4A     		ldr	r2, .L64
 2124 0028 A2FB0323 		umull	r2, r3, r2, r3
 2125 002c 9B09     		lsrs	r3, r3, #6
 2126 002e FB60     		str	r3, [r7, #12]
 570:Drivers/VL53L0X/core/src/vl53l0x_api_core.c **** 
 571:Drivers/VL53L0X/core/src/vl53l0x_api_core.c **** 	actual_timeout_period_us =
 572:Drivers/VL53L0X/core/src/vl53l0x_api_core.c **** 		((timeout_period_mclks * macro_period_ns) + 500) / 1000;
 2127              		.loc 1 572 26
 2128 0030 7B88     		ldrh	r3, [r7, #2]
 2129 0032 FA68     		ldr	r2, [r7, #12]
 2130 0034 02FB03F3 		mul	r3, r2, r3
 2131              		.loc 1 572 45
 2132 0038 03F5FA73 		add	r3, r3, #500
 571:Drivers/VL53L0X/core/src/vl53l0x_api_core.c **** 		((timeout_period_mclks * macro_period_ns) + 500) / 1000;
 2133              		.loc 1 571 27
 2134 003c 044A     		ldr	r2, .L64
 2135 003e A2FB0323 		umull	r2, r3, r2, r3
 2136 0042 9B09     		lsrs	r3, r3, #6
 2137 0044 7B61     		str	r3, [r7, #20]
 573:Drivers/VL53L0X/core/src/vl53l0x_api_core.c **** 
 574:Drivers/VL53L0X/core/src/vl53l0x_api_core.c **** 	return actual_timeout_period_us;
 2138              		.loc 1 574 9
 2139 0046 7B69     		ldr	r3, [r7, #20]
 575:Drivers/VL53L0X/core/src/vl53l0x_api_core.c **** }
 2140              		.loc 1 575 1
 2141 0048 1846     		mov	r0, r3
 2142 004a 1837     		adds	r7, r7, #24
 2143              		.cfi_def_cfa_offset 8
 2144 004c BD46     		mov	sp, r7
 2145              		.cfi_def_cfa_register 13
 2146              		@ sp needed
 2147 004e 80BD     		pop	{r7, pc}
 2148              	.L65:
 2149              		.align	2
 2150              	.L64:
 2151 0050 D34D6210 		.word	274877907
ARM GAS  C:\Users\Morroway\AppData\Local\Temp\ccKjJYc2.s 			page 49


 2152              		.cfi_endproc
 2153              	.LFE336:
 2155              		.section	.text.get_sequence_step_timeout,"ax",%progbits
 2156              		.align	1
 2157              		.global	get_sequence_step_timeout
 2158              		.syntax unified
 2159              		.thumb
 2160              		.thumb_func
 2162              	get_sequence_step_timeout:
 2163              	.LFB337:
 576:Drivers/VL53L0X/core/src/vl53l0x_api_core.c **** 
 577:Drivers/VL53L0X/core/src/vl53l0x_api_core.c **** 
 578:Drivers/VL53L0X/core/src/vl53l0x_api_core.c **** VL53L0X_Error get_sequence_step_timeout(VL53L0X_DEV Dev,
 579:Drivers/VL53L0X/core/src/vl53l0x_api_core.c **** 				VL53L0X_SequenceStepId SequenceStepId,
 580:Drivers/VL53L0X/core/src/vl53l0x_api_core.c **** 				uint32_t *pTimeOutMicroSecs)
 581:Drivers/VL53L0X/core/src/vl53l0x_api_core.c **** {
 2164              		.loc 1 581 1
 2165              		.cfi_startproc
 2166              		@ args = 0, pretend = 0, frame = 48
 2167              		@ frame_needed = 1, uses_anonymous_args = 0
 2168 0000 80B5     		push	{r7, lr}
 2169              		.cfi_def_cfa_offset 8
 2170              		.cfi_offset 7, -8
 2171              		.cfi_offset 14, -4
 2172 0002 8CB0     		sub	sp, sp, #48
 2173              		.cfi_def_cfa_offset 56
 2174 0004 00AF     		add	r7, sp, #0
 2175              		.cfi_def_cfa_register 7
 2176 0006 F860     		str	r0, [r7, #12]
 2177 0008 0B46     		mov	r3, r1
 2178 000a 7A60     		str	r2, [r7, #4]
 2179 000c FB72     		strb	r3, [r7, #11]
 582:Drivers/VL53L0X/core/src/vl53l0x_api_core.c **** 	VL53L0X_Error Status = VL53L0X_ERROR_NONE;
 2180              		.loc 1 582 16
 2181 000e 0023     		movs	r3, #0
 2182 0010 87F82F30 		strb	r3, [r7, #47]
 583:Drivers/VL53L0X/core/src/vl53l0x_api_core.c **** 	uint8_t CurrentVCSELPulsePeriodPClk;
 584:Drivers/VL53L0X/core/src/vl53l0x_api_core.c **** 	uint8_t EncodedTimeOutByte = 0;
 2183              		.loc 1 584 10
 2184 0014 0023     		movs	r3, #0
 2185 0016 87F82030 		strb	r3, [r7, #32]
 585:Drivers/VL53L0X/core/src/vl53l0x_api_core.c **** 	uint32_t TimeoutMicroSeconds = 0;
 2186              		.loc 1 585 11
 2187 001a 0023     		movs	r3, #0
 2188 001c BB62     		str	r3, [r7, #40]
 586:Drivers/VL53L0X/core/src/vl53l0x_api_core.c **** 	uint16_t PreRangeEncodedTimeOut = 0;
 2189              		.loc 1 586 11
 2190 001e 0023     		movs	r3, #0
 2191 0020 FB83     		strh	r3, [r7, #30]	@ movhi
 587:Drivers/VL53L0X/core/src/vl53l0x_api_core.c **** 	uint16_t MsrcTimeOutMClks;
 588:Drivers/VL53L0X/core/src/vl53l0x_api_core.c **** 	uint16_t PreRangeTimeOutMClks;
 589:Drivers/VL53L0X/core/src/vl53l0x_api_core.c **** 	uint16_t FinalRangeTimeOutMClks = 0;
 2192              		.loc 1 589 11
 2193 0022 0023     		movs	r3, #0
 2194 0024 BB84     		strh	r3, [r7, #36]	@ movhi
 590:Drivers/VL53L0X/core/src/vl53l0x_api_core.c **** 	uint16_t FinalRangeEncodedTimeOut;
 591:Drivers/VL53L0X/core/src/vl53l0x_api_core.c **** 	VL53L0X_SchedulerSequenceSteps_t SchedulerSequenceSteps;
ARM GAS  C:\Users\Morroway\AppData\Local\Temp\ccKjJYc2.s 			page 50


 592:Drivers/VL53L0X/core/src/vl53l0x_api_core.c **** 
 593:Drivers/VL53L0X/core/src/vl53l0x_api_core.c **** 	if ((SequenceStepId == VL53L0X_SEQUENCESTEP_TCC)	 ||
 2195              		.loc 1 593 5
 2196 0026 FB7A     		ldrb	r3, [r7, #11]	@ zero_extendqisi2
 2197 0028 002B     		cmp	r3, #0
 2198 002a 05D0     		beq	.L67
 2199              		.loc 1 593 52 discriminator 1
 2200 002c FB7A     		ldrb	r3, [r7, #11]	@ zero_extendqisi2
 2201 002e 012B     		cmp	r3, #1
 2202 0030 02D0     		beq	.L67
 594:Drivers/VL53L0X/core/src/vl53l0x_api_core.c **** 		(SequenceStepId == VL53L0X_SEQUENCESTEP_DSS)	 ||
 2203              		.loc 1 594 49
 2204 0032 FB7A     		ldrb	r3, [r7, #11]	@ zero_extendqisi2
 2205 0034 022B     		cmp	r3, #2
 2206 0036 28D1     		bne	.L68
 2207              	.L67:
 595:Drivers/VL53L0X/core/src/vl53l0x_api_core.c **** 		(SequenceStepId == VL53L0X_SEQUENCESTEP_MSRC)) {
 596:Drivers/VL53L0X/core/src/vl53l0x_api_core.c **** 
 597:Drivers/VL53L0X/core/src/vl53l0x_api_core.c **** 		Status = VL53L0X_GetVcselPulsePeriod(Dev,
 2208              		.loc 1 597 12
 2209 0038 07F12103 		add	r3, r7, #33
 2210 003c 1A46     		mov	r2, r3
 2211 003e 0021     		movs	r1, #0
 2212 0040 F868     		ldr	r0, [r7, #12]
 2213 0042 FFF7FEFF 		bl	VL53L0X_GetVcselPulsePeriod
 2214 0046 0346     		mov	r3, r0
 2215 0048 87F82F30 		strb	r3, [r7, #47]
 598:Drivers/VL53L0X/core/src/vl53l0x_api_core.c **** 					VL53L0X_VCSEL_PERIOD_PRE_RANGE,
 599:Drivers/VL53L0X/core/src/vl53l0x_api_core.c **** 					&CurrentVCSELPulsePeriodPClk);
 600:Drivers/VL53L0X/core/src/vl53l0x_api_core.c **** 		if (Status == VL53L0X_ERROR_NONE) {
 2216              		.loc 1 600 6
 2217 004c 97F92F30 		ldrsb	r3, [r7, #47]
 2218 0050 002B     		cmp	r3, #0
 2219 0052 09D1     		bne	.L69
 601:Drivers/VL53L0X/core/src/vl53l0x_api_core.c **** 			Status = VL53L0X_RdByte(Dev,
 2220              		.loc 1 601 13
 2221 0054 07F12003 		add	r3, r7, #32
 2222 0058 1A46     		mov	r2, r3
 2223 005a 4621     		movs	r1, #70
 2224 005c F868     		ldr	r0, [r7, #12]
 2225 005e FFF7FEFF 		bl	VL53L0X_RdByte
 2226 0062 0346     		mov	r3, r0
 2227 0064 87F82F30 		strb	r3, [r7, #47]
 2228              	.L69:
 602:Drivers/VL53L0X/core/src/vl53l0x_api_core.c **** 					VL53L0X_REG_MSRC_CONFIG_TIMEOUT_MACROP,
 603:Drivers/VL53L0X/core/src/vl53l0x_api_core.c **** 					&EncodedTimeOutByte);
 604:Drivers/VL53L0X/core/src/vl53l0x_api_core.c **** 		}
 605:Drivers/VL53L0X/core/src/vl53l0x_api_core.c **** 		MsrcTimeOutMClks = VL53L0X_decode_timeout(EncodedTimeOutByte);
 2229              		.loc 1 605 22
 2230 0068 97F82030 		ldrb	r3, [r7, #32]	@ zero_extendqisi2
 2231 006c 9BB2     		uxth	r3, r3
 2232 006e 1846     		mov	r0, r3
 2233 0070 FFF7FEFF 		bl	VL53L0X_decode_timeout
 2234 0074 0346     		mov	r3, r0
 2235              		.loc 1 605 20
 2236 0076 7B84     		strh	r3, [r7, #34]	@ movhi
 606:Drivers/VL53L0X/core/src/vl53l0x_api_core.c **** 
ARM GAS  C:\Users\Morroway\AppData\Local\Temp\ccKjJYc2.s 			page 51


 607:Drivers/VL53L0X/core/src/vl53l0x_api_core.c **** 		TimeoutMicroSeconds = VL53L0X_calc_timeout_us(Dev,
 2237              		.loc 1 607 25
 2238 0078 97F82120 		ldrb	r2, [r7, #33]	@ zero_extendqisi2
 2239 007c 7B8C     		ldrh	r3, [r7, #34]
 2240 007e 1946     		mov	r1, r3
 2241 0080 F868     		ldr	r0, [r7, #12]
 2242 0082 FFF7FEFF 		bl	VL53L0X_calc_timeout_us
 2243 0086 B862     		str	r0, [r7, #40]
 2244              		.loc 1 607 23
 2245 0088 92E0     		b	.L70
 2246              	.L68:
 608:Drivers/VL53L0X/core/src/vl53l0x_api_core.c **** 						MsrcTimeOutMClks,
 609:Drivers/VL53L0X/core/src/vl53l0x_api_core.c **** 						CurrentVCSELPulsePeriodPClk);
 610:Drivers/VL53L0X/core/src/vl53l0x_api_core.c **** 	} else if (SequenceStepId == VL53L0X_SEQUENCESTEP_PRE_RANGE) {
 2247              		.loc 1 610 12
 2248 008a FB7A     		ldrb	r3, [r7, #11]	@ zero_extendqisi2
 2249 008c 032B     		cmp	r3, #3
 2250 008e 35D1     		bne	.L71
 611:Drivers/VL53L0X/core/src/vl53l0x_api_core.c **** 		/* Retrieve PRE-RANGE VCSEL Period */
 612:Drivers/VL53L0X/core/src/vl53l0x_api_core.c **** 		Status = VL53L0X_GetVcselPulsePeriod(Dev,
 2251              		.loc 1 612 12
 2252 0090 07F12103 		add	r3, r7, #33
 2253 0094 1A46     		mov	r2, r3
 2254 0096 0021     		movs	r1, #0
 2255 0098 F868     		ldr	r0, [r7, #12]
 2256 009a FFF7FEFF 		bl	VL53L0X_GetVcselPulsePeriod
 2257 009e 0346     		mov	r3, r0
 2258 00a0 87F82F30 		strb	r3, [r7, #47]
 613:Drivers/VL53L0X/core/src/vl53l0x_api_core.c **** 						VL53L0X_VCSEL_PERIOD_PRE_RANGE,
 614:Drivers/VL53L0X/core/src/vl53l0x_api_core.c **** 						&CurrentVCSELPulsePeriodPClk);
 615:Drivers/VL53L0X/core/src/vl53l0x_api_core.c **** 
 616:Drivers/VL53L0X/core/src/vl53l0x_api_core.c **** 		/* Retrieve PRE-RANGE Timeout in Macro periods (MCLKS) */
 617:Drivers/VL53L0X/core/src/vl53l0x_api_core.c **** 		if (Status == VL53L0X_ERROR_NONE) {
 2259              		.loc 1 617 6
 2260 00a4 97F92F30 		ldrsb	r3, [r7, #47]
 2261 00a8 002B     		cmp	r3, #0
 2262 00aa 40F08180 		bne	.L70
 618:Drivers/VL53L0X/core/src/vl53l0x_api_core.c **** 
 619:Drivers/VL53L0X/core/src/vl53l0x_api_core.c **** 			/* Retrieve PRE-RANGE VCSEL Period */
 620:Drivers/VL53L0X/core/src/vl53l0x_api_core.c **** 			Status = VL53L0X_GetVcselPulsePeriod(Dev,
 2263              		.loc 1 620 13
 2264 00ae 07F12103 		add	r3, r7, #33
 2265 00b2 1A46     		mov	r2, r3
 2266 00b4 0021     		movs	r1, #0
 2267 00b6 F868     		ldr	r0, [r7, #12]
 2268 00b8 FFF7FEFF 		bl	VL53L0X_GetVcselPulsePeriod
 2269 00bc 0346     		mov	r3, r0
 2270 00be 87F82F30 		strb	r3, [r7, #47]
 621:Drivers/VL53L0X/core/src/vl53l0x_api_core.c **** 					VL53L0X_VCSEL_PERIOD_PRE_RANGE,
 622:Drivers/VL53L0X/core/src/vl53l0x_api_core.c **** 					&CurrentVCSELPulsePeriodPClk);
 623:Drivers/VL53L0X/core/src/vl53l0x_api_core.c **** 
 624:Drivers/VL53L0X/core/src/vl53l0x_api_core.c **** 			if (Status == VL53L0X_ERROR_NONE) {
 2271              		.loc 1 624 7
 2272 00c2 97F92F30 		ldrsb	r3, [r7, #47]
 2273 00c6 002B     		cmp	r3, #0
 2274 00c8 09D1     		bne	.L72
 625:Drivers/VL53L0X/core/src/vl53l0x_api_core.c **** 				Status = VL53L0X_RdWord(Dev,
ARM GAS  C:\Users\Morroway\AppData\Local\Temp\ccKjJYc2.s 			page 52


 2275              		.loc 1 625 14
 2276 00ca 07F11E03 		add	r3, r7, #30
 2277 00ce 1A46     		mov	r2, r3
 2278 00d0 5121     		movs	r1, #81
 2279 00d2 F868     		ldr	r0, [r7, #12]
 2280 00d4 FFF7FEFF 		bl	VL53L0X_RdWord
 2281 00d8 0346     		mov	r3, r0
 2282 00da 87F82F30 		strb	r3, [r7, #47]
 2283              	.L72:
 626:Drivers/VL53L0X/core/src/vl53l0x_api_core.c **** 				VL53L0X_REG_PRE_RANGE_CONFIG_TIMEOUT_MACROP_HI,
 627:Drivers/VL53L0X/core/src/vl53l0x_api_core.c **** 				&PreRangeEncodedTimeOut);
 628:Drivers/VL53L0X/core/src/vl53l0x_api_core.c **** 			}
 629:Drivers/VL53L0X/core/src/vl53l0x_api_core.c **** 
 630:Drivers/VL53L0X/core/src/vl53l0x_api_core.c **** 			PreRangeTimeOutMClks = VL53L0X_decode_timeout(
 2284              		.loc 1 630 27
 2285 00de FB8B     		ldrh	r3, [r7, #30]
 2286 00e0 1846     		mov	r0, r3
 2287 00e2 FFF7FEFF 		bl	VL53L0X_decode_timeout
 2288 00e6 0346     		mov	r3, r0
 2289              		.loc 1 630 25
 2290 00e8 FB84     		strh	r3, [r7, #38]	@ movhi
 631:Drivers/VL53L0X/core/src/vl53l0x_api_core.c **** 					PreRangeEncodedTimeOut);
 632:Drivers/VL53L0X/core/src/vl53l0x_api_core.c **** 
 633:Drivers/VL53L0X/core/src/vl53l0x_api_core.c **** 			TimeoutMicroSeconds = VL53L0X_calc_timeout_us(Dev,
 2291              		.loc 1 633 26
 2292 00ea 97F82120 		ldrb	r2, [r7, #33]	@ zero_extendqisi2
 2293 00ee FB8C     		ldrh	r3, [r7, #38]
 2294 00f0 1946     		mov	r1, r3
 2295 00f2 F868     		ldr	r0, [r7, #12]
 2296 00f4 FFF7FEFF 		bl	VL53L0X_calc_timeout_us
 2297 00f8 B862     		str	r0, [r7, #40]
 2298 00fa 59E0     		b	.L70
 2299              	.L71:
 634:Drivers/VL53L0X/core/src/vl53l0x_api_core.c **** 					PreRangeTimeOutMClks,
 635:Drivers/VL53L0X/core/src/vl53l0x_api_core.c **** 					CurrentVCSELPulsePeriodPClk);
 636:Drivers/VL53L0X/core/src/vl53l0x_api_core.c **** 		}
 637:Drivers/VL53L0X/core/src/vl53l0x_api_core.c **** 	} else if (SequenceStepId == VL53L0X_SEQUENCESTEP_FINAL_RANGE) {
 2300              		.loc 1 637 12
 2301 00fc FB7A     		ldrb	r3, [r7, #11]	@ zero_extendqisi2
 2302 00fe 042B     		cmp	r3, #4
 2303 0100 56D1     		bne	.L70
 638:Drivers/VL53L0X/core/src/vl53l0x_api_core.c **** 
 639:Drivers/VL53L0X/core/src/vl53l0x_api_core.c **** 		VL53L0X_GetSequenceStepEnables(Dev, &SchedulerSequenceSteps);
 2304              		.loc 1 639 3
 2305 0102 07F11403 		add	r3, r7, #20
 2306 0106 1946     		mov	r1, r3
 2307 0108 F868     		ldr	r0, [r7, #12]
 2308 010a FFF7FEFF 		bl	VL53L0X_GetSequenceStepEnables
 640:Drivers/VL53L0X/core/src/vl53l0x_api_core.c **** 		PreRangeTimeOutMClks = 0;
 2309              		.loc 1 640 24
 2310 010e 0023     		movs	r3, #0
 2311 0110 FB84     		strh	r3, [r7, #38]	@ movhi
 641:Drivers/VL53L0X/core/src/vl53l0x_api_core.c **** 
 642:Drivers/VL53L0X/core/src/vl53l0x_api_core.c **** 		if (SchedulerSequenceSteps.PreRangeOn) {
 2312              		.loc 1 642 29
 2313 0112 FB7D     		ldrb	r3, [r7, #23]	@ zero_extendqisi2
 2314              		.loc 1 642 6
ARM GAS  C:\Users\Morroway\AppData\Local\Temp\ccKjJYc2.s 			page 53


 2315 0114 002B     		cmp	r3, #0
 2316 0116 1DD0     		beq	.L73
 643:Drivers/VL53L0X/core/src/vl53l0x_api_core.c **** 			/* Retrieve PRE-RANGE VCSEL Period */
 644:Drivers/VL53L0X/core/src/vl53l0x_api_core.c **** 			Status = VL53L0X_GetVcselPulsePeriod(Dev,
 2317              		.loc 1 644 13
 2318 0118 07F12103 		add	r3, r7, #33
 2319 011c 1A46     		mov	r2, r3
 2320 011e 0021     		movs	r1, #0
 2321 0120 F868     		ldr	r0, [r7, #12]
 2322 0122 FFF7FEFF 		bl	VL53L0X_GetVcselPulsePeriod
 2323 0126 0346     		mov	r3, r0
 2324 0128 87F82F30 		strb	r3, [r7, #47]
 645:Drivers/VL53L0X/core/src/vl53l0x_api_core.c **** 				VL53L0X_VCSEL_PERIOD_PRE_RANGE,
 646:Drivers/VL53L0X/core/src/vl53l0x_api_core.c **** 				&CurrentVCSELPulsePeriodPClk);
 647:Drivers/VL53L0X/core/src/vl53l0x_api_core.c **** 
 648:Drivers/VL53L0X/core/src/vl53l0x_api_core.c **** 			/* Retrieve PRE-RANGE Timeout in Macro periods
 649:Drivers/VL53L0X/core/src/vl53l0x_api_core.c **** 			 * (MCLKS) */
 650:Drivers/VL53L0X/core/src/vl53l0x_api_core.c **** 			if (Status == VL53L0X_ERROR_NONE) {
 2325              		.loc 1 650 7
 2326 012c 97F92F30 		ldrsb	r3, [r7, #47]
 2327 0130 002B     		cmp	r3, #0
 2328 0132 0FD1     		bne	.L73
 651:Drivers/VL53L0X/core/src/vl53l0x_api_core.c **** 				Status = VL53L0X_RdWord(Dev,
 2329              		.loc 1 651 14
 2330 0134 07F11E03 		add	r3, r7, #30
 2331 0138 1A46     		mov	r2, r3
 2332 013a 5121     		movs	r1, #81
 2333 013c F868     		ldr	r0, [r7, #12]
 2334 013e FFF7FEFF 		bl	VL53L0X_RdWord
 2335 0142 0346     		mov	r3, r0
 2336 0144 87F82F30 		strb	r3, [r7, #47]
 652:Drivers/VL53L0X/core/src/vl53l0x_api_core.c **** 				VL53L0X_REG_PRE_RANGE_CONFIG_TIMEOUT_MACROP_HI,
 653:Drivers/VL53L0X/core/src/vl53l0x_api_core.c **** 				&PreRangeEncodedTimeOut);
 654:Drivers/VL53L0X/core/src/vl53l0x_api_core.c **** 				PreRangeTimeOutMClks = VL53L0X_decode_timeout(
 2337              		.loc 1 654 28
 2338 0148 FB8B     		ldrh	r3, [r7, #30]
 2339 014a 1846     		mov	r0, r3
 2340 014c FFF7FEFF 		bl	VL53L0X_decode_timeout
 2341 0150 0346     		mov	r3, r0
 2342              		.loc 1 654 26
 2343 0152 FB84     		strh	r3, [r7, #38]	@ movhi
 2344              	.L73:
 655:Drivers/VL53L0X/core/src/vl53l0x_api_core.c **** 						PreRangeEncodedTimeOut);
 656:Drivers/VL53L0X/core/src/vl53l0x_api_core.c **** 			}
 657:Drivers/VL53L0X/core/src/vl53l0x_api_core.c **** 		}
 658:Drivers/VL53L0X/core/src/vl53l0x_api_core.c **** 
 659:Drivers/VL53L0X/core/src/vl53l0x_api_core.c **** 		if (Status == VL53L0X_ERROR_NONE) {
 2345              		.loc 1 659 6
 2346 0154 97F92F30 		ldrsb	r3, [r7, #47]
 2347 0158 002B     		cmp	r3, #0
 2348 015a 09D1     		bne	.L74
 660:Drivers/VL53L0X/core/src/vl53l0x_api_core.c **** 			/* Retrieve FINAL-RANGE VCSEL Period */
 661:Drivers/VL53L0X/core/src/vl53l0x_api_core.c **** 			Status = VL53L0X_GetVcselPulsePeriod(Dev,
 2349              		.loc 1 661 13
 2350 015c 07F12103 		add	r3, r7, #33
 2351 0160 1A46     		mov	r2, r3
 2352 0162 0121     		movs	r1, #1
ARM GAS  C:\Users\Morroway\AppData\Local\Temp\ccKjJYc2.s 			page 54


 2353 0164 F868     		ldr	r0, [r7, #12]
 2354 0166 FFF7FEFF 		bl	VL53L0X_GetVcselPulsePeriod
 2355 016a 0346     		mov	r3, r0
 2356 016c 87F82F30 		strb	r3, [r7, #47]
 2357              	.L74:
 662:Drivers/VL53L0X/core/src/vl53l0x_api_core.c **** 					VL53L0X_VCSEL_PERIOD_FINAL_RANGE,
 663:Drivers/VL53L0X/core/src/vl53l0x_api_core.c **** 					&CurrentVCSELPulsePeriodPClk);
 664:Drivers/VL53L0X/core/src/vl53l0x_api_core.c **** 		}
 665:Drivers/VL53L0X/core/src/vl53l0x_api_core.c **** 
 666:Drivers/VL53L0X/core/src/vl53l0x_api_core.c **** 		/* Retrieve FINAL-RANGE Timeout in Macro periods (MCLKS) */
 667:Drivers/VL53L0X/core/src/vl53l0x_api_core.c **** 		if (Status == VL53L0X_ERROR_NONE) {
 2358              		.loc 1 667 6
 2359 0170 97F92F30 		ldrsb	r3, [r7, #47]
 2360 0174 002B     		cmp	r3, #0
 2361 0176 0FD1     		bne	.L75
 668:Drivers/VL53L0X/core/src/vl53l0x_api_core.c **** 			Status = VL53L0X_RdWord(Dev,
 2362              		.loc 1 668 13
 2363 0178 07F11C03 		add	r3, r7, #28
 2364 017c 1A46     		mov	r2, r3
 2365 017e 7121     		movs	r1, #113
 2366 0180 F868     		ldr	r0, [r7, #12]
 2367 0182 FFF7FEFF 		bl	VL53L0X_RdWord
 2368 0186 0346     		mov	r3, r0
 2369 0188 87F82F30 		strb	r3, [r7, #47]
 669:Drivers/VL53L0X/core/src/vl53l0x_api_core.c **** 				VL53L0X_REG_FINAL_RANGE_CONFIG_TIMEOUT_MACROP_HI,
 670:Drivers/VL53L0X/core/src/vl53l0x_api_core.c **** 				&FinalRangeEncodedTimeOut);
 671:Drivers/VL53L0X/core/src/vl53l0x_api_core.c **** 			FinalRangeTimeOutMClks = VL53L0X_decode_timeout(
 2370              		.loc 1 671 29
 2371 018c BB8B     		ldrh	r3, [r7, #28]
 2372 018e 1846     		mov	r0, r3
 2373 0190 FFF7FEFF 		bl	VL53L0X_decode_timeout
 2374 0194 0346     		mov	r3, r0
 2375              		.loc 1 671 27
 2376 0196 BB84     		strh	r3, [r7, #36]	@ movhi
 2377              	.L75:
 672:Drivers/VL53L0X/core/src/vl53l0x_api_core.c **** 					FinalRangeEncodedTimeOut);
 673:Drivers/VL53L0X/core/src/vl53l0x_api_core.c **** 		}
 674:Drivers/VL53L0X/core/src/vl53l0x_api_core.c **** 
 675:Drivers/VL53L0X/core/src/vl53l0x_api_core.c **** 		FinalRangeTimeOutMClks -= PreRangeTimeOutMClks;
 2378              		.loc 1 675 26
 2379 0198 BA8C     		ldrh	r2, [r7, #36]	@ movhi
 2380 019a FB8C     		ldrh	r3, [r7, #38]	@ movhi
 2381 019c D31A     		subs	r3, r2, r3
 2382 019e BB84     		strh	r3, [r7, #36]	@ movhi
 676:Drivers/VL53L0X/core/src/vl53l0x_api_core.c **** 		TimeoutMicroSeconds = VL53L0X_calc_timeout_us(Dev,
 2383              		.loc 1 676 25
 2384 01a0 97F82120 		ldrb	r2, [r7, #33]	@ zero_extendqisi2
 2385 01a4 BB8C     		ldrh	r3, [r7, #36]
 2386 01a6 1946     		mov	r1, r3
 2387 01a8 F868     		ldr	r0, [r7, #12]
 2388 01aa FFF7FEFF 		bl	VL53L0X_calc_timeout_us
 2389 01ae B862     		str	r0, [r7, #40]
 2390              	.L70:
 677:Drivers/VL53L0X/core/src/vl53l0x_api_core.c **** 						FinalRangeTimeOutMClks,
 678:Drivers/VL53L0X/core/src/vl53l0x_api_core.c **** 						CurrentVCSELPulsePeriodPClk);
 679:Drivers/VL53L0X/core/src/vl53l0x_api_core.c **** 	}
 680:Drivers/VL53L0X/core/src/vl53l0x_api_core.c **** 
ARM GAS  C:\Users\Morroway\AppData\Local\Temp\ccKjJYc2.s 			page 55


 681:Drivers/VL53L0X/core/src/vl53l0x_api_core.c **** 	*pTimeOutMicroSecs = TimeoutMicroSeconds;
 2391              		.loc 1 681 21
 2392 01b0 7B68     		ldr	r3, [r7, #4]
 2393 01b2 BA6A     		ldr	r2, [r7, #40]
 2394 01b4 1A60     		str	r2, [r3]
 682:Drivers/VL53L0X/core/src/vl53l0x_api_core.c **** 
 683:Drivers/VL53L0X/core/src/vl53l0x_api_core.c **** 	return Status;
 2395              		.loc 1 683 9
 2396 01b6 97F92F30 		ldrsb	r3, [r7, #47]
 684:Drivers/VL53L0X/core/src/vl53l0x_api_core.c **** }
 2397              		.loc 1 684 1
 2398 01ba 1846     		mov	r0, r3
 2399 01bc 3037     		adds	r7, r7, #48
 2400              		.cfi_def_cfa_offset 8
 2401 01be BD46     		mov	sp, r7
 2402              		.cfi_def_cfa_register 13
 2403              		@ sp needed
 2404 01c0 80BD     		pop	{r7, pc}
 2405              		.cfi_endproc
 2406              	.LFE337:
 2408              		.section	.text.set_sequence_step_timeout,"ax",%progbits
 2409              		.align	1
 2410              		.global	set_sequence_step_timeout
 2411              		.syntax unified
 2412              		.thumb
 2413              		.thumb_func
 2415              	set_sequence_step_timeout:
 2416              	.LFB338:
 685:Drivers/VL53L0X/core/src/vl53l0x_api_core.c **** 
 686:Drivers/VL53L0X/core/src/vl53l0x_api_core.c **** 
 687:Drivers/VL53L0X/core/src/vl53l0x_api_core.c **** VL53L0X_Error set_sequence_step_timeout(VL53L0X_DEV Dev,
 688:Drivers/VL53L0X/core/src/vl53l0x_api_core.c **** 					VL53L0X_SequenceStepId SequenceStepId,
 689:Drivers/VL53L0X/core/src/vl53l0x_api_core.c **** 					uint32_t TimeOutMicroSecs)
 690:Drivers/VL53L0X/core/src/vl53l0x_api_core.c **** {
 2417              		.loc 1 690 1
 2418              		.cfi_startproc
 2419              		@ args = 0, pretend = 0, frame = 40
 2420              		@ frame_needed = 1, uses_anonymous_args = 0
 2421 0000 80B5     		push	{r7, lr}
 2422              		.cfi_def_cfa_offset 8
 2423              		.cfi_offset 7, -8
 2424              		.cfi_offset 14, -4
 2425 0002 8AB0     		sub	sp, sp, #40
 2426              		.cfi_def_cfa_offset 48
 2427 0004 00AF     		add	r7, sp, #0
 2428              		.cfi_def_cfa_register 7
 2429 0006 F860     		str	r0, [r7, #12]
 2430 0008 0B46     		mov	r3, r1
 2431 000a 7A60     		str	r2, [r7, #4]
 2432 000c FB72     		strb	r3, [r7, #11]
 691:Drivers/VL53L0X/core/src/vl53l0x_api_core.c **** 	VL53L0X_Error Status = VL53L0X_ERROR_NONE;
 2433              		.loc 1 691 16
 2434 000e 0023     		movs	r3, #0
 2435 0010 87F82730 		strb	r3, [r7, #39]
 692:Drivers/VL53L0X/core/src/vl53l0x_api_core.c **** 	uint8_t CurrentVCSELPulsePeriodPClk;
 693:Drivers/VL53L0X/core/src/vl53l0x_api_core.c **** 	uint8_t MsrcEncodedTimeOut;
 694:Drivers/VL53L0X/core/src/vl53l0x_api_core.c **** 	uint16_t PreRangeEncodedTimeOut;
ARM GAS  C:\Users\Morroway\AppData\Local\Temp\ccKjJYc2.s 			page 56


 695:Drivers/VL53L0X/core/src/vl53l0x_api_core.c **** 	uint16_t PreRangeTimeOutMClks;
 696:Drivers/VL53L0X/core/src/vl53l0x_api_core.c **** 	uint16_t MsrcRangeTimeOutMClks;
 697:Drivers/VL53L0X/core/src/vl53l0x_api_core.c **** 	uint32_t FinalRangeTimeOutMClks;
 698:Drivers/VL53L0X/core/src/vl53l0x_api_core.c **** 	uint16_t FinalRangeEncodedTimeOut;
 699:Drivers/VL53L0X/core/src/vl53l0x_api_core.c **** 	VL53L0X_SchedulerSequenceSteps_t SchedulerSequenceSteps;
 700:Drivers/VL53L0X/core/src/vl53l0x_api_core.c **** 
 701:Drivers/VL53L0X/core/src/vl53l0x_api_core.c **** 	if ((SequenceStepId == VL53L0X_SEQUENCESTEP_TCC)	 ||
 2436              		.loc 1 701 5
 2437 0014 FB7A     		ldrb	r3, [r7, #11]	@ zero_extendqisi2
 2438 0016 002B     		cmp	r3, #0
 2439 0018 05D0     		beq	.L78
 2440              		.loc 1 701 52 discriminator 1
 2441 001a FB7A     		ldrb	r3, [r7, #11]	@ zero_extendqisi2
 2442 001c 012B     		cmp	r3, #1
 2443 001e 02D0     		beq	.L78
 702:Drivers/VL53L0X/core/src/vl53l0x_api_core.c **** 		(SequenceStepId == VL53L0X_SEQUENCESTEP_DSS)	 ||
 2444              		.loc 1 702 49
 2445 0020 FB7A     		ldrb	r3, [r7, #11]	@ zero_extendqisi2
 2446 0022 022B     		cmp	r3, #2
 2447 0024 38D1     		bne	.L79
 2448              	.L78:
 703:Drivers/VL53L0X/core/src/vl53l0x_api_core.c **** 		(SequenceStepId == VL53L0X_SEQUENCESTEP_MSRC)) {
 704:Drivers/VL53L0X/core/src/vl53l0x_api_core.c **** 
 705:Drivers/VL53L0X/core/src/vl53l0x_api_core.c **** 		Status = VL53L0X_GetVcselPulsePeriod(Dev,
 2449              		.loc 1 705 12
 2450 0026 07F11B03 		add	r3, r7, #27
 2451 002a 1A46     		mov	r2, r3
 2452 002c 0021     		movs	r1, #0
 2453 002e F868     		ldr	r0, [r7, #12]
 2454 0030 FFF7FEFF 		bl	VL53L0X_GetVcselPulsePeriod
 2455 0034 0346     		mov	r3, r0
 2456 0036 87F82730 		strb	r3, [r7, #39]
 706:Drivers/VL53L0X/core/src/vl53l0x_api_core.c **** 					VL53L0X_VCSEL_PERIOD_PRE_RANGE,
 707:Drivers/VL53L0X/core/src/vl53l0x_api_core.c **** 					&CurrentVCSELPulsePeriodPClk);
 708:Drivers/VL53L0X/core/src/vl53l0x_api_core.c **** 
 709:Drivers/VL53L0X/core/src/vl53l0x_api_core.c **** 		if (Status == VL53L0X_ERROR_NONE) {
 2457              		.loc 1 709 6
 2458 003a 97F92730 		ldrsb	r3, [r7, #39]
 2459 003e 002B     		cmp	r3, #0
 2460 0040 1AD1     		bne	.L80
 710:Drivers/VL53L0X/core/src/vl53l0x_api_core.c **** 			MsrcRangeTimeOutMClks = VL53L0X_calc_timeout_mclks(Dev,
 2461              		.loc 1 710 28
 2462 0042 FB7E     		ldrb	r3, [r7, #27]	@ zero_extendqisi2
 2463 0044 1A46     		mov	r2, r3
 2464 0046 7968     		ldr	r1, [r7, #4]
 2465 0048 F868     		ldr	r0, [r7, #12]
 2466 004a FFF7FEFF 		bl	VL53L0X_calc_timeout_mclks
 2467 004e 0346     		mov	r3, r0
 2468              		.loc 1 710 26
 2469 0050 BB83     		strh	r3, [r7, #28]	@ movhi
 711:Drivers/VL53L0X/core/src/vl53l0x_api_core.c **** 					TimeOutMicroSecs,
 712:Drivers/VL53L0X/core/src/vl53l0x_api_core.c **** 					(uint8_t)CurrentVCSELPulsePeriodPClk);
 713:Drivers/VL53L0X/core/src/vl53l0x_api_core.c **** 
 714:Drivers/VL53L0X/core/src/vl53l0x_api_core.c **** 			if (MsrcRangeTimeOutMClks > 256)
 2470              		.loc 1 714 7
 2471 0052 BB8B     		ldrh	r3, [r7, #28]
 2472 0054 B3F5807F 		cmp	r3, #256
ARM GAS  C:\Users\Morroway\AppData\Local\Temp\ccKjJYc2.s 			page 57


 2473 0058 03D9     		bls	.L81
 715:Drivers/VL53L0X/core/src/vl53l0x_api_core.c **** 				MsrcEncodedTimeOut = 255;
 2474              		.loc 1 715 24
 2475 005a FF23     		movs	r3, #255
 2476 005c 87F82630 		strb	r3, [r7, #38]
 2477 0060 04E0     		b	.L82
 2478              	.L81:
 716:Drivers/VL53L0X/core/src/vl53l0x_api_core.c **** 			else
 717:Drivers/VL53L0X/core/src/vl53l0x_api_core.c **** 				MsrcEncodedTimeOut =
 718:Drivers/VL53L0X/core/src/vl53l0x_api_core.c **** 					(uint8_t)MsrcRangeTimeOutMClks - 1;
 2479              		.loc 1 718 6
 2480 0062 BB8B     		ldrh	r3, [r7, #28]	@ movhi
 2481 0064 DBB2     		uxtb	r3, r3
 717:Drivers/VL53L0X/core/src/vl53l0x_api_core.c **** 					(uint8_t)MsrcRangeTimeOutMClks - 1;
 2482              		.loc 1 717 24
 2483 0066 013B     		subs	r3, r3, #1
 2484 0068 87F82630 		strb	r3, [r7, #38]
 2485              	.L82:
 719:Drivers/VL53L0X/core/src/vl53l0x_api_core.c **** 
 720:Drivers/VL53L0X/core/src/vl53l0x_api_core.c **** 			VL53L0X_SETDEVICESPECIFICPARAMETER(Dev,
 2486              		.loc 1 720 4
 2487 006c 97F82630 		ldrb	r3, [r7, #38]	@ zero_extendqisi2
 2488 0070 9AB2     		uxth	r2, r3
 2489 0072 FB68     		ldr	r3, [r7, #12]
 2490 0074 A3F8D820 		strh	r2, [r3, #216]	@ movhi
 2491              	.L80:
 721:Drivers/VL53L0X/core/src/vl53l0x_api_core.c **** 				LastEncodedTimeout,
 722:Drivers/VL53L0X/core/src/vl53l0x_api_core.c **** 				MsrcEncodedTimeOut);
 723:Drivers/VL53L0X/core/src/vl53l0x_api_core.c **** 		}
 724:Drivers/VL53L0X/core/src/vl53l0x_api_core.c **** 
 725:Drivers/VL53L0X/core/src/vl53l0x_api_core.c **** 		if (Status == VL53L0X_ERROR_NONE) {
 2492              		.loc 1 725 6
 2493 0078 97F92730 		ldrsb	r3, [r7, #39]
 2494 007c 002B     		cmp	r3, #0
 2495 007e 40F0AB80 		bne	.L84
 726:Drivers/VL53L0X/core/src/vl53l0x_api_core.c **** 			Status = VL53L0X_WrByte(Dev,
 2496              		.loc 1 726 13
 2497 0082 97F82630 		ldrb	r3, [r7, #38]	@ zero_extendqisi2
 2498 0086 1A46     		mov	r2, r3
 2499 0088 4621     		movs	r1, #70
 2500 008a F868     		ldr	r0, [r7, #12]
 2501 008c FFF7FEFF 		bl	VL53L0X_WrByte
 2502 0090 0346     		mov	r3, r0
 2503 0092 87F82730 		strb	r3, [r7, #39]
 725:Drivers/VL53L0X/core/src/vl53l0x_api_core.c **** 			Status = VL53L0X_WrByte(Dev,
 2504              		.loc 1 725 6
 2505 0096 9FE0     		b	.L84
 2506              	.L79:
 727:Drivers/VL53L0X/core/src/vl53l0x_api_core.c **** 				VL53L0X_REG_MSRC_CONFIG_TIMEOUT_MACROP,
 728:Drivers/VL53L0X/core/src/vl53l0x_api_core.c **** 				MsrcEncodedTimeOut);
 729:Drivers/VL53L0X/core/src/vl53l0x_api_core.c **** 		}
 730:Drivers/VL53L0X/core/src/vl53l0x_api_core.c **** 	} else {
 731:Drivers/VL53L0X/core/src/vl53l0x_api_core.c **** 
 732:Drivers/VL53L0X/core/src/vl53l0x_api_core.c **** 		if (SequenceStepId == VL53L0X_SEQUENCESTEP_PRE_RANGE) {
 2507              		.loc 1 732 6
 2508 0098 FB7A     		ldrb	r3, [r7, #11]	@ zero_extendqisi2
 2509 009a 032B     		cmp	r3, #3
ARM GAS  C:\Users\Morroway\AppData\Local\Temp\ccKjJYc2.s 			page 58


 2510 009c 35D1     		bne	.L85
 733:Drivers/VL53L0X/core/src/vl53l0x_api_core.c **** 
 734:Drivers/VL53L0X/core/src/vl53l0x_api_core.c **** 			if (Status == VL53L0X_ERROR_NONE) {
 2511              		.loc 1 734 7
 2512 009e 97F92730 		ldrsb	r3, [r7, #39]
 2513 00a2 002B     		cmp	r3, #0
 2514 00a4 1BD1     		bne	.L86
 735:Drivers/VL53L0X/core/src/vl53l0x_api_core.c **** 				Status = VL53L0X_GetVcselPulsePeriod(Dev,
 2515              		.loc 1 735 14
 2516 00a6 07F11B03 		add	r3, r7, #27
 2517 00aa 1A46     		mov	r2, r3
 2518 00ac 0021     		movs	r1, #0
 2519 00ae F868     		ldr	r0, [r7, #12]
 2520 00b0 FFF7FEFF 		bl	VL53L0X_GetVcselPulsePeriod
 2521 00b4 0346     		mov	r3, r0
 2522 00b6 87F82730 		strb	r3, [r7, #39]
 736:Drivers/VL53L0X/core/src/vl53l0x_api_core.c **** 						VL53L0X_VCSEL_PERIOD_PRE_RANGE,
 737:Drivers/VL53L0X/core/src/vl53l0x_api_core.c **** 						&CurrentVCSELPulsePeriodPClk);
 738:Drivers/VL53L0X/core/src/vl53l0x_api_core.c **** 				PreRangeTimeOutMClks =
 739:Drivers/VL53L0X/core/src/vl53l0x_api_core.c **** 					VL53L0X_calc_timeout_mclks(Dev,
 2523              		.loc 1 739 6
 2524 00ba FB7E     		ldrb	r3, [r7, #27]	@ zero_extendqisi2
 2525 00bc 1A46     		mov	r2, r3
 2526 00be 7968     		ldr	r1, [r7, #4]
 2527 00c0 F868     		ldr	r0, [r7, #12]
 2528 00c2 FFF7FEFF 		bl	VL53L0X_calc_timeout_mclks
 2529 00c6 0346     		mov	r3, r0
 738:Drivers/VL53L0X/core/src/vl53l0x_api_core.c **** 					VL53L0X_calc_timeout_mclks(Dev,
 2530              		.loc 1 738 26
 2531 00c8 BB84     		strh	r3, [r7, #36]	@ movhi
 740:Drivers/VL53L0X/core/src/vl53l0x_api_core.c **** 					TimeOutMicroSecs,
 741:Drivers/VL53L0X/core/src/vl53l0x_api_core.c **** 					(uint8_t)CurrentVCSELPulsePeriodPClk);
 742:Drivers/VL53L0X/core/src/vl53l0x_api_core.c **** 				PreRangeEncodedTimeOut = VL53L0X_encode_timeout(
 2532              		.loc 1 742 30
 2533 00ca BB8C     		ldrh	r3, [r7, #36]
 2534 00cc 1846     		mov	r0, r3
 2535 00ce FFF7FEFF 		bl	VL53L0X_encode_timeout
 2536 00d2 0346     		mov	r3, r0
 2537              		.loc 1 742 28
 2538 00d4 3B83     		strh	r3, [r7, #24]	@ movhi
 743:Drivers/VL53L0X/core/src/vl53l0x_api_core.c **** 					PreRangeTimeOutMClks);
 744:Drivers/VL53L0X/core/src/vl53l0x_api_core.c **** 
 745:Drivers/VL53L0X/core/src/vl53l0x_api_core.c **** 				VL53L0X_SETDEVICESPECIFICPARAMETER(Dev,
 2539              		.loc 1 745 5
 2540 00d6 3A8B     		ldrh	r2, [r7, #24]
 2541 00d8 FB68     		ldr	r3, [r7, #12]
 2542 00da A3F8D820 		strh	r2, [r3, #216]	@ movhi
 2543              	.L86:
 746:Drivers/VL53L0X/core/src/vl53l0x_api_core.c **** 					LastEncodedTimeout,
 747:Drivers/VL53L0X/core/src/vl53l0x_api_core.c **** 					PreRangeEncodedTimeOut);
 748:Drivers/VL53L0X/core/src/vl53l0x_api_core.c **** 			}
 749:Drivers/VL53L0X/core/src/vl53l0x_api_core.c **** 
 750:Drivers/VL53L0X/core/src/vl53l0x_api_core.c **** 			if (Status == VL53L0X_ERROR_NONE) {
 2544              		.loc 1 750 7
 2545 00de 97F92730 		ldrsb	r3, [r7, #39]
 2546 00e2 002B     		cmp	r3, #0
 2547 00e4 08D1     		bne	.L87
ARM GAS  C:\Users\Morroway\AppData\Local\Temp\ccKjJYc2.s 			page 59


 751:Drivers/VL53L0X/core/src/vl53l0x_api_core.c **** 				Status = VL53L0X_WrWord(Dev,
 2548              		.loc 1 751 14
 2549 00e6 3B8B     		ldrh	r3, [r7, #24]
 2550 00e8 1A46     		mov	r2, r3
 2551 00ea 5121     		movs	r1, #81
 2552 00ec F868     		ldr	r0, [r7, #12]
 2553 00ee FFF7FEFF 		bl	VL53L0X_WrWord
 2554 00f2 0346     		mov	r3, r0
 2555 00f4 87F82730 		strb	r3, [r7, #39]
 2556              	.L87:
 752:Drivers/VL53L0X/core/src/vl53l0x_api_core.c **** 				VL53L0X_REG_PRE_RANGE_CONFIG_TIMEOUT_MACROP_HI,
 753:Drivers/VL53L0X/core/src/vl53l0x_api_core.c **** 				PreRangeEncodedTimeOut);
 754:Drivers/VL53L0X/core/src/vl53l0x_api_core.c **** 			}
 755:Drivers/VL53L0X/core/src/vl53l0x_api_core.c **** 
 756:Drivers/VL53L0X/core/src/vl53l0x_api_core.c **** 			if (Status == VL53L0X_ERROR_NONE) {
 2557              		.loc 1 756 7
 2558 00f8 97F92730 		ldrsb	r3, [r7, #39]
 2559 00fc 002B     		cmp	r3, #0
 2560 00fe 6BD1     		bne	.L84
 757:Drivers/VL53L0X/core/src/vl53l0x_api_core.c **** 				VL53L0X_SETDEVICESPECIFICPARAMETER(
 2561              		.loc 1 757 5
 2562 0100 FB68     		ldr	r3, [r7, #12]
 2563 0102 7A68     		ldr	r2, [r7, #4]
 2564 0104 C3F8E420 		str	r2, [r3, #228]
 2565 0108 66E0     		b	.L84
 2566              	.L85:
 758:Drivers/VL53L0X/core/src/vl53l0x_api_core.c **** 					Dev,
 759:Drivers/VL53L0X/core/src/vl53l0x_api_core.c **** 					PreRangeTimeoutMicroSecs,
 760:Drivers/VL53L0X/core/src/vl53l0x_api_core.c **** 					TimeOutMicroSecs);
 761:Drivers/VL53L0X/core/src/vl53l0x_api_core.c **** 			}
 762:Drivers/VL53L0X/core/src/vl53l0x_api_core.c **** 		} else if (SequenceStepId == VL53L0X_SEQUENCESTEP_FINAL_RANGE) {
 2567              		.loc 1 762 13
 2568 010a FB7A     		ldrb	r3, [r7, #11]	@ zero_extendqisi2
 2569 010c 042B     		cmp	r3, #4
 2570 010e 60D1     		bne	.L88
 763:Drivers/VL53L0X/core/src/vl53l0x_api_core.c **** 
 764:Drivers/VL53L0X/core/src/vl53l0x_api_core.c **** 			/* For the final range timeout, the pre-range timeout
 765:Drivers/VL53L0X/core/src/vl53l0x_api_core.c **** 			 * must be added. To do this both final and pre-range
 766:Drivers/VL53L0X/core/src/vl53l0x_api_core.c **** 			 * timeouts must be expressed in macro periods MClks
 767:Drivers/VL53L0X/core/src/vl53l0x_api_core.c **** 			 * because they have different vcsel periods.
 768:Drivers/VL53L0X/core/src/vl53l0x_api_core.c **** 			 */
 769:Drivers/VL53L0X/core/src/vl53l0x_api_core.c **** 
 770:Drivers/VL53L0X/core/src/vl53l0x_api_core.c **** 			VL53L0X_GetSequenceStepEnables(Dev,
 2571              		.loc 1 770 4
 2572 0110 07F11003 		add	r3, r7, #16
 2573 0114 1946     		mov	r1, r3
 2574 0116 F868     		ldr	r0, [r7, #12]
 2575 0118 FFF7FEFF 		bl	VL53L0X_GetSequenceStepEnables
 771:Drivers/VL53L0X/core/src/vl53l0x_api_core.c **** 					&SchedulerSequenceSteps);
 772:Drivers/VL53L0X/core/src/vl53l0x_api_core.c **** 			PreRangeTimeOutMClks = 0;
 2576              		.loc 1 772 25
 2577 011c 0023     		movs	r3, #0
 2578 011e BB84     		strh	r3, [r7, #36]	@ movhi
 773:Drivers/VL53L0X/core/src/vl53l0x_api_core.c **** 			if (SchedulerSequenceSteps.PreRangeOn) {
 2579              		.loc 1 773 30
 2580 0120 FB7C     		ldrb	r3, [r7, #19]	@ zero_extendqisi2
 2581              		.loc 1 773 7
ARM GAS  C:\Users\Morroway\AppData\Local\Temp\ccKjJYc2.s 			page 60


 2582 0122 002B     		cmp	r3, #0
 2583 0124 1DD0     		beq	.L89
 774:Drivers/VL53L0X/core/src/vl53l0x_api_core.c **** 
 775:Drivers/VL53L0X/core/src/vl53l0x_api_core.c **** 				/* Retrieve PRE-RANGE VCSEL Period */
 776:Drivers/VL53L0X/core/src/vl53l0x_api_core.c **** 				Status = VL53L0X_GetVcselPulsePeriod(Dev,
 2584              		.loc 1 776 14
 2585 0126 07F11B03 		add	r3, r7, #27
 2586 012a 1A46     		mov	r2, r3
 2587 012c 0021     		movs	r1, #0
 2588 012e F868     		ldr	r0, [r7, #12]
 2589 0130 FFF7FEFF 		bl	VL53L0X_GetVcselPulsePeriod
 2590 0134 0346     		mov	r3, r0
 2591 0136 87F82730 		strb	r3, [r7, #39]
 777:Drivers/VL53L0X/core/src/vl53l0x_api_core.c **** 					VL53L0X_VCSEL_PERIOD_PRE_RANGE,
 778:Drivers/VL53L0X/core/src/vl53l0x_api_core.c **** 					&CurrentVCSELPulsePeriodPClk);
 779:Drivers/VL53L0X/core/src/vl53l0x_api_core.c **** 
 780:Drivers/VL53L0X/core/src/vl53l0x_api_core.c **** 				/* Retrieve PRE-RANGE Timeout in Macro periods
 781:Drivers/VL53L0X/core/src/vl53l0x_api_core.c **** 				 * (MCLKS) */
 782:Drivers/VL53L0X/core/src/vl53l0x_api_core.c **** 				if (Status == VL53L0X_ERROR_NONE) {
 2592              		.loc 1 782 8
 2593 013a 97F92730 		ldrsb	r3, [r7, #39]
 2594 013e 002B     		cmp	r3, #0
 2595 0140 0FD1     		bne	.L89
 783:Drivers/VL53L0X/core/src/vl53l0x_api_core.c **** 					Status = VL53L0X_RdWord(Dev, 0x51,
 2596              		.loc 1 783 15
 2597 0142 07F11803 		add	r3, r7, #24
 2598 0146 1A46     		mov	r2, r3
 2599 0148 5121     		movs	r1, #81
 2600 014a F868     		ldr	r0, [r7, #12]
 2601 014c FFF7FEFF 		bl	VL53L0X_RdWord
 2602 0150 0346     		mov	r3, r0
 2603 0152 87F82730 		strb	r3, [r7, #39]
 784:Drivers/VL53L0X/core/src/vl53l0x_api_core.c **** 						&PreRangeEncodedTimeOut);
 785:Drivers/VL53L0X/core/src/vl53l0x_api_core.c **** 					PreRangeTimeOutMClks =
 786:Drivers/VL53L0X/core/src/vl53l0x_api_core.c **** 						VL53L0X_decode_timeout(
 2604              		.loc 1 786 7
 2605 0156 3B8B     		ldrh	r3, [r7, #24]
 2606 0158 1846     		mov	r0, r3
 2607 015a FFF7FEFF 		bl	VL53L0X_decode_timeout
 2608 015e 0346     		mov	r3, r0
 785:Drivers/VL53L0X/core/src/vl53l0x_api_core.c **** 						VL53L0X_decode_timeout(
 2609              		.loc 1 785 27
 2610 0160 BB84     		strh	r3, [r7, #36]	@ movhi
 2611              	.L89:
 787:Drivers/VL53L0X/core/src/vl53l0x_api_core.c **** 							PreRangeEncodedTimeOut);
 788:Drivers/VL53L0X/core/src/vl53l0x_api_core.c **** 				}
 789:Drivers/VL53L0X/core/src/vl53l0x_api_core.c **** 			}
 790:Drivers/VL53L0X/core/src/vl53l0x_api_core.c **** 
 791:Drivers/VL53L0X/core/src/vl53l0x_api_core.c **** 			/* Calculate FINAL RANGE Timeout in Macro Periods
 792:Drivers/VL53L0X/core/src/vl53l0x_api_core.c **** 			 * (MCLKS) and add PRE-RANGE value
 793:Drivers/VL53L0X/core/src/vl53l0x_api_core.c **** 			 */
 794:Drivers/VL53L0X/core/src/vl53l0x_api_core.c **** 			if (Status == VL53L0X_ERROR_NONE) {
 2612              		.loc 1 794 7
 2613 0162 97F92730 		ldrsb	r3, [r7, #39]
 2614 0166 002B     		cmp	r3, #0
 2615 0168 09D1     		bne	.L90
 795:Drivers/VL53L0X/core/src/vl53l0x_api_core.c **** 
ARM GAS  C:\Users\Morroway\AppData\Local\Temp\ccKjJYc2.s 			page 61


 796:Drivers/VL53L0X/core/src/vl53l0x_api_core.c **** 				Status = VL53L0X_GetVcselPulsePeriod(Dev,
 2616              		.loc 1 796 14
 2617 016a 07F11B03 		add	r3, r7, #27
 2618 016e 1A46     		mov	r2, r3
 2619 0170 0121     		movs	r1, #1
 2620 0172 F868     		ldr	r0, [r7, #12]
 2621 0174 FFF7FEFF 		bl	VL53L0X_GetVcselPulsePeriod
 2622 0178 0346     		mov	r3, r0
 2623 017a 87F82730 		strb	r3, [r7, #39]
 2624              	.L90:
 797:Drivers/VL53L0X/core/src/vl53l0x_api_core.c **** 						VL53L0X_VCSEL_PERIOD_FINAL_RANGE,
 798:Drivers/VL53L0X/core/src/vl53l0x_api_core.c **** 						&CurrentVCSELPulsePeriodPClk);
 799:Drivers/VL53L0X/core/src/vl53l0x_api_core.c **** 			}
 800:Drivers/VL53L0X/core/src/vl53l0x_api_core.c **** 			if (Status == VL53L0X_ERROR_NONE) {
 2625              		.loc 1 800 7
 2626 017e 97F92730 		ldrsb	r3, [r7, #39]
 2627 0182 002B     		cmp	r3, #0
 2628 0184 28D1     		bne	.L84
 801:Drivers/VL53L0X/core/src/vl53l0x_api_core.c **** 
 802:Drivers/VL53L0X/core/src/vl53l0x_api_core.c **** 				FinalRangeTimeOutMClks =
 803:Drivers/VL53L0X/core/src/vl53l0x_api_core.c **** 					VL53L0X_calc_timeout_mclks(Dev,
 2629              		.loc 1 803 6
 2630 0186 FB7E     		ldrb	r3, [r7, #27]	@ zero_extendqisi2
 2631 0188 1A46     		mov	r2, r3
 2632 018a 7968     		ldr	r1, [r7, #4]
 2633 018c F868     		ldr	r0, [r7, #12]
 2634 018e FFF7FEFF 		bl	VL53L0X_calc_timeout_mclks
 2635 0192 3862     		str	r0, [r7, #32]
 804:Drivers/VL53L0X/core/src/vl53l0x_api_core.c **** 					TimeOutMicroSecs,
 805:Drivers/VL53L0X/core/src/vl53l0x_api_core.c **** 					(uint8_t) CurrentVCSELPulsePeriodPClk);
 806:Drivers/VL53L0X/core/src/vl53l0x_api_core.c **** 
 807:Drivers/VL53L0X/core/src/vl53l0x_api_core.c **** 				FinalRangeTimeOutMClks += PreRangeTimeOutMClks;
 2636              		.loc 1 807 28
 2637 0194 BB8C     		ldrh	r3, [r7, #36]
 2638 0196 3A6A     		ldr	r2, [r7, #32]
 2639 0198 1344     		add	r3, r3, r2
 2640 019a 3B62     		str	r3, [r7, #32]
 808:Drivers/VL53L0X/core/src/vl53l0x_api_core.c **** 
 809:Drivers/VL53L0X/core/src/vl53l0x_api_core.c **** 				FinalRangeEncodedTimeOut =
 810:Drivers/VL53L0X/core/src/vl53l0x_api_core.c **** 				VL53L0X_encode_timeout(FinalRangeTimeOutMClks);
 2641              		.loc 1 810 5
 2642 019c 386A     		ldr	r0, [r7, #32]
 2643 019e FFF7FEFF 		bl	VL53L0X_encode_timeout
 2644 01a2 0346     		mov	r3, r0
 2645 01a4 FB83     		strh	r3, [r7, #30]	@ movhi
 811:Drivers/VL53L0X/core/src/vl53l0x_api_core.c **** 
 812:Drivers/VL53L0X/core/src/vl53l0x_api_core.c **** 				if (Status == VL53L0X_ERROR_NONE) {
 2646              		.loc 1 812 8
 2647 01a6 97F92730 		ldrsb	r3, [r7, #39]
 2648 01aa 002B     		cmp	r3, #0
 2649 01ac 08D1     		bne	.L91
 813:Drivers/VL53L0X/core/src/vl53l0x_api_core.c **** 					Status = VL53L0X_WrWord(Dev, 0x71,
 2650              		.loc 1 813 15
 2651 01ae FB8B     		ldrh	r3, [r7, #30]
 2652 01b0 1A46     		mov	r2, r3
 2653 01b2 7121     		movs	r1, #113
 2654 01b4 F868     		ldr	r0, [r7, #12]
ARM GAS  C:\Users\Morroway\AppData\Local\Temp\ccKjJYc2.s 			page 62


 2655 01b6 FFF7FEFF 		bl	VL53L0X_WrWord
 2656 01ba 0346     		mov	r3, r0
 2657 01bc 87F82730 		strb	r3, [r7, #39]
 2658              	.L91:
 814:Drivers/VL53L0X/core/src/vl53l0x_api_core.c **** 					FinalRangeEncodedTimeOut);
 815:Drivers/VL53L0X/core/src/vl53l0x_api_core.c **** 				}
 816:Drivers/VL53L0X/core/src/vl53l0x_api_core.c **** 
 817:Drivers/VL53L0X/core/src/vl53l0x_api_core.c **** 				if (Status == VL53L0X_ERROR_NONE) {
 2659              		.loc 1 817 8
 2660 01c0 97F92730 		ldrsb	r3, [r7, #39]
 2661 01c4 002B     		cmp	r3, #0
 2662 01c6 07D1     		bne	.L84
 818:Drivers/VL53L0X/core/src/vl53l0x_api_core.c **** 					VL53L0X_SETDEVICESPECIFICPARAMETER(
 2663              		.loc 1 818 6
 2664 01c8 FB68     		ldr	r3, [r7, #12]
 2665 01ca 7A68     		ldr	r2, [r7, #4]
 2666 01cc C3F8DC20 		str	r2, [r3, #220]
 2667 01d0 02E0     		b	.L84
 2668              	.L88:
 819:Drivers/VL53L0X/core/src/vl53l0x_api_core.c **** 						Dev,
 820:Drivers/VL53L0X/core/src/vl53l0x_api_core.c **** 						FinalRangeTimeoutMicroSecs,
 821:Drivers/VL53L0X/core/src/vl53l0x_api_core.c **** 						TimeOutMicroSecs);
 822:Drivers/VL53L0X/core/src/vl53l0x_api_core.c **** 				}
 823:Drivers/VL53L0X/core/src/vl53l0x_api_core.c **** 			}
 824:Drivers/VL53L0X/core/src/vl53l0x_api_core.c **** 		} else
 825:Drivers/VL53L0X/core/src/vl53l0x_api_core.c **** 			Status = VL53L0X_ERROR_INVALID_PARAMS;
 2669              		.loc 1 825 11
 2670 01d2 FC23     		movs	r3, #252
 2671 01d4 87F82730 		strb	r3, [r7, #39]
 2672              	.L84:
 826:Drivers/VL53L0X/core/src/vl53l0x_api_core.c **** 
 827:Drivers/VL53L0X/core/src/vl53l0x_api_core.c **** 	}
 828:Drivers/VL53L0X/core/src/vl53l0x_api_core.c **** 	return Status;
 2673              		.loc 1 828 9
 2674 01d8 97F92730 		ldrsb	r3, [r7, #39]
 829:Drivers/VL53L0X/core/src/vl53l0x_api_core.c **** }
 2675              		.loc 1 829 1
 2676 01dc 1846     		mov	r0, r3
 2677 01de 2837     		adds	r7, r7, #40
 2678              		.cfi_def_cfa_offset 8
 2679 01e0 BD46     		mov	sp, r7
 2680              		.cfi_def_cfa_register 13
 2681              		@ sp needed
 2682 01e2 80BD     		pop	{r7, pc}
 2683              		.cfi_endproc
 2684              	.LFE338:
 2686              		.section	.text.VL53L0X_set_vcsel_pulse_period,"ax",%progbits
 2687              		.align	1
 2688              		.global	VL53L0X_set_vcsel_pulse_period
 2689              		.syntax unified
 2690              		.thumb
 2691              		.thumb_func
 2693              	VL53L0X_set_vcsel_pulse_period:
 2694              	.LFB339:
 830:Drivers/VL53L0X/core/src/vl53l0x_api_core.c **** 
 831:Drivers/VL53L0X/core/src/vl53l0x_api_core.c **** VL53L0X_Error VL53L0X_set_vcsel_pulse_period(VL53L0X_DEV Dev,
 832:Drivers/VL53L0X/core/src/vl53l0x_api_core.c **** 	VL53L0X_VcselPeriod VcselPeriodType, uint8_t VCSELPulsePeriodPCLK)
ARM GAS  C:\Users\Morroway\AppData\Local\Temp\ccKjJYc2.s 			page 63


 833:Drivers/VL53L0X/core/src/vl53l0x_api_core.c **** {
 2695              		.loc 1 833 1
 2696              		.cfi_startproc
 2697              		@ args = 0, pretend = 0, frame = 40
 2698              		@ frame_needed = 1, uses_anonymous_args = 0
 2699 0000 80B5     		push	{r7, lr}
 2700              		.cfi_def_cfa_offset 8
 2701              		.cfi_offset 7, -8
 2702              		.cfi_offset 14, -4
 2703 0002 8AB0     		sub	sp, sp, #40
 2704              		.cfi_def_cfa_offset 48
 2705 0004 00AF     		add	r7, sp, #0
 2706              		.cfi_def_cfa_register 7
 2707 0006 7860     		str	r0, [r7, #4]
 2708 0008 0B46     		mov	r3, r1
 2709 000a FB70     		strb	r3, [r7, #3]
 2710 000c 1346     		mov	r3, r2
 2711 000e BB70     		strb	r3, [r7, #2]
 834:Drivers/VL53L0X/core/src/vl53l0x_api_core.c **** 	VL53L0X_Error Status = VL53L0X_ERROR_NONE;
 2712              		.loc 1 834 16
 2713 0010 0023     		movs	r3, #0
 2714 0012 87F82730 		strb	r3, [r7, #39]
 835:Drivers/VL53L0X/core/src/vl53l0x_api_core.c **** 	uint8_t vcsel_period_reg;
 836:Drivers/VL53L0X/core/src/vl53l0x_api_core.c **** 	uint8_t MinPreVcselPeriodPCLK = 12;
 2715              		.loc 1 836 10
 2716 0016 0C23     		movs	r3, #12
 2717 0018 87F82630 		strb	r3, [r7, #38]
 837:Drivers/VL53L0X/core/src/vl53l0x_api_core.c **** 	uint8_t MaxPreVcselPeriodPCLK = 18;
 2718              		.loc 1 837 10
 2719 001c 1223     		movs	r3, #18
 2720 001e 87F82530 		strb	r3, [r7, #37]
 838:Drivers/VL53L0X/core/src/vl53l0x_api_core.c **** 	uint8_t MinFinalVcselPeriodPCLK = 8;
 2721              		.loc 1 838 10
 2722 0022 0823     		movs	r3, #8
 2723 0024 87F82430 		strb	r3, [r7, #36]
 839:Drivers/VL53L0X/core/src/vl53l0x_api_core.c **** 	uint8_t MaxFinalVcselPeriodPCLK = 14;
 2724              		.loc 1 839 10
 2725 0028 0E23     		movs	r3, #14
 2726 002a 87F82330 		strb	r3, [r7, #35]
 840:Drivers/VL53L0X/core/src/vl53l0x_api_core.c **** 	uint32_t MeasurementTimingBudgetMicroSeconds;
 841:Drivers/VL53L0X/core/src/vl53l0x_api_core.c **** 	uint32_t FinalRangeTimeoutMicroSeconds;
 842:Drivers/VL53L0X/core/src/vl53l0x_api_core.c **** 	uint32_t PreRangeTimeoutMicroSeconds;
 843:Drivers/VL53L0X/core/src/vl53l0x_api_core.c **** 	uint32_t MsrcTimeoutMicroSeconds;
 844:Drivers/VL53L0X/core/src/vl53l0x_api_core.c **** 	uint8_t PhaseCalInt = 0;
 2727              		.loc 1 844 10
 2728 002e 0023     		movs	r3, #0
 2729 0030 FB73     		strb	r3, [r7, #15]
 845:Drivers/VL53L0X/core/src/vl53l0x_api_core.c **** 
 846:Drivers/VL53L0X/core/src/vl53l0x_api_core.c **** 	/* Check if valid clock period requested */
 847:Drivers/VL53L0X/core/src/vl53l0x_api_core.c **** 
 848:Drivers/VL53L0X/core/src/vl53l0x_api_core.c **** 	if ((VCSELPulsePeriodPCLK % 2) != 0) {
 2730              		.loc 1 848 33
 2731 0032 BB78     		ldrb	r3, [r7, #2]
 2732 0034 03F00103 		and	r3, r3, #1
 2733 0038 DBB2     		uxtb	r3, r3
 2734              		.loc 1 848 5
 2735 003a 002B     		cmp	r3, #0
ARM GAS  C:\Users\Morroway\AppData\Local\Temp\ccKjJYc2.s 			page 64


 2736 003c 03D0     		beq	.L94
 849:Drivers/VL53L0X/core/src/vl53l0x_api_core.c **** 		/* Value must be an even number */
 850:Drivers/VL53L0X/core/src/vl53l0x_api_core.c **** 		Status = VL53L0X_ERROR_INVALID_PARAMS;
 2737              		.loc 1 850 10
 2738 003e FC23     		movs	r3, #252
 2739 0040 87F82730 		strb	r3, [r7, #39]
 2740 0044 20E0     		b	.L95
 2741              	.L94:
 851:Drivers/VL53L0X/core/src/vl53l0x_api_core.c **** 	} else if (VcselPeriodType == VL53L0X_VCSEL_PERIOD_PRE_RANGE &&
 2742              		.loc 1 851 12
 2743 0046 FB78     		ldrb	r3, [r7, #3]	@ zero_extendqisi2
 2744 0048 002B     		cmp	r3, #0
 2745 004a 0DD1     		bne	.L96
 2746              		.loc 1 851 63 discriminator 1
 2747 004c BA78     		ldrb	r2, [r7, #2]	@ zero_extendqisi2
 2748 004e 97F82630 		ldrb	r3, [r7, #38]	@ zero_extendqisi2
 2749 0052 9A42     		cmp	r2, r3
 2750 0054 04D3     		bcc	.L97
 852:Drivers/VL53L0X/core/src/vl53l0x_api_core.c **** 		(VCSELPulsePeriodPCLK < MinPreVcselPeriodPCLK ||
 2751              		.loc 1 852 49
 2752 0056 BA78     		ldrb	r2, [r7, #2]	@ zero_extendqisi2
 2753 0058 97F82530 		ldrb	r3, [r7, #37]	@ zero_extendqisi2
 2754 005c 9A42     		cmp	r2, r3
 2755 005e 03D9     		bls	.L96
 2756              	.L97:
 853:Drivers/VL53L0X/core/src/vl53l0x_api_core.c **** 		VCSELPulsePeriodPCLK > MaxPreVcselPeriodPCLK)) {
 854:Drivers/VL53L0X/core/src/vl53l0x_api_core.c **** 		Status = VL53L0X_ERROR_INVALID_PARAMS;
 2757              		.loc 1 854 10
 2758 0060 FC23     		movs	r3, #252
 2759 0062 87F82730 		strb	r3, [r7, #39]
 2760 0066 0FE0     		b	.L95
 2761              	.L96:
 855:Drivers/VL53L0X/core/src/vl53l0x_api_core.c **** 	} else if (VcselPeriodType == VL53L0X_VCSEL_PERIOD_FINAL_RANGE &&
 2762              		.loc 1 855 12
 2763 0068 FB78     		ldrb	r3, [r7, #3]	@ zero_extendqisi2
 2764 006a 012B     		cmp	r3, #1
 2765 006c 0CD1     		bne	.L95
 2766              		.loc 1 855 65 discriminator 1
 2767 006e BA78     		ldrb	r2, [r7, #2]	@ zero_extendqisi2
 2768 0070 97F82430 		ldrb	r3, [r7, #36]	@ zero_extendqisi2
 2769 0074 9A42     		cmp	r2, r3
 2770 0076 04D3     		bcc	.L98
 856:Drivers/VL53L0X/core/src/vl53l0x_api_core.c **** 		(VCSELPulsePeriodPCLK < MinFinalVcselPeriodPCLK ||
 2771              		.loc 1 856 51
 2772 0078 BA78     		ldrb	r2, [r7, #2]	@ zero_extendqisi2
 2773 007a 97F82330 		ldrb	r3, [r7, #35]	@ zero_extendqisi2
 2774 007e 9A42     		cmp	r2, r3
 2775 0080 02D9     		bls	.L95
 2776              	.L98:
 857:Drivers/VL53L0X/core/src/vl53l0x_api_core.c **** 		 VCSELPulsePeriodPCLK > MaxFinalVcselPeriodPCLK)) {
 858:Drivers/VL53L0X/core/src/vl53l0x_api_core.c **** 
 859:Drivers/VL53L0X/core/src/vl53l0x_api_core.c **** 		Status = VL53L0X_ERROR_INVALID_PARAMS;
 2777              		.loc 1 859 10
 2778 0082 FC23     		movs	r3, #252
 2779 0084 87F82730 		strb	r3, [r7, #39]
 2780              	.L95:
 860:Drivers/VL53L0X/core/src/vl53l0x_api_core.c **** 	}
ARM GAS  C:\Users\Morroway\AppData\Local\Temp\ccKjJYc2.s 			page 65


 861:Drivers/VL53L0X/core/src/vl53l0x_api_core.c **** 
 862:Drivers/VL53L0X/core/src/vl53l0x_api_core.c **** 	/* Apply specific settings for the requested clock period */
 863:Drivers/VL53L0X/core/src/vl53l0x_api_core.c **** 
 864:Drivers/VL53L0X/core/src/vl53l0x_api_core.c **** 	if (Status != VL53L0X_ERROR_NONE)
 2781              		.loc 1 864 5
 2782 0088 97F92730 		ldrsb	r3, [r7, #39]
 2783 008c 002B     		cmp	r3, #0
 2784 008e 02D0     		beq	.L99
 865:Drivers/VL53L0X/core/src/vl53l0x_api_core.c **** 		return Status;
 2785              		.loc 1 865 10
 2786 0090 97F92730 		ldrsb	r3, [r7, #39]
 2787 0094 37E2     		b	.L121
 2788              	.L99:
 866:Drivers/VL53L0X/core/src/vl53l0x_api_core.c **** 
 867:Drivers/VL53L0X/core/src/vl53l0x_api_core.c **** 
 868:Drivers/VL53L0X/core/src/vl53l0x_api_core.c **** 	if (VcselPeriodType == VL53L0X_VCSEL_PERIOD_PRE_RANGE) {
 2789              		.loc 1 868 5
 2790 0096 FB78     		ldrb	r3, [r7, #3]	@ zero_extendqisi2
 2791 0098 002B     		cmp	r3, #0
 2792 009a 50D1     		bne	.L101
 869:Drivers/VL53L0X/core/src/vl53l0x_api_core.c **** 
 870:Drivers/VL53L0X/core/src/vl53l0x_api_core.c **** 		/* Set phase check limits */
 871:Drivers/VL53L0X/core/src/vl53l0x_api_core.c **** 		if (VCSELPulsePeriodPCLK == 12) {
 2793              		.loc 1 871 6
 2794 009c BB78     		ldrb	r3, [r7, #2]	@ zero_extendqisi2
 2795 009e 0C2B     		cmp	r3, #12
 2796 00a0 10D1     		bne	.L102
 872:Drivers/VL53L0X/core/src/vl53l0x_api_core.c **** 
 873:Drivers/VL53L0X/core/src/vl53l0x_api_core.c **** 			Status = VL53L0X_WrByte(Dev,
 2797              		.loc 1 873 13
 2798 00a2 1822     		movs	r2, #24
 2799 00a4 5721     		movs	r1, #87
 2800 00a6 7868     		ldr	r0, [r7, #4]
 2801 00a8 FFF7FEFF 		bl	VL53L0X_WrByte
 2802 00ac 0346     		mov	r3, r0
 2803 00ae 87F82730 		strb	r3, [r7, #39]
 874:Drivers/VL53L0X/core/src/vl53l0x_api_core.c **** 				VL53L0X_REG_PRE_RANGE_CONFIG_VALID_PHASE_HIGH,
 875:Drivers/VL53L0X/core/src/vl53l0x_api_core.c **** 				0x18);
 876:Drivers/VL53L0X/core/src/vl53l0x_api_core.c **** 			Status = VL53L0X_WrByte(Dev,
 2804              		.loc 1 876 13
 2805 00b2 0822     		movs	r2, #8
 2806 00b4 5621     		movs	r1, #86
 2807 00b6 7868     		ldr	r0, [r7, #4]
 2808 00b8 FFF7FEFF 		bl	VL53L0X_WrByte
 2809 00bc 0346     		mov	r3, r0
 2810 00be 87F82730 		strb	r3, [r7, #39]
 2811 00c2 7FE1     		b	.L103
 2812              	.L102:
 877:Drivers/VL53L0X/core/src/vl53l0x_api_core.c **** 				VL53L0X_REG_PRE_RANGE_CONFIG_VALID_PHASE_LOW,
 878:Drivers/VL53L0X/core/src/vl53l0x_api_core.c **** 				0x08);
 879:Drivers/VL53L0X/core/src/vl53l0x_api_core.c **** 		} else if (VCSELPulsePeriodPCLK == 14) {
 2813              		.loc 1 879 13
 2814 00c4 BB78     		ldrb	r3, [r7, #2]	@ zero_extendqisi2
 2815 00c6 0E2B     		cmp	r3, #14
 2816 00c8 10D1     		bne	.L104
 880:Drivers/VL53L0X/core/src/vl53l0x_api_core.c **** 
 881:Drivers/VL53L0X/core/src/vl53l0x_api_core.c **** 			Status = VL53L0X_WrByte(Dev,
ARM GAS  C:\Users\Morroway\AppData\Local\Temp\ccKjJYc2.s 			page 66


 2817              		.loc 1 881 13
 2818 00ca 3022     		movs	r2, #48
 2819 00cc 5721     		movs	r1, #87
 2820 00ce 7868     		ldr	r0, [r7, #4]
 2821 00d0 FFF7FEFF 		bl	VL53L0X_WrByte
 2822 00d4 0346     		mov	r3, r0
 2823 00d6 87F82730 		strb	r3, [r7, #39]
 882:Drivers/VL53L0X/core/src/vl53l0x_api_core.c **** 				VL53L0X_REG_PRE_RANGE_CONFIG_VALID_PHASE_HIGH,
 883:Drivers/VL53L0X/core/src/vl53l0x_api_core.c **** 				0x30);
 884:Drivers/VL53L0X/core/src/vl53l0x_api_core.c **** 			Status = VL53L0X_WrByte(Dev,
 2824              		.loc 1 884 13
 2825 00da 0822     		movs	r2, #8
 2826 00dc 5621     		movs	r1, #86
 2827 00de 7868     		ldr	r0, [r7, #4]
 2828 00e0 FFF7FEFF 		bl	VL53L0X_WrByte
 2829 00e4 0346     		mov	r3, r0
 2830 00e6 87F82730 		strb	r3, [r7, #39]
 2831 00ea 6BE1     		b	.L103
 2832              	.L104:
 885:Drivers/VL53L0X/core/src/vl53l0x_api_core.c **** 				VL53L0X_REG_PRE_RANGE_CONFIG_VALID_PHASE_LOW,
 886:Drivers/VL53L0X/core/src/vl53l0x_api_core.c **** 				0x08);
 887:Drivers/VL53L0X/core/src/vl53l0x_api_core.c **** 		} else if (VCSELPulsePeriodPCLK == 16) {
 2833              		.loc 1 887 13
 2834 00ec BB78     		ldrb	r3, [r7, #2]	@ zero_extendqisi2
 2835 00ee 102B     		cmp	r3, #16
 2836 00f0 10D1     		bne	.L105
 888:Drivers/VL53L0X/core/src/vl53l0x_api_core.c **** 
 889:Drivers/VL53L0X/core/src/vl53l0x_api_core.c **** 			Status = VL53L0X_WrByte(Dev,
 2837              		.loc 1 889 13
 2838 00f2 4022     		movs	r2, #64
 2839 00f4 5721     		movs	r1, #87
 2840 00f6 7868     		ldr	r0, [r7, #4]
 2841 00f8 FFF7FEFF 		bl	VL53L0X_WrByte
 2842 00fc 0346     		mov	r3, r0
 2843 00fe 87F82730 		strb	r3, [r7, #39]
 890:Drivers/VL53L0X/core/src/vl53l0x_api_core.c **** 				VL53L0X_REG_PRE_RANGE_CONFIG_VALID_PHASE_HIGH,
 891:Drivers/VL53L0X/core/src/vl53l0x_api_core.c **** 				0x40);
 892:Drivers/VL53L0X/core/src/vl53l0x_api_core.c **** 			Status = VL53L0X_WrByte(Dev,
 2844              		.loc 1 892 13
 2845 0102 0822     		movs	r2, #8
 2846 0104 5621     		movs	r1, #86
 2847 0106 7868     		ldr	r0, [r7, #4]
 2848 0108 FFF7FEFF 		bl	VL53L0X_WrByte
 2849 010c 0346     		mov	r3, r0
 2850 010e 87F82730 		strb	r3, [r7, #39]
 2851 0112 57E1     		b	.L103
 2852              	.L105:
 893:Drivers/VL53L0X/core/src/vl53l0x_api_core.c **** 				VL53L0X_REG_PRE_RANGE_CONFIG_VALID_PHASE_LOW,
 894:Drivers/VL53L0X/core/src/vl53l0x_api_core.c **** 				0x08);
 895:Drivers/VL53L0X/core/src/vl53l0x_api_core.c **** 		} else if (VCSELPulsePeriodPCLK == 18) {
 2853              		.loc 1 895 13
 2854 0114 BB78     		ldrb	r3, [r7, #2]	@ zero_extendqisi2
 2855 0116 122B     		cmp	r3, #18
 2856 0118 40F05481 		bne	.L103
 896:Drivers/VL53L0X/core/src/vl53l0x_api_core.c **** 
 897:Drivers/VL53L0X/core/src/vl53l0x_api_core.c **** 			Status = VL53L0X_WrByte(Dev,
 2857              		.loc 1 897 13
ARM GAS  C:\Users\Morroway\AppData\Local\Temp\ccKjJYc2.s 			page 67


 2858 011c 5022     		movs	r2, #80
 2859 011e 5721     		movs	r1, #87
 2860 0120 7868     		ldr	r0, [r7, #4]
 2861 0122 FFF7FEFF 		bl	VL53L0X_WrByte
 2862 0126 0346     		mov	r3, r0
 2863 0128 87F82730 		strb	r3, [r7, #39]
 898:Drivers/VL53L0X/core/src/vl53l0x_api_core.c **** 				VL53L0X_REG_PRE_RANGE_CONFIG_VALID_PHASE_HIGH,
 899:Drivers/VL53L0X/core/src/vl53l0x_api_core.c **** 				0x50);
 900:Drivers/VL53L0X/core/src/vl53l0x_api_core.c **** 			Status = VL53L0X_WrByte(Dev,
 2864              		.loc 1 900 13
 2865 012c 0822     		movs	r2, #8
 2866 012e 5621     		movs	r1, #86
 2867 0130 7868     		ldr	r0, [r7, #4]
 2868 0132 FFF7FEFF 		bl	VL53L0X_WrByte
 2869 0136 0346     		mov	r3, r0
 2870 0138 87F82730 		strb	r3, [r7, #39]
 2871 013c 42E1     		b	.L103
 2872              	.L101:
 901:Drivers/VL53L0X/core/src/vl53l0x_api_core.c **** 				VL53L0X_REG_PRE_RANGE_CONFIG_VALID_PHASE_LOW,
 902:Drivers/VL53L0X/core/src/vl53l0x_api_core.c **** 				0x08);
 903:Drivers/VL53L0X/core/src/vl53l0x_api_core.c **** 		}
 904:Drivers/VL53L0X/core/src/vl53l0x_api_core.c **** 	} else if (VcselPeriodType == VL53L0X_VCSEL_PERIOD_FINAL_RANGE) {
 2873              		.loc 1 904 12
 2874 013e FB78     		ldrb	r3, [r7, #3]	@ zero_extendqisi2
 2875 0140 012B     		cmp	r3, #1
 2876 0142 40F03F81 		bne	.L103
 905:Drivers/VL53L0X/core/src/vl53l0x_api_core.c **** 
 906:Drivers/VL53L0X/core/src/vl53l0x_api_core.c **** 		if (VCSELPulsePeriodPCLK == 8) {
 2877              		.loc 1 906 6
 2878 0146 BB78     		ldrb	r3, [r7, #2]	@ zero_extendqisi2
 2879 0148 082B     		cmp	r3, #8
 2880 014a 4CD1     		bne	.L106
 907:Drivers/VL53L0X/core/src/vl53l0x_api_core.c **** 
 908:Drivers/VL53L0X/core/src/vl53l0x_api_core.c **** 			Status = VL53L0X_WrByte(Dev,
 2881              		.loc 1 908 13
 2882 014c 1022     		movs	r2, #16
 2883 014e 4821     		movs	r1, #72
 2884 0150 7868     		ldr	r0, [r7, #4]
 2885 0152 FFF7FEFF 		bl	VL53L0X_WrByte
 2886 0156 0346     		mov	r3, r0
 2887 0158 87F82730 		strb	r3, [r7, #39]
 909:Drivers/VL53L0X/core/src/vl53l0x_api_core.c **** 				VL53L0X_REG_FINAL_RANGE_CONFIG_VALID_PHASE_HIGH,
 910:Drivers/VL53L0X/core/src/vl53l0x_api_core.c **** 				0x10);
 911:Drivers/VL53L0X/core/src/vl53l0x_api_core.c **** 			Status = VL53L0X_WrByte(Dev,
 2888              		.loc 1 911 13
 2889 015c 0822     		movs	r2, #8
 2890 015e 4721     		movs	r1, #71
 2891 0160 7868     		ldr	r0, [r7, #4]
 2892 0162 FFF7FEFF 		bl	VL53L0X_WrByte
 2893 0166 0346     		mov	r3, r0
 2894 0168 87F82730 		strb	r3, [r7, #39]
 912:Drivers/VL53L0X/core/src/vl53l0x_api_core.c **** 				VL53L0X_REG_FINAL_RANGE_CONFIG_VALID_PHASE_LOW,
 913:Drivers/VL53L0X/core/src/vl53l0x_api_core.c **** 				0x08);
 914:Drivers/VL53L0X/core/src/vl53l0x_api_core.c **** 
 915:Drivers/VL53L0X/core/src/vl53l0x_api_core.c **** 			Status |= VL53L0X_WrByte(Dev,
 2895              		.loc 1 915 14
 2896 016c 0222     		movs	r2, #2
ARM GAS  C:\Users\Morroway\AppData\Local\Temp\ccKjJYc2.s 			page 68


 2897 016e 3221     		movs	r1, #50
 2898 0170 7868     		ldr	r0, [r7, #4]
 2899 0172 FFF7FEFF 		bl	VL53L0X_WrByte
 2900 0176 0346     		mov	r3, r0
 2901 0178 1A46     		mov	r2, r3
 2902              		.loc 1 915 11
 2903 017a 97F82730 		ldrb	r3, [r7, #39]
 2904 017e 1343     		orrs	r3, r3, r2
 2905 0180 87F82730 		strb	r3, [r7, #39]
 916:Drivers/VL53L0X/core/src/vl53l0x_api_core.c **** 				VL53L0X_REG_GLOBAL_CONFIG_VCSEL_WIDTH, 0x02);
 917:Drivers/VL53L0X/core/src/vl53l0x_api_core.c **** 			Status |= VL53L0X_WrByte(Dev,
 2906              		.loc 1 917 14
 2907 0184 0C22     		movs	r2, #12
 2908 0186 3021     		movs	r1, #48
 2909 0188 7868     		ldr	r0, [r7, #4]
 2910 018a FFF7FEFF 		bl	VL53L0X_WrByte
 2911 018e 0346     		mov	r3, r0
 2912 0190 1A46     		mov	r2, r3
 2913              		.loc 1 917 11
 2914 0192 97F82730 		ldrb	r3, [r7, #39]
 2915 0196 1343     		orrs	r3, r3, r2
 2916 0198 87F82730 		strb	r3, [r7, #39]
 918:Drivers/VL53L0X/core/src/vl53l0x_api_core.c **** 				VL53L0X_REG_ALGO_PHASECAL_CONFIG_TIMEOUT, 0x0C);
 919:Drivers/VL53L0X/core/src/vl53l0x_api_core.c **** 
 920:Drivers/VL53L0X/core/src/vl53l0x_api_core.c **** 			Status |= VL53L0X_WrByte(Dev, 0xff, 0x01);
 2917              		.loc 1 920 14
 2918 019c 0122     		movs	r2, #1
 2919 019e FF21     		movs	r1, #255
 2920 01a0 7868     		ldr	r0, [r7, #4]
 2921 01a2 FFF7FEFF 		bl	VL53L0X_WrByte
 2922 01a6 0346     		mov	r3, r0
 2923 01a8 1A46     		mov	r2, r3
 2924              		.loc 1 920 11
 2925 01aa 97F82730 		ldrb	r3, [r7, #39]
 2926 01ae 1343     		orrs	r3, r3, r2
 2927 01b0 87F82730 		strb	r3, [r7, #39]
 921:Drivers/VL53L0X/core/src/vl53l0x_api_core.c **** 			Status |= VL53L0X_WrByte(Dev,
 2928              		.loc 1 921 14
 2929 01b4 3022     		movs	r2, #48
 2930 01b6 3021     		movs	r1, #48
 2931 01b8 7868     		ldr	r0, [r7, #4]
 2932 01ba FFF7FEFF 		bl	VL53L0X_WrByte
 2933 01be 0346     		mov	r3, r0
 2934 01c0 1A46     		mov	r2, r3
 2935              		.loc 1 921 11
 2936 01c2 97F82730 		ldrb	r3, [r7, #39]
 2937 01c6 1343     		orrs	r3, r3, r2
 2938 01c8 87F82730 		strb	r3, [r7, #39]
 922:Drivers/VL53L0X/core/src/vl53l0x_api_core.c **** 				VL53L0X_REG_ALGO_PHASECAL_LIM,
 923:Drivers/VL53L0X/core/src/vl53l0x_api_core.c **** 				0x30);
 924:Drivers/VL53L0X/core/src/vl53l0x_api_core.c **** 			Status |= VL53L0X_WrByte(Dev, 0xff, 0x00);
 2939              		.loc 1 924 14
 2940 01cc 0022     		movs	r2, #0
 2941 01ce FF21     		movs	r1, #255
 2942 01d0 7868     		ldr	r0, [r7, #4]
 2943 01d2 FFF7FEFF 		bl	VL53L0X_WrByte
 2944 01d6 0346     		mov	r3, r0
ARM GAS  C:\Users\Morroway\AppData\Local\Temp\ccKjJYc2.s 			page 69


 2945 01d8 1A46     		mov	r2, r3
 2946              		.loc 1 924 11
 2947 01da 97F82730 		ldrb	r3, [r7, #39]
 2948 01de 1343     		orrs	r3, r3, r2
 2949 01e0 87F82730 		strb	r3, [r7, #39]
 2950 01e4 EEE0     		b	.L103
 2951              	.L106:
 925:Drivers/VL53L0X/core/src/vl53l0x_api_core.c **** 		} else if (VCSELPulsePeriodPCLK == 10) {
 2952              		.loc 1 925 13
 2953 01e6 BB78     		ldrb	r3, [r7, #2]	@ zero_extendqisi2
 2954 01e8 0A2B     		cmp	r3, #10
 2955 01ea 4CD1     		bne	.L107
 926:Drivers/VL53L0X/core/src/vl53l0x_api_core.c **** 
 927:Drivers/VL53L0X/core/src/vl53l0x_api_core.c **** 			Status = VL53L0X_WrByte(Dev,
 2956              		.loc 1 927 13
 2957 01ec 2822     		movs	r2, #40
 2958 01ee 4821     		movs	r1, #72
 2959 01f0 7868     		ldr	r0, [r7, #4]
 2960 01f2 FFF7FEFF 		bl	VL53L0X_WrByte
 2961 01f6 0346     		mov	r3, r0
 2962 01f8 87F82730 		strb	r3, [r7, #39]
 928:Drivers/VL53L0X/core/src/vl53l0x_api_core.c **** 				VL53L0X_REG_FINAL_RANGE_CONFIG_VALID_PHASE_HIGH,
 929:Drivers/VL53L0X/core/src/vl53l0x_api_core.c **** 				0x28);
 930:Drivers/VL53L0X/core/src/vl53l0x_api_core.c **** 			Status = VL53L0X_WrByte(Dev,
 2963              		.loc 1 930 13
 2964 01fc 0822     		movs	r2, #8
 2965 01fe 4721     		movs	r1, #71
 2966 0200 7868     		ldr	r0, [r7, #4]
 2967 0202 FFF7FEFF 		bl	VL53L0X_WrByte
 2968 0206 0346     		mov	r3, r0
 2969 0208 87F82730 		strb	r3, [r7, #39]
 931:Drivers/VL53L0X/core/src/vl53l0x_api_core.c **** 				VL53L0X_REG_FINAL_RANGE_CONFIG_VALID_PHASE_LOW,
 932:Drivers/VL53L0X/core/src/vl53l0x_api_core.c **** 				0x08);
 933:Drivers/VL53L0X/core/src/vl53l0x_api_core.c **** 
 934:Drivers/VL53L0X/core/src/vl53l0x_api_core.c **** 			Status |= VL53L0X_WrByte(Dev,
 2970              		.loc 1 934 14
 2971 020c 0322     		movs	r2, #3
 2972 020e 3221     		movs	r1, #50
 2973 0210 7868     		ldr	r0, [r7, #4]
 2974 0212 FFF7FEFF 		bl	VL53L0X_WrByte
 2975 0216 0346     		mov	r3, r0
 2976 0218 1A46     		mov	r2, r3
 2977              		.loc 1 934 11
 2978 021a 97F82730 		ldrb	r3, [r7, #39]
 2979 021e 1343     		orrs	r3, r3, r2
 2980 0220 87F82730 		strb	r3, [r7, #39]
 935:Drivers/VL53L0X/core/src/vl53l0x_api_core.c **** 				VL53L0X_REG_GLOBAL_CONFIG_VCSEL_WIDTH, 0x03);
 936:Drivers/VL53L0X/core/src/vl53l0x_api_core.c **** 			Status |= VL53L0X_WrByte(Dev,
 2981              		.loc 1 936 14
 2982 0224 0922     		movs	r2, #9
 2983 0226 3021     		movs	r1, #48
 2984 0228 7868     		ldr	r0, [r7, #4]
 2985 022a FFF7FEFF 		bl	VL53L0X_WrByte
 2986 022e 0346     		mov	r3, r0
 2987 0230 1A46     		mov	r2, r3
 2988              		.loc 1 936 11
 2989 0232 97F82730 		ldrb	r3, [r7, #39]
ARM GAS  C:\Users\Morroway\AppData\Local\Temp\ccKjJYc2.s 			page 70


 2990 0236 1343     		orrs	r3, r3, r2
 2991 0238 87F82730 		strb	r3, [r7, #39]
 937:Drivers/VL53L0X/core/src/vl53l0x_api_core.c **** 				VL53L0X_REG_ALGO_PHASECAL_CONFIG_TIMEOUT, 0x09);
 938:Drivers/VL53L0X/core/src/vl53l0x_api_core.c **** 
 939:Drivers/VL53L0X/core/src/vl53l0x_api_core.c **** 			Status |= VL53L0X_WrByte(Dev, 0xff, 0x01);
 2992              		.loc 1 939 14
 2993 023c 0122     		movs	r2, #1
 2994 023e FF21     		movs	r1, #255
 2995 0240 7868     		ldr	r0, [r7, #4]
 2996 0242 FFF7FEFF 		bl	VL53L0X_WrByte
 2997 0246 0346     		mov	r3, r0
 2998 0248 1A46     		mov	r2, r3
 2999              		.loc 1 939 11
 3000 024a 97F82730 		ldrb	r3, [r7, #39]
 3001 024e 1343     		orrs	r3, r3, r2
 3002 0250 87F82730 		strb	r3, [r7, #39]
 940:Drivers/VL53L0X/core/src/vl53l0x_api_core.c **** 			Status |= VL53L0X_WrByte(Dev,
 3003              		.loc 1 940 14
 3004 0254 2022     		movs	r2, #32
 3005 0256 3021     		movs	r1, #48
 3006 0258 7868     		ldr	r0, [r7, #4]
 3007 025a FFF7FEFF 		bl	VL53L0X_WrByte
 3008 025e 0346     		mov	r3, r0
 3009 0260 1A46     		mov	r2, r3
 3010              		.loc 1 940 11
 3011 0262 97F82730 		ldrb	r3, [r7, #39]
 3012 0266 1343     		orrs	r3, r3, r2
 3013 0268 87F82730 		strb	r3, [r7, #39]
 941:Drivers/VL53L0X/core/src/vl53l0x_api_core.c **** 				VL53L0X_REG_ALGO_PHASECAL_LIM,
 942:Drivers/VL53L0X/core/src/vl53l0x_api_core.c **** 				0x20);
 943:Drivers/VL53L0X/core/src/vl53l0x_api_core.c **** 			Status |= VL53L0X_WrByte(Dev, 0xff, 0x00);
 3014              		.loc 1 943 14
 3015 026c 0022     		movs	r2, #0
 3016 026e FF21     		movs	r1, #255
 3017 0270 7868     		ldr	r0, [r7, #4]
 3018 0272 FFF7FEFF 		bl	VL53L0X_WrByte
 3019 0276 0346     		mov	r3, r0
 3020 0278 1A46     		mov	r2, r3
 3021              		.loc 1 943 11
 3022 027a 97F82730 		ldrb	r3, [r7, #39]
 3023 027e 1343     		orrs	r3, r3, r2
 3024 0280 87F82730 		strb	r3, [r7, #39]
 3025 0284 9EE0     		b	.L103
 3026              	.L107:
 944:Drivers/VL53L0X/core/src/vl53l0x_api_core.c **** 		} else if (VCSELPulsePeriodPCLK == 12) {
 3027              		.loc 1 944 13
 3028 0286 BB78     		ldrb	r3, [r7, #2]	@ zero_extendqisi2
 3029 0288 0C2B     		cmp	r3, #12
 3030 028a 4CD1     		bne	.L108
 945:Drivers/VL53L0X/core/src/vl53l0x_api_core.c **** 
 946:Drivers/VL53L0X/core/src/vl53l0x_api_core.c **** 			Status = VL53L0X_WrByte(Dev,
 3031              		.loc 1 946 13
 3032 028c 3822     		movs	r2, #56
 3033 028e 4821     		movs	r1, #72
 3034 0290 7868     		ldr	r0, [r7, #4]
 3035 0292 FFF7FEFF 		bl	VL53L0X_WrByte
 3036 0296 0346     		mov	r3, r0
ARM GAS  C:\Users\Morroway\AppData\Local\Temp\ccKjJYc2.s 			page 71


 3037 0298 87F82730 		strb	r3, [r7, #39]
 947:Drivers/VL53L0X/core/src/vl53l0x_api_core.c **** 				VL53L0X_REG_FINAL_RANGE_CONFIG_VALID_PHASE_HIGH,
 948:Drivers/VL53L0X/core/src/vl53l0x_api_core.c **** 				0x38);
 949:Drivers/VL53L0X/core/src/vl53l0x_api_core.c **** 			Status = VL53L0X_WrByte(Dev,
 3038              		.loc 1 949 13
 3039 029c 0822     		movs	r2, #8
 3040 029e 4721     		movs	r1, #71
 3041 02a0 7868     		ldr	r0, [r7, #4]
 3042 02a2 FFF7FEFF 		bl	VL53L0X_WrByte
 3043 02a6 0346     		mov	r3, r0
 3044 02a8 87F82730 		strb	r3, [r7, #39]
 950:Drivers/VL53L0X/core/src/vl53l0x_api_core.c **** 				VL53L0X_REG_FINAL_RANGE_CONFIG_VALID_PHASE_LOW,
 951:Drivers/VL53L0X/core/src/vl53l0x_api_core.c **** 				0x08);
 952:Drivers/VL53L0X/core/src/vl53l0x_api_core.c **** 
 953:Drivers/VL53L0X/core/src/vl53l0x_api_core.c **** 			Status |= VL53L0X_WrByte(Dev,
 3045              		.loc 1 953 14
 3046 02ac 0322     		movs	r2, #3
 3047 02ae 3221     		movs	r1, #50
 3048 02b0 7868     		ldr	r0, [r7, #4]
 3049 02b2 FFF7FEFF 		bl	VL53L0X_WrByte
 3050 02b6 0346     		mov	r3, r0
 3051 02b8 1A46     		mov	r2, r3
 3052              		.loc 1 953 11
 3053 02ba 97F82730 		ldrb	r3, [r7, #39]
 3054 02be 1343     		orrs	r3, r3, r2
 3055 02c0 87F82730 		strb	r3, [r7, #39]
 954:Drivers/VL53L0X/core/src/vl53l0x_api_core.c **** 				VL53L0X_REG_GLOBAL_CONFIG_VCSEL_WIDTH, 0x03);
 955:Drivers/VL53L0X/core/src/vl53l0x_api_core.c **** 			Status |= VL53L0X_WrByte(Dev,
 3056              		.loc 1 955 14
 3057 02c4 0822     		movs	r2, #8
 3058 02c6 3021     		movs	r1, #48
 3059 02c8 7868     		ldr	r0, [r7, #4]
 3060 02ca FFF7FEFF 		bl	VL53L0X_WrByte
 3061 02ce 0346     		mov	r3, r0
 3062 02d0 1A46     		mov	r2, r3
 3063              		.loc 1 955 11
 3064 02d2 97F82730 		ldrb	r3, [r7, #39]
 3065 02d6 1343     		orrs	r3, r3, r2
 3066 02d8 87F82730 		strb	r3, [r7, #39]
 956:Drivers/VL53L0X/core/src/vl53l0x_api_core.c **** 				VL53L0X_REG_ALGO_PHASECAL_CONFIG_TIMEOUT, 0x08);
 957:Drivers/VL53L0X/core/src/vl53l0x_api_core.c **** 
 958:Drivers/VL53L0X/core/src/vl53l0x_api_core.c **** 			Status |= VL53L0X_WrByte(Dev, 0xff, 0x01);
 3067              		.loc 1 958 14
 3068 02dc 0122     		movs	r2, #1
 3069 02de FF21     		movs	r1, #255
 3070 02e0 7868     		ldr	r0, [r7, #4]
 3071 02e2 FFF7FEFF 		bl	VL53L0X_WrByte
 3072 02e6 0346     		mov	r3, r0
 3073 02e8 1A46     		mov	r2, r3
 3074              		.loc 1 958 11
 3075 02ea 97F82730 		ldrb	r3, [r7, #39]
 3076 02ee 1343     		orrs	r3, r3, r2
 3077 02f0 87F82730 		strb	r3, [r7, #39]
 959:Drivers/VL53L0X/core/src/vl53l0x_api_core.c **** 			Status |= VL53L0X_WrByte(Dev,
 3078              		.loc 1 959 14
 3079 02f4 2022     		movs	r2, #32
 3080 02f6 3021     		movs	r1, #48
ARM GAS  C:\Users\Morroway\AppData\Local\Temp\ccKjJYc2.s 			page 72


 3081 02f8 7868     		ldr	r0, [r7, #4]
 3082 02fa FFF7FEFF 		bl	VL53L0X_WrByte
 3083 02fe 0346     		mov	r3, r0
 3084 0300 1A46     		mov	r2, r3
 3085              		.loc 1 959 11
 3086 0302 97F82730 		ldrb	r3, [r7, #39]
 3087 0306 1343     		orrs	r3, r3, r2
 3088 0308 87F82730 		strb	r3, [r7, #39]
 960:Drivers/VL53L0X/core/src/vl53l0x_api_core.c **** 				VL53L0X_REG_ALGO_PHASECAL_LIM,
 961:Drivers/VL53L0X/core/src/vl53l0x_api_core.c **** 				0x20);
 962:Drivers/VL53L0X/core/src/vl53l0x_api_core.c **** 			Status |= VL53L0X_WrByte(Dev, 0xff, 0x00);
 3089              		.loc 1 962 14
 3090 030c 0022     		movs	r2, #0
 3091 030e FF21     		movs	r1, #255
 3092 0310 7868     		ldr	r0, [r7, #4]
 3093 0312 FFF7FEFF 		bl	VL53L0X_WrByte
 3094 0316 0346     		mov	r3, r0
 3095 0318 1A46     		mov	r2, r3
 3096              		.loc 1 962 11
 3097 031a 97F82730 		ldrb	r3, [r7, #39]
 3098 031e 1343     		orrs	r3, r3, r2
 3099 0320 87F82730 		strb	r3, [r7, #39]
 3100 0324 4EE0     		b	.L103
 3101              	.L108:
 963:Drivers/VL53L0X/core/src/vl53l0x_api_core.c **** 		} else if (VCSELPulsePeriodPCLK == 14) {
 3102              		.loc 1 963 13
 3103 0326 BB78     		ldrb	r3, [r7, #2]	@ zero_extendqisi2
 3104 0328 0E2B     		cmp	r3, #14
 3105 032a 4BD1     		bne	.L103
 964:Drivers/VL53L0X/core/src/vl53l0x_api_core.c **** 
 965:Drivers/VL53L0X/core/src/vl53l0x_api_core.c **** 			Status = VL53L0X_WrByte(Dev,
 3106              		.loc 1 965 13
 3107 032c 4822     		movs	r2, #72
 3108 032e 4821     		movs	r1, #72
 3109 0330 7868     		ldr	r0, [r7, #4]
 3110 0332 FFF7FEFF 		bl	VL53L0X_WrByte
 3111 0336 0346     		mov	r3, r0
 3112 0338 87F82730 		strb	r3, [r7, #39]
 966:Drivers/VL53L0X/core/src/vl53l0x_api_core.c **** 				VL53L0X_REG_FINAL_RANGE_CONFIG_VALID_PHASE_HIGH,
 967:Drivers/VL53L0X/core/src/vl53l0x_api_core.c **** 				0x048);
 968:Drivers/VL53L0X/core/src/vl53l0x_api_core.c **** 			Status = VL53L0X_WrByte(Dev,
 3113              		.loc 1 968 13
 3114 033c 0822     		movs	r2, #8
 3115 033e 4721     		movs	r1, #71
 3116 0340 7868     		ldr	r0, [r7, #4]
 3117 0342 FFF7FEFF 		bl	VL53L0X_WrByte
 3118 0346 0346     		mov	r3, r0
 3119 0348 87F82730 		strb	r3, [r7, #39]
 969:Drivers/VL53L0X/core/src/vl53l0x_api_core.c **** 				VL53L0X_REG_FINAL_RANGE_CONFIG_VALID_PHASE_LOW,
 970:Drivers/VL53L0X/core/src/vl53l0x_api_core.c **** 				0x08);
 971:Drivers/VL53L0X/core/src/vl53l0x_api_core.c **** 
 972:Drivers/VL53L0X/core/src/vl53l0x_api_core.c **** 			Status |= VL53L0X_WrByte(Dev,
 3120              		.loc 1 972 14
 3121 034c 0322     		movs	r2, #3
 3122 034e 3221     		movs	r1, #50
 3123 0350 7868     		ldr	r0, [r7, #4]
 3124 0352 FFF7FEFF 		bl	VL53L0X_WrByte
ARM GAS  C:\Users\Morroway\AppData\Local\Temp\ccKjJYc2.s 			page 73


 3125 0356 0346     		mov	r3, r0
 3126 0358 1A46     		mov	r2, r3
 3127              		.loc 1 972 11
 3128 035a 97F82730 		ldrb	r3, [r7, #39]
 3129 035e 1343     		orrs	r3, r3, r2
 3130 0360 87F82730 		strb	r3, [r7, #39]
 973:Drivers/VL53L0X/core/src/vl53l0x_api_core.c **** 				VL53L0X_REG_GLOBAL_CONFIG_VCSEL_WIDTH, 0x03);
 974:Drivers/VL53L0X/core/src/vl53l0x_api_core.c **** 			Status |= VL53L0X_WrByte(Dev,
 3131              		.loc 1 974 14
 3132 0364 0722     		movs	r2, #7
 3133 0366 3021     		movs	r1, #48
 3134 0368 7868     		ldr	r0, [r7, #4]
 3135 036a FFF7FEFF 		bl	VL53L0X_WrByte
 3136 036e 0346     		mov	r3, r0
 3137 0370 1A46     		mov	r2, r3
 3138              		.loc 1 974 11
 3139 0372 97F82730 		ldrb	r3, [r7, #39]
 3140 0376 1343     		orrs	r3, r3, r2
 3141 0378 87F82730 		strb	r3, [r7, #39]
 975:Drivers/VL53L0X/core/src/vl53l0x_api_core.c **** 				VL53L0X_REG_ALGO_PHASECAL_CONFIG_TIMEOUT, 0x07);
 976:Drivers/VL53L0X/core/src/vl53l0x_api_core.c **** 
 977:Drivers/VL53L0X/core/src/vl53l0x_api_core.c **** 			Status |= VL53L0X_WrByte(Dev, 0xff, 0x01);
 3142              		.loc 1 977 14
 3143 037c 0122     		movs	r2, #1
 3144 037e FF21     		movs	r1, #255
 3145 0380 7868     		ldr	r0, [r7, #4]
 3146 0382 FFF7FEFF 		bl	VL53L0X_WrByte
 3147 0386 0346     		mov	r3, r0
 3148 0388 1A46     		mov	r2, r3
 3149              		.loc 1 977 11
 3150 038a 97F82730 		ldrb	r3, [r7, #39]
 3151 038e 1343     		orrs	r3, r3, r2
 3152 0390 87F82730 		strb	r3, [r7, #39]
 978:Drivers/VL53L0X/core/src/vl53l0x_api_core.c **** 			Status |= VL53L0X_WrByte(Dev,
 3153              		.loc 1 978 14
 3154 0394 2022     		movs	r2, #32
 3155 0396 3021     		movs	r1, #48
 3156 0398 7868     		ldr	r0, [r7, #4]
 3157 039a FFF7FEFF 		bl	VL53L0X_WrByte
 3158 039e 0346     		mov	r3, r0
 3159 03a0 1A46     		mov	r2, r3
 3160              		.loc 1 978 11
 3161 03a2 97F82730 		ldrb	r3, [r7, #39]
 3162 03a6 1343     		orrs	r3, r3, r2
 3163 03a8 87F82730 		strb	r3, [r7, #39]
 979:Drivers/VL53L0X/core/src/vl53l0x_api_core.c **** 				VL53L0X_REG_ALGO_PHASECAL_LIM,
 980:Drivers/VL53L0X/core/src/vl53l0x_api_core.c **** 				0x20);
 981:Drivers/VL53L0X/core/src/vl53l0x_api_core.c **** 			Status |= VL53L0X_WrByte(Dev, 0xff, 0x00);
 3164              		.loc 1 981 14
 3165 03ac 0022     		movs	r2, #0
 3166 03ae FF21     		movs	r1, #255
 3167 03b0 7868     		ldr	r0, [r7, #4]
 3168 03b2 FFF7FEFF 		bl	VL53L0X_WrByte
 3169 03b6 0346     		mov	r3, r0
 3170 03b8 1A46     		mov	r2, r3
 3171              		.loc 1 981 11
 3172 03ba 97F82730 		ldrb	r3, [r7, #39]
ARM GAS  C:\Users\Morroway\AppData\Local\Temp\ccKjJYc2.s 			page 74


 3173 03be 1343     		orrs	r3, r3, r2
 3174 03c0 87F82730 		strb	r3, [r7, #39]
 3175              	.L103:
 982:Drivers/VL53L0X/core/src/vl53l0x_api_core.c **** 		}
 983:Drivers/VL53L0X/core/src/vl53l0x_api_core.c **** 	}
 984:Drivers/VL53L0X/core/src/vl53l0x_api_core.c **** 
 985:Drivers/VL53L0X/core/src/vl53l0x_api_core.c **** 
 986:Drivers/VL53L0X/core/src/vl53l0x_api_core.c **** 	/* Re-calculate and apply timeouts, in macro periods */
 987:Drivers/VL53L0X/core/src/vl53l0x_api_core.c **** 
 988:Drivers/VL53L0X/core/src/vl53l0x_api_core.c **** 	if (Status == VL53L0X_ERROR_NONE) {
 3176              		.loc 1 988 5
 3177 03c4 97F92730 		ldrsb	r3, [r7, #39]
 3178 03c8 002B     		cmp	r3, #0
 3179 03ca 7ED1     		bne	.L109
 989:Drivers/VL53L0X/core/src/vl53l0x_api_core.c **** 		vcsel_period_reg = VL53L0X_encode_vcsel_period((uint8_t)
 3180              		.loc 1 989 22
 3181 03cc BB78     		ldrb	r3, [r7, #2]	@ zero_extendqisi2
 3182 03ce 1846     		mov	r0, r3
 3183 03d0 FFF7FEFF 		bl	VL53L0X_encode_vcsel_period
 3184 03d4 0346     		mov	r3, r0
 3185 03d6 87F82230 		strb	r3, [r7, #34]
 990:Drivers/VL53L0X/core/src/vl53l0x_api_core.c **** 			VCSELPulsePeriodPCLK);
 991:Drivers/VL53L0X/core/src/vl53l0x_api_core.c **** 
 992:Drivers/VL53L0X/core/src/vl53l0x_api_core.c **** 		/* When the VCSEL period for the pre or final range is changed,
 993:Drivers/VL53L0X/core/src/vl53l0x_api_core.c **** 		* the corresponding timeout must be read from the device using
 994:Drivers/VL53L0X/core/src/vl53l0x_api_core.c **** 		* the current VCSEL period, then the new VCSEL period can be
 995:Drivers/VL53L0X/core/src/vl53l0x_api_core.c **** 		* applied. The timeout then must be written back to the device
 996:Drivers/VL53L0X/core/src/vl53l0x_api_core.c **** 		* using the new VCSEL period.
 997:Drivers/VL53L0X/core/src/vl53l0x_api_core.c **** 		*
 998:Drivers/VL53L0X/core/src/vl53l0x_api_core.c **** 		* For the MSRC timeout, the same applies - this timeout being
 999:Drivers/VL53L0X/core/src/vl53l0x_api_core.c **** 		* dependant on the pre-range vcsel period.
1000:Drivers/VL53L0X/core/src/vl53l0x_api_core.c **** 		*/
1001:Drivers/VL53L0X/core/src/vl53l0x_api_core.c **** 		switch (VcselPeriodType) {
 3186              		.loc 1 1001 3
 3187 03da FB78     		ldrb	r3, [r7, #3]	@ zero_extendqisi2
 3188 03dc 002B     		cmp	r3, #0
 3189 03de 02D0     		beq	.L110
 3190 03e0 012B     		cmp	r3, #1
 3191 03e2 45D0     		beq	.L111
 3192 03e4 6EE0     		b	.L122
 3193              	.L110:
1002:Drivers/VL53L0X/core/src/vl53l0x_api_core.c **** 		case VL53L0X_VCSEL_PERIOD_PRE_RANGE:
1003:Drivers/VL53L0X/core/src/vl53l0x_api_core.c **** 			Status = get_sequence_step_timeout(Dev,
 3194              		.loc 1 1003 13
 3195 03e6 07F11403 		add	r3, r7, #20
 3196 03ea 1A46     		mov	r2, r3
 3197 03ec 0321     		movs	r1, #3
 3198 03ee 7868     		ldr	r0, [r7, #4]
 3199 03f0 FFF7FEFF 		bl	get_sequence_step_timeout
 3200 03f4 0346     		mov	r3, r0
 3201 03f6 87F82730 		strb	r3, [r7, #39]
1004:Drivers/VL53L0X/core/src/vl53l0x_api_core.c **** 				VL53L0X_SEQUENCESTEP_PRE_RANGE,
1005:Drivers/VL53L0X/core/src/vl53l0x_api_core.c **** 				&PreRangeTimeoutMicroSeconds);
1006:Drivers/VL53L0X/core/src/vl53l0x_api_core.c **** 
1007:Drivers/VL53L0X/core/src/vl53l0x_api_core.c **** 			if (Status == VL53L0X_ERROR_NONE)
 3202              		.loc 1 1007 7
 3203 03fa 97F92730 		ldrsb	r3, [r7, #39]
ARM GAS  C:\Users\Morroway\AppData\Local\Temp\ccKjJYc2.s 			page 75


 3204 03fe 002B     		cmp	r3, #0
 3205 0400 09D1     		bne	.L113
1008:Drivers/VL53L0X/core/src/vl53l0x_api_core.c **** 				Status = get_sequence_step_timeout(Dev,
 3206              		.loc 1 1008 14
 3207 0402 07F11003 		add	r3, r7, #16
 3208 0406 1A46     		mov	r2, r3
 3209 0408 0221     		movs	r1, #2
 3210 040a 7868     		ldr	r0, [r7, #4]
 3211 040c FFF7FEFF 		bl	get_sequence_step_timeout
 3212 0410 0346     		mov	r3, r0
 3213 0412 87F82730 		strb	r3, [r7, #39]
 3214              	.L113:
1009:Drivers/VL53L0X/core/src/vl53l0x_api_core.c **** 					VL53L0X_SEQUENCESTEP_MSRC,
1010:Drivers/VL53L0X/core/src/vl53l0x_api_core.c **** 					&MsrcTimeoutMicroSeconds);
1011:Drivers/VL53L0X/core/src/vl53l0x_api_core.c **** 
1012:Drivers/VL53L0X/core/src/vl53l0x_api_core.c **** 			if (Status == VL53L0X_ERROR_NONE)
 3215              		.loc 1 1012 7
 3216 0416 97F92730 		ldrsb	r3, [r7, #39]
 3217 041a 002B     		cmp	r3, #0
 3218 041c 09D1     		bne	.L114
1013:Drivers/VL53L0X/core/src/vl53l0x_api_core.c **** 				Status = VL53L0X_WrByte(Dev,
 3219              		.loc 1 1013 14
 3220 041e 97F82230 		ldrb	r3, [r7, #34]	@ zero_extendqisi2
 3221 0422 1A46     		mov	r2, r3
 3222 0424 5021     		movs	r1, #80
 3223 0426 7868     		ldr	r0, [r7, #4]
 3224 0428 FFF7FEFF 		bl	VL53L0X_WrByte
 3225 042c 0346     		mov	r3, r0
 3226 042e 87F82730 		strb	r3, [r7, #39]
 3227              	.L114:
1014:Drivers/VL53L0X/core/src/vl53l0x_api_core.c **** 				VL53L0X_REG_PRE_RANGE_CONFIG_VCSEL_PERIOD,
1015:Drivers/VL53L0X/core/src/vl53l0x_api_core.c **** 					vcsel_period_reg);
1016:Drivers/VL53L0X/core/src/vl53l0x_api_core.c **** 
1017:Drivers/VL53L0X/core/src/vl53l0x_api_core.c **** 
1018:Drivers/VL53L0X/core/src/vl53l0x_api_core.c **** 			if (Status == VL53L0X_ERROR_NONE)
 3228              		.loc 1 1018 7
 3229 0432 97F92730 		ldrsb	r3, [r7, #39]
 3230 0436 002B     		cmp	r3, #0
 3231 0438 08D1     		bne	.L115
1019:Drivers/VL53L0X/core/src/vl53l0x_api_core.c **** 				Status = set_sequence_step_timeout(Dev,
 3232              		.loc 1 1019 14
 3233 043a 7B69     		ldr	r3, [r7, #20]
 3234 043c 1A46     		mov	r2, r3
 3235 043e 0321     		movs	r1, #3
 3236 0440 7868     		ldr	r0, [r7, #4]
 3237 0442 FFF7FEFF 		bl	set_sequence_step_timeout
 3238 0446 0346     		mov	r3, r0
 3239 0448 87F82730 		strb	r3, [r7, #39]
 3240              	.L115:
1020:Drivers/VL53L0X/core/src/vl53l0x_api_core.c **** 					VL53L0X_SEQUENCESTEP_PRE_RANGE,
1021:Drivers/VL53L0X/core/src/vl53l0x_api_core.c **** 					PreRangeTimeoutMicroSeconds);
1022:Drivers/VL53L0X/core/src/vl53l0x_api_core.c **** 
1023:Drivers/VL53L0X/core/src/vl53l0x_api_core.c **** 
1024:Drivers/VL53L0X/core/src/vl53l0x_api_core.c **** 			if (Status == VL53L0X_ERROR_NONE)
 3241              		.loc 1 1024 7
 3242 044c 97F92730 		ldrsb	r3, [r7, #39]
 3243 0450 002B     		cmp	r3, #0
ARM GAS  C:\Users\Morroway\AppData\Local\Temp\ccKjJYc2.s 			page 76


 3244 0452 08D1     		bne	.L116
1025:Drivers/VL53L0X/core/src/vl53l0x_api_core.c **** 				Status = set_sequence_step_timeout(Dev,
 3245              		.loc 1 1025 14
 3246 0454 3B69     		ldr	r3, [r7, #16]
 3247 0456 1A46     		mov	r2, r3
 3248 0458 0221     		movs	r1, #2
 3249 045a 7868     		ldr	r0, [r7, #4]
 3250 045c FFF7FEFF 		bl	set_sequence_step_timeout
 3251 0460 0346     		mov	r3, r0
 3252 0462 87F82730 		strb	r3, [r7, #39]
 3253              	.L116:
1026:Drivers/VL53L0X/core/src/vl53l0x_api_core.c **** 					VL53L0X_SEQUENCESTEP_MSRC,
1027:Drivers/VL53L0X/core/src/vl53l0x_api_core.c **** 					MsrcTimeoutMicroSeconds);
1028:Drivers/VL53L0X/core/src/vl53l0x_api_core.c **** 
1029:Drivers/VL53L0X/core/src/vl53l0x_api_core.c **** 			VL53L0X_SETDEVICESPECIFICPARAMETER(
 3254              		.loc 1 1029 4
 3255 0466 7B68     		ldr	r3, [r7, #4]
 3256 0468 BA78     		ldrb	r2, [r7, #2]
 3257 046a 83F8E820 		strb	r2, [r3, #232]
1030:Drivers/VL53L0X/core/src/vl53l0x_api_core.c **** 				Dev,
1031:Drivers/VL53L0X/core/src/vl53l0x_api_core.c **** 				PreRangeVcselPulsePeriod,
1032:Drivers/VL53L0X/core/src/vl53l0x_api_core.c **** 				VCSELPulsePeriodPCLK);
1033:Drivers/VL53L0X/core/src/vl53l0x_api_core.c **** 			break;
 3258              		.loc 1 1033 4
 3259 046e 2CE0     		b	.L109
 3260              	.L111:
1034:Drivers/VL53L0X/core/src/vl53l0x_api_core.c **** 		case VL53L0X_VCSEL_PERIOD_FINAL_RANGE:
1035:Drivers/VL53L0X/core/src/vl53l0x_api_core.c **** 			Status = get_sequence_step_timeout(Dev,
 3261              		.loc 1 1035 13
 3262 0470 07F11803 		add	r3, r7, #24
 3263 0474 1A46     		mov	r2, r3
 3264 0476 0421     		movs	r1, #4
 3265 0478 7868     		ldr	r0, [r7, #4]
 3266 047a FFF7FEFF 		bl	get_sequence_step_timeout
 3267 047e 0346     		mov	r3, r0
 3268 0480 87F82730 		strb	r3, [r7, #39]
1036:Drivers/VL53L0X/core/src/vl53l0x_api_core.c **** 				VL53L0X_SEQUENCESTEP_FINAL_RANGE,
1037:Drivers/VL53L0X/core/src/vl53l0x_api_core.c **** 				&FinalRangeTimeoutMicroSeconds);
1038:Drivers/VL53L0X/core/src/vl53l0x_api_core.c **** 
1039:Drivers/VL53L0X/core/src/vl53l0x_api_core.c **** 			if (Status == VL53L0X_ERROR_NONE)
 3269              		.loc 1 1039 7
 3270 0484 97F92730 		ldrsb	r3, [r7, #39]
 3271 0488 002B     		cmp	r3, #0
 3272 048a 09D1     		bne	.L117
1040:Drivers/VL53L0X/core/src/vl53l0x_api_core.c **** 				Status = VL53L0X_WrByte(Dev,
 3273              		.loc 1 1040 14
 3274 048c 97F82230 		ldrb	r3, [r7, #34]	@ zero_extendqisi2
 3275 0490 1A46     		mov	r2, r3
 3276 0492 7021     		movs	r1, #112
 3277 0494 7868     		ldr	r0, [r7, #4]
 3278 0496 FFF7FEFF 		bl	VL53L0X_WrByte
 3279 049a 0346     		mov	r3, r0
 3280 049c 87F82730 		strb	r3, [r7, #39]
 3281              	.L117:
1041:Drivers/VL53L0X/core/src/vl53l0x_api_core.c **** 				VL53L0X_REG_FINAL_RANGE_CONFIG_VCSEL_PERIOD,
1042:Drivers/VL53L0X/core/src/vl53l0x_api_core.c **** 					vcsel_period_reg);
1043:Drivers/VL53L0X/core/src/vl53l0x_api_core.c **** 
ARM GAS  C:\Users\Morroway\AppData\Local\Temp\ccKjJYc2.s 			page 77


1044:Drivers/VL53L0X/core/src/vl53l0x_api_core.c **** 
1045:Drivers/VL53L0X/core/src/vl53l0x_api_core.c **** 			if (Status == VL53L0X_ERROR_NONE)
 3282              		.loc 1 1045 7
 3283 04a0 97F92730 		ldrsb	r3, [r7, #39]
 3284 04a4 002B     		cmp	r3, #0
 3285 04a6 08D1     		bne	.L118
1046:Drivers/VL53L0X/core/src/vl53l0x_api_core.c **** 				Status = set_sequence_step_timeout(Dev,
 3286              		.loc 1 1046 14
 3287 04a8 BB69     		ldr	r3, [r7, #24]
 3288 04aa 1A46     		mov	r2, r3
 3289 04ac 0421     		movs	r1, #4
 3290 04ae 7868     		ldr	r0, [r7, #4]
 3291 04b0 FFF7FEFF 		bl	set_sequence_step_timeout
 3292 04b4 0346     		mov	r3, r0
 3293 04b6 87F82730 		strb	r3, [r7, #39]
 3294              	.L118:
1047:Drivers/VL53L0X/core/src/vl53l0x_api_core.c **** 					VL53L0X_SEQUENCESTEP_FINAL_RANGE,
1048:Drivers/VL53L0X/core/src/vl53l0x_api_core.c **** 					FinalRangeTimeoutMicroSeconds);
1049:Drivers/VL53L0X/core/src/vl53l0x_api_core.c **** 
1050:Drivers/VL53L0X/core/src/vl53l0x_api_core.c **** 			VL53L0X_SETDEVICESPECIFICPARAMETER(
 3295              		.loc 1 1050 4
 3296 04ba 7B68     		ldr	r3, [r7, #4]
 3297 04bc BA78     		ldrb	r2, [r7, #2]
 3298 04be 83F8E020 		strb	r2, [r3, #224]
1051:Drivers/VL53L0X/core/src/vl53l0x_api_core.c **** 				Dev,
1052:Drivers/VL53L0X/core/src/vl53l0x_api_core.c **** 				FinalRangeVcselPulsePeriod,
1053:Drivers/VL53L0X/core/src/vl53l0x_api_core.c **** 				VCSELPulsePeriodPCLK);
1054:Drivers/VL53L0X/core/src/vl53l0x_api_core.c **** 			break;
 3299              		.loc 1 1054 4
 3300 04c2 02E0     		b	.L109
 3301              	.L122:
1055:Drivers/VL53L0X/core/src/vl53l0x_api_core.c **** 		default:
1056:Drivers/VL53L0X/core/src/vl53l0x_api_core.c **** 			Status = VL53L0X_ERROR_INVALID_PARAMS;
 3302              		.loc 1 1056 11
 3303 04c4 FC23     		movs	r3, #252
 3304 04c6 87F82730 		strb	r3, [r7, #39]
 3305              	.L109:
1057:Drivers/VL53L0X/core/src/vl53l0x_api_core.c **** 		}
1058:Drivers/VL53L0X/core/src/vl53l0x_api_core.c **** 	}
1059:Drivers/VL53L0X/core/src/vl53l0x_api_core.c **** 
1060:Drivers/VL53L0X/core/src/vl53l0x_api_core.c **** 	/* Finally, the timing budget must be re-applied */
1061:Drivers/VL53L0X/core/src/vl53l0x_api_core.c **** 	if (Status == VL53L0X_ERROR_NONE) {
 3306              		.loc 1 1061 5
 3307 04ca 97F92730 		ldrsb	r3, [r7, #39]
 3308 04ce 002B     		cmp	r3, #0
 3309 04d0 09D1     		bne	.L119
1062:Drivers/VL53L0X/core/src/vl53l0x_api_core.c **** 		VL53L0X_GETPARAMETERFIELD(Dev,
 3310              		.loc 1 1062 3
 3311 04d2 7B68     		ldr	r3, [r7, #4]
 3312 04d4 5B69     		ldr	r3, [r3, #20]
 3313 04d6 FB61     		str	r3, [r7, #28]
1063:Drivers/VL53L0X/core/src/vl53l0x_api_core.c **** 			MeasurementTimingBudgetMicroSeconds,
1064:Drivers/VL53L0X/core/src/vl53l0x_api_core.c **** 			MeasurementTimingBudgetMicroSeconds);
1065:Drivers/VL53L0X/core/src/vl53l0x_api_core.c **** 
1066:Drivers/VL53L0X/core/src/vl53l0x_api_core.c **** 		Status = VL53L0X_SetMeasurementTimingBudgetMicroSeconds(Dev,
 3314              		.loc 1 1066 12
 3315 04d8 F969     		ldr	r1, [r7, #28]
ARM GAS  C:\Users\Morroway\AppData\Local\Temp\ccKjJYc2.s 			page 78


 3316 04da 7868     		ldr	r0, [r7, #4]
 3317 04dc FFF7FEFF 		bl	VL53L0X_SetMeasurementTimingBudgetMicroSeconds
 3318 04e0 0346     		mov	r3, r0
 3319 04e2 87F82730 		strb	r3, [r7, #39]
 3320              	.L119:
1067:Drivers/VL53L0X/core/src/vl53l0x_api_core.c **** 				MeasurementTimingBudgetMicroSeconds);
1068:Drivers/VL53L0X/core/src/vl53l0x_api_core.c **** 	}
1069:Drivers/VL53L0X/core/src/vl53l0x_api_core.c **** 
1070:Drivers/VL53L0X/core/src/vl53l0x_api_core.c **** 	/* Perform the phase calibration. This is needed after changing on
1071:Drivers/VL53L0X/core/src/vl53l0x_api_core.c **** 	 * vcsel period.
1072:Drivers/VL53L0X/core/src/vl53l0x_api_core.c **** 	 * get_data_enable = 0, restore_config = 1 */
1073:Drivers/VL53L0X/core/src/vl53l0x_api_core.c **** 	if (Status == VL53L0X_ERROR_NONE)
 3321              		.loc 1 1073 5
 3322 04e6 97F92730 		ldrsb	r3, [r7, #39]
 3323 04ea 002B     		cmp	r3, #0
 3324 04ec 09D1     		bne	.L120
1074:Drivers/VL53L0X/core/src/vl53l0x_api_core.c **** 		Status = VL53L0X_perform_phase_calibration(
 3325              		.loc 1 1074 12
 3326 04ee 07F10F01 		add	r1, r7, #15
 3327 04f2 0123     		movs	r3, #1
 3328 04f4 0022     		movs	r2, #0
 3329 04f6 7868     		ldr	r0, [r7, #4]
 3330 04f8 FFF7FEFF 		bl	VL53L0X_perform_phase_calibration
 3331 04fc 0346     		mov	r3, r0
 3332 04fe 87F82730 		strb	r3, [r7, #39]
 3333              	.L120:
1075:Drivers/VL53L0X/core/src/vl53l0x_api_core.c **** 			Dev, &PhaseCalInt, 0, 1);
1076:Drivers/VL53L0X/core/src/vl53l0x_api_core.c **** 
1077:Drivers/VL53L0X/core/src/vl53l0x_api_core.c **** 	return Status;
 3334              		.loc 1 1077 9
 3335 0502 97F92730 		ldrsb	r3, [r7, #39]
 3336              	.L121:
1078:Drivers/VL53L0X/core/src/vl53l0x_api_core.c **** }
 3337              		.loc 1 1078 1 discriminator 1
 3338 0506 1846     		mov	r0, r3
 3339 0508 2837     		adds	r7, r7, #40
 3340              		.cfi_def_cfa_offset 8
 3341 050a BD46     		mov	sp, r7
 3342              		.cfi_def_cfa_register 13
 3343              		@ sp needed
 3344 050c 80BD     		pop	{r7, pc}
 3345              		.cfi_endproc
 3346              	.LFE339:
 3348              		.section	.text.VL53L0X_get_vcsel_pulse_period,"ax",%progbits
 3349              		.align	1
 3350              		.global	VL53L0X_get_vcsel_pulse_period
 3351              		.syntax unified
 3352              		.thumb
 3353              		.thumb_func
 3355              	VL53L0X_get_vcsel_pulse_period:
 3356              	.LFB340:
1079:Drivers/VL53L0X/core/src/vl53l0x_api_core.c **** 
1080:Drivers/VL53L0X/core/src/vl53l0x_api_core.c **** VL53L0X_Error VL53L0X_get_vcsel_pulse_period(VL53L0X_DEV Dev,
1081:Drivers/VL53L0X/core/src/vl53l0x_api_core.c **** 	VL53L0X_VcselPeriod VcselPeriodType, uint8_t *pVCSELPulsePeriodPCLK)
1082:Drivers/VL53L0X/core/src/vl53l0x_api_core.c **** {
 3357              		.loc 1 1082 1
 3358              		.cfi_startproc
ARM GAS  C:\Users\Morroway\AppData\Local\Temp\ccKjJYc2.s 			page 79


 3359              		@ args = 0, pretend = 0, frame = 24
 3360              		@ frame_needed = 1, uses_anonymous_args = 0
 3361 0000 80B5     		push	{r7, lr}
 3362              		.cfi_def_cfa_offset 8
 3363              		.cfi_offset 7, -8
 3364              		.cfi_offset 14, -4
 3365 0002 86B0     		sub	sp, sp, #24
 3366              		.cfi_def_cfa_offset 32
 3367 0004 00AF     		add	r7, sp, #0
 3368              		.cfi_def_cfa_register 7
 3369 0006 F860     		str	r0, [r7, #12]
 3370 0008 0B46     		mov	r3, r1
 3371 000a 7A60     		str	r2, [r7, #4]
 3372 000c FB72     		strb	r3, [r7, #11]
1083:Drivers/VL53L0X/core/src/vl53l0x_api_core.c **** 	VL53L0X_Error Status = VL53L0X_ERROR_NONE;
 3373              		.loc 1 1083 16
 3374 000e 0023     		movs	r3, #0
 3375 0010 FB75     		strb	r3, [r7, #23]
1084:Drivers/VL53L0X/core/src/vl53l0x_api_core.c **** 	uint8_t vcsel_period_reg;
1085:Drivers/VL53L0X/core/src/vl53l0x_api_core.c **** 
1086:Drivers/VL53L0X/core/src/vl53l0x_api_core.c **** 	switch (VcselPeriodType) {
 3376              		.loc 1 1086 2
 3377 0012 FB7A     		ldrb	r3, [r7, #11]	@ zero_extendqisi2
 3378 0014 002B     		cmp	r3, #0
 3379 0016 02D0     		beq	.L124
 3380 0018 012B     		cmp	r3, #1
 3381 001a 0AD0     		beq	.L125
 3382 001c 13E0     		b	.L130
 3383              	.L124:
1087:Drivers/VL53L0X/core/src/vl53l0x_api_core.c **** 	case VL53L0X_VCSEL_PERIOD_PRE_RANGE:
1088:Drivers/VL53L0X/core/src/vl53l0x_api_core.c **** 		Status = VL53L0X_RdByte(Dev,
 3384              		.loc 1 1088 12
 3385 001e 07F11603 		add	r3, r7, #22
 3386 0022 1A46     		mov	r2, r3
 3387 0024 5021     		movs	r1, #80
 3388 0026 F868     		ldr	r0, [r7, #12]
 3389 0028 FFF7FEFF 		bl	VL53L0X_RdByte
 3390 002c 0346     		mov	r3, r0
 3391 002e FB75     		strb	r3, [r7, #23]
1089:Drivers/VL53L0X/core/src/vl53l0x_api_core.c **** 			VL53L0X_REG_PRE_RANGE_CONFIG_VCSEL_PERIOD,
1090:Drivers/VL53L0X/core/src/vl53l0x_api_core.c **** 			&vcsel_period_reg);
1091:Drivers/VL53L0X/core/src/vl53l0x_api_core.c **** 	break;
 3392              		.loc 1 1091 2
 3393 0030 0BE0     		b	.L127
 3394              	.L125:
1092:Drivers/VL53L0X/core/src/vl53l0x_api_core.c **** 	case VL53L0X_VCSEL_PERIOD_FINAL_RANGE:
1093:Drivers/VL53L0X/core/src/vl53l0x_api_core.c **** 		Status = VL53L0X_RdByte(Dev,
 3395              		.loc 1 1093 12
 3396 0032 07F11603 		add	r3, r7, #22
 3397 0036 1A46     		mov	r2, r3
 3398 0038 7021     		movs	r1, #112
 3399 003a F868     		ldr	r0, [r7, #12]
 3400 003c FFF7FEFF 		bl	VL53L0X_RdByte
 3401 0040 0346     		mov	r3, r0
 3402 0042 FB75     		strb	r3, [r7, #23]
1094:Drivers/VL53L0X/core/src/vl53l0x_api_core.c **** 			VL53L0X_REG_FINAL_RANGE_CONFIG_VCSEL_PERIOD,
1095:Drivers/VL53L0X/core/src/vl53l0x_api_core.c **** 			&vcsel_period_reg);
ARM GAS  C:\Users\Morroway\AppData\Local\Temp\ccKjJYc2.s 			page 80


1096:Drivers/VL53L0X/core/src/vl53l0x_api_core.c **** 	break;
 3403              		.loc 1 1096 2
 3404 0044 01E0     		b	.L127
 3405              	.L130:
1097:Drivers/VL53L0X/core/src/vl53l0x_api_core.c **** 	default:
1098:Drivers/VL53L0X/core/src/vl53l0x_api_core.c **** 		Status = VL53L0X_ERROR_INVALID_PARAMS;
 3406              		.loc 1 1098 10
 3407 0046 FC23     		movs	r3, #252
 3408 0048 FB75     		strb	r3, [r7, #23]
 3409              	.L127:
1099:Drivers/VL53L0X/core/src/vl53l0x_api_core.c **** 	}
1100:Drivers/VL53L0X/core/src/vl53l0x_api_core.c **** 
1101:Drivers/VL53L0X/core/src/vl53l0x_api_core.c **** 	if (Status == VL53L0X_ERROR_NONE)
 3410              		.loc 1 1101 5
 3411 004a 97F91730 		ldrsb	r3, [r7, #23]
 3412 004e 002B     		cmp	r3, #0
 3413 0050 07D1     		bne	.L128
1102:Drivers/VL53L0X/core/src/vl53l0x_api_core.c **** 		*pVCSELPulsePeriodPCLK =
1103:Drivers/VL53L0X/core/src/vl53l0x_api_core.c **** 			VL53L0X_decode_vcsel_period(vcsel_period_reg);
 3414              		.loc 1 1103 4
 3415 0052 BB7D     		ldrb	r3, [r7, #22]	@ zero_extendqisi2
 3416 0054 1846     		mov	r0, r3
 3417 0056 FFF7FEFF 		bl	VL53L0X_decode_vcsel_period
 3418 005a 0346     		mov	r3, r0
 3419 005c 1A46     		mov	r2, r3
1102:Drivers/VL53L0X/core/src/vl53l0x_api_core.c **** 		*pVCSELPulsePeriodPCLK =
 3420              		.loc 1 1102 26
 3421 005e 7B68     		ldr	r3, [r7, #4]
 3422 0060 1A70     		strb	r2, [r3]
 3423              	.L128:
1104:Drivers/VL53L0X/core/src/vl53l0x_api_core.c **** 
1105:Drivers/VL53L0X/core/src/vl53l0x_api_core.c **** 	return Status;
 3424              		.loc 1 1105 9
 3425 0062 97F91730 		ldrsb	r3, [r7, #23]
1106:Drivers/VL53L0X/core/src/vl53l0x_api_core.c **** }
 3426              		.loc 1 1106 1
 3427 0066 1846     		mov	r0, r3
 3428 0068 1837     		adds	r7, r7, #24
 3429              		.cfi_def_cfa_offset 8
 3430 006a BD46     		mov	sp, r7
 3431              		.cfi_def_cfa_register 13
 3432              		@ sp needed
 3433 006c 80BD     		pop	{r7, pc}
 3434              		.cfi_endproc
 3435              	.LFE340:
 3437              		.section	.text.VL53L0X_set_measurement_timing_budget_micro_seconds,"ax",%progbits
 3438              		.align	1
 3439              		.global	VL53L0X_set_measurement_timing_budget_micro_seconds
 3440              		.syntax unified
 3441              		.thumb
 3442              		.thumb_func
 3444              	VL53L0X_set_measurement_timing_budget_micro_seconds:
 3445              	.LFB341:
1107:Drivers/VL53L0X/core/src/vl53l0x_api_core.c **** 
1108:Drivers/VL53L0X/core/src/vl53l0x_api_core.c **** 
1109:Drivers/VL53L0X/core/src/vl53l0x_api_core.c **** 
1110:Drivers/VL53L0X/core/src/vl53l0x_api_core.c **** VL53L0X_Error VL53L0X_set_measurement_timing_budget_micro_seconds(VL53L0X_DEV Dev,
ARM GAS  C:\Users\Morroway\AppData\Local\Temp\ccKjJYc2.s 			page 81


1111:Drivers/VL53L0X/core/src/vl53l0x_api_core.c **** 		uint32_t MeasurementTimingBudgetMicroSeconds)
1112:Drivers/VL53L0X/core/src/vl53l0x_api_core.c **** {
 3446              		.loc 1 1112 1
 3447              		.cfi_startproc
 3448              		@ args = 0, pretend = 0, frame = 72
 3449              		@ frame_needed = 1, uses_anonymous_args = 0
 3450 0000 80B5     		push	{r7, lr}
 3451              		.cfi_def_cfa_offset 8
 3452              		.cfi_offset 7, -8
 3453              		.cfi_offset 14, -4
 3454 0002 92B0     		sub	sp, sp, #72
 3455              		.cfi_def_cfa_offset 80
 3456 0004 00AF     		add	r7, sp, #0
 3457              		.cfi_def_cfa_register 7
 3458 0006 7860     		str	r0, [r7, #4]
 3459 0008 3960     		str	r1, [r7]
1113:Drivers/VL53L0X/core/src/vl53l0x_api_core.c **** 	VL53L0X_Error Status = VL53L0X_ERROR_NONE;
 3460              		.loc 1 1113 16
 3461 000a 0023     		movs	r3, #0
 3462 000c 87F84730 		strb	r3, [r7, #71]
1114:Drivers/VL53L0X/core/src/vl53l0x_api_core.c **** 	uint32_t FinalRangeTimingBudgetMicroSeconds;
1115:Drivers/VL53L0X/core/src/vl53l0x_api_core.c **** 	VL53L0X_SchedulerSequenceSteps_t SchedulerSequenceSteps;
1116:Drivers/VL53L0X/core/src/vl53l0x_api_core.c **** 	uint32_t MsrcDccTccTimeoutMicroSeconds	= 2000;
 3463              		.loc 1 1116 11
 3464 0010 4FF4FA63 		mov	r3, #2000
 3465 0014 3B61     		str	r3, [r7, #16]
1117:Drivers/VL53L0X/core/src/vl53l0x_api_core.c **** 	uint32_t StartOverheadMicroSeconds		= 1910;
 3466              		.loc 1 1117 11
 3467 0016 40F27673 		movw	r3, #1910
 3468 001a FB63     		str	r3, [r7, #60]
1118:Drivers/VL53L0X/core/src/vl53l0x_api_core.c **** 	uint32_t EndOverheadMicroSeconds		= 960;
 3469              		.loc 1 1118 11
 3470 001c 4FF47073 		mov	r3, #960
 3471 0020 BB63     		str	r3, [r7, #56]
1119:Drivers/VL53L0X/core/src/vl53l0x_api_core.c **** 	uint32_t MsrcOverheadMicroSeconds		= 660;
 3472              		.loc 1 1119 11
 3473 0022 4FF42573 		mov	r3, #660
 3474 0026 7B63     		str	r3, [r7, #52]
1120:Drivers/VL53L0X/core/src/vl53l0x_api_core.c **** 	uint32_t TccOverheadMicroSeconds		= 590;
 3475              		.loc 1 1120 11
 3476 0028 40F24E23 		movw	r3, #590
 3477 002c 3B63     		str	r3, [r7, #48]
1121:Drivers/VL53L0X/core/src/vl53l0x_api_core.c **** 	uint32_t DssOverheadMicroSeconds		= 690;
 3478              		.loc 1 1121 11
 3479 002e 40F2B223 		movw	r3, #690
 3480 0032 FB62     		str	r3, [r7, #44]
1122:Drivers/VL53L0X/core/src/vl53l0x_api_core.c **** 	uint32_t PreRangeOverheadMicroSeconds	= 660;
 3481              		.loc 1 1122 11
 3482 0034 4FF42573 		mov	r3, #660
 3483 0038 BB62     		str	r3, [r7, #40]
1123:Drivers/VL53L0X/core/src/vl53l0x_api_core.c **** 	uint32_t FinalRangeOverheadMicroSeconds = 550;
 3484              		.loc 1 1123 11
 3485 003a 40F22623 		movw	r3, #550
 3486 003e 7B62     		str	r3, [r7, #36]
1124:Drivers/VL53L0X/core/src/vl53l0x_api_core.c **** 	uint32_t PreRangeTimeoutMicroSeconds	= 0;
 3487              		.loc 1 1124 11
 3488 0040 0023     		movs	r3, #0
ARM GAS  C:\Users\Morroway\AppData\Local\Temp\ccKjJYc2.s 			page 82


 3489 0042 FB60     		str	r3, [r7, #12]
1125:Drivers/VL53L0X/core/src/vl53l0x_api_core.c **** 	uint32_t cMinTimingBudgetMicroSeconds	= 20000;
 3490              		.loc 1 1125 11
 3491 0044 44F62063 		movw	r3, #20000
 3492 0048 3B62     		str	r3, [r7, #32]
1126:Drivers/VL53L0X/core/src/vl53l0x_api_core.c **** 	uint32_t SubTimeout = 0;
 3493              		.loc 1 1126 11
 3494 004a 0023     		movs	r3, #0
 3495 004c FB61     		str	r3, [r7, #28]
1127:Drivers/VL53L0X/core/src/vl53l0x_api_core.c **** 
1128:Drivers/VL53L0X/core/src/vl53l0x_api_core.c **** 	LOG_FUNCTION_START("");
1129:Drivers/VL53L0X/core/src/vl53l0x_api_core.c **** 
1130:Drivers/VL53L0X/core/src/vl53l0x_api_core.c **** 	if (MeasurementTimingBudgetMicroSeconds
 3496              		.loc 1 1130 5
 3497 004e 3A68     		ldr	r2, [r7]
 3498 0050 3B6A     		ldr	r3, [r7, #32]
 3499 0052 9A42     		cmp	r2, r3
 3500 0054 05D2     		bcs	.L132
1131:Drivers/VL53L0X/core/src/vl53l0x_api_core.c **** 			< cMinTimingBudgetMicroSeconds) {
1132:Drivers/VL53L0X/core/src/vl53l0x_api_core.c **** 		Status = VL53L0X_ERROR_INVALID_PARAMS;
 3501              		.loc 1 1132 10
 3502 0056 FC23     		movs	r3, #252
 3503 0058 87F84730 		strb	r3, [r7, #71]
1133:Drivers/VL53L0X/core/src/vl53l0x_api_core.c **** 		return Status;
 3504              		.loc 1 1133 10
 3505 005c 97F94730 		ldrsb	r3, [r7, #71]
 3506 0060 AAE0     		b	.L147
 3507              	.L132:
1134:Drivers/VL53L0X/core/src/vl53l0x_api_core.c **** 	}
1135:Drivers/VL53L0X/core/src/vl53l0x_api_core.c **** 
1136:Drivers/VL53L0X/core/src/vl53l0x_api_core.c **** 	FinalRangeTimingBudgetMicroSeconds =
1137:Drivers/VL53L0X/core/src/vl53l0x_api_core.c **** 		MeasurementTimingBudgetMicroSeconds -
1138:Drivers/VL53L0X/core/src/vl53l0x_api_core.c **** 		(StartOverheadMicroSeconds + EndOverheadMicroSeconds);
 3508              		.loc 1 1138 30
 3509 0062 FA6B     		ldr	r2, [r7, #60]
 3510 0064 BB6B     		ldr	r3, [r7, #56]
 3511 0066 1344     		add	r3, r3, r2
1136:Drivers/VL53L0X/core/src/vl53l0x_api_core.c **** 		MeasurementTimingBudgetMicroSeconds -
 3512              		.loc 1 1136 37
 3513 0068 3A68     		ldr	r2, [r7]
 3514 006a D31A     		subs	r3, r2, r3
 3515 006c 3B64     		str	r3, [r7, #64]
1139:Drivers/VL53L0X/core/src/vl53l0x_api_core.c **** 
1140:Drivers/VL53L0X/core/src/vl53l0x_api_core.c **** 	Status = VL53L0X_GetSequenceStepEnables(Dev, &SchedulerSequenceSteps);
 3516              		.loc 1 1140 11
 3517 006e 07F11403 		add	r3, r7, #20
 3518 0072 1946     		mov	r1, r3
 3519 0074 7868     		ldr	r0, [r7, #4]
 3520 0076 FFF7FEFF 		bl	VL53L0X_GetSequenceStepEnables
 3521 007a 0346     		mov	r3, r0
 3522 007c 87F84730 		strb	r3, [r7, #71]
1141:Drivers/VL53L0X/core/src/vl53l0x_api_core.c **** 
1142:Drivers/VL53L0X/core/src/vl53l0x_api_core.c **** 	if (Status == VL53L0X_ERROR_NONE &&
 3523              		.loc 1 1142 5
 3524 0080 97F94730 		ldrsb	r3, [r7, #71]
 3525 0084 002B     		cmp	r3, #0
 3526 0086 5BD1     		bne	.L134
ARM GAS  C:\Users\Morroway\AppData\Local\Temp\ccKjJYc2.s 			page 83


1143:Drivers/VL53L0X/core/src/vl53l0x_api_core.c **** 		(SchedulerSequenceSteps.TccOn  ||
 3527              		.loc 1 1143 26 discriminator 1
 3528 0088 3B7D     		ldrb	r3, [r7, #20]	@ zero_extendqisi2
1142:Drivers/VL53L0X/core/src/vl53l0x_api_core.c **** 		(SchedulerSequenceSteps.TccOn  ||
 3529              		.loc 1 1142 35 discriminator 1
 3530 008a 002B     		cmp	r3, #0
 3531 008c 05D1     		bne	.L135
1144:Drivers/VL53L0X/core/src/vl53l0x_api_core.c **** 		SchedulerSequenceSteps.MsrcOn ||
 3532              		.loc 1 1144 25
 3533 008e 7B7D     		ldrb	r3, [r7, #21]	@ zero_extendqisi2
1143:Drivers/VL53L0X/core/src/vl53l0x_api_core.c **** 		(SchedulerSequenceSteps.TccOn  ||
 3534              		.loc 1 1143 34
 3535 0090 002B     		cmp	r3, #0
 3536 0092 02D1     		bne	.L135
1145:Drivers/VL53L0X/core/src/vl53l0x_api_core.c **** 		SchedulerSequenceSteps.DssOn)) {
 3537              		.loc 1 1145 25
 3538 0094 BB7D     		ldrb	r3, [r7, #22]	@ zero_extendqisi2
1144:Drivers/VL53L0X/core/src/vl53l0x_api_core.c **** 		SchedulerSequenceSteps.MsrcOn ||
 3539              		.loc 1 1144 33
 3540 0096 002B     		cmp	r3, #0
 3541 0098 52D0     		beq	.L134
 3542              	.L135:
1146:Drivers/VL53L0X/core/src/vl53l0x_api_core.c **** 
1147:Drivers/VL53L0X/core/src/vl53l0x_api_core.c **** 		/* TCC, MSRC and DSS all share the same timeout */
1148:Drivers/VL53L0X/core/src/vl53l0x_api_core.c **** 		Status = get_sequence_step_timeout(Dev,
 3543              		.loc 1 1148 12
 3544 009a 07F11003 		add	r3, r7, #16
 3545 009e 1A46     		mov	r2, r3
 3546 00a0 0221     		movs	r1, #2
 3547 00a2 7868     		ldr	r0, [r7, #4]
 3548 00a4 FFF7FEFF 		bl	get_sequence_step_timeout
 3549 00a8 0346     		mov	r3, r0
 3550 00aa 87F84730 		strb	r3, [r7, #71]
1149:Drivers/VL53L0X/core/src/vl53l0x_api_core.c **** 					VL53L0X_SEQUENCESTEP_MSRC,
1150:Drivers/VL53L0X/core/src/vl53l0x_api_core.c **** 					&MsrcDccTccTimeoutMicroSeconds);
1151:Drivers/VL53L0X/core/src/vl53l0x_api_core.c **** 
1152:Drivers/VL53L0X/core/src/vl53l0x_api_core.c **** 		/* Subtract the TCC, MSRC and DSS timeouts if they are
1153:Drivers/VL53L0X/core/src/vl53l0x_api_core.c **** 		 * enabled. */
1154:Drivers/VL53L0X/core/src/vl53l0x_api_core.c **** 
1155:Drivers/VL53L0X/core/src/vl53l0x_api_core.c **** 		if (Status != VL53L0X_ERROR_NONE)
 3551              		.loc 1 1155 6
 3552 00ae 97F94730 		ldrsb	r3, [r7, #71]
 3553 00b2 002B     		cmp	r3, #0
 3554 00b4 02D0     		beq	.L136
1156:Drivers/VL53L0X/core/src/vl53l0x_api_core.c **** 			return Status;
 3555              		.loc 1 1156 11
 3556 00b6 97F94730 		ldrsb	r3, [r7, #71]
 3557 00ba 7DE0     		b	.L147
 3558              	.L136:
1157:Drivers/VL53L0X/core/src/vl53l0x_api_core.c **** 
1158:Drivers/VL53L0X/core/src/vl53l0x_api_core.c **** 		/* TCC */
1159:Drivers/VL53L0X/core/src/vl53l0x_api_core.c **** 		if (SchedulerSequenceSteps.TccOn) {
 3559              		.loc 1 1159 29
 3560 00bc 3B7D     		ldrb	r3, [r7, #20]	@ zero_extendqisi2
 3561              		.loc 1 1159 6
 3562 00be 002B     		cmp	r3, #0
 3563 00c0 0FD0     		beq	.L137
ARM GAS  C:\Users\Morroway\AppData\Local\Temp\ccKjJYc2.s 			page 84


1160:Drivers/VL53L0X/core/src/vl53l0x_api_core.c **** 
1161:Drivers/VL53L0X/core/src/vl53l0x_api_core.c **** 			SubTimeout = MsrcDccTccTimeoutMicroSeconds
1162:Drivers/VL53L0X/core/src/vl53l0x_api_core.c **** 				+ TccOverheadMicroSeconds;
 3564              		.loc 1 1162 5
 3565 00c2 3B69     		ldr	r3, [r7, #16]
1161:Drivers/VL53L0X/core/src/vl53l0x_api_core.c **** 				+ TccOverheadMicroSeconds;
 3566              		.loc 1 1161 15
 3567 00c4 3A6B     		ldr	r2, [r7, #48]
 3568 00c6 1344     		add	r3, r3, r2
 3569 00c8 FB61     		str	r3, [r7, #28]
1163:Drivers/VL53L0X/core/src/vl53l0x_api_core.c **** 
1164:Drivers/VL53L0X/core/src/vl53l0x_api_core.c **** 			if (SubTimeout <
 3570              		.loc 1 1164 7
 3571 00ca FA69     		ldr	r2, [r7, #28]
 3572 00cc 3B6C     		ldr	r3, [r7, #64]
 3573 00ce 9A42     		cmp	r2, r3
 3574 00d0 04D2     		bcs	.L138
1165:Drivers/VL53L0X/core/src/vl53l0x_api_core.c **** 				FinalRangeTimingBudgetMicroSeconds) {
1166:Drivers/VL53L0X/core/src/vl53l0x_api_core.c **** 				FinalRangeTimingBudgetMicroSeconds -=
 3575              		.loc 1 1166 40
 3576 00d2 3A6C     		ldr	r2, [r7, #64]
 3577 00d4 FB69     		ldr	r3, [r7, #28]
 3578 00d6 D31A     		subs	r3, r2, r3
 3579 00d8 3B64     		str	r3, [r7, #64]
 3580 00da 02E0     		b	.L137
 3581              	.L138:
1167:Drivers/VL53L0X/core/src/vl53l0x_api_core.c **** 							SubTimeout;
1168:Drivers/VL53L0X/core/src/vl53l0x_api_core.c **** 			} else {
1169:Drivers/VL53L0X/core/src/vl53l0x_api_core.c **** 				/* Requested timeout too big. */
1170:Drivers/VL53L0X/core/src/vl53l0x_api_core.c **** 				Status = VL53L0X_ERROR_INVALID_PARAMS;
 3582              		.loc 1 1170 12
 3583 00dc FC23     		movs	r3, #252
 3584 00de 87F84730 		strb	r3, [r7, #71]
 3585              	.L137:
1171:Drivers/VL53L0X/core/src/vl53l0x_api_core.c **** 			}
1172:Drivers/VL53L0X/core/src/vl53l0x_api_core.c **** 		}
1173:Drivers/VL53L0X/core/src/vl53l0x_api_core.c **** 
1174:Drivers/VL53L0X/core/src/vl53l0x_api_core.c **** 		if (Status != VL53L0X_ERROR_NONE) {
 3586              		.loc 1 1174 6
 3587 00e2 97F94730 		ldrsb	r3, [r7, #71]
 3588 00e6 002B     		cmp	r3, #0
 3589 00e8 02D0     		beq	.L139
1175:Drivers/VL53L0X/core/src/vl53l0x_api_core.c **** 			LOG_FUNCTION_END(Status);
1176:Drivers/VL53L0X/core/src/vl53l0x_api_core.c **** 			return Status;
 3590              		.loc 1 1176 11
 3591 00ea 97F94730 		ldrsb	r3, [r7, #71]
 3592 00ee 63E0     		b	.L147
 3593              	.L139:
1177:Drivers/VL53L0X/core/src/vl53l0x_api_core.c **** 		}
1178:Drivers/VL53L0X/core/src/vl53l0x_api_core.c **** 
1179:Drivers/VL53L0X/core/src/vl53l0x_api_core.c **** 		/* DSS */
1180:Drivers/VL53L0X/core/src/vl53l0x_api_core.c **** 		if (SchedulerSequenceSteps.DssOn) {
 3594              		.loc 1 1180 29
 3595 00f0 BB7D     		ldrb	r3, [r7, #22]	@ zero_extendqisi2
 3596              		.loc 1 1180 6
 3597 00f2 002B     		cmp	r3, #0
 3598 00f4 11D0     		beq	.L140
ARM GAS  C:\Users\Morroway\AppData\Local\Temp\ccKjJYc2.s 			page 85


1181:Drivers/VL53L0X/core/src/vl53l0x_api_core.c **** 
1182:Drivers/VL53L0X/core/src/vl53l0x_api_core.c **** 			SubTimeout = 2 * (MsrcDccTccTimeoutMicroSeconds +
 3599              		.loc 1 1182 52
 3600 00f6 3A69     		ldr	r2, [r7, #16]
 3601 00f8 FB6A     		ldr	r3, [r7, #44]
 3602 00fa 1344     		add	r3, r3, r2
 3603              		.loc 1 1182 15
 3604 00fc 5B00     		lsls	r3, r3, #1
 3605 00fe FB61     		str	r3, [r7, #28]
1183:Drivers/VL53L0X/core/src/vl53l0x_api_core.c **** 				DssOverheadMicroSeconds);
1184:Drivers/VL53L0X/core/src/vl53l0x_api_core.c **** 
1185:Drivers/VL53L0X/core/src/vl53l0x_api_core.c **** 			if (SubTimeout < FinalRangeTimingBudgetMicroSeconds) {
 3606              		.loc 1 1185 7
 3607 0100 FA69     		ldr	r2, [r7, #28]
 3608 0102 3B6C     		ldr	r3, [r7, #64]
 3609 0104 9A42     		cmp	r2, r3
 3610 0106 04D2     		bcs	.L141
1186:Drivers/VL53L0X/core/src/vl53l0x_api_core.c **** 				FinalRangeTimingBudgetMicroSeconds
1187:Drivers/VL53L0X/core/src/vl53l0x_api_core.c **** 							-= SubTimeout;
 3611              		.loc 1 1187 8
 3612 0108 3A6C     		ldr	r2, [r7, #64]
 3613 010a FB69     		ldr	r3, [r7, #28]
 3614 010c D31A     		subs	r3, r2, r3
 3615 010e 3B64     		str	r3, [r7, #64]
 3616 0110 16E0     		b	.L134
 3617              	.L141:
1188:Drivers/VL53L0X/core/src/vl53l0x_api_core.c **** 			} else {
1189:Drivers/VL53L0X/core/src/vl53l0x_api_core.c **** 				/* Requested timeout too big. */
1190:Drivers/VL53L0X/core/src/vl53l0x_api_core.c **** 				Status = VL53L0X_ERROR_INVALID_PARAMS;
 3618              		.loc 1 1190 12
 3619 0112 FC23     		movs	r3, #252
 3620 0114 87F84730 		strb	r3, [r7, #71]
 3621 0118 12E0     		b	.L134
 3622              	.L140:
1191:Drivers/VL53L0X/core/src/vl53l0x_api_core.c **** 			}
1192:Drivers/VL53L0X/core/src/vl53l0x_api_core.c **** 		} else if (SchedulerSequenceSteps.MsrcOn) {
 3623              		.loc 1 1192 36
 3624 011a 7B7D     		ldrb	r3, [r7, #21]	@ zero_extendqisi2
 3625              		.loc 1 1192 13
 3626 011c 002B     		cmp	r3, #0
 3627 011e 0FD0     		beq	.L134
1193:Drivers/VL53L0X/core/src/vl53l0x_api_core.c **** 			/* MSRC */
1194:Drivers/VL53L0X/core/src/vl53l0x_api_core.c **** 			SubTimeout = MsrcDccTccTimeoutMicroSeconds +
 3628              		.loc 1 1194 47
 3629 0120 3B69     		ldr	r3, [r7, #16]
 3630              		.loc 1 1194 15
 3631 0122 7A6B     		ldr	r2, [r7, #52]
 3632 0124 1344     		add	r3, r3, r2
 3633 0126 FB61     		str	r3, [r7, #28]
1195:Drivers/VL53L0X/core/src/vl53l0x_api_core.c **** 						MsrcOverheadMicroSeconds;
1196:Drivers/VL53L0X/core/src/vl53l0x_api_core.c **** 
1197:Drivers/VL53L0X/core/src/vl53l0x_api_core.c **** 			if (SubTimeout < FinalRangeTimingBudgetMicroSeconds) {
 3634              		.loc 1 1197 7
 3635 0128 FA69     		ldr	r2, [r7, #28]
 3636 012a 3B6C     		ldr	r3, [r7, #64]
 3637 012c 9A42     		cmp	r2, r3
 3638 012e 04D2     		bcs	.L142
ARM GAS  C:\Users\Morroway\AppData\Local\Temp\ccKjJYc2.s 			page 86


1198:Drivers/VL53L0X/core/src/vl53l0x_api_core.c **** 				FinalRangeTimingBudgetMicroSeconds
1199:Drivers/VL53L0X/core/src/vl53l0x_api_core.c **** 							-= SubTimeout;
 3639              		.loc 1 1199 8
 3640 0130 3A6C     		ldr	r2, [r7, #64]
 3641 0132 FB69     		ldr	r3, [r7, #28]
 3642 0134 D31A     		subs	r3, r2, r3
 3643 0136 3B64     		str	r3, [r7, #64]
 3644 0138 02E0     		b	.L134
 3645              	.L142:
1200:Drivers/VL53L0X/core/src/vl53l0x_api_core.c **** 			} else {
1201:Drivers/VL53L0X/core/src/vl53l0x_api_core.c **** 				/* Requested timeout too big. */
1202:Drivers/VL53L0X/core/src/vl53l0x_api_core.c **** 				Status = VL53L0X_ERROR_INVALID_PARAMS;
 3646              		.loc 1 1202 12
 3647 013a FC23     		movs	r3, #252
 3648 013c 87F84730 		strb	r3, [r7, #71]
 3649              	.L134:
1203:Drivers/VL53L0X/core/src/vl53l0x_api_core.c **** 			}
1204:Drivers/VL53L0X/core/src/vl53l0x_api_core.c **** 		}
1205:Drivers/VL53L0X/core/src/vl53l0x_api_core.c **** 
1206:Drivers/VL53L0X/core/src/vl53l0x_api_core.c **** 	}
1207:Drivers/VL53L0X/core/src/vl53l0x_api_core.c **** 
1208:Drivers/VL53L0X/core/src/vl53l0x_api_core.c **** 	if (Status != VL53L0X_ERROR_NONE) {
 3650              		.loc 1 1208 5
 3651 0140 97F94730 		ldrsb	r3, [r7, #71]
 3652 0144 002B     		cmp	r3, #0
 3653 0146 02D0     		beq	.L143
1209:Drivers/VL53L0X/core/src/vl53l0x_api_core.c **** 		LOG_FUNCTION_END(Status);
1210:Drivers/VL53L0X/core/src/vl53l0x_api_core.c **** 		return Status;
 3654              		.loc 1 1210 10
 3655 0148 97F94730 		ldrsb	r3, [r7, #71]
 3656 014c 34E0     		b	.L147
 3657              	.L143:
1211:Drivers/VL53L0X/core/src/vl53l0x_api_core.c **** 	}
1212:Drivers/VL53L0X/core/src/vl53l0x_api_core.c **** 
1213:Drivers/VL53L0X/core/src/vl53l0x_api_core.c **** 	if (SchedulerSequenceSteps.PreRangeOn) {
 3658              		.loc 1 1213 28
 3659 014e FB7D     		ldrb	r3, [r7, #23]	@ zero_extendqisi2
 3660              		.loc 1 1213 5
 3661 0150 002B     		cmp	r3, #0
 3662 0152 19D0     		beq	.L144
1214:Drivers/VL53L0X/core/src/vl53l0x_api_core.c **** 
1215:Drivers/VL53L0X/core/src/vl53l0x_api_core.c **** 		/* Subtract the Pre-range timeout if enabled. */
1216:Drivers/VL53L0X/core/src/vl53l0x_api_core.c **** 
1217:Drivers/VL53L0X/core/src/vl53l0x_api_core.c **** 		Status = get_sequence_step_timeout(Dev,
 3663              		.loc 1 1217 12
 3664 0154 07F10C03 		add	r3, r7, #12
 3665 0158 1A46     		mov	r2, r3
 3666 015a 0321     		movs	r1, #3
 3667 015c 7868     		ldr	r0, [r7, #4]
 3668 015e FFF7FEFF 		bl	get_sequence_step_timeout
 3669 0162 0346     		mov	r3, r0
 3670 0164 87F84730 		strb	r3, [r7, #71]
1218:Drivers/VL53L0X/core/src/vl53l0x_api_core.c **** 				VL53L0X_SEQUENCESTEP_PRE_RANGE,
1219:Drivers/VL53L0X/core/src/vl53l0x_api_core.c **** 				&PreRangeTimeoutMicroSeconds);
1220:Drivers/VL53L0X/core/src/vl53l0x_api_core.c **** 
1221:Drivers/VL53L0X/core/src/vl53l0x_api_core.c **** 		SubTimeout = PreRangeTimeoutMicroSeconds +
 3671              		.loc 1 1221 44
ARM GAS  C:\Users\Morroway\AppData\Local\Temp\ccKjJYc2.s 			page 87


 3672 0168 FB68     		ldr	r3, [r7, #12]
 3673              		.loc 1 1221 14
 3674 016a BA6A     		ldr	r2, [r7, #40]
 3675 016c 1344     		add	r3, r3, r2
 3676 016e FB61     		str	r3, [r7, #28]
1222:Drivers/VL53L0X/core/src/vl53l0x_api_core.c **** 				PreRangeOverheadMicroSeconds;
1223:Drivers/VL53L0X/core/src/vl53l0x_api_core.c **** 
1224:Drivers/VL53L0X/core/src/vl53l0x_api_core.c **** 		if (SubTimeout < FinalRangeTimingBudgetMicroSeconds) {
 3677              		.loc 1 1224 6
 3678 0170 FA69     		ldr	r2, [r7, #28]
 3679 0172 3B6C     		ldr	r3, [r7, #64]
 3680 0174 9A42     		cmp	r2, r3
 3681 0176 04D2     		bcs	.L145
1225:Drivers/VL53L0X/core/src/vl53l0x_api_core.c **** 			FinalRangeTimingBudgetMicroSeconds -= SubTimeout;
 3682              		.loc 1 1225 39
 3683 0178 3A6C     		ldr	r2, [r7, #64]
 3684 017a FB69     		ldr	r3, [r7, #28]
 3685 017c D31A     		subs	r3, r2, r3
 3686 017e 3B64     		str	r3, [r7, #64]
 3687 0180 02E0     		b	.L144
 3688              	.L145:
1226:Drivers/VL53L0X/core/src/vl53l0x_api_core.c **** 		} else {
1227:Drivers/VL53L0X/core/src/vl53l0x_api_core.c **** 			/* Requested timeout too big. */
1228:Drivers/VL53L0X/core/src/vl53l0x_api_core.c **** 			Status = VL53L0X_ERROR_INVALID_PARAMS;
 3689              		.loc 1 1228 11
 3690 0182 FC23     		movs	r3, #252
 3691 0184 87F84730 		strb	r3, [r7, #71]
 3692              	.L144:
1229:Drivers/VL53L0X/core/src/vl53l0x_api_core.c **** 		}
1230:Drivers/VL53L0X/core/src/vl53l0x_api_core.c **** 	}
1231:Drivers/VL53L0X/core/src/vl53l0x_api_core.c **** 
1232:Drivers/VL53L0X/core/src/vl53l0x_api_core.c **** 
1233:Drivers/VL53L0X/core/src/vl53l0x_api_core.c **** 	if (Status == VL53L0X_ERROR_NONE &&
 3693              		.loc 1 1233 5
 3694 0188 97F94730 		ldrsb	r3, [r7, #71]
 3695 018c 002B     		cmp	r3, #0
 3696 018e 11D1     		bne	.L146
1234:Drivers/VL53L0X/core/src/vl53l0x_api_core.c **** 		SchedulerSequenceSteps.FinalRangeOn) {
 3697              		.loc 1 1234 25 discriminator 1
 3698 0190 3B7E     		ldrb	r3, [r7, #24]	@ zero_extendqisi2
1233:Drivers/VL53L0X/core/src/vl53l0x_api_core.c **** 		SchedulerSequenceSteps.FinalRangeOn) {
 3699              		.loc 1 1233 35 discriminator 1
 3700 0192 002B     		cmp	r3, #0
 3701 0194 0ED0     		beq	.L146
1235:Drivers/VL53L0X/core/src/vl53l0x_api_core.c **** 
1236:Drivers/VL53L0X/core/src/vl53l0x_api_core.c **** 		FinalRangeTimingBudgetMicroSeconds -=
 3702              		.loc 1 1236 38
 3703 0196 3A6C     		ldr	r2, [r7, #64]
 3704 0198 7B6A     		ldr	r3, [r7, #36]
 3705 019a D31A     		subs	r3, r2, r3
 3706 019c 3B64     		str	r3, [r7, #64]
1237:Drivers/VL53L0X/core/src/vl53l0x_api_core.c **** 				FinalRangeOverheadMicroSeconds;
1238:Drivers/VL53L0X/core/src/vl53l0x_api_core.c **** 
1239:Drivers/VL53L0X/core/src/vl53l0x_api_core.c **** 		/* Final Range Timeout
1240:Drivers/VL53L0X/core/src/vl53l0x_api_core.c **** 		 * Note that the final range timeout is determined by the timing
1241:Drivers/VL53L0X/core/src/vl53l0x_api_core.c **** 		 * budget and the sum of all other timeouts within the sequence.
1242:Drivers/VL53L0X/core/src/vl53l0x_api_core.c **** 		 * If there is no room for the final range timeout, then an error
ARM GAS  C:\Users\Morroway\AppData\Local\Temp\ccKjJYc2.s 			page 88


1243:Drivers/VL53L0X/core/src/vl53l0x_api_core.c **** 		 * will be set. Otherwise the remaining time will be applied to
1244:Drivers/VL53L0X/core/src/vl53l0x_api_core.c **** 		 * the final range.
1245:Drivers/VL53L0X/core/src/vl53l0x_api_core.c **** 		 */
1246:Drivers/VL53L0X/core/src/vl53l0x_api_core.c **** 		Status = set_sequence_step_timeout(Dev,
 3707              		.loc 1 1246 12
 3708 019e 3A6C     		ldr	r2, [r7, #64]
 3709 01a0 0421     		movs	r1, #4
 3710 01a2 7868     		ldr	r0, [r7, #4]
 3711 01a4 FFF7FEFF 		bl	set_sequence_step_timeout
 3712 01a8 0346     		mov	r3, r0
 3713 01aa 87F84730 		strb	r3, [r7, #71]
1247:Drivers/VL53L0X/core/src/vl53l0x_api_core.c **** 			VL53L0X_SEQUENCESTEP_FINAL_RANGE,
1248:Drivers/VL53L0X/core/src/vl53l0x_api_core.c **** 			FinalRangeTimingBudgetMicroSeconds);
1249:Drivers/VL53L0X/core/src/vl53l0x_api_core.c **** 
1250:Drivers/VL53L0X/core/src/vl53l0x_api_core.c **** 		VL53L0X_SETPARAMETERFIELD(Dev,
 3714              		.loc 1 1250 3
 3715 01ae 7B68     		ldr	r3, [r7, #4]
 3716 01b0 3A68     		ldr	r2, [r7]
 3717 01b2 5A61     		str	r2, [r3, #20]
 3718              	.L146:
1251:Drivers/VL53L0X/core/src/vl53l0x_api_core.c **** 			MeasurementTimingBudgetMicroSeconds,
1252:Drivers/VL53L0X/core/src/vl53l0x_api_core.c **** 			MeasurementTimingBudgetMicroSeconds);
1253:Drivers/VL53L0X/core/src/vl53l0x_api_core.c **** 	}
1254:Drivers/VL53L0X/core/src/vl53l0x_api_core.c **** 
1255:Drivers/VL53L0X/core/src/vl53l0x_api_core.c **** 	LOG_FUNCTION_END(Status);
1256:Drivers/VL53L0X/core/src/vl53l0x_api_core.c **** 
1257:Drivers/VL53L0X/core/src/vl53l0x_api_core.c **** 	return Status;
 3719              		.loc 1 1257 9
 3720 01b4 97F94730 		ldrsb	r3, [r7, #71]
 3721              	.L147:
1258:Drivers/VL53L0X/core/src/vl53l0x_api_core.c **** }
 3722              		.loc 1 1258 1 discriminator 1
 3723 01b8 1846     		mov	r0, r3
 3724 01ba 4837     		adds	r7, r7, #72
 3725              		.cfi_def_cfa_offset 8
 3726 01bc BD46     		mov	sp, r7
 3727              		.cfi_def_cfa_register 13
 3728              		@ sp needed
 3729 01be 80BD     		pop	{r7, pc}
 3730              		.cfi_endproc
 3731              	.LFE341:
 3733              		.section	.text.VL53L0X_get_measurement_timing_budget_micro_seconds,"ax",%progbits
 3734              		.align	1
 3735              		.global	VL53L0X_get_measurement_timing_budget_micro_seconds
 3736              		.syntax unified
 3737              		.thumb
 3738              		.thumb_func
 3740              	VL53L0X_get_measurement_timing_budget_micro_seconds:
 3741              	.LFB342:
1259:Drivers/VL53L0X/core/src/vl53l0x_api_core.c **** 
1260:Drivers/VL53L0X/core/src/vl53l0x_api_core.c **** VL53L0X_Error VL53L0X_get_measurement_timing_budget_micro_seconds(VL53L0X_DEV Dev,
1261:Drivers/VL53L0X/core/src/vl53l0x_api_core.c **** 		uint32_t *pMeasurementTimingBudgetMicroSeconds)
1262:Drivers/VL53L0X/core/src/vl53l0x_api_core.c **** {
 3742              		.loc 1 1262 1
 3743              		.cfi_startproc
 3744              		@ args = 0, pretend = 0, frame = 64
 3745              		@ frame_needed = 1, uses_anonymous_args = 0
ARM GAS  C:\Users\Morroway\AppData\Local\Temp\ccKjJYc2.s 			page 89


 3746 0000 80B5     		push	{r7, lr}
 3747              		.cfi_def_cfa_offset 8
 3748              		.cfi_offset 7, -8
 3749              		.cfi_offset 14, -4
 3750 0002 90B0     		sub	sp, sp, #64
 3751              		.cfi_def_cfa_offset 72
 3752 0004 00AF     		add	r7, sp, #0
 3753              		.cfi_def_cfa_register 7
 3754 0006 7860     		str	r0, [r7, #4]
 3755 0008 3960     		str	r1, [r7]
1263:Drivers/VL53L0X/core/src/vl53l0x_api_core.c **** 	VL53L0X_Error Status = VL53L0X_ERROR_NONE;
 3756              		.loc 1 1263 16
 3757 000a 0023     		movs	r3, #0
 3758 000c 87F83F30 		strb	r3, [r7, #63]
1264:Drivers/VL53L0X/core/src/vl53l0x_api_core.c **** 	VL53L0X_SchedulerSequenceSteps_t SchedulerSequenceSteps;
1265:Drivers/VL53L0X/core/src/vl53l0x_api_core.c **** 	uint32_t FinalRangeTimeoutMicroSeconds;
1266:Drivers/VL53L0X/core/src/vl53l0x_api_core.c **** 	uint32_t MsrcDccTccTimeoutMicroSeconds	= 2000;
 3759              		.loc 1 1266 11
 3760 0010 4FF4FA63 		mov	r3, #2000
 3761 0014 3B61     		str	r3, [r7, #16]
1267:Drivers/VL53L0X/core/src/vl53l0x_api_core.c **** 	uint32_t StartOverheadMicroSeconds		= 1910;
 3762              		.loc 1 1267 11
 3763 0016 40F27673 		movw	r3, #1910
 3764 001a BB63     		str	r3, [r7, #56]
1268:Drivers/VL53L0X/core/src/vl53l0x_api_core.c **** 	uint32_t EndOverheadMicroSeconds		= 960;
 3765              		.loc 1 1268 11
 3766 001c 4FF47073 		mov	r3, #960
 3767 0020 7B63     		str	r3, [r7, #52]
1269:Drivers/VL53L0X/core/src/vl53l0x_api_core.c **** 	uint32_t MsrcOverheadMicroSeconds		= 660;
 3768              		.loc 1 1269 11
 3769 0022 4FF42573 		mov	r3, #660
 3770 0026 3B63     		str	r3, [r7, #48]
1270:Drivers/VL53L0X/core/src/vl53l0x_api_core.c **** 	uint32_t TccOverheadMicroSeconds		= 590;
 3771              		.loc 1 1270 11
 3772 0028 40F24E23 		movw	r3, #590
 3773 002c FB62     		str	r3, [r7, #44]
1271:Drivers/VL53L0X/core/src/vl53l0x_api_core.c **** 	uint32_t DssOverheadMicroSeconds		= 690;
 3774              		.loc 1 1271 11
 3775 002e 40F2B223 		movw	r3, #690
 3776 0032 BB62     		str	r3, [r7, #40]
1272:Drivers/VL53L0X/core/src/vl53l0x_api_core.c **** 	uint32_t PreRangeOverheadMicroSeconds	= 660;
 3777              		.loc 1 1272 11
 3778 0034 4FF42573 		mov	r3, #660
 3779 0038 7B62     		str	r3, [r7, #36]
1273:Drivers/VL53L0X/core/src/vl53l0x_api_core.c **** 	uint32_t FinalRangeOverheadMicroSeconds = 550;
 3780              		.loc 1 1273 11
 3781 003a 40F22623 		movw	r3, #550
 3782 003e 3B62     		str	r3, [r7, #32]
1274:Drivers/VL53L0X/core/src/vl53l0x_api_core.c **** 	uint32_t PreRangeTimeoutMicroSeconds	= 0;
 3783              		.loc 1 1274 11
 3784 0040 0023     		movs	r3, #0
 3785 0042 FB60     		str	r3, [r7, #12]
1275:Drivers/VL53L0X/core/src/vl53l0x_api_core.c **** 
1276:Drivers/VL53L0X/core/src/vl53l0x_api_core.c **** 	LOG_FUNCTION_START("");
1277:Drivers/VL53L0X/core/src/vl53l0x_api_core.c **** 
1278:Drivers/VL53L0X/core/src/vl53l0x_api_core.c **** 	/* Start and end overhead times always present */
1279:Drivers/VL53L0X/core/src/vl53l0x_api_core.c **** 	*pMeasurementTimingBudgetMicroSeconds
ARM GAS  C:\Users\Morroway\AppData\Local\Temp\ccKjJYc2.s 			page 90


1280:Drivers/VL53L0X/core/src/vl53l0x_api_core.c **** 		= StartOverheadMicroSeconds + EndOverheadMicroSeconds;
 3786              		.loc 1 1280 31
 3787 0044 BA6B     		ldr	r2, [r7, #56]
 3788 0046 7B6B     		ldr	r3, [r7, #52]
 3789 0048 1A44     		add	r2, r2, r3
 3790              		.loc 1 1280 3
 3791 004a 3B68     		ldr	r3, [r7]
 3792 004c 1A60     		str	r2, [r3]
1281:Drivers/VL53L0X/core/src/vl53l0x_api_core.c **** 
1282:Drivers/VL53L0X/core/src/vl53l0x_api_core.c **** 	Status = VL53L0X_GetSequenceStepEnables(Dev, &SchedulerSequenceSteps);
 3793              		.loc 1 1282 11
 3794 004e 07F11803 		add	r3, r7, #24
 3795 0052 1946     		mov	r1, r3
 3796 0054 7868     		ldr	r0, [r7, #4]
 3797 0056 FFF7FEFF 		bl	VL53L0X_GetSequenceStepEnables
 3798 005a 0346     		mov	r3, r0
 3799 005c 87F83F30 		strb	r3, [r7, #63]
1283:Drivers/VL53L0X/core/src/vl53l0x_api_core.c **** 
1284:Drivers/VL53L0X/core/src/vl53l0x_api_core.c **** 	if (Status != VL53L0X_ERROR_NONE) {
 3800              		.loc 1 1284 5
 3801 0060 97F93F30 		ldrsb	r3, [r7, #63]
 3802 0064 002B     		cmp	r3, #0
 3803 0066 02D0     		beq	.L149
1285:Drivers/VL53L0X/core/src/vl53l0x_api_core.c **** 		LOG_FUNCTION_END(Status);
1286:Drivers/VL53L0X/core/src/vl53l0x_api_core.c **** 		return Status;
 3804              		.loc 1 1286 10
 3805 0068 97F93F30 		ldrsb	r3, [r7, #63]
 3806 006c 75E0     		b	.L158
 3807              	.L149:
1287:Drivers/VL53L0X/core/src/vl53l0x_api_core.c **** 	}
1288:Drivers/VL53L0X/core/src/vl53l0x_api_core.c **** 
1289:Drivers/VL53L0X/core/src/vl53l0x_api_core.c **** 
1290:Drivers/VL53L0X/core/src/vl53l0x_api_core.c **** 	if (SchedulerSequenceSteps.TccOn  ||
 3808              		.loc 1 1290 28
 3809 006e 3B7E     		ldrb	r3, [r7, #24]	@ zero_extendqisi2
 3810              		.loc 1 1290 5
 3811 0070 002B     		cmp	r3, #0
 3812 0072 05D1     		bne	.L151
1291:Drivers/VL53L0X/core/src/vl53l0x_api_core.c **** 		SchedulerSequenceSteps.MsrcOn ||
 3813              		.loc 1 1291 25 discriminator 1
 3814 0074 7B7E     		ldrb	r3, [r7, #25]	@ zero_extendqisi2
1290:Drivers/VL53L0X/core/src/vl53l0x_api_core.c **** 		SchedulerSequenceSteps.MsrcOn ||
 3815              		.loc 1 1290 36 discriminator 1
 3816 0076 002B     		cmp	r3, #0
 3817 0078 02D1     		bne	.L151
1292:Drivers/VL53L0X/core/src/vl53l0x_api_core.c **** 		SchedulerSequenceSteps.DssOn) {
 3818              		.loc 1 1292 25
 3819 007a BB7E     		ldrb	r3, [r7, #26]	@ zero_extendqisi2
1291:Drivers/VL53L0X/core/src/vl53l0x_api_core.c **** 		SchedulerSequenceSteps.MsrcOn ||
 3820              		.loc 1 1291 33
 3821 007c 002B     		cmp	r3, #0
 3822 007e 30D0     		beq	.L152
 3823              	.L151:
1293:Drivers/VL53L0X/core/src/vl53l0x_api_core.c **** 
1294:Drivers/VL53L0X/core/src/vl53l0x_api_core.c **** 		Status = get_sequence_step_timeout(Dev,
 3824              		.loc 1 1294 12
 3825 0080 07F11003 		add	r3, r7, #16
ARM GAS  C:\Users\Morroway\AppData\Local\Temp\ccKjJYc2.s 			page 91


 3826 0084 1A46     		mov	r2, r3
 3827 0086 0221     		movs	r1, #2
 3828 0088 7868     		ldr	r0, [r7, #4]
 3829 008a FFF7FEFF 		bl	get_sequence_step_timeout
 3830 008e 0346     		mov	r3, r0
 3831 0090 87F83F30 		strb	r3, [r7, #63]
1295:Drivers/VL53L0X/core/src/vl53l0x_api_core.c **** 				VL53L0X_SEQUENCESTEP_MSRC,
1296:Drivers/VL53L0X/core/src/vl53l0x_api_core.c **** 				&MsrcDccTccTimeoutMicroSeconds);
1297:Drivers/VL53L0X/core/src/vl53l0x_api_core.c **** 
1298:Drivers/VL53L0X/core/src/vl53l0x_api_core.c **** 		if (Status == VL53L0X_ERROR_NONE) {
 3832              		.loc 1 1298 6
 3833 0094 97F93F30 		ldrsb	r3, [r7, #63]
 3834 0098 002B     		cmp	r3, #0
 3835 009a 22D1     		bne	.L152
1299:Drivers/VL53L0X/core/src/vl53l0x_api_core.c **** 			if (SchedulerSequenceSteps.TccOn) {
 3836              		.loc 1 1299 30
 3837 009c 3B7E     		ldrb	r3, [r7, #24]	@ zero_extendqisi2
 3838              		.loc 1 1299 7
 3839 009e 002B     		cmp	r3, #0
 3840 00a0 07D0     		beq	.L153
1300:Drivers/VL53L0X/core/src/vl53l0x_api_core.c **** 				*pMeasurementTimingBudgetMicroSeconds +=
 3841              		.loc 1 1300 43
 3842 00a2 3B68     		ldr	r3, [r7]
 3843 00a4 1A68     		ldr	r2, [r3]
1301:Drivers/VL53L0X/core/src/vl53l0x_api_core.c **** 					MsrcDccTccTimeoutMicroSeconds +
 3844              		.loc 1 1301 36
 3845 00a6 3969     		ldr	r1, [r7, #16]
 3846 00a8 FB6A     		ldr	r3, [r7, #44]
 3847 00aa 0B44     		add	r3, r3, r1
1300:Drivers/VL53L0X/core/src/vl53l0x_api_core.c **** 				*pMeasurementTimingBudgetMicroSeconds +=
 3848              		.loc 1 1300 43
 3849 00ac 1A44     		add	r2, r2, r3
 3850 00ae 3B68     		ldr	r3, [r7]
 3851 00b0 1A60     		str	r2, [r3]
 3852              	.L153:
1302:Drivers/VL53L0X/core/src/vl53l0x_api_core.c **** 					TccOverheadMicroSeconds;
1303:Drivers/VL53L0X/core/src/vl53l0x_api_core.c **** 			}
1304:Drivers/VL53L0X/core/src/vl53l0x_api_core.c **** 
1305:Drivers/VL53L0X/core/src/vl53l0x_api_core.c **** 			if (SchedulerSequenceSteps.DssOn) {
 3853              		.loc 1 1305 30
 3854 00b2 BB7E     		ldrb	r3, [r7, #26]	@ zero_extendqisi2
 3855              		.loc 1 1305 7
 3856 00b4 002B     		cmp	r3, #0
 3857 00b6 09D0     		beq	.L154
1306:Drivers/VL53L0X/core/src/vl53l0x_api_core.c **** 				*pMeasurementTimingBudgetMicroSeconds +=
 3858              		.loc 1 1306 43
 3859 00b8 3B68     		ldr	r3, [r7]
 3860 00ba 1A68     		ldr	r2, [r3]
1307:Drivers/VL53L0X/core/src/vl53l0x_api_core.c **** 				2 * (MsrcDccTccTimeoutMicroSeconds +
 3861              		.loc 1 1307 40
 3862 00bc 3969     		ldr	r1, [r7, #16]
 3863 00be BB6A     		ldr	r3, [r7, #40]
 3864 00c0 0B44     		add	r3, r3, r1
 3865              		.loc 1 1307 7
 3866 00c2 5B00     		lsls	r3, r3, #1
1306:Drivers/VL53L0X/core/src/vl53l0x_api_core.c **** 				*pMeasurementTimingBudgetMicroSeconds +=
 3867              		.loc 1 1306 43
ARM GAS  C:\Users\Morroway\AppData\Local\Temp\ccKjJYc2.s 			page 92


 3868 00c4 1A44     		add	r2, r2, r3
 3869 00c6 3B68     		ldr	r3, [r7]
 3870 00c8 1A60     		str	r2, [r3]
 3871 00ca 0AE0     		b	.L152
 3872              	.L154:
1308:Drivers/VL53L0X/core/src/vl53l0x_api_core.c **** 					DssOverheadMicroSeconds);
1309:Drivers/VL53L0X/core/src/vl53l0x_api_core.c **** 			} else if (SchedulerSequenceSteps.MsrcOn) {
 3873              		.loc 1 1309 37
 3874 00cc 7B7E     		ldrb	r3, [r7, #25]	@ zero_extendqisi2
 3875              		.loc 1 1309 14
 3876 00ce 002B     		cmp	r3, #0
 3877 00d0 07D0     		beq	.L152
1310:Drivers/VL53L0X/core/src/vl53l0x_api_core.c **** 				*pMeasurementTimingBudgetMicroSeconds +=
 3878              		.loc 1 1310 43
 3879 00d2 3B68     		ldr	r3, [r7]
 3880 00d4 1A68     		ldr	r2, [r3]
1311:Drivers/VL53L0X/core/src/vl53l0x_api_core.c **** 					MsrcDccTccTimeoutMicroSeconds +
 3881              		.loc 1 1311 36
 3882 00d6 3969     		ldr	r1, [r7, #16]
 3883 00d8 3B6B     		ldr	r3, [r7, #48]
 3884 00da 0B44     		add	r3, r3, r1
1310:Drivers/VL53L0X/core/src/vl53l0x_api_core.c **** 				*pMeasurementTimingBudgetMicroSeconds +=
 3885              		.loc 1 1310 43
 3886 00dc 1A44     		add	r2, r2, r3
 3887 00de 3B68     		ldr	r3, [r7]
 3888 00e0 1A60     		str	r2, [r3]
 3889              	.L152:
1312:Drivers/VL53L0X/core/src/vl53l0x_api_core.c **** 					MsrcOverheadMicroSeconds;
1313:Drivers/VL53L0X/core/src/vl53l0x_api_core.c **** 			}
1314:Drivers/VL53L0X/core/src/vl53l0x_api_core.c **** 		}
1315:Drivers/VL53L0X/core/src/vl53l0x_api_core.c **** 	}
1316:Drivers/VL53L0X/core/src/vl53l0x_api_core.c **** 
1317:Drivers/VL53L0X/core/src/vl53l0x_api_core.c **** 	if (Status == VL53L0X_ERROR_NONE) {
 3890              		.loc 1 1317 5
 3891 00e2 97F93F30 		ldrsb	r3, [r7, #63]
 3892 00e6 002B     		cmp	r3, #0
 3893 00e8 14D1     		bne	.L155
1318:Drivers/VL53L0X/core/src/vl53l0x_api_core.c **** 		if (SchedulerSequenceSteps.PreRangeOn) {
 3894              		.loc 1 1318 29
 3895 00ea FB7E     		ldrb	r3, [r7, #27]	@ zero_extendqisi2
 3896              		.loc 1 1318 6
 3897 00ec 002B     		cmp	r3, #0
 3898 00ee 11D0     		beq	.L155
1319:Drivers/VL53L0X/core/src/vl53l0x_api_core.c **** 			Status = get_sequence_step_timeout(Dev,
 3899              		.loc 1 1319 13
 3900 00f0 07F10C03 		add	r3, r7, #12
 3901 00f4 1A46     		mov	r2, r3
 3902 00f6 0321     		movs	r1, #3
 3903 00f8 7868     		ldr	r0, [r7, #4]
 3904 00fa FFF7FEFF 		bl	get_sequence_step_timeout
 3905 00fe 0346     		mov	r3, r0
 3906 0100 87F83F30 		strb	r3, [r7, #63]
1320:Drivers/VL53L0X/core/src/vl53l0x_api_core.c **** 				VL53L0X_SEQUENCESTEP_PRE_RANGE,
1321:Drivers/VL53L0X/core/src/vl53l0x_api_core.c **** 				&PreRangeTimeoutMicroSeconds);
1322:Drivers/VL53L0X/core/src/vl53l0x_api_core.c **** 			*pMeasurementTimingBudgetMicroSeconds +=
 3907              		.loc 1 1322 42
 3908 0104 3B68     		ldr	r3, [r7]
ARM GAS  C:\Users\Morroway\AppData\Local\Temp\ccKjJYc2.s 			page 93


 3909 0106 1A68     		ldr	r2, [r3]
1323:Drivers/VL53L0X/core/src/vl53l0x_api_core.c **** 				PreRangeTimeoutMicroSeconds +
 3910              		.loc 1 1323 33
 3911 0108 F968     		ldr	r1, [r7, #12]
 3912 010a 7B6A     		ldr	r3, [r7, #36]
 3913 010c 0B44     		add	r3, r3, r1
1322:Drivers/VL53L0X/core/src/vl53l0x_api_core.c **** 				PreRangeTimeoutMicroSeconds +
 3914              		.loc 1 1322 42
 3915 010e 1A44     		add	r2, r2, r3
 3916 0110 3B68     		ldr	r3, [r7]
 3917 0112 1A60     		str	r2, [r3]
 3918              	.L155:
1324:Drivers/VL53L0X/core/src/vl53l0x_api_core.c **** 				PreRangeOverheadMicroSeconds;
1325:Drivers/VL53L0X/core/src/vl53l0x_api_core.c **** 		}
1326:Drivers/VL53L0X/core/src/vl53l0x_api_core.c **** 	}
1327:Drivers/VL53L0X/core/src/vl53l0x_api_core.c **** 
1328:Drivers/VL53L0X/core/src/vl53l0x_api_core.c **** 	if (Status == VL53L0X_ERROR_NONE) {
 3919              		.loc 1 1328 5
 3920 0114 97F93F30 		ldrsb	r3, [r7, #63]
 3921 0118 002B     		cmp	r3, #0
 3922 011a 14D1     		bne	.L156
1329:Drivers/VL53L0X/core/src/vl53l0x_api_core.c **** 		if (SchedulerSequenceSteps.FinalRangeOn) {
 3923              		.loc 1 1329 29
 3924 011c 3B7F     		ldrb	r3, [r7, #28]	@ zero_extendqisi2
 3925              		.loc 1 1329 6
 3926 011e 002B     		cmp	r3, #0
 3927 0120 11D0     		beq	.L156
1330:Drivers/VL53L0X/core/src/vl53l0x_api_core.c **** 			Status = get_sequence_step_timeout(Dev,
 3928              		.loc 1 1330 13
 3929 0122 07F11403 		add	r3, r7, #20
 3930 0126 1A46     		mov	r2, r3
 3931 0128 0421     		movs	r1, #4
 3932 012a 7868     		ldr	r0, [r7, #4]
 3933 012c FFF7FEFF 		bl	get_sequence_step_timeout
 3934 0130 0346     		mov	r3, r0
 3935 0132 87F83F30 		strb	r3, [r7, #63]
1331:Drivers/VL53L0X/core/src/vl53l0x_api_core.c **** 					VL53L0X_SEQUENCESTEP_FINAL_RANGE,
1332:Drivers/VL53L0X/core/src/vl53l0x_api_core.c **** 					&FinalRangeTimeoutMicroSeconds);
1333:Drivers/VL53L0X/core/src/vl53l0x_api_core.c **** 			*pMeasurementTimingBudgetMicroSeconds +=
 3936              		.loc 1 1333 42
 3937 0136 3B68     		ldr	r3, [r7]
 3938 0138 1A68     		ldr	r2, [r3]
1334:Drivers/VL53L0X/core/src/vl53l0x_api_core.c **** 				(FinalRangeTimeoutMicroSeconds +
 3939              		.loc 1 1334 36
 3940 013a 7969     		ldr	r1, [r7, #20]
 3941 013c 3B6A     		ldr	r3, [r7, #32]
 3942 013e 0B44     		add	r3, r3, r1
1333:Drivers/VL53L0X/core/src/vl53l0x_api_core.c **** 				(FinalRangeTimeoutMicroSeconds +
 3943              		.loc 1 1333 42
 3944 0140 1A44     		add	r2, r2, r3
 3945 0142 3B68     		ldr	r3, [r7]
 3946 0144 1A60     		str	r2, [r3]
 3947              	.L156:
1335:Drivers/VL53L0X/core/src/vl53l0x_api_core.c **** 				FinalRangeOverheadMicroSeconds);
1336:Drivers/VL53L0X/core/src/vl53l0x_api_core.c **** 		}
1337:Drivers/VL53L0X/core/src/vl53l0x_api_core.c **** 	}
1338:Drivers/VL53L0X/core/src/vl53l0x_api_core.c **** 
ARM GAS  C:\Users\Morroway\AppData\Local\Temp\ccKjJYc2.s 			page 94


1339:Drivers/VL53L0X/core/src/vl53l0x_api_core.c **** 	if (Status == VL53L0X_ERROR_NONE) {
 3948              		.loc 1 1339 5
 3949 0146 97F93F30 		ldrsb	r3, [r7, #63]
 3950 014a 002B     		cmp	r3, #0
 3951 014c 03D1     		bne	.L157
1340:Drivers/VL53L0X/core/src/vl53l0x_api_core.c **** 		VL53L0X_SETPARAMETERFIELD(Dev,
 3952              		.loc 1 1340 3
 3953 014e 3B68     		ldr	r3, [r7]
 3954 0150 1A68     		ldr	r2, [r3]
 3955 0152 7B68     		ldr	r3, [r7, #4]
 3956 0154 5A61     		str	r2, [r3, #20]
 3957              	.L157:
1341:Drivers/VL53L0X/core/src/vl53l0x_api_core.c **** 			MeasurementTimingBudgetMicroSeconds,
1342:Drivers/VL53L0X/core/src/vl53l0x_api_core.c **** 			*pMeasurementTimingBudgetMicroSeconds);
1343:Drivers/VL53L0X/core/src/vl53l0x_api_core.c **** 	}
1344:Drivers/VL53L0X/core/src/vl53l0x_api_core.c **** 
1345:Drivers/VL53L0X/core/src/vl53l0x_api_core.c **** 	LOG_FUNCTION_END(Status);
1346:Drivers/VL53L0X/core/src/vl53l0x_api_core.c **** 	return Status;
 3958              		.loc 1 1346 9
 3959 0156 97F93F30 		ldrsb	r3, [r7, #63]
 3960              	.L158:
1347:Drivers/VL53L0X/core/src/vl53l0x_api_core.c **** }
 3961              		.loc 1 1347 1 discriminator 1
 3962 015a 1846     		mov	r0, r3
 3963 015c 4037     		adds	r7, r7, #64
 3964              		.cfi_def_cfa_offset 8
 3965 015e BD46     		mov	sp, r7
 3966              		.cfi_def_cfa_register 13
 3967              		@ sp needed
 3968 0160 80BD     		pop	{r7, pc}
 3969              		.cfi_endproc
 3970              	.LFE342:
 3972              		.section	.text.VL53L0X_load_tuning_settings,"ax",%progbits
 3973              		.align	1
 3974              		.global	VL53L0X_load_tuning_settings
 3975              		.syntax unified
 3976              		.thumb
 3977              		.thumb_func
 3979              	VL53L0X_load_tuning_settings:
 3980              	.LFB343:
1348:Drivers/VL53L0X/core/src/vl53l0x_api_core.c **** 
1349:Drivers/VL53L0X/core/src/vl53l0x_api_core.c **** 
1350:Drivers/VL53L0X/core/src/vl53l0x_api_core.c **** 
1351:Drivers/VL53L0X/core/src/vl53l0x_api_core.c **** VL53L0X_Error VL53L0X_load_tuning_settings(VL53L0X_DEV Dev,
1352:Drivers/VL53L0X/core/src/vl53l0x_api_core.c **** 		uint8_t *pTuningSettingBuffer)
1353:Drivers/VL53L0X/core/src/vl53l0x_api_core.c **** {
 3981              		.loc 1 1353 1
 3982              		.cfi_startproc
 3983              		@ args = 0, pretend = 0, frame = 32
 3984              		@ frame_needed = 1, uses_anonymous_args = 0
 3985 0000 80B5     		push	{r7, lr}
 3986              		.cfi_def_cfa_offset 8
 3987              		.cfi_offset 7, -8
 3988              		.cfi_offset 14, -4
 3989 0002 88B0     		sub	sp, sp, #32
 3990              		.cfi_def_cfa_offset 40
 3991 0004 00AF     		add	r7, sp, #0
ARM GAS  C:\Users\Morroway\AppData\Local\Temp\ccKjJYc2.s 			page 95


 3992              		.cfi_def_cfa_register 7
 3993 0006 7860     		str	r0, [r7, #4]
 3994 0008 3960     		str	r1, [r7]
1354:Drivers/VL53L0X/core/src/vl53l0x_api_core.c **** 	VL53L0X_Error Status = VL53L0X_ERROR_NONE;
 3995              		.loc 1 1354 16
 3996 000a 0023     		movs	r3, #0
 3997 000c FB77     		strb	r3, [r7, #31]
1355:Drivers/VL53L0X/core/src/vl53l0x_api_core.c **** 	int i;
1356:Drivers/VL53L0X/core/src/vl53l0x_api_core.c **** 	int Index;
1357:Drivers/VL53L0X/core/src/vl53l0x_api_core.c **** 	uint8_t msb;
1358:Drivers/VL53L0X/core/src/vl53l0x_api_core.c **** 	uint8_t lsb;
1359:Drivers/VL53L0X/core/src/vl53l0x_api_core.c **** 	uint8_t SelectParam;
1360:Drivers/VL53L0X/core/src/vl53l0x_api_core.c **** 	uint8_t NumberOfWrites;
1361:Drivers/VL53L0X/core/src/vl53l0x_api_core.c **** 	uint8_t Address;
1362:Drivers/VL53L0X/core/src/vl53l0x_api_core.c **** 	uint8_t localBuffer[4]; /* max */
1363:Drivers/VL53L0X/core/src/vl53l0x_api_core.c **** 	uint16_t Temp16;
1364:Drivers/VL53L0X/core/src/vl53l0x_api_core.c **** 
1365:Drivers/VL53L0X/core/src/vl53l0x_api_core.c **** 	LOG_FUNCTION_START("");
1366:Drivers/VL53L0X/core/src/vl53l0x_api_core.c **** 
1367:Drivers/VL53L0X/core/src/vl53l0x_api_core.c **** 	Index = 0;
 3998              		.loc 1 1367 8
 3999 000e 0023     		movs	r3, #0
 4000 0010 7B61     		str	r3, [r7, #20]
1368:Drivers/VL53L0X/core/src/vl53l0x_api_core.c **** 
1369:Drivers/VL53L0X/core/src/vl53l0x_api_core.c **** 	while ((*(pTuningSettingBuffer + Index) != 0) &&
 4001              		.loc 1 1369 8
 4002 0012 C6E0     		b	.L160
 4003              	.L173:
1370:Drivers/VL53L0X/core/src/vl53l0x_api_core.c **** 			(Status == VL53L0X_ERROR_NONE)) {
1371:Drivers/VL53L0X/core/src/vl53l0x_api_core.c **** 		NumberOfWrites = *(pTuningSettingBuffer + Index);
 4004              		.loc 1 1371 43
 4005 0014 7B69     		ldr	r3, [r7, #20]
 4006 0016 3A68     		ldr	r2, [r7]
 4007 0018 1344     		add	r3, r3, r2
 4008              		.loc 1 1371 18
 4009 001a 1B78     		ldrb	r3, [r3]
 4010 001c FB74     		strb	r3, [r7, #19]
1372:Drivers/VL53L0X/core/src/vl53l0x_api_core.c **** 		Index++;
 4011              		.loc 1 1372 8
 4012 001e 7B69     		ldr	r3, [r7, #20]
 4013 0020 0133     		adds	r3, r3, #1
 4014 0022 7B61     		str	r3, [r7, #20]
1373:Drivers/VL53L0X/core/src/vl53l0x_api_core.c **** 		if (NumberOfWrites == 0xFF) {
 4015              		.loc 1 1373 6
 4016 0024 FB7C     		ldrb	r3, [r7, #19]	@ zero_extendqisi2
 4017 0026 FF2B     		cmp	r3, #255
 4018 0028 40F08D80 		bne	.L161
1374:Drivers/VL53L0X/core/src/vl53l0x_api_core.c **** 			/* internal parameters */
1375:Drivers/VL53L0X/core/src/vl53l0x_api_core.c **** 			SelectParam = *(pTuningSettingBuffer + Index);
 4019              		.loc 1 1375 41
 4020 002c 7B69     		ldr	r3, [r7, #20]
 4021 002e 3A68     		ldr	r2, [r7]
 4022 0030 1344     		add	r3, r3, r2
 4023              		.loc 1 1375 16
 4024 0032 1B78     		ldrb	r3, [r3]
 4025 0034 7B74     		strb	r3, [r7, #17]
1376:Drivers/VL53L0X/core/src/vl53l0x_api_core.c **** 			Index++;
ARM GAS  C:\Users\Morroway\AppData\Local\Temp\ccKjJYc2.s 			page 96


 4026              		.loc 1 1376 9
 4027 0036 7B69     		ldr	r3, [r7, #20]
 4028 0038 0133     		adds	r3, r3, #1
 4029 003a 7B61     		str	r3, [r7, #20]
1377:Drivers/VL53L0X/core/src/vl53l0x_api_core.c **** 			switch (SelectParam) {
 4030              		.loc 1 1377 4
 4031 003c 7B7C     		ldrb	r3, [r7, #17]	@ zero_extendqisi2
 4032 003e 032B     		cmp	r3, #3
 4033 0040 7ED8     		bhi	.L162
 4034 0042 01A2     		adr	r2, .L164
 4035 0044 52F823F0 		ldr	pc, [r2, r3, lsl #2]
 4036              		.p2align 2
 4037              	.L164:
 4038 0048 59000000 		.word	.L167+1
 4039 004c 93000000 		.word	.L166+1
 4040 0050 CD000000 		.word	.L165+1
 4041 0054 07010000 		.word	.L163+1
 4042              		.p2align 1
 4043              	.L167:
1378:Drivers/VL53L0X/core/src/vl53l0x_api_core.c **** 			case 0: /* uint16_t SigmaEstRefArray -> 2 bytes */
1379:Drivers/VL53L0X/core/src/vl53l0x_api_core.c **** 				msb = *(pTuningSettingBuffer + Index);
 4044              		.loc 1 1379 34
 4045 0058 7B69     		ldr	r3, [r7, #20]
 4046 005a 3A68     		ldr	r2, [r7]
 4047 005c 1344     		add	r3, r3, r2
 4048              		.loc 1 1379 9
 4049 005e 1B78     		ldrb	r3, [r3]
 4050 0060 3B74     		strb	r3, [r7, #16]
1380:Drivers/VL53L0X/core/src/vl53l0x_api_core.c **** 				Index++;
 4051              		.loc 1 1380 10
 4052 0062 7B69     		ldr	r3, [r7, #20]
 4053 0064 0133     		adds	r3, r3, #1
 4054 0066 7B61     		str	r3, [r7, #20]
1381:Drivers/VL53L0X/core/src/vl53l0x_api_core.c **** 				lsb = *(pTuningSettingBuffer + Index);
 4055              		.loc 1 1381 34
 4056 0068 7B69     		ldr	r3, [r7, #20]
 4057 006a 3A68     		ldr	r2, [r7]
 4058 006c 1344     		add	r3, r3, r2
 4059              		.loc 1 1381 9
 4060 006e 1B78     		ldrb	r3, [r3]
 4061 0070 FB73     		strb	r3, [r7, #15]
1382:Drivers/VL53L0X/core/src/vl53l0x_api_core.c **** 				Index++;
 4062              		.loc 1 1382 10
 4063 0072 7B69     		ldr	r3, [r7, #20]
 4064 0074 0133     		adds	r3, r3, #1
 4065 0076 7B61     		str	r3, [r7, #20]
1383:Drivers/VL53L0X/core/src/vl53l0x_api_core.c **** 				Temp16 = VL53L0X_MAKEUINT16(lsb, msb);
 4066              		.loc 1 1383 14
 4067 0078 3B7C     		ldrb	r3, [r7, #16]	@ zero_extendqisi2
 4068 007a 9BB2     		uxth	r3, r3
 4069 007c 1B02     		lsls	r3, r3, #8
 4070 007e 9AB2     		uxth	r2, r3
 4071 0080 FB7B     		ldrb	r3, [r7, #15]	@ zero_extendqisi2
 4072 0082 9BB2     		uxth	r3, r3
 4073              		.loc 1 1383 12
 4074 0084 1344     		add	r3, r3, r2
 4075 0086 BB81     		strh	r3, [r7, #12]	@ movhi
ARM GAS  C:\Users\Morroway\AppData\Local\Temp\ccKjJYc2.s 			page 97


1384:Drivers/VL53L0X/core/src/vl53l0x_api_core.c **** 				PALDevDataSet(Dev, SigmaEstRefArray, Temp16);
 4076              		.loc 1 1384 5
 4077 0088 7B68     		ldr	r3, [r7, #4]
 4078 008a BA89     		ldrh	r2, [r7, #12]	@ movhi
 4079 008c A3F83421 		strh	r2, [r3, #308]	@ movhi
1385:Drivers/VL53L0X/core/src/vl53l0x_api_core.c **** 				break;
 4080              		.loc 1 1385 5
 4081 0090 87E0     		b	.L160
 4082              	.L166:
1386:Drivers/VL53L0X/core/src/vl53l0x_api_core.c **** 			case 1: /* uint16_t SigmaEstEffPulseWidth -> 2 bytes */
1387:Drivers/VL53L0X/core/src/vl53l0x_api_core.c **** 				msb = *(pTuningSettingBuffer + Index);
 4083              		.loc 1 1387 34
 4084 0092 7B69     		ldr	r3, [r7, #20]
 4085 0094 3A68     		ldr	r2, [r7]
 4086 0096 1344     		add	r3, r3, r2
 4087              		.loc 1 1387 9
 4088 0098 1B78     		ldrb	r3, [r3]
 4089 009a 3B74     		strb	r3, [r7, #16]
1388:Drivers/VL53L0X/core/src/vl53l0x_api_core.c **** 				Index++;
 4090              		.loc 1 1388 10
 4091 009c 7B69     		ldr	r3, [r7, #20]
 4092 009e 0133     		adds	r3, r3, #1
 4093 00a0 7B61     		str	r3, [r7, #20]
1389:Drivers/VL53L0X/core/src/vl53l0x_api_core.c **** 				lsb = *(pTuningSettingBuffer + Index);
 4094              		.loc 1 1389 34
 4095 00a2 7B69     		ldr	r3, [r7, #20]
 4096 00a4 3A68     		ldr	r2, [r7]
 4097 00a6 1344     		add	r3, r3, r2
 4098              		.loc 1 1389 9
 4099 00a8 1B78     		ldrb	r3, [r3]
 4100 00aa FB73     		strb	r3, [r7, #15]
1390:Drivers/VL53L0X/core/src/vl53l0x_api_core.c **** 				Index++;
 4101              		.loc 1 1390 10
 4102 00ac 7B69     		ldr	r3, [r7, #20]
 4103 00ae 0133     		adds	r3, r3, #1
 4104 00b0 7B61     		str	r3, [r7, #20]
1391:Drivers/VL53L0X/core/src/vl53l0x_api_core.c **** 				Temp16 = VL53L0X_MAKEUINT16(lsb, msb);
 4105              		.loc 1 1391 14
 4106 00b2 3B7C     		ldrb	r3, [r7, #16]	@ zero_extendqisi2
 4107 00b4 9BB2     		uxth	r3, r3
 4108 00b6 1B02     		lsls	r3, r3, #8
 4109 00b8 9AB2     		uxth	r2, r3
 4110 00ba FB7B     		ldrb	r3, [r7, #15]	@ zero_extendqisi2
 4111 00bc 9BB2     		uxth	r3, r3
 4112              		.loc 1 1391 12
 4113 00be 1344     		add	r3, r3, r2
 4114 00c0 BB81     		strh	r3, [r7, #12]	@ movhi
1392:Drivers/VL53L0X/core/src/vl53l0x_api_core.c **** 				PALDevDataSet(Dev, SigmaEstEffPulseWidth,
 4115              		.loc 1 1392 5
 4116 00c2 7B68     		ldr	r3, [r7, #4]
 4117 00c4 BA89     		ldrh	r2, [r7, #12]	@ movhi
 4118 00c6 A3F83621 		strh	r2, [r3, #310]	@ movhi
1393:Drivers/VL53L0X/core/src/vl53l0x_api_core.c **** 					Temp16);
1394:Drivers/VL53L0X/core/src/vl53l0x_api_core.c **** 				break;
 4119              		.loc 1 1394 5
 4120 00ca 6AE0     		b	.L160
 4121              	.L165:
ARM GAS  C:\Users\Morroway\AppData\Local\Temp\ccKjJYc2.s 			page 98


1395:Drivers/VL53L0X/core/src/vl53l0x_api_core.c **** 			case 2: /* uint16_t SigmaEstEffAmbWidth -> 2 bytes */
1396:Drivers/VL53L0X/core/src/vl53l0x_api_core.c **** 				msb = *(pTuningSettingBuffer + Index);
 4122              		.loc 1 1396 34
 4123 00cc 7B69     		ldr	r3, [r7, #20]
 4124 00ce 3A68     		ldr	r2, [r7]
 4125 00d0 1344     		add	r3, r3, r2
 4126              		.loc 1 1396 9
 4127 00d2 1B78     		ldrb	r3, [r3]
 4128 00d4 3B74     		strb	r3, [r7, #16]
1397:Drivers/VL53L0X/core/src/vl53l0x_api_core.c **** 				Index++;
 4129              		.loc 1 1397 10
 4130 00d6 7B69     		ldr	r3, [r7, #20]
 4131 00d8 0133     		adds	r3, r3, #1
 4132 00da 7B61     		str	r3, [r7, #20]
1398:Drivers/VL53L0X/core/src/vl53l0x_api_core.c **** 				lsb = *(pTuningSettingBuffer + Index);
 4133              		.loc 1 1398 34
 4134 00dc 7B69     		ldr	r3, [r7, #20]
 4135 00de 3A68     		ldr	r2, [r7]
 4136 00e0 1344     		add	r3, r3, r2
 4137              		.loc 1 1398 9
 4138 00e2 1B78     		ldrb	r3, [r3]
 4139 00e4 FB73     		strb	r3, [r7, #15]
1399:Drivers/VL53L0X/core/src/vl53l0x_api_core.c **** 				Index++;
 4140              		.loc 1 1399 10
 4141 00e6 7B69     		ldr	r3, [r7, #20]
 4142 00e8 0133     		adds	r3, r3, #1
 4143 00ea 7B61     		str	r3, [r7, #20]
1400:Drivers/VL53L0X/core/src/vl53l0x_api_core.c **** 				Temp16 = VL53L0X_MAKEUINT16(lsb, msb);
 4144              		.loc 1 1400 14
 4145 00ec 3B7C     		ldrb	r3, [r7, #16]	@ zero_extendqisi2
 4146 00ee 9BB2     		uxth	r3, r3
 4147 00f0 1B02     		lsls	r3, r3, #8
 4148 00f2 9AB2     		uxth	r2, r3
 4149 00f4 FB7B     		ldrb	r3, [r7, #15]	@ zero_extendqisi2
 4150 00f6 9BB2     		uxth	r3, r3
 4151              		.loc 1 1400 12
 4152 00f8 1344     		add	r3, r3, r2
 4153 00fa BB81     		strh	r3, [r7, #12]	@ movhi
1401:Drivers/VL53L0X/core/src/vl53l0x_api_core.c **** 				PALDevDataSet(Dev, SigmaEstEffAmbWidth, Temp16);
 4154              		.loc 1 1401 5
 4155 00fc 7B68     		ldr	r3, [r7, #4]
 4156 00fe BA89     		ldrh	r2, [r7, #12]	@ movhi
 4157 0100 A3F83821 		strh	r2, [r3, #312]	@ movhi
1402:Drivers/VL53L0X/core/src/vl53l0x_api_core.c **** 				break;
 4158              		.loc 1 1402 5
 4159 0104 4DE0     		b	.L160
 4160              	.L163:
1403:Drivers/VL53L0X/core/src/vl53l0x_api_core.c **** 			case 3: /* uint16_t targetRefRate -> 2 bytes */
1404:Drivers/VL53L0X/core/src/vl53l0x_api_core.c **** 				msb = *(pTuningSettingBuffer + Index);
 4161              		.loc 1 1404 34
 4162 0106 7B69     		ldr	r3, [r7, #20]
 4163 0108 3A68     		ldr	r2, [r7]
 4164 010a 1344     		add	r3, r3, r2
 4165              		.loc 1 1404 9
 4166 010c 1B78     		ldrb	r3, [r3]
 4167 010e 3B74     		strb	r3, [r7, #16]
1405:Drivers/VL53L0X/core/src/vl53l0x_api_core.c **** 				Index++;
ARM GAS  C:\Users\Morroway\AppData\Local\Temp\ccKjJYc2.s 			page 99


 4168              		.loc 1 1405 10
 4169 0110 7B69     		ldr	r3, [r7, #20]
 4170 0112 0133     		adds	r3, r3, #1
 4171 0114 7B61     		str	r3, [r7, #20]
1406:Drivers/VL53L0X/core/src/vl53l0x_api_core.c **** 				lsb = *(pTuningSettingBuffer + Index);
 4172              		.loc 1 1406 34
 4173 0116 7B69     		ldr	r3, [r7, #20]
 4174 0118 3A68     		ldr	r2, [r7]
 4175 011a 1344     		add	r3, r3, r2
 4176              		.loc 1 1406 9
 4177 011c 1B78     		ldrb	r3, [r3]
 4178 011e FB73     		strb	r3, [r7, #15]
1407:Drivers/VL53L0X/core/src/vl53l0x_api_core.c **** 				Index++;
 4179              		.loc 1 1407 10
 4180 0120 7B69     		ldr	r3, [r7, #20]
 4181 0122 0133     		adds	r3, r3, #1
 4182 0124 7B61     		str	r3, [r7, #20]
1408:Drivers/VL53L0X/core/src/vl53l0x_api_core.c **** 				Temp16 = VL53L0X_MAKEUINT16(lsb, msb);
 4183              		.loc 1 1408 14
 4184 0126 3B7C     		ldrb	r3, [r7, #16]	@ zero_extendqisi2
 4185 0128 9BB2     		uxth	r3, r3
 4186 012a 1B02     		lsls	r3, r3, #8
 4187 012c 9AB2     		uxth	r2, r3
 4188 012e FB7B     		ldrb	r3, [r7, #15]	@ zero_extendqisi2
 4189 0130 9BB2     		uxth	r3, r3
 4190              		.loc 1 1408 12
 4191 0132 1344     		add	r3, r3, r2
 4192 0134 BB81     		strh	r3, [r7, #12]	@ movhi
1409:Drivers/VL53L0X/core/src/vl53l0x_api_core.c **** 				PALDevDataSet(Dev, targetRefRate, Temp16);
 4193              		.loc 1 1409 5
 4194 0136 7B68     		ldr	r3, [r7, #4]
 4195 0138 BA89     		ldrh	r2, [r7, #12]	@ movhi
 4196 013a A3F83C21 		strh	r2, [r3, #316]	@ movhi
1410:Drivers/VL53L0X/core/src/vl53l0x_api_core.c **** 				break;
 4197              		.loc 1 1410 5
 4198 013e 30E0     		b	.L160
 4199              	.L162:
1411:Drivers/VL53L0X/core/src/vl53l0x_api_core.c **** 			default: /* invalid parameter */
1412:Drivers/VL53L0X/core/src/vl53l0x_api_core.c **** 				Status = VL53L0X_ERROR_INVALID_PARAMS;
 4200              		.loc 1 1412 12
 4201 0140 FC23     		movs	r3, #252
 4202 0142 FB77     		strb	r3, [r7, #31]
 4203 0144 2DE0     		b	.L160
 4204              	.L161:
1413:Drivers/VL53L0X/core/src/vl53l0x_api_core.c **** 			}
1414:Drivers/VL53L0X/core/src/vl53l0x_api_core.c **** 
1415:Drivers/VL53L0X/core/src/vl53l0x_api_core.c **** 		} else if (NumberOfWrites <= 4) {
 4205              		.loc 1 1415 13
 4206 0146 FB7C     		ldrb	r3, [r7, #19]	@ zero_extendqisi2
 4207 0148 042B     		cmp	r3, #4
 4208 014a 28D8     		bhi	.L169
1416:Drivers/VL53L0X/core/src/vl53l0x_api_core.c **** 			Address = *(pTuningSettingBuffer + Index);
 4209              		.loc 1 1416 37
 4210 014c 7B69     		ldr	r3, [r7, #20]
 4211 014e 3A68     		ldr	r2, [r7]
 4212 0150 1344     		add	r3, r3, r2
 4213              		.loc 1 1416 12
ARM GAS  C:\Users\Morroway\AppData\Local\Temp\ccKjJYc2.s 			page 100


 4214 0152 1B78     		ldrb	r3, [r3]
 4215 0154 BB74     		strb	r3, [r7, #18]
1417:Drivers/VL53L0X/core/src/vl53l0x_api_core.c **** 			Index++;
 4216              		.loc 1 1417 9
 4217 0156 7B69     		ldr	r3, [r7, #20]
 4218 0158 0133     		adds	r3, r3, #1
 4219 015a 7B61     		str	r3, [r7, #20]
1418:Drivers/VL53L0X/core/src/vl53l0x_api_core.c **** 
1419:Drivers/VL53L0X/core/src/vl53l0x_api_core.c **** 			for (i = 0; i < NumberOfWrites; i++) {
 4220              		.loc 1 1419 11
 4221 015c 0023     		movs	r3, #0
 4222 015e BB61     		str	r3, [r7, #24]
 4223              		.loc 1 1419 4
 4224 0160 0FE0     		b	.L170
 4225              	.L171:
1420:Drivers/VL53L0X/core/src/vl53l0x_api_core.c **** 				localBuffer[i] = *(pTuningSettingBuffer +
 4226              		.loc 1 1420 45 discriminator 3
 4227 0162 7B69     		ldr	r3, [r7, #20]
 4228 0164 3A68     		ldr	r2, [r7]
 4229 0166 1344     		add	r3, r3, r2
 4230              		.loc 1 1420 22 discriminator 3
 4231 0168 1978     		ldrb	r1, [r3]	@ zero_extendqisi2
 4232              		.loc 1 1420 20 discriminator 3
 4233 016a 07F10802 		add	r2, r7, #8
 4234 016e BB69     		ldr	r3, [r7, #24]
 4235 0170 1344     		add	r3, r3, r2
 4236 0172 0A46     		mov	r2, r1
 4237 0174 1A70     		strb	r2, [r3]
1421:Drivers/VL53L0X/core/src/vl53l0x_api_core.c **** 							Index);
1422:Drivers/VL53L0X/core/src/vl53l0x_api_core.c **** 				Index++;
 4238              		.loc 1 1422 10 discriminator 3
 4239 0176 7B69     		ldr	r3, [r7, #20]
 4240 0178 0133     		adds	r3, r3, #1
 4241 017a 7B61     		str	r3, [r7, #20]
1419:Drivers/VL53L0X/core/src/vl53l0x_api_core.c **** 				localBuffer[i] = *(pTuningSettingBuffer +
 4242              		.loc 1 1419 37 discriminator 3
 4243 017c BB69     		ldr	r3, [r7, #24]
 4244 017e 0133     		adds	r3, r3, #1
 4245 0180 BB61     		str	r3, [r7, #24]
 4246              	.L170:
1419:Drivers/VL53L0X/core/src/vl53l0x_api_core.c **** 				localBuffer[i] = *(pTuningSettingBuffer +
 4247              		.loc 1 1419 18 discriminator 1
 4248 0182 FB7C     		ldrb	r3, [r7, #19]	@ zero_extendqisi2
 4249 0184 BA69     		ldr	r2, [r7, #24]
 4250 0186 9A42     		cmp	r2, r3
 4251 0188 EBDB     		blt	.L171
1423:Drivers/VL53L0X/core/src/vl53l0x_api_core.c **** 			}
1424:Drivers/VL53L0X/core/src/vl53l0x_api_core.c **** 
1425:Drivers/VL53L0X/core/src/vl53l0x_api_core.c **** 			Status = VL53L0X_WriteMulti(Dev, Address, localBuffer,
 4252              		.loc 1 1425 13
 4253 018a FB7C     		ldrb	r3, [r7, #19]	@ zero_extendqisi2
 4254 018c 07F10802 		add	r2, r7, #8
 4255 0190 B97C     		ldrb	r1, [r7, #18]	@ zero_extendqisi2
 4256 0192 7868     		ldr	r0, [r7, #4]
 4257 0194 FFF7FEFF 		bl	VL53L0X_WriteMulti
 4258 0198 0346     		mov	r3, r0
 4259 019a FB77     		strb	r3, [r7, #31]
ARM GAS  C:\Users\Morroway\AppData\Local\Temp\ccKjJYc2.s 			page 101


 4260 019c 01E0     		b	.L160
 4261              	.L169:
1426:Drivers/VL53L0X/core/src/vl53l0x_api_core.c **** 					NumberOfWrites);
1427:Drivers/VL53L0X/core/src/vl53l0x_api_core.c **** 
1428:Drivers/VL53L0X/core/src/vl53l0x_api_core.c **** 		} else {
1429:Drivers/VL53L0X/core/src/vl53l0x_api_core.c **** 			Status = VL53L0X_ERROR_INVALID_PARAMS;
 4262              		.loc 1 1429 11
 4263 019e FC23     		movs	r3, #252
 4264 01a0 FB77     		strb	r3, [r7, #31]
 4265              	.L160:
1369:Drivers/VL53L0X/core/src/vl53l0x_api_core.c **** 			(Status == VL53L0X_ERROR_NONE)) {
 4266              		.loc 1 1369 33
 4267 01a2 7B69     		ldr	r3, [r7, #20]
 4268 01a4 3A68     		ldr	r2, [r7]
 4269 01a6 1344     		add	r3, r3, r2
1369:Drivers/VL53L0X/core/src/vl53l0x_api_core.c **** 			(Status == VL53L0X_ERROR_NONE)) {
 4270              		.loc 1 1369 10
 4271 01a8 1B78     		ldrb	r3, [r3]	@ zero_extendqisi2
1369:Drivers/VL53L0X/core/src/vl53l0x_api_core.c **** 			(Status == VL53L0X_ERROR_NONE)) {
 4272              		.loc 1 1369 48
 4273 01aa 002B     		cmp	r3, #0
 4274 01ac 04D0     		beq	.L172
1369:Drivers/VL53L0X/core/src/vl53l0x_api_core.c **** 			(Status == VL53L0X_ERROR_NONE)) {
 4275              		.loc 1 1369 48 is_stmt 0 discriminator 1
 4276 01ae 97F91F30 		ldrsb	r3, [r7, #31]
 4277 01b2 002B     		cmp	r3, #0
 4278 01b4 3FF42EAF 		beq	.L173
 4279              	.L172:
1430:Drivers/VL53L0X/core/src/vl53l0x_api_core.c **** 		}
1431:Drivers/VL53L0X/core/src/vl53l0x_api_core.c **** 	}
1432:Drivers/VL53L0X/core/src/vl53l0x_api_core.c **** 
1433:Drivers/VL53L0X/core/src/vl53l0x_api_core.c **** 	LOG_FUNCTION_END(Status);
1434:Drivers/VL53L0X/core/src/vl53l0x_api_core.c **** 	return Status;
 4280              		.loc 1 1434 9 is_stmt 1
 4281 01b8 97F91F30 		ldrsb	r3, [r7, #31]
1435:Drivers/VL53L0X/core/src/vl53l0x_api_core.c **** }
 4282              		.loc 1 1435 1
 4283 01bc 1846     		mov	r0, r3
 4284 01be 2037     		adds	r7, r7, #32
 4285              		.cfi_def_cfa_offset 8
 4286 01c0 BD46     		mov	sp, r7
 4287              		.cfi_def_cfa_register 13
 4288              		@ sp needed
 4289 01c2 80BD     		pop	{r7, pc}
 4290              		.cfi_endproc
 4291              	.LFE343:
 4293              		.section	.text.VL53L0X_get_total_xtalk_rate,"ax",%progbits
 4294              		.align	1
 4295              		.global	VL53L0X_get_total_xtalk_rate
 4296              		.syntax unified
 4297              		.thumb
 4298              		.thumb_func
 4300              	VL53L0X_get_total_xtalk_rate:
 4301              	.LFB344:
1436:Drivers/VL53L0X/core/src/vl53l0x_api_core.c **** 
1437:Drivers/VL53L0X/core/src/vl53l0x_api_core.c **** VL53L0X_Error VL53L0X_get_total_xtalk_rate(VL53L0X_DEV Dev,
1438:Drivers/VL53L0X/core/src/vl53l0x_api_core.c **** 	VL53L0X_RangingMeasurementData_t *pRangingMeasurementData,
ARM GAS  C:\Users\Morroway\AppData\Local\Temp\ccKjJYc2.s 			page 102


1439:Drivers/VL53L0X/core/src/vl53l0x_api_core.c **** 	FixPoint1616_t *ptotal_xtalk_rate_mcps)
1440:Drivers/VL53L0X/core/src/vl53l0x_api_core.c **** {
 4302              		.loc 1 1440 1
 4303              		.cfi_startproc
 4304              		@ args = 0, pretend = 0, frame = 32
 4305              		@ frame_needed = 1, uses_anonymous_args = 0
 4306 0000 80B5     		push	{r7, lr}
 4307              		.cfi_def_cfa_offset 8
 4308              		.cfi_offset 7, -8
 4309              		.cfi_offset 14, -4
 4310 0002 88B0     		sub	sp, sp, #32
 4311              		.cfi_def_cfa_offset 40
 4312 0004 00AF     		add	r7, sp, #0
 4313              		.cfi_def_cfa_register 7
 4314 0006 F860     		str	r0, [r7, #12]
 4315 0008 B960     		str	r1, [r7, #8]
 4316 000a 7A60     		str	r2, [r7, #4]
1441:Drivers/VL53L0X/core/src/vl53l0x_api_core.c **** 	VL53L0X_Error Status = VL53L0X_ERROR_NONE;
 4317              		.loc 1 1441 16
 4318 000c 0023     		movs	r3, #0
 4319 000e FB77     		strb	r3, [r7, #31]
1442:Drivers/VL53L0X/core/src/vl53l0x_api_core.c **** 
1443:Drivers/VL53L0X/core/src/vl53l0x_api_core.c **** 	uint8_t xtalkCompEnable;
1444:Drivers/VL53L0X/core/src/vl53l0x_api_core.c **** 	FixPoint1616_t totalXtalkMegaCps;
1445:Drivers/VL53L0X/core/src/vl53l0x_api_core.c **** 	FixPoint1616_t xtalkPerSpadMegaCps;
1446:Drivers/VL53L0X/core/src/vl53l0x_api_core.c **** 
1447:Drivers/VL53L0X/core/src/vl53l0x_api_core.c **** 	*ptotal_xtalk_rate_mcps = 0;
 4320              		.loc 1 1447 26
 4321 0010 7B68     		ldr	r3, [r7, #4]
 4322 0012 0022     		movs	r2, #0
 4323 0014 1A60     		str	r2, [r3]
1448:Drivers/VL53L0X/core/src/vl53l0x_api_core.c **** 
1449:Drivers/VL53L0X/core/src/vl53l0x_api_core.c **** 	Status = VL53L0X_GetXTalkCompensationEnable(Dev, &xtalkCompEnable);
 4324              		.loc 1 1449 11
 4325 0016 07F11303 		add	r3, r7, #19
 4326 001a 1946     		mov	r1, r3
 4327 001c F868     		ldr	r0, [r7, #12]
 4328 001e FFF7FEFF 		bl	VL53L0X_GetXTalkCompensationEnable
 4329 0022 0346     		mov	r3, r0
 4330 0024 FB77     		strb	r3, [r7, #31]
1450:Drivers/VL53L0X/core/src/vl53l0x_api_core.c **** 	if (Status == VL53L0X_ERROR_NONE) {
 4331              		.loc 1 1450 5
 4332 0026 97F91F30 		ldrsb	r3, [r7, #31]
 4333 002a 002B     		cmp	r3, #0
 4334 002c 11D1     		bne	.L176
1451:Drivers/VL53L0X/core/src/vl53l0x_api_core.c **** 
1452:Drivers/VL53L0X/core/src/vl53l0x_api_core.c **** 		if (xtalkCompEnable) {
 4335              		.loc 1 1452 7
 4336 002e FB7C     		ldrb	r3, [r7, #19]	@ zero_extendqisi2
 4337              		.loc 1 1452 6
 4338 0030 002B     		cmp	r3, #0
 4339 0032 0ED0     		beq	.L176
1453:Drivers/VL53L0X/core/src/vl53l0x_api_core.c **** 
1454:Drivers/VL53L0X/core/src/vl53l0x_api_core.c **** 			VL53L0X_GETPARAMETERFIELD(
 4340              		.loc 1 1454 4
 4341 0034 FB68     		ldr	r3, [r7, #12]
 4342 0036 1B6A     		ldr	r3, [r3, #32]
ARM GAS  C:\Users\Morroway\AppData\Local\Temp\ccKjJYc2.s 			page 103


 4343 0038 BB61     		str	r3, [r7, #24]
1455:Drivers/VL53L0X/core/src/vl53l0x_api_core.c **** 				Dev,
1456:Drivers/VL53L0X/core/src/vl53l0x_api_core.c **** 				XTalkCompensationRateMegaCps,
1457:Drivers/VL53L0X/core/src/vl53l0x_api_core.c **** 				xtalkPerSpadMegaCps);
1458:Drivers/VL53L0X/core/src/vl53l0x_api_core.c **** 
1459:Drivers/VL53L0X/core/src/vl53l0x_api_core.c **** 			/* FixPoint1616 * FixPoint 8:8 = FixPoint0824 */
1460:Drivers/VL53L0X/core/src/vl53l0x_api_core.c **** 			totalXtalkMegaCps =
1461:Drivers/VL53L0X/core/src/vl53l0x_api_core.c **** 				pRangingMeasurementData->EffectiveSpadRtnCount *
 4344              		.loc 1 1461 28
 4345 003a BB68     		ldr	r3, [r7, #8]
 4346 003c 9B8A     		ldrh	r3, [r3, #20]
 4347 003e 1A46     		mov	r2, r3
1460:Drivers/VL53L0X/core/src/vl53l0x_api_core.c **** 				pRangingMeasurementData->EffectiveSpadRtnCount *
 4348              		.loc 1 1460 22
 4349 0040 BB69     		ldr	r3, [r7, #24]
 4350 0042 02FB03F3 		mul	r3, r2, r3
 4351 0046 7B61     		str	r3, [r7, #20]
1462:Drivers/VL53L0X/core/src/vl53l0x_api_core.c **** 				xtalkPerSpadMegaCps;
1463:Drivers/VL53L0X/core/src/vl53l0x_api_core.c **** 
1464:Drivers/VL53L0X/core/src/vl53l0x_api_core.c **** 			/* FixPoint0824 >> 8 = FixPoint1616 */
1465:Drivers/VL53L0X/core/src/vl53l0x_api_core.c **** 			*ptotal_xtalk_rate_mcps =
1466:Drivers/VL53L0X/core/src/vl53l0x_api_core.c **** 				(totalXtalkMegaCps + 0x80) >> 8;
 4352              		.loc 1 1466 24
 4353 0048 7B69     		ldr	r3, [r7, #20]
 4354 004a 8033     		adds	r3, r3, #128
 4355              		.loc 1 1466 32
 4356 004c 1A0A     		lsrs	r2, r3, #8
1465:Drivers/VL53L0X/core/src/vl53l0x_api_core.c **** 				(totalXtalkMegaCps + 0x80) >> 8;
 4357              		.loc 1 1465 28
 4358 004e 7B68     		ldr	r3, [r7, #4]
 4359 0050 1A60     		str	r2, [r3]
 4360              	.L176:
1467:Drivers/VL53L0X/core/src/vl53l0x_api_core.c **** 		}
1468:Drivers/VL53L0X/core/src/vl53l0x_api_core.c **** 	}
1469:Drivers/VL53L0X/core/src/vl53l0x_api_core.c **** 
1470:Drivers/VL53L0X/core/src/vl53l0x_api_core.c **** 	return Status;
 4361              		.loc 1 1470 9
 4362 0052 97F91F30 		ldrsb	r3, [r7, #31]
1471:Drivers/VL53L0X/core/src/vl53l0x_api_core.c **** }
 4363              		.loc 1 1471 1
 4364 0056 1846     		mov	r0, r3
 4365 0058 2037     		adds	r7, r7, #32
 4366              		.cfi_def_cfa_offset 8
 4367 005a BD46     		mov	sp, r7
 4368              		.cfi_def_cfa_register 13
 4369              		@ sp needed
 4370 005c 80BD     		pop	{r7, pc}
 4371              		.cfi_endproc
 4372              	.LFE344:
 4374              		.section	.text.VL53L0X_get_total_signal_rate,"ax",%progbits
 4375              		.align	1
 4376              		.global	VL53L0X_get_total_signal_rate
 4377              		.syntax unified
 4378              		.thumb
 4379              		.thumb_func
 4381              	VL53L0X_get_total_signal_rate:
 4382              	.LFB345:
ARM GAS  C:\Users\Morroway\AppData\Local\Temp\ccKjJYc2.s 			page 104


1472:Drivers/VL53L0X/core/src/vl53l0x_api_core.c **** 
1473:Drivers/VL53L0X/core/src/vl53l0x_api_core.c **** VL53L0X_Error VL53L0X_get_total_signal_rate(VL53L0X_DEV Dev,
1474:Drivers/VL53L0X/core/src/vl53l0x_api_core.c **** 	VL53L0X_RangingMeasurementData_t *pRangingMeasurementData,
1475:Drivers/VL53L0X/core/src/vl53l0x_api_core.c **** 	FixPoint1616_t *ptotal_signal_rate_mcps)
1476:Drivers/VL53L0X/core/src/vl53l0x_api_core.c **** {
 4383              		.loc 1 1476 1
 4384              		.cfi_startproc
 4385              		@ args = 0, pretend = 0, frame = 24
 4386              		@ frame_needed = 1, uses_anonymous_args = 0
 4387 0000 80B5     		push	{r7, lr}
 4388              		.cfi_def_cfa_offset 8
 4389              		.cfi_offset 7, -8
 4390              		.cfi_offset 14, -4
 4391 0002 86B0     		sub	sp, sp, #24
 4392              		.cfi_def_cfa_offset 32
 4393 0004 00AF     		add	r7, sp, #0
 4394              		.cfi_def_cfa_register 7
 4395 0006 F860     		str	r0, [r7, #12]
 4396 0008 B960     		str	r1, [r7, #8]
 4397 000a 7A60     		str	r2, [r7, #4]
1477:Drivers/VL53L0X/core/src/vl53l0x_api_core.c **** 	VL53L0X_Error Status = VL53L0X_ERROR_NONE;
 4398              		.loc 1 1477 16
 4399 000c 0023     		movs	r3, #0
 4400 000e FB75     		strb	r3, [r7, #23]
1478:Drivers/VL53L0X/core/src/vl53l0x_api_core.c **** 	FixPoint1616_t totalXtalkMegaCps;
1479:Drivers/VL53L0X/core/src/vl53l0x_api_core.c **** 
1480:Drivers/VL53L0X/core/src/vl53l0x_api_core.c **** 	LOG_FUNCTION_START("");
1481:Drivers/VL53L0X/core/src/vl53l0x_api_core.c **** 
1482:Drivers/VL53L0X/core/src/vl53l0x_api_core.c **** 	*ptotal_signal_rate_mcps =
1483:Drivers/VL53L0X/core/src/vl53l0x_api_core.c **** 		pRangingMeasurementData->SignalRateRtnMegaCps;
 4401              		.loc 1 1483 26
 4402 0010 BB68     		ldr	r3, [r7, #8]
 4403 0012 DA68     		ldr	r2, [r3, #12]
1482:Drivers/VL53L0X/core/src/vl53l0x_api_core.c **** 		pRangingMeasurementData->SignalRateRtnMegaCps;
 4404              		.loc 1 1482 27
 4405 0014 7B68     		ldr	r3, [r7, #4]
 4406 0016 1A60     		str	r2, [r3]
1484:Drivers/VL53L0X/core/src/vl53l0x_api_core.c **** 
1485:Drivers/VL53L0X/core/src/vl53l0x_api_core.c **** 	Status = VL53L0X_get_total_xtalk_rate(
 4407              		.loc 1 1485 11
 4408 0018 07F11003 		add	r3, r7, #16
 4409 001c 1A46     		mov	r2, r3
 4410 001e B968     		ldr	r1, [r7, #8]
 4411 0020 F868     		ldr	r0, [r7, #12]
 4412 0022 FFF7FEFF 		bl	VL53L0X_get_total_xtalk_rate
 4413 0026 0346     		mov	r3, r0
 4414 0028 FB75     		strb	r3, [r7, #23]
1486:Drivers/VL53L0X/core/src/vl53l0x_api_core.c **** 		Dev, pRangingMeasurementData, &totalXtalkMegaCps);
1487:Drivers/VL53L0X/core/src/vl53l0x_api_core.c **** 
1488:Drivers/VL53L0X/core/src/vl53l0x_api_core.c **** 	if (Status == VL53L0X_ERROR_NONE)
 4415              		.loc 1 1488 5
 4416 002a 97F91730 		ldrsb	r3, [r7, #23]
 4417 002e 002B     		cmp	r3, #0
 4418 0030 05D1     		bne	.L179
1489:Drivers/VL53L0X/core/src/vl53l0x_api_core.c **** 		*ptotal_signal_rate_mcps += totalXtalkMegaCps;
 4419              		.loc 1 1489 28
 4420 0032 7B68     		ldr	r3, [r7, #4]
ARM GAS  C:\Users\Morroway\AppData\Local\Temp\ccKjJYc2.s 			page 105


 4421 0034 1A68     		ldr	r2, [r3]
 4422 0036 3B69     		ldr	r3, [r7, #16]
 4423 0038 1A44     		add	r2, r2, r3
 4424 003a 7B68     		ldr	r3, [r7, #4]
 4425 003c 1A60     		str	r2, [r3]
 4426              	.L179:
1490:Drivers/VL53L0X/core/src/vl53l0x_api_core.c **** 
1491:Drivers/VL53L0X/core/src/vl53l0x_api_core.c **** 	return Status;
 4427              		.loc 1 1491 9
 4428 003e 97F91730 		ldrsb	r3, [r7, #23]
1492:Drivers/VL53L0X/core/src/vl53l0x_api_core.c **** }
 4429              		.loc 1 1492 1
 4430 0042 1846     		mov	r0, r3
 4431 0044 1837     		adds	r7, r7, #24
 4432              		.cfi_def_cfa_offset 8
 4433 0046 BD46     		mov	sp, r7
 4434              		.cfi_def_cfa_register 13
 4435              		@ sp needed
 4436 0048 80BD     		pop	{r7, pc}
 4437              		.cfi_endproc
 4438              	.LFE345:
 4440              		.section	.text.VL53L0X_calc_dmax,"ax",%progbits
 4441              		.align	1
 4442              		.global	VL53L0X_calc_dmax
 4443              		.syntax unified
 4444              		.thumb
 4445              		.thumb_func
 4447              	VL53L0X_calc_dmax:
 4448              	.LFB346:
1493:Drivers/VL53L0X/core/src/vl53l0x_api_core.c **** 
1494:Drivers/VL53L0X/core/src/vl53l0x_api_core.c **** VL53L0X_Error VL53L0X_calc_dmax(
1495:Drivers/VL53L0X/core/src/vl53l0x_api_core.c **** 	VL53L0X_DEV Dev,
1496:Drivers/VL53L0X/core/src/vl53l0x_api_core.c **** 	FixPoint1616_t totalSignalRate_mcps,
1497:Drivers/VL53L0X/core/src/vl53l0x_api_core.c **** 	FixPoint1616_t totalCorrSignalRate_mcps,
1498:Drivers/VL53L0X/core/src/vl53l0x_api_core.c **** 	FixPoint1616_t pwMult,
1499:Drivers/VL53L0X/core/src/vl53l0x_api_core.c **** 	uint32_t sigmaEstimateP1,
1500:Drivers/VL53L0X/core/src/vl53l0x_api_core.c **** 	FixPoint1616_t sigmaEstimateP2,
1501:Drivers/VL53L0X/core/src/vl53l0x_api_core.c **** 	uint32_t peakVcselDuration_us,
1502:Drivers/VL53L0X/core/src/vl53l0x_api_core.c **** 	uint32_t *pdmax_mm)
1503:Drivers/VL53L0X/core/src/vl53l0x_api_core.c **** {
 4449              		.loc 1 1503 1
 4450              		.cfi_startproc
 4451              		@ args = 16, pretend = 0, frame = 104
 4452              		@ frame_needed = 1, uses_anonymous_args = 0
 4453 0000 80B5     		push	{r7, lr}
 4454              		.cfi_def_cfa_offset 8
 4455              		.cfi_offset 7, -8
 4456              		.cfi_offset 14, -4
 4457 0002 9AB0     		sub	sp, sp, #104
 4458              		.cfi_def_cfa_offset 112
 4459 0004 00AF     		add	r7, sp, #0
 4460              		.cfi_def_cfa_register 7
 4461 0006 F860     		str	r0, [r7, #12]
 4462 0008 B960     		str	r1, [r7, #8]
 4463 000a 7A60     		str	r2, [r7, #4]
 4464 000c 3B60     		str	r3, [r7]
1504:Drivers/VL53L0X/core/src/vl53l0x_api_core.c **** 	const uint32_t cSigmaLimit		= 18;
ARM GAS  C:\Users\Morroway\AppData\Local\Temp\ccKjJYc2.s 			page 106


 4465              		.loc 1 1504 17
 4466 000e 1223     		movs	r3, #18
 4467 0010 7B65     		str	r3, [r7, #84]
1505:Drivers/VL53L0X/core/src/vl53l0x_api_core.c **** 	const FixPoint1616_t cSignalLimit	= 0x4000; /* 0.25 */
 4468              		.loc 1 1505 23
 4469 0012 4FF48043 		mov	r3, #16384
 4470 0016 3B65     		str	r3, [r7, #80]
1506:Drivers/VL53L0X/core/src/vl53l0x_api_core.c **** 	const FixPoint1616_t cSigmaEstRef	= 0x00000042; /* 0.001 */
 4471              		.loc 1 1506 23
 4472 0018 4223     		movs	r3, #66
 4473 001a FB64     		str	r3, [r7, #76]
1507:Drivers/VL53L0X/core/src/vl53l0x_api_core.c **** 	const uint32_t cAmbEffWidthSigmaEst_ns = 6;
 4474              		.loc 1 1507 17
 4475 001c 0623     		movs	r3, #6
 4476 001e BB64     		str	r3, [r7, #72]
1508:Drivers/VL53L0X/core/src/vl53l0x_api_core.c **** 	const uint32_t cAmbEffWidthDMax_ns	   = 7;
 4477              		.loc 1 1508 17
 4478 0020 0723     		movs	r3, #7
 4479 0022 7B64     		str	r3, [r7, #68]
1509:Drivers/VL53L0X/core/src/vl53l0x_api_core.c **** 	uint32_t dmaxCalRange_mm;
1510:Drivers/VL53L0X/core/src/vl53l0x_api_core.c **** 	FixPoint1616_t dmaxCalSignalRateRtn_mcps;
1511:Drivers/VL53L0X/core/src/vl53l0x_api_core.c **** 	FixPoint1616_t minSignalNeeded;
1512:Drivers/VL53L0X/core/src/vl53l0x_api_core.c **** 	FixPoint1616_t minSignalNeeded_p1;
1513:Drivers/VL53L0X/core/src/vl53l0x_api_core.c **** 	FixPoint1616_t minSignalNeeded_p2;
1514:Drivers/VL53L0X/core/src/vl53l0x_api_core.c **** 	FixPoint1616_t minSignalNeeded_p3;
1515:Drivers/VL53L0X/core/src/vl53l0x_api_core.c **** 	FixPoint1616_t minSignalNeeded_p4;
1516:Drivers/VL53L0X/core/src/vl53l0x_api_core.c **** 	FixPoint1616_t sigmaLimitTmp;
1517:Drivers/VL53L0X/core/src/vl53l0x_api_core.c **** 	FixPoint1616_t sigmaEstSqTmp;
1518:Drivers/VL53L0X/core/src/vl53l0x_api_core.c **** 	FixPoint1616_t signalLimitTmp;
1519:Drivers/VL53L0X/core/src/vl53l0x_api_core.c **** 	FixPoint1616_t SignalAt0mm;
1520:Drivers/VL53L0X/core/src/vl53l0x_api_core.c **** 	FixPoint1616_t dmaxDark;
1521:Drivers/VL53L0X/core/src/vl53l0x_api_core.c **** 	FixPoint1616_t dmaxAmbient;
1522:Drivers/VL53L0X/core/src/vl53l0x_api_core.c **** 	FixPoint1616_t dmaxDarkTmp;
1523:Drivers/VL53L0X/core/src/vl53l0x_api_core.c **** 	FixPoint1616_t sigmaEstP2Tmp;
1524:Drivers/VL53L0X/core/src/vl53l0x_api_core.c **** 	uint32_t signalRateTemp_mcps;
1525:Drivers/VL53L0X/core/src/vl53l0x_api_core.c **** 
1526:Drivers/VL53L0X/core/src/vl53l0x_api_core.c **** 	VL53L0X_Error Status = VL53L0X_ERROR_NONE;
 4480              		.loc 1 1526 16
 4481 0024 0023     		movs	r3, #0
 4482 0026 87F84330 		strb	r3, [r7, #67]
1527:Drivers/VL53L0X/core/src/vl53l0x_api_core.c **** 
1528:Drivers/VL53L0X/core/src/vl53l0x_api_core.c **** 	LOG_FUNCTION_START("");
1529:Drivers/VL53L0X/core/src/vl53l0x_api_core.c **** 
1530:Drivers/VL53L0X/core/src/vl53l0x_api_core.c **** 	dmaxCalRange_mm =
1531:Drivers/VL53L0X/core/src/vl53l0x_api_core.c **** 		PALDevDataGet(Dev, DmaxCalRangeMilliMeter);
 4483              		.loc 1 1531 3
 4484 002a FB68     		ldr	r3, [r7, #12]
 4485 002c B3F85431 		ldrh	r3, [r3, #340]
1530:Drivers/VL53L0X/core/src/vl53l0x_api_core.c **** 		PALDevDataGet(Dev, DmaxCalRangeMilliMeter);
 4486              		.loc 1 1530 18
 4487 0030 FB63     		str	r3, [r7, #60]
1532:Drivers/VL53L0X/core/src/vl53l0x_api_core.c **** 
1533:Drivers/VL53L0X/core/src/vl53l0x_api_core.c **** 	dmaxCalSignalRateRtn_mcps =
 4488              		.loc 1 1533 28
 4489 0032 FB68     		ldr	r3, [r7, #12]
 4490 0034 D3F85831 		ldr	r3, [r3, #344]
 4491 0038 BB63     		str	r3, [r7, #56]
ARM GAS  C:\Users\Morroway\AppData\Local\Temp\ccKjJYc2.s 			page 107


1534:Drivers/VL53L0X/core/src/vl53l0x_api_core.c **** 		PALDevDataGet(Dev, DmaxCalSignalRateRtnMegaCps);
1535:Drivers/VL53L0X/core/src/vl53l0x_api_core.c **** 
1536:Drivers/VL53L0X/core/src/vl53l0x_api_core.c **** 	/* uint32 * FixPoint1616 = FixPoint1616 */
1537:Drivers/VL53L0X/core/src/vl53l0x_api_core.c **** 	SignalAt0mm = dmaxCalRange_mm * dmaxCalSignalRateRtn_mcps;
 4492              		.loc 1 1537 14
 4493 003a FB6B     		ldr	r3, [r7, #60]
 4494 003c BA6B     		ldr	r2, [r7, #56]
 4495 003e 02FB03F3 		mul	r3, r2, r3
 4496 0042 7B63     		str	r3, [r7, #52]
1538:Drivers/VL53L0X/core/src/vl53l0x_api_core.c **** 
1539:Drivers/VL53L0X/core/src/vl53l0x_api_core.c **** 	/* FixPoint1616 >> 8 = FixPoint2408 */
1540:Drivers/VL53L0X/core/src/vl53l0x_api_core.c **** 	SignalAt0mm = (SignalAt0mm + 0x80) >> 8;
 4497              		.loc 1 1540 29
 4498 0044 7B6B     		ldr	r3, [r7, #52]
 4499 0046 8033     		adds	r3, r3, #128
 4500              		.loc 1 1540 14
 4501 0048 1B0A     		lsrs	r3, r3, #8
 4502 004a 7B63     		str	r3, [r7, #52]
1541:Drivers/VL53L0X/core/src/vl53l0x_api_core.c **** 	SignalAt0mm *= dmaxCalRange_mm;
 4503              		.loc 1 1541 14
 4504 004c 7B6B     		ldr	r3, [r7, #52]
 4505 004e FA6B     		ldr	r2, [r7, #60]
 4506 0050 02FB03F3 		mul	r3, r2, r3
 4507 0054 7B63     		str	r3, [r7, #52]
1542:Drivers/VL53L0X/core/src/vl53l0x_api_core.c **** 
1543:Drivers/VL53L0X/core/src/vl53l0x_api_core.c **** 	minSignalNeeded_p1 = 0;
 4508              		.loc 1 1543 21
 4509 0056 0023     		movs	r3, #0
 4510 0058 7B66     		str	r3, [r7, #100]
1544:Drivers/VL53L0X/core/src/vl53l0x_api_core.c **** 	if (totalCorrSignalRate_mcps > 0) {
 4511              		.loc 1 1544 5
 4512 005a 7B68     		ldr	r3, [r7, #4]
 4513 005c 002B     		cmp	r3, #0
 4514 005e 1AD0     		beq	.L182
1545:Drivers/VL53L0X/core/src/vl53l0x_api_core.c **** 
1546:Drivers/VL53L0X/core/src/vl53l0x_api_core.c **** 		/* Shift by 10 bits to increase resolution prior to the
1547:Drivers/VL53L0X/core/src/vl53l0x_api_core.c **** 		 * division */
1548:Drivers/VL53L0X/core/src/vl53l0x_api_core.c **** 		signalRateTemp_mcps = totalSignalRate_mcps << 10;
 4515              		.loc 1 1548 23
 4516 0060 BB68     		ldr	r3, [r7, #8]
 4517 0062 9B02     		lsls	r3, r3, #10
 4518 0064 3B63     		str	r3, [r7, #48]
1549:Drivers/VL53L0X/core/src/vl53l0x_api_core.c **** 
1550:Drivers/VL53L0X/core/src/vl53l0x_api_core.c **** 		/* Add rounding value prior to division */
1551:Drivers/VL53L0X/core/src/vl53l0x_api_core.c **** 		minSignalNeeded_p1 = signalRateTemp_mcps +
1552:Drivers/VL53L0X/core/src/vl53l0x_api_core.c **** 			(totalCorrSignalRate_mcps/2);
 4519              		.loc 1 1552 29
 4520 0066 7B68     		ldr	r3, [r7, #4]
 4521 0068 5B08     		lsrs	r3, r3, #1
1551:Drivers/VL53L0X/core/src/vl53l0x_api_core.c **** 			(totalCorrSignalRate_mcps/2);
 4522              		.loc 1 1551 22
 4523 006a 3A6B     		ldr	r2, [r7, #48]
 4524 006c 1344     		add	r3, r3, r2
 4525 006e 7B66     		str	r3, [r7, #100]
1553:Drivers/VL53L0X/core/src/vl53l0x_api_core.c **** 
1554:Drivers/VL53L0X/core/src/vl53l0x_api_core.c **** 		/* FixPoint0626/FixPoint1616 = FixPoint2210 */
1555:Drivers/VL53L0X/core/src/vl53l0x_api_core.c **** 		minSignalNeeded_p1 /= totalCorrSignalRate_mcps;
ARM GAS  C:\Users\Morroway\AppData\Local\Temp\ccKjJYc2.s 			page 108


 4526              		.loc 1 1555 22
 4527 0070 7A6E     		ldr	r2, [r7, #100]
 4528 0072 7B68     		ldr	r3, [r7, #4]
 4529 0074 B2FBF3F3 		udiv	r3, r2, r3
 4530 0078 7B66     		str	r3, [r7, #100]
1556:Drivers/VL53L0X/core/src/vl53l0x_api_core.c **** 
1557:Drivers/VL53L0X/core/src/vl53l0x_api_core.c **** 		/* Apply a factored version of the speed of light.
1558:Drivers/VL53L0X/core/src/vl53l0x_api_core.c **** 		 Correction to be applied at the end */
1559:Drivers/VL53L0X/core/src/vl53l0x_api_core.c **** 		minSignalNeeded_p1 *= 3;
 4531              		.loc 1 1559 22
 4532 007a 7A6E     		ldr	r2, [r7, #100]
 4533 007c 1346     		mov	r3, r2
 4534 007e 5B00     		lsls	r3, r3, #1
 4535 0080 1344     		add	r3, r3, r2
 4536 0082 7B66     		str	r3, [r7, #100]
1560:Drivers/VL53L0X/core/src/vl53l0x_api_core.c **** 
1561:Drivers/VL53L0X/core/src/vl53l0x_api_core.c **** 		/* FixPoint2210 * FixPoint2210 = FixPoint1220 */
1562:Drivers/VL53L0X/core/src/vl53l0x_api_core.c **** 		minSignalNeeded_p1 *= minSignalNeeded_p1;
 4537              		.loc 1 1562 22
 4538 0084 7B6E     		ldr	r3, [r7, #100]
 4539 0086 03FB03F3 		mul	r3, r3, r3
 4540 008a 7B66     		str	r3, [r7, #100]
1563:Drivers/VL53L0X/core/src/vl53l0x_api_core.c **** 
1564:Drivers/VL53L0X/core/src/vl53l0x_api_core.c **** 		/* FixPoint1220 >> 16 = FixPoint2804 */
1565:Drivers/VL53L0X/core/src/vl53l0x_api_core.c **** 		minSignalNeeded_p1 = (minSignalNeeded_p1 + 0x8000) >> 16;
 4541              		.loc 1 1565 44
 4542 008c 7B6E     		ldr	r3, [r7, #100]
 4543 008e 03F50043 		add	r3, r3, #32768
 4544              		.loc 1 1565 22
 4545 0092 1B0C     		lsrs	r3, r3, #16
 4546 0094 7B66     		str	r3, [r7, #100]
 4547              	.L182:
1566:Drivers/VL53L0X/core/src/vl53l0x_api_core.c **** 	}
1567:Drivers/VL53L0X/core/src/vl53l0x_api_core.c **** 
1568:Drivers/VL53L0X/core/src/vl53l0x_api_core.c **** 	minSignalNeeded_p2 = pwMult * sigmaEstimateP1;
 4548              		.loc 1 1568 21
 4549 0096 3B68     		ldr	r3, [r7]
 4550 0098 3A6F     		ldr	r2, [r7, #112]
 4551 009a 02FB03F3 		mul	r3, r2, r3
 4552 009e FB62     		str	r3, [r7, #44]
1569:Drivers/VL53L0X/core/src/vl53l0x_api_core.c **** 
1570:Drivers/VL53L0X/core/src/vl53l0x_api_core.c **** 	/* FixPoint1616 >> 16 =	 uint32 */
1571:Drivers/VL53L0X/core/src/vl53l0x_api_core.c **** 	minSignalNeeded_p2 = (minSignalNeeded_p2 + 0x8000) >> 16;
 4553              		.loc 1 1571 43
 4554 00a0 FB6A     		ldr	r3, [r7, #44]
 4555 00a2 03F50043 		add	r3, r3, #32768
 4556              		.loc 1 1571 21
 4557 00a6 1B0C     		lsrs	r3, r3, #16
 4558 00a8 FB62     		str	r3, [r7, #44]
1572:Drivers/VL53L0X/core/src/vl53l0x_api_core.c **** 
1573:Drivers/VL53L0X/core/src/vl53l0x_api_core.c **** 	/* uint32 * uint32	=  uint32 */
1574:Drivers/VL53L0X/core/src/vl53l0x_api_core.c **** 	minSignalNeeded_p2 *= minSignalNeeded_p2;
 4559              		.loc 1 1574 21
 4560 00aa FB6A     		ldr	r3, [r7, #44]
 4561 00ac 03FB03F3 		mul	r3, r3, r3
 4562 00b0 FB62     		str	r3, [r7, #44]
1575:Drivers/VL53L0X/core/src/vl53l0x_api_core.c **** 
ARM GAS  C:\Users\Morroway\AppData\Local\Temp\ccKjJYc2.s 			page 109


1576:Drivers/VL53L0X/core/src/vl53l0x_api_core.c **** 	/* Check sigmaEstimateP2
1577:Drivers/VL53L0X/core/src/vl53l0x_api_core.c **** 	 * If this value is too high there is not enough signal rate
1578:Drivers/VL53L0X/core/src/vl53l0x_api_core.c **** 	 * to calculate dmax value so set a suitable value to ensure
1579:Drivers/VL53L0X/core/src/vl53l0x_api_core.c **** 	 * a very small dmax.
1580:Drivers/VL53L0X/core/src/vl53l0x_api_core.c **** 	 */
1581:Drivers/VL53L0X/core/src/vl53l0x_api_core.c **** 	sigmaEstP2Tmp = (sigmaEstimateP2 + 0x8000) >> 16;
 4563              		.loc 1 1581 35
 4564 00b2 7B6F     		ldr	r3, [r7, #116]
 4565 00b4 03F50043 		add	r3, r3, #32768
 4566              		.loc 1 1581 16
 4567 00b8 1B0C     		lsrs	r3, r3, #16
 4568 00ba BB62     		str	r3, [r7, #40]
1582:Drivers/VL53L0X/core/src/vl53l0x_api_core.c **** 	sigmaEstP2Tmp = (sigmaEstP2Tmp + cAmbEffWidthSigmaEst_ns/2)/
 4569              		.loc 1 1582 58
 4570 00bc BB6C     		ldr	r3, [r7, #72]
 4571 00be 5A08     		lsrs	r2, r3, #1
 4572              		.loc 1 1582 33
 4573 00c0 BB6A     		ldr	r3, [r7, #40]
 4574 00c2 1A44     		add	r2, r2, r3
 4575              		.loc 1 1582 16
 4576 00c4 BB6C     		ldr	r3, [r7, #72]
 4577 00c6 B2FBF3F3 		udiv	r3, r2, r3
 4578 00ca BB62     		str	r3, [r7, #40]
1583:Drivers/VL53L0X/core/src/vl53l0x_api_core.c **** 		cAmbEffWidthSigmaEst_ns;
1584:Drivers/VL53L0X/core/src/vl53l0x_api_core.c **** 	sigmaEstP2Tmp *= cAmbEffWidthDMax_ns;
 4579              		.loc 1 1584 16
 4580 00cc BB6A     		ldr	r3, [r7, #40]
 4581 00ce 7A6C     		ldr	r2, [r7, #68]
 4582 00d0 02FB03F3 		mul	r3, r2, r3
 4583 00d4 BB62     		str	r3, [r7, #40]
1585:Drivers/VL53L0X/core/src/vl53l0x_api_core.c **** 
1586:Drivers/VL53L0X/core/src/vl53l0x_api_core.c **** 	if (sigmaEstP2Tmp > 0xffff) {
 4584              		.loc 1 1586 5
 4585 00d6 BB6A     		ldr	r3, [r7, #40]
 4586 00d8 B3F5803F 		cmp	r3, #65536
 4587 00dc 02D3     		bcc	.L183
1587:Drivers/VL53L0X/core/src/vl53l0x_api_core.c **** 		minSignalNeeded_p3 = 0xfff00000;
 4588              		.loc 1 1587 22
 4589 00de 544B     		ldr	r3, .L191
 4590 00e0 3B66     		str	r3, [r7, #96]
 4591 00e2 15E0     		b	.L184
 4592              	.L183:
1588:Drivers/VL53L0X/core/src/vl53l0x_api_core.c **** 	} else {
1589:Drivers/VL53L0X/core/src/vl53l0x_api_core.c **** 
1590:Drivers/VL53L0X/core/src/vl53l0x_api_core.c **** 		/* DMAX uses a different ambient width from sigma, so apply
1591:Drivers/VL53L0X/core/src/vl53l0x_api_core.c **** 		 * correction.
1592:Drivers/VL53L0X/core/src/vl53l0x_api_core.c **** 		 * Perform division before multiplication to prevent overflow.
1593:Drivers/VL53L0X/core/src/vl53l0x_api_core.c **** 		 */
1594:Drivers/VL53L0X/core/src/vl53l0x_api_core.c **** 		sigmaEstimateP2 = (sigmaEstimateP2 + cAmbEffWidthSigmaEst_ns/2)/
 4593              		.loc 1 1594 63
 4594 00e4 BB6C     		ldr	r3, [r7, #72]
 4595 00e6 5A08     		lsrs	r2, r3, #1
 4596              		.loc 1 1594 38
 4597 00e8 7B6F     		ldr	r3, [r7, #116]
 4598 00ea 1A44     		add	r2, r2, r3
 4599              		.loc 1 1594 19
 4600 00ec BB6C     		ldr	r3, [r7, #72]
ARM GAS  C:\Users\Morroway\AppData\Local\Temp\ccKjJYc2.s 			page 110


 4601 00ee B2FBF3F3 		udiv	r3, r2, r3
 4602 00f2 7B67     		str	r3, [r7, #116]
1595:Drivers/VL53L0X/core/src/vl53l0x_api_core.c **** 			cAmbEffWidthSigmaEst_ns;
1596:Drivers/VL53L0X/core/src/vl53l0x_api_core.c **** 		sigmaEstimateP2 *= cAmbEffWidthDMax_ns;
 4603              		.loc 1 1596 19
 4604 00f4 7B6F     		ldr	r3, [r7, #116]
 4605 00f6 7A6C     		ldr	r2, [r7, #68]
 4606 00f8 02FB03F3 		mul	r3, r2, r3
 4607 00fc 7B67     		str	r3, [r7, #116]
1597:Drivers/VL53L0X/core/src/vl53l0x_api_core.c **** 
1598:Drivers/VL53L0X/core/src/vl53l0x_api_core.c **** 		/* FixPoint1616 >> 16 = uint32 */
1599:Drivers/VL53L0X/core/src/vl53l0x_api_core.c **** 		minSignalNeeded_p3 = (sigmaEstimateP2 + 0x8000) >> 16;
 4608              		.loc 1 1599 41
 4609 00fe 7B6F     		ldr	r3, [r7, #116]
 4610 0100 03F50043 		add	r3, r3, #32768
 4611              		.loc 1 1599 22
 4612 0104 1B0C     		lsrs	r3, r3, #16
 4613 0106 3B66     		str	r3, [r7, #96]
1600:Drivers/VL53L0X/core/src/vl53l0x_api_core.c **** 
1601:Drivers/VL53L0X/core/src/vl53l0x_api_core.c **** 		minSignalNeeded_p3 *= minSignalNeeded_p3;
 4614              		.loc 1 1601 22
 4615 0108 3B6E     		ldr	r3, [r7, #96]
 4616 010a 03FB03F3 		mul	r3, r3, r3
 4617 010e 3B66     		str	r3, [r7, #96]
 4618              	.L184:
1602:Drivers/VL53L0X/core/src/vl53l0x_api_core.c **** 
1603:Drivers/VL53L0X/core/src/vl53l0x_api_core.c **** 	}
1604:Drivers/VL53L0X/core/src/vl53l0x_api_core.c **** 
1605:Drivers/VL53L0X/core/src/vl53l0x_api_core.c **** 	/* FixPoint1814 / uint32 = FixPoint1814 */
1606:Drivers/VL53L0X/core/src/vl53l0x_api_core.c **** 	sigmaLimitTmp = ((cSigmaLimit << 14) + 500) / 1000;
 4619              		.loc 1 1606 32
 4620 0110 7B6D     		ldr	r3, [r7, #84]
 4621 0112 9B03     		lsls	r3, r3, #14
 4622              		.loc 1 1606 39
 4623 0114 03F5FA73 		add	r3, r3, #500
 4624              		.loc 1 1606 16
 4625 0118 464A     		ldr	r2, .L191+4
 4626 011a A2FB0323 		umull	r2, r3, r2, r3
 4627 011e 9B09     		lsrs	r3, r3, #6
 4628 0120 7B62     		str	r3, [r7, #36]
1607:Drivers/VL53L0X/core/src/vl53l0x_api_core.c **** 
1608:Drivers/VL53L0X/core/src/vl53l0x_api_core.c **** 	/* FixPoint1814 * FixPoint1814 = FixPoint3628 := FixPoint0428 */
1609:Drivers/VL53L0X/core/src/vl53l0x_api_core.c **** 	sigmaLimitTmp *= sigmaLimitTmp;
 4629              		.loc 1 1609 16
 4630 0122 7B6A     		ldr	r3, [r7, #36]
 4631 0124 03FB03F3 		mul	r3, r3, r3
 4632 0128 7B62     		str	r3, [r7, #36]
1610:Drivers/VL53L0X/core/src/vl53l0x_api_core.c **** 
1611:Drivers/VL53L0X/core/src/vl53l0x_api_core.c **** 	/* FixPoint1616 * FixPoint1616 = FixPoint3232 */
1612:Drivers/VL53L0X/core/src/vl53l0x_api_core.c **** 	sigmaEstSqTmp = cSigmaEstRef * cSigmaEstRef;
 4633              		.loc 1 1612 16
 4634 012a FB6C     		ldr	r3, [r7, #76]
 4635 012c 03FB03F3 		mul	r3, r3, r3
 4636 0130 3B62     		str	r3, [r7, #32]
1613:Drivers/VL53L0X/core/src/vl53l0x_api_core.c **** 
1614:Drivers/VL53L0X/core/src/vl53l0x_api_core.c **** 	/* FixPoint3232 >> 4 = FixPoint0428 */
1615:Drivers/VL53L0X/core/src/vl53l0x_api_core.c **** 	sigmaEstSqTmp = (sigmaEstSqTmp + 0x08) >> 4;
ARM GAS  C:\Users\Morroway\AppData\Local\Temp\ccKjJYc2.s 			page 111


 4637              		.loc 1 1615 33
 4638 0132 3B6A     		ldr	r3, [r7, #32]
 4639 0134 0833     		adds	r3, r3, #8
 4640              		.loc 1 1615 16
 4641 0136 1B09     		lsrs	r3, r3, #4
 4642 0138 3B62     		str	r3, [r7, #32]
1616:Drivers/VL53L0X/core/src/vl53l0x_api_core.c **** 
1617:Drivers/VL53L0X/core/src/vl53l0x_api_core.c **** 	/* FixPoint0428 - FixPoint0428	= FixPoint0428 */
1618:Drivers/VL53L0X/core/src/vl53l0x_api_core.c **** 	sigmaLimitTmp -=  sigmaEstSqTmp;
 4643              		.loc 1 1618 16
 4644 013a 7A6A     		ldr	r2, [r7, #36]
 4645 013c 3B6A     		ldr	r3, [r7, #32]
 4646 013e D31A     		subs	r3, r2, r3
 4647 0140 7B62     		str	r3, [r7, #36]
1619:Drivers/VL53L0X/core/src/vl53l0x_api_core.c **** 
1620:Drivers/VL53L0X/core/src/vl53l0x_api_core.c **** 	/* uint32_t * FixPoint0428 = FixPoint0428 */
1621:Drivers/VL53L0X/core/src/vl53l0x_api_core.c **** 	minSignalNeeded_p4 = 4 * 12 * sigmaLimitTmp;
 4648              		.loc 1 1621 21
 4649 0142 7A6A     		ldr	r2, [r7, #36]
 4650 0144 1346     		mov	r3, r2
 4651 0146 5B00     		lsls	r3, r3, #1
 4652 0148 1344     		add	r3, r3, r2
 4653 014a 1B01     		lsls	r3, r3, #4
 4654 014c FB61     		str	r3, [r7, #28]
1622:Drivers/VL53L0X/core/src/vl53l0x_api_core.c **** 
1623:Drivers/VL53L0X/core/src/vl53l0x_api_core.c **** 	/* FixPoint0428 >> 14 = FixPoint1814 */
1624:Drivers/VL53L0X/core/src/vl53l0x_api_core.c **** 	minSignalNeeded_p4 = (minSignalNeeded_p4 + 0x2000) >> 14;
 4655              		.loc 1 1624 43
 4656 014e FB69     		ldr	r3, [r7, #28]
 4657 0150 03F50053 		add	r3, r3, #8192
 4658              		.loc 1 1624 21
 4659 0154 9B0B     		lsrs	r3, r3, #14
 4660 0156 FB61     		str	r3, [r7, #28]
1625:Drivers/VL53L0X/core/src/vl53l0x_api_core.c **** 
1626:Drivers/VL53L0X/core/src/vl53l0x_api_core.c **** 	/* uint32 + uint32 = uint32 */
1627:Drivers/VL53L0X/core/src/vl53l0x_api_core.c **** 	minSignalNeeded = (minSignalNeeded_p2 + minSignalNeeded_p3);
 4661              		.loc 1 1627 18
 4662 0158 FA6A     		ldr	r2, [r7, #44]
 4663 015a 3B6E     		ldr	r3, [r7, #96]
 4664 015c 1344     		add	r3, r3, r2
 4665 015e BB61     		str	r3, [r7, #24]
1628:Drivers/VL53L0X/core/src/vl53l0x_api_core.c **** 
1629:Drivers/VL53L0X/core/src/vl53l0x_api_core.c **** 	/* uint32 / uint32 = uint32 */
1630:Drivers/VL53L0X/core/src/vl53l0x_api_core.c **** 	minSignalNeeded += (peakVcselDuration_us/2);
 4666              		.loc 1 1630 42
 4667 0160 BB6F     		ldr	r3, [r7, #120]
 4668 0162 5B08     		lsrs	r3, r3, #1
 4669              		.loc 1 1630 18
 4670 0164 BA69     		ldr	r2, [r7, #24]
 4671 0166 1344     		add	r3, r3, r2
 4672 0168 BB61     		str	r3, [r7, #24]
1631:Drivers/VL53L0X/core/src/vl53l0x_api_core.c **** 	minSignalNeeded /= peakVcselDuration_us;
 4673              		.loc 1 1631 18
 4674 016a BA69     		ldr	r2, [r7, #24]
 4675 016c BB6F     		ldr	r3, [r7, #120]
 4676 016e B2FBF3F3 		udiv	r3, r2, r3
 4677 0172 BB61     		str	r3, [r7, #24]
ARM GAS  C:\Users\Morroway\AppData\Local\Temp\ccKjJYc2.s 			page 112


1632:Drivers/VL53L0X/core/src/vl53l0x_api_core.c **** 
1633:Drivers/VL53L0X/core/src/vl53l0x_api_core.c **** 	/* uint32 << 14 = FixPoint1814 */
1634:Drivers/VL53L0X/core/src/vl53l0x_api_core.c **** 	minSignalNeeded <<= 14;
 4678              		.loc 1 1634 18
 4679 0174 BB69     		ldr	r3, [r7, #24]
 4680 0176 9B03     		lsls	r3, r3, #14
 4681 0178 BB61     		str	r3, [r7, #24]
1635:Drivers/VL53L0X/core/src/vl53l0x_api_core.c **** 
1636:Drivers/VL53L0X/core/src/vl53l0x_api_core.c **** 	/* FixPoint1814 / FixPoint1814 = uint32 */
1637:Drivers/VL53L0X/core/src/vl53l0x_api_core.c **** 	minSignalNeeded += (minSignalNeeded_p4/2);
 4682              		.loc 1 1637 40
 4683 017a FB69     		ldr	r3, [r7, #28]
 4684 017c 5B08     		lsrs	r3, r3, #1
 4685              		.loc 1 1637 18
 4686 017e BA69     		ldr	r2, [r7, #24]
 4687 0180 1344     		add	r3, r3, r2
 4688 0182 BB61     		str	r3, [r7, #24]
1638:Drivers/VL53L0X/core/src/vl53l0x_api_core.c **** 	minSignalNeeded /= minSignalNeeded_p4;
 4689              		.loc 1 1638 18
 4690 0184 BA69     		ldr	r2, [r7, #24]
 4691 0186 FB69     		ldr	r3, [r7, #28]
 4692 0188 B2FBF3F3 		udiv	r3, r2, r3
 4693 018c BB61     		str	r3, [r7, #24]
1639:Drivers/VL53L0X/core/src/vl53l0x_api_core.c **** 
1640:Drivers/VL53L0X/core/src/vl53l0x_api_core.c **** 	/* FixPoint3200 * FixPoint2804 := FixPoint2804*/
1641:Drivers/VL53L0X/core/src/vl53l0x_api_core.c **** 	minSignalNeeded *= minSignalNeeded_p1;
 4694              		.loc 1 1641 18
 4695 018e BB69     		ldr	r3, [r7, #24]
 4696 0190 7A6E     		ldr	r2, [r7, #100]
 4697 0192 02FB03F3 		mul	r3, r2, r3
 4698 0196 BB61     		str	r3, [r7, #24]
1642:Drivers/VL53L0X/core/src/vl53l0x_api_core.c **** 
1643:Drivers/VL53L0X/core/src/vl53l0x_api_core.c **** 	/* Apply correction by dividing by 1000000.
1644:Drivers/VL53L0X/core/src/vl53l0x_api_core.c **** 	 * This assumes 10E16 on the numerator of the equation
1645:Drivers/VL53L0X/core/src/vl53l0x_api_core.c **** 	 * and 10E-22 on the denominator.
1646:Drivers/VL53L0X/core/src/vl53l0x_api_core.c **** 	 * We do this because 32bit fix point calculation can't
1647:Drivers/VL53L0X/core/src/vl53l0x_api_core.c **** 	 * handle the larger and smaller elements of this equation,
1648:Drivers/VL53L0X/core/src/vl53l0x_api_core.c **** 	 * i.e. speed of light and pulse widths.
1649:Drivers/VL53L0X/core/src/vl53l0x_api_core.c **** 	 */
1650:Drivers/VL53L0X/core/src/vl53l0x_api_core.c **** 	minSignalNeeded = (minSignalNeeded + 500) / 1000;
 4699              		.loc 1 1650 37
 4700 0198 BB69     		ldr	r3, [r7, #24]
 4701 019a 03F5FA73 		add	r3, r3, #500
 4702              		.loc 1 1650 18
 4703 019e 254A     		ldr	r2, .L191+4
 4704 01a0 A2FB0323 		umull	r2, r3, r2, r3
 4705 01a4 9B09     		lsrs	r3, r3, #6
 4706 01a6 BB61     		str	r3, [r7, #24]
1651:Drivers/VL53L0X/core/src/vl53l0x_api_core.c **** 	minSignalNeeded <<= 4;
 4707              		.loc 1 1651 18
 4708 01a8 BB69     		ldr	r3, [r7, #24]
 4709 01aa 1B01     		lsls	r3, r3, #4
 4710 01ac BB61     		str	r3, [r7, #24]
1652:Drivers/VL53L0X/core/src/vl53l0x_api_core.c **** 
1653:Drivers/VL53L0X/core/src/vl53l0x_api_core.c **** 	minSignalNeeded = (minSignalNeeded + 500) / 1000;
 4711              		.loc 1 1653 37
 4712 01ae BB69     		ldr	r3, [r7, #24]
ARM GAS  C:\Users\Morroway\AppData\Local\Temp\ccKjJYc2.s 			page 113


 4713 01b0 03F5FA73 		add	r3, r3, #500
 4714              		.loc 1 1653 18
 4715 01b4 1F4A     		ldr	r2, .L191+4
 4716 01b6 A2FB0323 		umull	r2, r3, r2, r3
 4717 01ba 9B09     		lsrs	r3, r3, #6
 4718 01bc BB61     		str	r3, [r7, #24]
1654:Drivers/VL53L0X/core/src/vl53l0x_api_core.c **** 
1655:Drivers/VL53L0X/core/src/vl53l0x_api_core.c **** 	/* FixPoint1616 >> 8 = FixPoint2408 */
1656:Drivers/VL53L0X/core/src/vl53l0x_api_core.c **** 	signalLimitTmp = (cSignalLimit + 0x80) >> 8;
 4719              		.loc 1 1656 33
 4720 01be 3B6D     		ldr	r3, [r7, #80]
 4721 01c0 8033     		adds	r3, r3, #128
 4722              		.loc 1 1656 17
 4723 01c2 1B0A     		lsrs	r3, r3, #8
 4724 01c4 7B61     		str	r3, [r7, #20]
1657:Drivers/VL53L0X/core/src/vl53l0x_api_core.c **** 
1658:Drivers/VL53L0X/core/src/vl53l0x_api_core.c **** 	/* FixPoint2408/FixPoint2408 = uint32 */
1659:Drivers/VL53L0X/core/src/vl53l0x_api_core.c **** 	if (signalLimitTmp != 0)
 4725              		.loc 1 1659 5
 4726 01c6 7B69     		ldr	r3, [r7, #20]
 4727 01c8 002B     		cmp	r3, #0
 4728 01ca 08D0     		beq	.L185
1660:Drivers/VL53L0X/core/src/vl53l0x_api_core.c **** 		dmaxDarkTmp = (SignalAt0mm + (signalLimitTmp / 2))
 4729              		.loc 1 1660 48
 4730 01cc 7B69     		ldr	r3, [r7, #20]
 4731 01ce 5A08     		lsrs	r2, r3, #1
 4732              		.loc 1 1660 30
 4733 01d0 7B6B     		ldr	r3, [r7, #52]
 4734 01d2 1A44     		add	r2, r2, r3
 4735              		.loc 1 1660 15
 4736 01d4 7B69     		ldr	r3, [r7, #20]
 4737 01d6 B2FBF3F3 		udiv	r3, r2, r3
 4738 01da BB65     		str	r3, [r7, #88]
 4739 01dc 01E0     		b	.L186
 4740              	.L185:
1661:Drivers/VL53L0X/core/src/vl53l0x_api_core.c **** 			/ signalLimitTmp;
1662:Drivers/VL53L0X/core/src/vl53l0x_api_core.c **** 	else
1663:Drivers/VL53L0X/core/src/vl53l0x_api_core.c **** 		dmaxDarkTmp = 0;
 4741              		.loc 1 1663 15
 4742 01de 0023     		movs	r3, #0
 4743 01e0 BB65     		str	r3, [r7, #88]
 4744              	.L186:
1664:Drivers/VL53L0X/core/src/vl53l0x_api_core.c **** 
1665:Drivers/VL53L0X/core/src/vl53l0x_api_core.c **** 	dmaxDark = VL53L0X_isqrt(dmaxDarkTmp);
 4745              		.loc 1 1665 13
 4746 01e2 B86D     		ldr	r0, [r7, #88]
 4747 01e4 FFF7FEFF 		bl	VL53L0X_isqrt
 4748 01e8 3861     		str	r0, [r7, #16]
1666:Drivers/VL53L0X/core/src/vl53l0x_api_core.c **** 
1667:Drivers/VL53L0X/core/src/vl53l0x_api_core.c **** 	/* FixPoint2408/FixPoint2408 = uint32 */
1668:Drivers/VL53L0X/core/src/vl53l0x_api_core.c **** 	if (minSignalNeeded != 0)
 4749              		.loc 1 1668 5
 4750 01ea BB69     		ldr	r3, [r7, #24]
 4751 01ec 002B     		cmp	r3, #0
 4752 01ee 08D0     		beq	.L187
1669:Drivers/VL53L0X/core/src/vl53l0x_api_core.c **** 		dmaxAmbient = (SignalAt0mm + minSignalNeeded/2)
 4753              		.loc 1 1669 47
ARM GAS  C:\Users\Morroway\AppData\Local\Temp\ccKjJYc2.s 			page 114


 4754 01f0 BB69     		ldr	r3, [r7, #24]
 4755 01f2 5A08     		lsrs	r2, r3, #1
 4756              		.loc 1 1669 30
 4757 01f4 7B6B     		ldr	r3, [r7, #52]
 4758 01f6 1A44     		add	r2, r2, r3
 4759              		.loc 1 1669 15
 4760 01f8 BB69     		ldr	r3, [r7, #24]
 4761 01fa B2FBF3F3 		udiv	r3, r2, r3
 4762 01fe FB65     		str	r3, [r7, #92]
 4763 0200 01E0     		b	.L188
 4764              	.L187:
1670:Drivers/VL53L0X/core/src/vl53l0x_api_core.c **** 			/ minSignalNeeded;
1671:Drivers/VL53L0X/core/src/vl53l0x_api_core.c **** 	else
1672:Drivers/VL53L0X/core/src/vl53l0x_api_core.c **** 		dmaxAmbient = 0;
 4765              		.loc 1 1672 15
 4766 0202 0023     		movs	r3, #0
 4767 0204 FB65     		str	r3, [r7, #92]
 4768              	.L188:
1673:Drivers/VL53L0X/core/src/vl53l0x_api_core.c **** 
1674:Drivers/VL53L0X/core/src/vl53l0x_api_core.c **** 	dmaxAmbient = VL53L0X_isqrt(dmaxAmbient);
 4769              		.loc 1 1674 16
 4770 0206 F86D     		ldr	r0, [r7, #92]
 4771 0208 FFF7FEFF 		bl	VL53L0X_isqrt
 4772 020c F865     		str	r0, [r7, #92]
1675:Drivers/VL53L0X/core/src/vl53l0x_api_core.c **** 
1676:Drivers/VL53L0X/core/src/vl53l0x_api_core.c **** 	*pdmax_mm = dmaxDark;
 4773              		.loc 1 1676 12
 4774 020e FB6F     		ldr	r3, [r7, #124]
 4775 0210 3A69     		ldr	r2, [r7, #16]
 4776 0212 1A60     		str	r2, [r3]
1677:Drivers/VL53L0X/core/src/vl53l0x_api_core.c **** 	if (dmaxDark > dmaxAmbient)
 4777              		.loc 1 1677 5
 4778 0214 3A69     		ldr	r2, [r7, #16]
 4779 0216 FB6D     		ldr	r3, [r7, #92]
 4780 0218 9A42     		cmp	r2, r3
 4781 021a 02D9     		bls	.L189
1678:Drivers/VL53L0X/core/src/vl53l0x_api_core.c **** 		*pdmax_mm = dmaxAmbient;
 4782              		.loc 1 1678 13
 4783 021c FB6F     		ldr	r3, [r7, #124]
 4784 021e FA6D     		ldr	r2, [r7, #92]
 4785 0220 1A60     		str	r2, [r3]
 4786              	.L189:
1679:Drivers/VL53L0X/core/src/vl53l0x_api_core.c **** 
1680:Drivers/VL53L0X/core/src/vl53l0x_api_core.c **** 	LOG_FUNCTION_END(Status);
1681:Drivers/VL53L0X/core/src/vl53l0x_api_core.c **** 
1682:Drivers/VL53L0X/core/src/vl53l0x_api_core.c **** 	return Status;
 4787              		.loc 1 1682 9
 4788 0222 97F94330 		ldrsb	r3, [r7, #67]
1683:Drivers/VL53L0X/core/src/vl53l0x_api_core.c **** }
 4789              		.loc 1 1683 1
 4790 0226 1846     		mov	r0, r3
 4791 0228 6837     		adds	r7, r7, #104
 4792              		.cfi_def_cfa_offset 8
 4793 022a BD46     		mov	sp, r7
 4794              		.cfi_def_cfa_register 13
 4795              		@ sp needed
 4796 022c 80BD     		pop	{r7, pc}
ARM GAS  C:\Users\Morroway\AppData\Local\Temp\ccKjJYc2.s 			page 115


 4797              	.L192:
 4798 022e 00BF     		.align	2
 4799              	.L191:
 4800 0230 0000F0FF 		.word	-1048576
 4801 0234 D34D6210 		.word	274877907
 4802              		.cfi_endproc
 4803              	.LFE346:
 4805              		.section	.text.VL53L0X_calc_sigma_estimate,"ax",%progbits
 4806              		.align	1
 4807              		.global	VL53L0X_calc_sigma_estimate
 4808              		.syntax unified
 4809              		.thumb
 4810              		.thumb_func
 4812              	VL53L0X_calc_sigma_estimate:
 4813              	.LFB347:
1684:Drivers/VL53L0X/core/src/vl53l0x_api_core.c **** 
1685:Drivers/VL53L0X/core/src/vl53l0x_api_core.c **** 
1686:Drivers/VL53L0X/core/src/vl53l0x_api_core.c **** VL53L0X_Error VL53L0X_calc_sigma_estimate(VL53L0X_DEV Dev,
1687:Drivers/VL53L0X/core/src/vl53l0x_api_core.c **** 	VL53L0X_RangingMeasurementData_t *pRangingMeasurementData,
1688:Drivers/VL53L0X/core/src/vl53l0x_api_core.c **** 	FixPoint1616_t *pSigmaEstimate,
1689:Drivers/VL53L0X/core/src/vl53l0x_api_core.c **** 	uint32_t *pDmax_mm)
1690:Drivers/VL53L0X/core/src/vl53l0x_api_core.c **** {
 4814              		.loc 1 1690 1
 4815              		.cfi_startproc
 4816              		@ args = 0, pretend = 0, frame = 192
 4817              		@ frame_needed = 1, uses_anonymous_args = 0
 4818 0000 80B5     		push	{r7, lr}
 4819              		.cfi_def_cfa_offset 8
 4820              		.cfi_offset 7, -8
 4821              		.cfi_offset 14, -4
 4822 0002 B4B0     		sub	sp, sp, #208
 4823              		.cfi_def_cfa_offset 216
 4824 0004 04AF     		add	r7, sp, #16
 4825              		.cfi_def_cfa 7, 200
 4826 0006 F860     		str	r0, [r7, #12]
 4827 0008 B960     		str	r1, [r7, #8]
 4828 000a 7A60     		str	r2, [r7, #4]
 4829 000c 3B60     		str	r3, [r7]
1691:Drivers/VL53L0X/core/src/vl53l0x_api_core.c **** 	/* Expressed in 100ths of a ns, i.e. centi-ns */
1692:Drivers/VL53L0X/core/src/vl53l0x_api_core.c **** 	const uint32_t cPulseEffectiveWidth_centi_ns   = 800;
 4830              		.loc 1 1692 17
 4831 000e 4FF44873 		mov	r3, #800
 4832 0012 C7F89030 		str	r3, [r7, #144]
1693:Drivers/VL53L0X/core/src/vl53l0x_api_core.c **** 	/* Expressed in 100ths of a ns, i.e. centi-ns */
1694:Drivers/VL53L0X/core/src/vl53l0x_api_core.c **** 	const uint32_t cAmbientEffectiveWidth_centi_ns = 600;
 4833              		.loc 1 1694 17
 4834 0016 4FF41673 		mov	r3, #600
 4835 001a C7F88C30 		str	r3, [r7, #140]
1695:Drivers/VL53L0X/core/src/vl53l0x_api_core.c **** 	const FixPoint1616_t cDfltFinalRangeIntegrationTimeMilliSecs	= 0x00190000; /* 25ms */
 4836              		.loc 1 1695 23
 4837 001e 4FF4C813 		mov	r3, #1638400
 4838 0022 C7F88830 		str	r3, [r7, #136]
1696:Drivers/VL53L0X/core/src/vl53l0x_api_core.c **** 	const uint32_t cVcselPulseWidth_ps	= 4700; /* pico secs */
 4839              		.loc 1 1696 17
 4840 0026 41F25C23 		movw	r3, #4700
 4841 002a C7F88430 		str	r3, [r7, #132]
1697:Drivers/VL53L0X/core/src/vl53l0x_api_core.c **** 	const FixPoint1616_t cSigmaEstMax	= 0x028F87AE;
ARM GAS  C:\Users\Morroway\AppData\Local\Temp\ccKjJYc2.s 			page 116


 4842              		.loc 1 1697 23
 4843 002e 9E4B     		ldr	r3, .L209
 4844 0030 C7F88030 		str	r3, [r7, #128]
1698:Drivers/VL53L0X/core/src/vl53l0x_api_core.c **** 	const FixPoint1616_t cSigmaEstRtnMax	= 0xF000;
 4845              		.loc 1 1698 23
 4846 0034 4FF47043 		mov	r3, #61440
 4847 0038 FB67     		str	r3, [r7, #124]
1699:Drivers/VL53L0X/core/src/vl53l0x_api_core.c **** 	const FixPoint1616_t cAmbToSignalRatioMax = 0xF0000000/
 4848              		.loc 1 1699 23
 4849 003a 4FF07042 		mov	r2, #-268435456
 4850 003e D7F88C30 		ldr	r3, [r7, #140]
 4851 0042 B2FBF3F3 		udiv	r3, r2, r3
 4852 0046 BB67     		str	r3, [r7, #120]
1700:Drivers/VL53L0X/core/src/vl53l0x_api_core.c **** 		cAmbientEffectiveWidth_centi_ns;
1701:Drivers/VL53L0X/core/src/vl53l0x_api_core.c **** 	/* Time Of Flight per mm (6.6 pico secs) */
1702:Drivers/VL53L0X/core/src/vl53l0x_api_core.c **** 	const FixPoint1616_t cTOF_per_mm_ps		= 0x0006999A;
 4853              		.loc 1 1702 23
 4854 0048 984B     		ldr	r3, .L209+4
 4855 004a 7B67     		str	r3, [r7, #116]
1703:Drivers/VL53L0X/core/src/vl53l0x_api_core.c **** 	const uint32_t c16BitRoundingParam		= 0x00008000;
 4856              		.loc 1 1703 17
 4857 004c 4FF40043 		mov	r3, #32768
 4858 0050 3B67     		str	r3, [r7, #112]
1704:Drivers/VL53L0X/core/src/vl53l0x_api_core.c **** 	const FixPoint1616_t cMaxXTalk_kcps		= 0x00320000;
 4859              		.loc 1 1704 23
 4860 0052 4FF44813 		mov	r3, #3276800
 4861 0056 FB66     		str	r3, [r7, #108]
1705:Drivers/VL53L0X/core/src/vl53l0x_api_core.c **** 	const uint32_t cPllPeriod_ps			= 1655;
 4862              		.loc 1 1705 17
 4863 0058 40F27763 		movw	r3, #1655
 4864 005c BB66     		str	r3, [r7, #104]
1706:Drivers/VL53L0X/core/src/vl53l0x_api_core.c **** 
1707:Drivers/VL53L0X/core/src/vl53l0x_api_core.c **** 	uint32_t vcselTotalEventsRtn;
1708:Drivers/VL53L0X/core/src/vl53l0x_api_core.c **** 	uint32_t finalRangeTimeoutMicroSecs;
1709:Drivers/VL53L0X/core/src/vl53l0x_api_core.c **** 	uint32_t preRangeTimeoutMicroSecs;
1710:Drivers/VL53L0X/core/src/vl53l0x_api_core.c **** 	uint32_t finalRangeIntegrationTimeMilliSecs;
1711:Drivers/VL53L0X/core/src/vl53l0x_api_core.c **** 	FixPoint1616_t sigmaEstimateP1;
1712:Drivers/VL53L0X/core/src/vl53l0x_api_core.c **** 	FixPoint1616_t sigmaEstimateP2;
1713:Drivers/VL53L0X/core/src/vl53l0x_api_core.c **** 	FixPoint1616_t sigmaEstimateP3;
1714:Drivers/VL53L0X/core/src/vl53l0x_api_core.c **** 	FixPoint1616_t deltaT_ps;
1715:Drivers/VL53L0X/core/src/vl53l0x_api_core.c **** 	FixPoint1616_t pwMult;
1716:Drivers/VL53L0X/core/src/vl53l0x_api_core.c **** 	FixPoint1616_t sigmaEstRtn;
1717:Drivers/VL53L0X/core/src/vl53l0x_api_core.c **** 	FixPoint1616_t sigmaEstimate;
1718:Drivers/VL53L0X/core/src/vl53l0x_api_core.c **** 	FixPoint1616_t xTalkCorrection;
1719:Drivers/VL53L0X/core/src/vl53l0x_api_core.c **** 	FixPoint1616_t ambientRate_kcps;
1720:Drivers/VL53L0X/core/src/vl53l0x_api_core.c **** 	FixPoint1616_t peakSignalRate_kcps;
1721:Drivers/VL53L0X/core/src/vl53l0x_api_core.c **** 	FixPoint1616_t xTalkCompRate_mcps;
1722:Drivers/VL53L0X/core/src/vl53l0x_api_core.c **** 	uint32_t xTalkCompRate_kcps;
1723:Drivers/VL53L0X/core/src/vl53l0x_api_core.c **** 	VL53L0X_Error Status = VL53L0X_ERROR_NONE;
 4865              		.loc 1 1723 16
 4866 005e 0023     		movs	r3, #0
 4867 0060 87F89F30 		strb	r3, [r7, #159]
1724:Drivers/VL53L0X/core/src/vl53l0x_api_core.c **** 	FixPoint1616_t diff1_mcps;
1725:Drivers/VL53L0X/core/src/vl53l0x_api_core.c **** 	FixPoint1616_t diff2_mcps;
1726:Drivers/VL53L0X/core/src/vl53l0x_api_core.c **** 	FixPoint1616_t sqr1;
1727:Drivers/VL53L0X/core/src/vl53l0x_api_core.c **** 	FixPoint1616_t sqr2;
1728:Drivers/VL53L0X/core/src/vl53l0x_api_core.c **** 	FixPoint1616_t sqrSum;
ARM GAS  C:\Users\Morroway\AppData\Local\Temp\ccKjJYc2.s 			page 117


1729:Drivers/VL53L0X/core/src/vl53l0x_api_core.c **** 	FixPoint1616_t sqrtResult_centi_ns;
1730:Drivers/VL53L0X/core/src/vl53l0x_api_core.c **** 	FixPoint1616_t sqrtResult;
1731:Drivers/VL53L0X/core/src/vl53l0x_api_core.c **** 	FixPoint1616_t totalSignalRate_mcps;
1732:Drivers/VL53L0X/core/src/vl53l0x_api_core.c **** 	FixPoint1616_t correctedSignalRate_mcps;
1733:Drivers/VL53L0X/core/src/vl53l0x_api_core.c **** 	FixPoint1616_t sigmaEstRef;
1734:Drivers/VL53L0X/core/src/vl53l0x_api_core.c **** 	uint32_t vcselWidth;
1735:Drivers/VL53L0X/core/src/vl53l0x_api_core.c **** 	uint32_t finalRangeMacroPCLKS;
1736:Drivers/VL53L0X/core/src/vl53l0x_api_core.c **** 	uint32_t preRangeMacroPCLKS;
1737:Drivers/VL53L0X/core/src/vl53l0x_api_core.c **** 	uint32_t peakVcselDuration_us;
1738:Drivers/VL53L0X/core/src/vl53l0x_api_core.c **** 	uint8_t finalRangeVcselPCLKS;
1739:Drivers/VL53L0X/core/src/vl53l0x_api_core.c **** 	uint8_t preRangeVcselPCLKS;
1740:Drivers/VL53L0X/core/src/vl53l0x_api_core.c **** 	/*! \addtogroup calc_sigma_estimate
1741:Drivers/VL53L0X/core/src/vl53l0x_api_core.c **** 	 * @{
1742:Drivers/VL53L0X/core/src/vl53l0x_api_core.c **** 	 *
1743:Drivers/VL53L0X/core/src/vl53l0x_api_core.c **** 	 * Estimates the range sigma
1744:Drivers/VL53L0X/core/src/vl53l0x_api_core.c **** 	 */
1745:Drivers/VL53L0X/core/src/vl53l0x_api_core.c **** 
1746:Drivers/VL53L0X/core/src/vl53l0x_api_core.c **** 	LOG_FUNCTION_START("");
1747:Drivers/VL53L0X/core/src/vl53l0x_api_core.c **** 
1748:Drivers/VL53L0X/core/src/vl53l0x_api_core.c **** 	VL53L0X_GETPARAMETERFIELD(Dev, XTalkCompensationRateMegaCps,
 4868              		.loc 1 1748 2
 4869 0064 FB68     		ldr	r3, [r7, #12]
 4870 0066 1B6A     		ldr	r3, [r3, #32]
 4871 0068 7B61     		str	r3, [r7, #20]
1749:Drivers/VL53L0X/core/src/vl53l0x_api_core.c **** 			xTalkCompRate_mcps);
1750:Drivers/VL53L0X/core/src/vl53l0x_api_core.c **** 
1751:Drivers/VL53L0X/core/src/vl53l0x_api_core.c **** 	/*
1752:Drivers/VL53L0X/core/src/vl53l0x_api_core.c **** 	 * We work in kcps rather than mcps as this helps keep within the
1753:Drivers/VL53L0X/core/src/vl53l0x_api_core.c **** 	 * confines of the 32 Fix1616 type.
1754:Drivers/VL53L0X/core/src/vl53l0x_api_core.c **** 	 */
1755:Drivers/VL53L0X/core/src/vl53l0x_api_core.c **** 
1756:Drivers/VL53L0X/core/src/vl53l0x_api_core.c **** 	ambientRate_kcps =
1757:Drivers/VL53L0X/core/src/vl53l0x_api_core.c **** 		(pRangingMeasurementData->AmbientRateRtnMegaCps * 1000) >> 16;
 4872              		.loc 1 1757 27
 4873 006a BB68     		ldr	r3, [r7, #8]
 4874 006c 1B69     		ldr	r3, [r3, #16]
 4875              		.loc 1 1757 51
 4876 006e 4FF47A72 		mov	r2, #1000
 4877 0072 02FB03F3 		mul	r3, r2, r3
1756:Drivers/VL53L0X/core/src/vl53l0x_api_core.c **** 		(pRangingMeasurementData->AmbientRateRtnMegaCps * 1000) >> 16;
 4878              		.loc 1 1756 19
 4879 0076 1B0C     		lsrs	r3, r3, #16
 4880 0078 7B66     		str	r3, [r7, #100]
1758:Drivers/VL53L0X/core/src/vl53l0x_api_core.c **** 
1759:Drivers/VL53L0X/core/src/vl53l0x_api_core.c **** 	correctedSignalRate_mcps =
 4881              		.loc 1 1759 27
 4882 007a BB68     		ldr	r3, [r7, #8]
 4883 007c DB68     		ldr	r3, [r3, #12]
 4884 007e 3B66     		str	r3, [r7, #96]
1760:Drivers/VL53L0X/core/src/vl53l0x_api_core.c **** 		pRangingMeasurementData->SignalRateRtnMegaCps;
1761:Drivers/VL53L0X/core/src/vl53l0x_api_core.c **** 
1762:Drivers/VL53L0X/core/src/vl53l0x_api_core.c **** 
1763:Drivers/VL53L0X/core/src/vl53l0x_api_core.c **** 	Status = VL53L0X_get_total_signal_rate(
 4885              		.loc 1 1763 11
 4886 0080 07F11003 		add	r3, r7, #16
 4887 0084 1A46     		mov	r2, r3
 4888 0086 B968     		ldr	r1, [r7, #8]
ARM GAS  C:\Users\Morroway\AppData\Local\Temp\ccKjJYc2.s 			page 118


 4889 0088 F868     		ldr	r0, [r7, #12]
 4890 008a FFF7FEFF 		bl	VL53L0X_get_total_signal_rate
 4891 008e 0346     		mov	r3, r0
 4892 0090 87F89F30 		strb	r3, [r7, #159]
1764:Drivers/VL53L0X/core/src/vl53l0x_api_core.c **** 		Dev, pRangingMeasurementData, &totalSignalRate_mcps);
1765:Drivers/VL53L0X/core/src/vl53l0x_api_core.c **** 	Status = VL53L0X_get_total_xtalk_rate(
 4893              		.loc 1 1765 11
 4894 0094 07F11403 		add	r3, r7, #20
 4895 0098 1A46     		mov	r2, r3
 4896 009a B968     		ldr	r1, [r7, #8]
 4897 009c F868     		ldr	r0, [r7, #12]
 4898 009e FFF7FEFF 		bl	VL53L0X_get_total_xtalk_rate
 4899 00a2 0346     		mov	r3, r0
 4900 00a4 87F89F30 		strb	r3, [r7, #159]
1766:Drivers/VL53L0X/core/src/vl53l0x_api_core.c **** 		Dev, pRangingMeasurementData, &xTalkCompRate_mcps);
1767:Drivers/VL53L0X/core/src/vl53l0x_api_core.c **** 
1768:Drivers/VL53L0X/core/src/vl53l0x_api_core.c **** 
1769:Drivers/VL53L0X/core/src/vl53l0x_api_core.c **** 	/* Signal rate measurement provided by device is the
1770:Drivers/VL53L0X/core/src/vl53l0x_api_core.c **** 	 * peak signal rate, not average.
1771:Drivers/VL53L0X/core/src/vl53l0x_api_core.c **** 	 */
1772:Drivers/VL53L0X/core/src/vl53l0x_api_core.c **** 	peakSignalRate_kcps = (totalSignalRate_mcps * 1000);
 4901              		.loc 1 1772 46
 4902 00a8 3B69     		ldr	r3, [r7, #16]
 4903              		.loc 1 1772 22
 4904 00aa 4FF47A72 		mov	r2, #1000
 4905 00ae 02FB03F3 		mul	r3, r2, r3
 4906 00b2 FB65     		str	r3, [r7, #92]
1773:Drivers/VL53L0X/core/src/vl53l0x_api_core.c **** 	peakSignalRate_kcps = (peakSignalRate_kcps + 0x8000) >> 16;
 4907              		.loc 1 1773 45
 4908 00b4 FB6D     		ldr	r3, [r7, #92]
 4909 00b6 03F50043 		add	r3, r3, #32768
 4910              		.loc 1 1773 22
 4911 00ba 1B0C     		lsrs	r3, r3, #16
 4912 00bc FB65     		str	r3, [r7, #92]
1774:Drivers/VL53L0X/core/src/vl53l0x_api_core.c **** 
1775:Drivers/VL53L0X/core/src/vl53l0x_api_core.c **** 	xTalkCompRate_kcps = xTalkCompRate_mcps * 1000;
 4913              		.loc 1 1775 42
 4914 00be 7B69     		ldr	r3, [r7, #20]
 4915              		.loc 1 1775 21
 4916 00c0 4FF47A72 		mov	r2, #1000
 4917 00c4 02FB03F3 		mul	r3, r2, r3
 4918 00c8 C7F8A030 		str	r3, [r7, #160]
1776:Drivers/VL53L0X/core/src/vl53l0x_api_core.c **** 
1777:Drivers/VL53L0X/core/src/vl53l0x_api_core.c **** 	if (xTalkCompRate_kcps > cMaxXTalk_kcps)
 4919              		.loc 1 1777 5
 4920 00cc D7F8A020 		ldr	r2, [r7, #160]
 4921 00d0 FB6E     		ldr	r3, [r7, #108]
 4922 00d2 9A42     		cmp	r2, r3
 4923 00d4 02D9     		bls	.L194
1778:Drivers/VL53L0X/core/src/vl53l0x_api_core.c **** 		xTalkCompRate_kcps = cMaxXTalk_kcps;
 4924              		.loc 1 1778 22
 4925 00d6 FB6E     		ldr	r3, [r7, #108]
 4926 00d8 C7F8A030 		str	r3, [r7, #160]
 4927              	.L194:
1779:Drivers/VL53L0X/core/src/vl53l0x_api_core.c **** 
1780:Drivers/VL53L0X/core/src/vl53l0x_api_core.c **** 	if (Status == VL53L0X_ERROR_NONE) {
 4928              		.loc 1 1780 5
ARM GAS  C:\Users\Morroway\AppData\Local\Temp\ccKjJYc2.s 			page 119


 4929 00dc 97F99F30 		ldrsb	r3, [r7, #159]
 4930 00e0 002B     		cmp	r3, #0
 4931 00e2 68D1     		bne	.L195
1781:Drivers/VL53L0X/core/src/vl53l0x_api_core.c **** 
1782:Drivers/VL53L0X/core/src/vl53l0x_api_core.c **** 		/* Calculate final range macro periods */
1783:Drivers/VL53L0X/core/src/vl53l0x_api_core.c **** 		finalRangeTimeoutMicroSecs = VL53L0X_GETDEVICESPECIFICPARAMETER(
 4932              		.loc 1 1783 30
 4933 00e4 FB68     		ldr	r3, [r7, #12]
 4934 00e6 D3F8DC30 		ldr	r3, [r3, #220]
 4935 00ea C7F8B830 		str	r3, [r7, #184]
1784:Drivers/VL53L0X/core/src/vl53l0x_api_core.c **** 			Dev, FinalRangeTimeoutMicroSecs);
1785:Drivers/VL53L0X/core/src/vl53l0x_api_core.c **** 
1786:Drivers/VL53L0X/core/src/vl53l0x_api_core.c **** 		finalRangeVcselPCLKS = VL53L0X_GETDEVICESPECIFICPARAMETER(
 4936              		.loc 1 1786 24
 4937 00ee FB68     		ldr	r3, [r7, #12]
 4938 00f0 93F8E030 		ldrb	r3, [r3, #224]
 4939 00f4 87F85B30 		strb	r3, [r7, #91]
1787:Drivers/VL53L0X/core/src/vl53l0x_api_core.c **** 			Dev, FinalRangeVcselPulsePeriod);
1788:Drivers/VL53L0X/core/src/vl53l0x_api_core.c **** 
1789:Drivers/VL53L0X/core/src/vl53l0x_api_core.c **** 		finalRangeMacroPCLKS = VL53L0X_calc_timeout_mclks(
 4940              		.loc 1 1789 26
 4941 00f8 97F85B30 		ldrb	r3, [r7, #91]	@ zero_extendqisi2
 4942 00fc 1A46     		mov	r2, r3
 4943 00fe D7F8B810 		ldr	r1, [r7, #184]
 4944 0102 F868     		ldr	r0, [r7, #12]
 4945 0104 FFF7FEFF 		bl	VL53L0X_calc_timeout_mclks
 4946 0108 7865     		str	r0, [r7, #84]
1790:Drivers/VL53L0X/core/src/vl53l0x_api_core.c **** 			Dev, finalRangeTimeoutMicroSecs, finalRangeVcselPCLKS);
1791:Drivers/VL53L0X/core/src/vl53l0x_api_core.c **** 
1792:Drivers/VL53L0X/core/src/vl53l0x_api_core.c **** 		/* Calculate pre-range macro periods */
1793:Drivers/VL53L0X/core/src/vl53l0x_api_core.c **** 		preRangeTimeoutMicroSecs = VL53L0X_GETDEVICESPECIFICPARAMETER(
 4947              		.loc 1 1793 28
 4948 010a FB68     		ldr	r3, [r7, #12]
 4949 010c D3F8E430 		ldr	r3, [r3, #228]
 4950 0110 C7F8B430 		str	r3, [r7, #180]
1794:Drivers/VL53L0X/core/src/vl53l0x_api_core.c **** 			Dev, PreRangeTimeoutMicroSecs);
1795:Drivers/VL53L0X/core/src/vl53l0x_api_core.c **** 
1796:Drivers/VL53L0X/core/src/vl53l0x_api_core.c **** 		preRangeVcselPCLKS = VL53L0X_GETDEVICESPECIFICPARAMETER(
 4951              		.loc 1 1796 22
 4952 0114 FB68     		ldr	r3, [r7, #12]
 4953 0116 93F8E830 		ldrb	r3, [r3, #232]
 4954 011a 87F85330 		strb	r3, [r7, #83]
1797:Drivers/VL53L0X/core/src/vl53l0x_api_core.c **** 			Dev, PreRangeVcselPulsePeriod);
1798:Drivers/VL53L0X/core/src/vl53l0x_api_core.c **** 
1799:Drivers/VL53L0X/core/src/vl53l0x_api_core.c **** 		preRangeMacroPCLKS = VL53L0X_calc_timeout_mclks(
 4955              		.loc 1 1799 24
 4956 011e 97F85330 		ldrb	r3, [r7, #83]	@ zero_extendqisi2
 4957 0122 1A46     		mov	r2, r3
 4958 0124 D7F8B410 		ldr	r1, [r7, #180]
 4959 0128 F868     		ldr	r0, [r7, #12]
 4960 012a FFF7FEFF 		bl	VL53L0X_calc_timeout_mclks
 4961 012e F864     		str	r0, [r7, #76]
1800:Drivers/VL53L0X/core/src/vl53l0x_api_core.c **** 			Dev, preRangeTimeoutMicroSecs, preRangeVcselPCLKS);
1801:Drivers/VL53L0X/core/src/vl53l0x_api_core.c **** 
1802:Drivers/VL53L0X/core/src/vl53l0x_api_core.c **** 		vcselWidth = 3;
 4962              		.loc 1 1802 14
 4963 0130 0323     		movs	r3, #3
ARM GAS  C:\Users\Morroway\AppData\Local\Temp\ccKjJYc2.s 			page 120


 4964 0132 C7F89830 		str	r3, [r7, #152]
1803:Drivers/VL53L0X/core/src/vl53l0x_api_core.c **** 		if (finalRangeVcselPCLKS == 8)
 4965              		.loc 1 1803 6
 4966 0136 97F85B30 		ldrb	r3, [r7, #91]	@ zero_extendqisi2
 4967 013a 082B     		cmp	r3, #8
 4968 013c 02D1     		bne	.L196
1804:Drivers/VL53L0X/core/src/vl53l0x_api_core.c **** 			vcselWidth = 2;
 4969              		.loc 1 1804 15
 4970 013e 0223     		movs	r3, #2
 4971 0140 C7F89830 		str	r3, [r7, #152]
 4972              	.L196:
1805:Drivers/VL53L0X/core/src/vl53l0x_api_core.c **** 
1806:Drivers/VL53L0X/core/src/vl53l0x_api_core.c **** 
1807:Drivers/VL53L0X/core/src/vl53l0x_api_core.c **** 		peakVcselDuration_us = vcselWidth * 2048 *
1808:Drivers/VL53L0X/core/src/vl53l0x_api_core.c **** 			(preRangeMacroPCLKS + finalRangeMacroPCLKS);
 4973              		.loc 1 1808 24
 4974 0144 FA6C     		ldr	r2, [r7, #76]
 4975 0146 7B6D     		ldr	r3, [r7, #84]
 4976 0148 1344     		add	r3, r3, r2
1807:Drivers/VL53L0X/core/src/vl53l0x_api_core.c **** 			(preRangeMacroPCLKS + finalRangeMacroPCLKS);
 4977              		.loc 1 1807 44
 4978 014a D7F89820 		ldr	r2, [r7, #152]
 4979 014e 02FB03F3 		mul	r3, r2, r3
1807:Drivers/VL53L0X/core/src/vl53l0x_api_core.c **** 			(preRangeMacroPCLKS + finalRangeMacroPCLKS);
 4980              		.loc 1 1807 24
 4981 0152 DB02     		lsls	r3, r3, #11
 4982 0154 C7F89430 		str	r3, [r7, #148]
1809:Drivers/VL53L0X/core/src/vl53l0x_api_core.c **** 		peakVcselDuration_us = (peakVcselDuration_us + 500)/1000;
 4983              		.loc 1 1809 48
 4984 0158 D7F89430 		ldr	r3, [r7, #148]
 4985 015c 03F5FA73 		add	r3, r3, #500
 4986              		.loc 1 1809 24
 4987 0160 534A     		ldr	r2, .L209+8
 4988 0162 A2FB0323 		umull	r2, r3, r2, r3
 4989 0166 9B09     		lsrs	r3, r3, #6
 4990 0168 C7F89430 		str	r3, [r7, #148]
1810:Drivers/VL53L0X/core/src/vl53l0x_api_core.c **** 		peakVcselDuration_us *= cPllPeriod_ps;
 4991              		.loc 1 1810 24
 4992 016c D7F89430 		ldr	r3, [r7, #148]
 4993 0170 BA6E     		ldr	r2, [r7, #104]
 4994 0172 02FB03F3 		mul	r3, r2, r3
 4995 0176 C7F89430 		str	r3, [r7, #148]
1811:Drivers/VL53L0X/core/src/vl53l0x_api_core.c **** 		peakVcselDuration_us = (peakVcselDuration_us + 500)/1000;
 4996              		.loc 1 1811 48
 4997 017a D7F89430 		ldr	r3, [r7, #148]
 4998 017e 03F5FA73 		add	r3, r3, #500
 4999              		.loc 1 1811 24
 5000 0182 4B4A     		ldr	r2, .L209+8
 5001 0184 A2FB0323 		umull	r2, r3, r2, r3
 5002 0188 9B09     		lsrs	r3, r3, #6
 5003 018a C7F89430 		str	r3, [r7, #148]
1812:Drivers/VL53L0X/core/src/vl53l0x_api_core.c **** 
1813:Drivers/VL53L0X/core/src/vl53l0x_api_core.c **** 		/* Fix1616 >> 8 = Fix2408 */
1814:Drivers/VL53L0X/core/src/vl53l0x_api_core.c **** 		totalSignalRate_mcps = (totalSignalRate_mcps + 0x80) >> 8;
 5004              		.loc 1 1814 48
 5005 018e 3B69     		ldr	r3, [r7, #16]
 5006 0190 8033     		adds	r3, r3, #128
ARM GAS  C:\Users\Morroway\AppData\Local\Temp\ccKjJYc2.s 			page 121


 5007              		.loc 1 1814 56
 5008 0192 1B0A     		lsrs	r3, r3, #8
 5009              		.loc 1 1814 24
 5010 0194 3B61     		str	r3, [r7, #16]
1815:Drivers/VL53L0X/core/src/vl53l0x_api_core.c **** 
1816:Drivers/VL53L0X/core/src/vl53l0x_api_core.c **** 		/* Fix2408 * uint32 = Fix2408 */
1817:Drivers/VL53L0X/core/src/vl53l0x_api_core.c **** 		vcselTotalEventsRtn = totalSignalRate_mcps *
 5011              		.loc 1 1817 46
 5012 0196 3A69     		ldr	r2, [r7, #16]
 5013              		.loc 1 1817 23
 5014 0198 D7F89430 		ldr	r3, [r7, #148]
 5015 019c 02FB03F3 		mul	r3, r2, r3
 5016 01a0 C7F8BC30 		str	r3, [r7, #188]
1818:Drivers/VL53L0X/core/src/vl53l0x_api_core.c **** 			peakVcselDuration_us;
1819:Drivers/VL53L0X/core/src/vl53l0x_api_core.c **** 
1820:Drivers/VL53L0X/core/src/vl53l0x_api_core.c **** 		/* Fix2408 >> 8 = uint32 */
1821:Drivers/VL53L0X/core/src/vl53l0x_api_core.c **** 		vcselTotalEventsRtn = (vcselTotalEventsRtn + 0x80) >> 8;
 5017              		.loc 1 1821 46
 5018 01a4 D7F8BC30 		ldr	r3, [r7, #188]
 5019 01a8 8033     		adds	r3, r3, #128
 5020              		.loc 1 1821 23
 5021 01aa 1B0A     		lsrs	r3, r3, #8
 5022 01ac C7F8BC30 		str	r3, [r7, #188]
1822:Drivers/VL53L0X/core/src/vl53l0x_api_core.c **** 
1823:Drivers/VL53L0X/core/src/vl53l0x_api_core.c **** 		/* Fix2408 << 8 = Fix1616 = */
1824:Drivers/VL53L0X/core/src/vl53l0x_api_core.c **** 		totalSignalRate_mcps <<= 8;
 5023              		.loc 1 1824 24
 5024 01b0 3B69     		ldr	r3, [r7, #16]
 5025 01b2 1B02     		lsls	r3, r3, #8
 5026 01b4 3B61     		str	r3, [r7, #16]
 5027              	.L195:
1825:Drivers/VL53L0X/core/src/vl53l0x_api_core.c **** 	}
1826:Drivers/VL53L0X/core/src/vl53l0x_api_core.c **** 
1827:Drivers/VL53L0X/core/src/vl53l0x_api_core.c **** 	if (Status != VL53L0X_ERROR_NONE) {
 5028              		.loc 1 1827 5
 5029 01b6 97F99F30 		ldrsb	r3, [r7, #159]
 5030 01ba 002B     		cmp	r3, #0
 5031 01bc 02D0     		beq	.L197
1828:Drivers/VL53L0X/core/src/vl53l0x_api_core.c **** 		LOG_FUNCTION_END(Status);
1829:Drivers/VL53L0X/core/src/vl53l0x_api_core.c **** 		return Status;
 5032              		.loc 1 1829 10
 5033 01be 97F99F30 		ldrsb	r3, [r7, #159]
 5034 01c2 5EE1     		b	.L208
 5035              	.L197:
1830:Drivers/VL53L0X/core/src/vl53l0x_api_core.c **** 	}
1831:Drivers/VL53L0X/core/src/vl53l0x_api_core.c **** 
1832:Drivers/VL53L0X/core/src/vl53l0x_api_core.c **** 	if (peakSignalRate_kcps == 0) {
 5036              		.loc 1 1832 5
 5037 01c4 FB6D     		ldr	r3, [r7, #92]
 5038 01c6 002B     		cmp	r3, #0
 5039 01c8 0CD1     		bne	.L199
1833:Drivers/VL53L0X/core/src/vl53l0x_api_core.c **** 		*pSigmaEstimate = cSigmaEstMax;
 5040              		.loc 1 1833 19
 5041 01ca 7B68     		ldr	r3, [r7, #4]
 5042 01cc D7F88020 		ldr	r2, [r7, #128]
 5043 01d0 1A60     		str	r2, [r3]
1834:Drivers/VL53L0X/core/src/vl53l0x_api_core.c **** 		PALDevDataSet(Dev, SigmaEstimate, cSigmaEstMax);
ARM GAS  C:\Users\Morroway\AppData\Local\Temp\ccKjJYc2.s 			page 122


 5044              		.loc 1 1834 3
 5045 01d2 FB68     		ldr	r3, [r7, #12]
 5046 01d4 D7F88020 		ldr	r2, [r7, #128]
 5047 01d8 C3F84021 		str	r2, [r3, #320]
1835:Drivers/VL53L0X/core/src/vl53l0x_api_core.c **** 		*pDmax_mm = 0;
 5048              		.loc 1 1835 13
 5049 01dc 3B68     		ldr	r3, [r7]
 5050 01de 0022     		movs	r2, #0
 5051 01e0 1A60     		str	r2, [r3]
 5052 01e2 4CE1     		b	.L200
 5053              	.L199:
1836:Drivers/VL53L0X/core/src/vl53l0x_api_core.c **** 	} else {
1837:Drivers/VL53L0X/core/src/vl53l0x_api_core.c **** 		if (vcselTotalEventsRtn < 1)
 5054              		.loc 1 1837 6
 5055 01e4 D7F8BC30 		ldr	r3, [r7, #188]
 5056 01e8 002B     		cmp	r3, #0
 5057 01ea 02D1     		bne	.L201
1838:Drivers/VL53L0X/core/src/vl53l0x_api_core.c **** 			vcselTotalEventsRtn = 1;
 5058              		.loc 1 1838 24
 5059 01ec 0123     		movs	r3, #1
 5060 01ee C7F8BC30 		str	r3, [r7, #188]
 5061              	.L201:
1839:Drivers/VL53L0X/core/src/vl53l0x_api_core.c **** 
1840:Drivers/VL53L0X/core/src/vl53l0x_api_core.c **** 		sigmaEstimateP1 = cPulseEffectiveWidth_centi_ns;
 5062              		.loc 1 1840 19
 5063 01f2 D7F89030 		ldr	r3, [r7, #144]
 5064 01f6 BB64     		str	r3, [r7, #72]
1841:Drivers/VL53L0X/core/src/vl53l0x_api_core.c **** 
1842:Drivers/VL53L0X/core/src/vl53l0x_api_core.c **** 		/* ((FixPoint1616 << 16)* uint32)/uint32 = FixPoint1616 */
1843:Drivers/VL53L0X/core/src/vl53l0x_api_core.c **** 		sigmaEstimateP2 = (ambientRate_kcps << 16)/peakSignalRate_kcps;
 5065              		.loc 1 1843 39
 5066 01f8 7B6E     		ldr	r3, [r7, #100]
 5067 01fa 1A04     		lsls	r2, r3, #16
 5068              		.loc 1 1843 19
 5069 01fc FB6D     		ldr	r3, [r7, #92]
 5070 01fe B2FBF3F3 		udiv	r3, r2, r3
 5071 0202 C7F8B030 		str	r3, [r7, #176]
1844:Drivers/VL53L0X/core/src/vl53l0x_api_core.c **** 		if (sigmaEstimateP2 > cAmbToSignalRatioMax) {
 5072              		.loc 1 1844 6
 5073 0206 D7F8B020 		ldr	r2, [r7, #176]
 5074 020a BB6F     		ldr	r3, [r7, #120]
 5075 020c 9A42     		cmp	r2, r3
 5076 020e 02D9     		bls	.L202
1845:Drivers/VL53L0X/core/src/vl53l0x_api_core.c **** 			/* Clip to prevent overflow. Will ensure safe
1846:Drivers/VL53L0X/core/src/vl53l0x_api_core.c **** 			 * max result. */
1847:Drivers/VL53L0X/core/src/vl53l0x_api_core.c **** 			sigmaEstimateP2 = cAmbToSignalRatioMax;
 5077              		.loc 1 1847 20
 5078 0210 BB6F     		ldr	r3, [r7, #120]
 5079 0212 C7F8B030 		str	r3, [r7, #176]
 5080              	.L202:
1848:Drivers/VL53L0X/core/src/vl53l0x_api_core.c **** 		}
1849:Drivers/VL53L0X/core/src/vl53l0x_api_core.c **** 		sigmaEstimateP2 *= cAmbientEffectiveWidth_centi_ns;
 5081              		.loc 1 1849 19
 5082 0216 D7F8B030 		ldr	r3, [r7, #176]
 5083 021a D7F88C20 		ldr	r2, [r7, #140]
 5084 021e 02FB03F3 		mul	r3, r2, r3
 5085 0222 C7F8B030 		str	r3, [r7, #176]
ARM GAS  C:\Users\Morroway\AppData\Local\Temp\ccKjJYc2.s 			page 123


1850:Drivers/VL53L0X/core/src/vl53l0x_api_core.c **** 
1851:Drivers/VL53L0X/core/src/vl53l0x_api_core.c **** 		sigmaEstimateP3 = 2 * VL53L0X_isqrt(vcselTotalEventsRtn * 12);
 5086              		.loc 1 1851 25
 5087 0226 D7F8BC20 		ldr	r2, [r7, #188]
 5088 022a 1346     		mov	r3, r2
 5089 022c 5B00     		lsls	r3, r3, #1
 5090 022e 1344     		add	r3, r3, r2
 5091 0230 9B00     		lsls	r3, r3, #2
 5092 0232 1846     		mov	r0, r3
 5093 0234 FFF7FEFF 		bl	VL53L0X_isqrt
 5094 0238 0346     		mov	r3, r0
 5095              		.loc 1 1851 19
 5096 023a 5B00     		lsls	r3, r3, #1
 5097 023c 7B64     		str	r3, [r7, #68]
1852:Drivers/VL53L0X/core/src/vl53l0x_api_core.c **** 
1853:Drivers/VL53L0X/core/src/vl53l0x_api_core.c **** 		/* uint32 * FixPoint1616 = FixPoint1616 */
1854:Drivers/VL53L0X/core/src/vl53l0x_api_core.c **** 		deltaT_ps = pRangingMeasurementData->RangeMilliMeter *
 5098              		.loc 1 1854 38
 5099 023e BB68     		ldr	r3, [r7, #8]
 5100 0240 1B89     		ldrh	r3, [r3, #8]
 5101 0242 1A46     		mov	r2, r3
 5102              		.loc 1 1854 13
 5103 0244 7B6F     		ldr	r3, [r7, #116]
 5104 0246 02FB03F3 		mul	r3, r2, r3
 5105 024a 3B64     		str	r3, [r7, #64]
1855:Drivers/VL53L0X/core/src/vl53l0x_api_core.c **** 					cTOF_per_mm_ps;
1856:Drivers/VL53L0X/core/src/vl53l0x_api_core.c **** 
1857:Drivers/VL53L0X/core/src/vl53l0x_api_core.c **** 		/*
1858:Drivers/VL53L0X/core/src/vl53l0x_api_core.c **** 		 * vcselRate - xtalkCompRate
1859:Drivers/VL53L0X/core/src/vl53l0x_api_core.c **** 		 * (uint32 << 16) - FixPoint1616 = FixPoint1616.
1860:Drivers/VL53L0X/core/src/vl53l0x_api_core.c **** 		 * Divide result by 1000 to convert to mcps.
1861:Drivers/VL53L0X/core/src/vl53l0x_api_core.c **** 		 * 500 is added to ensure rounding when integer division
1862:Drivers/VL53L0X/core/src/vl53l0x_api_core.c **** 		 * truncates.
1863:Drivers/VL53L0X/core/src/vl53l0x_api_core.c **** 		 */
1864:Drivers/VL53L0X/core/src/vl53l0x_api_core.c **** 		diff1_mcps = (((peakSignalRate_kcps << 16) -
 5106              		.loc 1 1864 39
 5107 024c FB6D     		ldr	r3, [r7, #92]
 5108 024e 1A04     		lsls	r2, r3, #16
1865:Drivers/VL53L0X/core/src/vl53l0x_api_core.c **** 			2 * xTalkCompRate_kcps) + 500)/1000;
 5109              		.loc 1 1865 6
 5110 0250 D7F8A030 		ldr	r3, [r7, #160]
 5111 0254 5B00     		lsls	r3, r3, #1
1864:Drivers/VL53L0X/core/src/vl53l0x_api_core.c **** 			2 * xTalkCompRate_kcps) + 500)/1000;
 5112              		.loc 1 1864 46
 5113 0256 D31A     		subs	r3, r2, r3
 5114              		.loc 1 1865 28
 5115 0258 03F5FA73 		add	r3, r3, #500
1864:Drivers/VL53L0X/core/src/vl53l0x_api_core.c **** 			2 * xTalkCompRate_kcps) + 500)/1000;
 5116              		.loc 1 1864 14
 5117 025c 144A     		ldr	r2, .L209+8
 5118 025e A2FB0323 		umull	r2, r3, r2, r3
 5119 0262 9B09     		lsrs	r3, r3, #6
 5120 0264 FB63     		str	r3, [r7, #60]
1866:Drivers/VL53L0X/core/src/vl53l0x_api_core.c **** 
1867:Drivers/VL53L0X/core/src/vl53l0x_api_core.c **** 		/* vcselRate + xtalkCompRate */
1868:Drivers/VL53L0X/core/src/vl53l0x_api_core.c **** 		diff2_mcps = ((peakSignalRate_kcps << 16) + 500)/1000;
 5121              		.loc 1 1868 38
ARM GAS  C:\Users\Morroway\AppData\Local\Temp\ccKjJYc2.s 			page 124


 5122 0266 FB6D     		ldr	r3, [r7, #92]
 5123 0268 1B04     		lsls	r3, r3, #16
 5124              		.loc 1 1868 45
 5125 026a 03F5FA73 		add	r3, r3, #500
 5126              		.loc 1 1868 14
 5127 026e 104A     		ldr	r2, .L209+8
 5128 0270 A2FB0323 		umull	r2, r3, r2, r3
 5129 0274 9B09     		lsrs	r3, r3, #6
 5130 0276 BB63     		str	r3, [r7, #56]
1869:Drivers/VL53L0X/core/src/vl53l0x_api_core.c **** 
1870:Drivers/VL53L0X/core/src/vl53l0x_api_core.c **** 		/* Shift by 8 bits to increase resolution prior to the
1871:Drivers/VL53L0X/core/src/vl53l0x_api_core.c **** 		 * division */
1872:Drivers/VL53L0X/core/src/vl53l0x_api_core.c **** 		diff1_mcps <<= 8;
 5131              		.loc 1 1872 14
 5132 0278 FB6B     		ldr	r3, [r7, #60]
 5133 027a 1B02     		lsls	r3, r3, #8
 5134 027c FB63     		str	r3, [r7, #60]
1873:Drivers/VL53L0X/core/src/vl53l0x_api_core.c **** 
1874:Drivers/VL53L0X/core/src/vl53l0x_api_core.c **** 		/* FixPoint0824/FixPoint1616 = FixPoint2408 */
1875:Drivers/VL53L0X/core/src/vl53l0x_api_core.c **** 		xTalkCorrection	 = abs(diff1_mcps/diff2_mcps);
 5135              		.loc 1 1875 36
 5136 027e FA6B     		ldr	r2, [r7, #60]
 5137 0280 BB6B     		ldr	r3, [r7, #56]
 5138 0282 B2FBF3F3 		udiv	r3, r2, r3
 5139              		.loc 1 1875 22
 5140 0286 002B     		cmp	r3, #0
 5141 0288 B8BF     		it	lt
 5142 028a 5B42     		rsblt	r3, r3, #0
 5143              		.loc 1 1875 20
 5144 028c 7B63     		str	r3, [r7, #52]
1876:Drivers/VL53L0X/core/src/vl53l0x_api_core.c **** 
1877:Drivers/VL53L0X/core/src/vl53l0x_api_core.c **** 		/* FixPoint2408 << 8 = FixPoint1616 */
1878:Drivers/VL53L0X/core/src/vl53l0x_api_core.c **** 		xTalkCorrection <<= 8;
 5145              		.loc 1 1878 19
 5146 028e 7B6B     		ldr	r3, [r7, #52]
 5147 0290 1B02     		lsls	r3, r3, #8
 5148 0292 7B63     		str	r3, [r7, #52]
1879:Drivers/VL53L0X/core/src/vl53l0x_api_core.c **** 
1880:Drivers/VL53L0X/core/src/vl53l0x_api_core.c **** 		if(pRangingMeasurementData->RangeStatus != 0){
 5149              		.loc 1 1880 29
 5150 0294 BB68     		ldr	r3, [r7, #8]
 5151 0296 1B7E     		ldrb	r3, [r3, #24]	@ zero_extendqisi2
 5152              		.loc 1 1880 5
 5153 0298 002B     		cmp	r3, #0
 5154 029a 0BD0     		beq	.L203
1881:Drivers/VL53L0X/core/src/vl53l0x_api_core.c **** 			pwMult = 1 << 16;
 5155              		.loc 1 1881 11
 5156 029c 4FF48033 		mov	r3, #65536
 5157 02a0 C7F8AC30 		str	r3, [r7, #172]
 5158 02a4 33E0     		b	.L204
 5159              	.L210:
 5160 02a6 00BF     		.align	2
 5161              	.L209:
 5162 02a8 AE878F02 		.word	42960814
 5163 02ac 9A990600 		.word	432538
 5164 02b0 D34D6210 		.word	274877907
 5165              	.L203:
ARM GAS  C:\Users\Morroway\AppData\Local\Temp\ccKjJYc2.s 			page 125


1882:Drivers/VL53L0X/core/src/vl53l0x_api_core.c **** 		} else {
1883:Drivers/VL53L0X/core/src/vl53l0x_api_core.c **** 			/* FixPoint1616/uint32 = FixPoint1616 */
1884:Drivers/VL53L0X/core/src/vl53l0x_api_core.c **** 			pwMult = deltaT_ps/cVcselPulseWidth_ps; /* smaller than 1.0f */
 5166              		.loc 1 1884 11
 5167 02b4 3A6C     		ldr	r2, [r7, #64]
 5168 02b6 D7F88430 		ldr	r3, [r7, #132]
 5169 02ba B2FBF3F3 		udiv	r3, r2, r3
 5170 02be C7F8AC30 		str	r3, [r7, #172]
1885:Drivers/VL53L0X/core/src/vl53l0x_api_core.c **** 
1886:Drivers/VL53L0X/core/src/vl53l0x_api_core.c **** 			/*
1887:Drivers/VL53L0X/core/src/vl53l0x_api_core.c **** 			 * FixPoint1616 * FixPoint1616 = FixPoint3232, however both
1888:Drivers/VL53L0X/core/src/vl53l0x_api_core.c **** 			 * values are small enough such that32 bits will not be
1889:Drivers/VL53L0X/core/src/vl53l0x_api_core.c **** 			 * exceeded.
1890:Drivers/VL53L0X/core/src/vl53l0x_api_core.c **** 			 */
1891:Drivers/VL53L0X/core/src/vl53l0x_api_core.c **** 			pwMult *= ((1 << 16) - xTalkCorrection);
 5171              		.loc 1 1891 25
 5172 02c2 7B6B     		ldr	r3, [r7, #52]
 5173 02c4 C3F58032 		rsb	r2, r3, #65536
 5174              		.loc 1 1891 11
 5175 02c8 D7F8AC30 		ldr	r3, [r7, #172]
 5176 02cc 02FB03F3 		mul	r3, r2, r3
 5177 02d0 C7F8AC30 		str	r3, [r7, #172]
1892:Drivers/VL53L0X/core/src/vl53l0x_api_core.c **** 
1893:Drivers/VL53L0X/core/src/vl53l0x_api_core.c **** 			/* (FixPoint3232 >> 16) = FixPoint1616 */
1894:Drivers/VL53L0X/core/src/vl53l0x_api_core.c **** 			pwMult =  (pwMult + c16BitRoundingParam) >> 16;
 5178              		.loc 1 1894 22
 5179 02d4 D7F8AC20 		ldr	r2, [r7, #172]
 5180 02d8 3B6F     		ldr	r3, [r7, #112]
 5181 02da 1344     		add	r3, r3, r2
 5182              		.loc 1 1894 11
 5183 02dc 1B0C     		lsrs	r3, r3, #16
 5184 02de C7F8AC30 		str	r3, [r7, #172]
1895:Drivers/VL53L0X/core/src/vl53l0x_api_core.c **** 
1896:Drivers/VL53L0X/core/src/vl53l0x_api_core.c **** 			/* FixPoint1616 + FixPoint1616 = FixPoint1616 */
1897:Drivers/VL53L0X/core/src/vl53l0x_api_core.c **** 			pwMult += (1 << 16);
 5185              		.loc 1 1897 11
 5186 02e2 D7F8AC30 		ldr	r3, [r7, #172]
 5187 02e6 03F58033 		add	r3, r3, #65536
 5188 02ea C7F8AC30 		str	r3, [r7, #172]
1898:Drivers/VL53L0X/core/src/vl53l0x_api_core.c **** 
1899:Drivers/VL53L0X/core/src/vl53l0x_api_core.c **** 			/*
1900:Drivers/VL53L0X/core/src/vl53l0x_api_core.c **** 			 * At this point the value will be 1.xx, therefore if we square
1901:Drivers/VL53L0X/core/src/vl53l0x_api_core.c **** 			 * the value this will exceed 32 bits. To address this perform
1902:Drivers/VL53L0X/core/src/vl53l0x_api_core.c **** 			 * a single shift to the right before the multiplication.
1903:Drivers/VL53L0X/core/src/vl53l0x_api_core.c **** 			 */
1904:Drivers/VL53L0X/core/src/vl53l0x_api_core.c **** 			pwMult >>= 1;
 5189              		.loc 1 1904 11
 5190 02ee D7F8AC30 		ldr	r3, [r7, #172]
 5191 02f2 5B08     		lsrs	r3, r3, #1
 5192 02f4 C7F8AC30 		str	r3, [r7, #172]
1905:Drivers/VL53L0X/core/src/vl53l0x_api_core.c **** 			/* FixPoint1715 * FixPoint1715 = FixPoint3430 */
1906:Drivers/VL53L0X/core/src/vl53l0x_api_core.c **** 			pwMult = pwMult * pwMult;
 5193              		.loc 1 1906 11
 5194 02f8 D7F8AC30 		ldr	r3, [r7, #172]
 5195 02fc 03FB03F3 		mul	r3, r3, r3
 5196 0300 C7F8AC30 		str	r3, [r7, #172]
1907:Drivers/VL53L0X/core/src/vl53l0x_api_core.c **** 
ARM GAS  C:\Users\Morroway\AppData\Local\Temp\ccKjJYc2.s 			page 126


1908:Drivers/VL53L0X/core/src/vl53l0x_api_core.c **** 			/* (FixPoint3430 >> 14) = Fix1616 */
1909:Drivers/VL53L0X/core/src/vl53l0x_api_core.c **** 			pwMult >>= 14;
 5197              		.loc 1 1909 11
 5198 0304 D7F8AC30 		ldr	r3, [r7, #172]
 5199 0308 9B0B     		lsrs	r3, r3, #14
 5200 030a C7F8AC30 		str	r3, [r7, #172]
 5201              	.L204:
1910:Drivers/VL53L0X/core/src/vl53l0x_api_core.c **** 		}
1911:Drivers/VL53L0X/core/src/vl53l0x_api_core.c **** 
1912:Drivers/VL53L0X/core/src/vl53l0x_api_core.c **** 		/* FixPoint1616 * uint32 = FixPoint1616 */
1913:Drivers/VL53L0X/core/src/vl53l0x_api_core.c **** 		sqr1 = pwMult * sigmaEstimateP1;
 5202              		.loc 1 1913 8
 5203 030e D7F8AC30 		ldr	r3, [r7, #172]
 5204 0312 BA6C     		ldr	r2, [r7, #72]
 5205 0314 02FB03F3 		mul	r3, r2, r3
 5206 0318 3B63     		str	r3, [r7, #48]
1914:Drivers/VL53L0X/core/src/vl53l0x_api_core.c **** 
1915:Drivers/VL53L0X/core/src/vl53l0x_api_core.c **** 		/* (FixPoint1616 >> 16) = FixPoint3200 */
1916:Drivers/VL53L0X/core/src/vl53l0x_api_core.c **** 		sqr1 = (sqr1 + 0x8000) >> 16;
 5207              		.loc 1 1916 16
 5208 031a 3B6B     		ldr	r3, [r7, #48]
 5209 031c 03F50043 		add	r3, r3, #32768
 5210              		.loc 1 1916 8
 5211 0320 1B0C     		lsrs	r3, r3, #16
 5212 0322 3B63     		str	r3, [r7, #48]
1917:Drivers/VL53L0X/core/src/vl53l0x_api_core.c **** 
1918:Drivers/VL53L0X/core/src/vl53l0x_api_core.c **** 		/* FixPoint3200 * FixPoint3200 = FixPoint6400 */
1919:Drivers/VL53L0X/core/src/vl53l0x_api_core.c **** 		sqr1 *= sqr1;
 5213              		.loc 1 1919 8
 5214 0324 3B6B     		ldr	r3, [r7, #48]
 5215 0326 03FB03F3 		mul	r3, r3, r3
 5216 032a 3B63     		str	r3, [r7, #48]
1920:Drivers/VL53L0X/core/src/vl53l0x_api_core.c **** 
1921:Drivers/VL53L0X/core/src/vl53l0x_api_core.c **** 		sqr2 = sigmaEstimateP2;
 5217              		.loc 1 1921 8
 5218 032c D7F8B030 		ldr	r3, [r7, #176]
 5219 0330 FB62     		str	r3, [r7, #44]
1922:Drivers/VL53L0X/core/src/vl53l0x_api_core.c **** 
1923:Drivers/VL53L0X/core/src/vl53l0x_api_core.c **** 		/* (FixPoint1616 >> 16) = FixPoint3200 */
1924:Drivers/VL53L0X/core/src/vl53l0x_api_core.c **** 		sqr2 = (sqr2 + 0x8000) >> 16;
 5220              		.loc 1 1924 16
 5221 0332 FB6A     		ldr	r3, [r7, #44]
 5222 0334 03F50043 		add	r3, r3, #32768
 5223              		.loc 1 1924 8
 5224 0338 1B0C     		lsrs	r3, r3, #16
 5225 033a FB62     		str	r3, [r7, #44]
1925:Drivers/VL53L0X/core/src/vl53l0x_api_core.c **** 
1926:Drivers/VL53L0X/core/src/vl53l0x_api_core.c **** 		/* FixPoint3200 * FixPoint3200 = FixPoint6400 */
1927:Drivers/VL53L0X/core/src/vl53l0x_api_core.c **** 		sqr2 *= sqr2;
 5226              		.loc 1 1927 8
 5227 033c FB6A     		ldr	r3, [r7, #44]
 5228 033e 03FB03F3 		mul	r3, r3, r3
 5229 0342 FB62     		str	r3, [r7, #44]
1928:Drivers/VL53L0X/core/src/vl53l0x_api_core.c **** 
1929:Drivers/VL53L0X/core/src/vl53l0x_api_core.c **** 		/* FixPoint64000 + FixPoint6400 = FixPoint6400 */
1930:Drivers/VL53L0X/core/src/vl53l0x_api_core.c **** 		sqrSum = sqr1 + sqr2;
 5230              		.loc 1 1930 10
ARM GAS  C:\Users\Morroway\AppData\Local\Temp\ccKjJYc2.s 			page 127


 5231 0344 3A6B     		ldr	r2, [r7, #48]
 5232 0346 FB6A     		ldr	r3, [r7, #44]
 5233 0348 1344     		add	r3, r3, r2
 5234 034a BB62     		str	r3, [r7, #40]
1931:Drivers/VL53L0X/core/src/vl53l0x_api_core.c **** 
1932:Drivers/VL53L0X/core/src/vl53l0x_api_core.c **** 		/* SQRT(FixPoin6400) = FixPoint3200 */
1933:Drivers/VL53L0X/core/src/vl53l0x_api_core.c **** 		sqrtResult_centi_ns = VL53L0X_isqrt(sqrSum);
 5235              		.loc 1 1933 25
 5236 034c B86A     		ldr	r0, [r7, #40]
 5237 034e FFF7FEFF 		bl	VL53L0X_isqrt
 5238 0352 7862     		str	r0, [r7, #36]
1934:Drivers/VL53L0X/core/src/vl53l0x_api_core.c **** 
1935:Drivers/VL53L0X/core/src/vl53l0x_api_core.c **** 		/* (FixPoint3200 << 16) = FixPoint1616 */
1936:Drivers/VL53L0X/core/src/vl53l0x_api_core.c **** 		sqrtResult_centi_ns <<= 16;
 5239              		.loc 1 1936 23
 5240 0354 7B6A     		ldr	r3, [r7, #36]
 5241 0356 1B04     		lsls	r3, r3, #16
 5242 0358 7B62     		str	r3, [r7, #36]
1937:Drivers/VL53L0X/core/src/vl53l0x_api_core.c **** 
1938:Drivers/VL53L0X/core/src/vl53l0x_api_core.c **** 		/*
1939:Drivers/VL53L0X/core/src/vl53l0x_api_core.c **** 		 * Note that the Speed Of Light is expressed in um per 1E-10
1940:Drivers/VL53L0X/core/src/vl53l0x_api_core.c **** 		 * seconds (2997) Therefore to get mm/ns we have to divide by
1941:Drivers/VL53L0X/core/src/vl53l0x_api_core.c **** 		 * 10000
1942:Drivers/VL53L0X/core/src/vl53l0x_api_core.c **** 		 */
1943:Drivers/VL53L0X/core/src/vl53l0x_api_core.c **** 		sigmaEstRtn = (((sqrtResult_centi_ns+50)/100) /
 5243              		.loc 1 1943 39
 5244 035a 7B6A     		ldr	r3, [r7, #36]
 5245 035c 3233     		adds	r3, r3, #50
 5246              		.loc 1 1943 43
 5247 035e 4B4A     		ldr	r2, .L211
 5248 0360 A2FB0323 		umull	r2, r3, r2, r3
 5249 0364 5A09     		lsrs	r2, r3, #5
 5250              		.loc 1 1943 15
 5251 0366 7B6C     		ldr	r3, [r7, #68]
 5252 0368 B2FBF3F3 		udiv	r3, r2, r3
 5253 036c C7F8A830 		str	r3, [r7, #168]
1944:Drivers/VL53L0X/core/src/vl53l0x_api_core.c **** 				sigmaEstimateP3);
1945:Drivers/VL53L0X/core/src/vl53l0x_api_core.c **** 		sigmaEstRtn		 *= VL53L0X_SPEED_OF_LIGHT_IN_AIR;
 5254              		.loc 1 1945 17
 5255 0370 D7F8A830 		ldr	r3, [r7, #168]
 5256 0374 40F6B532 		movw	r2, #2997
 5257 0378 02FB03F3 		mul	r3, r2, r3
 5258 037c C7F8A830 		str	r3, [r7, #168]
1946:Drivers/VL53L0X/core/src/vl53l0x_api_core.c **** 
1947:Drivers/VL53L0X/core/src/vl53l0x_api_core.c **** 		/* Add 5000 before dividing by 10000 to ensure rounding. */
1948:Drivers/VL53L0X/core/src/vl53l0x_api_core.c **** 		sigmaEstRtn		 += 5000;
 5259              		.loc 1 1948 17
 5260 0380 D7F8A830 		ldr	r3, [r7, #168]
 5261 0384 03F59C53 		add	r3, r3, #4992
 5262 0388 0833     		adds	r3, r3, #8
 5263 038a C7F8A830 		str	r3, [r7, #168]
1949:Drivers/VL53L0X/core/src/vl53l0x_api_core.c **** 		sigmaEstRtn		 /= 10000;
 5264              		.loc 1 1949 17
 5265 038e D7F8A830 		ldr	r3, [r7, #168]
 5266 0392 3F4A     		ldr	r2, .L211+4
 5267 0394 A2FB0323 		umull	r2, r3, r2, r3
 5268 0398 5B0B     		lsrs	r3, r3, #13
ARM GAS  C:\Users\Morroway\AppData\Local\Temp\ccKjJYc2.s 			page 128


 5269 039a C7F8A830 		str	r3, [r7, #168]
1950:Drivers/VL53L0X/core/src/vl53l0x_api_core.c **** 
1951:Drivers/VL53L0X/core/src/vl53l0x_api_core.c **** 		if (sigmaEstRtn > cSigmaEstRtnMax) {
 5270              		.loc 1 1951 6
 5271 039e D7F8A820 		ldr	r2, [r7, #168]
 5272 03a2 FB6F     		ldr	r3, [r7, #124]
 5273 03a4 9A42     		cmp	r2, r3
 5274 03a6 02D9     		bls	.L205
1952:Drivers/VL53L0X/core/src/vl53l0x_api_core.c **** 			/* Clip to prevent overflow. Will ensure safe
1953:Drivers/VL53L0X/core/src/vl53l0x_api_core.c **** 			 * max result. */
1954:Drivers/VL53L0X/core/src/vl53l0x_api_core.c **** 			sigmaEstRtn = cSigmaEstRtnMax;
 5275              		.loc 1 1954 16
 5276 03a8 FB6F     		ldr	r3, [r7, #124]
 5277 03aa C7F8A830 		str	r3, [r7, #168]
 5278              	.L205:
1955:Drivers/VL53L0X/core/src/vl53l0x_api_core.c **** 		}
1956:Drivers/VL53L0X/core/src/vl53l0x_api_core.c **** 		finalRangeIntegrationTimeMilliSecs =
1957:Drivers/VL53L0X/core/src/vl53l0x_api_core.c **** 			(finalRangeTimeoutMicroSecs + preRangeTimeoutMicroSecs + 500)/1000;
 5279              		.loc 1 1957 32
 5280 03ae D7F8B820 		ldr	r2, [r7, #184]
 5281 03b2 D7F8B430 		ldr	r3, [r7, #180]
 5282 03b6 1344     		add	r3, r3, r2
 5283              		.loc 1 1957 59
 5284 03b8 03F5FA73 		add	r3, r3, #500
1956:Drivers/VL53L0X/core/src/vl53l0x_api_core.c **** 			(finalRangeTimeoutMicroSecs + preRangeTimeoutMicroSecs + 500)/1000;
 5285              		.loc 1 1956 38
 5286 03bc 354A     		ldr	r2, .L211+8
 5287 03be A2FB0323 		umull	r2, r3, r2, r3
 5288 03c2 9B09     		lsrs	r3, r3, #6
 5289 03c4 3B62     		str	r3, [r7, #32]
1958:Drivers/VL53L0X/core/src/vl53l0x_api_core.c **** 
1959:Drivers/VL53L0X/core/src/vl53l0x_api_core.c **** 		/* sigmaEstRef = 1mm * 25ms/final range integration time (inc pre-range)
1960:Drivers/VL53L0X/core/src/vl53l0x_api_core.c **** 		 * sqrt(FixPoint1616/int) = FixPoint2408)
1961:Drivers/VL53L0X/core/src/vl53l0x_api_core.c **** 		 */
1962:Drivers/VL53L0X/core/src/vl53l0x_api_core.c **** 		sigmaEstRef =
1963:Drivers/VL53L0X/core/src/vl53l0x_api_core.c **** 			VL53L0X_isqrt((cDfltFinalRangeIntegrationTimeMilliSecs +
1964:Drivers/VL53L0X/core/src/vl53l0x_api_core.c **** 				finalRangeIntegrationTimeMilliSecs/2)/
 5290              		.loc 1 1964 39
 5291 03c6 3B6A     		ldr	r3, [r7, #32]
 5292 03c8 5A08     		lsrs	r2, r3, #1
1963:Drivers/VL53L0X/core/src/vl53l0x_api_core.c **** 				finalRangeIntegrationTimeMilliSecs/2)/
 5293              		.loc 1 1963 59
 5294 03ca D7F88830 		ldr	r3, [r7, #136]
 5295 03ce 1A44     		add	r2, r2, r3
1963:Drivers/VL53L0X/core/src/vl53l0x_api_core.c **** 				finalRangeIntegrationTimeMilliSecs/2)/
 5296              		.loc 1 1963 4
 5297 03d0 3B6A     		ldr	r3, [r7, #32]
 5298 03d2 B2FBF3F3 		udiv	r3, r2, r3
 5299 03d6 1846     		mov	r0, r3
 5300 03d8 FFF7FEFF 		bl	VL53L0X_isqrt
 5301 03dc F861     		str	r0, [r7, #28]
1965:Drivers/VL53L0X/core/src/vl53l0x_api_core.c **** 				finalRangeIntegrationTimeMilliSecs);
1966:Drivers/VL53L0X/core/src/vl53l0x_api_core.c **** 
1967:Drivers/VL53L0X/core/src/vl53l0x_api_core.c **** 		/* FixPoint2408 << 8 = FixPoint1616 */
1968:Drivers/VL53L0X/core/src/vl53l0x_api_core.c **** 		sigmaEstRef <<= 8;
 5302              		.loc 1 1968 15
 5303 03de FB69     		ldr	r3, [r7, #28]
ARM GAS  C:\Users\Morroway\AppData\Local\Temp\ccKjJYc2.s 			page 129


 5304 03e0 1B02     		lsls	r3, r3, #8
 5305 03e2 FB61     		str	r3, [r7, #28]
1969:Drivers/VL53L0X/core/src/vl53l0x_api_core.c **** 		sigmaEstRef = (sigmaEstRef + 500)/1000;
 5306              		.loc 1 1969 30
 5307 03e4 FB69     		ldr	r3, [r7, #28]
 5308 03e6 03F5FA73 		add	r3, r3, #500
 5309              		.loc 1 1969 15
 5310 03ea 2A4A     		ldr	r2, .L211+8
 5311 03ec A2FB0323 		umull	r2, r3, r2, r3
 5312 03f0 9B09     		lsrs	r3, r3, #6
 5313 03f2 FB61     		str	r3, [r7, #28]
1970:Drivers/VL53L0X/core/src/vl53l0x_api_core.c **** 
1971:Drivers/VL53L0X/core/src/vl53l0x_api_core.c **** 		/* FixPoint1616 * FixPoint1616 = FixPoint3232 */
1972:Drivers/VL53L0X/core/src/vl53l0x_api_core.c **** 		sqr1 = sigmaEstRtn * sigmaEstRtn;
 5314              		.loc 1 1972 8
 5315 03f4 D7F8A830 		ldr	r3, [r7, #168]
 5316 03f8 03FB03F3 		mul	r3, r3, r3
 5317 03fc 3B63     		str	r3, [r7, #48]
1973:Drivers/VL53L0X/core/src/vl53l0x_api_core.c **** 		/* FixPoint1616 * FixPoint1616 = FixPoint3232 */
1974:Drivers/VL53L0X/core/src/vl53l0x_api_core.c **** 		sqr2 = sigmaEstRef * sigmaEstRef;
 5318              		.loc 1 1974 8
 5319 03fe FB69     		ldr	r3, [r7, #28]
 5320 0400 03FB03F3 		mul	r3, r3, r3
 5321 0404 FB62     		str	r3, [r7, #44]
1975:Drivers/VL53L0X/core/src/vl53l0x_api_core.c **** 
1976:Drivers/VL53L0X/core/src/vl53l0x_api_core.c **** 		/* sqrt(FixPoint3232) = FixPoint1616 */
1977:Drivers/VL53L0X/core/src/vl53l0x_api_core.c **** 		sqrtResult = VL53L0X_isqrt((sqr1 + sqr2));
 5322              		.loc 1 1977 16
 5323 0406 3A6B     		ldr	r2, [r7, #48]
 5324 0408 FB6A     		ldr	r3, [r7, #44]
 5325 040a 1344     		add	r3, r3, r2
 5326 040c 1846     		mov	r0, r3
 5327 040e FFF7FEFF 		bl	VL53L0X_isqrt
 5328 0412 B861     		str	r0, [r7, #24]
1978:Drivers/VL53L0X/core/src/vl53l0x_api_core.c **** 		/*
1979:Drivers/VL53L0X/core/src/vl53l0x_api_core.c **** 		 * Note that the Shift by 4 bits increases resolution prior to
1980:Drivers/VL53L0X/core/src/vl53l0x_api_core.c **** 		 * the sqrt, therefore the result must be shifted by 2 bits to
1981:Drivers/VL53L0X/core/src/vl53l0x_api_core.c **** 		 * the right to revert back to the FixPoint1616 format.
1982:Drivers/VL53L0X/core/src/vl53l0x_api_core.c **** 		 */
1983:Drivers/VL53L0X/core/src/vl53l0x_api_core.c **** 
1984:Drivers/VL53L0X/core/src/vl53l0x_api_core.c **** 		sigmaEstimate	 = 1000 * sqrtResult;
 5329              		.loc 1 1984 18
 5330 0414 BB69     		ldr	r3, [r7, #24]
 5331 0416 4FF47A72 		mov	r2, #1000
 5332 041a 02FB03F3 		mul	r3, r2, r3
 5333 041e C7F8A430 		str	r3, [r7, #164]
1985:Drivers/VL53L0X/core/src/vl53l0x_api_core.c **** 
1986:Drivers/VL53L0X/core/src/vl53l0x_api_core.c **** 		if ((peakSignalRate_kcps < 1) || (vcselTotalEventsRtn < 1) ||
 5334              		.loc 1 1986 6
 5335 0422 FB6D     		ldr	r3, [r7, #92]
 5336 0424 002B     		cmp	r3, #0
 5337 0426 09D0     		beq	.L206
 5338              		.loc 1 1986 33 discriminator 1
 5339 0428 D7F8BC30 		ldr	r3, [r7, #188]
 5340 042c 002B     		cmp	r3, #0
 5341 042e 05D0     		beq	.L206
 5342              		.loc 1 1986 62 discriminator 2
ARM GAS  C:\Users\Morroway\AppData\Local\Temp\ccKjJYc2.s 			page 130


 5343 0430 D7F8A420 		ldr	r2, [r7, #164]
 5344 0434 D7F88030 		ldr	r3, [r7, #128]
 5345 0438 9A42     		cmp	r2, r3
 5346 043a 03D9     		bls	.L207
 5347              	.L206:
1987:Drivers/VL53L0X/core/src/vl53l0x_api_core.c **** 				(sigmaEstimate > cSigmaEstMax)) {
1988:Drivers/VL53L0X/core/src/vl53l0x_api_core.c **** 				sigmaEstimate = cSigmaEstMax;
 5348              		.loc 1 1988 19
 5349 043c D7F88030 		ldr	r3, [r7, #128]
 5350 0440 C7F8A430 		str	r3, [r7, #164]
 5351              	.L207:
1989:Drivers/VL53L0X/core/src/vl53l0x_api_core.c **** 		}
1990:Drivers/VL53L0X/core/src/vl53l0x_api_core.c **** 
1991:Drivers/VL53L0X/core/src/vl53l0x_api_core.c **** 		*pSigmaEstimate = (uint32_t)(sigmaEstimate);
 5352              		.loc 1 1991 19
 5353 0444 7B68     		ldr	r3, [r7, #4]
 5354 0446 D7F8A420 		ldr	r2, [r7, #164]
 5355 044a 1A60     		str	r2, [r3]
1992:Drivers/VL53L0X/core/src/vl53l0x_api_core.c **** 		PALDevDataSet(Dev, SigmaEstimate, *pSigmaEstimate);
 5356              		.loc 1 1992 3
 5357 044c 7B68     		ldr	r3, [r7, #4]
 5358 044e 1A68     		ldr	r2, [r3]
 5359 0450 FB68     		ldr	r3, [r7, #12]
 5360 0452 C3F84021 		str	r2, [r3, #320]
1993:Drivers/VL53L0X/core/src/vl53l0x_api_core.c **** 		Status = VL53L0X_calc_dmax(
 5361              		.loc 1 1993 12
 5362 0456 3969     		ldr	r1, [r7, #16]
 5363 0458 3B68     		ldr	r3, [r7]
 5364 045a 0393     		str	r3, [sp, #12]
 5365 045c D7F89430 		ldr	r3, [r7, #148]
 5366 0460 0293     		str	r3, [sp, #8]
 5367 0462 D7F8B030 		ldr	r3, [r7, #176]
 5368 0466 0193     		str	r3, [sp, #4]
 5369 0468 BB6C     		ldr	r3, [r7, #72]
 5370 046a 0093     		str	r3, [sp]
 5371 046c D7F8AC30 		ldr	r3, [r7, #172]
 5372 0470 3A6E     		ldr	r2, [r7, #96]
 5373 0472 F868     		ldr	r0, [r7, #12]
 5374 0474 FFF7FEFF 		bl	VL53L0X_calc_dmax
 5375 0478 0346     		mov	r3, r0
 5376 047a 87F89F30 		strb	r3, [r7, #159]
 5377              	.L200:
1994:Drivers/VL53L0X/core/src/vl53l0x_api_core.c **** 			Dev,
1995:Drivers/VL53L0X/core/src/vl53l0x_api_core.c **** 			totalSignalRate_mcps,
1996:Drivers/VL53L0X/core/src/vl53l0x_api_core.c **** 			correctedSignalRate_mcps,
1997:Drivers/VL53L0X/core/src/vl53l0x_api_core.c **** 			pwMult,
1998:Drivers/VL53L0X/core/src/vl53l0x_api_core.c **** 			sigmaEstimateP1,
1999:Drivers/VL53L0X/core/src/vl53l0x_api_core.c **** 			sigmaEstimateP2,
2000:Drivers/VL53L0X/core/src/vl53l0x_api_core.c **** 			peakVcselDuration_us,
2001:Drivers/VL53L0X/core/src/vl53l0x_api_core.c **** 			pDmax_mm);
2002:Drivers/VL53L0X/core/src/vl53l0x_api_core.c **** 	}
2003:Drivers/VL53L0X/core/src/vl53l0x_api_core.c **** 
2004:Drivers/VL53L0X/core/src/vl53l0x_api_core.c **** 	LOG_FUNCTION_END(Status);
2005:Drivers/VL53L0X/core/src/vl53l0x_api_core.c **** 	return Status;
 5378              		.loc 1 2005 9
 5379 047e 97F99F30 		ldrsb	r3, [r7, #159]
 5380              	.L208:
ARM GAS  C:\Users\Morroway\AppData\Local\Temp\ccKjJYc2.s 			page 131


2006:Drivers/VL53L0X/core/src/vl53l0x_api_core.c **** }
 5381              		.loc 1 2006 1 discriminator 1
 5382 0482 1846     		mov	r0, r3
 5383 0484 C037     		adds	r7, r7, #192
 5384              		.cfi_def_cfa_offset 8
 5385 0486 BD46     		mov	sp, r7
 5386              		.cfi_def_cfa_register 13
 5387              		@ sp needed
 5388 0488 80BD     		pop	{r7, pc}
 5389              	.L212:
 5390 048a 00BF     		.align	2
 5391              	.L211:
 5392 048c 1F85EB51 		.word	1374389535
 5393 0490 5917B7D1 		.word	-776530087
 5394 0494 D34D6210 		.word	274877907
 5395              		.cfi_endproc
 5396              	.LFE347:
 5398              		.section	.text.VL53L0X_get_pal_range_status,"ax",%progbits
 5399              		.align	1
 5400              		.global	VL53L0X_get_pal_range_status
 5401              		.syntax unified
 5402              		.thumb
 5403              		.thumb_func
 5405              	VL53L0X_get_pal_range_status:
 5406              	.LFB348:
2007:Drivers/VL53L0X/core/src/vl53l0x_api_core.c **** 
2008:Drivers/VL53L0X/core/src/vl53l0x_api_core.c **** VL53L0X_Error VL53L0X_get_pal_range_status(VL53L0X_DEV Dev,
2009:Drivers/VL53L0X/core/src/vl53l0x_api_core.c **** 		uint8_t DeviceRangeStatus,
2010:Drivers/VL53L0X/core/src/vl53l0x_api_core.c **** 		FixPoint1616_t SignalRate,
2011:Drivers/VL53L0X/core/src/vl53l0x_api_core.c **** 		uint16_t EffectiveSpadRtnCount,
2012:Drivers/VL53L0X/core/src/vl53l0x_api_core.c **** 		VL53L0X_RangingMeasurementData_t *pRangingMeasurementData,
2013:Drivers/VL53L0X/core/src/vl53l0x_api_core.c **** 		uint8_t *pPalRangeStatus)
2014:Drivers/VL53L0X/core/src/vl53l0x_api_core.c **** {
 5407              		.loc 1 2014 1
 5408              		.cfi_startproc
 5409              		@ args = 8, pretend = 0, frame = 64
 5410              		@ frame_needed = 1, uses_anonymous_args = 0
 5411 0000 80B5     		push	{r7, lr}
 5412              		.cfi_def_cfa_offset 8
 5413              		.cfi_offset 7, -8
 5414              		.cfi_offset 14, -4
 5415 0002 90B0     		sub	sp, sp, #64
 5416              		.cfi_def_cfa_offset 72
 5417 0004 00AF     		add	r7, sp, #0
 5418              		.cfi_def_cfa_register 7
 5419 0006 F860     		str	r0, [r7, #12]
 5420 0008 7A60     		str	r2, [r7, #4]
 5421 000a 1A46     		mov	r2, r3
 5422 000c 0B46     		mov	r3, r1
 5423 000e FB72     		strb	r3, [r7, #11]
 5424 0010 1346     		mov	r3, r2	@ movhi
 5425 0012 3B81     		strh	r3, [r7, #8]	@ movhi
2015:Drivers/VL53L0X/core/src/vl53l0x_api_core.c **** 	VL53L0X_Error Status = VL53L0X_ERROR_NONE;
 5426              		.loc 1 2015 16
 5427 0014 0023     		movs	r3, #0
 5428 0016 87F83F30 		strb	r3, [r7, #63]
2016:Drivers/VL53L0X/core/src/vl53l0x_api_core.c **** 	uint8_t NoneFlag;
ARM GAS  C:\Users\Morroway\AppData\Local\Temp\ccKjJYc2.s 			page 132


2017:Drivers/VL53L0X/core/src/vl53l0x_api_core.c **** 	uint8_t SigmaLimitflag = 0;
 5429              		.loc 1 2017 10
 5430 001a 0023     		movs	r3, #0
 5431 001c 87F83D30 		strb	r3, [r7, #61]
2018:Drivers/VL53L0X/core/src/vl53l0x_api_core.c **** 	uint8_t SignalRefClipflag = 0;
 5432              		.loc 1 2018 10
 5433 0020 0023     		movs	r3, #0
 5434 0022 87F83C30 		strb	r3, [r7, #60]
2019:Drivers/VL53L0X/core/src/vl53l0x_api_core.c **** 	uint8_t RangeIgnoreThresholdflag = 0;
 5435              		.loc 1 2019 10
 5436 0026 0023     		movs	r3, #0
 5437 0028 87F83B30 		strb	r3, [r7, #59]
2020:Drivers/VL53L0X/core/src/vl53l0x_api_core.c **** 	uint8_t SigmaLimitCheckEnable = 0;
 5438              		.loc 1 2020 10
 5439 002c 0023     		movs	r3, #0
 5440 002e 87F82B30 		strb	r3, [r7, #43]
2021:Drivers/VL53L0X/core/src/vl53l0x_api_core.c **** 	uint8_t SignalRateFinalRangeLimitCheckEnable = 0;
 5441              		.loc 1 2021 10
 5442 0032 0023     		movs	r3, #0
 5443 0034 87F82A30 		strb	r3, [r7, #42]
2022:Drivers/VL53L0X/core/src/vl53l0x_api_core.c **** 	uint8_t SignalRefClipLimitCheckEnable = 0;
 5444              		.loc 1 2022 10
 5445 0038 0023     		movs	r3, #0
 5446 003a 87F82930 		strb	r3, [r7, #41]
2023:Drivers/VL53L0X/core/src/vl53l0x_api_core.c **** 	uint8_t RangeIgnoreThresholdLimitCheckEnable = 0;
 5447              		.loc 1 2023 10
 5448 003e 0023     		movs	r3, #0
 5449 0040 87F82830 		strb	r3, [r7, #40]
2024:Drivers/VL53L0X/core/src/vl53l0x_api_core.c **** 	FixPoint1616_t SigmaEstimate;
2025:Drivers/VL53L0X/core/src/vl53l0x_api_core.c **** 	FixPoint1616_t SigmaLimitValue;
2026:Drivers/VL53L0X/core/src/vl53l0x_api_core.c **** 	FixPoint1616_t SignalRefClipValue;
2027:Drivers/VL53L0X/core/src/vl53l0x_api_core.c **** 	FixPoint1616_t RangeIgnoreThresholdValue;
2028:Drivers/VL53L0X/core/src/vl53l0x_api_core.c **** 	FixPoint1616_t SignalRatePerSpad;
2029:Drivers/VL53L0X/core/src/vl53l0x_api_core.c **** 	uint8_t DeviceRangeStatusInternal = 0;
 5450              		.loc 1 2029 10
 5451 0044 0023     		movs	r3, #0
 5452 0046 87F83230 		strb	r3, [r7, #50]
2030:Drivers/VL53L0X/core/src/vl53l0x_api_core.c **** 	uint16_t tmpWord = 0;
 5453              		.loc 1 2030 11
 5454 004a 0023     		movs	r3, #0
 5455 004c FB82     		strh	r3, [r7, #22]	@ movhi
2031:Drivers/VL53L0X/core/src/vl53l0x_api_core.c **** 	uint8_t Temp8;
2032:Drivers/VL53L0X/core/src/vl53l0x_api_core.c **** 	uint32_t Dmax_mm = 0;
 5456              		.loc 1 2032 11
 5457 004e 0023     		movs	r3, #0
 5458 0050 3B61     		str	r3, [r7, #16]
2033:Drivers/VL53L0X/core/src/vl53l0x_api_core.c **** 	FixPoint1616_t LastSignalRefMcps;
2034:Drivers/VL53L0X/core/src/vl53l0x_api_core.c **** 
2035:Drivers/VL53L0X/core/src/vl53l0x_api_core.c **** 	LOG_FUNCTION_START("");
2036:Drivers/VL53L0X/core/src/vl53l0x_api_core.c **** 
2037:Drivers/VL53L0X/core/src/vl53l0x_api_core.c **** 
2038:Drivers/VL53L0X/core/src/vl53l0x_api_core.c **** 	/*
2039:Drivers/VL53L0X/core/src/vl53l0x_api_core.c **** 	 * VL53L0X has a good ranging when the value of the
2040:Drivers/VL53L0X/core/src/vl53l0x_api_core.c **** 	 * DeviceRangeStatus = 11. This function will replace the value 0 with
2041:Drivers/VL53L0X/core/src/vl53l0x_api_core.c **** 	 * the value 11 in the DeviceRangeStatus.
2042:Drivers/VL53L0X/core/src/vl53l0x_api_core.c **** 	 * In addition, the SigmaEstimator is not included in the VL53L0X
2043:Drivers/VL53L0X/core/src/vl53l0x_api_core.c **** 	 * DeviceRangeStatus, this will be added in the PalRangeStatus.
ARM GAS  C:\Users\Morroway\AppData\Local\Temp\ccKjJYc2.s 			page 133


2044:Drivers/VL53L0X/core/src/vl53l0x_api_core.c **** 	 */
2045:Drivers/VL53L0X/core/src/vl53l0x_api_core.c **** 
2046:Drivers/VL53L0X/core/src/vl53l0x_api_core.c **** 	DeviceRangeStatusInternal = ((DeviceRangeStatus & 0x78) >> 3);
 5459              		.loc 1 2046 58
 5460 0052 FB7A     		ldrb	r3, [r7, #11]	@ zero_extendqisi2
 5461 0054 DB10     		asrs	r3, r3, #3
 5462 0056 DBB2     		uxtb	r3, r3
 5463              		.loc 1 2046 28
 5464 0058 03F00F03 		and	r3, r3, #15
 5465 005c 87F83230 		strb	r3, [r7, #50]
2047:Drivers/VL53L0X/core/src/vl53l0x_api_core.c **** 
2048:Drivers/VL53L0X/core/src/vl53l0x_api_core.c **** 	if (DeviceRangeStatusInternal == 0 ||
 5466              		.loc 1 2048 5
 5467 0060 97F83230 		ldrb	r3, [r7, #50]	@ zero_extendqisi2
 5468 0064 002B     		cmp	r3, #0
 5469 0066 17D0     		beq	.L214
 5470              		.loc 1 2048 37 discriminator 1
 5471 0068 97F83230 		ldrb	r3, [r7, #50]	@ zero_extendqisi2
 5472 006c 052B     		cmp	r3, #5
 5473 006e 13D0     		beq	.L214
2049:Drivers/VL53L0X/core/src/vl53l0x_api_core.c **** 		DeviceRangeStatusInternal == 5 ||
 5474              		.loc 1 2049 34
 5475 0070 97F83230 		ldrb	r3, [r7, #50]	@ zero_extendqisi2
 5476 0074 072B     		cmp	r3, #7
 5477 0076 0FD0     		beq	.L214
2050:Drivers/VL53L0X/core/src/vl53l0x_api_core.c **** 		DeviceRangeStatusInternal == 7 ||
 5478              		.loc 1 2050 34
 5479 0078 97F83230 		ldrb	r3, [r7, #50]	@ zero_extendqisi2
 5480 007c 0C2B     		cmp	r3, #12
 5481 007e 0BD0     		beq	.L214
2051:Drivers/VL53L0X/core/src/vl53l0x_api_core.c **** 		DeviceRangeStatusInternal == 12 ||
 5482              		.loc 1 2051 35
 5483 0080 97F83230 		ldrb	r3, [r7, #50]	@ zero_extendqisi2
 5484 0084 0D2B     		cmp	r3, #13
 5485 0086 07D0     		beq	.L214
2052:Drivers/VL53L0X/core/src/vl53l0x_api_core.c **** 		DeviceRangeStatusInternal == 13 ||
 5486              		.loc 1 2052 35
 5487 0088 97F83230 		ldrb	r3, [r7, #50]	@ zero_extendqisi2
 5488 008c 0E2B     		cmp	r3, #14
 5489 008e 03D0     		beq	.L214
2053:Drivers/VL53L0X/core/src/vl53l0x_api_core.c **** 		DeviceRangeStatusInternal == 14 ||
 5490              		.loc 1 2053 35
 5491 0090 97F83230 		ldrb	r3, [r7, #50]	@ zero_extendqisi2
 5492 0094 0F2B     		cmp	r3, #15
 5493 0096 03D1     		bne	.L215
 5494              	.L214:
2054:Drivers/VL53L0X/core/src/vl53l0x_api_core.c **** 		DeviceRangeStatusInternal == 15
2055:Drivers/VL53L0X/core/src/vl53l0x_api_core.c **** 			) {
2056:Drivers/VL53L0X/core/src/vl53l0x_api_core.c **** 		NoneFlag = 1;
 5495              		.loc 1 2056 12
 5496 0098 0123     		movs	r3, #1
 5497 009a 87F83E30 		strb	r3, [r7, #62]
 5498 009e 02E0     		b	.L216
 5499              	.L215:
2057:Drivers/VL53L0X/core/src/vl53l0x_api_core.c **** 	} else {
2058:Drivers/VL53L0X/core/src/vl53l0x_api_core.c **** 		NoneFlag = 0;
 5500              		.loc 1 2058 12
ARM GAS  C:\Users\Morroway\AppData\Local\Temp\ccKjJYc2.s 			page 134


 5501 00a0 0023     		movs	r3, #0
 5502 00a2 87F83E30 		strb	r3, [r7, #62]
 5503              	.L216:
2059:Drivers/VL53L0X/core/src/vl53l0x_api_core.c **** 	}
2060:Drivers/VL53L0X/core/src/vl53l0x_api_core.c **** 
2061:Drivers/VL53L0X/core/src/vl53l0x_api_core.c **** 	/*
2062:Drivers/VL53L0X/core/src/vl53l0x_api_core.c **** 	 * Check if Sigma limit is enabled, if yes then do comparison with limit
2063:Drivers/VL53L0X/core/src/vl53l0x_api_core.c **** 	 * value and put the result back into pPalRangeStatus.
2064:Drivers/VL53L0X/core/src/vl53l0x_api_core.c **** 	 */
2065:Drivers/VL53L0X/core/src/vl53l0x_api_core.c **** 	if (Status == VL53L0X_ERROR_NONE)
 5504              		.loc 1 2065 5
 5505 00a6 97F93F30 		ldrsb	r3, [r7, #63]
 5506 00aa 002B     		cmp	r3, #0
 5507 00ac 09D1     		bne	.L217
2066:Drivers/VL53L0X/core/src/vl53l0x_api_core.c **** 		Status =  VL53L0X_GetLimitCheckEnable(Dev,
 5508              		.loc 1 2066 13
 5509 00ae 07F12B03 		add	r3, r7, #43
 5510 00b2 1A46     		mov	r2, r3
 5511 00b4 0021     		movs	r1, #0
 5512 00b6 F868     		ldr	r0, [r7, #12]
 5513 00b8 FFF7FEFF 		bl	VL53L0X_GetLimitCheckEnable
 5514 00bc 0346     		mov	r3, r0
 5515 00be 87F83F30 		strb	r3, [r7, #63]
 5516              	.L217:
2067:Drivers/VL53L0X/core/src/vl53l0x_api_core.c **** 			VL53L0X_CHECKENABLE_SIGMA_FINAL_RANGE,
2068:Drivers/VL53L0X/core/src/vl53l0x_api_core.c **** 			&SigmaLimitCheckEnable);
2069:Drivers/VL53L0X/core/src/vl53l0x_api_core.c **** 
2070:Drivers/VL53L0X/core/src/vl53l0x_api_core.c **** 	if ((SigmaLimitCheckEnable != 0) && (Status == VL53L0X_ERROR_NONE)) {
 5517              		.loc 1 2070 29
 5518 00c2 97F82B30 		ldrb	r3, [r7, #43]	@ zero_extendqisi2
 5519              		.loc 1 2070 5
 5520 00c6 002B     		cmp	r3, #0
 5521 00c8 2ED0     		beq	.L218
 5522              		.loc 1 2070 35 discriminator 1
 5523 00ca 97F93F30 		ldrsb	r3, [r7, #63]
 5524 00ce 002B     		cmp	r3, #0
 5525 00d0 2AD1     		bne	.L218
2071:Drivers/VL53L0X/core/src/vl53l0x_api_core.c **** 		/*
2072:Drivers/VL53L0X/core/src/vl53l0x_api_core.c **** 		* compute the Sigma and check with limit
2073:Drivers/VL53L0X/core/src/vl53l0x_api_core.c **** 		*/
2074:Drivers/VL53L0X/core/src/vl53l0x_api_core.c **** 		Status = VL53L0X_calc_sigma_estimate(
 5526              		.loc 1 2074 12
 5527 00d2 07F11003 		add	r3, r7, #16
 5528 00d6 07F12402 		add	r2, r7, #36
 5529 00da B96C     		ldr	r1, [r7, #72]
 5530 00dc F868     		ldr	r0, [r7, #12]
 5531 00de FFF7FEFF 		bl	VL53L0X_calc_sigma_estimate
 5532 00e2 0346     		mov	r3, r0
 5533 00e4 87F83F30 		strb	r3, [r7, #63]
2075:Drivers/VL53L0X/core/src/vl53l0x_api_core.c **** 			Dev,
2076:Drivers/VL53L0X/core/src/vl53l0x_api_core.c **** 			pRangingMeasurementData,
2077:Drivers/VL53L0X/core/src/vl53l0x_api_core.c **** 			&SigmaEstimate,
2078:Drivers/VL53L0X/core/src/vl53l0x_api_core.c **** 			&Dmax_mm);
2079:Drivers/VL53L0X/core/src/vl53l0x_api_core.c **** 		if (Status == VL53L0X_ERROR_NONE)
 5534              		.loc 1 2079 6
 5535 00e8 97F93F30 		ldrsb	r3, [r7, #63]
 5536 00ec 002B     		cmp	r3, #0
ARM GAS  C:\Users\Morroway\AppData\Local\Temp\ccKjJYc2.s 			page 135


 5537 00ee 03D1     		bne	.L219
2080:Drivers/VL53L0X/core/src/vl53l0x_api_core.c **** 			pRangingMeasurementData->RangeDMaxMilliMeter = Dmax_mm;
 5538              		.loc 1 2080 49
 5539 00f0 3B69     		ldr	r3, [r7, #16]
 5540 00f2 9AB2     		uxth	r2, r3
 5541 00f4 BB6C     		ldr	r3, [r7, #72]
 5542 00f6 5A81     		strh	r2, [r3, #10]	@ movhi
 5543              	.L219:
2081:Drivers/VL53L0X/core/src/vl53l0x_api_core.c **** 
2082:Drivers/VL53L0X/core/src/vl53l0x_api_core.c **** 		if (Status == VL53L0X_ERROR_NONE) {
 5544              		.loc 1 2082 6
 5545 00f8 97F93F30 		ldrsb	r3, [r7, #63]
 5546 00fc 002B     		cmp	r3, #0
 5547 00fe 13D1     		bne	.L218
2083:Drivers/VL53L0X/core/src/vl53l0x_api_core.c **** 			Status = VL53L0X_GetLimitCheckValue(Dev,
 5548              		.loc 1 2083 13
 5549 0100 07F12003 		add	r3, r7, #32
 5550 0104 1A46     		mov	r2, r3
 5551 0106 0021     		movs	r1, #0
 5552 0108 F868     		ldr	r0, [r7, #12]
 5553 010a FFF7FEFF 		bl	VL53L0X_GetLimitCheckValue
 5554 010e 0346     		mov	r3, r0
 5555 0110 87F83F30 		strb	r3, [r7, #63]
2084:Drivers/VL53L0X/core/src/vl53l0x_api_core.c **** 				VL53L0X_CHECKENABLE_SIGMA_FINAL_RANGE,
2085:Drivers/VL53L0X/core/src/vl53l0x_api_core.c **** 				&SigmaLimitValue);
2086:Drivers/VL53L0X/core/src/vl53l0x_api_core.c **** 
2087:Drivers/VL53L0X/core/src/vl53l0x_api_core.c **** 			if ((SigmaLimitValue > 0) &&
 5556              		.loc 1 2087 25
 5557 0114 3B6A     		ldr	r3, [r7, #32]
 5558              		.loc 1 2087 7
 5559 0116 002B     		cmp	r3, #0
 5560 0118 06D0     		beq	.L218
2088:Drivers/VL53L0X/core/src/vl53l0x_api_core.c **** 				(SigmaEstimate > SigmaLimitValue))
 5561              		.loc 1 2088 20 discriminator 1
 5562 011a 7A6A     		ldr	r2, [r7, #36]
 5563 011c 3B6A     		ldr	r3, [r7, #32]
2087:Drivers/VL53L0X/core/src/vl53l0x_api_core.c **** 				(SigmaEstimate > SigmaLimitValue))
 5564              		.loc 1 2087 30 discriminator 1
 5565 011e 9A42     		cmp	r2, r3
 5566 0120 02D9     		bls	.L218
2089:Drivers/VL53L0X/core/src/vl53l0x_api_core.c **** 					/* Limit Fail */
2090:Drivers/VL53L0X/core/src/vl53l0x_api_core.c **** 					SigmaLimitflag = 1;
 5567              		.loc 1 2090 21
 5568 0122 0123     		movs	r3, #1
 5569 0124 87F83D30 		strb	r3, [r7, #61]
 5570              	.L218:
2091:Drivers/VL53L0X/core/src/vl53l0x_api_core.c **** 		}
2092:Drivers/VL53L0X/core/src/vl53l0x_api_core.c **** 	}
2093:Drivers/VL53L0X/core/src/vl53l0x_api_core.c **** 
2094:Drivers/VL53L0X/core/src/vl53l0x_api_core.c **** 	/*
2095:Drivers/VL53L0X/core/src/vl53l0x_api_core.c **** 	 * Check if Signal ref clip limit is enabled, if yes then do comparison
2096:Drivers/VL53L0X/core/src/vl53l0x_api_core.c **** 	 * with limit value and put the result back into pPalRangeStatus.
2097:Drivers/VL53L0X/core/src/vl53l0x_api_core.c **** 	 */
2098:Drivers/VL53L0X/core/src/vl53l0x_api_core.c **** 	if (Status == VL53L0X_ERROR_NONE)
 5571              		.loc 1 2098 5
 5572 0128 97F93F30 		ldrsb	r3, [r7, #63]
 5573 012c 002B     		cmp	r3, #0
ARM GAS  C:\Users\Morroway\AppData\Local\Temp\ccKjJYc2.s 			page 136


 5574 012e 09D1     		bne	.L220
2099:Drivers/VL53L0X/core/src/vl53l0x_api_core.c **** 		Status =  VL53L0X_GetLimitCheckEnable(Dev,
 5575              		.loc 1 2099 13
 5576 0130 07F12903 		add	r3, r7, #41
 5577 0134 1A46     		mov	r2, r3
 5578 0136 0221     		movs	r1, #2
 5579 0138 F868     		ldr	r0, [r7, #12]
 5580 013a FFF7FEFF 		bl	VL53L0X_GetLimitCheckEnable
 5581 013e 0346     		mov	r3, r0
 5582 0140 87F83F30 		strb	r3, [r7, #63]
 5583              	.L220:
2100:Drivers/VL53L0X/core/src/vl53l0x_api_core.c **** 				VL53L0X_CHECKENABLE_SIGNAL_REF_CLIP,
2101:Drivers/VL53L0X/core/src/vl53l0x_api_core.c **** 				&SignalRefClipLimitCheckEnable);
2102:Drivers/VL53L0X/core/src/vl53l0x_api_core.c **** 
2103:Drivers/VL53L0X/core/src/vl53l0x_api_core.c **** 	if ((SignalRefClipLimitCheckEnable != 0) &&
 5584              		.loc 1 2103 37
 5585 0144 97F82930 		ldrb	r3, [r7, #41]	@ zero_extendqisi2
 5586              		.loc 1 2103 5
 5587 0148 002B     		cmp	r3, #0
 5588 014a 44D0     		beq	.L221
 5589              		.loc 1 2103 43 discriminator 1
 5590 014c 97F93F30 		ldrsb	r3, [r7, #63]
 5591 0150 002B     		cmp	r3, #0
 5592 0152 40D1     		bne	.L221
2104:Drivers/VL53L0X/core/src/vl53l0x_api_core.c **** 			(Status == VL53L0X_ERROR_NONE)) {
2105:Drivers/VL53L0X/core/src/vl53l0x_api_core.c **** 
2106:Drivers/VL53L0X/core/src/vl53l0x_api_core.c **** 		Status = VL53L0X_GetLimitCheckValue(Dev,
 5593              		.loc 1 2106 12
 5594 0154 07F11C03 		add	r3, r7, #28
 5595 0158 1A46     		mov	r2, r3
 5596 015a 0221     		movs	r1, #2
 5597 015c F868     		ldr	r0, [r7, #12]
 5598 015e FFF7FEFF 		bl	VL53L0X_GetLimitCheckValue
 5599 0162 0346     		mov	r3, r0
 5600 0164 87F83F30 		strb	r3, [r7, #63]
2107:Drivers/VL53L0X/core/src/vl53l0x_api_core.c **** 				VL53L0X_CHECKENABLE_SIGNAL_REF_CLIP,
2108:Drivers/VL53L0X/core/src/vl53l0x_api_core.c **** 				&SignalRefClipValue);
2109:Drivers/VL53L0X/core/src/vl53l0x_api_core.c **** 
2110:Drivers/VL53L0X/core/src/vl53l0x_api_core.c **** 		/* Read LastSignalRefMcps from device */
2111:Drivers/VL53L0X/core/src/vl53l0x_api_core.c **** 		if (Status == VL53L0X_ERROR_NONE)
 5601              		.loc 1 2111 6
 5602 0168 97F93F30 		ldrsb	r3, [r7, #63]
 5603 016c 002B     		cmp	r3, #0
 5604 016e 07D1     		bne	.L222
2112:Drivers/VL53L0X/core/src/vl53l0x_api_core.c **** 			Status = VL53L0X_WrByte(Dev, 0xFF, 0x01);
 5605              		.loc 1 2112 13
 5606 0170 0122     		movs	r2, #1
 5607 0172 FF21     		movs	r1, #255
 5608 0174 F868     		ldr	r0, [r7, #12]
 5609 0176 FFF7FEFF 		bl	VL53L0X_WrByte
 5610 017a 0346     		mov	r3, r0
 5611 017c 87F83F30 		strb	r3, [r7, #63]
 5612              	.L222:
2113:Drivers/VL53L0X/core/src/vl53l0x_api_core.c **** 
2114:Drivers/VL53L0X/core/src/vl53l0x_api_core.c **** 		if (Status == VL53L0X_ERROR_NONE)
 5613              		.loc 1 2114 6
 5614 0180 97F93F30 		ldrsb	r3, [r7, #63]
ARM GAS  C:\Users\Morroway\AppData\Local\Temp\ccKjJYc2.s 			page 137


 5615 0184 002B     		cmp	r3, #0
 5616 0186 09D1     		bne	.L223
2115:Drivers/VL53L0X/core/src/vl53l0x_api_core.c **** 			Status = VL53L0X_RdWord(Dev,
 5617              		.loc 1 2115 13
 5618 0188 07F11603 		add	r3, r7, #22
 5619 018c 1A46     		mov	r2, r3
 5620 018e B621     		movs	r1, #182
 5621 0190 F868     		ldr	r0, [r7, #12]
 5622 0192 FFF7FEFF 		bl	VL53L0X_RdWord
 5623 0196 0346     		mov	r3, r0
 5624 0198 87F83F30 		strb	r3, [r7, #63]
 5625              	.L223:
2116:Drivers/VL53L0X/core/src/vl53l0x_api_core.c **** 				VL53L0X_REG_RESULT_PEAK_SIGNAL_RATE_REF,
2117:Drivers/VL53L0X/core/src/vl53l0x_api_core.c **** 				&tmpWord);
2118:Drivers/VL53L0X/core/src/vl53l0x_api_core.c **** 
2119:Drivers/VL53L0X/core/src/vl53l0x_api_core.c **** 		if (Status == VL53L0X_ERROR_NONE)
 5626              		.loc 1 2119 6
 5627 019c 97F93F30 		ldrsb	r3, [r7, #63]
 5628 01a0 002B     		cmp	r3, #0
 5629 01a2 07D1     		bne	.L224
2120:Drivers/VL53L0X/core/src/vl53l0x_api_core.c **** 			Status = VL53L0X_WrByte(Dev, 0xFF, 0x00);
 5630              		.loc 1 2120 13
 5631 01a4 0022     		movs	r2, #0
 5632 01a6 FF21     		movs	r1, #255
 5633 01a8 F868     		ldr	r0, [r7, #12]
 5634 01aa FFF7FEFF 		bl	VL53L0X_WrByte
 5635 01ae 0346     		mov	r3, r0
 5636 01b0 87F83F30 		strb	r3, [r7, #63]
 5637              	.L224:
2121:Drivers/VL53L0X/core/src/vl53l0x_api_core.c **** 
2122:Drivers/VL53L0X/core/src/vl53l0x_api_core.c **** 		LastSignalRefMcps = VL53L0X_FIXPOINT97TOFIXPOINT1616(tmpWord);
 5638              		.loc 1 2122 23
 5639 01b4 FB8A     		ldrh	r3, [r7, #22]
 5640 01b6 5B02     		lsls	r3, r3, #9
 5641              		.loc 1 2122 21
 5642 01b8 FB62     		str	r3, [r7, #44]
2123:Drivers/VL53L0X/core/src/vl53l0x_api_core.c **** 		PALDevDataSet(Dev, LastSignalRefMcps, LastSignalRefMcps);
 5643              		.loc 1 2123 3
 5644 01ba FB68     		ldr	r3, [r7, #12]
 5645 01bc FA6A     		ldr	r2, [r7, #44]
 5646 01be C3F84821 		str	r2, [r3, #328]
2124:Drivers/VL53L0X/core/src/vl53l0x_api_core.c **** 
2125:Drivers/VL53L0X/core/src/vl53l0x_api_core.c **** 		if ((SignalRefClipValue > 0) &&
 5647              		.loc 1 2125 27
 5648 01c2 FB69     		ldr	r3, [r7, #28]
 5649              		.loc 1 2125 6
 5650 01c4 002B     		cmp	r3, #0
 5651 01c6 06D0     		beq	.L221
2126:Drivers/VL53L0X/core/src/vl53l0x_api_core.c **** 				(LastSignalRefMcps > SignalRefClipValue)) {
 5652              		.loc 1 2126 24 discriminator 1
 5653 01c8 FB69     		ldr	r3, [r7, #28]
2125:Drivers/VL53L0X/core/src/vl53l0x_api_core.c **** 				(LastSignalRefMcps > SignalRefClipValue)) {
 5654              		.loc 1 2125 32 discriminator 1
 5655 01ca FA6A     		ldr	r2, [r7, #44]
 5656 01cc 9A42     		cmp	r2, r3
 5657 01ce 02D9     		bls	.L221
2127:Drivers/VL53L0X/core/src/vl53l0x_api_core.c **** 			/* Limit Fail */
ARM GAS  C:\Users\Morroway\AppData\Local\Temp\ccKjJYc2.s 			page 138


2128:Drivers/VL53L0X/core/src/vl53l0x_api_core.c **** 			SignalRefClipflag = 1;
 5658              		.loc 1 2128 22
 5659 01d0 0123     		movs	r3, #1
 5660 01d2 87F83C30 		strb	r3, [r7, #60]
 5661              	.L221:
2129:Drivers/VL53L0X/core/src/vl53l0x_api_core.c **** 		}
2130:Drivers/VL53L0X/core/src/vl53l0x_api_core.c **** 	}
2131:Drivers/VL53L0X/core/src/vl53l0x_api_core.c **** 
2132:Drivers/VL53L0X/core/src/vl53l0x_api_core.c **** 	/*
2133:Drivers/VL53L0X/core/src/vl53l0x_api_core.c **** 	 * Check if Signal ref clip limit is enabled, if yes then do comparison
2134:Drivers/VL53L0X/core/src/vl53l0x_api_core.c **** 	 * with limit value and put the result back into pPalRangeStatus.
2135:Drivers/VL53L0X/core/src/vl53l0x_api_core.c **** 	 * EffectiveSpadRtnCount has a format 8.8
2136:Drivers/VL53L0X/core/src/vl53l0x_api_core.c **** 	 * If (Return signal rate < (1.5 x Xtalk x number of Spads)) : FAIL
2137:Drivers/VL53L0X/core/src/vl53l0x_api_core.c **** 	 */
2138:Drivers/VL53L0X/core/src/vl53l0x_api_core.c **** 	if (Status == VL53L0X_ERROR_NONE)
 5662              		.loc 1 2138 5
 5663 01d6 97F93F30 		ldrsb	r3, [r7, #63]
 5664 01da 002B     		cmp	r3, #0
 5665 01dc 09D1     		bne	.L225
2139:Drivers/VL53L0X/core/src/vl53l0x_api_core.c **** 		Status =  VL53L0X_GetLimitCheckEnable(Dev,
 5666              		.loc 1 2139 13
 5667 01de 07F12803 		add	r3, r7, #40
 5668 01e2 1A46     		mov	r2, r3
 5669 01e4 0321     		movs	r1, #3
 5670 01e6 F868     		ldr	r0, [r7, #12]
 5671 01e8 FFF7FEFF 		bl	VL53L0X_GetLimitCheckEnable
 5672 01ec 0346     		mov	r3, r0
 5673 01ee 87F83F30 		strb	r3, [r7, #63]
 5674              	.L225:
2140:Drivers/VL53L0X/core/src/vl53l0x_api_core.c **** 				VL53L0X_CHECKENABLE_RANGE_IGNORE_THRESHOLD,
2141:Drivers/VL53L0X/core/src/vl53l0x_api_core.c **** 				&RangeIgnoreThresholdLimitCheckEnable);
2142:Drivers/VL53L0X/core/src/vl53l0x_api_core.c **** 
2143:Drivers/VL53L0X/core/src/vl53l0x_api_core.c **** 	if ((RangeIgnoreThresholdLimitCheckEnable != 0) &&
 5675              		.loc 1 2143 44
 5676 01f2 97F82830 		ldrb	r3, [r7, #40]	@ zero_extendqisi2
 5677              		.loc 1 2143 5
 5678 01f6 002B     		cmp	r3, #0
 5679 01f8 23D0     		beq	.L226
 5680              		.loc 1 2143 50 discriminator 1
 5681 01fa 97F93F30 		ldrsb	r3, [r7, #63]
 5682 01fe 002B     		cmp	r3, #0
 5683 0200 1FD1     		bne	.L226
2144:Drivers/VL53L0X/core/src/vl53l0x_api_core.c **** 			(Status == VL53L0X_ERROR_NONE)) {
2145:Drivers/VL53L0X/core/src/vl53l0x_api_core.c **** 
2146:Drivers/VL53L0X/core/src/vl53l0x_api_core.c **** 		/* Compute the signal rate per spad */
2147:Drivers/VL53L0X/core/src/vl53l0x_api_core.c **** 		if (EffectiveSpadRtnCount == 0) {
 5684              		.loc 1 2147 6
 5685 0202 3B89     		ldrh	r3, [r7, #8]
 5686 0204 002B     		cmp	r3, #0
 5687 0206 02D1     		bne	.L227
2148:Drivers/VL53L0X/core/src/vl53l0x_api_core.c **** 			SignalRatePerSpad = 0;
 5688              		.loc 1 2148 22
 5689 0208 0023     		movs	r3, #0
 5690 020a 7B63     		str	r3, [r7, #52]
 5691 020c 05E0     		b	.L228
 5692              	.L227:
2149:Drivers/VL53L0X/core/src/vl53l0x_api_core.c **** 		} else {
ARM GAS  C:\Users\Morroway\AppData\Local\Temp\ccKjJYc2.s 			page 139


2150:Drivers/VL53L0X/core/src/vl53l0x_api_core.c **** 			SignalRatePerSpad = (FixPoint1616_t)((256 * SignalRate)
 5693              		.loc 1 2150 46
 5694 020e 7B68     		ldr	r3, [r7, #4]
 5695 0210 1A02     		lsls	r2, r3, #8
 5696              		.loc 1 2150 24
 5697 0212 3B89     		ldrh	r3, [r7, #8]
 5698              		.loc 1 2150 22
 5699 0214 B2FBF3F3 		udiv	r3, r2, r3
 5700 0218 7B63     		str	r3, [r7, #52]
 5701              	.L228:
2151:Drivers/VL53L0X/core/src/vl53l0x_api_core.c **** 				/ EffectiveSpadRtnCount);
2152:Drivers/VL53L0X/core/src/vl53l0x_api_core.c **** 		}
2153:Drivers/VL53L0X/core/src/vl53l0x_api_core.c **** 
2154:Drivers/VL53L0X/core/src/vl53l0x_api_core.c **** 		Status = VL53L0X_GetLimitCheckValue(Dev,
 5702              		.loc 1 2154 12
 5703 021a 07F11803 		add	r3, r7, #24
 5704 021e 1A46     		mov	r2, r3
 5705 0220 0321     		movs	r1, #3
 5706 0222 F868     		ldr	r0, [r7, #12]
 5707 0224 FFF7FEFF 		bl	VL53L0X_GetLimitCheckValue
 5708 0228 0346     		mov	r3, r0
 5709 022a 87F83F30 		strb	r3, [r7, #63]
2155:Drivers/VL53L0X/core/src/vl53l0x_api_core.c **** 				VL53L0X_CHECKENABLE_RANGE_IGNORE_THRESHOLD,
2156:Drivers/VL53L0X/core/src/vl53l0x_api_core.c **** 				&RangeIgnoreThresholdValue);
2157:Drivers/VL53L0X/core/src/vl53l0x_api_core.c **** 
2158:Drivers/VL53L0X/core/src/vl53l0x_api_core.c **** 		if ((RangeIgnoreThresholdValue > 0) &&
 5710              		.loc 1 2158 34
 5711 022e BB69     		ldr	r3, [r7, #24]
 5712              		.loc 1 2158 6
 5713 0230 002B     		cmp	r3, #0
 5714 0232 06D0     		beq	.L226
2159:Drivers/VL53L0X/core/src/vl53l0x_api_core.c **** 			(SignalRatePerSpad < RangeIgnoreThresholdValue)) {
 5715              		.loc 1 2159 23 discriminator 1
 5716 0234 BB69     		ldr	r3, [r7, #24]
2158:Drivers/VL53L0X/core/src/vl53l0x_api_core.c **** 			(SignalRatePerSpad < RangeIgnoreThresholdValue)) {
 5717              		.loc 1 2158 39 discriminator 1
 5718 0236 7A6B     		ldr	r2, [r7, #52]
 5719 0238 9A42     		cmp	r2, r3
 5720 023a 02D2     		bcs	.L226
2160:Drivers/VL53L0X/core/src/vl53l0x_api_core.c **** 			/* Limit Fail add 2^6 to range status */
2161:Drivers/VL53L0X/core/src/vl53l0x_api_core.c **** 			RangeIgnoreThresholdflag = 1;
 5721              		.loc 1 2161 29
 5722 023c 0123     		movs	r3, #1
 5723 023e 87F83B30 		strb	r3, [r7, #59]
 5724              	.L226:
2162:Drivers/VL53L0X/core/src/vl53l0x_api_core.c **** 		}
2163:Drivers/VL53L0X/core/src/vl53l0x_api_core.c **** 	}
2164:Drivers/VL53L0X/core/src/vl53l0x_api_core.c **** 
2165:Drivers/VL53L0X/core/src/vl53l0x_api_core.c **** 	if (Status == VL53L0X_ERROR_NONE) {
 5725              		.loc 1 2165 5
 5726 0242 97F93F30 		ldrsb	r3, [r7, #63]
 5727 0246 002B     		cmp	r3, #0
 5728 0248 4AD1     		bne	.L229
2166:Drivers/VL53L0X/core/src/vl53l0x_api_core.c **** 		if (NoneFlag == 1) {
 5729              		.loc 1 2166 6
 5730 024a 97F83E30 		ldrb	r3, [r7, #62]	@ zero_extendqisi2
 5731 024e 012B     		cmp	r3, #1
ARM GAS  C:\Users\Morroway\AppData\Local\Temp\ccKjJYc2.s 			page 140


 5732 0250 03D1     		bne	.L230
2167:Drivers/VL53L0X/core/src/vl53l0x_api_core.c **** 			*pPalRangeStatus = 255;	 /* NONE */
 5733              		.loc 1 2167 21
 5734 0252 FB6C     		ldr	r3, [r7, #76]
 5735 0254 FF22     		movs	r2, #255
 5736 0256 1A70     		strb	r2, [r3]
 5737 0258 42E0     		b	.L229
 5738              	.L230:
2168:Drivers/VL53L0X/core/src/vl53l0x_api_core.c **** 		} else if (DeviceRangeStatusInternal == 1 ||
 5739              		.loc 1 2168 13
 5740 025a 97F83230 		ldrb	r3, [r7, #50]	@ zero_extendqisi2
 5741 025e 012B     		cmp	r3, #1
 5742 0260 07D0     		beq	.L231
 5743              		.loc 1 2168 45 discriminator 1
 5744 0262 97F83230 		ldrb	r3, [r7, #50]	@ zero_extendqisi2
 5745 0266 022B     		cmp	r3, #2
 5746 0268 03D0     		beq	.L231
2169:Drivers/VL53L0X/core/src/vl53l0x_api_core.c **** 					DeviceRangeStatusInternal == 2 ||
 5747              		.loc 1 2169 37
 5748 026a 97F83230 		ldrb	r3, [r7, #50]	@ zero_extendqisi2
 5749 026e 032B     		cmp	r3, #3
 5750 0270 03D1     		bne	.L232
 5751              	.L231:
2170:Drivers/VL53L0X/core/src/vl53l0x_api_core.c **** 					DeviceRangeStatusInternal == 3) {
2171:Drivers/VL53L0X/core/src/vl53l0x_api_core.c **** 			*pPalRangeStatus = 5; /* HW fail */
 5752              		.loc 1 2171 21
 5753 0272 FB6C     		ldr	r3, [r7, #76]
 5754 0274 0522     		movs	r2, #5
 5755 0276 1A70     		strb	r2, [r3]
 5756 0278 32E0     		b	.L229
 5757              	.L232:
2172:Drivers/VL53L0X/core/src/vl53l0x_api_core.c **** 		} else if (DeviceRangeStatusInternal == 6 ||
 5758              		.loc 1 2172 13
 5759 027a 97F83230 		ldrb	r3, [r7, #50]	@ zero_extendqisi2
 5760 027e 062B     		cmp	r3, #6
 5761 0280 03D0     		beq	.L233
 5762              		.loc 1 2172 45 discriminator 1
 5763 0282 97F83230 		ldrb	r3, [r7, #50]	@ zero_extendqisi2
 5764 0286 092B     		cmp	r3, #9
 5765 0288 03D1     		bne	.L234
 5766              	.L233:
2173:Drivers/VL53L0X/core/src/vl53l0x_api_core.c **** 					DeviceRangeStatusInternal == 9) {
2174:Drivers/VL53L0X/core/src/vl53l0x_api_core.c **** 			*pPalRangeStatus = 4;  /* Phase fail */
 5767              		.loc 1 2174 21
 5768 028a FB6C     		ldr	r3, [r7, #76]
 5769 028c 0422     		movs	r2, #4
 5770 028e 1A70     		strb	r2, [r3]
 5771 0290 26E0     		b	.L229
 5772              	.L234:
2175:Drivers/VL53L0X/core/src/vl53l0x_api_core.c **** 		} else if (DeviceRangeStatusInternal == 8 ||
 5773              		.loc 1 2175 13
 5774 0292 97F83230 		ldrb	r3, [r7, #50]	@ zero_extendqisi2
 5775 0296 082B     		cmp	r3, #8
 5776 0298 07D0     		beq	.L235
 5777              		.loc 1 2175 45 discriminator 1
 5778 029a 97F83230 		ldrb	r3, [r7, #50]	@ zero_extendqisi2
 5779 029e 0A2B     		cmp	r3, #10
ARM GAS  C:\Users\Morroway\AppData\Local\Temp\ccKjJYc2.s 			page 141


 5780 02a0 03D0     		beq	.L235
2176:Drivers/VL53L0X/core/src/vl53l0x_api_core.c **** 					DeviceRangeStatusInternal == 10 ||
 5781              		.loc 1 2176 38
 5782 02a2 97F83C30 		ldrb	r3, [r7, #60]	@ zero_extendqisi2
 5783 02a6 012B     		cmp	r3, #1
 5784 02a8 03D1     		bne	.L236
 5785              	.L235:
2177:Drivers/VL53L0X/core/src/vl53l0x_api_core.c **** 					SignalRefClipflag == 1) {
2178:Drivers/VL53L0X/core/src/vl53l0x_api_core.c **** 			*pPalRangeStatus = 3;  /* Min range */
 5786              		.loc 1 2178 21
 5787 02aa FB6C     		ldr	r3, [r7, #76]
 5788 02ac 0322     		movs	r2, #3
 5789 02ae 1A70     		strb	r2, [r3]
 5790 02b0 16E0     		b	.L229
 5791              	.L236:
2179:Drivers/VL53L0X/core/src/vl53l0x_api_core.c **** 		} else if (DeviceRangeStatusInternal == 4 ||
 5792              		.loc 1 2179 13
 5793 02b2 97F83230 		ldrb	r3, [r7, #50]	@ zero_extendqisi2
 5794 02b6 042B     		cmp	r3, #4
 5795 02b8 03D0     		beq	.L237
 5796              		.loc 1 2179 45 discriminator 1
 5797 02ba 97F83B30 		ldrb	r3, [r7, #59]	@ zero_extendqisi2
 5798 02be 012B     		cmp	r3, #1
 5799 02c0 03D1     		bne	.L238
 5800              	.L237:
2180:Drivers/VL53L0X/core/src/vl53l0x_api_core.c **** 					RangeIgnoreThresholdflag == 1) {
2181:Drivers/VL53L0X/core/src/vl53l0x_api_core.c **** 			*pPalRangeStatus = 2;  /* Signal Fail */
 5801              		.loc 1 2181 21
 5802 02c2 FB6C     		ldr	r3, [r7, #76]
 5803 02c4 0222     		movs	r2, #2
 5804 02c6 1A70     		strb	r2, [r3]
 5805 02c8 0AE0     		b	.L229
 5806              	.L238:
2182:Drivers/VL53L0X/core/src/vl53l0x_api_core.c **** 		} else if (SigmaLimitflag == 1) {
 5807              		.loc 1 2182 13
 5808 02ca 97F83D30 		ldrb	r3, [r7, #61]	@ zero_extendqisi2
 5809 02ce 012B     		cmp	r3, #1
 5810 02d0 03D1     		bne	.L239
2183:Drivers/VL53L0X/core/src/vl53l0x_api_core.c **** 			*pPalRangeStatus = 1;  /* Sigma	 Fail */
 5811              		.loc 1 2183 21
 5812 02d2 FB6C     		ldr	r3, [r7, #76]
 5813 02d4 0122     		movs	r2, #1
 5814 02d6 1A70     		strb	r2, [r3]
 5815 02d8 02E0     		b	.L229
 5816              	.L239:
2184:Drivers/VL53L0X/core/src/vl53l0x_api_core.c **** 		} else {
2185:Drivers/VL53L0X/core/src/vl53l0x_api_core.c **** 			*pPalRangeStatus = 0; /* Range Valid */
 5817              		.loc 1 2185 21
 5818 02da FB6C     		ldr	r3, [r7, #76]
 5819 02dc 0022     		movs	r2, #0
 5820 02de 1A70     		strb	r2, [r3]
 5821              	.L229:
2186:Drivers/VL53L0X/core/src/vl53l0x_api_core.c **** 		}
2187:Drivers/VL53L0X/core/src/vl53l0x_api_core.c **** 	}
2188:Drivers/VL53L0X/core/src/vl53l0x_api_core.c **** 
2189:Drivers/VL53L0X/core/src/vl53l0x_api_core.c **** 	/* DMAX only relevant during range error */
2190:Drivers/VL53L0X/core/src/vl53l0x_api_core.c **** 	if (*pPalRangeStatus == 0)
ARM GAS  C:\Users\Morroway\AppData\Local\Temp\ccKjJYc2.s 			page 142


 5822              		.loc 1 2190 6
 5823 02e0 FB6C     		ldr	r3, [r7, #76]
 5824 02e2 1B78     		ldrb	r3, [r3]	@ zero_extendqisi2
 5825              		.loc 1 2190 5
 5826 02e4 002B     		cmp	r3, #0
 5827 02e6 02D1     		bne	.L240
2191:Drivers/VL53L0X/core/src/vl53l0x_api_core.c **** 		pRangingMeasurementData->RangeDMaxMilliMeter = 0;
 5828              		.loc 1 2191 48
 5829 02e8 BB6C     		ldr	r3, [r7, #72]
 5830 02ea 0022     		movs	r2, #0
 5831 02ec 5A81     		strh	r2, [r3, #10]	@ movhi
 5832              	.L240:
2192:Drivers/VL53L0X/core/src/vl53l0x_api_core.c **** 
2193:Drivers/VL53L0X/core/src/vl53l0x_api_core.c **** 	/* fill the Limit Check Status */
2194:Drivers/VL53L0X/core/src/vl53l0x_api_core.c **** 
2195:Drivers/VL53L0X/core/src/vl53l0x_api_core.c **** 	Status =  VL53L0X_GetLimitCheckEnable(Dev,
 5833              		.loc 1 2195 12
 5834 02ee 07F12A03 		add	r3, r7, #42
 5835 02f2 1A46     		mov	r2, r3
 5836 02f4 0121     		movs	r1, #1
 5837 02f6 F868     		ldr	r0, [r7, #12]
 5838 02f8 FFF7FEFF 		bl	VL53L0X_GetLimitCheckEnable
 5839 02fc 0346     		mov	r3, r0
 5840 02fe 87F83F30 		strb	r3, [r7, #63]
2196:Drivers/VL53L0X/core/src/vl53l0x_api_core.c **** 			VL53L0X_CHECKENABLE_SIGNAL_RATE_FINAL_RANGE,
2197:Drivers/VL53L0X/core/src/vl53l0x_api_core.c **** 			&SignalRateFinalRangeLimitCheckEnable);
2198:Drivers/VL53L0X/core/src/vl53l0x_api_core.c **** 
2199:Drivers/VL53L0X/core/src/vl53l0x_api_core.c **** 	if (Status == VL53L0X_ERROR_NONE) {
 5841              		.loc 1 2199 5
 5842 0302 97F93F30 		ldrsb	r3, [r7, #63]
 5843 0306 002B     		cmp	r3, #0
 5844 0308 4FD1     		bne	.L241
2200:Drivers/VL53L0X/core/src/vl53l0x_api_core.c **** 		if ((SigmaLimitCheckEnable == 0) || (SigmaLimitflag == 1))
 5845              		.loc 1 2200 30
 5846 030a 97F82B30 		ldrb	r3, [r7, #43]	@ zero_extendqisi2
 5847              		.loc 1 2200 6
 5848 030e 002B     		cmp	r3, #0
 5849 0310 03D0     		beq	.L242
 5850              		.loc 1 2200 36 discriminator 1
 5851 0312 97F83D30 		ldrb	r3, [r7, #61]	@ zero_extendqisi2
 5852 0316 012B     		cmp	r3, #1
 5853 0318 03D1     		bne	.L243
 5854              	.L242:
2201:Drivers/VL53L0X/core/src/vl53l0x_api_core.c **** 			Temp8 = 1;
 5855              		.loc 1 2201 10
 5856 031a 0123     		movs	r3, #1
 5857 031c 87F83330 		strb	r3, [r7, #51]
 5858 0320 02E0     		b	.L244
 5859              	.L243:
2202:Drivers/VL53L0X/core/src/vl53l0x_api_core.c **** 		else
2203:Drivers/VL53L0X/core/src/vl53l0x_api_core.c **** 			Temp8 = 0;
 5860              		.loc 1 2203 10
 5861 0322 0023     		movs	r3, #0
 5862 0324 87F83330 		strb	r3, [r7, #51]
 5863              	.L244:
2204:Drivers/VL53L0X/core/src/vl53l0x_api_core.c **** 		VL53L0X_SETARRAYPARAMETERFIELD(Dev, LimitChecksStatus,
 5864              		.loc 1 2204 3
ARM GAS  C:\Users\Morroway\AppData\Local\Temp\ccKjJYc2.s 			page 143


 5865 0328 FB68     		ldr	r3, [r7, #12]
 5866 032a 97F83320 		ldrb	r2, [r7, #51]
 5867 032e 83F82E20 		strb	r2, [r3, #46]
2205:Drivers/VL53L0X/core/src/vl53l0x_api_core.c **** 				VL53L0X_CHECKENABLE_SIGMA_FINAL_RANGE, Temp8);
2206:Drivers/VL53L0X/core/src/vl53l0x_api_core.c **** 
2207:Drivers/VL53L0X/core/src/vl53l0x_api_core.c **** 		if ((DeviceRangeStatusInternal == 4) ||
 5868              		.loc 1 2207 6
 5869 0332 97F83230 		ldrb	r3, [r7, #50]	@ zero_extendqisi2
 5870 0336 042B     		cmp	r3, #4
 5871 0338 03D0     		beq	.L245
2208:Drivers/VL53L0X/core/src/vl53l0x_api_core.c **** 				(SignalRateFinalRangeLimitCheckEnable == 0))
 5872              		.loc 1 2208 43 discriminator 1
 5873 033a 97F82A30 		ldrb	r3, [r7, #42]	@ zero_extendqisi2
2207:Drivers/VL53L0X/core/src/vl53l0x_api_core.c **** 				(SignalRateFinalRangeLimitCheckEnable == 0))
 5874              		.loc 1 2207 40 discriminator 1
 5875 033e 002B     		cmp	r3, #0
 5876 0340 03D1     		bne	.L246
 5877              	.L245:
2209:Drivers/VL53L0X/core/src/vl53l0x_api_core.c **** 			Temp8 = 1;
 5878              		.loc 1 2209 10
 5879 0342 0123     		movs	r3, #1
 5880 0344 87F83330 		strb	r3, [r7, #51]
 5881 0348 02E0     		b	.L247
 5882              	.L246:
2210:Drivers/VL53L0X/core/src/vl53l0x_api_core.c **** 		else
2211:Drivers/VL53L0X/core/src/vl53l0x_api_core.c **** 			Temp8 = 0;
 5883              		.loc 1 2211 10
 5884 034a 0023     		movs	r3, #0
 5885 034c 87F83330 		strb	r3, [r7, #51]
 5886              	.L247:
2212:Drivers/VL53L0X/core/src/vl53l0x_api_core.c **** 		VL53L0X_SETARRAYPARAMETERFIELD(Dev, LimitChecksStatus,
 5887              		.loc 1 2212 3
 5888 0350 FB68     		ldr	r3, [r7, #12]
 5889 0352 97F83320 		ldrb	r2, [r7, #51]
 5890 0356 83F82F20 		strb	r2, [r3, #47]
2213:Drivers/VL53L0X/core/src/vl53l0x_api_core.c **** 				VL53L0X_CHECKENABLE_SIGNAL_RATE_FINAL_RANGE,
2214:Drivers/VL53L0X/core/src/vl53l0x_api_core.c **** 				Temp8);
2215:Drivers/VL53L0X/core/src/vl53l0x_api_core.c **** 
2216:Drivers/VL53L0X/core/src/vl53l0x_api_core.c **** 		if ((SignalRefClipLimitCheckEnable == 0) ||
 5891              		.loc 1 2216 38
 5892 035a 97F82930 		ldrb	r3, [r7, #41]	@ zero_extendqisi2
 5893              		.loc 1 2216 6
 5894 035e 002B     		cmp	r3, #0
 5895 0360 03D0     		beq	.L248
 5896              		.loc 1 2216 44 discriminator 1
 5897 0362 97F83C30 		ldrb	r3, [r7, #60]	@ zero_extendqisi2
 5898 0366 012B     		cmp	r3, #1
 5899 0368 03D1     		bne	.L249
 5900              	.L248:
2217:Drivers/VL53L0X/core/src/vl53l0x_api_core.c **** 					(SignalRefClipflag == 1))
2218:Drivers/VL53L0X/core/src/vl53l0x_api_core.c **** 			Temp8 = 1;
 5901              		.loc 1 2218 10
 5902 036a 0123     		movs	r3, #1
 5903 036c 87F83330 		strb	r3, [r7, #51]
 5904 0370 02E0     		b	.L250
 5905              	.L249:
2219:Drivers/VL53L0X/core/src/vl53l0x_api_core.c **** 		else
ARM GAS  C:\Users\Morroway\AppData\Local\Temp\ccKjJYc2.s 			page 144


2220:Drivers/VL53L0X/core/src/vl53l0x_api_core.c **** 			Temp8 = 0;
 5906              		.loc 1 2220 10
 5907 0372 0023     		movs	r3, #0
 5908 0374 87F83330 		strb	r3, [r7, #51]
 5909              	.L250:
2221:Drivers/VL53L0X/core/src/vl53l0x_api_core.c **** 
2222:Drivers/VL53L0X/core/src/vl53l0x_api_core.c **** 		VL53L0X_SETARRAYPARAMETERFIELD(Dev, LimitChecksStatus,
 5910              		.loc 1 2222 3
 5911 0378 FB68     		ldr	r3, [r7, #12]
 5912 037a 97F83320 		ldrb	r2, [r7, #51]
 5913 037e 83F83020 		strb	r2, [r3, #48]
2223:Drivers/VL53L0X/core/src/vl53l0x_api_core.c **** 				VL53L0X_CHECKENABLE_SIGNAL_REF_CLIP, Temp8);
2224:Drivers/VL53L0X/core/src/vl53l0x_api_core.c **** 
2225:Drivers/VL53L0X/core/src/vl53l0x_api_core.c **** 		if ((RangeIgnoreThresholdLimitCheckEnable == 0) ||
 5914              		.loc 1 2225 45
 5915 0382 97F82830 		ldrb	r3, [r7, #40]	@ zero_extendqisi2
 5916              		.loc 1 2225 6
 5917 0386 002B     		cmp	r3, #0
 5918 0388 03D0     		beq	.L251
 5919              		.loc 1 2225 51 discriminator 1
 5920 038a 97F83B30 		ldrb	r3, [r7, #59]	@ zero_extendqisi2
 5921 038e 012B     		cmp	r3, #1
 5922 0390 03D1     		bne	.L252
 5923              	.L251:
2226:Drivers/VL53L0X/core/src/vl53l0x_api_core.c **** 				(RangeIgnoreThresholdflag == 1))
2227:Drivers/VL53L0X/core/src/vl53l0x_api_core.c **** 			Temp8 = 1;
 5924              		.loc 1 2227 10
 5925 0392 0123     		movs	r3, #1
 5926 0394 87F83330 		strb	r3, [r7, #51]
 5927 0398 02E0     		b	.L253
 5928              	.L252:
2228:Drivers/VL53L0X/core/src/vl53l0x_api_core.c **** 		else
2229:Drivers/VL53L0X/core/src/vl53l0x_api_core.c **** 			Temp8 = 0;
 5929              		.loc 1 2229 10
 5930 039a 0023     		movs	r3, #0
 5931 039c 87F83330 		strb	r3, [r7, #51]
 5932              	.L253:
2230:Drivers/VL53L0X/core/src/vl53l0x_api_core.c **** 
2231:Drivers/VL53L0X/core/src/vl53l0x_api_core.c **** 		VL53L0X_SETARRAYPARAMETERFIELD(Dev, LimitChecksStatus,
 5933              		.loc 1 2231 3
 5934 03a0 FB68     		ldr	r3, [r7, #12]
 5935 03a2 97F83320 		ldrb	r2, [r7, #51]
 5936 03a6 83F83120 		strb	r2, [r3, #49]
 5937              	.L241:
2232:Drivers/VL53L0X/core/src/vl53l0x_api_core.c **** 				VL53L0X_CHECKENABLE_RANGE_IGNORE_THRESHOLD,
2233:Drivers/VL53L0X/core/src/vl53l0x_api_core.c **** 				Temp8);
2234:Drivers/VL53L0X/core/src/vl53l0x_api_core.c **** 	}
2235:Drivers/VL53L0X/core/src/vl53l0x_api_core.c **** 
2236:Drivers/VL53L0X/core/src/vl53l0x_api_core.c **** 	LOG_FUNCTION_END(Status);
2237:Drivers/VL53L0X/core/src/vl53l0x_api_core.c **** 	return Status;
 5938              		.loc 1 2237 9
 5939 03aa 97F93F30 		ldrsb	r3, [r7, #63]
2238:Drivers/VL53L0X/core/src/vl53l0x_api_core.c **** 
2239:Drivers/VL53L0X/core/src/vl53l0x_api_core.c **** }
 5940              		.loc 1 2239 1
 5941 03ae 1846     		mov	r0, r3
 5942 03b0 4037     		adds	r7, r7, #64
ARM GAS  C:\Users\Morroway\AppData\Local\Temp\ccKjJYc2.s 			page 145


 5943              		.cfi_def_cfa_offset 8
 5944 03b2 BD46     		mov	sp, r7
 5945              		.cfi_def_cfa_register 13
 5946              		@ sp needed
 5947 03b4 80BD     		pop	{r7, pc}
 5948              		.cfi_endproc
 5949              	.LFE348:
 5951              		.text
 5952              	.Letext0:
 5953              		.file 2 "c:\\users\\morroway\\appdata\\roaming\\code\\user\\globalstorage\\bmd.stm32-for-vscode\\@
 5954              		.file 3 "c:\\users\\morroway\\appdata\\roaming\\code\\user\\globalstorage\\bmd.stm32-for-vscode\\@
 5955              		.file 4 "Drivers/VL53L0X/platform/inc/vl53l0x_types.h"
 5956              		.file 5 "Drivers/VL53L0X/core/inc/vl53l0x_device.h"
 5957              		.file 6 "Drivers/VL53L0X/core/inc/vl53l0x_def.h"
 5958              		.file 7 "Drivers/CMSIS/Device/ST/STM32L4xx/Include/stm32l4p5xx.h"
 5959              		.file 8 "Drivers/STM32L4xx_HAL_Driver/Inc/stm32l4xx_hal_def.h"
 5960              		.file 9 "Drivers/STM32L4xx_HAL_Driver/Inc/stm32l4xx_hal_dma.h"
 5961              		.file 10 "Drivers/STM32L4xx_HAL_Driver/Inc/stm32l4xx_hal_i2c.h"
 5962              		.file 11 "Drivers/VL53L0X/platform/inc/vl53l0x_platform.h"
 5963              		.file 12 "Drivers/VL53L0X/core/inc/vl53l0x_api.h"
 5964              		.file 13 "Drivers/VL53L0X/core/inc/vl53l0x_api_calibration.h"
 5965              		.file 14 "c:\\users\\morroway\\appdata\\roaming\\code\\user\\globalstorage\\bmd.stm32-for-vscode\\
ARM GAS  C:\Users\Morroway\AppData\Local\Temp\ccKjJYc2.s 			page 146


DEFINED SYMBOLS
                            *ABS*:0000000000000000 vl53l0x_api_core.c
C:\Users\Morroway\AppData\Local\Temp\ccKjJYc2.s:20     .text.VL53L0X_reverse_bytes:0000000000000000 $t
C:\Users\Morroway\AppData\Local\Temp\ccKjJYc2.s:26     .text.VL53L0X_reverse_bytes:0000000000000000 VL53L0X_reverse_bytes
C:\Users\Morroway\AppData\Local\Temp\ccKjJYc2.s:116    .text.VL53L0X_measurement_poll_for_completion:0000000000000000 $t
C:\Users\Morroway\AppData\Local\Temp\ccKjJYc2.s:122    .text.VL53L0X_measurement_poll_for_completion:0000000000000000 VL53L0X_measurement_poll_for_completion
C:\Users\Morroway\AppData\Local\Temp\ccKjJYc2.s:204    .text.VL53L0X_decode_vcsel_period:0000000000000000 $t
C:\Users\Morroway\AppData\Local\Temp\ccKjJYc2.s:210    .text.VL53L0X_decode_vcsel_period:0000000000000000 VL53L0X_decode_vcsel_period
C:\Users\Morroway\AppData\Local\Temp\ccKjJYc2.s:253    .text.VL53L0X_encode_vcsel_period:0000000000000000 $t
C:\Users\Morroway\AppData\Local\Temp\ccKjJYc2.s:259    .text.VL53L0X_encode_vcsel_period:0000000000000000 VL53L0X_encode_vcsel_period
C:\Users\Morroway\AppData\Local\Temp\ccKjJYc2.s:302    .text.VL53L0X_isqrt:0000000000000000 $t
C:\Users\Morroway\AppData\Local\Temp\ccKjJYc2.s:308    .text.VL53L0X_isqrt:0000000000000000 VL53L0X_isqrt
C:\Users\Morroway\AppData\Local\Temp\ccKjJYc2.s:401    .text.VL53L0X_quadrature_sum:0000000000000000 $t
C:\Users\Morroway\AppData\Local\Temp\ccKjJYc2.s:407    .text.VL53L0X_quadrature_sum:0000000000000000 VL53L0X_quadrature_sum
C:\Users\Morroway\AppData\Local\Temp\ccKjJYc2.s:466    .text.VL53L0X_device_read_strobe:0000000000000000 $t
C:\Users\Morroway\AppData\Local\Temp\ccKjJYc2.s:472    .text.VL53L0X_device_read_strobe:0000000000000000 VL53L0X_device_read_strobe
C:\Users\Morroway\AppData\Local\Temp\ccKjJYc2.s:568    .text.VL53L0X_get_info_from_device:0000000000000000 $t
C:\Users\Morroway\AppData\Local\Temp\ccKjJYc2.s:574    .text.VL53L0X_get_info_from_device:0000000000000000 VL53L0X_get_info_from_device
C:\Users\Morroway\AppData\Local\Temp\ccKjJYc2.s:1816   .text.VL53L0X_calc_macro_period_ps:0000000000000000 $t
C:\Users\Morroway\AppData\Local\Temp\ccKjJYc2.s:1822   .text.VL53L0X_calc_macro_period_ps:0000000000000000 VL53L0X_calc_macro_period_ps
C:\Users\Morroway\AppData\Local\Temp\ccKjJYc2.s:1872   .text.VL53L0X_encode_timeout:0000000000000000 $t
C:\Users\Morroway\AppData\Local\Temp\ccKjJYc2.s:1878   .text.VL53L0X_encode_timeout:0000000000000000 VL53L0X_encode_timeout
C:\Users\Morroway\AppData\Local\Temp\ccKjJYc2.s:1958   .text.VL53L0X_decode_timeout:0000000000000000 $t
C:\Users\Morroway\AppData\Local\Temp\ccKjJYc2.s:1964   .text.VL53L0X_decode_timeout:0000000000000000 VL53L0X_decode_timeout
C:\Users\Morroway\AppData\Local\Temp\ccKjJYc2.s:2013   .text.VL53L0X_calc_timeout_mclks:0000000000000000 $t
C:\Users\Morroway\AppData\Local\Temp\ccKjJYc2.s:2019   .text.VL53L0X_calc_timeout_mclks:0000000000000000 VL53L0X_calc_timeout_mclks
C:\Users\Morroway\AppData\Local\Temp\ccKjJYc2.s:2080   .text.VL53L0X_calc_timeout_mclks:0000000000000050 $d
C:\Users\Morroway\AppData\Local\Temp\ccKjJYc2.s:2085   .text.VL53L0X_calc_timeout_us:0000000000000000 $t
C:\Users\Morroway\AppData\Local\Temp\ccKjJYc2.s:2091   .text.VL53L0X_calc_timeout_us:0000000000000000 VL53L0X_calc_timeout_us
C:\Users\Morroway\AppData\Local\Temp\ccKjJYc2.s:2151   .text.VL53L0X_calc_timeout_us:0000000000000050 $d
C:\Users\Morroway\AppData\Local\Temp\ccKjJYc2.s:2156   .text.get_sequence_step_timeout:0000000000000000 $t
C:\Users\Morroway\AppData\Local\Temp\ccKjJYc2.s:2162   .text.get_sequence_step_timeout:0000000000000000 get_sequence_step_timeout
C:\Users\Morroway\AppData\Local\Temp\ccKjJYc2.s:2409   .text.set_sequence_step_timeout:0000000000000000 $t
C:\Users\Morroway\AppData\Local\Temp\ccKjJYc2.s:2415   .text.set_sequence_step_timeout:0000000000000000 set_sequence_step_timeout
C:\Users\Morroway\AppData\Local\Temp\ccKjJYc2.s:2687   .text.VL53L0X_set_vcsel_pulse_period:0000000000000000 $t
C:\Users\Morroway\AppData\Local\Temp\ccKjJYc2.s:2693   .text.VL53L0X_set_vcsel_pulse_period:0000000000000000 VL53L0X_set_vcsel_pulse_period
C:\Users\Morroway\AppData\Local\Temp\ccKjJYc2.s:3349   .text.VL53L0X_get_vcsel_pulse_period:0000000000000000 $t
C:\Users\Morroway\AppData\Local\Temp\ccKjJYc2.s:3355   .text.VL53L0X_get_vcsel_pulse_period:0000000000000000 VL53L0X_get_vcsel_pulse_period
C:\Users\Morroway\AppData\Local\Temp\ccKjJYc2.s:3438   .text.VL53L0X_set_measurement_timing_budget_micro_seconds:0000000000000000 $t
C:\Users\Morroway\AppData\Local\Temp\ccKjJYc2.s:3444   .text.VL53L0X_set_measurement_timing_budget_micro_seconds:0000000000000000 VL53L0X_set_measurement_timing_budget_micro_seconds
C:\Users\Morroway\AppData\Local\Temp\ccKjJYc2.s:3734   .text.VL53L0X_get_measurement_timing_budget_micro_seconds:0000000000000000 $t
C:\Users\Morroway\AppData\Local\Temp\ccKjJYc2.s:3740   .text.VL53L0X_get_measurement_timing_budget_micro_seconds:0000000000000000 VL53L0X_get_measurement_timing_budget_micro_seconds
C:\Users\Morroway\AppData\Local\Temp\ccKjJYc2.s:3973   .text.VL53L0X_load_tuning_settings:0000000000000000 $t
C:\Users\Morroway\AppData\Local\Temp\ccKjJYc2.s:3979   .text.VL53L0X_load_tuning_settings:0000000000000000 VL53L0X_load_tuning_settings
C:\Users\Morroway\AppData\Local\Temp\ccKjJYc2.s:4038   .text.VL53L0X_load_tuning_settings:0000000000000048 $d
C:\Users\Morroway\AppData\Local\Temp\ccKjJYc2.s:4042   .text.VL53L0X_load_tuning_settings:0000000000000058 $t
C:\Users\Morroway\AppData\Local\Temp\ccKjJYc2.s:4294   .text.VL53L0X_get_total_xtalk_rate:0000000000000000 $t
C:\Users\Morroway\AppData\Local\Temp\ccKjJYc2.s:4300   .text.VL53L0X_get_total_xtalk_rate:0000000000000000 VL53L0X_get_total_xtalk_rate
C:\Users\Morroway\AppData\Local\Temp\ccKjJYc2.s:4375   .text.VL53L0X_get_total_signal_rate:0000000000000000 $t
C:\Users\Morroway\AppData\Local\Temp\ccKjJYc2.s:4381   .text.VL53L0X_get_total_signal_rate:0000000000000000 VL53L0X_get_total_signal_rate
C:\Users\Morroway\AppData\Local\Temp\ccKjJYc2.s:4441   .text.VL53L0X_calc_dmax:0000000000000000 $t
C:\Users\Morroway\AppData\Local\Temp\ccKjJYc2.s:4447   .text.VL53L0X_calc_dmax:0000000000000000 VL53L0X_calc_dmax
C:\Users\Morroway\AppData\Local\Temp\ccKjJYc2.s:4800   .text.VL53L0X_calc_dmax:0000000000000230 $d
C:\Users\Morroway\AppData\Local\Temp\ccKjJYc2.s:4806   .text.VL53L0X_calc_sigma_estimate:0000000000000000 $t
C:\Users\Morroway\AppData\Local\Temp\ccKjJYc2.s:4812   .text.VL53L0X_calc_sigma_estimate:0000000000000000 VL53L0X_calc_sigma_estimate
C:\Users\Morroway\AppData\Local\Temp\ccKjJYc2.s:5162   .text.VL53L0X_calc_sigma_estimate:00000000000002a8 $d
C:\Users\Morroway\AppData\Local\Temp\ccKjJYc2.s:5167   .text.VL53L0X_calc_sigma_estimate:00000000000002b4 $t
ARM GAS  C:\Users\Morroway\AppData\Local\Temp\ccKjJYc2.s 			page 147


C:\Users\Morroway\AppData\Local\Temp\ccKjJYc2.s:5392   .text.VL53L0X_calc_sigma_estimate:000000000000048c $d
C:\Users\Morroway\AppData\Local\Temp\ccKjJYc2.s:5399   .text.VL53L0X_get_pal_range_status:0000000000000000 $t
C:\Users\Morroway\AppData\Local\Temp\ccKjJYc2.s:5405   .text.VL53L0X_get_pal_range_status:0000000000000000 VL53L0X_get_pal_range_status

UNDEFINED SYMBOLS
VL53L0X_GetMeasurementDataReady
VL53L0X_PollingDelay
VL53L0X_WrByte
VL53L0X_RdByte
VL53L0X_RdDWord
strcpy
VL53L0X_GetVcselPulsePeriod
VL53L0X_RdWord
VL53L0X_GetSequenceStepEnables
VL53L0X_WrWord
VL53L0X_SetMeasurementTimingBudgetMicroSeconds
VL53L0X_perform_phase_calibration
VL53L0X_WriteMulti
VL53L0X_GetXTalkCompensationEnable
VL53L0X_GetLimitCheckEnable
VL53L0X_GetLimitCheckValue
