ARM GAS  C:\Users\Morroway\AppData\Local\Temp\ccih4NWY.s 			page 1


   1              		.cpu cortex-m4
   2              		.arch armv7e-m
   3              		.fpu fpv4-sp-d16
   4              		.eabi_attribute 27, 1
   5              		.eabi_attribute 28, 1
   6              		.eabi_attribute 20, 1
   7              		.eabi_attribute 21, 1
   8              		.eabi_attribute 23, 3
   9              		.eabi_attribute 24, 1
  10              		.eabi_attribute 25, 1
  11              		.eabi_attribute 26, 1
  12              		.eabi_attribute 30, 6
  13              		.eabi_attribute 34, 1
  14              		.eabi_attribute 18, 4
  15              		.file	"vl53l0x_api.c"
  16              		.text
  17              	.Ltext0:
  18              		.cfi_sections	.debug_frame
  19              		.global	DefaultTuningSettings
  20              		.section	.data.DefaultTuningSettings,"aw"
  21              		.align	2
  24              	DefaultTuningSettings:
  25 0000 01FF0101 		.ascii	"\001\377\001\001\000\000\001\377\000\001\011\000\001"
  25      000001FF 
  25      00010900 
  25      01
  26 000d 10000111 		.ascii	"\020\000\001\021\000\001$\001\001%\377\001u\000\001"
  26      00012401 
  26      0125FF01 
  26      750001
  27 001c FF01014E 		.ascii	"\377\001\001N,\001H\000\0010 \001\377\000\0010\011\001"
  27      2C014800 
  27      01302001 
  27      FF000130 
  27      0901
  28 002e 54000131 		.ascii	"T\000\0011\004\0012\003\001@\203\001F%\001`\000\001"
  28      04013203 
  28      01408301 
  28      46250160 
  28      0001
  29 0040 27000150 		.ascii	"'\000\001P\006\001Q\000\001R\226\001V\010\001W0\001"
  29      06015100 
  29      01529601 
  29      56080157 
  29      3001
  30 0052 61000162 		.ascii	"a\000\001b\000\001d\000\001e\000\001f\240\001\377\001"
  30      00016400 
  30      01650001 
  30      66A001FF 
  30      01
  31 0063 01223201 		.ascii	"\001\"2\001G\024\001I\377\001J\000\001\377\000\001z"
  31      47140149 
  31      FF014A00 
  31      01FF0001 
  31      7A
  32 0074 0A017B00 		.ascii	"\012\001{\000\001x!\001\377\001\001#4\001B\000\001D"
  32      01782101 
ARM GAS  C:\Users\Morroway\AppData\Local\Temp\ccih4NWY.s 			page 2


  32      FF010123 
  32      34014200 
  32      0144
  33 0086 FF014526 		.ascii	"\377\001E&\001F\005\001@@\001\016\006\001 \032\001C"
  33      01460501 
  33      4040010E 
  33      0601201A 
  33      0143
  34 0098 4001FF00 		.ascii	"@\001\377\000\0014\003\0015D\001\377\001\0011\004\001"
  34      01340301 
  34      354401FF 
  34      01013104 
  34      01
  35 00a9 4B09014C 		.ascii	"K\011\001L\005\001M\004\001\377\000\001D\000\001E \001"
  35      05014D04 
  35      01FF0001 
  35      44000145 
  35      2001
  36 00bb 47080148 		.ascii	"G\010\001H(\001g\000\001p\004\001q\001\001r\376\001"
  36      28016700 
  36      01700401 
  36      71010172 
  36      FE01
  37 00cd 76000177 		.ascii	"v\000\001w\000\001\377\001\001\015\001\001\377\000\001"
  37      0001FF01 
  37      010D0101 
  37      FF0001
  38 00dc 80010101 		.ascii	"\200\001\001\001\370\001\377\001\001\216\001\001\000"
  38      F801FF01 
  38      018E0101 
  38      00
  39 00e9 0101FF00 		.ascii	"\001\001\377\000\001\200\000\000\000\000"
  39      01800000 
  39      0000
  40              		.global	InterruptThresholdSettings
  41              		.section	.data.InterruptThresholdSettings,"aw"
  42              		.align	2
  45              	InterruptThresholdSettings:
  46 0000 01FF0001 		.ascii	"\001\377\000\001\200\001\001\377\001\001\000\000\001"
  46      800101FF 
  46      01010000 
  46      01
  47 000d FF01014F 		.ascii	"\377\001\001O\002\001\377\016\001\000\003\001\001\204"
  47      0201FF0E 
  47      01000301 
  47      0184
  48 001b 01020A01 		.ascii	"\001\002\012\001\003\003\001\004\010\001\005\310\001"
  48      03030104 
  48      080105C8 
  48      01
  49 0028 06030107 		.ascii	"\006\003\001\007\215\001\010\010\001\011\306\001\012"
  49      8D010808 
  49      0109C601 
  49      0A
  50 0035 01010B02 		.ascii	"\001\001\013\002\001\014\000\001\015\325\001\016\030"
  50      010C0001 
  50      0DD5010E 
ARM GAS  C:\Users\Morroway\AppData\Local\Temp\ccih4NWY.s 			page 3


  50      18
  51 0042 010F1201 		.ascii	"\001\017\022\001\020\001\001\021\202\001\022\000\001"
  51      10010111 
  51      82011200 
  51      01
  52 004f 13D50114 		.ascii	"\023\325\001\024\030\001\025\023\001\026\003\001\027"
  52      18011513 
  52      01160301 
  52      17
  53 005c 8601180A 		.ascii	"\206\001\030\012\001\031\011\001\032\010\001\033\302"
  53      01190901 
  53      1A08011B 
  53      C2
  54 0069 011C0301 		.ascii	"\001\034\003\001\035\217\001\036\012\001\037\006\001"
  54      1D8F011E 
  54      0A011F06 
  54      01
  55 0076 20010121 		.ascii	" \001\001!\002\001\"\000\001#\325\001$\030\001%\"\001"
  55      02012200 
  55      0123D501 
  55      24180125 
  55      2201
  56 0088 26010127 		.ascii	"&\001\001'\202\001(\000\001)\325\001*\030\001+\013\001"
  56      82012800 
  56      0129D501 
  56      2A18012B 
  56      0B01
  57 009a 2C28012D 		.ascii	",(\001-x\001.(\001/\221\0010\000\0011\013\0012\000\001"
  57      78012E28 
  57      012F9101 
  57      30000131 
  57      0B013200 
  58 00af 330B0134 		.ascii	"3\013\0014\000\0015\241\0016\000\0017\240\0018\000\001"
  58      000135A1 
  58      01360001 
  58      37A00138 
  58      0001
  59 00c1 3904013A 		.ascii	"9\004\001:(\001;0\001<\014\001=\004\001>\017\001?y\001"
  59      28013B30 
  59      013C0C01 
  59      3D04013E 
  59      0F013F79 
  60 00d6 40280141 		.ascii	"@(\001A\036\001B/\001C\207\001D\000\001E\013\001F\000"
  60      1E01422F 
  60      01438701 
  60      44000145 
  60      0B014600 
  61 00ea 01470B01 		.ascii	"\001G\013\001H\000\001I\247\001J\000\001K\246\001L\000"
  61      48000149 
  61      A7014A00 
  61      014BA601 
  61      4C00
  62 00fc 014D0401 		.ascii	"\001M\004\001N\001\001O\000\001P\000\001Q\200\001R\011"
  62      4E01014F 
  62      00015000 
  62      01518001 
  62      5209
ARM GAS  C:\Users\Morroway\AppData\Local\Temp\ccih4NWY.s 			page 4


  63 010e 01530801 		.ascii	"\001S\010\001T\001\001U\000\001V\017\001Wy\001X\011"
  63      54010155 
  63      0001560F 
  63      01577901 
  63      5809
  64 0120 01590501 		.ascii	"\001Y\005\001Z\000\001[`\001\\\005\001]\321\001^\014"
  64      5A00015B 
  64      60015C05 
  64      015DD101 
  64      5E0C
  65 0132 015F3C01 		.ascii	"\001_<\001`\000\001a\320\001b\013\001c\003\001d(\001"
  65      60000161 
  65      D001620B 
  65      01630301 
  65      642801
  66 0145 65100166 		.ascii	"e\020\001f*\001g9\001h\013\001i\002\001j(\001k\020\001"
  66      2A016739 
  66      01680B01 
  66      6902016A 
  66      28016B10 
  67 015a 6C2A016D 		.ascii	"l*\001ma\001n\014\001o\000\001p\017\001qy\001r\000\001"
  67      61016E0C 
  67      016F0001 
  67      700F0171 
  67      79017200 
  68 016f 730B0174 		.ascii	"s\013\001t\000\001u\013\001v\000\001w\241\001x\000\001"
  68      0001750B 
  68      01760001 
  68      77A10178 
  68      0001
  69 0181 79A0017A 		.ascii	"y\240\001z\000\001{\004\001\377\004\001y\035\001{'\001"
  69      00017B04 
  69      01FF0401 
  69      791D017B 
  69      2701
  70 0193 960E0197 		.ascii	"\226\016\001\227\376\001\230\003\001\231\357\001\232"
  70      FE019803 
  70      0199EF01 
  70      9A
  71 01a0 02019B44 		.ascii	"\002\001\233D\001s\007\001p\001\001\377\001\001\000"
  71      01730701 
  71      700101FF 
  71      010100
  72 01af 0101FF00 		.ascii	"\001\001\377\000\000\000\000"
  72      000000
  73              		.section	.text.VL53L0X_GetVersion,"ax",%progbits
  74              		.align	1
  75              		.global	VL53L0X_GetVersion
  76              		.syntax unified
  77              		.thumb
  78              		.thumb_func
  80              	VL53L0X_GetVersion:
  81              	.LFB324:
  82              		.file 1 "Drivers/VL53L0X/core/src/vl53l0x_api.c"
   1:Drivers/VL53L0X/core/src/vl53l0x_api.c **** /*******************************************************************************
   2:Drivers/VL53L0X/core/src/vl53l0x_api.c ****  Copyright © 2016, STMicroelectronics International N.V.
   3:Drivers/VL53L0X/core/src/vl53l0x_api.c ****  All rights reserved.
ARM GAS  C:\Users\Morroway\AppData\Local\Temp\ccih4NWY.s 			page 5


   4:Drivers/VL53L0X/core/src/vl53l0x_api.c **** 
   5:Drivers/VL53L0X/core/src/vl53l0x_api.c ****  Redistribution and use in source and binary forms, with or without
   6:Drivers/VL53L0X/core/src/vl53l0x_api.c ****  modification, are permitted provided that the following conditions are met:
   7:Drivers/VL53L0X/core/src/vl53l0x_api.c ****  * Redistributions of source code must retain the above copyright
   8:Drivers/VL53L0X/core/src/vl53l0x_api.c ****  notice, this list of conditions and the following disclaimer.
   9:Drivers/VL53L0X/core/src/vl53l0x_api.c ****  * Redistributions in binary form must reproduce the above copyright
  10:Drivers/VL53L0X/core/src/vl53l0x_api.c ****  notice, this list of conditions and the following disclaimer in the
  11:Drivers/VL53L0X/core/src/vl53l0x_api.c ****  documentation and/or other materials provided with the distribution.
  12:Drivers/VL53L0X/core/src/vl53l0x_api.c ****  * Neither the name of STMicroelectronics nor the
  13:Drivers/VL53L0X/core/src/vl53l0x_api.c ****  names of its contributors may be used to endorse or promote products
  14:Drivers/VL53L0X/core/src/vl53l0x_api.c ****  derived from this software without specific prior written permission.
  15:Drivers/VL53L0X/core/src/vl53l0x_api.c **** 
  16:Drivers/VL53L0X/core/src/vl53l0x_api.c ****  THIS SOFTWARE IS PROVIDED BY THE COPYRIGHT HOLDERS AND CONTRIBUTORS "AS IS" AND
  17:Drivers/VL53L0X/core/src/vl53l0x_api.c ****  ANY EXPRESS OR IMPLIED WARRANTIES, INCLUDING, BUT NOT LIMITED TO, THE IMPLIED
  18:Drivers/VL53L0X/core/src/vl53l0x_api.c ****  WARRANTIES OF MERCHANTABILITY, FITNESS FOR A PARTICULAR PURPOSE, AND
  19:Drivers/VL53L0X/core/src/vl53l0x_api.c ****  NON-INFRINGEMENT OF INTELLECTUAL PROPERTY RIGHTS ARE DISCLAIMED.
  20:Drivers/VL53L0X/core/src/vl53l0x_api.c ****  IN NO EVENT SHALL STMICROELECTRONICS INTERNATIONAL N.V. BE LIABLE FOR ANY
  21:Drivers/VL53L0X/core/src/vl53l0x_api.c ****  DIRECT, INDIRECT, INCIDENTAL, SPECIAL, EXEMPLARY, OR CONSEQUENTIAL DAMAGES
  22:Drivers/VL53L0X/core/src/vl53l0x_api.c ****  (INCLUDING, BUT NOT LIMITED TO, PROCUREMENT OF SUBSTITUTE GOODS OR SERVICES;
  23:Drivers/VL53L0X/core/src/vl53l0x_api.c ****  LOSS OF USE, DATA, OR PROFITS; OR BUSINESS INTERRUPTION) HOWEVER CAUSED AND
  24:Drivers/VL53L0X/core/src/vl53l0x_api.c ****  ON ANY THEORY OF LIABILITY, WHETHER IN CONTRACT, STRICT LIABILITY, OR TORT
  25:Drivers/VL53L0X/core/src/vl53l0x_api.c ****  (INCLUDING NEGLIGENCE OR OTHERWISE) ARISING IN ANY WAY OUT OF THE USE OF THIS
  26:Drivers/VL53L0X/core/src/vl53l0x_api.c ****  SOFTWARE, EVEN IF ADVISED OF THE POSSIBILITY OF SUCH DAMAGE.
  27:Drivers/VL53L0X/core/src/vl53l0x_api.c ****  ******************************************************************************/
  28:Drivers/VL53L0X/core/src/vl53l0x_api.c **** 
  29:Drivers/VL53L0X/core/src/vl53l0x_api.c **** #include "vl53l0x_api.h"
  30:Drivers/VL53L0X/core/src/vl53l0x_api.c **** #include "vl53l0x_tuning.h"
  31:Drivers/VL53L0X/core/src/vl53l0x_api.c **** #include "vl53l0x_interrupt_threshold_settings.h"
  32:Drivers/VL53L0X/core/src/vl53l0x_api.c **** #include "vl53l0x_api_core.h"
  33:Drivers/VL53L0X/core/src/vl53l0x_api.c **** #include "vl53l0x_api_calibration.h"
  34:Drivers/VL53L0X/core/src/vl53l0x_api.c **** #include "vl53l0x_api_strings.h"
  35:Drivers/VL53L0X/core/src/vl53l0x_api.c **** 
  36:Drivers/VL53L0X/core/src/vl53l0x_api.c **** #ifndef __KERNEL__
  37:Drivers/VL53L0X/core/src/vl53l0x_api.c **** #include <stdlib.h>
  38:Drivers/VL53L0X/core/src/vl53l0x_api.c **** #endif
  39:Drivers/VL53L0X/core/src/vl53l0x_api.c **** #define LOG_FUNCTION_START(fmt, ...) \
  40:Drivers/VL53L0X/core/src/vl53l0x_api.c **** 	_LOG_FUNCTION_START(TRACE_MODULE_API, fmt, ##__VA_ARGS__)
  41:Drivers/VL53L0X/core/src/vl53l0x_api.c **** #define LOG_FUNCTION_END(status, ...) \
  42:Drivers/VL53L0X/core/src/vl53l0x_api.c **** 	_LOG_FUNCTION_END(TRACE_MODULE_API, status, ##__VA_ARGS__)
  43:Drivers/VL53L0X/core/src/vl53l0x_api.c **** #define LOG_FUNCTION_END_FMT(status, fmt, ...) \
  44:Drivers/VL53L0X/core/src/vl53l0x_api.c **** 	_LOG_FUNCTION_END_FMT(TRACE_MODULE_API, status, fmt, ##__VA_ARGS__)
  45:Drivers/VL53L0X/core/src/vl53l0x_api.c **** 
  46:Drivers/VL53L0X/core/src/vl53l0x_api.c **** #ifdef VL53L0X_LOG_ENABLE
  47:Drivers/VL53L0X/core/src/vl53l0x_api.c **** #define trace_print(level, ...) trace_print_module_function(TRACE_MODULE_API, \
  48:Drivers/VL53L0X/core/src/vl53l0x_api.c **** 	level, TRACE_FUNCTION_NONE, ##__VA_ARGS__)
  49:Drivers/VL53L0X/core/src/vl53l0x_api.c **** #endif
  50:Drivers/VL53L0X/core/src/vl53l0x_api.c **** 
  51:Drivers/VL53L0X/core/src/vl53l0x_api.c **** /* Group PAL General Functions */
  52:Drivers/VL53L0X/core/src/vl53l0x_api.c **** 
  53:Drivers/VL53L0X/core/src/vl53l0x_api.c **** VL53L0X_Error VL53L0X_GetVersion(VL53L0X_Version_t *pVersion)
  54:Drivers/VL53L0X/core/src/vl53l0x_api.c **** {
  83              		.loc 1 54 1
  84              		.cfi_startproc
  85              		@ args = 0, pretend = 0, frame = 16
  86              		@ frame_needed = 1, uses_anonymous_args = 0
  87              		@ link register save eliminated.
  88 0000 80B4     		push	{r7}
ARM GAS  C:\Users\Morroway\AppData\Local\Temp\ccih4NWY.s 			page 6


  89              		.cfi_def_cfa_offset 4
  90              		.cfi_offset 7, -4
  91 0002 85B0     		sub	sp, sp, #20
  92              		.cfi_def_cfa_offset 24
  93 0004 00AF     		add	r7, sp, #0
  94              		.cfi_def_cfa_register 7
  95 0006 7860     		str	r0, [r7, #4]
  55:Drivers/VL53L0X/core/src/vl53l0x_api.c **** 	VL53L0X_Error Status = VL53L0X_ERROR_NONE;
  96              		.loc 1 55 16
  97 0008 0023     		movs	r3, #0
  98 000a FB73     		strb	r3, [r7, #15]
  56:Drivers/VL53L0X/core/src/vl53l0x_api.c **** 	LOG_FUNCTION_START("");
  57:Drivers/VL53L0X/core/src/vl53l0x_api.c **** 
  58:Drivers/VL53L0X/core/src/vl53l0x_api.c **** 	pVersion->major = VL53L0X_IMPLEMENTATION_VER_MAJOR;
  99              		.loc 1 58 18
 100 000c 7B68     		ldr	r3, [r7, #4]
 101 000e 0122     		movs	r2, #1
 102 0010 1A71     		strb	r2, [r3, #4]
  59:Drivers/VL53L0X/core/src/vl53l0x_api.c **** 	pVersion->minor = VL53L0X_IMPLEMENTATION_VER_MINOR;
 103              		.loc 1 59 18
 104 0012 7B68     		ldr	r3, [r7, #4]
 105 0014 0022     		movs	r2, #0
 106 0016 5A71     		strb	r2, [r3, #5]
  60:Drivers/VL53L0X/core/src/vl53l0x_api.c **** 	pVersion->build = VL53L0X_IMPLEMENTATION_VER_SUB;
 107              		.loc 1 60 18
 108 0018 7B68     		ldr	r3, [r7, #4]
 109 001a 0222     		movs	r2, #2
 110 001c 9A71     		strb	r2, [r3, #6]
  61:Drivers/VL53L0X/core/src/vl53l0x_api.c **** 
  62:Drivers/VL53L0X/core/src/vl53l0x_api.c **** 	pVersion->revision = VL53L0X_IMPLEMENTATION_VER_REVISION;
 111              		.loc 1 62 21
 112 001e 7B68     		ldr	r3, [r7, #4]
 113 0020 41F2D722 		movw	r2, #4823
 114 0024 1A60     		str	r2, [r3]
  63:Drivers/VL53L0X/core/src/vl53l0x_api.c **** 
  64:Drivers/VL53L0X/core/src/vl53l0x_api.c **** 	LOG_FUNCTION_END(Status);
  65:Drivers/VL53L0X/core/src/vl53l0x_api.c **** 	return Status;
 115              		.loc 1 65 9
 116 0026 97F90F30 		ldrsb	r3, [r7, #15]
  66:Drivers/VL53L0X/core/src/vl53l0x_api.c **** }
 117              		.loc 1 66 1
 118 002a 1846     		mov	r0, r3
 119 002c 1437     		adds	r7, r7, #20
 120              		.cfi_def_cfa_offset 4
 121 002e BD46     		mov	sp, r7
 122              		.cfi_def_cfa_register 13
 123              		@ sp needed
 124 0030 5DF8047B 		ldr	r7, [sp], #4
 125              		.cfi_restore 7
 126              		.cfi_def_cfa_offset 0
 127 0034 7047     		bx	lr
 128              		.cfi_endproc
 129              	.LFE324:
 131              		.section	.text.VL53L0X_GetPalSpecVersion,"ax",%progbits
 132              		.align	1
 133              		.global	VL53L0X_GetPalSpecVersion
 134              		.syntax unified
ARM GAS  C:\Users\Morroway\AppData\Local\Temp\ccih4NWY.s 			page 7


 135              		.thumb
 136              		.thumb_func
 138              	VL53L0X_GetPalSpecVersion:
 139              	.LFB325:
  67:Drivers/VL53L0X/core/src/vl53l0x_api.c **** 
  68:Drivers/VL53L0X/core/src/vl53l0x_api.c **** VL53L0X_Error VL53L0X_GetPalSpecVersion(VL53L0X_Version_t *pPalSpecVersion)
  69:Drivers/VL53L0X/core/src/vl53l0x_api.c **** {
 140              		.loc 1 69 1
 141              		.cfi_startproc
 142              		@ args = 0, pretend = 0, frame = 16
 143              		@ frame_needed = 1, uses_anonymous_args = 0
 144              		@ link register save eliminated.
 145 0000 80B4     		push	{r7}
 146              		.cfi_def_cfa_offset 4
 147              		.cfi_offset 7, -4
 148 0002 85B0     		sub	sp, sp, #20
 149              		.cfi_def_cfa_offset 24
 150 0004 00AF     		add	r7, sp, #0
 151              		.cfi_def_cfa_register 7
 152 0006 7860     		str	r0, [r7, #4]
  70:Drivers/VL53L0X/core/src/vl53l0x_api.c **** 	VL53L0X_Error Status = VL53L0X_ERROR_NONE;
 153              		.loc 1 70 16
 154 0008 0023     		movs	r3, #0
 155 000a FB73     		strb	r3, [r7, #15]
  71:Drivers/VL53L0X/core/src/vl53l0x_api.c **** 
  72:Drivers/VL53L0X/core/src/vl53l0x_api.c **** 	LOG_FUNCTION_START("");
  73:Drivers/VL53L0X/core/src/vl53l0x_api.c **** 
  74:Drivers/VL53L0X/core/src/vl53l0x_api.c **** 	pPalSpecVersion->major = VL53L0X_SPECIFICATION_VER_MAJOR;
 156              		.loc 1 74 25
 157 000c 7B68     		ldr	r3, [r7, #4]
 158 000e 0122     		movs	r2, #1
 159 0010 1A71     		strb	r2, [r3, #4]
  75:Drivers/VL53L0X/core/src/vl53l0x_api.c **** 	pPalSpecVersion->minor = VL53L0X_SPECIFICATION_VER_MINOR;
 160              		.loc 1 75 25
 161 0012 7B68     		ldr	r3, [r7, #4]
 162 0014 0222     		movs	r2, #2
 163 0016 5A71     		strb	r2, [r3, #5]
  76:Drivers/VL53L0X/core/src/vl53l0x_api.c **** 	pPalSpecVersion->build = VL53L0X_SPECIFICATION_VER_SUB;
 164              		.loc 1 76 25
 165 0018 7B68     		ldr	r3, [r7, #4]
 166 001a 0722     		movs	r2, #7
 167 001c 9A71     		strb	r2, [r3, #6]
  77:Drivers/VL53L0X/core/src/vl53l0x_api.c **** 
  78:Drivers/VL53L0X/core/src/vl53l0x_api.c **** 	pPalSpecVersion->revision = VL53L0X_SPECIFICATION_VER_REVISION;
 168              		.loc 1 78 28
 169 001e 7B68     		ldr	r3, [r7, #4]
 170 0020 4FF4B462 		mov	r2, #1440
 171 0024 1A60     		str	r2, [r3]
  79:Drivers/VL53L0X/core/src/vl53l0x_api.c **** 
  80:Drivers/VL53L0X/core/src/vl53l0x_api.c **** 	LOG_FUNCTION_END(Status);
  81:Drivers/VL53L0X/core/src/vl53l0x_api.c **** 	return Status;
 172              		.loc 1 81 9
 173 0026 97F90F30 		ldrsb	r3, [r7, #15]
  82:Drivers/VL53L0X/core/src/vl53l0x_api.c **** }
 174              		.loc 1 82 1
 175 002a 1846     		mov	r0, r3
 176 002c 1437     		adds	r7, r7, #20
ARM GAS  C:\Users\Morroway\AppData\Local\Temp\ccih4NWY.s 			page 8


 177              		.cfi_def_cfa_offset 4
 178 002e BD46     		mov	sp, r7
 179              		.cfi_def_cfa_register 13
 180              		@ sp needed
 181 0030 5DF8047B 		ldr	r7, [sp], #4
 182              		.cfi_restore 7
 183              		.cfi_def_cfa_offset 0
 184 0034 7047     		bx	lr
 185              		.cfi_endproc
 186              	.LFE325:
 188              		.section	.text.VL53L0X_GetProductRevision,"ax",%progbits
 189              		.align	1
 190              		.global	VL53L0X_GetProductRevision
 191              		.syntax unified
 192              		.thumb
 193              		.thumb_func
 195              	VL53L0X_GetProductRevision:
 196              	.LFB326:
  83:Drivers/VL53L0X/core/src/vl53l0x_api.c **** 
  84:Drivers/VL53L0X/core/src/vl53l0x_api.c **** VL53L0X_Error VL53L0X_GetProductRevision(VL53L0X_DEV Dev,
  85:Drivers/VL53L0X/core/src/vl53l0x_api.c **** 	uint8_t *pProductRevisionMajor, uint8_t *pProductRevisionMinor)
  86:Drivers/VL53L0X/core/src/vl53l0x_api.c **** {
 197              		.loc 1 86 1
 198              		.cfi_startproc
 199              		@ args = 0, pretend = 0, frame = 24
 200              		@ frame_needed = 1, uses_anonymous_args = 0
 201 0000 80B5     		push	{r7, lr}
 202              		.cfi_def_cfa_offset 8
 203              		.cfi_offset 7, -8
 204              		.cfi_offset 14, -4
 205 0002 86B0     		sub	sp, sp, #24
 206              		.cfi_def_cfa_offset 32
 207 0004 00AF     		add	r7, sp, #0
 208              		.cfi_def_cfa_register 7
 209 0006 F860     		str	r0, [r7, #12]
 210 0008 B960     		str	r1, [r7, #8]
 211 000a 7A60     		str	r2, [r7, #4]
  87:Drivers/VL53L0X/core/src/vl53l0x_api.c **** 	VL53L0X_Error Status = VL53L0X_ERROR_NONE;
 212              		.loc 1 87 16
 213 000c 0023     		movs	r3, #0
 214 000e FB75     		strb	r3, [r7, #23]
  88:Drivers/VL53L0X/core/src/vl53l0x_api.c **** 	uint8_t revision_id;
  89:Drivers/VL53L0X/core/src/vl53l0x_api.c **** 
  90:Drivers/VL53L0X/core/src/vl53l0x_api.c **** 	LOG_FUNCTION_START("");
  91:Drivers/VL53L0X/core/src/vl53l0x_api.c **** 
  92:Drivers/VL53L0X/core/src/vl53l0x_api.c **** 	Status = VL53L0X_RdByte(Dev, VL53L0X_REG_IDENTIFICATION_REVISION_ID,
 215              		.loc 1 92 11
 216 0010 07F11603 		add	r3, r7, #22
 217 0014 1A46     		mov	r2, r3
 218 0016 C221     		movs	r1, #194
 219 0018 F868     		ldr	r0, [r7, #12]
 220 001a FFF7FEFF 		bl	VL53L0X_RdByte
 221 001e 0346     		mov	r3, r0
 222 0020 FB75     		strb	r3, [r7, #23]
  93:Drivers/VL53L0X/core/src/vl53l0x_api.c **** 		&revision_id);
  94:Drivers/VL53L0X/core/src/vl53l0x_api.c **** 	*pProductRevisionMajor = 1;
 223              		.loc 1 94 25
ARM GAS  C:\Users\Morroway\AppData\Local\Temp\ccih4NWY.s 			page 9


 224 0022 BB68     		ldr	r3, [r7, #8]
 225 0024 0122     		movs	r2, #1
 226 0026 1A70     		strb	r2, [r3]
  95:Drivers/VL53L0X/core/src/vl53l0x_api.c **** 	*pProductRevisionMinor = (revision_id & 0xF0) >> 4;
 227              		.loc 1 95 48
 228 0028 BB7D     		ldrb	r3, [r7, #22]	@ zero_extendqisi2
 229 002a 1B09     		lsrs	r3, r3, #4
 230 002c DAB2     		uxtb	r2, r3
 231              		.loc 1 95 25
 232 002e 7B68     		ldr	r3, [r7, #4]
 233 0030 1A70     		strb	r2, [r3]
  96:Drivers/VL53L0X/core/src/vl53l0x_api.c **** 
  97:Drivers/VL53L0X/core/src/vl53l0x_api.c **** 	LOG_FUNCTION_END(Status);
  98:Drivers/VL53L0X/core/src/vl53l0x_api.c **** 	return Status;
 234              		.loc 1 98 9
 235 0032 97F91730 		ldrsb	r3, [r7, #23]
  99:Drivers/VL53L0X/core/src/vl53l0x_api.c **** 
 100:Drivers/VL53L0X/core/src/vl53l0x_api.c **** }
 236              		.loc 1 100 1
 237 0036 1846     		mov	r0, r3
 238 0038 1837     		adds	r7, r7, #24
 239              		.cfi_def_cfa_offset 8
 240 003a BD46     		mov	sp, r7
 241              		.cfi_def_cfa_register 13
 242              		@ sp needed
 243 003c 80BD     		pop	{r7, pc}
 244              		.cfi_endproc
 245              	.LFE326:
 247              		.section	.text.VL53L0X_GetDeviceInfo,"ax",%progbits
 248              		.align	1
 249              		.global	VL53L0X_GetDeviceInfo
 250              		.syntax unified
 251              		.thumb
 252              		.thumb_func
 254              	VL53L0X_GetDeviceInfo:
 255              	.LFB327:
 101:Drivers/VL53L0X/core/src/vl53l0x_api.c **** 
 102:Drivers/VL53L0X/core/src/vl53l0x_api.c **** VL53L0X_Error VL53L0X_GetDeviceInfo(VL53L0X_DEV Dev,
 103:Drivers/VL53L0X/core/src/vl53l0x_api.c **** 	VL53L0X_DeviceInfo_t *pVL53L0X_DeviceInfo)
 104:Drivers/VL53L0X/core/src/vl53l0x_api.c **** {
 256              		.loc 1 104 1
 257              		.cfi_startproc
 258              		@ args = 0, pretend = 0, frame = 16
 259              		@ frame_needed = 1, uses_anonymous_args = 0
 260 0000 80B5     		push	{r7, lr}
 261              		.cfi_def_cfa_offset 8
 262              		.cfi_offset 7, -8
 263              		.cfi_offset 14, -4
 264 0002 84B0     		sub	sp, sp, #16
 265              		.cfi_def_cfa_offset 24
 266 0004 00AF     		add	r7, sp, #0
 267              		.cfi_def_cfa_register 7
 268 0006 7860     		str	r0, [r7, #4]
 269 0008 3960     		str	r1, [r7]
 105:Drivers/VL53L0X/core/src/vl53l0x_api.c **** 	VL53L0X_Error Status = VL53L0X_ERROR_NONE;
 270              		.loc 1 105 16
 271 000a 0023     		movs	r3, #0
ARM GAS  C:\Users\Morroway\AppData\Local\Temp\ccih4NWY.s 			page 10


 272 000c FB73     		strb	r3, [r7, #15]
 106:Drivers/VL53L0X/core/src/vl53l0x_api.c **** 	LOG_FUNCTION_START("");
 107:Drivers/VL53L0X/core/src/vl53l0x_api.c **** 
 108:Drivers/VL53L0X/core/src/vl53l0x_api.c **** 	Status = VL53L0X_get_device_info(Dev, pVL53L0X_DeviceInfo);
 273              		.loc 1 108 11
 274 000e 3968     		ldr	r1, [r7]
 275 0010 7868     		ldr	r0, [r7, #4]
 276 0012 FFF7FEFF 		bl	VL53L0X_get_device_info
 277 0016 0346     		mov	r3, r0
 278 0018 FB73     		strb	r3, [r7, #15]
 109:Drivers/VL53L0X/core/src/vl53l0x_api.c **** 
 110:Drivers/VL53L0X/core/src/vl53l0x_api.c **** 	LOG_FUNCTION_END(Status);
 111:Drivers/VL53L0X/core/src/vl53l0x_api.c **** 	return Status;
 279              		.loc 1 111 9
 280 001a 97F90F30 		ldrsb	r3, [r7, #15]
 112:Drivers/VL53L0X/core/src/vl53l0x_api.c **** }
 281              		.loc 1 112 1
 282 001e 1846     		mov	r0, r3
 283 0020 1037     		adds	r7, r7, #16
 284              		.cfi_def_cfa_offset 8
 285 0022 BD46     		mov	sp, r7
 286              		.cfi_def_cfa_register 13
 287              		@ sp needed
 288 0024 80BD     		pop	{r7, pc}
 289              		.cfi_endproc
 290              	.LFE327:
 292              		.section	.text.VL53L0X_GetDeviceErrorStatus,"ax",%progbits
 293              		.align	1
 294              		.global	VL53L0X_GetDeviceErrorStatus
 295              		.syntax unified
 296              		.thumb
 297              		.thumb_func
 299              	VL53L0X_GetDeviceErrorStatus:
 300              	.LFB328:
 113:Drivers/VL53L0X/core/src/vl53l0x_api.c **** 
 114:Drivers/VL53L0X/core/src/vl53l0x_api.c **** VL53L0X_Error VL53L0X_GetDeviceErrorStatus(VL53L0X_DEV Dev,
 115:Drivers/VL53L0X/core/src/vl53l0x_api.c **** 	VL53L0X_DeviceError *pDeviceErrorStatus)
 116:Drivers/VL53L0X/core/src/vl53l0x_api.c **** {
 301              		.loc 1 116 1
 302              		.cfi_startproc
 303              		@ args = 0, pretend = 0, frame = 16
 304              		@ frame_needed = 1, uses_anonymous_args = 0
 305 0000 80B5     		push	{r7, lr}
 306              		.cfi_def_cfa_offset 8
 307              		.cfi_offset 7, -8
 308              		.cfi_offset 14, -4
 309 0002 84B0     		sub	sp, sp, #16
 310              		.cfi_def_cfa_offset 24
 311 0004 00AF     		add	r7, sp, #0
 312              		.cfi_def_cfa_register 7
 313 0006 7860     		str	r0, [r7, #4]
 314 0008 3960     		str	r1, [r7]
 117:Drivers/VL53L0X/core/src/vl53l0x_api.c **** 	VL53L0X_Error Status = VL53L0X_ERROR_NONE;
 315              		.loc 1 117 16
 316 000a 0023     		movs	r3, #0
 317 000c FB73     		strb	r3, [r7, #15]
 118:Drivers/VL53L0X/core/src/vl53l0x_api.c **** 	uint8_t RangeStatus;
ARM GAS  C:\Users\Morroway\AppData\Local\Temp\ccih4NWY.s 			page 11


 119:Drivers/VL53L0X/core/src/vl53l0x_api.c **** 
 120:Drivers/VL53L0X/core/src/vl53l0x_api.c **** 	LOG_FUNCTION_START("");
 121:Drivers/VL53L0X/core/src/vl53l0x_api.c **** 
 122:Drivers/VL53L0X/core/src/vl53l0x_api.c **** 	Status = VL53L0X_RdByte(Dev, VL53L0X_REG_RESULT_RANGE_STATUS,
 318              		.loc 1 122 11
 319 000e 07F10E03 		add	r3, r7, #14
 320 0012 1A46     		mov	r2, r3
 321 0014 1421     		movs	r1, #20
 322 0016 7868     		ldr	r0, [r7, #4]
 323 0018 FFF7FEFF 		bl	VL53L0X_RdByte
 324 001c 0346     		mov	r3, r0
 325 001e FB73     		strb	r3, [r7, #15]
 123:Drivers/VL53L0X/core/src/vl53l0x_api.c **** 		&RangeStatus);
 124:Drivers/VL53L0X/core/src/vl53l0x_api.c **** 
 125:Drivers/VL53L0X/core/src/vl53l0x_api.c **** 	*pDeviceErrorStatus = (VL53L0X_DeviceError)((RangeStatus & 0x78) >> 3);
 326              		.loc 1 125 67
 327 0020 BB7B     		ldrb	r3, [r7, #14]	@ zero_extendqisi2
 328 0022 DB10     		asrs	r3, r3, #3
 329              		.loc 1 125 24
 330 0024 DBB2     		uxtb	r3, r3
 331 0026 03F00F03 		and	r3, r3, #15
 332 002a DAB2     		uxtb	r2, r3
 333              		.loc 1 125 22
 334 002c 3B68     		ldr	r3, [r7]
 335 002e 1A70     		strb	r2, [r3]
 126:Drivers/VL53L0X/core/src/vl53l0x_api.c **** 
 127:Drivers/VL53L0X/core/src/vl53l0x_api.c **** 	LOG_FUNCTION_END(Status);
 128:Drivers/VL53L0X/core/src/vl53l0x_api.c **** 	return Status;
 336              		.loc 1 128 9
 337 0030 97F90F30 		ldrsb	r3, [r7, #15]
 129:Drivers/VL53L0X/core/src/vl53l0x_api.c **** }
 338              		.loc 1 129 1
 339 0034 1846     		mov	r0, r3
 340 0036 1037     		adds	r7, r7, #16
 341              		.cfi_def_cfa_offset 8
 342 0038 BD46     		mov	sp, r7
 343              		.cfi_def_cfa_register 13
 344              		@ sp needed
 345 003a 80BD     		pop	{r7, pc}
 346              		.cfi_endproc
 347              	.LFE328:
 349              		.section	.text.VL53L0X_GetDeviceErrorString,"ax",%progbits
 350              		.align	1
 351              		.global	VL53L0X_GetDeviceErrorString
 352              		.syntax unified
 353              		.thumb
 354              		.thumb_func
 356              	VL53L0X_GetDeviceErrorString:
 357              	.LFB329:
 130:Drivers/VL53L0X/core/src/vl53l0x_api.c **** 
 131:Drivers/VL53L0X/core/src/vl53l0x_api.c **** 
 132:Drivers/VL53L0X/core/src/vl53l0x_api.c **** VL53L0X_Error VL53L0X_GetDeviceErrorString(VL53L0X_DeviceError ErrorCode,
 133:Drivers/VL53L0X/core/src/vl53l0x_api.c **** 	char *pDeviceErrorString)
 134:Drivers/VL53L0X/core/src/vl53l0x_api.c **** {
 358              		.loc 1 134 1
 359              		.cfi_startproc
 360              		@ args = 0, pretend = 0, frame = 16
ARM GAS  C:\Users\Morroway\AppData\Local\Temp\ccih4NWY.s 			page 12


 361              		@ frame_needed = 1, uses_anonymous_args = 0
 362 0000 80B5     		push	{r7, lr}
 363              		.cfi_def_cfa_offset 8
 364              		.cfi_offset 7, -8
 365              		.cfi_offset 14, -4
 366 0002 84B0     		sub	sp, sp, #16
 367              		.cfi_def_cfa_offset 24
 368 0004 00AF     		add	r7, sp, #0
 369              		.cfi_def_cfa_register 7
 370 0006 0346     		mov	r3, r0
 371 0008 3960     		str	r1, [r7]
 372 000a FB71     		strb	r3, [r7, #7]
 135:Drivers/VL53L0X/core/src/vl53l0x_api.c **** 	VL53L0X_Error Status = VL53L0X_ERROR_NONE;
 373              		.loc 1 135 16
 374 000c 0023     		movs	r3, #0
 375 000e FB73     		strb	r3, [r7, #15]
 136:Drivers/VL53L0X/core/src/vl53l0x_api.c **** 
 137:Drivers/VL53L0X/core/src/vl53l0x_api.c **** 	LOG_FUNCTION_START("");
 138:Drivers/VL53L0X/core/src/vl53l0x_api.c **** 
 139:Drivers/VL53L0X/core/src/vl53l0x_api.c **** 	Status = VL53L0X_get_device_error_string(ErrorCode, pDeviceErrorString);
 376              		.loc 1 139 11
 377 0010 FB79     		ldrb	r3, [r7, #7]	@ zero_extendqisi2
 378 0012 3968     		ldr	r1, [r7]
 379 0014 1846     		mov	r0, r3
 380 0016 FFF7FEFF 		bl	VL53L0X_get_device_error_string
 381 001a 0346     		mov	r3, r0
 382 001c FB73     		strb	r3, [r7, #15]
 140:Drivers/VL53L0X/core/src/vl53l0x_api.c **** 
 141:Drivers/VL53L0X/core/src/vl53l0x_api.c **** 	LOG_FUNCTION_END(Status);
 142:Drivers/VL53L0X/core/src/vl53l0x_api.c **** 	return Status;
 383              		.loc 1 142 9
 384 001e 97F90F30 		ldrsb	r3, [r7, #15]
 143:Drivers/VL53L0X/core/src/vl53l0x_api.c **** }
 385              		.loc 1 143 1
 386 0022 1846     		mov	r0, r3
 387 0024 1037     		adds	r7, r7, #16
 388              		.cfi_def_cfa_offset 8
 389 0026 BD46     		mov	sp, r7
 390              		.cfi_def_cfa_register 13
 391              		@ sp needed
 392 0028 80BD     		pop	{r7, pc}
 393              		.cfi_endproc
 394              	.LFE329:
 396              		.section	.text.VL53L0X_GetRangeStatusString,"ax",%progbits
 397              		.align	1
 398              		.global	VL53L0X_GetRangeStatusString
 399              		.syntax unified
 400              		.thumb
 401              		.thumb_func
 403              	VL53L0X_GetRangeStatusString:
 404              	.LFB330:
 144:Drivers/VL53L0X/core/src/vl53l0x_api.c **** 
 145:Drivers/VL53L0X/core/src/vl53l0x_api.c **** VL53L0X_Error VL53L0X_GetRangeStatusString(uint8_t RangeStatus,
 146:Drivers/VL53L0X/core/src/vl53l0x_api.c **** 	char *pRangeStatusString)
 147:Drivers/VL53L0X/core/src/vl53l0x_api.c **** {
 405              		.loc 1 147 1
 406              		.cfi_startproc
ARM GAS  C:\Users\Morroway\AppData\Local\Temp\ccih4NWY.s 			page 13


 407              		@ args = 0, pretend = 0, frame = 16
 408              		@ frame_needed = 1, uses_anonymous_args = 0
 409 0000 80B5     		push	{r7, lr}
 410              		.cfi_def_cfa_offset 8
 411              		.cfi_offset 7, -8
 412              		.cfi_offset 14, -4
 413 0002 84B0     		sub	sp, sp, #16
 414              		.cfi_def_cfa_offset 24
 415 0004 00AF     		add	r7, sp, #0
 416              		.cfi_def_cfa_register 7
 417 0006 0346     		mov	r3, r0
 418 0008 3960     		str	r1, [r7]
 419 000a FB71     		strb	r3, [r7, #7]
 148:Drivers/VL53L0X/core/src/vl53l0x_api.c **** 	VL53L0X_Error Status = VL53L0X_ERROR_NONE;
 420              		.loc 1 148 16
 421 000c 0023     		movs	r3, #0
 422 000e FB73     		strb	r3, [r7, #15]
 149:Drivers/VL53L0X/core/src/vl53l0x_api.c **** 	LOG_FUNCTION_START("");
 150:Drivers/VL53L0X/core/src/vl53l0x_api.c **** 
 151:Drivers/VL53L0X/core/src/vl53l0x_api.c **** 	Status = VL53L0X_get_range_status_string(RangeStatus,
 423              		.loc 1 151 11
 424 0010 FB79     		ldrb	r3, [r7, #7]	@ zero_extendqisi2
 425 0012 3968     		ldr	r1, [r7]
 426 0014 1846     		mov	r0, r3
 427 0016 FFF7FEFF 		bl	VL53L0X_get_range_status_string
 428 001a 0346     		mov	r3, r0
 429 001c FB73     		strb	r3, [r7, #15]
 152:Drivers/VL53L0X/core/src/vl53l0x_api.c **** 		pRangeStatusString);
 153:Drivers/VL53L0X/core/src/vl53l0x_api.c **** 
 154:Drivers/VL53L0X/core/src/vl53l0x_api.c **** 	LOG_FUNCTION_END(Status);
 155:Drivers/VL53L0X/core/src/vl53l0x_api.c **** 	return Status;
 430              		.loc 1 155 9
 431 001e 97F90F30 		ldrsb	r3, [r7, #15]
 156:Drivers/VL53L0X/core/src/vl53l0x_api.c **** }
 432              		.loc 1 156 1
 433 0022 1846     		mov	r0, r3
 434 0024 1037     		adds	r7, r7, #16
 435              		.cfi_def_cfa_offset 8
 436 0026 BD46     		mov	sp, r7
 437              		.cfi_def_cfa_register 13
 438              		@ sp needed
 439 0028 80BD     		pop	{r7, pc}
 440              		.cfi_endproc
 441              	.LFE330:
 443              		.section	.text.VL53L0X_GetPalErrorString,"ax",%progbits
 444              		.align	1
 445              		.global	VL53L0X_GetPalErrorString
 446              		.syntax unified
 447              		.thumb
 448              		.thumb_func
 450              	VL53L0X_GetPalErrorString:
 451              	.LFB331:
 157:Drivers/VL53L0X/core/src/vl53l0x_api.c **** 
 158:Drivers/VL53L0X/core/src/vl53l0x_api.c **** VL53L0X_Error VL53L0X_GetPalErrorString(VL53L0X_Error PalErrorCode,
 159:Drivers/VL53L0X/core/src/vl53l0x_api.c **** 	char *pPalErrorString)
 160:Drivers/VL53L0X/core/src/vl53l0x_api.c **** {
 452              		.loc 1 160 1
ARM GAS  C:\Users\Morroway\AppData\Local\Temp\ccih4NWY.s 			page 14


 453              		.cfi_startproc
 454              		@ args = 0, pretend = 0, frame = 16
 455              		@ frame_needed = 1, uses_anonymous_args = 0
 456 0000 80B5     		push	{r7, lr}
 457              		.cfi_def_cfa_offset 8
 458              		.cfi_offset 7, -8
 459              		.cfi_offset 14, -4
 460 0002 84B0     		sub	sp, sp, #16
 461              		.cfi_def_cfa_offset 24
 462 0004 00AF     		add	r7, sp, #0
 463              		.cfi_def_cfa_register 7
 464 0006 0346     		mov	r3, r0
 465 0008 3960     		str	r1, [r7]
 466 000a FB71     		strb	r3, [r7, #7]
 161:Drivers/VL53L0X/core/src/vl53l0x_api.c **** 	VL53L0X_Error Status = VL53L0X_ERROR_NONE;
 467              		.loc 1 161 16
 468 000c 0023     		movs	r3, #0
 469 000e FB73     		strb	r3, [r7, #15]
 162:Drivers/VL53L0X/core/src/vl53l0x_api.c **** 	LOG_FUNCTION_START("");
 163:Drivers/VL53L0X/core/src/vl53l0x_api.c **** 
 164:Drivers/VL53L0X/core/src/vl53l0x_api.c **** 	Status = VL53L0X_get_pal_error_string(PalErrorCode, pPalErrorString);
 470              		.loc 1 164 11
 471 0010 97F90730 		ldrsb	r3, [r7, #7]
 472 0014 3968     		ldr	r1, [r7]
 473 0016 1846     		mov	r0, r3
 474 0018 FFF7FEFF 		bl	VL53L0X_get_pal_error_string
 475 001c 0346     		mov	r3, r0
 476 001e FB73     		strb	r3, [r7, #15]
 165:Drivers/VL53L0X/core/src/vl53l0x_api.c **** 
 166:Drivers/VL53L0X/core/src/vl53l0x_api.c **** 	LOG_FUNCTION_END(Status);
 167:Drivers/VL53L0X/core/src/vl53l0x_api.c **** 	return Status;
 477              		.loc 1 167 9
 478 0020 97F90F30 		ldrsb	r3, [r7, #15]
 168:Drivers/VL53L0X/core/src/vl53l0x_api.c **** }
 479              		.loc 1 168 1
 480 0024 1846     		mov	r0, r3
 481 0026 1037     		adds	r7, r7, #16
 482              		.cfi_def_cfa_offset 8
 483 0028 BD46     		mov	sp, r7
 484              		.cfi_def_cfa_register 13
 485              		@ sp needed
 486 002a 80BD     		pop	{r7, pc}
 487              		.cfi_endproc
 488              	.LFE331:
 490              		.section	.text.VL53L0X_GetPalStateString,"ax",%progbits
 491              		.align	1
 492              		.global	VL53L0X_GetPalStateString
 493              		.syntax unified
 494              		.thumb
 495              		.thumb_func
 497              	VL53L0X_GetPalStateString:
 498              	.LFB332:
 169:Drivers/VL53L0X/core/src/vl53l0x_api.c **** 
 170:Drivers/VL53L0X/core/src/vl53l0x_api.c **** VL53L0X_Error VL53L0X_GetPalStateString(VL53L0X_State PalStateCode,
 171:Drivers/VL53L0X/core/src/vl53l0x_api.c **** 	char *pPalStateString)
 172:Drivers/VL53L0X/core/src/vl53l0x_api.c **** {
 499              		.loc 1 172 1
ARM GAS  C:\Users\Morroway\AppData\Local\Temp\ccih4NWY.s 			page 15


 500              		.cfi_startproc
 501              		@ args = 0, pretend = 0, frame = 16
 502              		@ frame_needed = 1, uses_anonymous_args = 0
 503 0000 80B5     		push	{r7, lr}
 504              		.cfi_def_cfa_offset 8
 505              		.cfi_offset 7, -8
 506              		.cfi_offset 14, -4
 507 0002 84B0     		sub	sp, sp, #16
 508              		.cfi_def_cfa_offset 24
 509 0004 00AF     		add	r7, sp, #0
 510              		.cfi_def_cfa_register 7
 511 0006 0346     		mov	r3, r0
 512 0008 3960     		str	r1, [r7]
 513 000a FB71     		strb	r3, [r7, #7]
 173:Drivers/VL53L0X/core/src/vl53l0x_api.c **** 	VL53L0X_Error Status = VL53L0X_ERROR_NONE;
 514              		.loc 1 173 16
 515 000c 0023     		movs	r3, #0
 516 000e FB73     		strb	r3, [r7, #15]
 174:Drivers/VL53L0X/core/src/vl53l0x_api.c **** 	LOG_FUNCTION_START("");
 175:Drivers/VL53L0X/core/src/vl53l0x_api.c **** 
 176:Drivers/VL53L0X/core/src/vl53l0x_api.c **** 	Status = VL53L0X_get_pal_state_string(PalStateCode, pPalStateString);
 517              		.loc 1 176 11
 518 0010 FB79     		ldrb	r3, [r7, #7]	@ zero_extendqisi2
 519 0012 3968     		ldr	r1, [r7]
 520 0014 1846     		mov	r0, r3
 521 0016 FFF7FEFF 		bl	VL53L0X_get_pal_state_string
 522 001a 0346     		mov	r3, r0
 523 001c FB73     		strb	r3, [r7, #15]
 177:Drivers/VL53L0X/core/src/vl53l0x_api.c **** 
 178:Drivers/VL53L0X/core/src/vl53l0x_api.c **** 	LOG_FUNCTION_END(Status);
 179:Drivers/VL53L0X/core/src/vl53l0x_api.c **** 	return Status;
 524              		.loc 1 179 9
 525 001e 97F90F30 		ldrsb	r3, [r7, #15]
 180:Drivers/VL53L0X/core/src/vl53l0x_api.c **** }
 526              		.loc 1 180 1
 527 0022 1846     		mov	r0, r3
 528 0024 1037     		adds	r7, r7, #16
 529              		.cfi_def_cfa_offset 8
 530 0026 BD46     		mov	sp, r7
 531              		.cfi_def_cfa_register 13
 532              		@ sp needed
 533 0028 80BD     		pop	{r7, pc}
 534              		.cfi_endproc
 535              	.LFE332:
 537              		.section	.text.VL53L0X_GetPalState,"ax",%progbits
 538              		.align	1
 539              		.global	VL53L0X_GetPalState
 540              		.syntax unified
 541              		.thumb
 542              		.thumb_func
 544              	VL53L0X_GetPalState:
 545              	.LFB333:
 181:Drivers/VL53L0X/core/src/vl53l0x_api.c **** 
 182:Drivers/VL53L0X/core/src/vl53l0x_api.c **** VL53L0X_Error VL53L0X_GetPalState(VL53L0X_DEV Dev, VL53L0X_State *pPalState)
 183:Drivers/VL53L0X/core/src/vl53l0x_api.c **** {
 546              		.loc 1 183 1
 547              		.cfi_startproc
ARM GAS  C:\Users\Morroway\AppData\Local\Temp\ccih4NWY.s 			page 16


 548              		@ args = 0, pretend = 0, frame = 16
 549              		@ frame_needed = 1, uses_anonymous_args = 0
 550              		@ link register save eliminated.
 551 0000 80B4     		push	{r7}
 552              		.cfi_def_cfa_offset 4
 553              		.cfi_offset 7, -4
 554 0002 85B0     		sub	sp, sp, #20
 555              		.cfi_def_cfa_offset 24
 556 0004 00AF     		add	r7, sp, #0
 557              		.cfi_def_cfa_register 7
 558 0006 7860     		str	r0, [r7, #4]
 559 0008 3960     		str	r1, [r7]
 184:Drivers/VL53L0X/core/src/vl53l0x_api.c **** 	VL53L0X_Error Status = VL53L0X_ERROR_NONE;
 560              		.loc 1 184 16
 561 000a 0023     		movs	r3, #0
 562 000c FB73     		strb	r3, [r7, #15]
 185:Drivers/VL53L0X/core/src/vl53l0x_api.c **** 	LOG_FUNCTION_START("");
 186:Drivers/VL53L0X/core/src/vl53l0x_api.c **** 
 187:Drivers/VL53L0X/core/src/vl53l0x_api.c **** 	*pPalState = PALDevDataGet(Dev, PalState);
 563              		.loc 1 187 15
 564 000e 7B68     		ldr	r3, [r7, #4]
 565 0010 93F83221 		ldrb	r2, [r3, #306]	@ zero_extendqisi2
 566              		.loc 1 187 13
 567 0014 3B68     		ldr	r3, [r7]
 568 0016 1A70     		strb	r2, [r3]
 188:Drivers/VL53L0X/core/src/vl53l0x_api.c **** 
 189:Drivers/VL53L0X/core/src/vl53l0x_api.c **** 	LOG_FUNCTION_END(Status);
 190:Drivers/VL53L0X/core/src/vl53l0x_api.c **** 	return Status;
 569              		.loc 1 190 9
 570 0018 97F90F30 		ldrsb	r3, [r7, #15]
 191:Drivers/VL53L0X/core/src/vl53l0x_api.c **** }
 571              		.loc 1 191 1
 572 001c 1846     		mov	r0, r3
 573 001e 1437     		adds	r7, r7, #20
 574              		.cfi_def_cfa_offset 4
 575 0020 BD46     		mov	sp, r7
 576              		.cfi_def_cfa_register 13
 577              		@ sp needed
 578 0022 5DF8047B 		ldr	r7, [sp], #4
 579              		.cfi_restore 7
 580              		.cfi_def_cfa_offset 0
 581 0026 7047     		bx	lr
 582              		.cfi_endproc
 583              	.LFE333:
 585              		.section	.text.VL53L0X_SetPowerMode,"ax",%progbits
 586              		.align	1
 587              		.global	VL53L0X_SetPowerMode
 588              		.syntax unified
 589              		.thumb
 590              		.thumb_func
 592              	VL53L0X_SetPowerMode:
 593              	.LFB334:
 192:Drivers/VL53L0X/core/src/vl53l0x_api.c **** 
 193:Drivers/VL53L0X/core/src/vl53l0x_api.c **** VL53L0X_Error VL53L0X_SetPowerMode(VL53L0X_DEV Dev, VL53L0X_PowerModes PowerMode)
 194:Drivers/VL53L0X/core/src/vl53l0x_api.c **** {
 594              		.loc 1 194 1
 595              		.cfi_startproc
ARM GAS  C:\Users\Morroway\AppData\Local\Temp\ccih4NWY.s 			page 17


 596              		@ args = 0, pretend = 0, frame = 16
 597              		@ frame_needed = 1, uses_anonymous_args = 0
 598 0000 80B5     		push	{r7, lr}
 599              		.cfi_def_cfa_offset 8
 600              		.cfi_offset 7, -8
 601              		.cfi_offset 14, -4
 602 0002 84B0     		sub	sp, sp, #16
 603              		.cfi_def_cfa_offset 24
 604 0004 00AF     		add	r7, sp, #0
 605              		.cfi_def_cfa_register 7
 606 0006 7860     		str	r0, [r7, #4]
 607 0008 0B46     		mov	r3, r1
 608 000a FB70     		strb	r3, [r7, #3]
 195:Drivers/VL53L0X/core/src/vl53l0x_api.c **** 	VL53L0X_Error Status = VL53L0X_ERROR_NONE;
 609              		.loc 1 195 16
 610 000c 0023     		movs	r3, #0
 611 000e FB73     		strb	r3, [r7, #15]
 196:Drivers/VL53L0X/core/src/vl53l0x_api.c **** 	LOG_FUNCTION_START("");
 197:Drivers/VL53L0X/core/src/vl53l0x_api.c **** 
 198:Drivers/VL53L0X/core/src/vl53l0x_api.c **** 	/* Only level1 of Power mode exists */
 199:Drivers/VL53L0X/core/src/vl53l0x_api.c **** 	if ((PowerMode != VL53L0X_POWERMODE_STANDBY_LEVEL1)
 612              		.loc 1 199 5
 613 0010 FB78     		ldrb	r3, [r7, #3]	@ zero_extendqisi2
 614 0012 002B     		cmp	r3, #0
 615 0014 05D0     		beq	.L22
 200:Drivers/VL53L0X/core/src/vl53l0x_api.c **** 		&& (PowerMode != VL53L0X_POWERMODE_IDLE_LEVEL1)) {
 616              		.loc 1 200 3
 617 0016 FB78     		ldrb	r3, [r7, #3]	@ zero_extendqisi2
 618 0018 022B     		cmp	r3, #2
 619 001a 02D0     		beq	.L22
 201:Drivers/VL53L0X/core/src/vl53l0x_api.c **** 		Status = VL53L0X_ERROR_MODE_NOT_SUPPORTED;
 620              		.loc 1 201 10
 621 001c F823     		movs	r3, #248
 622 001e FB73     		strb	r3, [r7, #15]
 623 0020 2EE0     		b	.L23
 624              	.L22:
 202:Drivers/VL53L0X/core/src/vl53l0x_api.c **** 	} else if (PowerMode == VL53L0X_POWERMODE_STANDBY_LEVEL1) {
 625              		.loc 1 202 12
 626 0022 FB78     		ldrb	r3, [r7, #3]	@ zero_extendqisi2
 627 0024 002B     		cmp	r3, #0
 628 0026 13D1     		bne	.L24
 203:Drivers/VL53L0X/core/src/vl53l0x_api.c **** 		/* set the standby level1 of power mode */
 204:Drivers/VL53L0X/core/src/vl53l0x_api.c **** 		Status = VL53L0X_WrByte(Dev, 0x80, 0x00);
 629              		.loc 1 204 12
 630 0028 0022     		movs	r2, #0
 631 002a 8021     		movs	r1, #128
 632 002c 7868     		ldr	r0, [r7, #4]
 633 002e FFF7FEFF 		bl	VL53L0X_WrByte
 634 0032 0346     		mov	r3, r0
 635 0034 FB73     		strb	r3, [r7, #15]
 205:Drivers/VL53L0X/core/src/vl53l0x_api.c **** 		if (Status == VL53L0X_ERROR_NONE) {
 636              		.loc 1 205 6
 637 0036 97F90F30 		ldrsb	r3, [r7, #15]
 638 003a 002B     		cmp	r3, #0
 639 003c 20D1     		bne	.L23
 206:Drivers/VL53L0X/core/src/vl53l0x_api.c **** 			/* Set PAL State to standby */
 207:Drivers/VL53L0X/core/src/vl53l0x_api.c **** 			PALDevDataSet(Dev, PalState, VL53L0X_STATE_STANDBY);
ARM GAS  C:\Users\Morroway\AppData\Local\Temp\ccih4NWY.s 			page 18


 640              		.loc 1 207 4
 641 003e 7B68     		ldr	r3, [r7, #4]
 642 0040 0222     		movs	r2, #2
 643 0042 83F83221 		strb	r2, [r3, #306]
 208:Drivers/VL53L0X/core/src/vl53l0x_api.c **** 			PALDevDataSet(Dev, PowerMode,
 644              		.loc 1 208 4
 645 0046 7B68     		ldr	r3, [r7, #4]
 646 0048 0022     		movs	r2, #0
 647 004a 83F83321 		strb	r2, [r3, #307]
 648 004e 17E0     		b	.L23
 649              	.L24:
 209:Drivers/VL53L0X/core/src/vl53l0x_api.c **** 				VL53L0X_POWERMODE_STANDBY_LEVEL1);
 210:Drivers/VL53L0X/core/src/vl53l0x_api.c **** 		}
 211:Drivers/VL53L0X/core/src/vl53l0x_api.c **** 
 212:Drivers/VL53L0X/core/src/vl53l0x_api.c **** 	} else {
 213:Drivers/VL53L0X/core/src/vl53l0x_api.c **** 		/* VL53L0X_POWERMODE_IDLE_LEVEL1 */
 214:Drivers/VL53L0X/core/src/vl53l0x_api.c **** 		Status = VL53L0X_WrByte(Dev, 0x80, 0x00);
 650              		.loc 1 214 12
 651 0050 0022     		movs	r2, #0
 652 0052 8021     		movs	r1, #128
 653 0054 7868     		ldr	r0, [r7, #4]
 654 0056 FFF7FEFF 		bl	VL53L0X_WrByte
 655 005a 0346     		mov	r3, r0
 656 005c FB73     		strb	r3, [r7, #15]
 215:Drivers/VL53L0X/core/src/vl53l0x_api.c **** 		if (Status == VL53L0X_ERROR_NONE)
 657              		.loc 1 215 6
 658 005e 97F90F30 		ldrsb	r3, [r7, #15]
 659 0062 002B     		cmp	r3, #0
 660 0064 04D1     		bne	.L25
 216:Drivers/VL53L0X/core/src/vl53l0x_api.c **** 			Status = VL53L0X_StaticInit(Dev);
 661              		.loc 1 216 13
 662 0066 7868     		ldr	r0, [r7, #4]
 663 0068 FFF7FEFF 		bl	VL53L0X_StaticInit
 664 006c 0346     		mov	r3, r0
 665 006e FB73     		strb	r3, [r7, #15]
 666              	.L25:
 217:Drivers/VL53L0X/core/src/vl53l0x_api.c **** 
 218:Drivers/VL53L0X/core/src/vl53l0x_api.c **** 		if (Status == VL53L0X_ERROR_NONE)
 667              		.loc 1 218 6
 668 0070 97F90F30 		ldrsb	r3, [r7, #15]
 669 0074 002B     		cmp	r3, #0
 670 0076 03D1     		bne	.L23
 219:Drivers/VL53L0X/core/src/vl53l0x_api.c **** 			PALDevDataSet(Dev, PowerMode,
 671              		.loc 1 219 4
 672 0078 7B68     		ldr	r3, [r7, #4]
 673 007a 0222     		movs	r2, #2
 674 007c 83F83321 		strb	r2, [r3, #307]
 675              	.L23:
 220:Drivers/VL53L0X/core/src/vl53l0x_api.c **** 				VL53L0X_POWERMODE_IDLE_LEVEL1);
 221:Drivers/VL53L0X/core/src/vl53l0x_api.c **** 
 222:Drivers/VL53L0X/core/src/vl53l0x_api.c **** 	}
 223:Drivers/VL53L0X/core/src/vl53l0x_api.c **** 
 224:Drivers/VL53L0X/core/src/vl53l0x_api.c **** 	LOG_FUNCTION_END(Status);
 225:Drivers/VL53L0X/core/src/vl53l0x_api.c **** 	return Status;
 676              		.loc 1 225 9
 677 0080 97F90F30 		ldrsb	r3, [r7, #15]
 226:Drivers/VL53L0X/core/src/vl53l0x_api.c **** }
ARM GAS  C:\Users\Morroway\AppData\Local\Temp\ccih4NWY.s 			page 19


 678              		.loc 1 226 1
 679 0084 1846     		mov	r0, r3
 680 0086 1037     		adds	r7, r7, #16
 681              		.cfi_def_cfa_offset 8
 682 0088 BD46     		mov	sp, r7
 683              		.cfi_def_cfa_register 13
 684              		@ sp needed
 685 008a 80BD     		pop	{r7, pc}
 686              		.cfi_endproc
 687              	.LFE334:
 689              		.section	.text.VL53L0X_GetPowerMode,"ax",%progbits
 690              		.align	1
 691              		.global	VL53L0X_GetPowerMode
 692              		.syntax unified
 693              		.thumb
 694              		.thumb_func
 696              	VL53L0X_GetPowerMode:
 697              	.LFB335:
 227:Drivers/VL53L0X/core/src/vl53l0x_api.c **** 
 228:Drivers/VL53L0X/core/src/vl53l0x_api.c **** VL53L0X_Error VL53L0X_GetPowerMode(VL53L0X_DEV Dev, VL53L0X_PowerModes *pPowerMode)
 229:Drivers/VL53L0X/core/src/vl53l0x_api.c **** {
 698              		.loc 1 229 1
 699              		.cfi_startproc
 700              		@ args = 0, pretend = 0, frame = 16
 701              		@ frame_needed = 1, uses_anonymous_args = 0
 702 0000 80B5     		push	{r7, lr}
 703              		.cfi_def_cfa_offset 8
 704              		.cfi_offset 7, -8
 705              		.cfi_offset 14, -4
 706 0002 84B0     		sub	sp, sp, #16
 707              		.cfi_def_cfa_offset 24
 708 0004 00AF     		add	r7, sp, #0
 709              		.cfi_def_cfa_register 7
 710 0006 7860     		str	r0, [r7, #4]
 711 0008 3960     		str	r1, [r7]
 230:Drivers/VL53L0X/core/src/vl53l0x_api.c **** 	VL53L0X_Error Status = VL53L0X_ERROR_NONE;
 712              		.loc 1 230 16
 713 000a 0023     		movs	r3, #0
 714 000c FB73     		strb	r3, [r7, #15]
 231:Drivers/VL53L0X/core/src/vl53l0x_api.c **** 	uint8_t Byte;
 232:Drivers/VL53L0X/core/src/vl53l0x_api.c **** 	LOG_FUNCTION_START("");
 233:Drivers/VL53L0X/core/src/vl53l0x_api.c **** 
 234:Drivers/VL53L0X/core/src/vl53l0x_api.c **** 	/* Only level1 of Power mode exists */
 235:Drivers/VL53L0X/core/src/vl53l0x_api.c **** 	Status = VL53L0X_RdByte(Dev, 0x80, &Byte);
 715              		.loc 1 235 11
 716 000e 07F10E03 		add	r3, r7, #14
 717 0012 1A46     		mov	r2, r3
 718 0014 8021     		movs	r1, #128
 719 0016 7868     		ldr	r0, [r7, #4]
 720 0018 FFF7FEFF 		bl	VL53L0X_RdByte
 721 001c 0346     		mov	r3, r0
 722 001e FB73     		strb	r3, [r7, #15]
 236:Drivers/VL53L0X/core/src/vl53l0x_api.c **** 
 237:Drivers/VL53L0X/core/src/vl53l0x_api.c **** 	if (Status == VL53L0X_ERROR_NONE) {
 723              		.loc 1 237 5
 724 0020 97F90F30 		ldrsb	r3, [r7, #15]
 725 0024 002B     		cmp	r3, #0
ARM GAS  C:\Users\Morroway\AppData\Local\Temp\ccih4NWY.s 			page 20


 726 0026 0BD1     		bne	.L28
 238:Drivers/VL53L0X/core/src/vl53l0x_api.c **** 		if (Byte == 1) {
 727              		.loc 1 238 12
 728 0028 BB7B     		ldrb	r3, [r7, #14]	@ zero_extendqisi2
 729              		.loc 1 238 6
 730 002a 012B     		cmp	r3, #1
 731 002c 04D1     		bne	.L29
 239:Drivers/VL53L0X/core/src/vl53l0x_api.c **** 			PALDevDataSet(Dev, PowerMode,
 732              		.loc 1 239 4
 733 002e 7B68     		ldr	r3, [r7, #4]
 734 0030 0222     		movs	r2, #2
 735 0032 83F83321 		strb	r2, [r3, #307]
 736 0036 03E0     		b	.L28
 737              	.L29:
 240:Drivers/VL53L0X/core/src/vl53l0x_api.c **** 				VL53L0X_POWERMODE_IDLE_LEVEL1);
 241:Drivers/VL53L0X/core/src/vl53l0x_api.c **** 		} else {
 242:Drivers/VL53L0X/core/src/vl53l0x_api.c **** 			PALDevDataSet(Dev, PowerMode,
 738              		.loc 1 242 4
 739 0038 7B68     		ldr	r3, [r7, #4]
 740 003a 0022     		movs	r2, #0
 741 003c 83F83321 		strb	r2, [r3, #307]
 742              	.L28:
 243:Drivers/VL53L0X/core/src/vl53l0x_api.c **** 				VL53L0X_POWERMODE_STANDBY_LEVEL1);
 244:Drivers/VL53L0X/core/src/vl53l0x_api.c **** 		}
 245:Drivers/VL53L0X/core/src/vl53l0x_api.c **** 	}
 246:Drivers/VL53L0X/core/src/vl53l0x_api.c **** 
 247:Drivers/VL53L0X/core/src/vl53l0x_api.c **** 	LOG_FUNCTION_END(Status);
 248:Drivers/VL53L0X/core/src/vl53l0x_api.c **** 	return Status;
 743              		.loc 1 248 9
 744 0040 97F90F30 		ldrsb	r3, [r7, #15]
 249:Drivers/VL53L0X/core/src/vl53l0x_api.c **** }
 745              		.loc 1 249 1
 746 0044 1846     		mov	r0, r3
 747 0046 1037     		adds	r7, r7, #16
 748              		.cfi_def_cfa_offset 8
 749 0048 BD46     		mov	sp, r7
 750              		.cfi_def_cfa_register 13
 751              		@ sp needed
 752 004a 80BD     		pop	{r7, pc}
 753              		.cfi_endproc
 754              	.LFE335:
 756              		.section	.text.VL53L0X_SetOffsetCalibrationDataMicroMeter,"ax",%progbits
 757              		.align	1
 758              		.global	VL53L0X_SetOffsetCalibrationDataMicroMeter
 759              		.syntax unified
 760              		.thumb
 761              		.thumb_func
 763              	VL53L0X_SetOffsetCalibrationDataMicroMeter:
 764              	.LFB336:
 250:Drivers/VL53L0X/core/src/vl53l0x_api.c **** 
 251:Drivers/VL53L0X/core/src/vl53l0x_api.c **** VL53L0X_Error VL53L0X_SetOffsetCalibrationDataMicroMeter(VL53L0X_DEV Dev,
 252:Drivers/VL53L0X/core/src/vl53l0x_api.c **** 	int32_t OffsetCalibrationDataMicroMeter)
 253:Drivers/VL53L0X/core/src/vl53l0x_api.c **** {
 765              		.loc 1 253 1
 766              		.cfi_startproc
 767              		@ args = 0, pretend = 0, frame = 16
 768              		@ frame_needed = 1, uses_anonymous_args = 0
ARM GAS  C:\Users\Morroway\AppData\Local\Temp\ccih4NWY.s 			page 21


 769 0000 80B5     		push	{r7, lr}
 770              		.cfi_def_cfa_offset 8
 771              		.cfi_offset 7, -8
 772              		.cfi_offset 14, -4
 773 0002 84B0     		sub	sp, sp, #16
 774              		.cfi_def_cfa_offset 24
 775 0004 00AF     		add	r7, sp, #0
 776              		.cfi_def_cfa_register 7
 777 0006 7860     		str	r0, [r7, #4]
 778 0008 3960     		str	r1, [r7]
 254:Drivers/VL53L0X/core/src/vl53l0x_api.c **** 	VL53L0X_Error Status = VL53L0X_ERROR_NONE;
 779              		.loc 1 254 16
 780 000a 0023     		movs	r3, #0
 781 000c FB73     		strb	r3, [r7, #15]
 255:Drivers/VL53L0X/core/src/vl53l0x_api.c **** 	LOG_FUNCTION_START("");
 256:Drivers/VL53L0X/core/src/vl53l0x_api.c **** 
 257:Drivers/VL53L0X/core/src/vl53l0x_api.c **** 	Status = VL53L0X_set_offset_calibration_data_micro_meter(Dev,
 782              		.loc 1 257 11
 783 000e 3968     		ldr	r1, [r7]
 784 0010 7868     		ldr	r0, [r7, #4]
 785 0012 FFF7FEFF 		bl	VL53L0X_set_offset_calibration_data_micro_meter
 786 0016 0346     		mov	r3, r0
 787 0018 FB73     		strb	r3, [r7, #15]
 258:Drivers/VL53L0X/core/src/vl53l0x_api.c **** 		OffsetCalibrationDataMicroMeter);
 259:Drivers/VL53L0X/core/src/vl53l0x_api.c **** 
 260:Drivers/VL53L0X/core/src/vl53l0x_api.c **** 	LOG_FUNCTION_END(Status);
 261:Drivers/VL53L0X/core/src/vl53l0x_api.c **** 	return Status;
 788              		.loc 1 261 9
 789 001a 97F90F30 		ldrsb	r3, [r7, #15]
 262:Drivers/VL53L0X/core/src/vl53l0x_api.c **** }
 790              		.loc 1 262 1
 791 001e 1846     		mov	r0, r3
 792 0020 1037     		adds	r7, r7, #16
 793              		.cfi_def_cfa_offset 8
 794 0022 BD46     		mov	sp, r7
 795              		.cfi_def_cfa_register 13
 796              		@ sp needed
 797 0024 80BD     		pop	{r7, pc}
 798              		.cfi_endproc
 799              	.LFE336:
 801              		.section	.text.VL53L0X_GetOffsetCalibrationDataMicroMeter,"ax",%progbits
 802              		.align	1
 803              		.global	VL53L0X_GetOffsetCalibrationDataMicroMeter
 804              		.syntax unified
 805              		.thumb
 806              		.thumb_func
 808              	VL53L0X_GetOffsetCalibrationDataMicroMeter:
 809              	.LFB337:
 263:Drivers/VL53L0X/core/src/vl53l0x_api.c **** 
 264:Drivers/VL53L0X/core/src/vl53l0x_api.c **** VL53L0X_Error VL53L0X_GetOffsetCalibrationDataMicroMeter(VL53L0X_DEV Dev,
 265:Drivers/VL53L0X/core/src/vl53l0x_api.c **** 	int32_t *pOffsetCalibrationDataMicroMeter)
 266:Drivers/VL53L0X/core/src/vl53l0x_api.c **** {
 810              		.loc 1 266 1
 811              		.cfi_startproc
 812              		@ args = 0, pretend = 0, frame = 16
 813              		@ frame_needed = 1, uses_anonymous_args = 0
 814 0000 80B5     		push	{r7, lr}
ARM GAS  C:\Users\Morroway\AppData\Local\Temp\ccih4NWY.s 			page 22


 815              		.cfi_def_cfa_offset 8
 816              		.cfi_offset 7, -8
 817              		.cfi_offset 14, -4
 818 0002 84B0     		sub	sp, sp, #16
 819              		.cfi_def_cfa_offset 24
 820 0004 00AF     		add	r7, sp, #0
 821              		.cfi_def_cfa_register 7
 822 0006 7860     		str	r0, [r7, #4]
 823 0008 3960     		str	r1, [r7]
 267:Drivers/VL53L0X/core/src/vl53l0x_api.c **** 	VL53L0X_Error Status = VL53L0X_ERROR_NONE;
 824              		.loc 1 267 16
 825 000a 0023     		movs	r3, #0
 826 000c FB73     		strb	r3, [r7, #15]
 268:Drivers/VL53L0X/core/src/vl53l0x_api.c **** 	LOG_FUNCTION_START("");
 269:Drivers/VL53L0X/core/src/vl53l0x_api.c **** 
 270:Drivers/VL53L0X/core/src/vl53l0x_api.c **** 	Status = VL53L0X_get_offset_calibration_data_micro_meter(Dev,
 827              		.loc 1 270 11
 828 000e 3968     		ldr	r1, [r7]
 829 0010 7868     		ldr	r0, [r7, #4]
 830 0012 FFF7FEFF 		bl	VL53L0X_get_offset_calibration_data_micro_meter
 831 0016 0346     		mov	r3, r0
 832 0018 FB73     		strb	r3, [r7, #15]
 271:Drivers/VL53L0X/core/src/vl53l0x_api.c **** 		pOffsetCalibrationDataMicroMeter);
 272:Drivers/VL53L0X/core/src/vl53l0x_api.c **** 
 273:Drivers/VL53L0X/core/src/vl53l0x_api.c **** 	LOG_FUNCTION_END(Status);
 274:Drivers/VL53L0X/core/src/vl53l0x_api.c **** 	return Status;
 833              		.loc 1 274 9
 834 001a 97F90F30 		ldrsb	r3, [r7, #15]
 275:Drivers/VL53L0X/core/src/vl53l0x_api.c **** }
 835              		.loc 1 275 1
 836 001e 1846     		mov	r0, r3
 837 0020 1037     		adds	r7, r7, #16
 838              		.cfi_def_cfa_offset 8
 839 0022 BD46     		mov	sp, r7
 840              		.cfi_def_cfa_register 13
 841              		@ sp needed
 842 0024 80BD     		pop	{r7, pc}
 843              		.cfi_endproc
 844              	.LFE337:
 846              		.section	.text.VL53L0X_SetLinearityCorrectiveGain,"ax",%progbits
 847              		.align	1
 848              		.global	VL53L0X_SetLinearityCorrectiveGain
 849              		.syntax unified
 850              		.thumb
 851              		.thumb_func
 853              	VL53L0X_SetLinearityCorrectiveGain:
 854              	.LFB338:
 276:Drivers/VL53L0X/core/src/vl53l0x_api.c **** 
 277:Drivers/VL53L0X/core/src/vl53l0x_api.c **** VL53L0X_Error VL53L0X_SetLinearityCorrectiveGain(VL53L0X_DEV Dev,
 278:Drivers/VL53L0X/core/src/vl53l0x_api.c **** 	int16_t LinearityCorrectiveGain)
 279:Drivers/VL53L0X/core/src/vl53l0x_api.c **** {
 855              		.loc 1 279 1
 856              		.cfi_startproc
 857              		@ args = 0, pretend = 0, frame = 16
 858              		@ frame_needed = 1, uses_anonymous_args = 0
 859 0000 80B5     		push	{r7, lr}
 860              		.cfi_def_cfa_offset 8
ARM GAS  C:\Users\Morroway\AppData\Local\Temp\ccih4NWY.s 			page 23


 861              		.cfi_offset 7, -8
 862              		.cfi_offset 14, -4
 863 0002 84B0     		sub	sp, sp, #16
 864              		.cfi_def_cfa_offset 24
 865 0004 00AF     		add	r7, sp, #0
 866              		.cfi_def_cfa_register 7
 867 0006 7860     		str	r0, [r7, #4]
 868 0008 0B46     		mov	r3, r1
 869 000a 7B80     		strh	r3, [r7, #2]	@ movhi
 280:Drivers/VL53L0X/core/src/vl53l0x_api.c **** 	VL53L0X_Error Status = VL53L0X_ERROR_NONE;
 870              		.loc 1 280 16
 871 000c 0023     		movs	r3, #0
 872 000e FB73     		strb	r3, [r7, #15]
 281:Drivers/VL53L0X/core/src/vl53l0x_api.c **** 	LOG_FUNCTION_START("");
 282:Drivers/VL53L0X/core/src/vl53l0x_api.c **** 
 283:Drivers/VL53L0X/core/src/vl53l0x_api.c **** 	if ((LinearityCorrectiveGain < 0) || (LinearityCorrectiveGain > 1000))
 873              		.loc 1 283 5
 874 0010 B7F90230 		ldrsh	r3, [r7, #2]
 875 0014 002B     		cmp	r3, #0
 876 0016 04DB     		blt	.L36
 877              		.loc 1 283 36 discriminator 1
 878 0018 B7F90230 		ldrsh	r3, [r7, #2]
 879 001c B3F57A7F 		cmp	r3, #1000
 880 0020 02DD     		ble	.L37
 881              	.L36:
 284:Drivers/VL53L0X/core/src/vl53l0x_api.c **** 		Status = VL53L0X_ERROR_INVALID_PARAMS;
 882              		.loc 1 284 10
 883 0022 FC23     		movs	r3, #252
 884 0024 FB73     		strb	r3, [r7, #15]
 885 0026 0FE0     		b	.L38
 886              	.L37:
 285:Drivers/VL53L0X/core/src/vl53l0x_api.c **** 	else {
 286:Drivers/VL53L0X/core/src/vl53l0x_api.c **** 		PALDevDataSet(Dev, LinearityCorrectiveGain,
 887              		.loc 1 286 3
 888 0028 7A88     		ldrh	r2, [r7, #2]
 889 002a 7B68     		ldr	r3, [r7, #4]
 890 002c A3F85221 		strh	r2, [r3, #338]	@ movhi
 287:Drivers/VL53L0X/core/src/vl53l0x_api.c **** 			LinearityCorrectiveGain);
 288:Drivers/VL53L0X/core/src/vl53l0x_api.c **** 
 289:Drivers/VL53L0X/core/src/vl53l0x_api.c **** 		if (LinearityCorrectiveGain != 1000) {
 891              		.loc 1 289 6
 892 0030 B7F90230 		ldrsh	r3, [r7, #2]
 893 0034 B3F57A7F 		cmp	r3, #1000
 894 0038 06D0     		beq	.L38
 290:Drivers/VL53L0X/core/src/vl53l0x_api.c **** 			/* Disable FW Xtalk */
 291:Drivers/VL53L0X/core/src/vl53l0x_api.c **** 			Status = VL53L0X_WrWord(Dev,
 895              		.loc 1 291 13
 896 003a 0022     		movs	r2, #0
 897 003c 2021     		movs	r1, #32
 898 003e 7868     		ldr	r0, [r7, #4]
 899 0040 FFF7FEFF 		bl	VL53L0X_WrWord
 900 0044 0346     		mov	r3, r0
 901 0046 FB73     		strb	r3, [r7, #15]
 902              	.L38:
 292:Drivers/VL53L0X/core/src/vl53l0x_api.c **** 			VL53L0X_REG_CROSSTALK_COMPENSATION_PEAK_RATE_MCPS, 0);
 293:Drivers/VL53L0X/core/src/vl53l0x_api.c **** 		}
 294:Drivers/VL53L0X/core/src/vl53l0x_api.c **** 	}
ARM GAS  C:\Users\Morroway\AppData\Local\Temp\ccih4NWY.s 			page 24


 295:Drivers/VL53L0X/core/src/vl53l0x_api.c **** 
 296:Drivers/VL53L0X/core/src/vl53l0x_api.c **** 	LOG_FUNCTION_END(Status);
 297:Drivers/VL53L0X/core/src/vl53l0x_api.c **** 	return Status;
 903              		.loc 1 297 9
 904 0048 97F90F30 		ldrsb	r3, [r7, #15]
 298:Drivers/VL53L0X/core/src/vl53l0x_api.c **** }
 905              		.loc 1 298 1
 906 004c 1846     		mov	r0, r3
 907 004e 1037     		adds	r7, r7, #16
 908              		.cfi_def_cfa_offset 8
 909 0050 BD46     		mov	sp, r7
 910              		.cfi_def_cfa_register 13
 911              		@ sp needed
 912 0052 80BD     		pop	{r7, pc}
 913              		.cfi_endproc
 914              	.LFE338:
 916              		.section	.text.VL53L0X_GetLinearityCorrectiveGain,"ax",%progbits
 917              		.align	1
 918              		.global	VL53L0X_GetLinearityCorrectiveGain
 919              		.syntax unified
 920              		.thumb
 921              		.thumb_func
 923              	VL53L0X_GetLinearityCorrectiveGain:
 924              	.LFB339:
 299:Drivers/VL53L0X/core/src/vl53l0x_api.c **** 
 300:Drivers/VL53L0X/core/src/vl53l0x_api.c **** VL53L0X_Error VL53L0X_GetLinearityCorrectiveGain(VL53L0X_DEV Dev,
 301:Drivers/VL53L0X/core/src/vl53l0x_api.c **** 	uint16_t *pLinearityCorrectiveGain)
 302:Drivers/VL53L0X/core/src/vl53l0x_api.c **** {
 925              		.loc 1 302 1
 926              		.cfi_startproc
 927              		@ args = 0, pretend = 0, frame = 16
 928              		@ frame_needed = 1, uses_anonymous_args = 0
 929              		@ link register save eliminated.
 930 0000 80B4     		push	{r7}
 931              		.cfi_def_cfa_offset 4
 932              		.cfi_offset 7, -4
 933 0002 85B0     		sub	sp, sp, #20
 934              		.cfi_def_cfa_offset 24
 935 0004 00AF     		add	r7, sp, #0
 936              		.cfi_def_cfa_register 7
 937 0006 7860     		str	r0, [r7, #4]
 938 0008 3960     		str	r1, [r7]
 303:Drivers/VL53L0X/core/src/vl53l0x_api.c **** 	VL53L0X_Error Status = VL53L0X_ERROR_NONE;
 939              		.loc 1 303 16
 940 000a 0023     		movs	r3, #0
 941 000c FB73     		strb	r3, [r7, #15]
 304:Drivers/VL53L0X/core/src/vl53l0x_api.c **** 	LOG_FUNCTION_START("");
 305:Drivers/VL53L0X/core/src/vl53l0x_api.c **** 
 306:Drivers/VL53L0X/core/src/vl53l0x_api.c **** 	*pLinearityCorrectiveGain = PALDevDataGet(Dev, LinearityCorrectiveGain);
 942              		.loc 1 306 30
 943 000e 7B68     		ldr	r3, [r7, #4]
 944 0010 B3F85221 		ldrh	r2, [r3, #338]
 945              		.loc 1 306 28
 946 0014 3B68     		ldr	r3, [r7]
 947 0016 1A80     		strh	r2, [r3]	@ movhi
 307:Drivers/VL53L0X/core/src/vl53l0x_api.c **** 
 308:Drivers/VL53L0X/core/src/vl53l0x_api.c **** 	LOG_FUNCTION_END(Status);
ARM GAS  C:\Users\Morroway\AppData\Local\Temp\ccih4NWY.s 			page 25


 309:Drivers/VL53L0X/core/src/vl53l0x_api.c **** 	return Status;
 948              		.loc 1 309 9
 949 0018 97F90F30 		ldrsb	r3, [r7, #15]
 310:Drivers/VL53L0X/core/src/vl53l0x_api.c **** }
 950              		.loc 1 310 1
 951 001c 1846     		mov	r0, r3
 952 001e 1437     		adds	r7, r7, #20
 953              		.cfi_def_cfa_offset 4
 954 0020 BD46     		mov	sp, r7
 955              		.cfi_def_cfa_register 13
 956              		@ sp needed
 957 0022 5DF8047B 		ldr	r7, [sp], #4
 958              		.cfi_restore 7
 959              		.cfi_def_cfa_offset 0
 960 0026 7047     		bx	lr
 961              		.cfi_endproc
 962              	.LFE339:
 964              		.section	.text.VL53L0X_SetGroupParamHold,"ax",%progbits
 965              		.align	1
 966              		.global	VL53L0X_SetGroupParamHold
 967              		.syntax unified
 968              		.thumb
 969              		.thumb_func
 971              	VL53L0X_SetGroupParamHold:
 972              	.LFB340:
 311:Drivers/VL53L0X/core/src/vl53l0x_api.c **** 
 312:Drivers/VL53L0X/core/src/vl53l0x_api.c **** VL53L0X_Error VL53L0X_SetGroupParamHold(VL53L0X_DEV Dev, uint8_t GroupParamHold)
 313:Drivers/VL53L0X/core/src/vl53l0x_api.c **** {
 973              		.loc 1 313 1
 974              		.cfi_startproc
 975              		@ args = 0, pretend = 0, frame = 16
 976              		@ frame_needed = 1, uses_anonymous_args = 0
 977              		@ link register save eliminated.
 978 0000 80B4     		push	{r7}
 979              		.cfi_def_cfa_offset 4
 980              		.cfi_offset 7, -4
 981 0002 85B0     		sub	sp, sp, #20
 982              		.cfi_def_cfa_offset 24
 983 0004 00AF     		add	r7, sp, #0
 984              		.cfi_def_cfa_register 7
 985 0006 7860     		str	r0, [r7, #4]
 986 0008 0B46     		mov	r3, r1
 987 000a FB70     		strb	r3, [r7, #3]
 314:Drivers/VL53L0X/core/src/vl53l0x_api.c **** 	VL53L0X_Error Status = VL53L0X_ERROR_NOT_IMPLEMENTED;
 988              		.loc 1 314 16
 989 000c 9D23     		movs	r3, #157
 990 000e FB73     		strb	r3, [r7, #15]
 315:Drivers/VL53L0X/core/src/vl53l0x_api.c **** 	LOG_FUNCTION_START("");
 316:Drivers/VL53L0X/core/src/vl53l0x_api.c **** 
 317:Drivers/VL53L0X/core/src/vl53l0x_api.c **** 	/* not implemented on VL53L0X */
 318:Drivers/VL53L0X/core/src/vl53l0x_api.c **** 
 319:Drivers/VL53L0X/core/src/vl53l0x_api.c **** 	LOG_FUNCTION_END(Status);
 320:Drivers/VL53L0X/core/src/vl53l0x_api.c **** 	return Status;
 991              		.loc 1 320 9
 992 0010 97F90F30 		ldrsb	r3, [r7, #15]
 321:Drivers/VL53L0X/core/src/vl53l0x_api.c **** }
 993              		.loc 1 321 1
ARM GAS  C:\Users\Morroway\AppData\Local\Temp\ccih4NWY.s 			page 26


 994 0014 1846     		mov	r0, r3
 995 0016 1437     		adds	r7, r7, #20
 996              		.cfi_def_cfa_offset 4
 997 0018 BD46     		mov	sp, r7
 998              		.cfi_def_cfa_register 13
 999              		@ sp needed
 1000 001a 5DF8047B 		ldr	r7, [sp], #4
 1001              		.cfi_restore 7
 1002              		.cfi_def_cfa_offset 0
 1003 001e 7047     		bx	lr
 1004              		.cfi_endproc
 1005              	.LFE340:
 1007              		.section	.text.VL53L0X_GetUpperLimitMilliMeter,"ax",%progbits
 1008              		.align	1
 1009              		.global	VL53L0X_GetUpperLimitMilliMeter
 1010              		.syntax unified
 1011              		.thumb
 1012              		.thumb_func
 1014              	VL53L0X_GetUpperLimitMilliMeter:
 1015              	.LFB341:
 322:Drivers/VL53L0X/core/src/vl53l0x_api.c **** 
 323:Drivers/VL53L0X/core/src/vl53l0x_api.c **** VL53L0X_Error VL53L0X_GetUpperLimitMilliMeter(VL53L0X_DEV Dev,
 324:Drivers/VL53L0X/core/src/vl53l0x_api.c **** 	uint16_t *pUpperLimitMilliMeter)
 325:Drivers/VL53L0X/core/src/vl53l0x_api.c **** {
 1016              		.loc 1 325 1
 1017              		.cfi_startproc
 1018              		@ args = 0, pretend = 0, frame = 16
 1019              		@ frame_needed = 1, uses_anonymous_args = 0
 1020              		@ link register save eliminated.
 1021 0000 80B4     		push	{r7}
 1022              		.cfi_def_cfa_offset 4
 1023              		.cfi_offset 7, -4
 1024 0002 85B0     		sub	sp, sp, #20
 1025              		.cfi_def_cfa_offset 24
 1026 0004 00AF     		add	r7, sp, #0
 1027              		.cfi_def_cfa_register 7
 1028 0006 7860     		str	r0, [r7, #4]
 1029 0008 3960     		str	r1, [r7]
 326:Drivers/VL53L0X/core/src/vl53l0x_api.c **** 	VL53L0X_Error Status = VL53L0X_ERROR_NOT_IMPLEMENTED;
 1030              		.loc 1 326 16
 1031 000a 9D23     		movs	r3, #157
 1032 000c FB73     		strb	r3, [r7, #15]
 327:Drivers/VL53L0X/core/src/vl53l0x_api.c **** 	LOG_FUNCTION_START("");
 328:Drivers/VL53L0X/core/src/vl53l0x_api.c **** 
 329:Drivers/VL53L0X/core/src/vl53l0x_api.c **** 	/* not implemented on VL53L0X */
 330:Drivers/VL53L0X/core/src/vl53l0x_api.c **** 
 331:Drivers/VL53L0X/core/src/vl53l0x_api.c **** 	LOG_FUNCTION_END(Status);
 332:Drivers/VL53L0X/core/src/vl53l0x_api.c **** 	return Status;
 1033              		.loc 1 332 9
 1034 000e 97F90F30 		ldrsb	r3, [r7, #15]
 333:Drivers/VL53L0X/core/src/vl53l0x_api.c **** }
 1035              		.loc 1 333 1
 1036 0012 1846     		mov	r0, r3
 1037 0014 1437     		adds	r7, r7, #20
 1038              		.cfi_def_cfa_offset 4
 1039 0016 BD46     		mov	sp, r7
 1040              		.cfi_def_cfa_register 13
ARM GAS  C:\Users\Morroway\AppData\Local\Temp\ccih4NWY.s 			page 27


 1041              		@ sp needed
 1042 0018 5DF8047B 		ldr	r7, [sp], #4
 1043              		.cfi_restore 7
 1044              		.cfi_def_cfa_offset 0
 1045 001c 7047     		bx	lr
 1046              		.cfi_endproc
 1047              	.LFE341:
 1049              		.section	.text.VL53L0X_GetTotalSignalRate,"ax",%progbits
 1050              		.align	1
 1051              		.global	VL53L0X_GetTotalSignalRate
 1052              		.syntax unified
 1053              		.thumb
 1054              		.thumb_func
 1056              	VL53L0X_GetTotalSignalRate:
 1057              	.LFB342:
 334:Drivers/VL53L0X/core/src/vl53l0x_api.c **** 
 335:Drivers/VL53L0X/core/src/vl53l0x_api.c **** VL53L0X_Error VL53L0X_GetTotalSignalRate(VL53L0X_DEV Dev,
 336:Drivers/VL53L0X/core/src/vl53l0x_api.c **** 	FixPoint1616_t *pTotalSignalRate)
 337:Drivers/VL53L0X/core/src/vl53l0x_api.c **** {
 1058              		.loc 1 337 1
 1059              		.cfi_startproc
 1060              		@ args = 0, pretend = 0, frame = 40
 1061              		@ frame_needed = 1, uses_anonymous_args = 0
 1062 0000 B0B5     		push	{r4, r5, r7, lr}
 1063              		.cfi_def_cfa_offset 16
 1064              		.cfi_offset 4, -16
 1065              		.cfi_offset 5, -12
 1066              		.cfi_offset 7, -8
 1067              		.cfi_offset 14, -4
 1068 0002 8AB0     		sub	sp, sp, #40
 1069              		.cfi_def_cfa_offset 56
 1070 0004 00AF     		add	r7, sp, #0
 1071              		.cfi_def_cfa_register 7
 1072 0006 7860     		str	r0, [r7, #4]
 1073 0008 3960     		str	r1, [r7]
 338:Drivers/VL53L0X/core/src/vl53l0x_api.c **** 	VL53L0X_Error Status = VL53L0X_ERROR_NONE;
 1074              		.loc 1 338 16
 1075 000a 0023     		movs	r3, #0
 1076 000c 87F82730 		strb	r3, [r7, #39]
 339:Drivers/VL53L0X/core/src/vl53l0x_api.c **** 	VL53L0X_RangingMeasurementData_t LastRangeDataBuffer;
 340:Drivers/VL53L0X/core/src/vl53l0x_api.c **** 
 341:Drivers/VL53L0X/core/src/vl53l0x_api.c **** 	LOG_FUNCTION_START("");
 342:Drivers/VL53L0X/core/src/vl53l0x_api.c **** 
 343:Drivers/VL53L0X/core/src/vl53l0x_api.c **** 	LastRangeDataBuffer = PALDevDataGet(Dev, LastRangeMeasure);
 1077              		.loc 1 343 22
 1078 0010 7B68     		ldr	r3, [r7, #4]
 1079 0012 07F10804 		add	r4, r7, #8
 1080 0016 03F15005 		add	r5, r3, #80
 1081 001a 0FCD     		ldmia	r5!, {r0, r1, r2, r3}
 1082 001c 0FC4     		stmia	r4!, {r0, r1, r2, r3}
 1083 001e 95E80700 		ldm	r5, {r0, r1, r2}
 1084 0022 84E80700 		stm	r4, {r0, r1, r2}
 344:Drivers/VL53L0X/core/src/vl53l0x_api.c **** 
 345:Drivers/VL53L0X/core/src/vl53l0x_api.c **** 	Status = VL53L0X_get_total_signal_rate(
 1085              		.loc 1 345 11
 1086 0026 07F10803 		add	r3, r7, #8
 1087 002a 3A68     		ldr	r2, [r7]
ARM GAS  C:\Users\Morroway\AppData\Local\Temp\ccih4NWY.s 			page 28


 1088 002c 1946     		mov	r1, r3
 1089 002e 7868     		ldr	r0, [r7, #4]
 1090 0030 FFF7FEFF 		bl	VL53L0X_get_total_signal_rate
 1091 0034 0346     		mov	r3, r0
 1092 0036 87F82730 		strb	r3, [r7, #39]
 346:Drivers/VL53L0X/core/src/vl53l0x_api.c **** 		Dev, &LastRangeDataBuffer, pTotalSignalRate);
 347:Drivers/VL53L0X/core/src/vl53l0x_api.c **** 
 348:Drivers/VL53L0X/core/src/vl53l0x_api.c **** 	LOG_FUNCTION_END(Status);
 349:Drivers/VL53L0X/core/src/vl53l0x_api.c **** 	return Status;
 1093              		.loc 1 349 9
 1094 003a 97F92730 		ldrsb	r3, [r7, #39]
 350:Drivers/VL53L0X/core/src/vl53l0x_api.c **** }
 1095              		.loc 1 350 1
 1096 003e 1846     		mov	r0, r3
 1097 0040 2837     		adds	r7, r7, #40
 1098              		.cfi_def_cfa_offset 16
 1099 0042 BD46     		mov	sp, r7
 1100              		.cfi_def_cfa_register 13
 1101              		@ sp needed
 1102 0044 B0BD     		pop	{r4, r5, r7, pc}
 1103              		.cfi_endproc
 1104              	.LFE342:
 1106              		.section	.text.VL53L0X_SetDeviceAddress,"ax",%progbits
 1107              		.align	1
 1108              		.global	VL53L0X_SetDeviceAddress
 1109              		.syntax unified
 1110              		.thumb
 1111              		.thumb_func
 1113              	VL53L0X_SetDeviceAddress:
 1114              	.LFB343:
 351:Drivers/VL53L0X/core/src/vl53l0x_api.c **** 
 352:Drivers/VL53L0X/core/src/vl53l0x_api.c **** /* End Group PAL General Functions */
 353:Drivers/VL53L0X/core/src/vl53l0x_api.c **** 
 354:Drivers/VL53L0X/core/src/vl53l0x_api.c **** /* Group PAL Init Functions */
 355:Drivers/VL53L0X/core/src/vl53l0x_api.c **** VL53L0X_Error VL53L0X_SetDeviceAddress(VL53L0X_DEV Dev, uint8_t DeviceAddress)
 356:Drivers/VL53L0X/core/src/vl53l0x_api.c **** {
 1115              		.loc 1 356 1
 1116              		.cfi_startproc
 1117              		@ args = 0, pretend = 0, frame = 16
 1118              		@ frame_needed = 1, uses_anonymous_args = 0
 1119 0000 80B5     		push	{r7, lr}
 1120              		.cfi_def_cfa_offset 8
 1121              		.cfi_offset 7, -8
 1122              		.cfi_offset 14, -4
 1123 0002 84B0     		sub	sp, sp, #16
 1124              		.cfi_def_cfa_offset 24
 1125 0004 00AF     		add	r7, sp, #0
 1126              		.cfi_def_cfa_register 7
 1127 0006 7860     		str	r0, [r7, #4]
 1128 0008 0B46     		mov	r3, r1
 1129 000a FB70     		strb	r3, [r7, #3]
 357:Drivers/VL53L0X/core/src/vl53l0x_api.c **** 	VL53L0X_Error Status = VL53L0X_ERROR_NONE;
 1130              		.loc 1 357 16
 1131 000c 0023     		movs	r3, #0
 1132 000e FB73     		strb	r3, [r7, #15]
 358:Drivers/VL53L0X/core/src/vl53l0x_api.c **** 	LOG_FUNCTION_START("");
 359:Drivers/VL53L0X/core/src/vl53l0x_api.c **** 
ARM GAS  C:\Users\Morroway\AppData\Local\Temp\ccih4NWY.s 			page 29


 360:Drivers/VL53L0X/core/src/vl53l0x_api.c **** 	Status = VL53L0X_WrByte(Dev, VL53L0X_REG_I2C_SLAVE_DEVICE_ADDRESS,
 1133              		.loc 1 360 11
 1134 0010 FB78     		ldrb	r3, [r7, #3]	@ zero_extendqisi2
 1135 0012 5B08     		lsrs	r3, r3, #1
 1136 0014 DBB2     		uxtb	r3, r3
 1137 0016 1A46     		mov	r2, r3
 1138 0018 8A21     		movs	r1, #138
 1139 001a 7868     		ldr	r0, [r7, #4]
 1140 001c FFF7FEFF 		bl	VL53L0X_WrByte
 1141 0020 0346     		mov	r3, r0
 1142 0022 FB73     		strb	r3, [r7, #15]
 361:Drivers/VL53L0X/core/src/vl53l0x_api.c **** 		DeviceAddress / 2);
 362:Drivers/VL53L0X/core/src/vl53l0x_api.c **** 
 363:Drivers/VL53L0X/core/src/vl53l0x_api.c **** 	LOG_FUNCTION_END(Status);
 364:Drivers/VL53L0X/core/src/vl53l0x_api.c **** 	return Status;
 1143              		.loc 1 364 9
 1144 0024 97F90F30 		ldrsb	r3, [r7, #15]
 365:Drivers/VL53L0X/core/src/vl53l0x_api.c **** }
 1145              		.loc 1 365 1
 1146 0028 1846     		mov	r0, r3
 1147 002a 1037     		adds	r7, r7, #16
 1148              		.cfi_def_cfa_offset 8
 1149 002c BD46     		mov	sp, r7
 1150              		.cfi_def_cfa_register 13
 1151              		@ sp needed
 1152 002e 80BD     		pop	{r7, pc}
 1153              		.cfi_endproc
 1154              	.LFE343:
 1156              		.section	.text.VL53L0X_DataInit,"ax",%progbits
 1157              		.align	1
 1158              		.global	VL53L0X_DataInit
 1159              		.syntax unified
 1160              		.thumb
 1161              		.thumb_func
 1163              	VL53L0X_DataInit:
 1164              	.LFB344:
 366:Drivers/VL53L0X/core/src/vl53l0x_api.c **** 
 367:Drivers/VL53L0X/core/src/vl53l0x_api.c **** VL53L0X_Error VL53L0X_DataInit(VL53L0X_DEV Dev)
 368:Drivers/VL53L0X/core/src/vl53l0x_api.c **** {
 1165              		.loc 1 368 1
 1166              		.cfi_startproc
 1167              		@ args = 0, pretend = 0, frame = 88
 1168              		@ frame_needed = 1, uses_anonymous_args = 0
 1169 0000 B0B5     		push	{r4, r5, r7, lr}
 1170              		.cfi_def_cfa_offset 16
 1171              		.cfi_offset 4, -16
 1172              		.cfi_offset 5, -12
 1173              		.cfi_offset 7, -8
 1174              		.cfi_offset 14, -4
 1175 0002 96B0     		sub	sp, sp, #88
 1176              		.cfi_def_cfa_offset 104
 1177 0004 00AF     		add	r7, sp, #0
 1178              		.cfi_def_cfa_register 7
 1179 0006 7860     		str	r0, [r7, #4]
 369:Drivers/VL53L0X/core/src/vl53l0x_api.c **** 	VL53L0X_Error Status = VL53L0X_ERROR_NONE;
 1180              		.loc 1 369 16
 1181 0008 0023     		movs	r3, #0
ARM GAS  C:\Users\Morroway\AppData\Local\Temp\ccih4NWY.s 			page 30


 1182 000a 87F85730 		strb	r3, [r7, #87]
 370:Drivers/VL53L0X/core/src/vl53l0x_api.c **** 	VL53L0X_DeviceParameters_t CurrentParameters;
 371:Drivers/VL53L0X/core/src/vl53l0x_api.c **** 	int i;
 372:Drivers/VL53L0X/core/src/vl53l0x_api.c **** 	uint8_t StopVariable;
 373:Drivers/VL53L0X/core/src/vl53l0x_api.c **** 
 374:Drivers/VL53L0X/core/src/vl53l0x_api.c **** 	LOG_FUNCTION_START("");
 375:Drivers/VL53L0X/core/src/vl53l0x_api.c **** 
 376:Drivers/VL53L0X/core/src/vl53l0x_api.c **** 	/* by default the I2C is running at 1V8 if you want to change it you
 377:Drivers/VL53L0X/core/src/vl53l0x_api.c **** 	 * need to include this define at compilation level. */
 378:Drivers/VL53L0X/core/src/vl53l0x_api.c **** #ifdef USE_I2C_2V8
 379:Drivers/VL53L0X/core/src/vl53l0x_api.c **** 	Status = VL53L0X_UpdateByte(Dev,
 380:Drivers/VL53L0X/core/src/vl53l0x_api.c **** 		VL53L0X_REG_VHV_CONFIG_PAD_SCL_SDA__EXTSUP_HV,
 381:Drivers/VL53L0X/core/src/vl53l0x_api.c **** 		0xFE,
 382:Drivers/VL53L0X/core/src/vl53l0x_api.c **** 		0x01);
 383:Drivers/VL53L0X/core/src/vl53l0x_api.c **** #endif
 384:Drivers/VL53L0X/core/src/vl53l0x_api.c **** 
 385:Drivers/VL53L0X/core/src/vl53l0x_api.c **** 	/* Set I2C standard mode */
 386:Drivers/VL53L0X/core/src/vl53l0x_api.c **** 	if (Status == VL53L0X_ERROR_NONE)
 1183              		.loc 1 386 5
 1184 000e 97F95730 		ldrsb	r3, [r7, #87]
 1185 0012 002B     		cmp	r3, #0
 1186 0014 07D1     		bne	.L51
 387:Drivers/VL53L0X/core/src/vl53l0x_api.c **** 		Status = VL53L0X_WrByte(Dev, 0x88, 0x00);
 1187              		.loc 1 387 12
 1188 0016 0022     		movs	r2, #0
 1189 0018 8821     		movs	r1, #136
 1190 001a 7868     		ldr	r0, [r7, #4]
 1191 001c FFF7FEFF 		bl	VL53L0X_WrByte
 1192 0020 0346     		mov	r3, r0
 1193 0022 87F85730 		strb	r3, [r7, #87]
 1194              	.L51:
 388:Drivers/VL53L0X/core/src/vl53l0x_api.c **** 
 389:Drivers/VL53L0X/core/src/vl53l0x_api.c **** 	VL53L0X_SETDEVICESPECIFICPARAMETER(Dev, ReadDataFromDeviceDone, 0);
 1195              		.loc 1 389 2
 1196 0026 7B68     		ldr	r3, [r7, #4]
 1197 0028 0022     		movs	r2, #0
 1198 002a 83F8F020 		strb	r2, [r3, #240]
 390:Drivers/VL53L0X/core/src/vl53l0x_api.c **** 
 391:Drivers/VL53L0X/core/src/vl53l0x_api.c **** #ifdef USE_IQC_STATION
 392:Drivers/VL53L0X/core/src/vl53l0x_api.c **** 	if (Status == VL53L0X_ERROR_NONE)
 393:Drivers/VL53L0X/core/src/vl53l0x_api.c **** 		Status = VL53L0X_apply_offset_adjustment(Dev);
 394:Drivers/VL53L0X/core/src/vl53l0x_api.c **** #endif
 395:Drivers/VL53L0X/core/src/vl53l0x_api.c **** 
 396:Drivers/VL53L0X/core/src/vl53l0x_api.c **** 	/* Default value is 1000 for Linearity Corrective Gain */
 397:Drivers/VL53L0X/core/src/vl53l0x_api.c **** 	PALDevDataSet(Dev, LinearityCorrectiveGain, 1000);
 1199              		.loc 1 397 2
 1200 002e 7B68     		ldr	r3, [r7, #4]
 1201 0030 4FF47A72 		mov	r2, #1000
 1202 0034 A3F85221 		strh	r2, [r3, #338]	@ movhi
 398:Drivers/VL53L0X/core/src/vl53l0x_api.c **** 
 399:Drivers/VL53L0X/core/src/vl53l0x_api.c **** 	/* Dmax default Parameter */
 400:Drivers/VL53L0X/core/src/vl53l0x_api.c **** 	PALDevDataSet(Dev, DmaxCalRangeMilliMeter, 400);
 1203              		.loc 1 400 2
 1204 0038 7B68     		ldr	r3, [r7, #4]
 1205 003a 4FF4C872 		mov	r2, #400
 1206 003e A3F85421 		strh	r2, [r3, #340]	@ movhi
 401:Drivers/VL53L0X/core/src/vl53l0x_api.c **** 	PALDevDataSet(Dev, DmaxCalSignalRateRtnMegaCps,
ARM GAS  C:\Users\Morroway\AppData\Local\Temp\ccih4NWY.s 			page 31


 1207              		.loc 1 401 2
 1208 0042 7B68     		ldr	r3, [r7, #4]
 1209 0044 9E4A     		ldr	r2, .L70
 1210 0046 C3F85821 		str	r2, [r3, #344]
 402:Drivers/VL53L0X/core/src/vl53l0x_api.c **** 		(FixPoint1616_t)((0x00016B85))); /* 1.42 No Cover Glass*/
 403:Drivers/VL53L0X/core/src/vl53l0x_api.c **** 
 404:Drivers/VL53L0X/core/src/vl53l0x_api.c **** 	/* Set Default static parameters
 405:Drivers/VL53L0X/core/src/vl53l0x_api.c **** 	 *set first temporary values 9.44MHz * 65536 = 618660 */
 406:Drivers/VL53L0X/core/src/vl53l0x_api.c **** 	VL53L0X_SETDEVICESPECIFICPARAMETER(Dev, OscFrequencyMHz, 618660);
 1211              		.loc 1 406 2
 1212 004a 7B68     		ldr	r3, [r7, #4]
 1213 004c 9D4A     		ldr	r2, .L70+4
 1214 004e C3F8D420 		str	r2, [r3, #212]
 407:Drivers/VL53L0X/core/src/vl53l0x_api.c **** 
 408:Drivers/VL53L0X/core/src/vl53l0x_api.c **** 	/* Set Default XTalkCompensationRateMegaCps to 0  */
 409:Drivers/VL53L0X/core/src/vl53l0x_api.c **** 	VL53L0X_SETPARAMETERFIELD(Dev, XTalkCompensationRateMegaCps, 0);
 1215              		.loc 1 409 2
 1216 0052 7B68     		ldr	r3, [r7, #4]
 1217 0054 0022     		movs	r2, #0
 1218 0056 1A62     		str	r2, [r3, #32]
 410:Drivers/VL53L0X/core/src/vl53l0x_api.c **** 
 411:Drivers/VL53L0X/core/src/vl53l0x_api.c **** 	/* Get default parameters */
 412:Drivers/VL53L0X/core/src/vl53l0x_api.c **** 	Status = VL53L0X_GetDeviceParameters(Dev, &CurrentParameters);
 1219              		.loc 1 412 11
 1220 0058 07F11003 		add	r3, r7, #16
 1221 005c 1946     		mov	r1, r3
 1222 005e 7868     		ldr	r0, [r7, #4]
 1223 0060 FFF7FEFF 		bl	VL53L0X_GetDeviceParameters
 1224 0064 0346     		mov	r3, r0
 1225 0066 87F85730 		strb	r3, [r7, #87]
 413:Drivers/VL53L0X/core/src/vl53l0x_api.c **** 	if (Status == VL53L0X_ERROR_NONE) {
 1226              		.loc 1 413 5
 1227 006a 97F95730 		ldrsb	r3, [r7, #87]
 1228 006e 002B     		cmp	r3, #0
 1229 0070 12D1     		bne	.L52
 414:Drivers/VL53L0X/core/src/vl53l0x_api.c **** 		/* initialize PAL values */
 415:Drivers/VL53L0X/core/src/vl53l0x_api.c **** 		CurrentParameters.DeviceMode = VL53L0X_DEVICEMODE_SINGLE_RANGING;
 1230              		.loc 1 415 32
 1231 0072 0023     		movs	r3, #0
 1232 0074 3B74     		strb	r3, [r7, #16]
 416:Drivers/VL53L0X/core/src/vl53l0x_api.c **** 		CurrentParameters.HistogramMode = VL53L0X_HISTOGRAMMODE_DISABLED;
 1233              		.loc 1 416 35
 1234 0076 0023     		movs	r3, #0
 1235 0078 7B74     		strb	r3, [r7, #17]
 417:Drivers/VL53L0X/core/src/vl53l0x_api.c **** 		PALDevDataSet(Dev, CurrentParameters, CurrentParameters);
 1236              		.loc 1 417 3
 1237 007a 7B68     		ldr	r3, [r7, #4]
 1238 007c 03F11004 		add	r4, r3, #16
 1239 0080 07F11005 		add	r5, r7, #16
 1240 0084 0FCD     		ldmia	r5!, {r0, r1, r2, r3}
 1241 0086 0FC4     		stmia	r4!, {r0, r1, r2, r3}
 1242 0088 0FCD     		ldmia	r5!, {r0, r1, r2, r3}
 1243 008a 0FC4     		stmia	r4!, {r0, r1, r2, r3}
 1244 008c 0FCD     		ldmia	r5!, {r0, r1, r2, r3}
 1245 008e 0FC4     		stmia	r4!, {r0, r1, r2, r3}
 1246 0090 95E80F00 		ldm	r5, {r0, r1, r2, r3}
 1247 0094 84E80F00 		stm	r4, {r0, r1, r2, r3}
ARM GAS  C:\Users\Morroway\AppData\Local\Temp\ccih4NWY.s 			page 32


 1248              	.L52:
 418:Drivers/VL53L0X/core/src/vl53l0x_api.c **** 	}
 419:Drivers/VL53L0X/core/src/vl53l0x_api.c **** 
 420:Drivers/VL53L0X/core/src/vl53l0x_api.c **** 	/* Sigma estimator variable */
 421:Drivers/VL53L0X/core/src/vl53l0x_api.c **** 	PALDevDataSet(Dev, SigmaEstRefArray, 100);
 1249              		.loc 1 421 2
 1250 0098 7B68     		ldr	r3, [r7, #4]
 1251 009a 6422     		movs	r2, #100
 1252 009c A3F83421 		strh	r2, [r3, #308]	@ movhi
 422:Drivers/VL53L0X/core/src/vl53l0x_api.c **** 	PALDevDataSet(Dev, SigmaEstEffPulseWidth, 900);
 1253              		.loc 1 422 2
 1254 00a0 7B68     		ldr	r3, [r7, #4]
 1255 00a2 4FF46172 		mov	r2, #900
 1256 00a6 A3F83621 		strh	r2, [r3, #310]	@ movhi
 423:Drivers/VL53L0X/core/src/vl53l0x_api.c **** 	PALDevDataSet(Dev, SigmaEstEffAmbWidth, 500);
 1257              		.loc 1 423 2
 1258 00aa 7B68     		ldr	r3, [r7, #4]
 1259 00ac 4FF4FA72 		mov	r2, #500
 1260 00b0 A3F83821 		strh	r2, [r3, #312]	@ movhi
 424:Drivers/VL53L0X/core/src/vl53l0x_api.c **** 	PALDevDataSet(Dev, targetRefRate, 0x0A00); /* 20 MCPS in 9:7 format */
 1261              		.loc 1 424 2
 1262 00b4 7B68     		ldr	r3, [r7, #4]
 1263 00b6 4FF42062 		mov	r2, #2560
 1264 00ba A3F83C21 		strh	r2, [r3, #316]	@ movhi
 425:Drivers/VL53L0X/core/src/vl53l0x_api.c **** 
 426:Drivers/VL53L0X/core/src/vl53l0x_api.c **** 	/* Use internal default settings */
 427:Drivers/VL53L0X/core/src/vl53l0x_api.c **** 	PALDevDataSet(Dev, UseInternalTuningSettings, 1);
 1265              		.loc 1 427 2
 1266 00be 7B68     		ldr	r3, [r7, #4]
 1267 00c0 0122     		movs	r2, #1
 1268 00c2 83F85021 		strb	r2, [r3, #336]
 428:Drivers/VL53L0X/core/src/vl53l0x_api.c **** 
 429:Drivers/VL53L0X/core/src/vl53l0x_api.c **** 	Status |= VL53L0X_WrByte(Dev, 0x80, 0x01);
 1269              		.loc 1 429 12
 1270 00c6 0122     		movs	r2, #1
 1271 00c8 8021     		movs	r1, #128
 1272 00ca 7868     		ldr	r0, [r7, #4]
 1273 00cc FFF7FEFF 		bl	VL53L0X_WrByte
 1274 00d0 0346     		mov	r3, r0
 1275 00d2 1A46     		mov	r2, r3
 1276              		.loc 1 429 9
 1277 00d4 97F85730 		ldrb	r3, [r7, #87]
 1278 00d8 1343     		orrs	r3, r3, r2
 1279 00da 87F85730 		strb	r3, [r7, #87]
 430:Drivers/VL53L0X/core/src/vl53l0x_api.c **** 	Status |= VL53L0X_WrByte(Dev, 0xFF, 0x01);
 1280              		.loc 1 430 12
 1281 00de 0122     		movs	r2, #1
 1282 00e0 FF21     		movs	r1, #255
 1283 00e2 7868     		ldr	r0, [r7, #4]
 1284 00e4 FFF7FEFF 		bl	VL53L0X_WrByte
 1285 00e8 0346     		mov	r3, r0
 1286 00ea 1A46     		mov	r2, r3
 1287              		.loc 1 430 9
 1288 00ec 97F85730 		ldrb	r3, [r7, #87]
 1289 00f0 1343     		orrs	r3, r3, r2
 1290 00f2 87F85730 		strb	r3, [r7, #87]
 431:Drivers/VL53L0X/core/src/vl53l0x_api.c **** 	Status |= VL53L0X_WrByte(Dev, 0x00, 0x00);
ARM GAS  C:\Users\Morroway\AppData\Local\Temp\ccih4NWY.s 			page 33


 1291              		.loc 1 431 12
 1292 00f6 0022     		movs	r2, #0
 1293 00f8 0021     		movs	r1, #0
 1294 00fa 7868     		ldr	r0, [r7, #4]
 1295 00fc FFF7FEFF 		bl	VL53L0X_WrByte
 1296 0100 0346     		mov	r3, r0
 1297 0102 1A46     		mov	r2, r3
 1298              		.loc 1 431 9
 1299 0104 97F85730 		ldrb	r3, [r7, #87]
 1300 0108 1343     		orrs	r3, r3, r2
 1301 010a 87F85730 		strb	r3, [r7, #87]
 432:Drivers/VL53L0X/core/src/vl53l0x_api.c **** 	Status |= VL53L0X_RdByte(Dev, 0x91, &StopVariable);
 1302              		.loc 1 432 12
 1303 010e 07F10F03 		add	r3, r7, #15
 1304 0112 1A46     		mov	r2, r3
 1305 0114 9121     		movs	r1, #145
 1306 0116 7868     		ldr	r0, [r7, #4]
 1307 0118 FFF7FEFF 		bl	VL53L0X_RdByte
 1308 011c 0346     		mov	r3, r0
 1309 011e 1A46     		mov	r2, r3
 1310              		.loc 1 432 9
 1311 0120 97F85730 		ldrb	r3, [r7, #87]
 1312 0124 1343     		orrs	r3, r3, r2
 1313 0126 87F85730 		strb	r3, [r7, #87]
 433:Drivers/VL53L0X/core/src/vl53l0x_api.c **** 	PALDevDataSet(Dev, StopVariable, StopVariable);
 1314              		.loc 1 433 2
 1315 012a FA7B     		ldrb	r2, [r7, #15]	@ zero_extendqisi2
 1316 012c 7B68     		ldr	r3, [r7, #4]
 1317 012e 83F83A21 		strb	r2, [r3, #314]
 434:Drivers/VL53L0X/core/src/vl53l0x_api.c **** 	Status |= VL53L0X_WrByte(Dev, 0x00, 0x01);
 1318              		.loc 1 434 12
 1319 0132 0122     		movs	r2, #1
 1320 0134 0021     		movs	r1, #0
 1321 0136 7868     		ldr	r0, [r7, #4]
 1322 0138 FFF7FEFF 		bl	VL53L0X_WrByte
 1323 013c 0346     		mov	r3, r0
 1324 013e 1A46     		mov	r2, r3
 1325              		.loc 1 434 9
 1326 0140 97F85730 		ldrb	r3, [r7, #87]
 1327 0144 1343     		orrs	r3, r3, r2
 1328 0146 87F85730 		strb	r3, [r7, #87]
 435:Drivers/VL53L0X/core/src/vl53l0x_api.c **** 	Status |= VL53L0X_WrByte(Dev, 0xFF, 0x00);
 1329              		.loc 1 435 12
 1330 014a 0022     		movs	r2, #0
 1331 014c FF21     		movs	r1, #255
 1332 014e 7868     		ldr	r0, [r7, #4]
 1333 0150 FFF7FEFF 		bl	VL53L0X_WrByte
 1334 0154 0346     		mov	r3, r0
 1335 0156 1A46     		mov	r2, r3
 1336              		.loc 1 435 9
 1337 0158 97F85730 		ldrb	r3, [r7, #87]
 1338 015c 1343     		orrs	r3, r3, r2
 1339 015e 87F85730 		strb	r3, [r7, #87]
 436:Drivers/VL53L0X/core/src/vl53l0x_api.c **** 	Status |= VL53L0X_WrByte(Dev, 0x80, 0x00);
 1340              		.loc 1 436 12
 1341 0162 0022     		movs	r2, #0
 1342 0164 8021     		movs	r1, #128
ARM GAS  C:\Users\Morroway\AppData\Local\Temp\ccih4NWY.s 			page 34


 1343 0166 7868     		ldr	r0, [r7, #4]
 1344 0168 FFF7FEFF 		bl	VL53L0X_WrByte
 1345 016c 0346     		mov	r3, r0
 1346 016e 1A46     		mov	r2, r3
 1347              		.loc 1 436 9
 1348 0170 97F85730 		ldrb	r3, [r7, #87]
 1349 0174 1343     		orrs	r3, r3, r2
 1350 0176 87F85730 		strb	r3, [r7, #87]
 437:Drivers/VL53L0X/core/src/vl53l0x_api.c **** 
 438:Drivers/VL53L0X/core/src/vl53l0x_api.c **** 	/* Enable all check */
 439:Drivers/VL53L0X/core/src/vl53l0x_api.c **** 	for (i = 0; i < VL53L0X_CHECKENABLE_NUMBER_OF_CHECKS; i++) {
 1351              		.loc 1 439 9
 1352 017a 0023     		movs	r3, #0
 1353 017c 3B65     		str	r3, [r7, #80]
 1354              		.loc 1 439 2
 1355 017e 14E0     		b	.L53
 1356              	.L57:
 440:Drivers/VL53L0X/core/src/vl53l0x_api.c **** 		if (Status == VL53L0X_ERROR_NONE)
 1357              		.loc 1 440 6
 1358 0180 97F95730 		ldrsb	r3, [r7, #87]
 1359 0184 002B     		cmp	r3, #0
 1360 0186 14D1     		bne	.L69
 441:Drivers/VL53L0X/core/src/vl53l0x_api.c **** 			Status |= VL53L0X_SetLimitCheckEnable(Dev, i, 1);
 1361              		.loc 1 441 14
 1362 0188 3B6D     		ldr	r3, [r7, #80]
 1363 018a 9BB2     		uxth	r3, r3
 1364 018c 0122     		movs	r2, #1
 1365 018e 1946     		mov	r1, r3
 1366 0190 7868     		ldr	r0, [r7, #4]
 1367 0192 FFF7FEFF 		bl	VL53L0X_SetLimitCheckEnable
 1368 0196 0346     		mov	r3, r0
 1369 0198 1A46     		mov	r2, r3
 1370              		.loc 1 441 11
 1371 019a 97F85730 		ldrb	r3, [r7, #87]
 1372 019e 1343     		orrs	r3, r3, r2
 1373 01a0 87F85730 		strb	r3, [r7, #87]
 439:Drivers/VL53L0X/core/src/vl53l0x_api.c **** 		if (Status == VL53L0X_ERROR_NONE)
 1374              		.loc 1 439 57
 1375 01a4 3B6D     		ldr	r3, [r7, #80]
 1376 01a6 0133     		adds	r3, r3, #1
 1377 01a8 3B65     		str	r3, [r7, #80]
 1378              	.L53:
 439:Drivers/VL53L0X/core/src/vl53l0x_api.c **** 		if (Status == VL53L0X_ERROR_NONE)
 1379              		.loc 1 439 16 discriminator 1
 1380 01aa 3B6D     		ldr	r3, [r7, #80]
 1381 01ac 052B     		cmp	r3, #5
 1382 01ae E7DD     		ble	.L57
 1383 01b0 00E0     		b	.L56
 1384              	.L69:
 442:Drivers/VL53L0X/core/src/vl53l0x_api.c **** 		else
 443:Drivers/VL53L0X/core/src/vl53l0x_api.c **** 			break;
 1385              		.loc 1 443 4
 1386 01b2 00BF     		nop
 1387              	.L56:
 444:Drivers/VL53L0X/core/src/vl53l0x_api.c **** 
 445:Drivers/VL53L0X/core/src/vl53l0x_api.c **** 	}
 446:Drivers/VL53L0X/core/src/vl53l0x_api.c **** 
ARM GAS  C:\Users\Morroway\AppData\Local\Temp\ccih4NWY.s 			page 35


 447:Drivers/VL53L0X/core/src/vl53l0x_api.c **** 	/* Disable the following checks */
 448:Drivers/VL53L0X/core/src/vl53l0x_api.c **** 	if (Status == VL53L0X_ERROR_NONE)
 1388              		.loc 1 448 5
 1389 01b4 97F95730 		ldrsb	r3, [r7, #87]
 1390 01b8 002B     		cmp	r3, #0
 1391 01ba 07D1     		bne	.L58
 449:Drivers/VL53L0X/core/src/vl53l0x_api.c **** 		Status = VL53L0X_SetLimitCheckEnable(Dev,
 1392              		.loc 1 449 12
 1393 01bc 0022     		movs	r2, #0
 1394 01be 0221     		movs	r1, #2
 1395 01c0 7868     		ldr	r0, [r7, #4]
 1396 01c2 FFF7FEFF 		bl	VL53L0X_SetLimitCheckEnable
 1397 01c6 0346     		mov	r3, r0
 1398 01c8 87F85730 		strb	r3, [r7, #87]
 1399              	.L58:
 450:Drivers/VL53L0X/core/src/vl53l0x_api.c **** 			VL53L0X_CHECKENABLE_SIGNAL_REF_CLIP, 0);
 451:Drivers/VL53L0X/core/src/vl53l0x_api.c **** 
 452:Drivers/VL53L0X/core/src/vl53l0x_api.c **** 	if (Status == VL53L0X_ERROR_NONE)
 1400              		.loc 1 452 5
 1401 01cc 97F95730 		ldrsb	r3, [r7, #87]
 1402 01d0 002B     		cmp	r3, #0
 1403 01d2 07D1     		bne	.L59
 453:Drivers/VL53L0X/core/src/vl53l0x_api.c **** 		Status = VL53L0X_SetLimitCheckEnable(Dev,
 1404              		.loc 1 453 12
 1405 01d4 0022     		movs	r2, #0
 1406 01d6 0321     		movs	r1, #3
 1407 01d8 7868     		ldr	r0, [r7, #4]
 1408 01da FFF7FEFF 		bl	VL53L0X_SetLimitCheckEnable
 1409 01de 0346     		mov	r3, r0
 1410 01e0 87F85730 		strb	r3, [r7, #87]
 1411              	.L59:
 454:Drivers/VL53L0X/core/src/vl53l0x_api.c **** 			VL53L0X_CHECKENABLE_RANGE_IGNORE_THRESHOLD, 0);
 455:Drivers/VL53L0X/core/src/vl53l0x_api.c **** 
 456:Drivers/VL53L0X/core/src/vl53l0x_api.c **** 	if (Status == VL53L0X_ERROR_NONE)
 1412              		.loc 1 456 5
 1413 01e4 97F95730 		ldrsb	r3, [r7, #87]
 1414 01e8 002B     		cmp	r3, #0
 1415 01ea 07D1     		bne	.L60
 457:Drivers/VL53L0X/core/src/vl53l0x_api.c **** 		Status = VL53L0X_SetLimitCheckEnable(Dev,
 1416              		.loc 1 457 12
 1417 01ec 0022     		movs	r2, #0
 1418 01ee 0421     		movs	r1, #4
 1419 01f0 7868     		ldr	r0, [r7, #4]
 1420 01f2 FFF7FEFF 		bl	VL53L0X_SetLimitCheckEnable
 1421 01f6 0346     		mov	r3, r0
 1422 01f8 87F85730 		strb	r3, [r7, #87]
 1423              	.L60:
 458:Drivers/VL53L0X/core/src/vl53l0x_api.c **** 			VL53L0X_CHECKENABLE_SIGNAL_RATE_MSRC, 0);
 459:Drivers/VL53L0X/core/src/vl53l0x_api.c **** 
 460:Drivers/VL53L0X/core/src/vl53l0x_api.c **** 	if (Status == VL53L0X_ERROR_NONE)
 1424              		.loc 1 460 5
 1425 01fc 97F95730 		ldrsb	r3, [r7, #87]
 1426 0200 002B     		cmp	r3, #0
 1427 0202 07D1     		bne	.L61
 461:Drivers/VL53L0X/core/src/vl53l0x_api.c **** 		Status = VL53L0X_SetLimitCheckEnable(Dev,
 1428              		.loc 1 461 12
 1429 0204 0022     		movs	r2, #0
ARM GAS  C:\Users\Morroway\AppData\Local\Temp\ccih4NWY.s 			page 36


 1430 0206 0521     		movs	r1, #5
 1431 0208 7868     		ldr	r0, [r7, #4]
 1432 020a FFF7FEFF 		bl	VL53L0X_SetLimitCheckEnable
 1433 020e 0346     		mov	r3, r0
 1434 0210 87F85730 		strb	r3, [r7, #87]
 1435              	.L61:
 462:Drivers/VL53L0X/core/src/vl53l0x_api.c **** 			VL53L0X_CHECKENABLE_SIGNAL_RATE_PRE_RANGE, 0);
 463:Drivers/VL53L0X/core/src/vl53l0x_api.c **** 
 464:Drivers/VL53L0X/core/src/vl53l0x_api.c **** 	/* Limit default values */
 465:Drivers/VL53L0X/core/src/vl53l0x_api.c **** 	if (Status == VL53L0X_ERROR_NONE) {
 1436              		.loc 1 465 5
 1437 0214 97F95730 		ldrsb	r3, [r7, #87]
 1438 0218 002B     		cmp	r3, #0
 1439 021a 08D1     		bne	.L62
 466:Drivers/VL53L0X/core/src/vl53l0x_api.c **** 		Status = VL53L0X_SetLimitCheckValue(Dev,
 1440              		.loc 1 466 12
 1441 021c 4FF49012 		mov	r2, #1179648
 1442 0220 0021     		movs	r1, #0
 1443 0222 7868     		ldr	r0, [r7, #4]
 1444 0224 FFF7FEFF 		bl	VL53L0X_SetLimitCheckValue
 1445 0228 0346     		mov	r3, r0
 1446 022a 87F85730 		strb	r3, [r7, #87]
 1447              	.L62:
 467:Drivers/VL53L0X/core/src/vl53l0x_api.c **** 			VL53L0X_CHECKENABLE_SIGMA_FINAL_RANGE,
 468:Drivers/VL53L0X/core/src/vl53l0x_api.c **** 				(FixPoint1616_t)(18 * 65536));
 469:Drivers/VL53L0X/core/src/vl53l0x_api.c **** 	}
 470:Drivers/VL53L0X/core/src/vl53l0x_api.c **** 	if (Status == VL53L0X_ERROR_NONE) {
 1448              		.loc 1 470 5
 1449 022e 97F95730 		ldrsb	r3, [r7, #87]
 1450 0232 002B     		cmp	r3, #0
 1451 0234 08D1     		bne	.L63
 471:Drivers/VL53L0X/core/src/vl53l0x_api.c **** 		Status = VL53L0X_SetLimitCheckValue(Dev,
 1452              		.loc 1 471 12
 1453 0236 4FF48042 		mov	r2, #16384
 1454 023a 0121     		movs	r1, #1
 1455 023c 7868     		ldr	r0, [r7, #4]
 1456 023e FFF7FEFF 		bl	VL53L0X_SetLimitCheckValue
 1457 0242 0346     		mov	r3, r0
 1458 0244 87F85730 		strb	r3, [r7, #87]
 1459              	.L63:
 472:Drivers/VL53L0X/core/src/vl53l0x_api.c **** 			VL53L0X_CHECKENABLE_SIGNAL_RATE_FINAL_RANGE,
 473:Drivers/VL53L0X/core/src/vl53l0x_api.c **** 				(FixPoint1616_t)(25 * 65536 / 100));
 474:Drivers/VL53L0X/core/src/vl53l0x_api.c **** 				/* 0.25 * 65536 */
 475:Drivers/VL53L0X/core/src/vl53l0x_api.c **** 	}
 476:Drivers/VL53L0X/core/src/vl53l0x_api.c **** 
 477:Drivers/VL53L0X/core/src/vl53l0x_api.c **** 	if (Status == VL53L0X_ERROR_NONE) {
 1460              		.loc 1 477 5
 1461 0248 97F95730 		ldrsb	r3, [r7, #87]
 1462 024c 002B     		cmp	r3, #0
 1463 024e 08D1     		bne	.L64
 478:Drivers/VL53L0X/core/src/vl53l0x_api.c **** 		Status = VL53L0X_SetLimitCheckValue(Dev,
 1464              		.loc 1 478 12
 1465 0250 4FF40C12 		mov	r2, #2293760
 1466 0254 0221     		movs	r1, #2
 1467 0256 7868     		ldr	r0, [r7, #4]
 1468 0258 FFF7FEFF 		bl	VL53L0X_SetLimitCheckValue
 1469 025c 0346     		mov	r3, r0
ARM GAS  C:\Users\Morroway\AppData\Local\Temp\ccih4NWY.s 			page 37


 1470 025e 87F85730 		strb	r3, [r7, #87]
 1471              	.L64:
 479:Drivers/VL53L0X/core/src/vl53l0x_api.c **** 			VL53L0X_CHECKENABLE_SIGNAL_REF_CLIP,
 480:Drivers/VL53L0X/core/src/vl53l0x_api.c **** 				(FixPoint1616_t)(35 * 65536));
 481:Drivers/VL53L0X/core/src/vl53l0x_api.c **** 	}
 482:Drivers/VL53L0X/core/src/vl53l0x_api.c **** 
 483:Drivers/VL53L0X/core/src/vl53l0x_api.c **** 	if (Status == VL53L0X_ERROR_NONE) {
 1472              		.loc 1 483 5
 1473 0262 97F95730 		ldrsb	r3, [r7, #87]
 1474 0266 002B     		cmp	r3, #0
 1475 0268 07D1     		bne	.L65
 484:Drivers/VL53L0X/core/src/vl53l0x_api.c **** 		Status = VL53L0X_SetLimitCheckValue(Dev,
 1476              		.loc 1 484 12
 1477 026a 0022     		movs	r2, #0
 1478 026c 0321     		movs	r1, #3
 1479 026e 7868     		ldr	r0, [r7, #4]
 1480 0270 FFF7FEFF 		bl	VL53L0X_SetLimitCheckValue
 1481 0274 0346     		mov	r3, r0
 1482 0276 87F85730 		strb	r3, [r7, #87]
 1483              	.L65:
 485:Drivers/VL53L0X/core/src/vl53l0x_api.c **** 			VL53L0X_CHECKENABLE_RANGE_IGNORE_THRESHOLD,
 486:Drivers/VL53L0X/core/src/vl53l0x_api.c **** 				(FixPoint1616_t)(0 * 65536));
 487:Drivers/VL53L0X/core/src/vl53l0x_api.c **** 	}
 488:Drivers/VL53L0X/core/src/vl53l0x_api.c **** 
 489:Drivers/VL53L0X/core/src/vl53l0x_api.c **** 	if (Status == VL53L0X_ERROR_NONE) {
 1484              		.loc 1 489 5
 1485 027a 97F95730 		ldrsb	r3, [r7, #87]
 1486 027e 002B     		cmp	r3, #0
 1487 0280 0FD1     		bne	.L66
 490:Drivers/VL53L0X/core/src/vl53l0x_api.c **** 
 491:Drivers/VL53L0X/core/src/vl53l0x_api.c **** 		PALDevDataSet(Dev, SequenceConfig, 0xFF);
 1488              		.loc 1 491 3
 1489 0282 7B68     		ldr	r3, [r7, #4]
 1490 0284 FF22     		movs	r2, #255
 1491 0286 83F83021 		strb	r2, [r3, #304]
 492:Drivers/VL53L0X/core/src/vl53l0x_api.c **** 		Status = VL53L0X_WrByte(Dev, VL53L0X_REG_SYSTEM_SEQUENCE_CONFIG,
 1492              		.loc 1 492 12
 1493 028a FF22     		movs	r2, #255
 1494 028c 0121     		movs	r1, #1
 1495 028e 7868     		ldr	r0, [r7, #4]
 1496 0290 FFF7FEFF 		bl	VL53L0X_WrByte
 1497 0294 0346     		mov	r3, r0
 1498 0296 87F85730 		strb	r3, [r7, #87]
 493:Drivers/VL53L0X/core/src/vl53l0x_api.c **** 			0xFF);
 494:Drivers/VL53L0X/core/src/vl53l0x_api.c **** 
 495:Drivers/VL53L0X/core/src/vl53l0x_api.c **** 		/* Set PAL state to tell that we are waiting for call to
 496:Drivers/VL53L0X/core/src/vl53l0x_api.c **** 		 * VL53L0X_StaticInit */
 497:Drivers/VL53L0X/core/src/vl53l0x_api.c **** 		PALDevDataSet(Dev, PalState, VL53L0X_STATE_WAIT_STATICINIT);
 1499              		.loc 1 497 3
 1500 029a 7B68     		ldr	r3, [r7, #4]
 1501 029c 0122     		movs	r2, #1
 1502 029e 83F83221 		strb	r2, [r3, #306]
 1503              	.L66:
 498:Drivers/VL53L0X/core/src/vl53l0x_api.c **** 	}
 499:Drivers/VL53L0X/core/src/vl53l0x_api.c **** 
 500:Drivers/VL53L0X/core/src/vl53l0x_api.c **** 	if (Status == VL53L0X_ERROR_NONE)
 1504              		.loc 1 500 5
ARM GAS  C:\Users\Morroway\AppData\Local\Temp\ccih4NWY.s 			page 38


 1505 02a2 97F95730 		ldrsb	r3, [r7, #87]
 1506 02a6 002B     		cmp	r3, #0
 1507 02a8 03D1     		bne	.L67
 501:Drivers/VL53L0X/core/src/vl53l0x_api.c **** 		VL53L0X_SETDEVICESPECIFICPARAMETER(Dev, RefSpadsInitialised, 0);
 1508              		.loc 1 501 3
 1509 02aa 7B68     		ldr	r3, [r7, #4]
 1510 02ac 0022     		movs	r2, #0
 1511 02ae 83F81521 		strb	r2, [r3, #277]
 1512              	.L67:
 502:Drivers/VL53L0X/core/src/vl53l0x_api.c **** 
 503:Drivers/VL53L0X/core/src/vl53l0x_api.c **** 
 504:Drivers/VL53L0X/core/src/vl53l0x_api.c **** 	LOG_FUNCTION_END(Status);
 505:Drivers/VL53L0X/core/src/vl53l0x_api.c **** 	return Status;
 1513              		.loc 1 505 9
 1514 02b2 97F95730 		ldrsb	r3, [r7, #87]
 506:Drivers/VL53L0X/core/src/vl53l0x_api.c **** }
 1515              		.loc 1 506 1
 1516 02b6 1846     		mov	r0, r3
 1517 02b8 5837     		adds	r7, r7, #88
 1518              		.cfi_def_cfa_offset 16
 1519 02ba BD46     		mov	sp, r7
 1520              		.cfi_def_cfa_register 13
 1521              		@ sp needed
 1522 02bc B0BD     		pop	{r4, r5, r7, pc}
 1523              	.L71:
 1524 02be 00BF     		.align	2
 1525              	.L70:
 1526 02c0 856B0100 		.word	93061
 1527 02c4 A4700900 		.word	618660
 1528              		.cfi_endproc
 1529              	.LFE344:
 1531              		.section	.text.VL53L0X_SetTuningSettingBuffer,"ax",%progbits
 1532              		.align	1
 1533              		.global	VL53L0X_SetTuningSettingBuffer
 1534              		.syntax unified
 1535              		.thumb
 1536              		.thumb_func
 1538              	VL53L0X_SetTuningSettingBuffer:
 1539              	.LFB345:
 507:Drivers/VL53L0X/core/src/vl53l0x_api.c **** 
 508:Drivers/VL53L0X/core/src/vl53l0x_api.c **** VL53L0X_Error VL53L0X_SetTuningSettingBuffer(VL53L0X_DEV Dev,
 509:Drivers/VL53L0X/core/src/vl53l0x_api.c **** 	uint8_t *pTuningSettingBuffer, uint8_t UseInternalTuningSettings)
 510:Drivers/VL53L0X/core/src/vl53l0x_api.c **** {
 1540              		.loc 1 510 1
 1541              		.cfi_startproc
 1542              		@ args = 0, pretend = 0, frame = 24
 1543              		@ frame_needed = 1, uses_anonymous_args = 0
 1544              		@ link register save eliminated.
 1545 0000 80B4     		push	{r7}
 1546              		.cfi_def_cfa_offset 4
 1547              		.cfi_offset 7, -4
 1548 0002 87B0     		sub	sp, sp, #28
 1549              		.cfi_def_cfa_offset 32
 1550 0004 00AF     		add	r7, sp, #0
 1551              		.cfi_def_cfa_register 7
 1552 0006 F860     		str	r0, [r7, #12]
 1553 0008 B960     		str	r1, [r7, #8]
ARM GAS  C:\Users\Morroway\AppData\Local\Temp\ccih4NWY.s 			page 39


 1554 000a 1346     		mov	r3, r2
 1555 000c FB71     		strb	r3, [r7, #7]
 511:Drivers/VL53L0X/core/src/vl53l0x_api.c **** 	VL53L0X_Error Status = VL53L0X_ERROR_NONE;
 1556              		.loc 1 511 16
 1557 000e 0023     		movs	r3, #0
 1558 0010 FB75     		strb	r3, [r7, #23]
 512:Drivers/VL53L0X/core/src/vl53l0x_api.c **** 
 513:Drivers/VL53L0X/core/src/vl53l0x_api.c **** 	LOG_FUNCTION_START("");
 514:Drivers/VL53L0X/core/src/vl53l0x_api.c **** 
 515:Drivers/VL53L0X/core/src/vl53l0x_api.c **** 	if (UseInternalTuningSettings == 1) {
 1559              		.loc 1 515 5
 1560 0012 FB79     		ldrb	r3, [r7, #7]	@ zero_extendqisi2
 1561 0014 012B     		cmp	r3, #1
 1562 0016 04D1     		bne	.L73
 516:Drivers/VL53L0X/core/src/vl53l0x_api.c **** 		/* Force use internal settings */
 517:Drivers/VL53L0X/core/src/vl53l0x_api.c **** 		PALDevDataSet(Dev, UseInternalTuningSettings, 1);
 1563              		.loc 1 517 3
 1564 0018 FB68     		ldr	r3, [r7, #12]
 1565 001a 0122     		movs	r2, #1
 1566 001c 83F85021 		strb	r2, [r3, #336]
 1567 0020 0EE0     		b	.L74
 1568              	.L73:
 518:Drivers/VL53L0X/core/src/vl53l0x_api.c **** 	} else {
 519:Drivers/VL53L0X/core/src/vl53l0x_api.c **** 
 520:Drivers/VL53L0X/core/src/vl53l0x_api.c **** 		/* check that the first byte is not 0 */
 521:Drivers/VL53L0X/core/src/vl53l0x_api.c **** 		if (*pTuningSettingBuffer != 0) {
 1569              		.loc 1 521 7
 1570 0022 BB68     		ldr	r3, [r7, #8]
 1571 0024 1B78     		ldrb	r3, [r3]	@ zero_extendqisi2
 1572              		.loc 1 521 6
 1573 0026 002B     		cmp	r3, #0
 1574 0028 08D0     		beq	.L75
 522:Drivers/VL53L0X/core/src/vl53l0x_api.c **** 			PALDevDataSet(Dev, pTuningSettingsPointer,
 1575              		.loc 1 522 4
 1576 002a FB68     		ldr	r3, [r7, #12]
 1577 002c BA68     		ldr	r2, [r7, #8]
 1578 002e C3F84C21 		str	r2, [r3, #332]
 523:Drivers/VL53L0X/core/src/vl53l0x_api.c **** 				pTuningSettingBuffer);
 524:Drivers/VL53L0X/core/src/vl53l0x_api.c **** 			PALDevDataSet(Dev, UseInternalTuningSettings, 0);
 1579              		.loc 1 524 4
 1580 0032 FB68     		ldr	r3, [r7, #12]
 1581 0034 0022     		movs	r2, #0
 1582 0036 83F85021 		strb	r2, [r3, #336]
 1583 003a 01E0     		b	.L74
 1584              	.L75:
 525:Drivers/VL53L0X/core/src/vl53l0x_api.c **** 
 526:Drivers/VL53L0X/core/src/vl53l0x_api.c **** 		} else {
 527:Drivers/VL53L0X/core/src/vl53l0x_api.c **** 			Status = VL53L0X_ERROR_INVALID_PARAMS;
 1585              		.loc 1 527 11
 1586 003c FC23     		movs	r3, #252
 1587 003e FB75     		strb	r3, [r7, #23]
 1588              	.L74:
 528:Drivers/VL53L0X/core/src/vl53l0x_api.c **** 		}
 529:Drivers/VL53L0X/core/src/vl53l0x_api.c **** 	}
 530:Drivers/VL53L0X/core/src/vl53l0x_api.c **** 
 531:Drivers/VL53L0X/core/src/vl53l0x_api.c **** 	LOG_FUNCTION_END(Status);
 532:Drivers/VL53L0X/core/src/vl53l0x_api.c **** 	return Status;
ARM GAS  C:\Users\Morroway\AppData\Local\Temp\ccih4NWY.s 			page 40


 1589              		.loc 1 532 9
 1590 0040 97F91730 		ldrsb	r3, [r7, #23]
 533:Drivers/VL53L0X/core/src/vl53l0x_api.c **** }
 1591              		.loc 1 533 1
 1592 0044 1846     		mov	r0, r3
 1593 0046 1C37     		adds	r7, r7, #28
 1594              		.cfi_def_cfa_offset 4
 1595 0048 BD46     		mov	sp, r7
 1596              		.cfi_def_cfa_register 13
 1597              		@ sp needed
 1598 004a 5DF8047B 		ldr	r7, [sp], #4
 1599              		.cfi_restore 7
 1600              		.cfi_def_cfa_offset 0
 1601 004e 7047     		bx	lr
 1602              		.cfi_endproc
 1603              	.LFE345:
 1605              		.section	.text.VL53L0X_GetTuningSettingBuffer,"ax",%progbits
 1606              		.align	1
 1607              		.global	VL53L0X_GetTuningSettingBuffer
 1608              		.syntax unified
 1609              		.thumb
 1610              		.thumb_func
 1612              	VL53L0X_GetTuningSettingBuffer:
 1613              	.LFB346:
 534:Drivers/VL53L0X/core/src/vl53l0x_api.c **** 
 535:Drivers/VL53L0X/core/src/vl53l0x_api.c **** VL53L0X_Error VL53L0X_GetTuningSettingBuffer(VL53L0X_DEV Dev,
 536:Drivers/VL53L0X/core/src/vl53l0x_api.c **** 	uint8_t **ppTuningSettingBuffer, uint8_t *pUseInternalTuningSettings)
 537:Drivers/VL53L0X/core/src/vl53l0x_api.c **** {
 1614              		.loc 1 537 1
 1615              		.cfi_startproc
 1616              		@ args = 0, pretend = 0, frame = 24
 1617              		@ frame_needed = 1, uses_anonymous_args = 0
 1618              		@ link register save eliminated.
 1619 0000 80B4     		push	{r7}
 1620              		.cfi_def_cfa_offset 4
 1621              		.cfi_offset 7, -4
 1622 0002 87B0     		sub	sp, sp, #28
 1623              		.cfi_def_cfa_offset 32
 1624 0004 00AF     		add	r7, sp, #0
 1625              		.cfi_def_cfa_register 7
 1626 0006 F860     		str	r0, [r7, #12]
 1627 0008 B960     		str	r1, [r7, #8]
 1628 000a 7A60     		str	r2, [r7, #4]
 538:Drivers/VL53L0X/core/src/vl53l0x_api.c **** 	VL53L0X_Error Status = VL53L0X_ERROR_NONE;
 1629              		.loc 1 538 16
 1630 000c 0023     		movs	r3, #0
 1631 000e FB75     		strb	r3, [r7, #23]
 539:Drivers/VL53L0X/core/src/vl53l0x_api.c **** 
 540:Drivers/VL53L0X/core/src/vl53l0x_api.c **** 	LOG_FUNCTION_START("");
 541:Drivers/VL53L0X/core/src/vl53l0x_api.c **** 
 542:Drivers/VL53L0X/core/src/vl53l0x_api.c **** 	*ppTuningSettingBuffer = PALDevDataGet(Dev, pTuningSettingsPointer);
 1632              		.loc 1 542 27
 1633 0010 FB68     		ldr	r3, [r7, #12]
 1634 0012 D3F84C21 		ldr	r2, [r3, #332]
 1635              		.loc 1 542 25
 1636 0016 BB68     		ldr	r3, [r7, #8]
 1637 0018 1A60     		str	r2, [r3]
ARM GAS  C:\Users\Morroway\AppData\Local\Temp\ccih4NWY.s 			page 41


 543:Drivers/VL53L0X/core/src/vl53l0x_api.c **** 	*pUseInternalTuningSettings = PALDevDataGet(Dev,
 1638              		.loc 1 543 32
 1639 001a FB68     		ldr	r3, [r7, #12]
 1640 001c 93F85021 		ldrb	r2, [r3, #336]	@ zero_extendqisi2
 1641              		.loc 1 543 30
 1642 0020 7B68     		ldr	r3, [r7, #4]
 1643 0022 1A70     		strb	r2, [r3]
 544:Drivers/VL53L0X/core/src/vl53l0x_api.c **** 		UseInternalTuningSettings);
 545:Drivers/VL53L0X/core/src/vl53l0x_api.c **** 
 546:Drivers/VL53L0X/core/src/vl53l0x_api.c **** 	LOG_FUNCTION_END(Status);
 547:Drivers/VL53L0X/core/src/vl53l0x_api.c **** 	return Status;
 1644              		.loc 1 547 9
 1645 0024 97F91730 		ldrsb	r3, [r7, #23]
 548:Drivers/VL53L0X/core/src/vl53l0x_api.c **** }
 1646              		.loc 1 548 1
 1647 0028 1846     		mov	r0, r3
 1648 002a 1C37     		adds	r7, r7, #28
 1649              		.cfi_def_cfa_offset 4
 1650 002c BD46     		mov	sp, r7
 1651              		.cfi_def_cfa_register 13
 1652              		@ sp needed
 1653 002e 5DF8047B 		ldr	r7, [sp], #4
 1654              		.cfi_restore 7
 1655              		.cfi_def_cfa_offset 0
 1656 0032 7047     		bx	lr
 1657              		.cfi_endproc
 1658              	.LFE346:
 1660              		.section	.text.VL53L0X_StaticInit,"ax",%progbits
 1661              		.align	1
 1662              		.global	VL53L0X_StaticInit
 1663              		.syntax unified
 1664              		.thumb
 1665              		.thumb_func
 1667              	VL53L0X_StaticInit:
 1668              	.LFB347:
 549:Drivers/VL53L0X/core/src/vl53l0x_api.c **** 
 550:Drivers/VL53L0X/core/src/vl53l0x_api.c **** VL53L0X_Error VL53L0X_StaticInit(VL53L0X_DEV Dev)
 551:Drivers/VL53L0X/core/src/vl53l0x_api.c **** {
 1669              		.loc 1 551 1
 1670              		.cfi_startproc
 1671              		@ args = 0, pretend = 0, frame = 112
 1672              		@ frame_needed = 1, uses_anonymous_args = 0
 1673 0000 B0B5     		push	{r4, r5, r7, lr}
 1674              		.cfi_def_cfa_offset 16
 1675              		.cfi_offset 4, -16
 1676              		.cfi_offset 5, -12
 1677              		.cfi_offset 7, -8
 1678              		.cfi_offset 14, -4
 1679 0002 9EB0     		sub	sp, sp, #120
 1680              		.cfi_def_cfa_offset 136
 1681 0004 02AF     		add	r7, sp, #8
 1682              		.cfi_def_cfa 7, 128
 1683 0006 7860     		str	r0, [r7, #4]
 552:Drivers/VL53L0X/core/src/vl53l0x_api.c **** 	VL53L0X_Error Status = VL53L0X_ERROR_NONE;
 1684              		.loc 1 552 16
 1685 0008 0023     		movs	r3, #0
 1686 000a 87F86F30 		strb	r3, [r7, #111]
ARM GAS  C:\Users\Morroway\AppData\Local\Temp\ccih4NWY.s 			page 42


 553:Drivers/VL53L0X/core/src/vl53l0x_api.c **** 	VL53L0X_DeviceParameters_t CurrentParameters = {0};
 1687              		.loc 1 553 29
 1688 000e 07F11C03 		add	r3, r7, #28
 1689 0012 4022     		movs	r2, #64
 1690 0014 0021     		movs	r1, #0
 1691 0016 1846     		mov	r0, r3
 1692 0018 FFF7FEFF 		bl	memset
 554:Drivers/VL53L0X/core/src/vl53l0x_api.c **** 	uint8_t *pTuningSettingBuffer;
 555:Drivers/VL53L0X/core/src/vl53l0x_api.c **** 	uint16_t tempword = 0;
 1693              		.loc 1 555 11
 1694 001c 0023     		movs	r3, #0
 1695 001e 7B83     		strh	r3, [r7, #26]	@ movhi
 556:Drivers/VL53L0X/core/src/vl53l0x_api.c **** 	uint8_t tempbyte = 0;
 1696              		.loc 1 556 10
 1697 0020 0023     		movs	r3, #0
 1698 0022 7B76     		strb	r3, [r7, #25]
 557:Drivers/VL53L0X/core/src/vl53l0x_api.c **** 	uint8_t UseInternalTuningSettings = 0;
 1699              		.loc 1 557 10
 1700 0024 0023     		movs	r3, #0
 1701 0026 87F86730 		strb	r3, [r7, #103]
 558:Drivers/VL53L0X/core/src/vl53l0x_api.c **** 	uint32_t count = 0;
 1702              		.loc 1 558 11
 1703 002a 0023     		movs	r3, #0
 1704 002c 3B66     		str	r3, [r7, #96]
 559:Drivers/VL53L0X/core/src/vl53l0x_api.c **** 	uint8_t isApertureSpads = 0;
 1705              		.loc 1 559 10
 1706 002e 0023     		movs	r3, #0
 1707 0030 3B76     		strb	r3, [r7, #24]
 560:Drivers/VL53L0X/core/src/vl53l0x_api.c **** 	uint32_t refSpadCount = 0;
 1708              		.loc 1 560 11
 1709 0032 0023     		movs	r3, #0
 1710 0034 7B61     		str	r3, [r7, #20]
 561:Drivers/VL53L0X/core/src/vl53l0x_api.c **** 	uint8_t ApertureSpads = 0;
 1711              		.loc 1 561 10
 1712 0036 0023     		movs	r3, #0
 1713 0038 87F85F30 		strb	r3, [r7, #95]
 562:Drivers/VL53L0X/core/src/vl53l0x_api.c **** 	uint8_t vcselPulsePeriodPCLK;
 563:Drivers/VL53L0X/core/src/vl53l0x_api.c **** 	uint32_t seqTimeoutMicroSecs;
 564:Drivers/VL53L0X/core/src/vl53l0x_api.c **** 
 565:Drivers/VL53L0X/core/src/vl53l0x_api.c **** 	LOG_FUNCTION_START("");
 566:Drivers/VL53L0X/core/src/vl53l0x_api.c **** 
 567:Drivers/VL53L0X/core/src/vl53l0x_api.c **** 	Status = VL53L0X_get_info_from_device(Dev, 1);
 1714              		.loc 1 567 11
 1715 003c 0121     		movs	r1, #1
 1716 003e 7868     		ldr	r0, [r7, #4]
 1717 0040 FFF7FEFF 		bl	VL53L0X_get_info_from_device
 1718 0044 0346     		mov	r3, r0
 1719 0046 87F86F30 		strb	r3, [r7, #111]
 568:Drivers/VL53L0X/core/src/vl53l0x_api.c **** 
 569:Drivers/VL53L0X/core/src/vl53l0x_api.c **** 	/* set the ref spad from NVM */
 570:Drivers/VL53L0X/core/src/vl53l0x_api.c **** 	count	= (uint32_t)VL53L0X_GETDEVICESPECIFICPARAMETER(Dev,
 1720              		.loc 1 570 20
 1721 004a 7B68     		ldr	r3, [r7, #4]
 1722 004c 93F81331 		ldrb	r3, [r3, #275]	@ zero_extendqisi2
 1723              		.loc 1 570 8
 1724 0050 3B66     		str	r3, [r7, #96]
 571:Drivers/VL53L0X/core/src/vl53l0x_api.c **** 		ReferenceSpadCount);
ARM GAS  C:\Users\Morroway\AppData\Local\Temp\ccih4NWY.s 			page 43


 572:Drivers/VL53L0X/core/src/vl53l0x_api.c **** 	ApertureSpads = VL53L0X_GETDEVICESPECIFICPARAMETER(Dev,
 1725              		.loc 1 572 16
 1726 0052 7B68     		ldr	r3, [r7, #4]
 1727 0054 93F81431 		ldrb	r3, [r3, #276]
 1728 0058 87F85F30 		strb	r3, [r7, #95]
 573:Drivers/VL53L0X/core/src/vl53l0x_api.c **** 		ReferenceSpadType);
 574:Drivers/VL53L0X/core/src/vl53l0x_api.c **** 
 575:Drivers/VL53L0X/core/src/vl53l0x_api.c **** 	/* NVM value invalid */
 576:Drivers/VL53L0X/core/src/vl53l0x_api.c **** 	if ((ApertureSpads > 1) ||
 1729              		.loc 1 576 5
 1730 005c 97F85F30 		ldrb	r3, [r7, #95]	@ zero_extendqisi2
 1731 0060 012B     		cmp	r3, #1
 1732 0062 0DD8     		bhi	.L80
 1733              		.loc 1 576 26 discriminator 1
 1734 0064 97F85F30 		ldrb	r3, [r7, #95]	@ zero_extendqisi2
 1735 0068 012B     		cmp	r3, #1
 1736 006a 02D1     		bne	.L81
 577:Drivers/VL53L0X/core/src/vl53l0x_api.c **** 		((ApertureSpads == 1) && (count > 32)) ||
 1737              		.loc 1 577 25
 1738 006c 3B6E     		ldr	r3, [r7, #96]
 1739 006e 202B     		cmp	r3, #32
 1740 0070 06D8     		bhi	.L80
 1741              	.L81:
 1742              		.loc 1 577 42 discriminator 1
 1743 0072 97F85F30 		ldrb	r3, [r7, #95]	@ zero_extendqisi2
 1744 0076 002B     		cmp	r3, #0
 1745 0078 0ED1     		bne	.L82
 578:Drivers/VL53L0X/core/src/vl53l0x_api.c **** 		((ApertureSpads == 0) && (count > 12)))
 1746              		.loc 1 578 25
 1747 007a 3B6E     		ldr	r3, [r7, #96]
 1748 007c 0C2B     		cmp	r3, #12
 1749 007e 0BD9     		bls	.L82
 1750              	.L80:
 579:Drivers/VL53L0X/core/src/vl53l0x_api.c **** 		Status = VL53L0X_perform_ref_spad_management(Dev, &refSpadCount,
 1751              		.loc 1 579 12
 1752 0080 07F11802 		add	r2, r7, #24
 1753 0084 07F11403 		add	r3, r7, #20
 1754 0088 1946     		mov	r1, r3
 1755 008a 7868     		ldr	r0, [r7, #4]
 1756 008c FFF7FEFF 		bl	VL53L0X_perform_ref_spad_management
 1757 0090 0346     		mov	r3, r0
 1758 0092 87F86F30 		strb	r3, [r7, #111]
 1759              		.loc 1 579 10
 1760 0096 09E0     		b	.L83
 1761              	.L82:
 580:Drivers/VL53L0X/core/src/vl53l0x_api.c **** 			&isApertureSpads);
 581:Drivers/VL53L0X/core/src/vl53l0x_api.c **** 	else
 582:Drivers/VL53L0X/core/src/vl53l0x_api.c **** 		Status = VL53L0X_set_reference_spads(Dev, count, ApertureSpads);
 1762              		.loc 1 582 12
 1763 0098 97F85F30 		ldrb	r3, [r7, #95]	@ zero_extendqisi2
 1764 009c 1A46     		mov	r2, r3
 1765 009e 396E     		ldr	r1, [r7, #96]
 1766 00a0 7868     		ldr	r0, [r7, #4]
 1767 00a2 FFF7FEFF 		bl	VL53L0X_set_reference_spads
 1768 00a6 0346     		mov	r3, r0
 1769 00a8 87F86F30 		strb	r3, [r7, #111]
 1770              	.L83:
ARM GAS  C:\Users\Morroway\AppData\Local\Temp\ccih4NWY.s 			page 44


 583:Drivers/VL53L0X/core/src/vl53l0x_api.c **** 
 584:Drivers/VL53L0X/core/src/vl53l0x_api.c **** 
 585:Drivers/VL53L0X/core/src/vl53l0x_api.c **** 	/* Initialize tuning settings buffer to prevent compiler warning. */
 586:Drivers/VL53L0X/core/src/vl53l0x_api.c **** 	pTuningSettingBuffer = DefaultTuningSettings;
 1771              		.loc 1 586 23
 1772 00ac 944B     		ldr	r3, .L106
 1773 00ae BB66     		str	r3, [r7, #104]
 587:Drivers/VL53L0X/core/src/vl53l0x_api.c **** 
 588:Drivers/VL53L0X/core/src/vl53l0x_api.c **** 	if (Status == VL53L0X_ERROR_NONE) {
 1774              		.loc 1 588 5
 1775 00b0 97F96F30 		ldrsb	r3, [r7, #111]
 1776 00b4 002B     		cmp	r3, #0
 1777 00b6 0FD1     		bne	.L84
 589:Drivers/VL53L0X/core/src/vl53l0x_api.c **** 		UseInternalTuningSettings = PALDevDataGet(Dev,
 1778              		.loc 1 589 29
 1779 00b8 7B68     		ldr	r3, [r7, #4]
 1780 00ba 93F85031 		ldrb	r3, [r3, #336]
 1781 00be 87F86730 		strb	r3, [r7, #103]
 590:Drivers/VL53L0X/core/src/vl53l0x_api.c **** 			UseInternalTuningSettings);
 591:Drivers/VL53L0X/core/src/vl53l0x_api.c **** 
 592:Drivers/VL53L0X/core/src/vl53l0x_api.c **** 		if (UseInternalTuningSettings == 0)
 1782              		.loc 1 592 6
 1783 00c2 97F86730 		ldrb	r3, [r7, #103]	@ zero_extendqisi2
 1784 00c6 002B     		cmp	r3, #0
 1785 00c8 04D1     		bne	.L85
 593:Drivers/VL53L0X/core/src/vl53l0x_api.c **** 			pTuningSettingBuffer = PALDevDataGet(Dev,
 1786              		.loc 1 593 25
 1787 00ca 7B68     		ldr	r3, [r7, #4]
 1788 00cc D3F84C31 		ldr	r3, [r3, #332]
 1789 00d0 BB66     		str	r3, [r7, #104]
 1790 00d2 01E0     		b	.L84
 1791              	.L85:
 594:Drivers/VL53L0X/core/src/vl53l0x_api.c **** 				pTuningSettingsPointer);
 595:Drivers/VL53L0X/core/src/vl53l0x_api.c **** 		else
 596:Drivers/VL53L0X/core/src/vl53l0x_api.c **** 			pTuningSettingBuffer = DefaultTuningSettings;
 1792              		.loc 1 596 25
 1793 00d4 8A4B     		ldr	r3, .L106
 1794 00d6 BB66     		str	r3, [r7, #104]
 1795              	.L84:
 597:Drivers/VL53L0X/core/src/vl53l0x_api.c **** 
 598:Drivers/VL53L0X/core/src/vl53l0x_api.c **** 	}
 599:Drivers/VL53L0X/core/src/vl53l0x_api.c **** 
 600:Drivers/VL53L0X/core/src/vl53l0x_api.c **** 	if (Status == VL53L0X_ERROR_NONE)
 1796              		.loc 1 600 5
 1797 00d8 97F96F30 		ldrsb	r3, [r7, #111]
 1798 00dc 002B     		cmp	r3, #0
 1799 00de 06D1     		bne	.L86
 601:Drivers/VL53L0X/core/src/vl53l0x_api.c **** 		Status = VL53L0X_load_tuning_settings(Dev, pTuningSettingBuffer);
 1800              		.loc 1 601 12
 1801 00e0 B96E     		ldr	r1, [r7, #104]
 1802 00e2 7868     		ldr	r0, [r7, #4]
 1803 00e4 FFF7FEFF 		bl	VL53L0X_load_tuning_settings
 1804 00e8 0346     		mov	r3, r0
 1805 00ea 87F86F30 		strb	r3, [r7, #111]
 1806              	.L86:
 602:Drivers/VL53L0X/core/src/vl53l0x_api.c **** 
 603:Drivers/VL53L0X/core/src/vl53l0x_api.c **** 
ARM GAS  C:\Users\Morroway\AppData\Local\Temp\ccih4NWY.s 			page 45


 604:Drivers/VL53L0X/core/src/vl53l0x_api.c **** 	/* Set interrupt config to new sample ready */
 605:Drivers/VL53L0X/core/src/vl53l0x_api.c **** 	if (Status == VL53L0X_ERROR_NONE) {
 1807              		.loc 1 605 5
 1808 00ee 97F96F30 		ldrsb	r3, [r7, #111]
 1809 00f2 002B     		cmp	r3, #0
 1810 00f4 0AD1     		bne	.L87
 606:Drivers/VL53L0X/core/src/vl53l0x_api.c **** 		Status = VL53L0X_SetGpioConfig(Dev, 0, 0,
 1811              		.loc 1 606 12
 1812 00f6 0023     		movs	r3, #0
 1813 00f8 0093     		str	r3, [sp]
 1814 00fa 0423     		movs	r3, #4
 1815 00fc 0022     		movs	r2, #0
 1816 00fe 0021     		movs	r1, #0
 1817 0100 7868     		ldr	r0, [r7, #4]
 1818 0102 FFF7FEFF 		bl	VL53L0X_SetGpioConfig
 1819 0106 0346     		mov	r3, r0
 1820 0108 87F86F30 		strb	r3, [r7, #111]
 1821              	.L87:
 607:Drivers/VL53L0X/core/src/vl53l0x_api.c **** 		VL53L0X_REG_SYSTEM_INTERRUPT_GPIO_NEW_SAMPLE_READY,
 608:Drivers/VL53L0X/core/src/vl53l0x_api.c **** 		VL53L0X_INTERRUPTPOLARITY_LOW);
 609:Drivers/VL53L0X/core/src/vl53l0x_api.c **** 	}
 610:Drivers/VL53L0X/core/src/vl53l0x_api.c **** 
 611:Drivers/VL53L0X/core/src/vl53l0x_api.c **** 	if (Status == VL53L0X_ERROR_NONE) {
 1822              		.loc 1 611 5
 1823 010c 97F96F30 		ldrsb	r3, [r7, #111]
 1824 0110 002B     		cmp	r3, #0
 1825 0112 21D1     		bne	.L88
 612:Drivers/VL53L0X/core/src/vl53l0x_api.c **** 		Status = VL53L0X_WrByte(Dev, 0xFF, 0x01);
 1826              		.loc 1 612 12
 1827 0114 0122     		movs	r2, #1
 1828 0116 FF21     		movs	r1, #255
 1829 0118 7868     		ldr	r0, [r7, #4]
 1830 011a FFF7FEFF 		bl	VL53L0X_WrByte
 1831 011e 0346     		mov	r3, r0
 1832 0120 87F86F30 		strb	r3, [r7, #111]
 613:Drivers/VL53L0X/core/src/vl53l0x_api.c **** 		Status |= VL53L0X_RdWord(Dev, 0x84, &tempword);
 1833              		.loc 1 613 13
 1834 0124 07F11A03 		add	r3, r7, #26
 1835 0128 1A46     		mov	r2, r3
 1836 012a 8421     		movs	r1, #132
 1837 012c 7868     		ldr	r0, [r7, #4]
 1838 012e FFF7FEFF 		bl	VL53L0X_RdWord
 1839 0132 0346     		mov	r3, r0
 1840 0134 1A46     		mov	r2, r3
 1841              		.loc 1 613 10
 1842 0136 97F86F30 		ldrb	r3, [r7, #111]
 1843 013a 1343     		orrs	r3, r3, r2
 1844 013c 87F86F30 		strb	r3, [r7, #111]
 614:Drivers/VL53L0X/core/src/vl53l0x_api.c **** 		Status |= VL53L0X_WrByte(Dev, 0xFF, 0x00);
 1845              		.loc 1 614 13
 1846 0140 0022     		movs	r2, #0
 1847 0142 FF21     		movs	r1, #255
 1848 0144 7868     		ldr	r0, [r7, #4]
 1849 0146 FFF7FEFF 		bl	VL53L0X_WrByte
 1850 014a 0346     		mov	r3, r0
 1851 014c 1A46     		mov	r2, r3
 1852              		.loc 1 614 10
ARM GAS  C:\Users\Morroway\AppData\Local\Temp\ccih4NWY.s 			page 46


 1853 014e 97F86F30 		ldrb	r3, [r7, #111]
 1854 0152 1343     		orrs	r3, r3, r2
 1855 0154 87F86F30 		strb	r3, [r7, #111]
 1856              	.L88:
 615:Drivers/VL53L0X/core/src/vl53l0x_api.c **** 	}
 616:Drivers/VL53L0X/core/src/vl53l0x_api.c **** 
 617:Drivers/VL53L0X/core/src/vl53l0x_api.c **** 	if (Status == VL53L0X_ERROR_NONE) {
 1857              		.loc 1 617 5
 1858 0158 97F96F30 		ldrsb	r3, [r7, #111]
 1859 015c 002B     		cmp	r3, #0
 1860 015e 05D1     		bne	.L89
 618:Drivers/VL53L0X/core/src/vl53l0x_api.c **** 		VL53L0X_SETDEVICESPECIFICPARAMETER(Dev, OscFrequencyMHz,
 1861              		.loc 1 618 3
 1862 0160 7B8B     		ldrh	r3, [r7, #26]
 1863 0162 1B01     		lsls	r3, r3, #4
 1864 0164 1A46     		mov	r2, r3
 1865 0166 7B68     		ldr	r3, [r7, #4]
 1866 0168 C3F8D420 		str	r2, [r3, #212]
 1867              	.L89:
 619:Drivers/VL53L0X/core/src/vl53l0x_api.c **** 			VL53L0X_FIXPOINT412TOFIXPOINT1616(tempword));
 620:Drivers/VL53L0X/core/src/vl53l0x_api.c **** 	}
 621:Drivers/VL53L0X/core/src/vl53l0x_api.c **** 
 622:Drivers/VL53L0X/core/src/vl53l0x_api.c **** 	/* After static init, some device parameters may be changed,
 623:Drivers/VL53L0X/core/src/vl53l0x_api.c **** 	 * so update them */
 624:Drivers/VL53L0X/core/src/vl53l0x_api.c **** 	if (Status == VL53L0X_ERROR_NONE)
 1868              		.loc 1 624 5
 1869 016c 97F96F30 		ldrsb	r3, [r7, #111]
 1870 0170 002B     		cmp	r3, #0
 1871 0172 08D1     		bne	.L90
 625:Drivers/VL53L0X/core/src/vl53l0x_api.c **** 		Status = VL53L0X_GetDeviceParameters(Dev, &CurrentParameters);
 1872              		.loc 1 625 12
 1873 0174 07F11C03 		add	r3, r7, #28
 1874 0178 1946     		mov	r1, r3
 1875 017a 7868     		ldr	r0, [r7, #4]
 1876 017c FFF7FEFF 		bl	VL53L0X_GetDeviceParameters
 1877 0180 0346     		mov	r3, r0
 1878 0182 87F86F30 		strb	r3, [r7, #111]
 1879              	.L90:
 626:Drivers/VL53L0X/core/src/vl53l0x_api.c **** 
 627:Drivers/VL53L0X/core/src/vl53l0x_api.c **** 
 628:Drivers/VL53L0X/core/src/vl53l0x_api.c **** 	if (Status == VL53L0X_ERROR_NONE) {
 1880              		.loc 1 628 5
 1881 0186 97F96F30 		ldrsb	r3, [r7, #111]
 1882 018a 002B     		cmp	r3, #0
 1883 018c 10D1     		bne	.L91
 629:Drivers/VL53L0X/core/src/vl53l0x_api.c **** 		Status = VL53L0X_GetFractionEnable(Dev, &tempbyte);
 1884              		.loc 1 629 12
 1885 018e 07F11903 		add	r3, r7, #25
 1886 0192 1946     		mov	r1, r3
 1887 0194 7868     		ldr	r0, [r7, #4]
 1888 0196 FFF7FEFF 		bl	VL53L0X_GetFractionEnable
 1889 019a 0346     		mov	r3, r0
 1890 019c 87F86F30 		strb	r3, [r7, #111]
 630:Drivers/VL53L0X/core/src/vl53l0x_api.c **** 		if (Status == VL53L0X_ERROR_NONE)
 1891              		.loc 1 630 6
 1892 01a0 97F96F30 		ldrsb	r3, [r7, #111]
 1893 01a4 002B     		cmp	r3, #0
ARM GAS  C:\Users\Morroway\AppData\Local\Temp\ccih4NWY.s 			page 47


 1894 01a6 03D1     		bne	.L91
 631:Drivers/VL53L0X/core/src/vl53l0x_api.c **** 			PALDevDataSet(Dev, RangeFractionalEnable, tempbyte);
 1895              		.loc 1 631 4
 1896 01a8 7A7E     		ldrb	r2, [r7, #25]	@ zero_extendqisi2
 1897 01aa 7B68     		ldr	r3, [r7, #4]
 1898 01ac 83F83121 		strb	r2, [r3, #305]
 1899              	.L91:
 632:Drivers/VL53L0X/core/src/vl53l0x_api.c **** 
 633:Drivers/VL53L0X/core/src/vl53l0x_api.c **** 	}
 634:Drivers/VL53L0X/core/src/vl53l0x_api.c **** 
 635:Drivers/VL53L0X/core/src/vl53l0x_api.c **** 	if (Status == VL53L0X_ERROR_NONE)
 1900              		.loc 1 635 5
 1901 01b0 97F96F30 		ldrsb	r3, [r7, #111]
 1902 01b4 002B     		cmp	r3, #0
 1903 01b6 0ED1     		bne	.L92
 636:Drivers/VL53L0X/core/src/vl53l0x_api.c **** 		PALDevDataSet(Dev, CurrentParameters, CurrentParameters);
 1904              		.loc 1 636 3
 1905 01b8 7B68     		ldr	r3, [r7, #4]
 1906 01ba 03F11004 		add	r4, r3, #16
 1907 01be 07F11C05 		add	r5, r7, #28
 1908 01c2 0FCD     		ldmia	r5!, {r0, r1, r2, r3}
 1909 01c4 0FC4     		stmia	r4!, {r0, r1, r2, r3}
 1910 01c6 0FCD     		ldmia	r5!, {r0, r1, r2, r3}
 1911 01c8 0FC4     		stmia	r4!, {r0, r1, r2, r3}
 1912 01ca 0FCD     		ldmia	r5!, {r0, r1, r2, r3}
 1913 01cc 0FC4     		stmia	r4!, {r0, r1, r2, r3}
 1914 01ce 95E80F00 		ldm	r5, {r0, r1, r2, r3}
 1915 01d2 84E80F00 		stm	r4, {r0, r1, r2, r3}
 1916              	.L92:
 637:Drivers/VL53L0X/core/src/vl53l0x_api.c **** 
 638:Drivers/VL53L0X/core/src/vl53l0x_api.c **** 
 639:Drivers/VL53L0X/core/src/vl53l0x_api.c **** 	/* read the sequence config and save it */
 640:Drivers/VL53L0X/core/src/vl53l0x_api.c **** 	if (Status == VL53L0X_ERROR_NONE) {
 1917              		.loc 1 640 5
 1918 01d6 97F96F30 		ldrsb	r3, [r7, #111]
 1919 01da 002B     		cmp	r3, #0
 1920 01dc 11D1     		bne	.L93
 641:Drivers/VL53L0X/core/src/vl53l0x_api.c **** 		Status = VL53L0X_RdByte(Dev,
 1921              		.loc 1 641 12
 1922 01de 07F11903 		add	r3, r7, #25
 1923 01e2 1A46     		mov	r2, r3
 1924 01e4 0121     		movs	r1, #1
 1925 01e6 7868     		ldr	r0, [r7, #4]
 1926 01e8 FFF7FEFF 		bl	VL53L0X_RdByte
 1927 01ec 0346     		mov	r3, r0
 1928 01ee 87F86F30 		strb	r3, [r7, #111]
 642:Drivers/VL53L0X/core/src/vl53l0x_api.c **** 		VL53L0X_REG_SYSTEM_SEQUENCE_CONFIG, &tempbyte);
 643:Drivers/VL53L0X/core/src/vl53l0x_api.c **** 		if (Status == VL53L0X_ERROR_NONE)
 1929              		.loc 1 643 6
 1930 01f2 97F96F30 		ldrsb	r3, [r7, #111]
 1931 01f6 002B     		cmp	r3, #0
 1932 01f8 03D1     		bne	.L93
 644:Drivers/VL53L0X/core/src/vl53l0x_api.c **** 			PALDevDataSet(Dev, SequenceConfig, tempbyte);
 1933              		.loc 1 644 4
 1934 01fa 7A7E     		ldrb	r2, [r7, #25]	@ zero_extendqisi2
 1935 01fc 7B68     		ldr	r3, [r7, #4]
 1936 01fe 83F83021 		strb	r2, [r3, #304]
ARM GAS  C:\Users\Morroway\AppData\Local\Temp\ccih4NWY.s 			page 48


 1937              	.L93:
 645:Drivers/VL53L0X/core/src/vl53l0x_api.c **** 
 646:Drivers/VL53L0X/core/src/vl53l0x_api.c **** 	}
 647:Drivers/VL53L0X/core/src/vl53l0x_api.c **** 
 648:Drivers/VL53L0X/core/src/vl53l0x_api.c **** 	/* Disable MSRC and TCC by default */
 649:Drivers/VL53L0X/core/src/vl53l0x_api.c **** 	if (Status == VL53L0X_ERROR_NONE)
 1938              		.loc 1 649 5
 1939 0202 97F96F30 		ldrsb	r3, [r7, #111]
 1940 0206 002B     		cmp	r3, #0
 1941 0208 07D1     		bne	.L94
 650:Drivers/VL53L0X/core/src/vl53l0x_api.c **** 		Status = VL53L0X_SetSequenceStepEnable(Dev,
 1942              		.loc 1 650 12
 1943 020a 0022     		movs	r2, #0
 1944 020c 0021     		movs	r1, #0
 1945 020e 7868     		ldr	r0, [r7, #4]
 1946 0210 FFF7FEFF 		bl	VL53L0X_SetSequenceStepEnable
 1947 0214 0346     		mov	r3, r0
 1948 0216 87F86F30 		strb	r3, [r7, #111]
 1949              	.L94:
 651:Drivers/VL53L0X/core/src/vl53l0x_api.c **** 					VL53L0X_SEQUENCESTEP_TCC, 0);
 652:Drivers/VL53L0X/core/src/vl53l0x_api.c **** 
 653:Drivers/VL53L0X/core/src/vl53l0x_api.c **** 
 654:Drivers/VL53L0X/core/src/vl53l0x_api.c **** 	if (Status == VL53L0X_ERROR_NONE)
 1950              		.loc 1 654 5
 1951 021a 97F96F30 		ldrsb	r3, [r7, #111]
 1952 021e 002B     		cmp	r3, #0
 1953 0220 07D1     		bne	.L95
 655:Drivers/VL53L0X/core/src/vl53l0x_api.c **** 		Status = VL53L0X_SetSequenceStepEnable(Dev,
 1954              		.loc 1 655 12
 1955 0222 0022     		movs	r2, #0
 1956 0224 0221     		movs	r1, #2
 1957 0226 7868     		ldr	r0, [r7, #4]
 1958 0228 FFF7FEFF 		bl	VL53L0X_SetSequenceStepEnable
 1959 022c 0346     		mov	r3, r0
 1960 022e 87F86F30 		strb	r3, [r7, #111]
 1961              	.L95:
 656:Drivers/VL53L0X/core/src/vl53l0x_api.c **** 		VL53L0X_SEQUENCESTEP_MSRC, 0);
 657:Drivers/VL53L0X/core/src/vl53l0x_api.c **** 
 658:Drivers/VL53L0X/core/src/vl53l0x_api.c **** 
 659:Drivers/VL53L0X/core/src/vl53l0x_api.c **** 	/* Set PAL State to standby */
 660:Drivers/VL53L0X/core/src/vl53l0x_api.c **** 	if (Status == VL53L0X_ERROR_NONE)
 1962              		.loc 1 660 5
 1963 0232 97F96F30 		ldrsb	r3, [r7, #111]
 1964 0236 002B     		cmp	r3, #0
 1965 0238 03D1     		bne	.L96
 661:Drivers/VL53L0X/core/src/vl53l0x_api.c **** 		PALDevDataSet(Dev, PalState, VL53L0X_STATE_IDLE);
 1966              		.loc 1 661 3
 1967 023a 7B68     		ldr	r3, [r7, #4]
 1968 023c 0322     		movs	r2, #3
 1969 023e 83F83221 		strb	r2, [r3, #306]
 1970              	.L96:
 662:Drivers/VL53L0X/core/src/vl53l0x_api.c **** 
 663:Drivers/VL53L0X/core/src/vl53l0x_api.c **** 
 664:Drivers/VL53L0X/core/src/vl53l0x_api.c **** 
 665:Drivers/VL53L0X/core/src/vl53l0x_api.c **** 	/* Store pre-range vcsel period */
 666:Drivers/VL53L0X/core/src/vl53l0x_api.c **** 	if (Status == VL53L0X_ERROR_NONE) {
 1971              		.loc 1 666 5
ARM GAS  C:\Users\Morroway\AppData\Local\Temp\ccih4NWY.s 			page 49


 1972 0242 97F96F30 		ldrsb	r3, [r7, #111]
 1973 0246 002B     		cmp	r3, #0
 1974 0248 09D1     		bne	.L97
 667:Drivers/VL53L0X/core/src/vl53l0x_api.c **** 		Status = VL53L0X_GetVcselPulsePeriod(
 1975              		.loc 1 667 12
 1976 024a 07F11303 		add	r3, r7, #19
 1977 024e 1A46     		mov	r2, r3
 1978 0250 0021     		movs	r1, #0
 1979 0252 7868     		ldr	r0, [r7, #4]
 1980 0254 FFF7FEFF 		bl	VL53L0X_GetVcselPulsePeriod
 1981 0258 0346     		mov	r3, r0
 1982 025a 87F86F30 		strb	r3, [r7, #111]
 1983              	.L97:
 668:Drivers/VL53L0X/core/src/vl53l0x_api.c **** 			Dev,
 669:Drivers/VL53L0X/core/src/vl53l0x_api.c **** 			VL53L0X_VCSEL_PERIOD_PRE_RANGE,
 670:Drivers/VL53L0X/core/src/vl53l0x_api.c **** 			&vcselPulsePeriodPCLK);
 671:Drivers/VL53L0X/core/src/vl53l0x_api.c **** 	}
 672:Drivers/VL53L0X/core/src/vl53l0x_api.c **** 
 673:Drivers/VL53L0X/core/src/vl53l0x_api.c **** 	if (Status == VL53L0X_ERROR_NONE) {
 1984              		.loc 1 673 5
 1985 025e 97F96F30 		ldrsb	r3, [r7, #111]
 1986 0262 002B     		cmp	r3, #0
 1987 0264 03D1     		bne	.L98
 674:Drivers/VL53L0X/core/src/vl53l0x_api.c **** 			VL53L0X_SETDEVICESPECIFICPARAMETER(
 1988              		.loc 1 674 4
 1989 0266 FA7C     		ldrb	r2, [r7, #19]	@ zero_extendqisi2
 1990 0268 7B68     		ldr	r3, [r7, #4]
 1991 026a 83F8E820 		strb	r2, [r3, #232]
 1992              	.L98:
 675:Drivers/VL53L0X/core/src/vl53l0x_api.c **** 				Dev,
 676:Drivers/VL53L0X/core/src/vl53l0x_api.c **** 				PreRangeVcselPulsePeriod,
 677:Drivers/VL53L0X/core/src/vl53l0x_api.c **** 				vcselPulsePeriodPCLK);
 678:Drivers/VL53L0X/core/src/vl53l0x_api.c **** 	}
 679:Drivers/VL53L0X/core/src/vl53l0x_api.c **** 
 680:Drivers/VL53L0X/core/src/vl53l0x_api.c **** 	/* Store final-range vcsel period */
 681:Drivers/VL53L0X/core/src/vl53l0x_api.c **** 	if (Status == VL53L0X_ERROR_NONE) {
 1993              		.loc 1 681 5
 1994 026e 97F96F30 		ldrsb	r3, [r7, #111]
 1995 0272 002B     		cmp	r3, #0
 1996 0274 09D1     		bne	.L99
 682:Drivers/VL53L0X/core/src/vl53l0x_api.c **** 		Status = VL53L0X_GetVcselPulsePeriod(
 1997              		.loc 1 682 12
 1998 0276 07F11303 		add	r3, r7, #19
 1999 027a 1A46     		mov	r2, r3
 2000 027c 0121     		movs	r1, #1
 2001 027e 7868     		ldr	r0, [r7, #4]
 2002 0280 FFF7FEFF 		bl	VL53L0X_GetVcselPulsePeriod
 2003 0284 0346     		mov	r3, r0
 2004 0286 87F86F30 		strb	r3, [r7, #111]
 2005              	.L99:
 683:Drivers/VL53L0X/core/src/vl53l0x_api.c **** 			Dev,
 684:Drivers/VL53L0X/core/src/vl53l0x_api.c **** 			VL53L0X_VCSEL_PERIOD_FINAL_RANGE,
 685:Drivers/VL53L0X/core/src/vl53l0x_api.c **** 			&vcselPulsePeriodPCLK);
 686:Drivers/VL53L0X/core/src/vl53l0x_api.c **** 	}
 687:Drivers/VL53L0X/core/src/vl53l0x_api.c **** 
 688:Drivers/VL53L0X/core/src/vl53l0x_api.c **** 	if (Status == VL53L0X_ERROR_NONE) {
 2006              		.loc 1 688 5
ARM GAS  C:\Users\Morroway\AppData\Local\Temp\ccih4NWY.s 			page 50


 2007 028a 97F96F30 		ldrsb	r3, [r7, #111]
 2008 028e 002B     		cmp	r3, #0
 2009 0290 03D1     		bne	.L100
 689:Drivers/VL53L0X/core/src/vl53l0x_api.c **** 			VL53L0X_SETDEVICESPECIFICPARAMETER(
 2010              		.loc 1 689 4
 2011 0292 FA7C     		ldrb	r2, [r7, #19]	@ zero_extendqisi2
 2012 0294 7B68     		ldr	r3, [r7, #4]
 2013 0296 83F8E020 		strb	r2, [r3, #224]
 2014              	.L100:
 690:Drivers/VL53L0X/core/src/vl53l0x_api.c **** 				Dev,
 691:Drivers/VL53L0X/core/src/vl53l0x_api.c **** 				FinalRangeVcselPulsePeriod,
 692:Drivers/VL53L0X/core/src/vl53l0x_api.c **** 				vcselPulsePeriodPCLK);
 693:Drivers/VL53L0X/core/src/vl53l0x_api.c **** 	}
 694:Drivers/VL53L0X/core/src/vl53l0x_api.c **** 
 695:Drivers/VL53L0X/core/src/vl53l0x_api.c **** 	/* Store pre-range timeout */
 696:Drivers/VL53L0X/core/src/vl53l0x_api.c **** 	if (Status == VL53L0X_ERROR_NONE) {
 2015              		.loc 1 696 5
 2016 029a 97F96F30 		ldrsb	r3, [r7, #111]
 2017 029e 002B     		cmp	r3, #0
 2018 02a0 09D1     		bne	.L101
 697:Drivers/VL53L0X/core/src/vl53l0x_api.c **** 		Status = get_sequence_step_timeout(
 2019              		.loc 1 697 12
 2020 02a2 07F10C03 		add	r3, r7, #12
 2021 02a6 1A46     		mov	r2, r3
 2022 02a8 0321     		movs	r1, #3
 2023 02aa 7868     		ldr	r0, [r7, #4]
 2024 02ac FFF7FEFF 		bl	get_sequence_step_timeout
 2025 02b0 0346     		mov	r3, r0
 2026 02b2 87F86F30 		strb	r3, [r7, #111]
 2027              	.L101:
 698:Drivers/VL53L0X/core/src/vl53l0x_api.c **** 			Dev,
 699:Drivers/VL53L0X/core/src/vl53l0x_api.c **** 			VL53L0X_SEQUENCESTEP_PRE_RANGE,
 700:Drivers/VL53L0X/core/src/vl53l0x_api.c **** 			&seqTimeoutMicroSecs);
 701:Drivers/VL53L0X/core/src/vl53l0x_api.c **** 	}
 702:Drivers/VL53L0X/core/src/vl53l0x_api.c **** 
 703:Drivers/VL53L0X/core/src/vl53l0x_api.c **** 	if (Status == VL53L0X_ERROR_NONE) {
 2028              		.loc 1 703 5
 2029 02b6 97F96F30 		ldrsb	r3, [r7, #111]
 2030 02ba 002B     		cmp	r3, #0
 2031 02bc 03D1     		bne	.L102
 704:Drivers/VL53L0X/core/src/vl53l0x_api.c **** 		VL53L0X_SETDEVICESPECIFICPARAMETER(
 2032              		.loc 1 704 3
 2033 02be FA68     		ldr	r2, [r7, #12]
 2034 02c0 7B68     		ldr	r3, [r7, #4]
 2035 02c2 C3F8E420 		str	r2, [r3, #228]
 2036              	.L102:
 705:Drivers/VL53L0X/core/src/vl53l0x_api.c **** 			Dev,
 706:Drivers/VL53L0X/core/src/vl53l0x_api.c **** 			PreRangeTimeoutMicroSecs,
 707:Drivers/VL53L0X/core/src/vl53l0x_api.c **** 			seqTimeoutMicroSecs);
 708:Drivers/VL53L0X/core/src/vl53l0x_api.c **** 	}
 709:Drivers/VL53L0X/core/src/vl53l0x_api.c **** 
 710:Drivers/VL53L0X/core/src/vl53l0x_api.c **** 	/* Store final-range timeout */
 711:Drivers/VL53L0X/core/src/vl53l0x_api.c **** 	if (Status == VL53L0X_ERROR_NONE) {
 2037              		.loc 1 711 5
 2038 02c6 97F96F30 		ldrsb	r3, [r7, #111]
 2039 02ca 002B     		cmp	r3, #0
 2040 02cc 09D1     		bne	.L103
ARM GAS  C:\Users\Morroway\AppData\Local\Temp\ccih4NWY.s 			page 51


 712:Drivers/VL53L0X/core/src/vl53l0x_api.c **** 		Status = get_sequence_step_timeout(
 2041              		.loc 1 712 12
 2042 02ce 07F10C03 		add	r3, r7, #12
 2043 02d2 1A46     		mov	r2, r3
 2044 02d4 0421     		movs	r1, #4
 2045 02d6 7868     		ldr	r0, [r7, #4]
 2046 02d8 FFF7FEFF 		bl	get_sequence_step_timeout
 2047 02dc 0346     		mov	r3, r0
 2048 02de 87F86F30 		strb	r3, [r7, #111]
 2049              	.L103:
 713:Drivers/VL53L0X/core/src/vl53l0x_api.c **** 			Dev,
 714:Drivers/VL53L0X/core/src/vl53l0x_api.c **** 			VL53L0X_SEQUENCESTEP_FINAL_RANGE,
 715:Drivers/VL53L0X/core/src/vl53l0x_api.c **** 			&seqTimeoutMicroSecs);
 716:Drivers/VL53L0X/core/src/vl53l0x_api.c **** 	}
 717:Drivers/VL53L0X/core/src/vl53l0x_api.c **** 
 718:Drivers/VL53L0X/core/src/vl53l0x_api.c **** 	if (Status == VL53L0X_ERROR_NONE) {
 2050              		.loc 1 718 5
 2051 02e2 97F96F30 		ldrsb	r3, [r7, #111]
 2052 02e6 002B     		cmp	r3, #0
 2053 02e8 03D1     		bne	.L104
 719:Drivers/VL53L0X/core/src/vl53l0x_api.c **** 		VL53L0X_SETDEVICESPECIFICPARAMETER(
 2054              		.loc 1 719 3
 2055 02ea FA68     		ldr	r2, [r7, #12]
 2056 02ec 7B68     		ldr	r3, [r7, #4]
 2057 02ee C3F8DC20 		str	r2, [r3, #220]
 2058              	.L104:
 720:Drivers/VL53L0X/core/src/vl53l0x_api.c **** 			Dev,
 721:Drivers/VL53L0X/core/src/vl53l0x_api.c **** 			FinalRangeTimeoutMicroSecs,
 722:Drivers/VL53L0X/core/src/vl53l0x_api.c **** 			seqTimeoutMicroSecs);
 723:Drivers/VL53L0X/core/src/vl53l0x_api.c **** 	}
 724:Drivers/VL53L0X/core/src/vl53l0x_api.c **** 
 725:Drivers/VL53L0X/core/src/vl53l0x_api.c **** 	LOG_FUNCTION_END(Status);
 726:Drivers/VL53L0X/core/src/vl53l0x_api.c **** 	return Status;
 2059              		.loc 1 726 9
 2060 02f2 97F96F30 		ldrsb	r3, [r7, #111]
 727:Drivers/VL53L0X/core/src/vl53l0x_api.c **** }
 2061              		.loc 1 727 1
 2062 02f6 1846     		mov	r0, r3
 2063 02f8 7037     		adds	r7, r7, #112
 2064              		.cfi_def_cfa_offset 16
 2065 02fa BD46     		mov	sp, r7
 2066              		.cfi_def_cfa_register 13
 2067              		@ sp needed
 2068 02fc B0BD     		pop	{r4, r5, r7, pc}
 2069              	.L107:
 2070 02fe 00BF     		.align	2
 2071              	.L106:
 2072 0300 00000000 		.word	DefaultTuningSettings
 2073              		.cfi_endproc
 2074              	.LFE347:
 2076              		.section	.text.VL53L0X_WaitDeviceBooted,"ax",%progbits
 2077              		.align	1
 2078              		.global	VL53L0X_WaitDeviceBooted
 2079              		.syntax unified
 2080              		.thumb
 2081              		.thumb_func
 2083              	VL53L0X_WaitDeviceBooted:
ARM GAS  C:\Users\Morroway\AppData\Local\Temp\ccih4NWY.s 			page 52


 2084              	.LFB348:
 728:Drivers/VL53L0X/core/src/vl53l0x_api.c **** 
 729:Drivers/VL53L0X/core/src/vl53l0x_api.c **** VL53L0X_Error VL53L0X_WaitDeviceBooted(VL53L0X_DEV Dev)
 730:Drivers/VL53L0X/core/src/vl53l0x_api.c **** {
 2085              		.loc 1 730 1
 2086              		.cfi_startproc
 2087              		@ args = 0, pretend = 0, frame = 16
 2088              		@ frame_needed = 1, uses_anonymous_args = 0
 2089              		@ link register save eliminated.
 2090 0000 80B4     		push	{r7}
 2091              		.cfi_def_cfa_offset 4
 2092              		.cfi_offset 7, -4
 2093 0002 85B0     		sub	sp, sp, #20
 2094              		.cfi_def_cfa_offset 24
 2095 0004 00AF     		add	r7, sp, #0
 2096              		.cfi_def_cfa_register 7
 2097 0006 7860     		str	r0, [r7, #4]
 731:Drivers/VL53L0X/core/src/vl53l0x_api.c **** 	VL53L0X_Error Status = VL53L0X_ERROR_NOT_IMPLEMENTED;
 2098              		.loc 1 731 16
 2099 0008 9D23     		movs	r3, #157
 2100 000a FB73     		strb	r3, [r7, #15]
 732:Drivers/VL53L0X/core/src/vl53l0x_api.c **** 	LOG_FUNCTION_START("");
 733:Drivers/VL53L0X/core/src/vl53l0x_api.c **** 
 734:Drivers/VL53L0X/core/src/vl53l0x_api.c **** 	/* not implemented on VL53L0X */
 735:Drivers/VL53L0X/core/src/vl53l0x_api.c **** 
 736:Drivers/VL53L0X/core/src/vl53l0x_api.c **** 	LOG_FUNCTION_END(Status);
 737:Drivers/VL53L0X/core/src/vl53l0x_api.c **** 	return Status;
 2101              		.loc 1 737 9
 2102 000c 97F90F30 		ldrsb	r3, [r7, #15]
 738:Drivers/VL53L0X/core/src/vl53l0x_api.c **** }
 2103              		.loc 1 738 1
 2104 0010 1846     		mov	r0, r3
 2105 0012 1437     		adds	r7, r7, #20
 2106              		.cfi_def_cfa_offset 4
 2107 0014 BD46     		mov	sp, r7
 2108              		.cfi_def_cfa_register 13
 2109              		@ sp needed
 2110 0016 5DF8047B 		ldr	r7, [sp], #4
 2111              		.cfi_restore 7
 2112              		.cfi_def_cfa_offset 0
 2113 001a 7047     		bx	lr
 2114              		.cfi_endproc
 2115              	.LFE348:
 2117              		.section	.text.VL53L0X_ResetDevice,"ax",%progbits
 2118              		.align	1
 2119              		.global	VL53L0X_ResetDevice
 2120              		.syntax unified
 2121              		.thumb
 2122              		.thumb_func
 2124              	VL53L0X_ResetDevice:
 2125              	.LFB349:
 739:Drivers/VL53L0X/core/src/vl53l0x_api.c **** 
 740:Drivers/VL53L0X/core/src/vl53l0x_api.c **** VL53L0X_Error VL53L0X_ResetDevice(VL53L0X_DEV Dev)
 741:Drivers/VL53L0X/core/src/vl53l0x_api.c **** {
 2126              		.loc 1 741 1
 2127              		.cfi_startproc
 2128              		@ args = 0, pretend = 0, frame = 16
ARM GAS  C:\Users\Morroway\AppData\Local\Temp\ccih4NWY.s 			page 53


 2129              		@ frame_needed = 1, uses_anonymous_args = 0
 2130 0000 80B5     		push	{r7, lr}
 2131              		.cfi_def_cfa_offset 8
 2132              		.cfi_offset 7, -8
 2133              		.cfi_offset 14, -4
 2134 0002 84B0     		sub	sp, sp, #16
 2135              		.cfi_def_cfa_offset 24
 2136 0004 00AF     		add	r7, sp, #0
 2137              		.cfi_def_cfa_register 7
 2138 0006 7860     		str	r0, [r7, #4]
 742:Drivers/VL53L0X/core/src/vl53l0x_api.c **** 	VL53L0X_Error Status = VL53L0X_ERROR_NONE;
 2139              		.loc 1 742 16
 2140 0008 0023     		movs	r3, #0
 2141 000a FB73     		strb	r3, [r7, #15]
 743:Drivers/VL53L0X/core/src/vl53l0x_api.c **** 	uint8_t Byte;
 744:Drivers/VL53L0X/core/src/vl53l0x_api.c **** 	LOG_FUNCTION_START("");
 745:Drivers/VL53L0X/core/src/vl53l0x_api.c **** 
 746:Drivers/VL53L0X/core/src/vl53l0x_api.c **** 	/* Set reset bit */
 747:Drivers/VL53L0X/core/src/vl53l0x_api.c **** 	Status = VL53L0X_WrByte(Dev, VL53L0X_REG_SOFT_RESET_GO2_SOFT_RESET_N,
 2142              		.loc 1 747 11
 2143 000c 0022     		movs	r2, #0
 2144 000e BF21     		movs	r1, #191
 2145 0010 7868     		ldr	r0, [r7, #4]
 2146 0012 FFF7FEFF 		bl	VL53L0X_WrByte
 2147 0016 0346     		mov	r3, r0
 2148 0018 FB73     		strb	r3, [r7, #15]
 748:Drivers/VL53L0X/core/src/vl53l0x_api.c **** 		0x00);
 749:Drivers/VL53L0X/core/src/vl53l0x_api.c **** 
 750:Drivers/VL53L0X/core/src/vl53l0x_api.c **** 	/* Wait for some time */
 751:Drivers/VL53L0X/core/src/vl53l0x_api.c **** 	if (Status == VL53L0X_ERROR_NONE) {
 2149              		.loc 1 751 5
 2150 001a 97F90F30 		ldrsb	r3, [r7, #15]
 2151 001e 002B     		cmp	r3, #0
 2152 0020 0BD1     		bne	.L111
 2153              	.L112:
 752:Drivers/VL53L0X/core/src/vl53l0x_api.c **** 		do {
 753:Drivers/VL53L0X/core/src/vl53l0x_api.c **** 			Status = VL53L0X_RdByte(Dev,
 2154              		.loc 1 753 13 discriminator 1
 2155 0022 07F10E03 		add	r3, r7, #14
 2156 0026 1A46     		mov	r2, r3
 2157 0028 C021     		movs	r1, #192
 2158 002a 7868     		ldr	r0, [r7, #4]
 2159 002c FFF7FEFF 		bl	VL53L0X_RdByte
 2160 0030 0346     		mov	r3, r0
 2161 0032 FB73     		strb	r3, [r7, #15]
 754:Drivers/VL53L0X/core/src/vl53l0x_api.c **** 			VL53L0X_REG_IDENTIFICATION_MODEL_ID, &Byte);
 755:Drivers/VL53L0X/core/src/vl53l0x_api.c **** 		} while (Byte != 0x00);
 2162              		.loc 1 755 17 discriminator 1
 2163 0034 BB7B     		ldrb	r3, [r7, #14]	@ zero_extendqisi2
 2164 0036 002B     		cmp	r3, #0
 2165 0038 F3D1     		bne	.L112
 2166              	.L111:
 756:Drivers/VL53L0X/core/src/vl53l0x_api.c **** 	}
 757:Drivers/VL53L0X/core/src/vl53l0x_api.c **** 
 758:Drivers/VL53L0X/core/src/vl53l0x_api.c **** 	VL53L0X_PollingDelay(Dev);
 2167              		.loc 1 758 2
 2168 003a 7868     		ldr	r0, [r7, #4]
ARM GAS  C:\Users\Morroway\AppData\Local\Temp\ccih4NWY.s 			page 54


 2169 003c FFF7FEFF 		bl	VL53L0X_PollingDelay
 759:Drivers/VL53L0X/core/src/vl53l0x_api.c **** 
 760:Drivers/VL53L0X/core/src/vl53l0x_api.c **** 	/* Release reset */
 761:Drivers/VL53L0X/core/src/vl53l0x_api.c **** 	Status = VL53L0X_WrByte(Dev, VL53L0X_REG_SOFT_RESET_GO2_SOFT_RESET_N,
 2170              		.loc 1 761 11
 2171 0040 0122     		movs	r2, #1
 2172 0042 BF21     		movs	r1, #191
 2173 0044 7868     		ldr	r0, [r7, #4]
 2174 0046 FFF7FEFF 		bl	VL53L0X_WrByte
 2175 004a 0346     		mov	r3, r0
 2176 004c FB73     		strb	r3, [r7, #15]
 762:Drivers/VL53L0X/core/src/vl53l0x_api.c **** 		0x01);
 763:Drivers/VL53L0X/core/src/vl53l0x_api.c **** 
 764:Drivers/VL53L0X/core/src/vl53l0x_api.c **** 	/* Wait until correct boot-up of the device */
 765:Drivers/VL53L0X/core/src/vl53l0x_api.c **** 	if (Status == VL53L0X_ERROR_NONE) {
 2177              		.loc 1 765 5
 2178 004e 97F90F30 		ldrsb	r3, [r7, #15]
 2179 0052 002B     		cmp	r3, #0
 2180 0054 0BD1     		bne	.L113
 2181              	.L114:
 766:Drivers/VL53L0X/core/src/vl53l0x_api.c **** 		do {
 767:Drivers/VL53L0X/core/src/vl53l0x_api.c **** 			Status = VL53L0X_RdByte(Dev,
 2182              		.loc 1 767 13 discriminator 1
 2183 0056 07F10E03 		add	r3, r7, #14
 2184 005a 1A46     		mov	r2, r3
 2185 005c C021     		movs	r1, #192
 2186 005e 7868     		ldr	r0, [r7, #4]
 2187 0060 FFF7FEFF 		bl	VL53L0X_RdByte
 2188 0064 0346     		mov	r3, r0
 2189 0066 FB73     		strb	r3, [r7, #15]
 768:Drivers/VL53L0X/core/src/vl53l0x_api.c **** 			VL53L0X_REG_IDENTIFICATION_MODEL_ID, &Byte);
 769:Drivers/VL53L0X/core/src/vl53l0x_api.c **** 		} while (Byte == 0x00);
 2190              		.loc 1 769 17 discriminator 1
 2191 0068 BB7B     		ldrb	r3, [r7, #14]	@ zero_extendqisi2
 2192 006a 002B     		cmp	r3, #0
 2193 006c F3D0     		beq	.L114
 2194              	.L113:
 770:Drivers/VL53L0X/core/src/vl53l0x_api.c **** 	}
 771:Drivers/VL53L0X/core/src/vl53l0x_api.c **** 
 772:Drivers/VL53L0X/core/src/vl53l0x_api.c **** 	VL53L0X_PollingDelay(Dev);
 2195              		.loc 1 772 2
 2196 006e 7868     		ldr	r0, [r7, #4]
 2197 0070 FFF7FEFF 		bl	VL53L0X_PollingDelay
 773:Drivers/VL53L0X/core/src/vl53l0x_api.c **** 
 774:Drivers/VL53L0X/core/src/vl53l0x_api.c **** 	/* Set PAL State to VL53L0X_STATE_POWERDOWN */
 775:Drivers/VL53L0X/core/src/vl53l0x_api.c **** 	if (Status == VL53L0X_ERROR_NONE)
 2198              		.loc 1 775 5
 2199 0074 97F90F30 		ldrsb	r3, [r7, #15]
 2200 0078 002B     		cmp	r3, #0
 2201 007a 03D1     		bne	.L115
 776:Drivers/VL53L0X/core/src/vl53l0x_api.c **** 		PALDevDataSet(Dev, PalState, VL53L0X_STATE_POWERDOWN);
 2202              		.loc 1 776 3
 2203 007c 7B68     		ldr	r3, [r7, #4]
 2204 007e 0022     		movs	r2, #0
 2205 0080 83F83221 		strb	r2, [r3, #306]
 2206              	.L115:
 777:Drivers/VL53L0X/core/src/vl53l0x_api.c **** 
ARM GAS  C:\Users\Morroway\AppData\Local\Temp\ccih4NWY.s 			page 55


 778:Drivers/VL53L0X/core/src/vl53l0x_api.c **** 
 779:Drivers/VL53L0X/core/src/vl53l0x_api.c **** 	LOG_FUNCTION_END(Status);
 780:Drivers/VL53L0X/core/src/vl53l0x_api.c **** 	return Status;
 2207              		.loc 1 780 9
 2208 0084 97F90F30 		ldrsb	r3, [r7, #15]
 781:Drivers/VL53L0X/core/src/vl53l0x_api.c **** }
 2209              		.loc 1 781 1
 2210 0088 1846     		mov	r0, r3
 2211 008a 1037     		adds	r7, r7, #16
 2212              		.cfi_def_cfa_offset 8
 2213 008c BD46     		mov	sp, r7
 2214              		.cfi_def_cfa_register 13
 2215              		@ sp needed
 2216 008e 80BD     		pop	{r7, pc}
 2217              		.cfi_endproc
 2218              	.LFE349:
 2220              		.section	.text.VL53L0X_SetDeviceParameters,"ax",%progbits
 2221              		.align	1
 2222              		.global	VL53L0X_SetDeviceParameters
 2223              		.syntax unified
 2224              		.thumb
 2225              		.thumb_func
 2227              	VL53L0X_SetDeviceParameters:
 2228              	.LFB350:
 782:Drivers/VL53L0X/core/src/vl53l0x_api.c **** /* End Group PAL Init Functions */
 783:Drivers/VL53L0X/core/src/vl53l0x_api.c **** 
 784:Drivers/VL53L0X/core/src/vl53l0x_api.c **** /* Group PAL Parameters Functions */
 785:Drivers/VL53L0X/core/src/vl53l0x_api.c **** VL53L0X_Error VL53L0X_SetDeviceParameters(VL53L0X_DEV Dev,
 786:Drivers/VL53L0X/core/src/vl53l0x_api.c **** 	const VL53L0X_DeviceParameters_t *pDeviceParameters)
 787:Drivers/VL53L0X/core/src/vl53l0x_api.c **** {
 2229              		.loc 1 787 1
 2230              		.cfi_startproc
 2231              		@ args = 0, pretend = 0, frame = 16
 2232              		@ frame_needed = 1, uses_anonymous_args = 0
 2233 0000 80B5     		push	{r7, lr}
 2234              		.cfi_def_cfa_offset 8
 2235              		.cfi_offset 7, -8
 2236              		.cfi_offset 14, -4
 2237 0002 84B0     		sub	sp, sp, #16
 2238              		.cfi_def_cfa_offset 24
 2239 0004 00AF     		add	r7, sp, #0
 2240              		.cfi_def_cfa_register 7
 2241 0006 7860     		str	r0, [r7, #4]
 2242 0008 3960     		str	r1, [r7]
 788:Drivers/VL53L0X/core/src/vl53l0x_api.c **** 	VL53L0X_Error Status = VL53L0X_ERROR_NONE;
 2243              		.loc 1 788 16
 2244 000a 0023     		movs	r3, #0
 2245 000c FB73     		strb	r3, [r7, #15]
 789:Drivers/VL53L0X/core/src/vl53l0x_api.c **** 	int i;
 790:Drivers/VL53L0X/core/src/vl53l0x_api.c **** 	LOG_FUNCTION_START("");
 791:Drivers/VL53L0X/core/src/vl53l0x_api.c **** 	Status = VL53L0X_SetDeviceMode(Dev, pDeviceParameters->DeviceMode);
 2246              		.loc 1 791 55
 2247 000e 3B68     		ldr	r3, [r7]
 2248 0010 1B78     		ldrb	r3, [r3]	@ zero_extendqisi2
 2249              		.loc 1 791 11
 2250 0012 1946     		mov	r1, r3
 2251 0014 7868     		ldr	r0, [r7, #4]
ARM GAS  C:\Users\Morroway\AppData\Local\Temp\ccih4NWY.s 			page 56


 2252 0016 FFF7FEFF 		bl	VL53L0X_SetDeviceMode
 2253 001a 0346     		mov	r3, r0
 2254 001c FB73     		strb	r3, [r7, #15]
 792:Drivers/VL53L0X/core/src/vl53l0x_api.c **** 
 793:Drivers/VL53L0X/core/src/vl53l0x_api.c **** 	if (Status == VL53L0X_ERROR_NONE)
 2255              		.loc 1 793 5
 2256 001e 97F90F30 		ldrsb	r3, [r7, #15]
 2257 0022 002B     		cmp	r3, #0
 2258 0024 07D1     		bne	.L118
 794:Drivers/VL53L0X/core/src/vl53l0x_api.c **** 		Status = VL53L0X_SetInterMeasurementPeriodMilliSeconds(Dev,
 795:Drivers/VL53L0X/core/src/vl53l0x_api.c **** 			pDeviceParameters->InterMeasurementPeriodMilliSeconds);
 2259              		.loc 1 795 21
 2260 0026 3B68     		ldr	r3, [r7]
 2261 0028 9B68     		ldr	r3, [r3, #8]
 794:Drivers/VL53L0X/core/src/vl53l0x_api.c **** 		Status = VL53L0X_SetInterMeasurementPeriodMilliSeconds(Dev,
 2262              		.loc 1 794 12
 2263 002a 1946     		mov	r1, r3
 2264 002c 7868     		ldr	r0, [r7, #4]
 2265 002e FFF7FEFF 		bl	VL53L0X_SetInterMeasurementPeriodMilliSeconds
 2266 0032 0346     		mov	r3, r0
 2267 0034 FB73     		strb	r3, [r7, #15]
 2268              	.L118:
 796:Drivers/VL53L0X/core/src/vl53l0x_api.c **** 
 797:Drivers/VL53L0X/core/src/vl53l0x_api.c **** 
 798:Drivers/VL53L0X/core/src/vl53l0x_api.c **** 	if (Status == VL53L0X_ERROR_NONE)
 2269              		.loc 1 798 5
 2270 0036 97F90F30 		ldrsb	r3, [r7, #15]
 2271 003a 002B     		cmp	r3, #0
 2272 003c 07D1     		bne	.L119
 799:Drivers/VL53L0X/core/src/vl53l0x_api.c **** 		Status = VL53L0X_SetXTalkCompensationRateMegaCps(Dev,
 800:Drivers/VL53L0X/core/src/vl53l0x_api.c **** 			pDeviceParameters->XTalkCompensationRateMegaCps);
 2273              		.loc 1 800 21
 2274 003e 3B68     		ldr	r3, [r7]
 2275 0040 1B69     		ldr	r3, [r3, #16]
 799:Drivers/VL53L0X/core/src/vl53l0x_api.c **** 		Status = VL53L0X_SetXTalkCompensationRateMegaCps(Dev,
 2276              		.loc 1 799 12
 2277 0042 1946     		mov	r1, r3
 2278 0044 7868     		ldr	r0, [r7, #4]
 2279 0046 FFF7FEFF 		bl	VL53L0X_SetXTalkCompensationRateMegaCps
 2280 004a 0346     		mov	r3, r0
 2281 004c FB73     		strb	r3, [r7, #15]
 2282              	.L119:
 801:Drivers/VL53L0X/core/src/vl53l0x_api.c **** 
 802:Drivers/VL53L0X/core/src/vl53l0x_api.c **** 
 803:Drivers/VL53L0X/core/src/vl53l0x_api.c **** 	if (Status == VL53L0X_ERROR_NONE)
 2283              		.loc 1 803 5
 2284 004e 97F90F30 		ldrsb	r3, [r7, #15]
 2285 0052 002B     		cmp	r3, #0
 2286 0054 07D1     		bne	.L120
 804:Drivers/VL53L0X/core/src/vl53l0x_api.c **** 		Status = VL53L0X_SetOffsetCalibrationDataMicroMeter(Dev,
 805:Drivers/VL53L0X/core/src/vl53l0x_api.c **** 			pDeviceParameters->RangeOffsetMicroMeters);
 2287              		.loc 1 805 21
 2288 0056 3B68     		ldr	r3, [r7]
 2289 0058 5B69     		ldr	r3, [r3, #20]
 804:Drivers/VL53L0X/core/src/vl53l0x_api.c **** 		Status = VL53L0X_SetOffsetCalibrationDataMicroMeter(Dev,
 2290              		.loc 1 804 12
 2291 005a 1946     		mov	r1, r3
ARM GAS  C:\Users\Morroway\AppData\Local\Temp\ccih4NWY.s 			page 57


 2292 005c 7868     		ldr	r0, [r7, #4]
 2293 005e FFF7FEFF 		bl	VL53L0X_SetOffsetCalibrationDataMicroMeter
 2294 0062 0346     		mov	r3, r0
 2295 0064 FB73     		strb	r3, [r7, #15]
 2296              	.L120:
 806:Drivers/VL53L0X/core/src/vl53l0x_api.c **** 
 807:Drivers/VL53L0X/core/src/vl53l0x_api.c **** 
 808:Drivers/VL53L0X/core/src/vl53l0x_api.c **** 	for (i = 0; i < VL53L0X_CHECKENABLE_NUMBER_OF_CHECKS; i++) {
 2297              		.loc 1 808 9
 2298 0066 0023     		movs	r3, #0
 2299 0068 BB60     		str	r3, [r7, #8]
 2300              		.loc 1 808 2
 2301 006a 2BE0     		b	.L121
 2302              	.L127:
 809:Drivers/VL53L0X/core/src/vl53l0x_api.c **** 		if (Status == VL53L0X_ERROR_NONE)
 2303              		.loc 1 809 6
 2304 006c 97F90F30 		ldrsb	r3, [r7, #15]
 2305 0070 002B     		cmp	r3, #0
 2306 0072 2BD1     		bne	.L131
 810:Drivers/VL53L0X/core/src/vl53l0x_api.c **** 			Status |= VL53L0X_SetLimitCheckEnable(Dev, i,
 2307              		.loc 1 810 14
 2308 0074 BB68     		ldr	r3, [r7, #8]
 2309 0076 99B2     		uxth	r1, r3
 811:Drivers/VL53L0X/core/src/vl53l0x_api.c **** 				pDeviceParameters->LimitChecksEnable[i]);
 2310              		.loc 1 811 41
 2311 0078 3A68     		ldr	r2, [r7]
 2312 007a BB68     		ldr	r3, [r7, #8]
 2313 007c 1344     		add	r3, r3, r2
 2314 007e 1833     		adds	r3, r3, #24
 2315 0080 1B78     		ldrb	r3, [r3]	@ zero_extendqisi2
 810:Drivers/VL53L0X/core/src/vl53l0x_api.c **** 			Status |= VL53L0X_SetLimitCheckEnable(Dev, i,
 2316              		.loc 1 810 14
 2317 0082 1A46     		mov	r2, r3
 2318 0084 7868     		ldr	r0, [r7, #4]
 2319 0086 FFF7FEFF 		bl	VL53L0X_SetLimitCheckEnable
 2320 008a 0346     		mov	r3, r0
 2321 008c 1A46     		mov	r2, r3
 810:Drivers/VL53L0X/core/src/vl53l0x_api.c **** 			Status |= VL53L0X_SetLimitCheckEnable(Dev, i,
 2322              		.loc 1 810 11
 2323 008e FB7B     		ldrb	r3, [r7, #15]
 2324 0090 1343     		orrs	r3, r3, r2
 2325 0092 FB73     		strb	r3, [r7, #15]
 812:Drivers/VL53L0X/core/src/vl53l0x_api.c **** 		else
 813:Drivers/VL53L0X/core/src/vl53l0x_api.c **** 			break;
 814:Drivers/VL53L0X/core/src/vl53l0x_api.c **** 
 815:Drivers/VL53L0X/core/src/vl53l0x_api.c **** 		if (Status == VL53L0X_ERROR_NONE)
 2326              		.loc 1 815 6
 2327 0094 97F90F30 		ldrsb	r3, [r7, #15]
 2328 0098 002B     		cmp	r3, #0
 2329 009a 19D1     		bne	.L132
 816:Drivers/VL53L0X/core/src/vl53l0x_api.c **** 			Status |= VL53L0X_SetLimitCheckValue(Dev, i,
 2330              		.loc 1 816 14
 2331 009c BB68     		ldr	r3, [r7, #8]
 2332 009e 99B2     		uxth	r1, r3
 817:Drivers/VL53L0X/core/src/vl53l0x_api.c **** 				pDeviceParameters->LimitChecksValue[i]);
 2333              		.loc 1 817 40
 2334 00a0 3A68     		ldr	r2, [r7]
ARM GAS  C:\Users\Morroway\AppData\Local\Temp\ccih4NWY.s 			page 58


 2335 00a2 BB68     		ldr	r3, [r7, #8]
 2336 00a4 0833     		adds	r3, r3, #8
 2337 00a6 9B00     		lsls	r3, r3, #2
 2338 00a8 1344     		add	r3, r3, r2
 2339 00aa 5B68     		ldr	r3, [r3, #4]
 816:Drivers/VL53L0X/core/src/vl53l0x_api.c **** 			Status |= VL53L0X_SetLimitCheckValue(Dev, i,
 2340              		.loc 1 816 14
 2341 00ac 1A46     		mov	r2, r3
 2342 00ae 7868     		ldr	r0, [r7, #4]
 2343 00b0 FFF7FEFF 		bl	VL53L0X_SetLimitCheckValue
 2344 00b4 0346     		mov	r3, r0
 2345 00b6 1A46     		mov	r2, r3
 816:Drivers/VL53L0X/core/src/vl53l0x_api.c **** 			Status |= VL53L0X_SetLimitCheckValue(Dev, i,
 2346              		.loc 1 816 11
 2347 00b8 FB7B     		ldrb	r3, [r7, #15]
 2348 00ba 1343     		orrs	r3, r3, r2
 2349 00bc FB73     		strb	r3, [r7, #15]
 808:Drivers/VL53L0X/core/src/vl53l0x_api.c **** 		if (Status == VL53L0X_ERROR_NONE)
 2350              		.loc 1 808 57
 2351 00be BB68     		ldr	r3, [r7, #8]
 2352 00c0 0133     		adds	r3, r3, #1
 2353 00c2 BB60     		str	r3, [r7, #8]
 2354              	.L121:
 808:Drivers/VL53L0X/core/src/vl53l0x_api.c **** 		if (Status == VL53L0X_ERROR_NONE)
 2355              		.loc 1 808 16 discriminator 1
 2356 00c4 BB68     		ldr	r3, [r7, #8]
 2357 00c6 052B     		cmp	r3, #5
 2358 00c8 D0DD     		ble	.L127
 2359 00ca 02E0     		b	.L124
 2360              	.L131:
 813:Drivers/VL53L0X/core/src/vl53l0x_api.c **** 
 2361              		.loc 1 813 4
 2362 00cc 00BF     		nop
 2363 00ce 00E0     		b	.L124
 2364              	.L132:
 818:Drivers/VL53L0X/core/src/vl53l0x_api.c **** 		else
 819:Drivers/VL53L0X/core/src/vl53l0x_api.c **** 			break;
 2365              		.loc 1 819 4
 2366 00d0 00BF     		nop
 2367              	.L124:
 820:Drivers/VL53L0X/core/src/vl53l0x_api.c **** 
 821:Drivers/VL53L0X/core/src/vl53l0x_api.c **** 	}
 822:Drivers/VL53L0X/core/src/vl53l0x_api.c **** 
 823:Drivers/VL53L0X/core/src/vl53l0x_api.c **** 	if (Status == VL53L0X_ERROR_NONE)
 2368              		.loc 1 823 5
 2369 00d2 97F90F30 		ldrsb	r3, [r7, #15]
 2370 00d6 002B     		cmp	r3, #0
 2371 00d8 08D1     		bne	.L128
 824:Drivers/VL53L0X/core/src/vl53l0x_api.c **** 		Status = VL53L0X_SetWrapAroundCheckEnable(Dev,
 825:Drivers/VL53L0X/core/src/vl53l0x_api.c **** 			pDeviceParameters->WrapAroundCheckEnable);
 2372              		.loc 1 825 21
 2373 00da 3B68     		ldr	r3, [r7]
 2374 00dc 93F83C30 		ldrb	r3, [r3, #60]	@ zero_extendqisi2
 824:Drivers/VL53L0X/core/src/vl53l0x_api.c **** 		Status = VL53L0X_SetWrapAroundCheckEnable(Dev,
 2375              		.loc 1 824 12
 2376 00e0 1946     		mov	r1, r3
 2377 00e2 7868     		ldr	r0, [r7, #4]
ARM GAS  C:\Users\Morroway\AppData\Local\Temp\ccih4NWY.s 			page 59


 2378 00e4 FFF7FEFF 		bl	VL53L0X_SetWrapAroundCheckEnable
 2379 00e8 0346     		mov	r3, r0
 2380 00ea FB73     		strb	r3, [r7, #15]
 2381              	.L128:
 826:Drivers/VL53L0X/core/src/vl53l0x_api.c **** 
 827:Drivers/VL53L0X/core/src/vl53l0x_api.c **** 	if (Status == VL53L0X_ERROR_NONE)
 2382              		.loc 1 827 5
 2383 00ec 97F90F30 		ldrsb	r3, [r7, #15]
 2384 00f0 002B     		cmp	r3, #0
 2385 00f2 07D1     		bne	.L129
 828:Drivers/VL53L0X/core/src/vl53l0x_api.c **** 		Status = VL53L0X_SetMeasurementTimingBudgetMicroSeconds(Dev,
 829:Drivers/VL53L0X/core/src/vl53l0x_api.c **** 			pDeviceParameters->MeasurementTimingBudgetMicroSeconds);
 2386              		.loc 1 829 21
 2387 00f4 3B68     		ldr	r3, [r7]
 2388 00f6 5B68     		ldr	r3, [r3, #4]
 828:Drivers/VL53L0X/core/src/vl53l0x_api.c **** 		Status = VL53L0X_SetMeasurementTimingBudgetMicroSeconds(Dev,
 2389              		.loc 1 828 12
 2390 00f8 1946     		mov	r1, r3
 2391 00fa 7868     		ldr	r0, [r7, #4]
 2392 00fc FFF7FEFF 		bl	VL53L0X_SetMeasurementTimingBudgetMicroSeconds
 2393 0100 0346     		mov	r3, r0
 2394 0102 FB73     		strb	r3, [r7, #15]
 2395              	.L129:
 830:Drivers/VL53L0X/core/src/vl53l0x_api.c **** 
 831:Drivers/VL53L0X/core/src/vl53l0x_api.c **** 
 832:Drivers/VL53L0X/core/src/vl53l0x_api.c **** 	LOG_FUNCTION_END(Status);
 833:Drivers/VL53L0X/core/src/vl53l0x_api.c **** 	return Status;
 2396              		.loc 1 833 9
 2397 0104 97F90F30 		ldrsb	r3, [r7, #15]
 834:Drivers/VL53L0X/core/src/vl53l0x_api.c **** }
 2398              		.loc 1 834 1
 2399 0108 1846     		mov	r0, r3
 2400 010a 1037     		adds	r7, r7, #16
 2401              		.cfi_def_cfa_offset 8
 2402 010c BD46     		mov	sp, r7
 2403              		.cfi_def_cfa_register 13
 2404              		@ sp needed
 2405 010e 80BD     		pop	{r7, pc}
 2406              		.cfi_endproc
 2407              	.LFE350:
 2409              		.section	.text.VL53L0X_GetDeviceParameters,"ax",%progbits
 2410              		.align	1
 2411              		.global	VL53L0X_GetDeviceParameters
 2412              		.syntax unified
 2413              		.thumb
 2414              		.thumb_func
 2416              	VL53L0X_GetDeviceParameters:
 2417              	.LFB351:
 835:Drivers/VL53L0X/core/src/vl53l0x_api.c **** 
 836:Drivers/VL53L0X/core/src/vl53l0x_api.c **** VL53L0X_Error VL53L0X_GetDeviceParameters(VL53L0X_DEV Dev,
 837:Drivers/VL53L0X/core/src/vl53l0x_api.c **** 	VL53L0X_DeviceParameters_t *pDeviceParameters)
 838:Drivers/VL53L0X/core/src/vl53l0x_api.c **** {
 2418              		.loc 1 838 1
 2419              		.cfi_startproc
 2420              		@ args = 0, pretend = 0, frame = 16
 2421              		@ frame_needed = 1, uses_anonymous_args = 0
 2422 0000 80B5     		push	{r7, lr}
ARM GAS  C:\Users\Morroway\AppData\Local\Temp\ccih4NWY.s 			page 60


 2423              		.cfi_def_cfa_offset 8
 2424              		.cfi_offset 7, -8
 2425              		.cfi_offset 14, -4
 2426 0002 84B0     		sub	sp, sp, #16
 2427              		.cfi_def_cfa_offset 24
 2428 0004 00AF     		add	r7, sp, #0
 2429              		.cfi_def_cfa_register 7
 2430 0006 7860     		str	r0, [r7, #4]
 2431 0008 3960     		str	r1, [r7]
 839:Drivers/VL53L0X/core/src/vl53l0x_api.c **** 	VL53L0X_Error Status = VL53L0X_ERROR_NONE;
 2432              		.loc 1 839 16
 2433 000a 0023     		movs	r3, #0
 2434 000c FB73     		strb	r3, [r7, #15]
 840:Drivers/VL53L0X/core/src/vl53l0x_api.c **** 	int i;
 841:Drivers/VL53L0X/core/src/vl53l0x_api.c **** 
 842:Drivers/VL53L0X/core/src/vl53l0x_api.c **** 	LOG_FUNCTION_START("");
 843:Drivers/VL53L0X/core/src/vl53l0x_api.c **** 
 844:Drivers/VL53L0X/core/src/vl53l0x_api.c **** 	Status = VL53L0X_GetDeviceMode(Dev, &(pDeviceParameters->DeviceMode));
 2435              		.loc 1 844 11
 2436 000e 3B68     		ldr	r3, [r7]
 2437 0010 1946     		mov	r1, r3
 2438 0012 7868     		ldr	r0, [r7, #4]
 2439 0014 FFF7FEFF 		bl	VL53L0X_GetDeviceMode
 2440 0018 0346     		mov	r3, r0
 2441 001a FB73     		strb	r3, [r7, #15]
 845:Drivers/VL53L0X/core/src/vl53l0x_api.c **** 
 846:Drivers/VL53L0X/core/src/vl53l0x_api.c **** 	if (Status == VL53L0X_ERROR_NONE)
 2442              		.loc 1 846 5
 2443 001c 97F90F30 		ldrsb	r3, [r7, #15]
 2444 0020 002B     		cmp	r3, #0
 2445 0022 07D1     		bne	.L134
 847:Drivers/VL53L0X/core/src/vl53l0x_api.c **** 		Status = VL53L0X_GetInterMeasurementPeriodMilliSeconds(Dev,
 2446              		.loc 1 847 12
 2447 0024 3B68     		ldr	r3, [r7]
 2448 0026 0833     		adds	r3, r3, #8
 2449 0028 1946     		mov	r1, r3
 2450 002a 7868     		ldr	r0, [r7, #4]
 2451 002c FFF7FEFF 		bl	VL53L0X_GetInterMeasurementPeriodMilliSeconds
 2452 0030 0346     		mov	r3, r0
 2453 0032 FB73     		strb	r3, [r7, #15]
 2454              	.L134:
 848:Drivers/VL53L0X/core/src/vl53l0x_api.c **** 		&(pDeviceParameters->InterMeasurementPeriodMilliSeconds));
 849:Drivers/VL53L0X/core/src/vl53l0x_api.c **** 
 850:Drivers/VL53L0X/core/src/vl53l0x_api.c **** 
 851:Drivers/VL53L0X/core/src/vl53l0x_api.c **** 	if (Status == VL53L0X_ERROR_NONE)
 2455              		.loc 1 851 5
 2456 0034 97F90F30 		ldrsb	r3, [r7, #15]
 2457 0038 002B     		cmp	r3, #0
 2458 003a 02D1     		bne	.L135
 852:Drivers/VL53L0X/core/src/vl53l0x_api.c **** 		pDeviceParameters->XTalkCompensationEnable = 0;
 2459              		.loc 1 852 46
 2460 003c 3B68     		ldr	r3, [r7]
 2461 003e 0022     		movs	r2, #0
 2462 0040 1A73     		strb	r2, [r3, #12]
 2463              	.L135:
 853:Drivers/VL53L0X/core/src/vl53l0x_api.c **** 
 854:Drivers/VL53L0X/core/src/vl53l0x_api.c **** 	if (Status == VL53L0X_ERROR_NONE)
ARM GAS  C:\Users\Morroway\AppData\Local\Temp\ccih4NWY.s 			page 61


 2464              		.loc 1 854 5
 2465 0042 97F90F30 		ldrsb	r3, [r7, #15]
 2466 0046 002B     		cmp	r3, #0
 2467 0048 07D1     		bne	.L136
 855:Drivers/VL53L0X/core/src/vl53l0x_api.c **** 		Status = VL53L0X_GetXTalkCompensationRateMegaCps(Dev,
 2468              		.loc 1 855 12
 2469 004a 3B68     		ldr	r3, [r7]
 2470 004c 1033     		adds	r3, r3, #16
 2471 004e 1946     		mov	r1, r3
 2472 0050 7868     		ldr	r0, [r7, #4]
 2473 0052 FFF7FEFF 		bl	VL53L0X_GetXTalkCompensationRateMegaCps
 2474 0056 0346     		mov	r3, r0
 2475 0058 FB73     		strb	r3, [r7, #15]
 2476              	.L136:
 856:Drivers/VL53L0X/core/src/vl53l0x_api.c **** 			&(pDeviceParameters->XTalkCompensationRateMegaCps));
 857:Drivers/VL53L0X/core/src/vl53l0x_api.c **** 
 858:Drivers/VL53L0X/core/src/vl53l0x_api.c **** 
 859:Drivers/VL53L0X/core/src/vl53l0x_api.c **** 	if (Status == VL53L0X_ERROR_NONE)
 2477              		.loc 1 859 5
 2478 005a 97F90F30 		ldrsb	r3, [r7, #15]
 2479 005e 002B     		cmp	r3, #0
 2480 0060 07D1     		bne	.L137
 860:Drivers/VL53L0X/core/src/vl53l0x_api.c **** 		Status = VL53L0X_GetOffsetCalibrationDataMicroMeter(Dev,
 2481              		.loc 1 860 12
 2482 0062 3B68     		ldr	r3, [r7]
 2483 0064 1433     		adds	r3, r3, #20
 2484 0066 1946     		mov	r1, r3
 2485 0068 7868     		ldr	r0, [r7, #4]
 2486 006a FFF7FEFF 		bl	VL53L0X_GetOffsetCalibrationDataMicroMeter
 2487 006e 0346     		mov	r3, r0
 2488 0070 FB73     		strb	r3, [r7, #15]
 2489              	.L137:
 861:Drivers/VL53L0X/core/src/vl53l0x_api.c **** 			&(pDeviceParameters->RangeOffsetMicroMeters));
 862:Drivers/VL53L0X/core/src/vl53l0x_api.c **** 
 863:Drivers/VL53L0X/core/src/vl53l0x_api.c **** 
 864:Drivers/VL53L0X/core/src/vl53l0x_api.c **** 	if (Status == VL53L0X_ERROR_NONE) {
 2490              		.loc 1 864 5
 2491 0072 97F90F30 		ldrsb	r3, [r7, #15]
 2492 0076 002B     		cmp	r3, #0
 2493 0078 34D1     		bne	.L138
 865:Drivers/VL53L0X/core/src/vl53l0x_api.c **** 		for (i = 0; i < VL53L0X_CHECKENABLE_NUMBER_OF_CHECKS; i++) {
 2494              		.loc 1 865 10
 2495 007a 0023     		movs	r3, #0
 2496 007c BB60     		str	r3, [r7, #8]
 2497              		.loc 1 865 3
 2498 007e 2AE0     		b	.L139
 2499              	.L144:
 866:Drivers/VL53L0X/core/src/vl53l0x_api.c **** 			/* get first the values, then the enables.
 867:Drivers/VL53L0X/core/src/vl53l0x_api.c **** 			 * VL53L0X_GetLimitCheckValue will modify the enable
 868:Drivers/VL53L0X/core/src/vl53l0x_api.c **** 			 * flags
 869:Drivers/VL53L0X/core/src/vl53l0x_api.c **** 			 */
 870:Drivers/VL53L0X/core/src/vl53l0x_api.c **** 			if (Status == VL53L0X_ERROR_NONE) {
 2500              		.loc 1 870 7
 2501 0080 97F90F30 		ldrsb	r3, [r7, #15]
 2502 0084 002B     		cmp	r3, #0
 2503 0086 2AD1     		bne	.L148
 871:Drivers/VL53L0X/core/src/vl53l0x_api.c **** 				Status |= VL53L0X_GetLimitCheckValue(Dev, i,
ARM GAS  C:\Users\Morroway\AppData\Local\Temp\ccih4NWY.s 			page 62


 2504              		.loc 1 871 15
 2505 0088 BB68     		ldr	r3, [r7, #8]
 2506 008a 99B2     		uxth	r1, r3
 2507 008c BB68     		ldr	r3, [r7, #8]
 2508 008e 0833     		adds	r3, r3, #8
 2509 0090 9B00     		lsls	r3, r3, #2
 2510 0092 3A68     		ldr	r2, [r7]
 2511 0094 1344     		add	r3, r3, r2
 2512 0096 0433     		adds	r3, r3, #4
 2513 0098 1A46     		mov	r2, r3
 2514 009a 7868     		ldr	r0, [r7, #4]
 2515 009c FFF7FEFF 		bl	VL53L0X_GetLimitCheckValue
 2516 00a0 0346     		mov	r3, r0
 2517 00a2 1A46     		mov	r2, r3
 2518              		.loc 1 871 12
 2519 00a4 FB7B     		ldrb	r3, [r7, #15]
 2520 00a6 1343     		orrs	r3, r3, r2
 2521 00a8 FB73     		strb	r3, [r7, #15]
 872:Drivers/VL53L0X/core/src/vl53l0x_api.c **** 				&(pDeviceParameters->LimitChecksValue[i]));
 873:Drivers/VL53L0X/core/src/vl53l0x_api.c **** 			} else {
 874:Drivers/VL53L0X/core/src/vl53l0x_api.c **** 				break;
 875:Drivers/VL53L0X/core/src/vl53l0x_api.c **** 			}
 876:Drivers/VL53L0X/core/src/vl53l0x_api.c **** 			if (Status == VL53L0X_ERROR_NONE) {
 2522              		.loc 1 876 7
 2523 00aa 97F90F30 		ldrsb	r3, [r7, #15]
 2524 00ae 002B     		cmp	r3, #0
 2525 00b0 17D1     		bne	.L149
 877:Drivers/VL53L0X/core/src/vl53l0x_api.c **** 				Status |= VL53L0X_GetLimitCheckEnable(Dev, i,
 2526              		.loc 1 877 15
 2527 00b2 BB68     		ldr	r3, [r7, #8]
 2528 00b4 99B2     		uxth	r1, r3
 2529 00b6 BB68     		ldr	r3, [r7, #8]
 2530 00b8 1833     		adds	r3, r3, #24
 2531 00ba 3A68     		ldr	r2, [r7]
 2532 00bc 1344     		add	r3, r3, r2
 2533 00be 1A46     		mov	r2, r3
 2534 00c0 7868     		ldr	r0, [r7, #4]
 2535 00c2 FFF7FEFF 		bl	VL53L0X_GetLimitCheckEnable
 2536 00c6 0346     		mov	r3, r0
 2537 00c8 1A46     		mov	r2, r3
 2538              		.loc 1 877 12
 2539 00ca FB7B     		ldrb	r3, [r7, #15]
 2540 00cc 1343     		orrs	r3, r3, r2
 2541 00ce FB73     		strb	r3, [r7, #15]
 865:Drivers/VL53L0X/core/src/vl53l0x_api.c **** 			/* get first the values, then the enables.
 2542              		.loc 1 865 58
 2543 00d0 BB68     		ldr	r3, [r7, #8]
 2544 00d2 0133     		adds	r3, r3, #1
 2545 00d4 BB60     		str	r3, [r7, #8]
 2546              	.L139:
 865:Drivers/VL53L0X/core/src/vl53l0x_api.c **** 			/* get first the values, then the enables.
 2547              		.loc 1 865 17 discriminator 1
 2548 00d6 BB68     		ldr	r3, [r7, #8]
 2549 00d8 052B     		cmp	r3, #5
 2550 00da D1DD     		ble	.L144
 2551 00dc 02E0     		b	.L138
 2552              	.L148:
ARM GAS  C:\Users\Morroway\AppData\Local\Temp\ccih4NWY.s 			page 63


 874:Drivers/VL53L0X/core/src/vl53l0x_api.c **** 			}
 2553              		.loc 1 874 5
 2554 00de 00BF     		nop
 2555 00e0 00E0     		b	.L138
 2556              	.L149:
 878:Drivers/VL53L0X/core/src/vl53l0x_api.c **** 				&(pDeviceParameters->LimitChecksEnable[i]));
 879:Drivers/VL53L0X/core/src/vl53l0x_api.c **** 			} else {
 880:Drivers/VL53L0X/core/src/vl53l0x_api.c **** 				break;
 2557              		.loc 1 880 5
 2558 00e2 00BF     		nop
 2559              	.L138:
 881:Drivers/VL53L0X/core/src/vl53l0x_api.c **** 			}
 882:Drivers/VL53L0X/core/src/vl53l0x_api.c **** 		}
 883:Drivers/VL53L0X/core/src/vl53l0x_api.c **** 	}
 884:Drivers/VL53L0X/core/src/vl53l0x_api.c **** 
 885:Drivers/VL53L0X/core/src/vl53l0x_api.c **** 	if (Status == VL53L0X_ERROR_NONE) {
 2560              		.loc 1 885 5
 2561 00e4 97F90F30 		ldrsb	r3, [r7, #15]
 2562 00e8 002B     		cmp	r3, #0
 2563 00ea 07D1     		bne	.L145
 886:Drivers/VL53L0X/core/src/vl53l0x_api.c **** 		Status = VL53L0X_GetWrapAroundCheckEnable(Dev,
 2564              		.loc 1 886 12
 2565 00ec 3B68     		ldr	r3, [r7]
 2566 00ee 3C33     		adds	r3, r3, #60
 2567 00f0 1946     		mov	r1, r3
 2568 00f2 7868     		ldr	r0, [r7, #4]
 2569 00f4 FFF7FEFF 		bl	VL53L0X_GetWrapAroundCheckEnable
 2570 00f8 0346     		mov	r3, r0
 2571 00fa FB73     		strb	r3, [r7, #15]
 2572              	.L145:
 887:Drivers/VL53L0X/core/src/vl53l0x_api.c **** 			&(pDeviceParameters->WrapAroundCheckEnable));
 888:Drivers/VL53L0X/core/src/vl53l0x_api.c **** 	}
 889:Drivers/VL53L0X/core/src/vl53l0x_api.c **** 
 890:Drivers/VL53L0X/core/src/vl53l0x_api.c **** 	/* Need to be done at the end as it uses VCSELPulsePeriod */
 891:Drivers/VL53L0X/core/src/vl53l0x_api.c **** 	if (Status == VL53L0X_ERROR_NONE) {
 2573              		.loc 1 891 5
 2574 00fc 97F90F30 		ldrsb	r3, [r7, #15]
 2575 0100 002B     		cmp	r3, #0
 2576 0102 07D1     		bne	.L146
 892:Drivers/VL53L0X/core/src/vl53l0x_api.c **** 		Status = VL53L0X_GetMeasurementTimingBudgetMicroSeconds(Dev,
 2577              		.loc 1 892 12
 2578 0104 3B68     		ldr	r3, [r7]
 2579 0106 0433     		adds	r3, r3, #4
 2580 0108 1946     		mov	r1, r3
 2581 010a 7868     		ldr	r0, [r7, #4]
 2582 010c FFF7FEFF 		bl	VL53L0X_GetMeasurementTimingBudgetMicroSeconds
 2583 0110 0346     		mov	r3, r0
 2584 0112 FB73     		strb	r3, [r7, #15]
 2585              	.L146:
 893:Drivers/VL53L0X/core/src/vl53l0x_api.c **** 		&(pDeviceParameters->MeasurementTimingBudgetMicroSeconds));
 894:Drivers/VL53L0X/core/src/vl53l0x_api.c **** 	}
 895:Drivers/VL53L0X/core/src/vl53l0x_api.c **** 
 896:Drivers/VL53L0X/core/src/vl53l0x_api.c **** 	LOG_FUNCTION_END(Status);
 897:Drivers/VL53L0X/core/src/vl53l0x_api.c **** 	return Status;
 2586              		.loc 1 897 9
 2587 0114 97F90F30 		ldrsb	r3, [r7, #15]
 898:Drivers/VL53L0X/core/src/vl53l0x_api.c **** }
ARM GAS  C:\Users\Morroway\AppData\Local\Temp\ccih4NWY.s 			page 64


 2588              		.loc 1 898 1
 2589 0118 1846     		mov	r0, r3
 2590 011a 1037     		adds	r7, r7, #16
 2591              		.cfi_def_cfa_offset 8
 2592 011c BD46     		mov	sp, r7
 2593              		.cfi_def_cfa_register 13
 2594              		@ sp needed
 2595 011e 80BD     		pop	{r7, pc}
 2596              		.cfi_endproc
 2597              	.LFE351:
 2599              		.section	.text.VL53L0X_SetDeviceMode,"ax",%progbits
 2600              		.align	1
 2601              		.global	VL53L0X_SetDeviceMode
 2602              		.syntax unified
 2603              		.thumb
 2604              		.thumb_func
 2606              	VL53L0X_SetDeviceMode:
 2607              	.LFB352:
 899:Drivers/VL53L0X/core/src/vl53l0x_api.c **** 
 900:Drivers/VL53L0X/core/src/vl53l0x_api.c **** VL53L0X_Error VL53L0X_SetDeviceMode(VL53L0X_DEV Dev, VL53L0X_DeviceModes DeviceMode)
 901:Drivers/VL53L0X/core/src/vl53l0x_api.c **** {
 2608              		.loc 1 901 1
 2609              		.cfi_startproc
 2610              		@ args = 0, pretend = 0, frame = 16
 2611              		@ frame_needed = 1, uses_anonymous_args = 0
 2612              		@ link register save eliminated.
 2613 0000 80B4     		push	{r7}
 2614              		.cfi_def_cfa_offset 4
 2615              		.cfi_offset 7, -4
 2616 0002 85B0     		sub	sp, sp, #20
 2617              		.cfi_def_cfa_offset 24
 2618 0004 00AF     		add	r7, sp, #0
 2619              		.cfi_def_cfa_register 7
 2620 0006 7860     		str	r0, [r7, #4]
 2621 0008 0B46     		mov	r3, r1
 2622 000a FB70     		strb	r3, [r7, #3]
 902:Drivers/VL53L0X/core/src/vl53l0x_api.c **** 	VL53L0X_Error Status = VL53L0X_ERROR_NONE;
 2623              		.loc 1 902 16
 2624 000c 0023     		movs	r3, #0
 2625 000e FB73     		strb	r3, [r7, #15]
 903:Drivers/VL53L0X/core/src/vl53l0x_api.c **** 
 904:Drivers/VL53L0X/core/src/vl53l0x_api.c **** 	LOG_FUNCTION_START("%d", (int)DeviceMode);
 905:Drivers/VL53L0X/core/src/vl53l0x_api.c **** 
 906:Drivers/VL53L0X/core/src/vl53l0x_api.c **** 	switch (DeviceMode) {
 2626              		.loc 1 906 2
 2627 0010 FB78     		ldrb	r3, [r7, #3]	@ zero_extendqisi2
 2628 0012 152B     		cmp	r3, #21
 2629 0014 8CBF     		ite	hi
 2630 0016 0122     		movhi	r2, #1
 2631 0018 0022     		movls	r2, #0
 2632 001a D2B2     		uxtb	r2, r2
 2633 001c 002A     		cmp	r2, #0
 2634 001e 0FD1     		bne	.L151
 2635 0020 0C4A     		ldr	r2, .L154
 2636 0022 22FA03F3 		lsr	r3, r2, r3
 2637 0026 03F00103 		and	r3, r3, #1
 2638 002a 002B     		cmp	r3, #0
ARM GAS  C:\Users\Morroway\AppData\Local\Temp\ccih4NWY.s 			page 65


 2639 002c 14BF     		ite	ne
 2640 002e 0123     		movne	r3, #1
 2641 0030 0023     		moveq	r3, #0
 2642 0032 DBB2     		uxtb	r3, r3
 2643 0034 002B     		cmp	r3, #0
 2644 0036 03D0     		beq	.L151
 907:Drivers/VL53L0X/core/src/vl53l0x_api.c **** 	case VL53L0X_DEVICEMODE_SINGLE_RANGING:
 908:Drivers/VL53L0X/core/src/vl53l0x_api.c **** 	case VL53L0X_DEVICEMODE_CONTINUOUS_RANGING:
 909:Drivers/VL53L0X/core/src/vl53l0x_api.c **** 	case VL53L0X_DEVICEMODE_CONTINUOUS_TIMED_RANGING:
 910:Drivers/VL53L0X/core/src/vl53l0x_api.c **** 	case VL53L0X_DEVICEMODE_GPIO_DRIVE:
 911:Drivers/VL53L0X/core/src/vl53l0x_api.c **** 	case VL53L0X_DEVICEMODE_GPIO_OSC:
 912:Drivers/VL53L0X/core/src/vl53l0x_api.c **** 		/* Supported modes */
 913:Drivers/VL53L0X/core/src/vl53l0x_api.c **** 		VL53L0X_SETPARAMETERFIELD(Dev, DeviceMode, DeviceMode);
 2645              		.loc 1 913 3
 2646 0038 7B68     		ldr	r3, [r7, #4]
 2647 003a FA78     		ldrb	r2, [r7, #3]
 2648 003c 1A74     		strb	r2, [r3, #16]
 914:Drivers/VL53L0X/core/src/vl53l0x_api.c **** 		break;
 2649              		.loc 1 914 3
 2650 003e 01E0     		b	.L152
 2651              	.L151:
 915:Drivers/VL53L0X/core/src/vl53l0x_api.c **** 	default:
 916:Drivers/VL53L0X/core/src/vl53l0x_api.c **** 		/* Unsupported mode */
 917:Drivers/VL53L0X/core/src/vl53l0x_api.c **** 		Status = VL53L0X_ERROR_MODE_NOT_SUPPORTED;
 2652              		.loc 1 917 10
 2653 0040 F823     		movs	r3, #248
 2654 0042 FB73     		strb	r3, [r7, #15]
 2655              	.L152:
 918:Drivers/VL53L0X/core/src/vl53l0x_api.c **** 	}
 919:Drivers/VL53L0X/core/src/vl53l0x_api.c **** 
 920:Drivers/VL53L0X/core/src/vl53l0x_api.c **** 	LOG_FUNCTION_END(Status);
 921:Drivers/VL53L0X/core/src/vl53l0x_api.c **** 	return Status;
 2656              		.loc 1 921 9
 2657 0044 97F90F30 		ldrsb	r3, [r7, #15]
 922:Drivers/VL53L0X/core/src/vl53l0x_api.c **** }
 2658              		.loc 1 922 1
 2659 0048 1846     		mov	r0, r3
 2660 004a 1437     		adds	r7, r7, #20
 2661              		.cfi_def_cfa_offset 4
 2662 004c BD46     		mov	sp, r7
 2663              		.cfi_def_cfa_register 13
 2664              		@ sp needed
 2665 004e 5DF8047B 		ldr	r7, [sp], #4
 2666              		.cfi_restore 7
 2667              		.cfi_def_cfa_offset 0
 2668 0052 7047     		bx	lr
 2669              	.L155:
 2670              		.align	2
 2671              	.L154:
 2672 0054 0B003000 		.word	3145739
 2673              		.cfi_endproc
 2674              	.LFE352:
 2676              		.section	.text.VL53L0X_GetDeviceMode,"ax",%progbits
 2677              		.align	1
 2678              		.global	VL53L0X_GetDeviceMode
 2679              		.syntax unified
 2680              		.thumb
ARM GAS  C:\Users\Morroway\AppData\Local\Temp\ccih4NWY.s 			page 66


 2681              		.thumb_func
 2683              	VL53L0X_GetDeviceMode:
 2684              	.LFB353:
 923:Drivers/VL53L0X/core/src/vl53l0x_api.c **** 
 924:Drivers/VL53L0X/core/src/vl53l0x_api.c **** VL53L0X_Error VL53L0X_GetDeviceMode(VL53L0X_DEV Dev,
 925:Drivers/VL53L0X/core/src/vl53l0x_api.c **** 	VL53L0X_DeviceModes *pDeviceMode)
 926:Drivers/VL53L0X/core/src/vl53l0x_api.c **** {
 2685              		.loc 1 926 1
 2686              		.cfi_startproc
 2687              		@ args = 0, pretend = 0, frame = 16
 2688              		@ frame_needed = 1, uses_anonymous_args = 0
 2689              		@ link register save eliminated.
 2690 0000 80B4     		push	{r7}
 2691              		.cfi_def_cfa_offset 4
 2692              		.cfi_offset 7, -4
 2693 0002 85B0     		sub	sp, sp, #20
 2694              		.cfi_def_cfa_offset 24
 2695 0004 00AF     		add	r7, sp, #0
 2696              		.cfi_def_cfa_register 7
 2697 0006 7860     		str	r0, [r7, #4]
 2698 0008 3960     		str	r1, [r7]
 927:Drivers/VL53L0X/core/src/vl53l0x_api.c **** 	VL53L0X_Error Status = VL53L0X_ERROR_NONE;
 2699              		.loc 1 927 16
 2700 000a 0023     		movs	r3, #0
 2701 000c FB73     		strb	r3, [r7, #15]
 928:Drivers/VL53L0X/core/src/vl53l0x_api.c **** 	LOG_FUNCTION_START("");
 929:Drivers/VL53L0X/core/src/vl53l0x_api.c **** 
 930:Drivers/VL53L0X/core/src/vl53l0x_api.c **** 	VL53L0X_GETPARAMETERFIELD(Dev, DeviceMode, *pDeviceMode);
 2702              		.loc 1 930 2
 2703 000e 7B68     		ldr	r3, [r7, #4]
 2704 0010 1A7C     		ldrb	r2, [r3, #16]	@ zero_extendqisi2
 2705 0012 3B68     		ldr	r3, [r7]
 2706 0014 1A70     		strb	r2, [r3]
 931:Drivers/VL53L0X/core/src/vl53l0x_api.c **** 
 932:Drivers/VL53L0X/core/src/vl53l0x_api.c **** 	LOG_FUNCTION_END(Status);
 933:Drivers/VL53L0X/core/src/vl53l0x_api.c **** 	return Status;
 2707              		.loc 1 933 9
 2708 0016 97F90F30 		ldrsb	r3, [r7, #15]
 934:Drivers/VL53L0X/core/src/vl53l0x_api.c **** }
 2709              		.loc 1 934 1
 2710 001a 1846     		mov	r0, r3
 2711 001c 1437     		adds	r7, r7, #20
 2712              		.cfi_def_cfa_offset 4
 2713 001e BD46     		mov	sp, r7
 2714              		.cfi_def_cfa_register 13
 2715              		@ sp needed
 2716 0020 5DF8047B 		ldr	r7, [sp], #4
 2717              		.cfi_restore 7
 2718              		.cfi_def_cfa_offset 0
 2719 0024 7047     		bx	lr
 2720              		.cfi_endproc
 2721              	.LFE353:
 2723              		.section	.text.VL53L0X_SetRangeFractionEnable,"ax",%progbits
 2724              		.align	1
 2725              		.global	VL53L0X_SetRangeFractionEnable
 2726              		.syntax unified
 2727              		.thumb
ARM GAS  C:\Users\Morroway\AppData\Local\Temp\ccih4NWY.s 			page 67


 2728              		.thumb_func
 2730              	VL53L0X_SetRangeFractionEnable:
 2731              	.LFB354:
 935:Drivers/VL53L0X/core/src/vl53l0x_api.c **** 
 936:Drivers/VL53L0X/core/src/vl53l0x_api.c **** VL53L0X_Error VL53L0X_SetRangeFractionEnable(VL53L0X_DEV Dev,	uint8_t Enable)
 937:Drivers/VL53L0X/core/src/vl53l0x_api.c **** {
 2732              		.loc 1 937 1
 2733              		.cfi_startproc
 2734              		@ args = 0, pretend = 0, frame = 16
 2735              		@ frame_needed = 1, uses_anonymous_args = 0
 2736 0000 80B5     		push	{r7, lr}
 2737              		.cfi_def_cfa_offset 8
 2738              		.cfi_offset 7, -8
 2739              		.cfi_offset 14, -4
 2740 0002 84B0     		sub	sp, sp, #16
 2741              		.cfi_def_cfa_offset 24
 2742 0004 00AF     		add	r7, sp, #0
 2743              		.cfi_def_cfa_register 7
 2744 0006 7860     		str	r0, [r7, #4]
 2745 0008 0B46     		mov	r3, r1
 2746 000a FB70     		strb	r3, [r7, #3]
 938:Drivers/VL53L0X/core/src/vl53l0x_api.c **** 	VL53L0X_Error Status = VL53L0X_ERROR_NONE;
 2747              		.loc 1 938 16
 2748 000c 0023     		movs	r3, #0
 2749 000e FB73     		strb	r3, [r7, #15]
 939:Drivers/VL53L0X/core/src/vl53l0x_api.c **** 
 940:Drivers/VL53L0X/core/src/vl53l0x_api.c **** 	LOG_FUNCTION_START("%d", (int)Enable);
 941:Drivers/VL53L0X/core/src/vl53l0x_api.c **** 
 942:Drivers/VL53L0X/core/src/vl53l0x_api.c **** 	Status = VL53L0X_WrByte(Dev, VL53L0X_REG_SYSTEM_RANGE_CONFIG, Enable);
 2750              		.loc 1 942 11
 2751 0010 FB78     		ldrb	r3, [r7, #3]	@ zero_extendqisi2
 2752 0012 1A46     		mov	r2, r3
 2753 0014 0921     		movs	r1, #9
 2754 0016 7868     		ldr	r0, [r7, #4]
 2755 0018 FFF7FEFF 		bl	VL53L0X_WrByte
 2756 001c 0346     		mov	r3, r0
 2757 001e FB73     		strb	r3, [r7, #15]
 943:Drivers/VL53L0X/core/src/vl53l0x_api.c **** 
 944:Drivers/VL53L0X/core/src/vl53l0x_api.c **** 	if (Status == VL53L0X_ERROR_NONE)
 2758              		.loc 1 944 5
 2759 0020 97F90F30 		ldrsb	r3, [r7, #15]
 2760 0024 002B     		cmp	r3, #0
 2761 0026 03D1     		bne	.L159
 945:Drivers/VL53L0X/core/src/vl53l0x_api.c **** 		PALDevDataSet(Dev, RangeFractionalEnable, Enable);
 2762              		.loc 1 945 3
 2763 0028 7B68     		ldr	r3, [r7, #4]
 2764 002a FA78     		ldrb	r2, [r7, #3]
 2765 002c 83F83121 		strb	r2, [r3, #305]
 2766              	.L159:
 946:Drivers/VL53L0X/core/src/vl53l0x_api.c **** 
 947:Drivers/VL53L0X/core/src/vl53l0x_api.c **** 	LOG_FUNCTION_END(Status);
 948:Drivers/VL53L0X/core/src/vl53l0x_api.c **** 	return Status;
 2767              		.loc 1 948 9
 2768 0030 97F90F30 		ldrsb	r3, [r7, #15]
 949:Drivers/VL53L0X/core/src/vl53l0x_api.c **** }
 2769              		.loc 1 949 1
 2770 0034 1846     		mov	r0, r3
ARM GAS  C:\Users\Morroway\AppData\Local\Temp\ccih4NWY.s 			page 68


 2771 0036 1037     		adds	r7, r7, #16
 2772              		.cfi_def_cfa_offset 8
 2773 0038 BD46     		mov	sp, r7
 2774              		.cfi_def_cfa_register 13
 2775              		@ sp needed
 2776 003a 80BD     		pop	{r7, pc}
 2777              		.cfi_endproc
 2778              	.LFE354:
 2780              		.section	.text.VL53L0X_GetFractionEnable,"ax",%progbits
 2781              		.align	1
 2782              		.global	VL53L0X_GetFractionEnable
 2783              		.syntax unified
 2784              		.thumb
 2785              		.thumb_func
 2787              	VL53L0X_GetFractionEnable:
 2788              	.LFB355:
 950:Drivers/VL53L0X/core/src/vl53l0x_api.c **** 
 951:Drivers/VL53L0X/core/src/vl53l0x_api.c **** VL53L0X_Error VL53L0X_GetFractionEnable(VL53L0X_DEV Dev, uint8_t *pEnabled)
 952:Drivers/VL53L0X/core/src/vl53l0x_api.c **** {
 2789              		.loc 1 952 1
 2790              		.cfi_startproc
 2791              		@ args = 0, pretend = 0, frame = 16
 2792              		@ frame_needed = 1, uses_anonymous_args = 0
 2793 0000 80B5     		push	{r7, lr}
 2794              		.cfi_def_cfa_offset 8
 2795              		.cfi_offset 7, -8
 2796              		.cfi_offset 14, -4
 2797 0002 84B0     		sub	sp, sp, #16
 2798              		.cfi_def_cfa_offset 24
 2799 0004 00AF     		add	r7, sp, #0
 2800              		.cfi_def_cfa_register 7
 2801 0006 7860     		str	r0, [r7, #4]
 2802 0008 3960     		str	r1, [r7]
 953:Drivers/VL53L0X/core/src/vl53l0x_api.c **** 	VL53L0X_Error Status = VL53L0X_ERROR_NONE;
 2803              		.loc 1 953 16
 2804 000a 0023     		movs	r3, #0
 2805 000c FB73     		strb	r3, [r7, #15]
 954:Drivers/VL53L0X/core/src/vl53l0x_api.c **** 	LOG_FUNCTION_START("");
 955:Drivers/VL53L0X/core/src/vl53l0x_api.c **** 
 956:Drivers/VL53L0X/core/src/vl53l0x_api.c **** 	Status = VL53L0X_RdByte(Dev, VL53L0X_REG_SYSTEM_RANGE_CONFIG, pEnabled);
 2806              		.loc 1 956 11
 2807 000e 3A68     		ldr	r2, [r7]
 2808 0010 0921     		movs	r1, #9
 2809 0012 7868     		ldr	r0, [r7, #4]
 2810 0014 FFF7FEFF 		bl	VL53L0X_RdByte
 2811 0018 0346     		mov	r3, r0
 2812 001a FB73     		strb	r3, [r7, #15]
 957:Drivers/VL53L0X/core/src/vl53l0x_api.c **** 
 958:Drivers/VL53L0X/core/src/vl53l0x_api.c **** 	if (Status == VL53L0X_ERROR_NONE)
 2813              		.loc 1 958 5
 2814 001c 97F90F30 		ldrsb	r3, [r7, #15]
 2815 0020 002B     		cmp	r3, #0
 2816 0022 06D1     		bne	.L162
 959:Drivers/VL53L0X/core/src/vl53l0x_api.c **** 		*pEnabled = (*pEnabled & 1);
 2817              		.loc 1 959 16
 2818 0024 3B68     		ldr	r3, [r7]
 2819 0026 1B78     		ldrb	r3, [r3]	@ zero_extendqisi2
ARM GAS  C:\Users\Morroway\AppData\Local\Temp\ccih4NWY.s 			page 69


 2820              		.loc 1 959 26
 2821 0028 03F00103 		and	r3, r3, #1
 2822 002c DAB2     		uxtb	r2, r3
 2823              		.loc 1 959 13
 2824 002e 3B68     		ldr	r3, [r7]
 2825 0030 1A70     		strb	r2, [r3]
 2826              	.L162:
 960:Drivers/VL53L0X/core/src/vl53l0x_api.c **** 
 961:Drivers/VL53L0X/core/src/vl53l0x_api.c **** 	LOG_FUNCTION_END(Status);
 962:Drivers/VL53L0X/core/src/vl53l0x_api.c **** 	return Status;
 2827              		.loc 1 962 9
 2828 0032 97F90F30 		ldrsb	r3, [r7, #15]
 963:Drivers/VL53L0X/core/src/vl53l0x_api.c **** }
 2829              		.loc 1 963 1
 2830 0036 1846     		mov	r0, r3
 2831 0038 1037     		adds	r7, r7, #16
 2832              		.cfi_def_cfa_offset 8
 2833 003a BD46     		mov	sp, r7
 2834              		.cfi_def_cfa_register 13
 2835              		@ sp needed
 2836 003c 80BD     		pop	{r7, pc}
 2837              		.cfi_endproc
 2838              	.LFE355:
 2840              		.section	.text.VL53L0X_SetHistogramMode,"ax",%progbits
 2841              		.align	1
 2842              		.global	VL53L0X_SetHistogramMode
 2843              		.syntax unified
 2844              		.thumb
 2845              		.thumb_func
 2847              	VL53L0X_SetHistogramMode:
 2848              	.LFB356:
 964:Drivers/VL53L0X/core/src/vl53l0x_api.c **** 
 965:Drivers/VL53L0X/core/src/vl53l0x_api.c **** VL53L0X_Error VL53L0X_SetHistogramMode(VL53L0X_DEV Dev,
 966:Drivers/VL53L0X/core/src/vl53l0x_api.c **** 	VL53L0X_HistogramModes HistogramMode)
 967:Drivers/VL53L0X/core/src/vl53l0x_api.c **** {
 2849              		.loc 1 967 1
 2850              		.cfi_startproc
 2851              		@ args = 0, pretend = 0, frame = 16
 2852              		@ frame_needed = 1, uses_anonymous_args = 0
 2853              		@ link register save eliminated.
 2854 0000 80B4     		push	{r7}
 2855              		.cfi_def_cfa_offset 4
 2856              		.cfi_offset 7, -4
 2857 0002 85B0     		sub	sp, sp, #20
 2858              		.cfi_def_cfa_offset 24
 2859 0004 00AF     		add	r7, sp, #0
 2860              		.cfi_def_cfa_register 7
 2861 0006 7860     		str	r0, [r7, #4]
 2862 0008 0B46     		mov	r3, r1
 2863 000a FB70     		strb	r3, [r7, #3]
 968:Drivers/VL53L0X/core/src/vl53l0x_api.c **** 	VL53L0X_Error Status = VL53L0X_ERROR_NOT_IMPLEMENTED;
 2864              		.loc 1 968 16
 2865 000c 9D23     		movs	r3, #157
 2866 000e FB73     		strb	r3, [r7, #15]
 969:Drivers/VL53L0X/core/src/vl53l0x_api.c **** 	LOG_FUNCTION_START("");
 970:Drivers/VL53L0X/core/src/vl53l0x_api.c **** 
 971:Drivers/VL53L0X/core/src/vl53l0x_api.c **** 	/* not implemented on VL53L0X */
ARM GAS  C:\Users\Morroway\AppData\Local\Temp\ccih4NWY.s 			page 70


 972:Drivers/VL53L0X/core/src/vl53l0x_api.c **** 
 973:Drivers/VL53L0X/core/src/vl53l0x_api.c **** 	LOG_FUNCTION_END(Status);
 974:Drivers/VL53L0X/core/src/vl53l0x_api.c **** 	return Status;
 2867              		.loc 1 974 9
 2868 0010 97F90F30 		ldrsb	r3, [r7, #15]
 975:Drivers/VL53L0X/core/src/vl53l0x_api.c **** }
 2869              		.loc 1 975 1
 2870 0014 1846     		mov	r0, r3
 2871 0016 1437     		adds	r7, r7, #20
 2872              		.cfi_def_cfa_offset 4
 2873 0018 BD46     		mov	sp, r7
 2874              		.cfi_def_cfa_register 13
 2875              		@ sp needed
 2876 001a 5DF8047B 		ldr	r7, [sp], #4
 2877              		.cfi_restore 7
 2878              		.cfi_def_cfa_offset 0
 2879 001e 7047     		bx	lr
 2880              		.cfi_endproc
 2881              	.LFE356:
 2883              		.section	.text.VL53L0X_GetHistogramMode,"ax",%progbits
 2884              		.align	1
 2885              		.global	VL53L0X_GetHistogramMode
 2886              		.syntax unified
 2887              		.thumb
 2888              		.thumb_func
 2890              	VL53L0X_GetHistogramMode:
 2891              	.LFB357:
 976:Drivers/VL53L0X/core/src/vl53l0x_api.c **** 
 977:Drivers/VL53L0X/core/src/vl53l0x_api.c **** VL53L0X_Error VL53L0X_GetHistogramMode(VL53L0X_DEV Dev,
 978:Drivers/VL53L0X/core/src/vl53l0x_api.c **** 	VL53L0X_HistogramModes *pHistogramMode)
 979:Drivers/VL53L0X/core/src/vl53l0x_api.c **** {
 2892              		.loc 1 979 1
 2893              		.cfi_startproc
 2894              		@ args = 0, pretend = 0, frame = 16
 2895              		@ frame_needed = 1, uses_anonymous_args = 0
 2896              		@ link register save eliminated.
 2897 0000 80B4     		push	{r7}
 2898              		.cfi_def_cfa_offset 4
 2899              		.cfi_offset 7, -4
 2900 0002 85B0     		sub	sp, sp, #20
 2901              		.cfi_def_cfa_offset 24
 2902 0004 00AF     		add	r7, sp, #0
 2903              		.cfi_def_cfa_register 7
 2904 0006 7860     		str	r0, [r7, #4]
 2905 0008 3960     		str	r1, [r7]
 980:Drivers/VL53L0X/core/src/vl53l0x_api.c **** 	VL53L0X_Error Status = VL53L0X_ERROR_NOT_IMPLEMENTED;
 2906              		.loc 1 980 16
 2907 000a 9D23     		movs	r3, #157
 2908 000c FB73     		strb	r3, [r7, #15]
 981:Drivers/VL53L0X/core/src/vl53l0x_api.c **** 	LOG_FUNCTION_START("");
 982:Drivers/VL53L0X/core/src/vl53l0x_api.c **** 
 983:Drivers/VL53L0X/core/src/vl53l0x_api.c **** 	/* not implemented on VL53L0X */
 984:Drivers/VL53L0X/core/src/vl53l0x_api.c **** 
 985:Drivers/VL53L0X/core/src/vl53l0x_api.c **** 	LOG_FUNCTION_END(Status);
 986:Drivers/VL53L0X/core/src/vl53l0x_api.c **** 	return Status;
 2909              		.loc 1 986 9
 2910 000e 97F90F30 		ldrsb	r3, [r7, #15]
ARM GAS  C:\Users\Morroway\AppData\Local\Temp\ccih4NWY.s 			page 71


 987:Drivers/VL53L0X/core/src/vl53l0x_api.c **** }
 2911              		.loc 1 987 1
 2912 0012 1846     		mov	r0, r3
 2913 0014 1437     		adds	r7, r7, #20
 2914              		.cfi_def_cfa_offset 4
 2915 0016 BD46     		mov	sp, r7
 2916              		.cfi_def_cfa_register 13
 2917              		@ sp needed
 2918 0018 5DF8047B 		ldr	r7, [sp], #4
 2919              		.cfi_restore 7
 2920              		.cfi_def_cfa_offset 0
 2921 001c 7047     		bx	lr
 2922              		.cfi_endproc
 2923              	.LFE357:
 2925              		.section	.text.VL53L0X_SetMeasurementTimingBudgetMicroSeconds,"ax",%progbits
 2926              		.align	1
 2927              		.global	VL53L0X_SetMeasurementTimingBudgetMicroSeconds
 2928              		.syntax unified
 2929              		.thumb
 2930              		.thumb_func
 2932              	VL53L0X_SetMeasurementTimingBudgetMicroSeconds:
 2933              	.LFB358:
 988:Drivers/VL53L0X/core/src/vl53l0x_api.c **** 
 989:Drivers/VL53L0X/core/src/vl53l0x_api.c **** VL53L0X_Error VL53L0X_SetMeasurementTimingBudgetMicroSeconds(VL53L0X_DEV Dev,
 990:Drivers/VL53L0X/core/src/vl53l0x_api.c **** 	uint32_t MeasurementTimingBudgetMicroSeconds)
 991:Drivers/VL53L0X/core/src/vl53l0x_api.c **** {
 2934              		.loc 1 991 1
 2935              		.cfi_startproc
 2936              		@ args = 0, pretend = 0, frame = 16
 2937              		@ frame_needed = 1, uses_anonymous_args = 0
 2938 0000 80B5     		push	{r7, lr}
 2939              		.cfi_def_cfa_offset 8
 2940              		.cfi_offset 7, -8
 2941              		.cfi_offset 14, -4
 2942 0002 84B0     		sub	sp, sp, #16
 2943              		.cfi_def_cfa_offset 24
 2944 0004 00AF     		add	r7, sp, #0
 2945              		.cfi_def_cfa_register 7
 2946 0006 7860     		str	r0, [r7, #4]
 2947 0008 3960     		str	r1, [r7]
 992:Drivers/VL53L0X/core/src/vl53l0x_api.c **** 	VL53L0X_Error Status = VL53L0X_ERROR_NONE;
 2948              		.loc 1 992 16
 2949 000a 0023     		movs	r3, #0
 2950 000c FB73     		strb	r3, [r7, #15]
 993:Drivers/VL53L0X/core/src/vl53l0x_api.c **** 	LOG_FUNCTION_START("");
 994:Drivers/VL53L0X/core/src/vl53l0x_api.c **** 
 995:Drivers/VL53L0X/core/src/vl53l0x_api.c **** 	Status = VL53L0X_set_measurement_timing_budget_micro_seconds(Dev,
 2951              		.loc 1 995 11
 2952 000e 3968     		ldr	r1, [r7]
 2953 0010 7868     		ldr	r0, [r7, #4]
 2954 0012 FFF7FEFF 		bl	VL53L0X_set_measurement_timing_budget_micro_seconds
 2955 0016 0346     		mov	r3, r0
 2956 0018 FB73     		strb	r3, [r7, #15]
 996:Drivers/VL53L0X/core/src/vl53l0x_api.c **** 		MeasurementTimingBudgetMicroSeconds);
 997:Drivers/VL53L0X/core/src/vl53l0x_api.c **** 
 998:Drivers/VL53L0X/core/src/vl53l0x_api.c **** 	LOG_FUNCTION_END(Status);
 999:Drivers/VL53L0X/core/src/vl53l0x_api.c **** 
ARM GAS  C:\Users\Morroway\AppData\Local\Temp\ccih4NWY.s 			page 72


1000:Drivers/VL53L0X/core/src/vl53l0x_api.c **** 	return Status;
 2957              		.loc 1 1000 9
 2958 001a 97F90F30 		ldrsb	r3, [r7, #15]
1001:Drivers/VL53L0X/core/src/vl53l0x_api.c **** }
 2959              		.loc 1 1001 1
 2960 001e 1846     		mov	r0, r3
 2961 0020 1037     		adds	r7, r7, #16
 2962              		.cfi_def_cfa_offset 8
 2963 0022 BD46     		mov	sp, r7
 2964              		.cfi_def_cfa_register 13
 2965              		@ sp needed
 2966 0024 80BD     		pop	{r7, pc}
 2967              		.cfi_endproc
 2968              	.LFE358:
 2970              		.section	.text.VL53L0X_GetMeasurementTimingBudgetMicroSeconds,"ax",%progbits
 2971              		.align	1
 2972              		.global	VL53L0X_GetMeasurementTimingBudgetMicroSeconds
 2973              		.syntax unified
 2974              		.thumb
 2975              		.thumb_func
 2977              	VL53L0X_GetMeasurementTimingBudgetMicroSeconds:
 2978              	.LFB359:
1002:Drivers/VL53L0X/core/src/vl53l0x_api.c **** 
1003:Drivers/VL53L0X/core/src/vl53l0x_api.c **** VL53L0X_Error VL53L0X_GetMeasurementTimingBudgetMicroSeconds(VL53L0X_DEV Dev,
1004:Drivers/VL53L0X/core/src/vl53l0x_api.c **** 	uint32_t *pMeasurementTimingBudgetMicroSeconds)
1005:Drivers/VL53L0X/core/src/vl53l0x_api.c **** {
 2979              		.loc 1 1005 1
 2980              		.cfi_startproc
 2981              		@ args = 0, pretend = 0, frame = 16
 2982              		@ frame_needed = 1, uses_anonymous_args = 0
 2983 0000 80B5     		push	{r7, lr}
 2984              		.cfi_def_cfa_offset 8
 2985              		.cfi_offset 7, -8
 2986              		.cfi_offset 14, -4
 2987 0002 84B0     		sub	sp, sp, #16
 2988              		.cfi_def_cfa_offset 24
 2989 0004 00AF     		add	r7, sp, #0
 2990              		.cfi_def_cfa_register 7
 2991 0006 7860     		str	r0, [r7, #4]
 2992 0008 3960     		str	r1, [r7]
1006:Drivers/VL53L0X/core/src/vl53l0x_api.c **** 	VL53L0X_Error Status = VL53L0X_ERROR_NONE;
 2993              		.loc 1 1006 16
 2994 000a 0023     		movs	r3, #0
 2995 000c FB73     		strb	r3, [r7, #15]
1007:Drivers/VL53L0X/core/src/vl53l0x_api.c **** 	LOG_FUNCTION_START("");
1008:Drivers/VL53L0X/core/src/vl53l0x_api.c **** 
1009:Drivers/VL53L0X/core/src/vl53l0x_api.c **** 	Status = VL53L0X_get_measurement_timing_budget_micro_seconds(Dev,
 2996              		.loc 1 1009 11
 2997 000e 3968     		ldr	r1, [r7]
 2998 0010 7868     		ldr	r0, [r7, #4]
 2999 0012 FFF7FEFF 		bl	VL53L0X_get_measurement_timing_budget_micro_seconds
 3000 0016 0346     		mov	r3, r0
 3001 0018 FB73     		strb	r3, [r7, #15]
1010:Drivers/VL53L0X/core/src/vl53l0x_api.c **** 		pMeasurementTimingBudgetMicroSeconds);
1011:Drivers/VL53L0X/core/src/vl53l0x_api.c **** 
1012:Drivers/VL53L0X/core/src/vl53l0x_api.c **** 	LOG_FUNCTION_END(Status);
1013:Drivers/VL53L0X/core/src/vl53l0x_api.c **** 	return Status;
ARM GAS  C:\Users\Morroway\AppData\Local\Temp\ccih4NWY.s 			page 73


 3002              		.loc 1 1013 9
 3003 001a 97F90F30 		ldrsb	r3, [r7, #15]
1014:Drivers/VL53L0X/core/src/vl53l0x_api.c **** }
 3004              		.loc 1 1014 1
 3005 001e 1846     		mov	r0, r3
 3006 0020 1037     		adds	r7, r7, #16
 3007              		.cfi_def_cfa_offset 8
 3008 0022 BD46     		mov	sp, r7
 3009              		.cfi_def_cfa_register 13
 3010              		@ sp needed
 3011 0024 80BD     		pop	{r7, pc}
 3012              		.cfi_endproc
 3013              	.LFE359:
 3015              		.section	.text.VL53L0X_SetVcselPulsePeriod,"ax",%progbits
 3016              		.align	1
 3017              		.global	VL53L0X_SetVcselPulsePeriod
 3018              		.syntax unified
 3019              		.thumb
 3020              		.thumb_func
 3022              	VL53L0X_SetVcselPulsePeriod:
 3023              	.LFB360:
1015:Drivers/VL53L0X/core/src/vl53l0x_api.c **** 
1016:Drivers/VL53L0X/core/src/vl53l0x_api.c **** VL53L0X_Error VL53L0X_SetVcselPulsePeriod(VL53L0X_DEV Dev,
1017:Drivers/VL53L0X/core/src/vl53l0x_api.c **** 	VL53L0X_VcselPeriod VcselPeriodType, uint8_t VCSELPulsePeriodPCLK)
1018:Drivers/VL53L0X/core/src/vl53l0x_api.c **** {
 3024              		.loc 1 1018 1
 3025              		.cfi_startproc
 3026              		@ args = 0, pretend = 0, frame = 16
 3027              		@ frame_needed = 1, uses_anonymous_args = 0
 3028 0000 80B5     		push	{r7, lr}
 3029              		.cfi_def_cfa_offset 8
 3030              		.cfi_offset 7, -8
 3031              		.cfi_offset 14, -4
 3032 0002 84B0     		sub	sp, sp, #16
 3033              		.cfi_def_cfa_offset 24
 3034 0004 00AF     		add	r7, sp, #0
 3035              		.cfi_def_cfa_register 7
 3036 0006 7860     		str	r0, [r7, #4]
 3037 0008 0B46     		mov	r3, r1
 3038 000a FB70     		strb	r3, [r7, #3]
 3039 000c 1346     		mov	r3, r2
 3040 000e BB70     		strb	r3, [r7, #2]
1019:Drivers/VL53L0X/core/src/vl53l0x_api.c **** 	VL53L0X_Error Status = VL53L0X_ERROR_NONE;
 3041              		.loc 1 1019 16
 3042 0010 0023     		movs	r3, #0
 3043 0012 FB73     		strb	r3, [r7, #15]
1020:Drivers/VL53L0X/core/src/vl53l0x_api.c **** 	LOG_FUNCTION_START("");
1021:Drivers/VL53L0X/core/src/vl53l0x_api.c **** 
1022:Drivers/VL53L0X/core/src/vl53l0x_api.c **** 	Status = VL53L0X_set_vcsel_pulse_period(Dev, VcselPeriodType,
 3044              		.loc 1 1022 11
 3045 0014 BA78     		ldrb	r2, [r7, #2]	@ zero_extendqisi2
 3046 0016 FB78     		ldrb	r3, [r7, #3]	@ zero_extendqisi2
 3047 0018 1946     		mov	r1, r3
 3048 001a 7868     		ldr	r0, [r7, #4]
 3049 001c FFF7FEFF 		bl	VL53L0X_set_vcsel_pulse_period
 3050 0020 0346     		mov	r3, r0
 3051 0022 FB73     		strb	r3, [r7, #15]
ARM GAS  C:\Users\Morroway\AppData\Local\Temp\ccih4NWY.s 			page 74


1023:Drivers/VL53L0X/core/src/vl53l0x_api.c **** 		VCSELPulsePeriodPCLK);
1024:Drivers/VL53L0X/core/src/vl53l0x_api.c **** 
1025:Drivers/VL53L0X/core/src/vl53l0x_api.c **** 	LOG_FUNCTION_END(Status);
1026:Drivers/VL53L0X/core/src/vl53l0x_api.c **** 	return Status;
 3052              		.loc 1 1026 9
 3053 0024 97F90F30 		ldrsb	r3, [r7, #15]
1027:Drivers/VL53L0X/core/src/vl53l0x_api.c **** }
 3054              		.loc 1 1027 1
 3055 0028 1846     		mov	r0, r3
 3056 002a 1037     		adds	r7, r7, #16
 3057              		.cfi_def_cfa_offset 8
 3058 002c BD46     		mov	sp, r7
 3059              		.cfi_def_cfa_register 13
 3060              		@ sp needed
 3061 002e 80BD     		pop	{r7, pc}
 3062              		.cfi_endproc
 3063              	.LFE360:
 3065              		.section	.text.VL53L0X_GetVcselPulsePeriod,"ax",%progbits
 3066              		.align	1
 3067              		.global	VL53L0X_GetVcselPulsePeriod
 3068              		.syntax unified
 3069              		.thumb
 3070              		.thumb_func
 3072              	VL53L0X_GetVcselPulsePeriod:
 3073              	.LFB361:
1028:Drivers/VL53L0X/core/src/vl53l0x_api.c **** 
1029:Drivers/VL53L0X/core/src/vl53l0x_api.c **** VL53L0X_Error VL53L0X_GetVcselPulsePeriod(VL53L0X_DEV Dev,
1030:Drivers/VL53L0X/core/src/vl53l0x_api.c **** 	VL53L0X_VcselPeriod VcselPeriodType, uint8_t *pVCSELPulsePeriodPCLK)
1031:Drivers/VL53L0X/core/src/vl53l0x_api.c **** {
 3074              		.loc 1 1031 1
 3075              		.cfi_startproc
 3076              		@ args = 0, pretend = 0, frame = 24
 3077              		@ frame_needed = 1, uses_anonymous_args = 0
 3078 0000 80B5     		push	{r7, lr}
 3079              		.cfi_def_cfa_offset 8
 3080              		.cfi_offset 7, -8
 3081              		.cfi_offset 14, -4
 3082 0002 86B0     		sub	sp, sp, #24
 3083              		.cfi_def_cfa_offset 32
 3084 0004 00AF     		add	r7, sp, #0
 3085              		.cfi_def_cfa_register 7
 3086 0006 F860     		str	r0, [r7, #12]
 3087 0008 0B46     		mov	r3, r1
 3088 000a 7A60     		str	r2, [r7, #4]
 3089 000c FB72     		strb	r3, [r7, #11]
1032:Drivers/VL53L0X/core/src/vl53l0x_api.c **** 	VL53L0X_Error Status = VL53L0X_ERROR_NONE;
 3090              		.loc 1 1032 16
 3091 000e 0023     		movs	r3, #0
 3092 0010 FB75     		strb	r3, [r7, #23]
1033:Drivers/VL53L0X/core/src/vl53l0x_api.c **** 	LOG_FUNCTION_START("");
1034:Drivers/VL53L0X/core/src/vl53l0x_api.c **** 
1035:Drivers/VL53L0X/core/src/vl53l0x_api.c **** 	Status = VL53L0X_get_vcsel_pulse_period(Dev, VcselPeriodType,
 3093              		.loc 1 1035 11
 3094 0012 FB7A     		ldrb	r3, [r7, #11]	@ zero_extendqisi2
 3095 0014 7A68     		ldr	r2, [r7, #4]
 3096 0016 1946     		mov	r1, r3
 3097 0018 F868     		ldr	r0, [r7, #12]
ARM GAS  C:\Users\Morroway\AppData\Local\Temp\ccih4NWY.s 			page 75


 3098 001a FFF7FEFF 		bl	VL53L0X_get_vcsel_pulse_period
 3099 001e 0346     		mov	r3, r0
 3100 0020 FB75     		strb	r3, [r7, #23]
1036:Drivers/VL53L0X/core/src/vl53l0x_api.c **** 		pVCSELPulsePeriodPCLK);
1037:Drivers/VL53L0X/core/src/vl53l0x_api.c **** 
1038:Drivers/VL53L0X/core/src/vl53l0x_api.c **** 	LOG_FUNCTION_END(Status);
1039:Drivers/VL53L0X/core/src/vl53l0x_api.c **** 	return Status;
 3101              		.loc 1 1039 9
 3102 0022 97F91730 		ldrsb	r3, [r7, #23]
1040:Drivers/VL53L0X/core/src/vl53l0x_api.c **** }
 3103              		.loc 1 1040 1
 3104 0026 1846     		mov	r0, r3
 3105 0028 1837     		adds	r7, r7, #24
 3106              		.cfi_def_cfa_offset 8
 3107 002a BD46     		mov	sp, r7
 3108              		.cfi_def_cfa_register 13
 3109              		@ sp needed
 3110 002c 80BD     		pop	{r7, pc}
 3111              		.cfi_endproc
 3112              	.LFE361:
 3114              		.section	.text.VL53L0X_SetSequenceStepEnable,"ax",%progbits
 3115              		.align	1
 3116              		.global	VL53L0X_SetSequenceStepEnable
 3117              		.syntax unified
 3118              		.thumb
 3119              		.thumb_func
 3121              	VL53L0X_SetSequenceStepEnable:
 3122              	.LFB362:
1041:Drivers/VL53L0X/core/src/vl53l0x_api.c **** 
1042:Drivers/VL53L0X/core/src/vl53l0x_api.c **** VL53L0X_Error VL53L0X_SetSequenceStepEnable(VL53L0X_DEV Dev,
1043:Drivers/VL53L0X/core/src/vl53l0x_api.c **** 	VL53L0X_SequenceStepId SequenceStepId, uint8_t SequenceStepEnabled)
1044:Drivers/VL53L0X/core/src/vl53l0x_api.c **** {
 3123              		.loc 1 1044 1
 3124              		.cfi_startproc
 3125              		@ args = 0, pretend = 0, frame = 24
 3126              		@ frame_needed = 1, uses_anonymous_args = 0
 3127 0000 80B5     		push	{r7, lr}
 3128              		.cfi_def_cfa_offset 8
 3129              		.cfi_offset 7, -8
 3130              		.cfi_offset 14, -4
 3131 0002 86B0     		sub	sp, sp, #24
 3132              		.cfi_def_cfa_offset 32
 3133 0004 00AF     		add	r7, sp, #0
 3134              		.cfi_def_cfa_register 7
 3135 0006 7860     		str	r0, [r7, #4]
 3136 0008 0B46     		mov	r3, r1
 3137 000a FB70     		strb	r3, [r7, #3]
 3138 000c 1346     		mov	r3, r2
 3139 000e BB70     		strb	r3, [r7, #2]
1045:Drivers/VL53L0X/core/src/vl53l0x_api.c **** 	VL53L0X_Error Status = VL53L0X_ERROR_NONE;
 3140              		.loc 1 1045 16
 3141 0010 0023     		movs	r3, #0
 3142 0012 FB75     		strb	r3, [r7, #23]
1046:Drivers/VL53L0X/core/src/vl53l0x_api.c **** 	uint8_t SequenceConfig = 0;
 3143              		.loc 1 1046 10
 3144 0014 0023     		movs	r3, #0
 3145 0016 FB73     		strb	r3, [r7, #15]
ARM GAS  C:\Users\Morroway\AppData\Local\Temp\ccih4NWY.s 			page 76


1047:Drivers/VL53L0X/core/src/vl53l0x_api.c **** 	uint8_t SequenceConfigNew = 0;
 3146              		.loc 1 1047 10
 3147 0018 0023     		movs	r3, #0
 3148 001a BB75     		strb	r3, [r7, #22]
1048:Drivers/VL53L0X/core/src/vl53l0x_api.c **** 	uint32_t MeasurementTimingBudgetMicroSeconds;
1049:Drivers/VL53L0X/core/src/vl53l0x_api.c **** 	LOG_FUNCTION_START("");
1050:Drivers/VL53L0X/core/src/vl53l0x_api.c **** 
1051:Drivers/VL53L0X/core/src/vl53l0x_api.c **** 	Status = VL53L0X_RdByte(Dev, VL53L0X_REG_SYSTEM_SEQUENCE_CONFIG,
 3149              		.loc 1 1051 11
 3150 001c 07F10F03 		add	r3, r7, #15
 3151 0020 1A46     		mov	r2, r3
 3152 0022 0121     		movs	r1, #1
 3153 0024 7868     		ldr	r0, [r7, #4]
 3154 0026 FFF7FEFF 		bl	VL53L0X_RdByte
 3155 002a 0346     		mov	r3, r0
 3156 002c FB75     		strb	r3, [r7, #23]
1052:Drivers/VL53L0X/core/src/vl53l0x_api.c **** 		&SequenceConfig);
1053:Drivers/VL53L0X/core/src/vl53l0x_api.c **** 
1054:Drivers/VL53L0X/core/src/vl53l0x_api.c **** 	SequenceConfigNew = SequenceConfig;
 3157              		.loc 1 1054 20
 3158 002e FB7B     		ldrb	r3, [r7, #15]
 3159 0030 BB75     		strb	r3, [r7, #22]
1055:Drivers/VL53L0X/core/src/vl53l0x_api.c **** 
1056:Drivers/VL53L0X/core/src/vl53l0x_api.c **** 	if (Status == VL53L0X_ERROR_NONE) {
 3160              		.loc 1 1056 5
 3161 0032 97F91730 		ldrsb	r3, [r7, #23]
 3162 0036 002B     		cmp	r3, #0
 3163 0038 59D1     		bne	.L177
1057:Drivers/VL53L0X/core/src/vl53l0x_api.c **** 		if (SequenceStepEnabled == 1) {
 3164              		.loc 1 1057 6
 3165 003a BB78     		ldrb	r3, [r7, #2]	@ zero_extendqisi2
 3166 003c 012B     		cmp	r3, #1
 3167 003e 2BD1     		bne	.L178
1058:Drivers/VL53L0X/core/src/vl53l0x_api.c **** 
1059:Drivers/VL53L0X/core/src/vl53l0x_api.c **** 			/* Enable requested sequence step
1060:Drivers/VL53L0X/core/src/vl53l0x_api.c **** 			 */
1061:Drivers/VL53L0X/core/src/vl53l0x_api.c **** 			switch (SequenceStepId) {
 3168              		.loc 1 1061 4
 3169 0040 FB78     		ldrb	r3, [r7, #3]	@ zero_extendqisi2
 3170 0042 042B     		cmp	r3, #4
 3171 0044 25D8     		bhi	.L179
 3172 0046 01A2     		adr	r2, .L181
 3173 0048 52F823F0 		ldr	pc, [r2, r3, lsl #2]
 3174              		.p2align 2
 3175              	.L181:
 3176 004c 61000000 		.word	.L185+1
 3177 0050 6B000000 		.word	.L184+1
 3178 0054 75000000 		.word	.L183+1
 3179 0058 7F000000 		.word	.L182+1
 3180 005c 89000000 		.word	.L180+1
 3181              		.p2align 1
 3182              	.L185:
1062:Drivers/VL53L0X/core/src/vl53l0x_api.c **** 			case VL53L0X_SEQUENCESTEP_TCC:
1063:Drivers/VL53L0X/core/src/vl53l0x_api.c **** 				SequenceConfigNew |= 0x10;
 3183              		.loc 1 1063 23
 3184 0060 BB7D     		ldrb	r3, [r7, #22]
 3185 0062 43F01003 		orr	r3, r3, #16
ARM GAS  C:\Users\Morroway\AppData\Local\Temp\ccih4NWY.s 			page 77


 3186 0066 BB75     		strb	r3, [r7, #22]
1064:Drivers/VL53L0X/core/src/vl53l0x_api.c **** 				break;
 3187              		.loc 1 1064 5
 3188 0068 41E0     		b	.L177
 3189              	.L184:
1065:Drivers/VL53L0X/core/src/vl53l0x_api.c **** 			case VL53L0X_SEQUENCESTEP_DSS:
1066:Drivers/VL53L0X/core/src/vl53l0x_api.c **** 				SequenceConfigNew |= 0x28;
 3190              		.loc 1 1066 23
 3191 006a BB7D     		ldrb	r3, [r7, #22]
 3192 006c 43F02803 		orr	r3, r3, #40
 3193 0070 BB75     		strb	r3, [r7, #22]
1067:Drivers/VL53L0X/core/src/vl53l0x_api.c **** 				break;
 3194              		.loc 1 1067 5
 3195 0072 3CE0     		b	.L177
 3196              	.L183:
1068:Drivers/VL53L0X/core/src/vl53l0x_api.c **** 			case VL53L0X_SEQUENCESTEP_MSRC:
1069:Drivers/VL53L0X/core/src/vl53l0x_api.c **** 				SequenceConfigNew |= 0x04;
 3197              		.loc 1 1069 23
 3198 0074 BB7D     		ldrb	r3, [r7, #22]
 3199 0076 43F00403 		orr	r3, r3, #4
 3200 007a BB75     		strb	r3, [r7, #22]
1070:Drivers/VL53L0X/core/src/vl53l0x_api.c **** 				break;
 3201              		.loc 1 1070 5
 3202 007c 37E0     		b	.L177
 3203              	.L182:
1071:Drivers/VL53L0X/core/src/vl53l0x_api.c **** 			case VL53L0X_SEQUENCESTEP_PRE_RANGE:
1072:Drivers/VL53L0X/core/src/vl53l0x_api.c **** 				SequenceConfigNew |= 0x40;
 3204              		.loc 1 1072 23
 3205 007e BB7D     		ldrb	r3, [r7, #22]
 3206 0080 43F04003 		orr	r3, r3, #64
 3207 0084 BB75     		strb	r3, [r7, #22]
1073:Drivers/VL53L0X/core/src/vl53l0x_api.c **** 				break;
 3208              		.loc 1 1073 5
 3209 0086 32E0     		b	.L177
 3210              	.L180:
1074:Drivers/VL53L0X/core/src/vl53l0x_api.c **** 			case VL53L0X_SEQUENCESTEP_FINAL_RANGE:
1075:Drivers/VL53L0X/core/src/vl53l0x_api.c **** 				SequenceConfigNew |= 0x80;
 3211              		.loc 1 1075 23
 3212 0088 BB7D     		ldrb	r3, [r7, #22]
 3213 008a 63F07F03 		orn	r3, r3, #127
 3214 008e BB75     		strb	r3, [r7, #22]
1076:Drivers/VL53L0X/core/src/vl53l0x_api.c **** 				break;
 3215              		.loc 1 1076 5
 3216 0090 2DE0     		b	.L177
 3217              	.L179:
1077:Drivers/VL53L0X/core/src/vl53l0x_api.c **** 			default:
1078:Drivers/VL53L0X/core/src/vl53l0x_api.c **** 				Status = VL53L0X_ERROR_INVALID_PARAMS;
 3218              		.loc 1 1078 12
 3219 0092 FC23     		movs	r3, #252
 3220 0094 FB75     		strb	r3, [r7, #23]
 3221 0096 2AE0     		b	.L177
 3222              	.L178:
1079:Drivers/VL53L0X/core/src/vl53l0x_api.c **** 			}
1080:Drivers/VL53L0X/core/src/vl53l0x_api.c **** 		} else {
1081:Drivers/VL53L0X/core/src/vl53l0x_api.c **** 			/* Disable requested sequence step
1082:Drivers/VL53L0X/core/src/vl53l0x_api.c **** 			 */
1083:Drivers/VL53L0X/core/src/vl53l0x_api.c **** 			switch (SequenceStepId) {
ARM GAS  C:\Users\Morroway\AppData\Local\Temp\ccih4NWY.s 			page 78


 3223              		.loc 1 1083 4
 3224 0098 FB78     		ldrb	r3, [r7, #3]	@ zero_extendqisi2
 3225 009a 042B     		cmp	r3, #4
 3226 009c 25D8     		bhi	.L187
 3227 009e 01A2     		adr	r2, .L189
 3228 00a0 52F823F0 		ldr	pc, [r2, r3, lsl #2]
 3229              		.p2align 2
 3230              	.L189:
 3231 00a4 B9000000 		.word	.L193+1
 3232 00a8 C3000000 		.word	.L192+1
 3233 00ac CD000000 		.word	.L191+1
 3234 00b0 D7000000 		.word	.L190+1
 3235 00b4 E1000000 		.word	.L188+1
 3236              		.p2align 1
 3237              	.L193:
1084:Drivers/VL53L0X/core/src/vl53l0x_api.c **** 			case VL53L0X_SEQUENCESTEP_TCC:
1085:Drivers/VL53L0X/core/src/vl53l0x_api.c **** 				SequenceConfigNew &= 0xef;
 3238              		.loc 1 1085 23
 3239 00b8 BB7D     		ldrb	r3, [r7, #22]
 3240 00ba 23F01003 		bic	r3, r3, #16
 3241 00be BB75     		strb	r3, [r7, #22]
1086:Drivers/VL53L0X/core/src/vl53l0x_api.c **** 				break;
 3242              		.loc 1 1086 5
 3243 00c0 15E0     		b	.L177
 3244              	.L192:
1087:Drivers/VL53L0X/core/src/vl53l0x_api.c **** 			case VL53L0X_SEQUENCESTEP_DSS:
1088:Drivers/VL53L0X/core/src/vl53l0x_api.c **** 				SequenceConfigNew &= 0xd7;
 3245              		.loc 1 1088 23
 3246 00c2 BB7D     		ldrb	r3, [r7, #22]
 3247 00c4 23F02803 		bic	r3, r3, #40
 3248 00c8 BB75     		strb	r3, [r7, #22]
1089:Drivers/VL53L0X/core/src/vl53l0x_api.c **** 				break;
 3249              		.loc 1 1089 5
 3250 00ca 10E0     		b	.L177
 3251              	.L191:
1090:Drivers/VL53L0X/core/src/vl53l0x_api.c **** 			case VL53L0X_SEQUENCESTEP_MSRC:
1091:Drivers/VL53L0X/core/src/vl53l0x_api.c **** 				SequenceConfigNew &= 0xfb;
 3252              		.loc 1 1091 23
 3253 00cc BB7D     		ldrb	r3, [r7, #22]
 3254 00ce 23F00403 		bic	r3, r3, #4
 3255 00d2 BB75     		strb	r3, [r7, #22]
1092:Drivers/VL53L0X/core/src/vl53l0x_api.c **** 				break;
 3256              		.loc 1 1092 5
 3257 00d4 0BE0     		b	.L177
 3258              	.L190:
1093:Drivers/VL53L0X/core/src/vl53l0x_api.c **** 			case VL53L0X_SEQUENCESTEP_PRE_RANGE:
1094:Drivers/VL53L0X/core/src/vl53l0x_api.c **** 				SequenceConfigNew &= 0xbf;
 3259              		.loc 1 1094 23
 3260 00d6 BB7D     		ldrb	r3, [r7, #22]
 3261 00d8 23F04003 		bic	r3, r3, #64
 3262 00dc BB75     		strb	r3, [r7, #22]
1095:Drivers/VL53L0X/core/src/vl53l0x_api.c **** 				break;
 3263              		.loc 1 1095 5
 3264 00de 06E0     		b	.L177
 3265              	.L188:
1096:Drivers/VL53L0X/core/src/vl53l0x_api.c **** 			case VL53L0X_SEQUENCESTEP_FINAL_RANGE:
1097:Drivers/VL53L0X/core/src/vl53l0x_api.c **** 				SequenceConfigNew &= 0x7f;
ARM GAS  C:\Users\Morroway\AppData\Local\Temp\ccih4NWY.s 			page 79


 3266              		.loc 1 1097 23
 3267 00e0 BB7D     		ldrb	r3, [r7, #22]
 3268 00e2 03F07F03 		and	r3, r3, #127
 3269 00e6 BB75     		strb	r3, [r7, #22]
1098:Drivers/VL53L0X/core/src/vl53l0x_api.c **** 				break;
 3270              		.loc 1 1098 5
 3271 00e8 01E0     		b	.L177
 3272              	.L187:
1099:Drivers/VL53L0X/core/src/vl53l0x_api.c **** 			default:
1100:Drivers/VL53L0X/core/src/vl53l0x_api.c **** 				Status = VL53L0X_ERROR_INVALID_PARAMS;
 3273              		.loc 1 1100 12
 3274 00ea FC23     		movs	r3, #252
 3275 00ec FB75     		strb	r3, [r7, #23]
 3276              	.L177:
1101:Drivers/VL53L0X/core/src/vl53l0x_api.c **** 			}
1102:Drivers/VL53L0X/core/src/vl53l0x_api.c **** 		}
1103:Drivers/VL53L0X/core/src/vl53l0x_api.c **** 	}
1104:Drivers/VL53L0X/core/src/vl53l0x_api.c **** 
1105:Drivers/VL53L0X/core/src/vl53l0x_api.c **** 	if (SequenceConfigNew != SequenceConfig) {
 3277              		.loc 1 1105 24
 3278 00ee FB7B     		ldrb	r3, [r7, #15]	@ zero_extendqisi2
 3279              		.loc 1 1105 5
 3280 00f0 BA7D     		ldrb	r2, [r7, #22]	@ zero_extendqisi2
 3281 00f2 9A42     		cmp	r2, r3
 3282 00f4 1ED0     		beq	.L194
1106:Drivers/VL53L0X/core/src/vl53l0x_api.c **** 		/* Apply New Setting */
1107:Drivers/VL53L0X/core/src/vl53l0x_api.c **** 		if (Status == VL53L0X_ERROR_NONE) {
 3283              		.loc 1 1107 6
 3284 00f6 97F91730 		ldrsb	r3, [r7, #23]
 3285 00fa 002B     		cmp	r3, #0
 3286 00fc 07D1     		bne	.L195
1108:Drivers/VL53L0X/core/src/vl53l0x_api.c **** 			Status = VL53L0X_WrByte(Dev,
 3287              		.loc 1 1108 13
 3288 00fe BB7D     		ldrb	r3, [r7, #22]	@ zero_extendqisi2
 3289 0100 1A46     		mov	r2, r3
 3290 0102 0121     		movs	r1, #1
 3291 0104 7868     		ldr	r0, [r7, #4]
 3292 0106 FFF7FEFF 		bl	VL53L0X_WrByte
 3293 010a 0346     		mov	r3, r0
 3294 010c FB75     		strb	r3, [r7, #23]
 3295              	.L195:
1109:Drivers/VL53L0X/core/src/vl53l0x_api.c **** 			VL53L0X_REG_SYSTEM_SEQUENCE_CONFIG, SequenceConfigNew);
1110:Drivers/VL53L0X/core/src/vl53l0x_api.c **** 		}
1111:Drivers/VL53L0X/core/src/vl53l0x_api.c **** 		if (Status == VL53L0X_ERROR_NONE)
 3296              		.loc 1 1111 6
 3297 010e 97F91730 		ldrsb	r3, [r7, #23]
 3298 0112 002B     		cmp	r3, #0
 3299 0114 03D1     		bne	.L196
1112:Drivers/VL53L0X/core/src/vl53l0x_api.c **** 			PALDevDataSet(Dev, SequenceConfig, SequenceConfigNew);
 3300              		.loc 1 1112 4
 3301 0116 7B68     		ldr	r3, [r7, #4]
 3302 0118 BA7D     		ldrb	r2, [r7, #22]
 3303 011a 83F83021 		strb	r2, [r3, #304]
 3304              	.L196:
1113:Drivers/VL53L0X/core/src/vl53l0x_api.c **** 
1114:Drivers/VL53L0X/core/src/vl53l0x_api.c **** 
1115:Drivers/VL53L0X/core/src/vl53l0x_api.c **** 		/* Recalculate timing budget */
ARM GAS  C:\Users\Morroway\AppData\Local\Temp\ccih4NWY.s 			page 80


1116:Drivers/VL53L0X/core/src/vl53l0x_api.c **** 		if (Status == VL53L0X_ERROR_NONE) {
 3305              		.loc 1 1116 6
 3306 011e 97F91730 		ldrsb	r3, [r7, #23]
 3307 0122 002B     		cmp	r3, #0
 3308 0124 06D1     		bne	.L194
1117:Drivers/VL53L0X/core/src/vl53l0x_api.c **** 			VL53L0X_GETPARAMETERFIELD(Dev,
 3309              		.loc 1 1117 4
 3310 0126 7B68     		ldr	r3, [r7, #4]
 3311 0128 5B69     		ldr	r3, [r3, #20]
 3312 012a 3B61     		str	r3, [r7, #16]
1118:Drivers/VL53L0X/core/src/vl53l0x_api.c **** 				MeasurementTimingBudgetMicroSeconds,
1119:Drivers/VL53L0X/core/src/vl53l0x_api.c **** 				MeasurementTimingBudgetMicroSeconds);
1120:Drivers/VL53L0X/core/src/vl53l0x_api.c **** 
1121:Drivers/VL53L0X/core/src/vl53l0x_api.c **** 			VL53L0X_SetMeasurementTimingBudgetMicroSeconds(Dev,
 3313              		.loc 1 1121 4
 3314 012c 3969     		ldr	r1, [r7, #16]
 3315 012e 7868     		ldr	r0, [r7, #4]
 3316 0130 FFF7FEFF 		bl	VL53L0X_SetMeasurementTimingBudgetMicroSeconds
 3317              	.L194:
1122:Drivers/VL53L0X/core/src/vl53l0x_api.c **** 				MeasurementTimingBudgetMicroSeconds);
1123:Drivers/VL53L0X/core/src/vl53l0x_api.c **** 		}
1124:Drivers/VL53L0X/core/src/vl53l0x_api.c **** 	}
1125:Drivers/VL53L0X/core/src/vl53l0x_api.c **** 
1126:Drivers/VL53L0X/core/src/vl53l0x_api.c **** 	LOG_FUNCTION_END(Status);
1127:Drivers/VL53L0X/core/src/vl53l0x_api.c **** 
1128:Drivers/VL53L0X/core/src/vl53l0x_api.c **** 	return Status;
 3318              		.loc 1 1128 9
 3319 0134 97F91730 		ldrsb	r3, [r7, #23]
1129:Drivers/VL53L0X/core/src/vl53l0x_api.c **** }
 3320              		.loc 1 1129 1
 3321 0138 1846     		mov	r0, r3
 3322 013a 1837     		adds	r7, r7, #24
 3323              		.cfi_def_cfa_offset 8
 3324 013c BD46     		mov	sp, r7
 3325              		.cfi_def_cfa_register 13
 3326              		@ sp needed
 3327 013e 80BD     		pop	{r7, pc}
 3328              		.cfi_endproc
 3329              	.LFE362:
 3331              		.section	.text.sequence_step_enabled,"ax",%progbits
 3332              		.align	1
 3333              		.global	sequence_step_enabled
 3334              		.syntax unified
 3335              		.thumb
 3336              		.thumb_func
 3338              	sequence_step_enabled:
 3339              	.LFB363:
1130:Drivers/VL53L0X/core/src/vl53l0x_api.c **** 
1131:Drivers/VL53L0X/core/src/vl53l0x_api.c **** VL53L0X_Error sequence_step_enabled(VL53L0X_DEV Dev,
1132:Drivers/VL53L0X/core/src/vl53l0x_api.c **** 	VL53L0X_SequenceStepId SequenceStepId, uint8_t SequenceConfig,
1133:Drivers/VL53L0X/core/src/vl53l0x_api.c **** 	uint8_t *pSequenceStepEnabled)
1134:Drivers/VL53L0X/core/src/vl53l0x_api.c **** {
 3340              		.loc 1 1134 1
 3341              		.cfi_startproc
 3342              		@ args = 0, pretend = 0, frame = 24
 3343              		@ frame_needed = 1, uses_anonymous_args = 0
 3344              		@ link register save eliminated.
ARM GAS  C:\Users\Morroway\AppData\Local\Temp\ccih4NWY.s 			page 81


 3345 0000 80B4     		push	{r7}
 3346              		.cfi_def_cfa_offset 4
 3347              		.cfi_offset 7, -4
 3348 0002 87B0     		sub	sp, sp, #28
 3349              		.cfi_def_cfa_offset 32
 3350 0004 00AF     		add	r7, sp, #0
 3351              		.cfi_def_cfa_register 7
 3352 0006 F860     		str	r0, [r7, #12]
 3353 0008 7B60     		str	r3, [r7, #4]
 3354 000a 0B46     		mov	r3, r1
 3355 000c FB72     		strb	r3, [r7, #11]
 3356 000e 1346     		mov	r3, r2
 3357 0010 BB72     		strb	r3, [r7, #10]
1135:Drivers/VL53L0X/core/src/vl53l0x_api.c **** 	VL53L0X_Error Status = VL53L0X_ERROR_NONE;
 3358              		.loc 1 1135 16
 3359 0012 0023     		movs	r3, #0
 3360 0014 FB75     		strb	r3, [r7, #23]
1136:Drivers/VL53L0X/core/src/vl53l0x_api.c **** 	*pSequenceStepEnabled = 0;
 3361              		.loc 1 1136 24
 3362 0016 7B68     		ldr	r3, [r7, #4]
 3363 0018 0022     		movs	r2, #0
 3364 001a 1A70     		strb	r2, [r3]
1137:Drivers/VL53L0X/core/src/vl53l0x_api.c **** 	LOG_FUNCTION_START("");
1138:Drivers/VL53L0X/core/src/vl53l0x_api.c **** 
1139:Drivers/VL53L0X/core/src/vl53l0x_api.c **** 	switch (SequenceStepId) {
 3365              		.loc 1 1139 2
 3366 001c FB7A     		ldrb	r3, [r7, #11]	@ zero_extendqisi2
 3367 001e 042B     		cmp	r3, #4
 3368 0020 36D8     		bhi	.L199
 3369 0022 01A2     		adr	r2, .L201
 3370 0024 52F823F0 		ldr	pc, [r2, r3, lsl #2]
 3371              		.p2align 2
 3372              	.L201:
 3373 0028 3D000000 		.word	.L205+1
 3374 002c 4F000000 		.word	.L204+1
 3375 0030 61000000 		.word	.L203+1
 3376 0034 73000000 		.word	.L202+1
 3377 0038 85000000 		.word	.L200+1
 3378              		.p2align 1
 3379              	.L205:
1140:Drivers/VL53L0X/core/src/vl53l0x_api.c **** 	case VL53L0X_SEQUENCESTEP_TCC:
1141:Drivers/VL53L0X/core/src/vl53l0x_api.c **** 		*pSequenceStepEnabled = (SequenceConfig & 0x10) >> 4;
 3380              		.loc 1 1141 51
 3381 003c BB7A     		ldrb	r3, [r7, #10]	@ zero_extendqisi2
 3382 003e 1B11     		asrs	r3, r3, #4
 3383 0040 DBB2     		uxtb	r3, r3
 3384 0042 03F00103 		and	r3, r3, #1
 3385 0046 DAB2     		uxtb	r2, r3
 3386              		.loc 1 1141 25
 3387 0048 7B68     		ldr	r3, [r7, #4]
 3388 004a 1A70     		strb	r2, [r3]
1142:Drivers/VL53L0X/core/src/vl53l0x_api.c **** 		break;
 3389              		.loc 1 1142 3
 3390 004c 22E0     		b	.L206
 3391              	.L204:
1143:Drivers/VL53L0X/core/src/vl53l0x_api.c **** 	case VL53L0X_SEQUENCESTEP_DSS:
1144:Drivers/VL53L0X/core/src/vl53l0x_api.c **** 		*pSequenceStepEnabled = (SequenceConfig & 0x08) >> 3;
ARM GAS  C:\Users\Morroway\AppData\Local\Temp\ccih4NWY.s 			page 82


 3392              		.loc 1 1144 51
 3393 004e BB7A     		ldrb	r3, [r7, #10]	@ zero_extendqisi2
 3394 0050 DB10     		asrs	r3, r3, #3
 3395 0052 DBB2     		uxtb	r3, r3
 3396 0054 03F00103 		and	r3, r3, #1
 3397 0058 DAB2     		uxtb	r2, r3
 3398              		.loc 1 1144 25
 3399 005a 7B68     		ldr	r3, [r7, #4]
 3400 005c 1A70     		strb	r2, [r3]
1145:Drivers/VL53L0X/core/src/vl53l0x_api.c **** 		break;
 3401              		.loc 1 1145 3
 3402 005e 19E0     		b	.L206
 3403              	.L203:
1146:Drivers/VL53L0X/core/src/vl53l0x_api.c **** 	case VL53L0X_SEQUENCESTEP_MSRC:
1147:Drivers/VL53L0X/core/src/vl53l0x_api.c **** 		*pSequenceStepEnabled = (SequenceConfig & 0x04) >> 2;
 3404              		.loc 1 1147 51
 3405 0060 BB7A     		ldrb	r3, [r7, #10]	@ zero_extendqisi2
 3406 0062 9B10     		asrs	r3, r3, #2
 3407 0064 DBB2     		uxtb	r3, r3
 3408 0066 03F00103 		and	r3, r3, #1
 3409 006a DAB2     		uxtb	r2, r3
 3410              		.loc 1 1147 25
 3411 006c 7B68     		ldr	r3, [r7, #4]
 3412 006e 1A70     		strb	r2, [r3]
1148:Drivers/VL53L0X/core/src/vl53l0x_api.c **** 		break;
 3413              		.loc 1 1148 3
 3414 0070 10E0     		b	.L206
 3415              	.L202:
1149:Drivers/VL53L0X/core/src/vl53l0x_api.c **** 	case VL53L0X_SEQUENCESTEP_PRE_RANGE:
1150:Drivers/VL53L0X/core/src/vl53l0x_api.c **** 		*pSequenceStepEnabled = (SequenceConfig & 0x40) >> 6;
 3416              		.loc 1 1150 51
 3417 0072 BB7A     		ldrb	r3, [r7, #10]	@ zero_extendqisi2
 3418 0074 9B11     		asrs	r3, r3, #6
 3419 0076 DBB2     		uxtb	r3, r3
 3420 0078 03F00103 		and	r3, r3, #1
 3421 007c DAB2     		uxtb	r2, r3
 3422              		.loc 1 1150 25
 3423 007e 7B68     		ldr	r3, [r7, #4]
 3424 0080 1A70     		strb	r2, [r3]
1151:Drivers/VL53L0X/core/src/vl53l0x_api.c **** 		break;
 3425              		.loc 1 1151 3
 3426 0082 07E0     		b	.L206
 3427              	.L200:
1152:Drivers/VL53L0X/core/src/vl53l0x_api.c **** 	case VL53L0X_SEQUENCESTEP_FINAL_RANGE:
1153:Drivers/VL53L0X/core/src/vl53l0x_api.c **** 		*pSequenceStepEnabled = (SequenceConfig & 0x80) >> 7;
 3428              		.loc 1 1153 51
 3429 0084 BB7A     		ldrb	r3, [r7, #10]	@ zero_extendqisi2
 3430 0086 DB09     		lsrs	r3, r3, #7
 3431 0088 DAB2     		uxtb	r2, r3
 3432              		.loc 1 1153 25
 3433 008a 7B68     		ldr	r3, [r7, #4]
 3434 008c 1A70     		strb	r2, [r3]
1154:Drivers/VL53L0X/core/src/vl53l0x_api.c **** 		break;
 3435              		.loc 1 1154 3
 3436 008e 01E0     		b	.L206
 3437              	.L199:
1155:Drivers/VL53L0X/core/src/vl53l0x_api.c **** 	default:
ARM GAS  C:\Users\Morroway\AppData\Local\Temp\ccih4NWY.s 			page 83


1156:Drivers/VL53L0X/core/src/vl53l0x_api.c **** 		Status = VL53L0X_ERROR_INVALID_PARAMS;
 3438              		.loc 1 1156 10
 3439 0090 FC23     		movs	r3, #252
 3440 0092 FB75     		strb	r3, [r7, #23]
 3441              	.L206:
1157:Drivers/VL53L0X/core/src/vl53l0x_api.c **** 	}
1158:Drivers/VL53L0X/core/src/vl53l0x_api.c **** 
1159:Drivers/VL53L0X/core/src/vl53l0x_api.c **** 	LOG_FUNCTION_END(Status);
1160:Drivers/VL53L0X/core/src/vl53l0x_api.c **** 	return Status;
 3442              		.loc 1 1160 9
 3443 0094 97F91730 		ldrsb	r3, [r7, #23]
1161:Drivers/VL53L0X/core/src/vl53l0x_api.c **** }
 3444              		.loc 1 1161 1
 3445 0098 1846     		mov	r0, r3
 3446 009a 1C37     		adds	r7, r7, #28
 3447              		.cfi_def_cfa_offset 4
 3448 009c BD46     		mov	sp, r7
 3449              		.cfi_def_cfa_register 13
 3450              		@ sp needed
 3451 009e 5DF8047B 		ldr	r7, [sp], #4
 3452              		.cfi_restore 7
 3453              		.cfi_def_cfa_offset 0
 3454 00a2 7047     		bx	lr
 3455              		.cfi_endproc
 3456              	.LFE363:
 3458              		.section	.text.VL53L0X_GetSequenceStepEnable,"ax",%progbits
 3459              		.align	1
 3460              		.global	VL53L0X_GetSequenceStepEnable
 3461              		.syntax unified
 3462              		.thumb
 3463              		.thumb_func
 3465              	VL53L0X_GetSequenceStepEnable:
 3466              	.LFB364:
1162:Drivers/VL53L0X/core/src/vl53l0x_api.c **** 
1163:Drivers/VL53L0X/core/src/vl53l0x_api.c **** VL53L0X_Error VL53L0X_GetSequenceStepEnable(VL53L0X_DEV Dev,
1164:Drivers/VL53L0X/core/src/vl53l0x_api.c **** 	VL53L0X_SequenceStepId SequenceStepId, uint8_t *pSequenceStepEnabled)
1165:Drivers/VL53L0X/core/src/vl53l0x_api.c **** {
 3467              		.loc 1 1165 1
 3468              		.cfi_startproc
 3469              		@ args = 0, pretend = 0, frame = 24
 3470              		@ frame_needed = 1, uses_anonymous_args = 0
 3471 0000 80B5     		push	{r7, lr}
 3472              		.cfi_def_cfa_offset 8
 3473              		.cfi_offset 7, -8
 3474              		.cfi_offset 14, -4
 3475 0002 86B0     		sub	sp, sp, #24
 3476              		.cfi_def_cfa_offset 32
 3477 0004 00AF     		add	r7, sp, #0
 3478              		.cfi_def_cfa_register 7
 3479 0006 F860     		str	r0, [r7, #12]
 3480 0008 0B46     		mov	r3, r1
 3481 000a 7A60     		str	r2, [r7, #4]
 3482 000c FB72     		strb	r3, [r7, #11]
1166:Drivers/VL53L0X/core/src/vl53l0x_api.c **** 	VL53L0X_Error Status = VL53L0X_ERROR_NONE;
 3483              		.loc 1 1166 16
 3484 000e 0023     		movs	r3, #0
 3485 0010 FB75     		strb	r3, [r7, #23]
ARM GAS  C:\Users\Morroway\AppData\Local\Temp\ccih4NWY.s 			page 84


1167:Drivers/VL53L0X/core/src/vl53l0x_api.c **** 	uint8_t SequenceConfig = 0;
 3486              		.loc 1 1167 10
 3487 0012 0023     		movs	r3, #0
 3488 0014 BB75     		strb	r3, [r7, #22]
1168:Drivers/VL53L0X/core/src/vl53l0x_api.c **** 	LOG_FUNCTION_START("");
1169:Drivers/VL53L0X/core/src/vl53l0x_api.c **** 
1170:Drivers/VL53L0X/core/src/vl53l0x_api.c **** 	Status = VL53L0X_RdByte(Dev, VL53L0X_REG_SYSTEM_SEQUENCE_CONFIG,
 3489              		.loc 1 1170 11
 3490 0016 07F11603 		add	r3, r7, #22
 3491 001a 1A46     		mov	r2, r3
 3492 001c 0121     		movs	r1, #1
 3493 001e F868     		ldr	r0, [r7, #12]
 3494 0020 FFF7FEFF 		bl	VL53L0X_RdByte
 3495 0024 0346     		mov	r3, r0
 3496 0026 FB75     		strb	r3, [r7, #23]
1171:Drivers/VL53L0X/core/src/vl53l0x_api.c **** 		&SequenceConfig);
1172:Drivers/VL53L0X/core/src/vl53l0x_api.c **** 
1173:Drivers/VL53L0X/core/src/vl53l0x_api.c **** 	if (Status == VL53L0X_ERROR_NONE) {
 3497              		.loc 1 1173 5
 3498 0028 97F91730 		ldrsb	r3, [r7, #23]
 3499 002c 002B     		cmp	r3, #0
 3500 002e 07D1     		bne	.L209
1174:Drivers/VL53L0X/core/src/vl53l0x_api.c **** 		Status = sequence_step_enabled(Dev, SequenceStepId,
 3501              		.loc 1 1174 12
 3502 0030 BA7D     		ldrb	r2, [r7, #22]	@ zero_extendqisi2
 3503 0032 F97A     		ldrb	r1, [r7, #11]	@ zero_extendqisi2
 3504 0034 7B68     		ldr	r3, [r7, #4]
 3505 0036 F868     		ldr	r0, [r7, #12]
 3506 0038 FFF7FEFF 		bl	sequence_step_enabled
 3507 003c 0346     		mov	r3, r0
 3508 003e FB75     		strb	r3, [r7, #23]
 3509              	.L209:
1175:Drivers/VL53L0X/core/src/vl53l0x_api.c **** 			SequenceConfig, pSequenceStepEnabled);
1176:Drivers/VL53L0X/core/src/vl53l0x_api.c **** 	}
1177:Drivers/VL53L0X/core/src/vl53l0x_api.c **** 
1178:Drivers/VL53L0X/core/src/vl53l0x_api.c **** 	LOG_FUNCTION_END(Status);
1179:Drivers/VL53L0X/core/src/vl53l0x_api.c **** 	return Status;
 3510              		.loc 1 1179 9
 3511 0040 97F91730 		ldrsb	r3, [r7, #23]
1180:Drivers/VL53L0X/core/src/vl53l0x_api.c **** }
 3512              		.loc 1 1180 1
 3513 0044 1846     		mov	r0, r3
 3514 0046 1837     		adds	r7, r7, #24
 3515              		.cfi_def_cfa_offset 8
 3516 0048 BD46     		mov	sp, r7
 3517              		.cfi_def_cfa_register 13
 3518              		@ sp needed
 3519 004a 80BD     		pop	{r7, pc}
 3520              		.cfi_endproc
 3521              	.LFE364:
 3523              		.section	.text.VL53L0X_GetSequenceStepEnables,"ax",%progbits
 3524              		.align	1
 3525              		.global	VL53L0X_GetSequenceStepEnables
 3526              		.syntax unified
 3527              		.thumb
 3528              		.thumb_func
 3530              	VL53L0X_GetSequenceStepEnables:
ARM GAS  C:\Users\Morroway\AppData\Local\Temp\ccih4NWY.s 			page 85


 3531              	.LFB365:
1181:Drivers/VL53L0X/core/src/vl53l0x_api.c **** 
1182:Drivers/VL53L0X/core/src/vl53l0x_api.c **** VL53L0X_Error VL53L0X_GetSequenceStepEnables(VL53L0X_DEV Dev,
1183:Drivers/VL53L0X/core/src/vl53l0x_api.c **** 	VL53L0X_SchedulerSequenceSteps_t *pSchedulerSequenceSteps)
1184:Drivers/VL53L0X/core/src/vl53l0x_api.c **** {
 3532              		.loc 1 1184 1
 3533              		.cfi_startproc
 3534              		@ args = 0, pretend = 0, frame = 16
 3535              		@ frame_needed = 1, uses_anonymous_args = 0
 3536 0000 80B5     		push	{r7, lr}
 3537              		.cfi_def_cfa_offset 8
 3538              		.cfi_offset 7, -8
 3539              		.cfi_offset 14, -4
 3540 0002 84B0     		sub	sp, sp, #16
 3541              		.cfi_def_cfa_offset 24
 3542 0004 00AF     		add	r7, sp, #0
 3543              		.cfi_def_cfa_register 7
 3544 0006 7860     		str	r0, [r7, #4]
 3545 0008 3960     		str	r1, [r7]
1185:Drivers/VL53L0X/core/src/vl53l0x_api.c **** 	VL53L0X_Error Status = VL53L0X_ERROR_NONE;
 3546              		.loc 1 1185 16
 3547 000a 0023     		movs	r3, #0
 3548 000c FB73     		strb	r3, [r7, #15]
1186:Drivers/VL53L0X/core/src/vl53l0x_api.c **** 	uint8_t SequenceConfig = 0;
 3549              		.loc 1 1186 10
 3550 000e 0023     		movs	r3, #0
 3551 0010 BB73     		strb	r3, [r7, #14]
1187:Drivers/VL53L0X/core/src/vl53l0x_api.c **** 	LOG_FUNCTION_START("");
1188:Drivers/VL53L0X/core/src/vl53l0x_api.c **** 
1189:Drivers/VL53L0X/core/src/vl53l0x_api.c **** 	Status = VL53L0X_RdByte(Dev, VL53L0X_REG_SYSTEM_SEQUENCE_CONFIG,
 3552              		.loc 1 1189 11
 3553 0012 07F10E03 		add	r3, r7, #14
 3554 0016 1A46     		mov	r2, r3
 3555 0018 0121     		movs	r1, #1
 3556 001a 7868     		ldr	r0, [r7, #4]
 3557 001c FFF7FEFF 		bl	VL53L0X_RdByte
 3558 0020 0346     		mov	r3, r0
 3559 0022 FB73     		strb	r3, [r7, #15]
1190:Drivers/VL53L0X/core/src/vl53l0x_api.c **** 		&SequenceConfig);
1191:Drivers/VL53L0X/core/src/vl53l0x_api.c **** 
1192:Drivers/VL53L0X/core/src/vl53l0x_api.c **** 	if (Status == VL53L0X_ERROR_NONE) {
 3560              		.loc 1 1192 5
 3561 0024 97F90F30 		ldrsb	r3, [r7, #15]
 3562 0028 002B     		cmp	r3, #0
 3563 002a 07D1     		bne	.L212
1193:Drivers/VL53L0X/core/src/vl53l0x_api.c **** 		Status = sequence_step_enabled(Dev,
 3564              		.loc 1 1193 12
 3565 002c BA7B     		ldrb	r2, [r7, #14]	@ zero_extendqisi2
 3566 002e 3B68     		ldr	r3, [r7]
 3567 0030 0021     		movs	r1, #0
 3568 0032 7868     		ldr	r0, [r7, #4]
 3569 0034 FFF7FEFF 		bl	sequence_step_enabled
 3570 0038 0346     		mov	r3, r0
 3571 003a FB73     		strb	r3, [r7, #15]
 3572              	.L212:
1194:Drivers/VL53L0X/core/src/vl53l0x_api.c **** 		VL53L0X_SEQUENCESTEP_TCC, SequenceConfig,
1195:Drivers/VL53L0X/core/src/vl53l0x_api.c **** 			&pSchedulerSequenceSteps->TccOn);
ARM GAS  C:\Users\Morroway\AppData\Local\Temp\ccih4NWY.s 			page 86


1196:Drivers/VL53L0X/core/src/vl53l0x_api.c **** 	}
1197:Drivers/VL53L0X/core/src/vl53l0x_api.c **** 	if (Status == VL53L0X_ERROR_NONE) {
 3573              		.loc 1 1197 5
 3574 003c 97F90F30 		ldrsb	r3, [r7, #15]
 3575 0040 002B     		cmp	r3, #0
 3576 0042 08D1     		bne	.L213
1198:Drivers/VL53L0X/core/src/vl53l0x_api.c **** 		Status = sequence_step_enabled(Dev,
 3577              		.loc 1 1198 12
 3578 0044 BA7B     		ldrb	r2, [r7, #14]	@ zero_extendqisi2
 3579 0046 3B68     		ldr	r3, [r7]
 3580 0048 0233     		adds	r3, r3, #2
 3581 004a 0121     		movs	r1, #1
 3582 004c 7868     		ldr	r0, [r7, #4]
 3583 004e FFF7FEFF 		bl	sequence_step_enabled
 3584 0052 0346     		mov	r3, r0
 3585 0054 FB73     		strb	r3, [r7, #15]
 3586              	.L213:
1199:Drivers/VL53L0X/core/src/vl53l0x_api.c **** 		VL53L0X_SEQUENCESTEP_DSS, SequenceConfig,
1200:Drivers/VL53L0X/core/src/vl53l0x_api.c **** 			&pSchedulerSequenceSteps->DssOn);
1201:Drivers/VL53L0X/core/src/vl53l0x_api.c **** 	}
1202:Drivers/VL53L0X/core/src/vl53l0x_api.c **** 	if (Status == VL53L0X_ERROR_NONE) {
 3587              		.loc 1 1202 5
 3588 0056 97F90F30 		ldrsb	r3, [r7, #15]
 3589 005a 002B     		cmp	r3, #0
 3590 005c 08D1     		bne	.L214
1203:Drivers/VL53L0X/core/src/vl53l0x_api.c **** 		Status = sequence_step_enabled(Dev,
 3591              		.loc 1 1203 12
 3592 005e BA7B     		ldrb	r2, [r7, #14]	@ zero_extendqisi2
 3593 0060 3B68     		ldr	r3, [r7]
 3594 0062 0133     		adds	r3, r3, #1
 3595 0064 0221     		movs	r1, #2
 3596 0066 7868     		ldr	r0, [r7, #4]
 3597 0068 FFF7FEFF 		bl	sequence_step_enabled
 3598 006c 0346     		mov	r3, r0
 3599 006e FB73     		strb	r3, [r7, #15]
 3600              	.L214:
1204:Drivers/VL53L0X/core/src/vl53l0x_api.c **** 		VL53L0X_SEQUENCESTEP_MSRC, SequenceConfig,
1205:Drivers/VL53L0X/core/src/vl53l0x_api.c **** 			&pSchedulerSequenceSteps->MsrcOn);
1206:Drivers/VL53L0X/core/src/vl53l0x_api.c **** 	}
1207:Drivers/VL53L0X/core/src/vl53l0x_api.c **** 	if (Status == VL53L0X_ERROR_NONE) {
 3601              		.loc 1 1207 5
 3602 0070 97F90F30 		ldrsb	r3, [r7, #15]
 3603 0074 002B     		cmp	r3, #0
 3604 0076 08D1     		bne	.L215
1208:Drivers/VL53L0X/core/src/vl53l0x_api.c **** 		Status = sequence_step_enabled(Dev,
 3605              		.loc 1 1208 12
 3606 0078 BA7B     		ldrb	r2, [r7, #14]	@ zero_extendqisi2
 3607 007a 3B68     		ldr	r3, [r7]
 3608 007c 0333     		adds	r3, r3, #3
 3609 007e 0321     		movs	r1, #3
 3610 0080 7868     		ldr	r0, [r7, #4]
 3611 0082 FFF7FEFF 		bl	sequence_step_enabled
 3612 0086 0346     		mov	r3, r0
 3613 0088 FB73     		strb	r3, [r7, #15]
 3614              	.L215:
1209:Drivers/VL53L0X/core/src/vl53l0x_api.c **** 		VL53L0X_SEQUENCESTEP_PRE_RANGE, SequenceConfig,
1210:Drivers/VL53L0X/core/src/vl53l0x_api.c **** 			&pSchedulerSequenceSteps->PreRangeOn);
ARM GAS  C:\Users\Morroway\AppData\Local\Temp\ccih4NWY.s 			page 87


1211:Drivers/VL53L0X/core/src/vl53l0x_api.c **** 	}
1212:Drivers/VL53L0X/core/src/vl53l0x_api.c **** 	if (Status == VL53L0X_ERROR_NONE) {
 3615              		.loc 1 1212 5
 3616 008a 97F90F30 		ldrsb	r3, [r7, #15]
 3617 008e 002B     		cmp	r3, #0
 3618 0090 08D1     		bne	.L216
1213:Drivers/VL53L0X/core/src/vl53l0x_api.c **** 		Status = sequence_step_enabled(Dev,
 3619              		.loc 1 1213 12
 3620 0092 BA7B     		ldrb	r2, [r7, #14]	@ zero_extendqisi2
 3621 0094 3B68     		ldr	r3, [r7]
 3622 0096 0433     		adds	r3, r3, #4
 3623 0098 0421     		movs	r1, #4
 3624 009a 7868     		ldr	r0, [r7, #4]
 3625 009c FFF7FEFF 		bl	sequence_step_enabled
 3626 00a0 0346     		mov	r3, r0
 3627 00a2 FB73     		strb	r3, [r7, #15]
 3628              	.L216:
1214:Drivers/VL53L0X/core/src/vl53l0x_api.c **** 		VL53L0X_SEQUENCESTEP_FINAL_RANGE, SequenceConfig,
1215:Drivers/VL53L0X/core/src/vl53l0x_api.c **** 			&pSchedulerSequenceSteps->FinalRangeOn);
1216:Drivers/VL53L0X/core/src/vl53l0x_api.c **** 	}
1217:Drivers/VL53L0X/core/src/vl53l0x_api.c **** 
1218:Drivers/VL53L0X/core/src/vl53l0x_api.c **** 	LOG_FUNCTION_END(Status);
1219:Drivers/VL53L0X/core/src/vl53l0x_api.c **** 	return Status;
 3629              		.loc 1 1219 9
 3630 00a4 97F90F30 		ldrsb	r3, [r7, #15]
1220:Drivers/VL53L0X/core/src/vl53l0x_api.c **** }
 3631              		.loc 1 1220 1
 3632 00a8 1846     		mov	r0, r3
 3633 00aa 1037     		adds	r7, r7, #16
 3634              		.cfi_def_cfa_offset 8
 3635 00ac BD46     		mov	sp, r7
 3636              		.cfi_def_cfa_register 13
 3637              		@ sp needed
 3638 00ae 80BD     		pop	{r7, pc}
 3639              		.cfi_endproc
 3640              	.LFE365:
 3642              		.section	.text.VL53L0X_GetNumberOfSequenceSteps,"ax",%progbits
 3643              		.align	1
 3644              		.global	VL53L0X_GetNumberOfSequenceSteps
 3645              		.syntax unified
 3646              		.thumb
 3647              		.thumb_func
 3649              	VL53L0X_GetNumberOfSequenceSteps:
 3650              	.LFB366:
1221:Drivers/VL53L0X/core/src/vl53l0x_api.c **** 
1222:Drivers/VL53L0X/core/src/vl53l0x_api.c **** VL53L0X_Error VL53L0X_GetNumberOfSequenceSteps(VL53L0X_DEV Dev,
1223:Drivers/VL53L0X/core/src/vl53l0x_api.c **** 	uint8_t *pNumberOfSequenceSteps)
1224:Drivers/VL53L0X/core/src/vl53l0x_api.c **** {
 3651              		.loc 1 1224 1
 3652              		.cfi_startproc
 3653              		@ args = 0, pretend = 0, frame = 16
 3654              		@ frame_needed = 1, uses_anonymous_args = 0
 3655              		@ link register save eliminated.
 3656 0000 80B4     		push	{r7}
 3657              		.cfi_def_cfa_offset 4
 3658              		.cfi_offset 7, -4
 3659 0002 85B0     		sub	sp, sp, #20
ARM GAS  C:\Users\Morroway\AppData\Local\Temp\ccih4NWY.s 			page 88


 3660              		.cfi_def_cfa_offset 24
 3661 0004 00AF     		add	r7, sp, #0
 3662              		.cfi_def_cfa_register 7
 3663 0006 7860     		str	r0, [r7, #4]
 3664 0008 3960     		str	r1, [r7]
1225:Drivers/VL53L0X/core/src/vl53l0x_api.c **** 	VL53L0X_Error Status = VL53L0X_ERROR_NONE;
 3665              		.loc 1 1225 16
 3666 000a 0023     		movs	r3, #0
 3667 000c FB73     		strb	r3, [r7, #15]
1226:Drivers/VL53L0X/core/src/vl53l0x_api.c **** 	LOG_FUNCTION_START("");
1227:Drivers/VL53L0X/core/src/vl53l0x_api.c **** 
1228:Drivers/VL53L0X/core/src/vl53l0x_api.c **** 	*pNumberOfSequenceSteps = VL53L0X_SEQUENCESTEP_NUMBER_OF_CHECKS;
 3668              		.loc 1 1228 26
 3669 000e 3B68     		ldr	r3, [r7]
 3670 0010 0522     		movs	r2, #5
 3671 0012 1A70     		strb	r2, [r3]
1229:Drivers/VL53L0X/core/src/vl53l0x_api.c **** 
1230:Drivers/VL53L0X/core/src/vl53l0x_api.c **** 	LOG_FUNCTION_END(Status);
1231:Drivers/VL53L0X/core/src/vl53l0x_api.c **** 	return Status;
 3672              		.loc 1 1231 9
 3673 0014 97F90F30 		ldrsb	r3, [r7, #15]
1232:Drivers/VL53L0X/core/src/vl53l0x_api.c **** }
 3674              		.loc 1 1232 1
 3675 0018 1846     		mov	r0, r3
 3676 001a 1437     		adds	r7, r7, #20
 3677              		.cfi_def_cfa_offset 4
 3678 001c BD46     		mov	sp, r7
 3679              		.cfi_def_cfa_register 13
 3680              		@ sp needed
 3681 001e 5DF8047B 		ldr	r7, [sp], #4
 3682              		.cfi_restore 7
 3683              		.cfi_def_cfa_offset 0
 3684 0022 7047     		bx	lr
 3685              		.cfi_endproc
 3686              	.LFE366:
 3688              		.section	.text.VL53L0X_GetSequenceStepsInfo,"ax",%progbits
 3689              		.align	1
 3690              		.global	VL53L0X_GetSequenceStepsInfo
 3691              		.syntax unified
 3692              		.thumb
 3693              		.thumb_func
 3695              	VL53L0X_GetSequenceStepsInfo:
 3696              	.LFB367:
1233:Drivers/VL53L0X/core/src/vl53l0x_api.c **** 
1234:Drivers/VL53L0X/core/src/vl53l0x_api.c **** VL53L0X_Error VL53L0X_GetSequenceStepsInfo(VL53L0X_SequenceStepId SequenceStepId,
1235:Drivers/VL53L0X/core/src/vl53l0x_api.c **** 	char *pSequenceStepsString)
1236:Drivers/VL53L0X/core/src/vl53l0x_api.c **** {
 3697              		.loc 1 1236 1
 3698              		.cfi_startproc
 3699              		@ args = 0, pretend = 0, frame = 16
 3700              		@ frame_needed = 1, uses_anonymous_args = 0
 3701 0000 80B5     		push	{r7, lr}
 3702              		.cfi_def_cfa_offset 8
 3703              		.cfi_offset 7, -8
 3704              		.cfi_offset 14, -4
 3705 0002 84B0     		sub	sp, sp, #16
 3706              		.cfi_def_cfa_offset 24
ARM GAS  C:\Users\Morroway\AppData\Local\Temp\ccih4NWY.s 			page 89


 3707 0004 00AF     		add	r7, sp, #0
 3708              		.cfi_def_cfa_register 7
 3709 0006 0346     		mov	r3, r0
 3710 0008 3960     		str	r1, [r7]
 3711 000a FB71     		strb	r3, [r7, #7]
1237:Drivers/VL53L0X/core/src/vl53l0x_api.c **** 	VL53L0X_Error Status = VL53L0X_ERROR_NONE;
 3712              		.loc 1 1237 16
 3713 000c 0023     		movs	r3, #0
 3714 000e FB73     		strb	r3, [r7, #15]
1238:Drivers/VL53L0X/core/src/vl53l0x_api.c **** 	LOG_FUNCTION_START("");
1239:Drivers/VL53L0X/core/src/vl53l0x_api.c **** 
1240:Drivers/VL53L0X/core/src/vl53l0x_api.c **** 	Status = VL53L0X_get_sequence_steps_info(
 3715              		.loc 1 1240 11
 3716 0010 FB79     		ldrb	r3, [r7, #7]	@ zero_extendqisi2
 3717 0012 3968     		ldr	r1, [r7]
 3718 0014 1846     		mov	r0, r3
 3719 0016 FFF7FEFF 		bl	VL53L0X_get_sequence_steps_info
 3720 001a 0346     		mov	r3, r0
 3721 001c FB73     		strb	r3, [r7, #15]
1241:Drivers/VL53L0X/core/src/vl53l0x_api.c **** 			SequenceStepId,
1242:Drivers/VL53L0X/core/src/vl53l0x_api.c **** 			pSequenceStepsString);
1243:Drivers/VL53L0X/core/src/vl53l0x_api.c **** 
1244:Drivers/VL53L0X/core/src/vl53l0x_api.c **** 	LOG_FUNCTION_END(Status);
1245:Drivers/VL53L0X/core/src/vl53l0x_api.c **** 
1246:Drivers/VL53L0X/core/src/vl53l0x_api.c **** 	return Status;
 3722              		.loc 1 1246 9
 3723 001e 97F90F30 		ldrsb	r3, [r7, #15]
1247:Drivers/VL53L0X/core/src/vl53l0x_api.c **** }
 3724              		.loc 1 1247 1
 3725 0022 1846     		mov	r0, r3
 3726 0024 1037     		adds	r7, r7, #16
 3727              		.cfi_def_cfa_offset 8
 3728 0026 BD46     		mov	sp, r7
 3729              		.cfi_def_cfa_register 13
 3730              		@ sp needed
 3731 0028 80BD     		pop	{r7, pc}
 3732              		.cfi_endproc
 3733              	.LFE367:
 3735              		.section	.text.VL53L0X_SetSequenceStepTimeout,"ax",%progbits
 3736              		.align	1
 3737              		.global	VL53L0X_SetSequenceStepTimeout
 3738              		.syntax unified
 3739              		.thumb
 3740              		.thumb_func
 3742              	VL53L0X_SetSequenceStepTimeout:
 3743              	.LFB368:
1248:Drivers/VL53L0X/core/src/vl53l0x_api.c **** 
1249:Drivers/VL53L0X/core/src/vl53l0x_api.c **** VL53L0X_Error VL53L0X_SetSequenceStepTimeout(VL53L0X_DEV Dev,
1250:Drivers/VL53L0X/core/src/vl53l0x_api.c **** 	VL53L0X_SequenceStepId SequenceStepId, FixPoint1616_t TimeOutMilliSecs)
1251:Drivers/VL53L0X/core/src/vl53l0x_api.c **** {
 3744              		.loc 1 1251 1
 3745              		.cfi_startproc
 3746              		@ args = 0, pretend = 0, frame = 32
 3747              		@ frame_needed = 1, uses_anonymous_args = 0
 3748 0000 80B5     		push	{r7, lr}
 3749              		.cfi_def_cfa_offset 8
 3750              		.cfi_offset 7, -8
ARM GAS  C:\Users\Morroway\AppData\Local\Temp\ccih4NWY.s 			page 90


 3751              		.cfi_offset 14, -4
 3752 0002 88B0     		sub	sp, sp, #32
 3753              		.cfi_def_cfa_offset 40
 3754 0004 00AF     		add	r7, sp, #0
 3755              		.cfi_def_cfa_register 7
 3756 0006 F860     		str	r0, [r7, #12]
 3757 0008 0B46     		mov	r3, r1
 3758 000a 7A60     		str	r2, [r7, #4]
 3759 000c FB72     		strb	r3, [r7, #11]
1252:Drivers/VL53L0X/core/src/vl53l0x_api.c **** 	VL53L0X_Error Status = VL53L0X_ERROR_NONE;
 3760              		.loc 1 1252 16
 3761 000e 0023     		movs	r3, #0
 3762 0010 FB77     		strb	r3, [r7, #31]
1253:Drivers/VL53L0X/core/src/vl53l0x_api.c **** 	VL53L0X_Error Status1 = VL53L0X_ERROR_NONE;
 3763              		.loc 1 1253 16
 3764 0012 0023     		movs	r3, #0
 3765 0014 BB77     		strb	r3, [r7, #30]
1254:Drivers/VL53L0X/core/src/vl53l0x_api.c **** 	uint32_t TimeoutMicroSeconds = ((TimeOutMilliSecs * 1000) + 0x8000)
 3766              		.loc 1 1254 52
 3767 0016 7B68     		ldr	r3, [r7, #4]
 3768 0018 4FF47A72 		mov	r2, #1000
 3769 001c 02FB03F3 		mul	r3, r2, r3
 3770              		.loc 1 1254 60
 3771 0020 03F50043 		add	r3, r3, #32768
 3772              		.loc 1 1254 11
 3773 0024 1B0C     		lsrs	r3, r3, #16
 3774 0026 BB61     		str	r3, [r7, #24]
1255:Drivers/VL53L0X/core/src/vl53l0x_api.c **** 		>> 16;
1256:Drivers/VL53L0X/core/src/vl53l0x_api.c **** 	uint32_t MeasurementTimingBudgetMicroSeconds;
1257:Drivers/VL53L0X/core/src/vl53l0x_api.c **** 	FixPoint1616_t OldTimeOutMicroSeconds;
1258:Drivers/VL53L0X/core/src/vl53l0x_api.c **** 
1259:Drivers/VL53L0X/core/src/vl53l0x_api.c **** 	LOG_FUNCTION_START("");
1260:Drivers/VL53L0X/core/src/vl53l0x_api.c **** 
1261:Drivers/VL53L0X/core/src/vl53l0x_api.c **** 	/* Read back the current value in case we need to revert back to this.
1262:Drivers/VL53L0X/core/src/vl53l0x_api.c **** 	 */
1263:Drivers/VL53L0X/core/src/vl53l0x_api.c **** 	Status = get_sequence_step_timeout(Dev, SequenceStepId,
 3775              		.loc 1 1263 11
 3776 0028 07F11002 		add	r2, r7, #16
 3777 002c FB7A     		ldrb	r3, [r7, #11]	@ zero_extendqisi2
 3778 002e 1946     		mov	r1, r3
 3779 0030 F868     		ldr	r0, [r7, #12]
 3780 0032 FFF7FEFF 		bl	get_sequence_step_timeout
 3781 0036 0346     		mov	r3, r0
 3782 0038 FB77     		strb	r3, [r7, #31]
1264:Drivers/VL53L0X/core/src/vl53l0x_api.c **** 		&OldTimeOutMicroSeconds);
1265:Drivers/VL53L0X/core/src/vl53l0x_api.c **** 
1266:Drivers/VL53L0X/core/src/vl53l0x_api.c **** 	if (Status == VL53L0X_ERROR_NONE) {
 3783              		.loc 1 1266 5
 3784 003a 97F91F30 		ldrsb	r3, [r7, #31]
