ARM GAS  C:\Users\Morroway\AppData\Local\Temp\ccih4NWY.s 			page 1


   1              		.cpu cortex-m4
   2              		.arch armv7e-m
   3              		.fpu fpv4-sp-d16
   4              		.eabi_attribute 27, 1
   5              		.eabi_attribute 28, 1
   6              		.eabi_attribute 20, 1
   7              		.eabi_attribute 21, 1
   8              		.eabi_attribute 23, 3
   9              		.eabi_attribute 24, 1
  10              		.eabi_attribute 25, 1
  11              		.eabi_attribute 26, 1
  12              		.eabi_attribute 30, 6
  13              		.eabi_attribute 34, 1
  14              		.eabi_attribute 18, 4
  15              		.file	"vl53l0x_api.c"
  16              		.text
  17              	.Ltext0:
  18              		.cfi_sections	.debug_frame
  19              		.global	DefaultTuningSettings
  20              		.section	.data.DefaultTuningSettings,"aw"
  21              		.align	2
  24              	DefaultTuningSettings:
  25 0000 01FF0101 		.ascii	"\001\377\001\001\000\000\001\377\000\001\011\000\001"
  25      000001FF 
  25      00010900 
  25      01
  26 000d 10000111 		.ascii	"\020\000\001\021\000\001$\001\001%\377\001u\000\001"
  26      00012401 
  26      0125FF01 
  26      750001
  27 001c FF01014E 		.ascii	"\377\001\001N,\001H\000\0010 \001\377\000\0010\011\001"
  27      2C014800 
  27      01302001 
  27      FF000130 
  27      0901
  28 002e 54000131 		.ascii	"T\000\0011\004\0012\003\001@\203\001F%\001`\000\001"
  28      04013203 
  28      01408301 
  28      46250160 
  28      0001
  29 0040 27000150 		.ascii	"'\000\001P\006\001Q\000\001R\226\001V\010\001W0\001"
  29      06015100 
  29      01529601 
  29      56080157 
  29      3001
  30 0052 61000162 		.ascii	"a\000\001b\000\001d\000\001e\000\001f\240\001\377\001"
  30      00016400 
  30      01650001 
  30      66A001FF 
  30      01
  31 0063 01223201 		.ascii	"\001\"2\001G\024\001I\377\001J\000\001\377\000\001z"
  31      47140149 
  31      FF014A00 
  31      01FF0001 
  31      7A
  32 0074 0A017B00 		.ascii	"\012\001{\000\001x!\001\377\001\001#4\001B\000\001D"
  32      01782101 
ARM GAS  C:\Users\Morroway\AppData\Local\Temp\ccih4NWY.s 			page 2


  32      FF010123 
  32      34014200 
  32      0144
  33 0086 FF014526 		.ascii	"\377\001E&\001F\005\001@@\001\016\006\001 \032\001C"
  33      01460501 
  33      4040010E 
  33      0601201A 
  33      0143
  34 0098 4001FF00 		.ascii	"@\001\377\000\0014\003\0015D\001\377\001\0011\004\001"
  34      01340301 
  34      354401FF 
  34      01013104 
  34      01
  35 00a9 4B09014C 		.ascii	"K\011\001L\005\001M\004\001\377\000\001D\000\001E \001"
  35      05014D04 
  35      01FF0001 
  35      44000145 
  35      2001
  36 00bb 47080148 		.ascii	"G\010\001H(\001g\000\001p\004\001q\001\001r\376\001"
  36      28016700 
  36      01700401 
  36      71010172 
  36      FE01
  37 00cd 76000177 		.ascii	"v\000\001w\000\001\377\001\001\015\001\001\377\000\001"
  37      0001FF01 
  37      010D0101 
  37      FF0001
  38 00dc 80010101 		.ascii	"\200\001\001\001\370\001\377\001\001\216\001\001\000"
  38      F801FF01 
  38      018E0101 
  38      00
  39 00e9 0101FF00 		.ascii	"\001\001\377\000\001\200\000\000\000\000"
  39      01800000 
  39      0000
  40              		.global	InterruptThresholdSettings
  41              		.section	.data.InterruptThresholdSettings,"aw"
  42              		.align	2
  45              	InterruptThresholdSettings:
  46 0000 01FF0001 		.ascii	"\001\377\000\001\200\001\001\377\001\001\000\000\001"
  46      800101FF 
  46      01010000 
  46      01
  47 000d FF01014F 		.ascii	"\377\001\001O\002\001\377\016\001\000\003\001\001\204"
  47      0201FF0E 
  47      01000301 
  47      0184
  48 001b 01020A01 		.ascii	"\001\002\012\001\003\003\001\004\010\001\005\310\001"
  48      03030104 
  48      080105C8 
  48      01
  49 0028 06030107 		.ascii	"\006\003\001\007\215\001\010\010\001\011\306\001\012"
  49      8D010808 
  49      0109C601 
  49      0A
  50 0035 01010B02 		.ascii	"\001\001\013\002\001\014\000\001\015\325\001\016\030"
  50      010C0001 
  50      0DD5010E 
ARM GAS  C:\Users\Morroway\AppData\Local\Temp\ccih4NWY.s 			page 3


  50      18
  51 0042 010F1201 		.ascii	"\001\017\022\001\020\001\001\021\202\001\022\000\001"
  51      10010111 
  51      82011200 
  51      01
  52 004f 13D50114 		.ascii	"\023\325\001\024\030\001\025\023\001\026\003\001\027"
  52      18011513 
  52      01160301 
  52      17
  53 005c 8601180A 		.ascii	"\206\001\030\012\001\031\011\001\032\010\001\033\302"
  53      01190901 
  53      1A08011B 
  53      C2
  54 0069 011C0301 		.ascii	"\001\034\003\001\035\217\001\036\012\001\037\006\001"
  54      1D8F011E 
  54      0A011F06 
  54      01
  55 0076 20010121 		.ascii	" \001\001!\002\001\"\000\001#\325\001$\030\001%\"\001"
  55      02012200 
  55      0123D501 
  55      24180125 
  55      2201
  56 0088 26010127 		.ascii	"&\001\001'\202\001(\000\001)\325\001*\030\001+\013\001"
  56      82012800 
  56      0129D501 
  56      2A18012B 
  56      0B01
  57 009a 2C28012D 		.ascii	",(\001-x\001.(\001/\221\0010\000\0011\013\0012\000\001"
  57      78012E28 
  57      012F9101 
  57      30000131 
  57      0B013200 
  58 00af 330B0134 		.ascii	"3\013\0014\000\0015\241\0016\000\0017\240\0018\000\001"
  58      000135A1 
  58      01360001 
  58      37A00138 
  58      0001
  59 00c1 3904013A 		.ascii	"9\004\001:(\001;0\001<\014\001=\004\001>\017\001?y\001"
  59      28013B30 
  59      013C0C01 
  59      3D04013E 
  59      0F013F79 
  60 00d6 40280141 		.ascii	"@(\001A\036\001B/\001C\207\001D\000\001E\013\001F\000"
  60      1E01422F 
  60      01438701 
  60      44000145 
  60      0B014600 
  61 00ea 01470B01 		.ascii	"\001G\013\001H\000\001I\247\001J\000\001K\246\001L\000"
  61      48000149 
  61      A7014A00 
  61      014BA601 
  61      4C00
  62 00fc 014D0401 		.ascii	"\001M\004\001N\001\001O\000\001P\000\001Q\200\001R\011"
  62      4E01014F 
  62      00015000 
  62      01518001 
  62      5209
ARM GAS  C:\Users\Morroway\AppData\Local\Temp\ccih4NWY.s 			page 4


  63 010e 01530801 		.ascii	"\001S\010\001T\001\001U\000\001V\017\001Wy\001X\011"
  63      54010155 
  63      0001560F 
  63      01577901 
  63      5809
  64 0120 01590501 		.ascii	"\001Y\005\001Z\000\001[`\001\\\005\001]\321\001^\014"
  64      5A00015B 
  64      60015C05 
  64      015DD101 
  64      5E0C
  65 0132 015F3C01 		.ascii	"\001_<\001`\000\001a\320\001b\013\001c\003\001d(\001"
  65      60000161 
  65      D001620B 
  65      01630301 
  65      642801
  66 0145 65100166 		.ascii	"e\020\001f*\001g9\001h\013\001i\002\001j(\001k\020\001"
  66      2A016739 
  66      01680B01 
  66      6902016A 
  66      28016B10 
  67 015a 6C2A016D 		.ascii	"l*\001ma\001n\014\001o\000\001p\017\001qy\001r\000\001"
  67      61016E0C 
  67      016F0001 
  67      700F0171 
  67      79017200 
  68 016f 730B0174 		.ascii	"s\013\001t\000\001u\013\001v\000\001w\241\001x\000\001"
  68      0001750B 
  68      01760001 
  68      77A10178 
  68      0001
  69 0181 79A0017A 		.ascii	"y\240\001z\000\001{\004\001\377\004\001y\035\001{'\001"
  69      00017B04 
  69      01FF0401 
  69      791D017B 
  69      2701
  70 0193 960E0197 		.ascii	"\226\016\001\227\376\001\230\003\001\231\357\001\232"
  70      FE019803 
  70      0199EF01 
  70      9A
  71 01a0 02019B44 		.ascii	"\002\001\233D\001s\007\001p\001\001\377\001\001\000"
  71      01730701 
  71      700101FF 
  71      010100
  72 01af 0101FF00 		.ascii	"\001\001\377\000\000\000\000"
  72      000000
  73              		.section	.text.VL53L0X_GetVersion,"ax",%progbits
  74              		.align	1
  75              		.global	VL53L0X_GetVersion
  76              		.syntax unified
  77              		.thumb
  78              		.thumb_func
  80              	VL53L0X_GetVersion:
  81              	.LFB324:
  82              		.file 1 "Drivers/VL53L0X/core/src/vl53l0x_api.c"
   1:Drivers/VL53L0X/core/src/vl53l0x_api.c **** /*******************************************************************************
   2:Drivers/VL53L0X/core/src/vl53l0x_api.c ****  Copyright © 2016, STMicroelectronics International N.V.
   3:Drivers/VL53L0X/core/src/vl53l0x_api.c ****  All rights reserved.
ARM GAS  C:\Users\Morroway\AppData\Local\Temp\ccih4NWY.s 			page 5


   4:Drivers/VL53L0X/core/src/vl53l0x_api.c **** 
   5:Drivers/VL53L0X/core/src/vl53l0x_api.c ****  Redistribution and use in source and binary forms, with or without
   6:Drivers/VL53L0X/core/src/vl53l0x_api.c ****  modification, are permitted provided that the following conditions are met:
   7:Drivers/VL53L0X/core/src/vl53l0x_api.c ****  * Redistributions of source code must retain the above copyright
   8:Drivers/VL53L0X/core/src/vl53l0x_api.c ****  notice, this list of conditions and the following disclaimer.
   9:Drivers/VL53L0X/core/src/vl53l0x_api.c ****  * Redistributions in binary form must reproduce the above copyright
  10:Drivers/VL53L0X/core/src/vl53l0x_api.c ****  notice, this list of conditions and the following disclaimer in the
  11:Drivers/VL53L0X/core/src/vl53l0x_api.c ****  documentation and/or other materials provided with the distribution.
  12:Drivers/VL53L0X/core/src/vl53l0x_api.c ****  * Neither the name of STMicroelectronics nor the
  13:Drivers/VL53L0X/core/src/vl53l0x_api.c ****  names of its contributors may be used to endorse or promote products
  14:Drivers/VL53L0X/core/src/vl53l0x_api.c ****  derived from this software without specific prior written permission.
  15:Drivers/VL53L0X/core/src/vl53l0x_api.c **** 
  16:Drivers/VL53L0X/core/src/vl53l0x_api.c ****  THIS SOFTWARE IS PROVIDED BY THE COPYRIGHT HOLDERS AND CONTRIBUTORS "AS IS" AND
  17:Drivers/VL53L0X/core/src/vl53l0x_api.c ****  ANY EXPRESS OR IMPLIED WARRANTIES, INCLUDING, BUT NOT LIMITED TO, THE IMPLIED
  18:Drivers/VL53L0X/core/src/vl53l0x_api.c ****  WARRANTIES OF MERCHANTABILITY, FITNESS FOR A PARTICULAR PURPOSE, AND
  19:Drivers/VL53L0X/core/src/vl53l0x_api.c ****  NON-INFRINGEMENT OF INTELLECTUAL PROPERTY RIGHTS ARE DISCLAIMED.
  20:Drivers/VL53L0X/core/src/vl53l0x_api.c ****  IN NO EVENT SHALL STMICROELECTRONICS INTERNATIONAL N.V. BE LIABLE FOR ANY
  21:Drivers/VL53L0X/core/src/vl53l0x_api.c ****  DIRECT, INDIRECT, INCIDENTAL, SPECIAL, EXEMPLARY, OR CONSEQUENTIAL DAMAGES
  22:Drivers/VL53L0X/core/src/vl53l0x_api.c ****  (INCLUDING, BUT NOT LIMITED TO, PROCUREMENT OF SUBSTITUTE GOODS OR SERVICES;
  23:Drivers/VL53L0X/core/src/vl53l0x_api.c ****  LOSS OF USE, DATA, OR PROFITS; OR BUSINESS INTERRUPTION) HOWEVER CAUSED AND
  24:Drivers/VL53L0X/core/src/vl53l0x_api.c ****  ON ANY THEORY OF LIABILITY, WHETHER IN CONTRACT, STRICT LIABILITY, OR TORT
  25:Drivers/VL53L0X/core/src/vl53l0x_api.c ****  (INCLUDING NEGLIGENCE OR OTHERWISE) ARISING IN ANY WAY OUT OF THE USE OF THIS
  26:Drivers/VL53L0X/core/src/vl53l0x_api.c ****  SOFTWARE, EVEN IF ADVISED OF THE POSSIBILITY OF SUCH DAMAGE.
  27:Drivers/VL53L0X/core/src/vl53l0x_api.c ****  ******************************************************************************/
  28:Drivers/VL53L0X/core/src/vl53l0x_api.c **** 
  29:Drivers/VL53L0X/core/src/vl53l0x_api.c **** #include "vl53l0x_api.h"
  30:Drivers/VL53L0X/core/src/vl53l0x_api.c **** #include "vl53l0x_tuning.h"
  31:Drivers/VL53L0X/core/src/vl53l0x_api.c **** #include "vl53l0x_interrupt_threshold_settings.h"
  32:Drivers/VL53L0X/core/src/vl53l0x_api.c **** #include "vl53l0x_api_core.h"
  33:Drivers/VL53L0X/core/src/vl53l0x_api.c **** #include "vl53l0x_api_calibration.h"
  34:Drivers/VL53L0X/core/src/vl53l0x_api.c **** #include "vl53l0x_api_strings.h"
  35:Drivers/VL53L0X/core/src/vl53l0x_api.c **** 
  36:Drivers/VL53L0X/core/src/vl53l0x_api.c **** #ifndef __KERNEL__
  37:Drivers/VL53L0X/core/src/vl53l0x_api.c **** #include <stdlib.h>
  38:Drivers/VL53L0X/core/src/vl53l0x_api.c **** #endif
  39:Drivers/VL53L0X/core/src/vl53l0x_api.c **** #define LOG_FUNCTION_START(fmt, ...) \
  40:Drivers/VL53L0X/core/src/vl53l0x_api.c **** 	_LOG_FUNCTION_START(TRACE_MODULE_API, fmt, ##__VA_ARGS__)
  41:Drivers/VL53L0X/core/src/vl53l0x_api.c **** #define LOG_FUNCTION_END(status, ...) \
  42:Drivers/VL53L0X/core/src/vl53l0x_api.c **** 	_LOG_FUNCTION_END(TRACE_MODULE_API, status, ##__VA_ARGS__)
  43:Drivers/VL53L0X/core/src/vl53l0x_api.c **** #define LOG_FUNCTION_END_FMT(status, fmt, ...) \
  44:Drivers/VL53L0X/core/src/vl53l0x_api.c **** 	_LOG_FUNCTION_END_FMT(TRACE_MODULE_API, status, fmt, ##__VA_ARGS__)
  45:Drivers/VL53L0X/core/src/vl53l0x_api.c **** 
  46:Drivers/VL53L0X/core/src/vl53l0x_api.c **** #ifdef VL53L0X_LOG_ENABLE
  47:Drivers/VL53L0X/core/src/vl53l0x_api.c **** #define trace_print(level, ...) trace_print_module_function(TRACE_MODULE_API, \
  48:Drivers/VL53L0X/core/src/vl53l0x_api.c **** 	level, TRACE_FUNCTION_NONE, ##__VA_ARGS__)
  49:Drivers/VL53L0X/core/src/vl53l0x_api.c **** #endif
  50:Drivers/VL53L0X/core/src/vl53l0x_api.c **** 
  51:Drivers/VL53L0X/core/src/vl53l0x_api.c **** /* Group PAL General Functions */
  52:Drivers/VL53L0X/core/src/vl53l0x_api.c **** 
  53:Drivers/VL53L0X/core/src/vl53l0x_api.c **** VL53L0X_Error VL53L0X_GetVersion(VL53L0X_Version_t *pVersion)
  54:Drivers/VL53L0X/core/src/vl53l0x_api.c **** {
  83              		.loc 1 54 1
  84              		.cfi_startproc
  85              		@ args = 0, pretend = 0, frame = 16
  86              		@ frame_needed = 1, uses_anonymous_args = 0
  87              		@ link register save eliminated.
  88 0000 80B4     		push	{r7}
ARM GAS  C:\Users\Morroway\AppData\Local\Temp\ccih4NWY.s 			page 6


  89              		.cfi_def_cfa_offset 4
  90              		.cfi_offset 7, -4
  91 0002 85B0     		sub	sp, sp, #20
  92              		.cfi_def_cfa_offset 24
  93 0004 00AF     		add	r7, sp, #0
  94              		.cfi_def_cfa_register 7
  95 0006 7860     		str	r0, [r7, #4]
  55:Drivers/VL53L0X/core/src/vl53l0x_api.c **** 	VL53L0X_Error Status = VL53L0X_ERROR_NONE;
  96              		.loc 1 55 16
  97 0008 0023     		movs	r3, #0
  98 000a FB73     		strb	r3, [r7, #15]
  56:Drivers/VL53L0X/core/src/vl53l0x_api.c **** 	LOG_FUNCTION_START("");
  57:Drivers/VL53L0X/core/src/vl53l0x_api.c **** 
  58:Drivers/VL53L0X/core/src/vl53l0x_api.c **** 	pVersion->major = VL53L0X_IMPLEMENTATION_VER_MAJOR;
  99              		.loc 1 58 18
 100 000c 7B68     		ldr	r3, [r7, #4]
 101 000e 0122     		movs	r2, #1
 102 0010 1A71     		strb	r2, [r3, #4]
  59:Drivers/VL53L0X/core/src/vl53l0x_api.c **** 	pVersion->minor = VL53L0X_IMPLEMENTATION_VER_MINOR;
 103              		.loc 1 59 18
 104 0012 7B68     		ldr	r3, [r7, #4]
 105 0014 0022     		movs	r2, #0
 106 0016 5A71     		strb	r2, [r3, #5]
  60:Drivers/VL53L0X/core/src/vl53l0x_api.c **** 	pVersion->build = VL53L0X_IMPLEMENTATION_VER_SUB;
 107              		.loc 1 60 18
 108 0018 7B68     		ldr	r3, [r7, #4]
 109 001a 0222     		movs	r2, #2
 110 001c 9A71     		strb	r2, [r3, #6]
  61:Drivers/VL53L0X/core/src/vl53l0x_api.c **** 
  62:Drivers/VL53L0X/core/src/vl53l0x_api.c **** 	pVersion->revision = VL53L0X_IMPLEMENTATION_VER_REVISION;
 111              		.loc 1 62 21
 112 001e 7B68     		ldr	r3, [r7, #4]
 113 0020 41F2D722 		movw	r2, #4823
 114 0024 1A60     		str	r2, [r3]
  63:Drivers/VL53L0X/core/src/vl53l0x_api.c **** 
  64:Drivers/VL53L0X/core/src/vl53l0x_api.c **** 	LOG_FUNCTION_END(Status);
  65:Drivers/VL53L0X/core/src/vl53l0x_api.c **** 	return Status;
 115              		.loc 1 65 9
 116 0026 97F90F30 		ldrsb	r3, [r7, #15]
  66:Drivers/VL53L0X/core/src/vl53l0x_api.c **** }
 117              		.loc 1 66 1
 118 002a 1846     		mov	r0, r3
 119 002c 1437     		adds	r7, r7, #20
 120              		.cfi_def_cfa_offset 4
 121 002e BD46     		mov	sp, r7
 122              		.cfi_def_cfa_register 13
 123              		@ sp needed
 124 0030 5DF8047B 		ldr	r7, [sp], #4
 125              		.cfi_restore 7
 126              		.cfi_def_cfa_offset 0
 127 0034 7047     		bx	lr
 128              		.cfi_endproc
 129              	.LFE324:
 131              		.section	.text.VL53L0X_GetPalSpecVersion,"ax",%progbits
 132              		.align	1
 133              		.global	VL53L0X_GetPalSpecVersion
 134              		.syntax unified
ARM GAS  C:\Users\Morroway\AppData\Local\Temp\ccih4NWY.s 			page 7


 135              		.thumb
 136              		.thumb_func
 138              	VL53L0X_GetPalSpecVersion:
 139              	.LFB325:
  67:Drivers/VL53L0X/core/src/vl53l0x_api.c **** 
  68:Drivers/VL53L0X/core/src/vl53l0x_api.c **** VL53L0X_Error VL53L0X_GetPalSpecVersion(VL53L0X_Version_t *pPalSpecVersion)
  69:Drivers/VL53L0X/core/src/vl53l0x_api.c **** {
 140              		.loc 1 69 1
 141              		.cfi_startproc
 142              		@ args = 0, pretend = 0, frame = 16
 143              		@ frame_needed = 1, uses_anonymous_args = 0
 144              		@ link register save eliminated.
 145 0000 80B4     		push	{r7}
 146              		.cfi_def_cfa_offset 4
 147              		.cfi_offset 7, -4
 148 0002 85B0     		sub	sp, sp, #20
 149              		.cfi_def_cfa_offset 24
 150 0004 00AF     		add	r7, sp, #0
 151              		.cfi_def_cfa_register 7
 152 0006 7860     		str	r0, [r7, #4]
  70:Drivers/VL53L0X/core/src/vl53l0x_api.c **** 	VL53L0X_Error Status = VL53L0X_ERROR_NONE;
 153              		.loc 1 70 16
 154 0008 0023     		movs	r3, #0
 155 000a FB73     		strb	r3, [r7, #15]
  71:Drivers/VL53L0X/core/src/vl53l0x_api.c **** 
  72:Drivers/VL53L0X/core/src/vl53l0x_api.c **** 	LOG_FUNCTION_START("");
  73:Drivers/VL53L0X/core/src/vl53l0x_api.c **** 
  74:Drivers/VL53L0X/core/src/vl53l0x_api.c **** 	pPalSpecVersion->major = VL53L0X_SPECIFICATION_VER_MAJOR;
 156              		.loc 1 74 25
 157 000c 7B68     		ldr	r3, [r7, #4]
 158 000e 0122     		movs	r2, #1
 159 0010 1A71     		strb	r2, [r3, #4]
  75:Drivers/VL53L0X/core/src/vl53l0x_api.c **** 	pPalSpecVersion->minor = VL53L0X_SPECIFICATION_VER_MINOR;
 160              		.loc 1 75 25
 161 0012 7B68     		ldr	r3, [r7, #4]
 162 0014 0222     		movs	r2, #2
 163 0016 5A71     		strb	r2, [r3, #5]
  76:Drivers/VL53L0X/core/src/vl53l0x_api.c **** 	pPalSpecVersion->build = VL53L0X_SPECIFICATION_VER_SUB;
 164              		.loc 1 76 25
 165 0018 7B68     		ldr	r3, [r7, #4]
 166 001a 0722     		movs	r2, #7
 167 001c 9A71     		strb	r2, [r3, #6]
  77:Drivers/VL53L0X/core/src/vl53l0x_api.c **** 
  78:Drivers/VL53L0X/core/src/vl53l0x_api.c **** 	pPalSpecVersion->revision = VL53L0X_SPECIFICATION_VER_REVISION;
 168              		.loc 1 78 28
 169 001e 7B68     		ldr	r3, [r7, #4]
 170 0020 4FF4B462 		mov	r2, #1440
 171 0024 1A60     		str	r2, [r3]
  79:Drivers/VL53L0X/core/src/vl53l0x_api.c **** 
  80:Drivers/VL53L0X/core/src/vl53l0x_api.c **** 	LOG_FUNCTION_END(Status);
  81:Drivers/VL53L0X/core/src/vl53l0x_api.c **** 	return Status;
 172              		.loc 1 81 9
 173 0026 97F90F30 		ldrsb	r3, [r7, #15]
  82:Drivers/VL53L0X/core/src/vl53l0x_api.c **** }
 174              		.loc 1 82 1
 175 002a 1846     		mov	r0, r3
 176 002c 1437     		adds	r7, r7, #20
ARM GAS  C:\Users\Morroway\AppData\Local\Temp\ccih4NWY.s 			page 8


 177              		.cfi_def_cfa_offset 4
 178 002e BD46     		mov	sp, r7
 179              		.cfi_def_cfa_register 13
 180              		@ sp needed
 181 0030 5DF8047B 		ldr	r7, [sp], #4
 182              		.cfi_restore 7
 183              		.cfi_def_cfa_offset 0
 184 0034 7047     		bx	lr
 185              		.cfi_endproc
 186              	.LFE325:
 188              		.section	.text.VL53L0X_GetProductRevision,"ax",%progbits
 189              		.align	1
 190              		.global	VL53L0X_GetProductRevision
 191              		.syntax unified
 192              		.thumb
 193              		.thumb_func
 195              	VL53L0X_GetProductRevision:
 196              	.LFB326:
  83:Drivers/VL53L0X/core/src/vl53l0x_api.c **** 
  84:Drivers/VL53L0X/core/src/vl53l0x_api.c **** VL53L0X_Error VL53L0X_GetProductRevision(VL53L0X_DEV Dev,
  85:Drivers/VL53L0X/core/src/vl53l0x_api.c **** 	uint8_t *pProductRevisionMajor, uint8_t *pProductRevisionMinor)
  86:Drivers/VL53L0X/core/src/vl53l0x_api.c **** {
 197              		.loc 1 86 1
 198              		.cfi_startproc
 199              		@ args = 0, pretend = 0, frame = 24
 200              		@ frame_needed = 1, uses_anonymous_args = 0
 201 0000 80B5     		push	{r7, lr}
 202              		.cfi_def_cfa_offset 8
 203              		.cfi_offset 7, -8
 204              		.cfi_offset 14, -4
 205 0002 86B0     		sub	sp, sp, #24
 206              		.cfi_def_cfa_offset 32
 207 0004 00AF     		add	r7, sp, #0
 208              		.cfi_def_cfa_register 7
 209 0006 F860     		str	r0, [r7, #12]
 210 0008 B960     		str	r1, [r7, #8]
 211 000a 7A60     		str	r2, [r7, #4]
  87:Drivers/VL53L0X/core/src/vl53l0x_api.c **** 	VL53L0X_Error Status = VL53L0X_ERROR_NONE;
 212              		.loc 1 87 16
 213 000c 0023     		movs	r3, #0
 214 000e FB75     		strb	r3, [r7, #23]
  88:Drivers/VL53L0X/core/src/vl53l0x_api.c **** 	uint8_t revision_id;
  89:Drivers/VL53L0X/core/src/vl53l0x_api.c **** 
  90:Drivers/VL53L0X/core/src/vl53l0x_api.c **** 	LOG_FUNCTION_START("");
  91:Drivers/VL53L0X/core/src/vl53l0x_api.c **** 
  92:Drivers/VL53L0X/core/src/vl53l0x_api.c **** 	Status = VL53L0X_RdByte(Dev, VL53L0X_REG_IDENTIFICATION_REVISION_ID,
 215              		.loc 1 92 11
 216 0010 07F11603 		add	r3, r7, #22
 217 0014 1A46     		mov	r2, r3
 218 0016 C221     		movs	r1, #194
 219 0018 F868     		ldr	r0, [r7, #12]
 220 001a FFF7FEFF 		bl	VL53L0X_RdByte
 221 001e 0346     		mov	r3, r0
 222 0020 FB75     		strb	r3, [r7, #23]
  93:Drivers/VL53L0X/core/src/vl53l0x_api.c **** 		&revision_id);
  94:Drivers/VL53L0X/core/src/vl53l0x_api.c **** 	*pProductRevisionMajor = 1;
 223              		.loc 1 94 25
ARM GAS  C:\Users\Morroway\AppData\Local\Temp\ccih4NWY.s 			page 9


 224 0022 BB68     		ldr	r3, [r7, #8]
 225 0024 0122     		movs	r2, #1
 226 0026 1A70     		strb	r2, [r3]
  95:Drivers/VL53L0X/core/src/vl53l0x_api.c **** 	*pProductRevisionMinor = (revision_id & 0xF0) >> 4;
 227              		.loc 1 95 48
 228 0028 BB7D     		ldrb	r3, [r7, #22]	@ zero_extendqisi2
 229 002a 1B09     		lsrs	r3, r3, #4
 230 002c DAB2     		uxtb	r2, r3
 231              		.loc 1 95 25
 232 002e 7B68     		ldr	r3, [r7, #4]
 233 0030 1A70     		strb	r2, [r3]
  96:Drivers/VL53L0X/core/src/vl53l0x_api.c **** 
  97:Drivers/VL53L0X/core/src/vl53l0x_api.c **** 	LOG_FUNCTION_END(Status);
  98:Drivers/VL53L0X/core/src/vl53l0x_api.c **** 	return Status;
 234              		.loc 1 98 9
 235 0032 97F91730 		ldrsb	r3, [r7, #23]
  99:Drivers/VL53L0X/core/src/vl53l0x_api.c **** 
 100:Drivers/VL53L0X/core/src/vl53l0x_api.c **** }
 236              		.loc 1 100 1
 237 0036 1846     		mov	r0, r3
 238 0038 1837     		adds	r7, r7, #24
 239              		.cfi_def_cfa_offset 8
 240 003a BD46     		mov	sp, r7
 241              		.cfi_def_cfa_register 13
 242              		@ sp needed
 243 003c 80BD     		pop	{r7, pc}
 244              		.cfi_endproc
 245              	.LFE326:
 247              		.section	.text.VL53L0X_GetDeviceInfo,"ax",%progbits
 248              		.align	1
 249              		.global	VL53L0X_GetDeviceInfo
 250              		.syntax unified
 251              		.thumb
 252              		.thumb_func
 254              	VL53L0X_GetDeviceInfo:
 255              	.LFB327:
 101:Drivers/VL53L0X/core/src/vl53l0x_api.c **** 
 102:Drivers/VL53L0X/core/src/vl53l0x_api.c **** VL53L0X_Error VL53L0X_GetDeviceInfo(VL53L0X_DEV Dev,
 103:Drivers/VL53L0X/core/src/vl53l0x_api.c **** 	VL53L0X_DeviceInfo_t *pVL53L0X_DeviceInfo)
 104:Drivers/VL53L0X/core/src/vl53l0x_api.c **** {
 256              		.loc 1 104 1
 257              		.cfi_startproc
 258              		@ args = 0, pretend = 0, frame = 16
 259              		@ frame_needed = 1, uses_anonymous_args = 0
 260 0000 80B5     		push	{r7, lr}
 261              		.cfi_def_cfa_offset 8
 262              		.cfi_offset 7, -8
 263              		.cfi_offset 14, -4
 264 0002 84B0     		sub	sp, sp, #16
 265              		.cfi_def_cfa_offset 24
 266 0004 00AF     		add	r7, sp, #0
 267              		.cfi_def_cfa_register 7
 268 0006 7860     		str	r0, [r7, #4]
 269 0008 3960     		str	r1, [r7]
 105:Drivers/VL53L0X/core/src/vl53l0x_api.c **** 	VL53L0X_Error Status = VL53L0X_ERROR_NONE;
 270              		.loc 1 105 16
 271 000a 0023     		movs	r3, #0
ARM GAS  C:\Users\Morroway\AppData\Local\Temp\ccih4NWY.s 			page 10


 272 000c FB73     		strb	r3, [r7, #15]
 106:Drivers/VL53L0X/core/src/vl53l0x_api.c **** 	LOG_FUNCTION_START("");
 107:Drivers/VL53L0X/core/src/vl53l0x_api.c **** 
 108:Drivers/VL53L0X/core/src/vl53l0x_api.c **** 	Status = VL53L0X_get_device_info(Dev, pVL53L0X_DeviceInfo);
 273              		.loc 1 108 11
 274 000e 3968     		ldr	r1, [r7]
 275 0010 7868     		ldr	r0, [r7, #4]
 276 0012 FFF7FEFF 		bl	VL53L0X_get_device_info
 277 0016 0346     		mov	r3, r0
 278 0018 FB73     		strb	r3, [r7, #15]
 109:Drivers/VL53L0X/core/src/vl53l0x_api.c **** 
 110:Drivers/VL53L0X/core/src/vl53l0x_api.c **** 	LOG_FUNCTION_END(Status);
 111:Drivers/VL53L0X/core/src/vl53l0x_api.c **** 	return Status;
 279              		.loc 1 111 9
 280 001a 97F90F30 		ldrsb	r3, [r7, #15]
 112:Drivers/VL53L0X/core/src/vl53l0x_api.c **** }
 281              		.loc 1 112 1
 282 001e 1846     		mov	r0, r3
 283 0020 1037     		adds	r7, r7, #16
 284              		.cfi_def_cfa_offset 8
 285 0022 BD46     		mov	sp, r7
 286              		.cfi_def_cfa_register 13
 287              		@ sp needed
 288 0024 80BD     		pop	{r7, pc}
 289              		.cfi_endproc
 290              	.LFE327:
 292              		.section	.text.VL53L0X_GetDeviceErrorStatus,"ax",%progbits
 293              		.align	1
 294              		.global	VL53L0X_GetDeviceErrorStatus
 295              		.syntax unified
 296              		.thumb
 297              		.thumb_func
 299              	VL53L0X_GetDeviceErrorStatus:
 300              	.LFB328:
 113:Drivers/VL53L0X/core/src/vl53l0x_api.c **** 
 114:Drivers/VL53L0X/core/src/vl53l0x_api.c **** VL53L0X_Error VL53L0X_GetDeviceErrorStatus(VL53L0X_DEV Dev,
 115:Drivers/VL53L0X/core/src/vl53l0x_api.c **** 	VL53L0X_DeviceError *pDeviceErrorStatus)
 116:Drivers/VL53L0X/core/src/vl53l0x_api.c **** {
 301              		.loc 1 116 1
 302              		.cfi_startproc
 303              		@ args = 0, pretend = 0, frame = 16
 304              		@ frame_needed = 1, uses_anonymous_args = 0
 305 0000 80B5     		push	{r7, lr}
 306              		.cfi_def_cfa_offset 8
 307              		.cfi_offset 7, -8
 308              		.cfi_offset 14, -4
 309 0002 84B0     		sub	sp, sp, #16
 310              		.cfi_def_cfa_offset 24
 311 0004 00AF     		add	r7, sp, #0
 312              		.cfi_def_cfa_register 7
 313 0006 7860     		str	r0, [r7, #4]
 314 0008 3960     		str	r1, [r7]
 117:Drivers/VL53L0X/core/src/vl53l0x_api.c **** 	VL53L0X_Error Status = VL53L0X_ERROR_NONE;
 315              		.loc 1 117 16
 316 000a 0023     		movs	r3, #0
 317 000c FB73     		strb	r3, [r7, #15]
 118:Drivers/VL53L0X/core/src/vl53l0x_api.c **** 	uint8_t RangeStatus;
ARM GAS  C:\Users\Morroway\AppData\Local\Temp\ccih4NWY.s 			page 11


 119:Drivers/VL53L0X/core/src/vl53l0x_api.c **** 
 120:Drivers/VL53L0X/core/src/vl53l0x_api.c **** 	LOG_FUNCTION_START("");
 121:Drivers/VL53L0X/core/src/vl53l0x_api.c **** 
 122:Drivers/VL53L0X/core/src/vl53l0x_api.c **** 	Status = VL53L0X_RdByte(Dev, VL53L0X_REG_RESULT_RANGE_STATUS,
 318              		.loc 1 122 11
 319 000e 07F10E03 		add	r3, r7, #14
 320 0012 1A46     		mov	r2, r3
 321 0014 1421     		movs	r1, #20
 322 0016 7868     		ldr	r0, [r7, #4]
 323 0018 FFF7FEFF 		bl	VL53L0X_RdByte
 324 001c 0346     		mov	r3, r0
 325 001e FB73     		strb	r3, [r7, #15]
 123:Drivers/VL53L0X/core/src/vl53l0x_api.c **** 		&RangeStatus);
 124:Drivers/VL53L0X/core/src/vl53l0x_api.c **** 
 125:Drivers/VL53L0X/core/src/vl53l0x_api.c **** 	*pDeviceErrorStatus = (VL53L0X_DeviceError)((RangeStatus & 0x78) >> 3);
 326              		.loc 1 125 67
 327 0020 BB7B     		ldrb	r3, [r7, #14]	@ zero_extendqisi2
 328 0022 DB10     		asrs	r3, r3, #3
 329              		.loc 1 125 24
 330 0024 DBB2     		uxtb	r3, r3
 331 0026 03F00F03 		and	r3, r3, #15
 332 002a DAB2     		uxtb	r2, r3
 333              		.loc 1 125 22
 334 002c 3B68     		ldr	r3, [r7]
 335 002e 1A70     		strb	r2, [r3]
 126:Drivers/VL53L0X/core/src/vl53l0x_api.c **** 
 127:Drivers/VL53L0X/core/src/vl53l0x_api.c **** 	LOG_FUNCTION_END(Status);
 128:Drivers/VL53L0X/core/src/vl53l0x_api.c **** 	return Status;
 336              		.loc 1 128 9
 337 0030 97F90F30 		ldrsb	r3, [r7, #15]
 129:Drivers/VL53L0X/core/src/vl53l0x_api.c **** }
 338              		.loc 1 129 1
 339 0034 1846     		mov	r0, r3
 340 0036 1037     		adds	r7, r7, #16
 341              		.cfi_def_cfa_offset 8
 342 0038 BD46     		mov	sp, r7
 343              		.cfi_def_cfa_register 13
 344              		@ sp needed
 345 003a 80BD     		pop	{r7, pc}
 346              		.cfi_endproc
 347              	.LFE328:
 349              		.section	.text.VL53L0X_GetDeviceErrorString,"ax",%progbits
 350              		.align	1
 351              		.global	VL53L0X_GetDeviceErrorString
 352              		.syntax unified
 353              		.thumb
 354              		.thumb_func
 356              	VL53L0X_GetDeviceErrorString:
 357              	.LFB329:
 130:Drivers/VL53L0X/core/src/vl53l0x_api.c **** 
 131:Drivers/VL53L0X/core/src/vl53l0x_api.c **** 
 132:Drivers/VL53L0X/core/src/vl53l0x_api.c **** VL53L0X_Error VL53L0X_GetDeviceErrorString(VL53L0X_DeviceError ErrorCode,
 133:Drivers/VL53L0X/core/src/vl53l0x_api.c **** 	char *pDeviceErrorString)
 134:Drivers/VL53L0X/core/src/vl53l0x_api.c **** {
 358              		.loc 1 134 1
 359              		.cfi_startproc
 360              		@ args = 0, pretend = 0, frame = 16
ARM GAS  C:\Users\Morroway\AppData\Local\Temp\ccih4NWY.s 			page 12


 361              		@ frame_needed = 1, uses_anonymous_args = 0
 362 0000 80B5     		push	{r7, lr}
 363              		.cfi_def_cfa_offset 8
 364              		.cfi_offset 7, -8
 365              		.cfi_offset 14, -4
 366 0002 84B0     		sub	sp, sp, #16
 367              		.cfi_def_cfa_offset 24
 368 0004 00AF     		add	r7, sp, #0
 369              		.cfi_def_cfa_register 7
 370 0006 0346     		mov	r3, r0
 371 0008 3960     		str	r1, [r7]
 372 000a FB71     		strb	r3, [r7, #7]
 135:Drivers/VL53L0X/core/src/vl53l0x_api.c **** 	VL53L0X_Error Status = VL53L0X_ERROR_NONE;
 373              		.loc 1 135 16
 374 000c 0023     		movs	r3, #0
 375 000e FB73     		strb	r3, [r7, #15]
 136:Drivers/VL53L0X/core/src/vl53l0x_api.c **** 
 137:Drivers/VL53L0X/core/src/vl53l0x_api.c **** 	LOG_FUNCTION_START("");
 138:Drivers/VL53L0X/core/src/vl53l0x_api.c **** 
 139:Drivers/VL53L0X/core/src/vl53l0x_api.c **** 	Status = VL53L0X_get_device_error_string(ErrorCode, pDeviceErrorString);
 376              		.loc 1 139 11
 377 0010 FB79     		ldrb	r3, [r7, #7]	@ zero_extendqisi2
 378 0012 3968     		ldr	r1, [r7]
 379 0014 1846     		mov	r0, r3
 380 0016 FFF7FEFF 		bl	VL53L0X_get_device_error_string
 381 001a 0346     		mov	r3, r0
 382 001c FB73     		strb	r3, [r7, #15]
 140:Drivers/VL53L0X/core/src/vl53l0x_api.c **** 
 141:Drivers/VL53L0X/core/src/vl53l0x_api.c **** 	LOG_FUNCTION_END(Status);
 142:Drivers/VL53L0X/core/src/vl53l0x_api.c **** 	return Status;
 383              		.loc 1 142 9
 384 001e 97F90F30 		ldrsb	r3, [r7, #15]
 143:Drivers/VL53L0X/core/src/vl53l0x_api.c **** }
 385              		.loc 1 143 1
 386 0022 1846     		mov	r0, r3
 387 0024 1037     		adds	r7, r7, #16
 388              		.cfi_def_cfa_offset 8
 389 0026 BD46     		mov	sp, r7
 390              		.cfi_def_cfa_register 13
 391              		@ sp needed
 392 0028 80BD     		pop	{r7, pc}
 393              		.cfi_endproc
 394              	.LFE329:
 396              		.section	.text.VL53L0X_GetRangeStatusString,"ax",%progbits
 397              		.align	1
 398              		.global	VL53L0X_GetRangeStatusString
 399              		.syntax unified
 400              		.thumb
 401              		.thumb_func
 403              	VL53L0X_GetRangeStatusString:
 404              	.LFB330:
 144:Drivers/VL53L0X/core/src/vl53l0x_api.c **** 
 145:Drivers/VL53L0X/core/src/vl53l0x_api.c **** VL53L0X_Error VL53L0X_GetRangeStatusString(uint8_t RangeStatus,
 146:Drivers/VL53L0X/core/src/vl53l0x_api.c **** 	char *pRangeStatusString)
 147:Drivers/VL53L0X/core/src/vl53l0x_api.c **** {
 405              		.loc 1 147 1
 406              		.cfi_startproc
ARM GAS  C:\Users\Morroway\AppData\Local\Temp\ccih4NWY.s 			page 13


 407              		@ args = 0, pretend = 0, frame = 16
 408              		@ frame_needed = 1, uses_anonymous_args = 0
 409 0000 80B5     		push	{r7, lr}
 410              		.cfi_def_cfa_offset 8
 411              		.cfi_offset 7, -8
 412              		.cfi_offset 14, -4
 413 0002 84B0     		sub	sp, sp, #16
 414              		.cfi_def_cfa_offset 24
 415 0004 00AF     		add	r7, sp, #0
 416              		.cfi_def_cfa_register 7
 417 0006 0346     		mov	r3, r0
 418 0008 3960     		str	r1, [r7]
 419 000a FB71     		strb	r3, [r7, #7]
 148:Drivers/VL53L0X/core/src/vl53l0x_api.c **** 	VL53L0X_Error Status = VL53L0X_ERROR_NONE;
 420              		.loc 1 148 16
 421 000c 0023     		movs	r3, #0
 422 000e FB73     		strb	r3, [r7, #15]
 149:Drivers/VL53L0X/core/src/vl53l0x_api.c **** 	LOG_FUNCTION_START("");
 150:Drivers/VL53L0X/core/src/vl53l0x_api.c **** 
 151:Drivers/VL53L0X/core/src/vl53l0x_api.c **** 	Status = VL53L0X_get_range_status_string(RangeStatus,
 423              		.loc 1 151 11
 424 0010 FB79     		ldrb	r3, [r7, #7]	@ zero_extendqisi2
 425 0012 3968     		ldr	r1, [r7]
 426 0014 1846     		mov	r0, r3
 427 0016 FFF7FEFF 		bl	VL53L0X_get_range_status_string
 428 001a 0346     		mov	r3, r0
 429 001c FB73     		strb	r3, [r7, #15]
 152:Drivers/VL53L0X/core/src/vl53l0x_api.c **** 		pRangeStatusString);
 153:Drivers/VL53L0X/core/src/vl53l0x_api.c **** 
 154:Drivers/VL53L0X/core/src/vl53l0x_api.c **** 	LOG_FUNCTION_END(Status);
 155:Drivers/VL53L0X/core/src/vl53l0x_api.c **** 	return Status;
 430              		.loc 1 155 9
 431 001e 97F90F30 		ldrsb	r3, [r7, #15]
 156:Drivers/VL53L0X/core/src/vl53l0x_api.c **** }
 432              		.loc 1 156 1
 433 0022 1846     		mov	r0, r3
 434 0024 1037     		adds	r7, r7, #16
 435              		.cfi_def_cfa_offset 8
 436 0026 BD46     		mov	sp, r7
 437              		.cfi_def_cfa_register 13
 438              		@ sp needed
 439 0028 80BD     		pop	{r7, pc}
 440              		.cfi_endproc
 441              	.LFE330:
 443              		.section	.text.VL53L0X_GetPalErrorString,"ax",%progbits
 444              		.align	1
 445              		.global	VL53L0X_GetPalErrorString
 446              		.syntax unified
 447              		.thumb
 448              		.thumb_func
 450              	VL53L0X_GetPalErrorString:
 451              	.LFB331:
 157:Drivers/VL53L0X/core/src/vl53l0x_api.c **** 
 158:Drivers/VL53L0X/core/src/vl53l0x_api.c **** VL53L0X_Error VL53L0X_GetPalErrorString(VL53L0X_Error PalErrorCode,
 159:Drivers/VL53L0X/core/src/vl53l0x_api.c **** 	char *pPalErrorString)
 160:Drivers/VL53L0X/core/src/vl53l0x_api.c **** {
 452              		.loc 1 160 1
ARM GAS  C:\Users\Morroway\AppData\Local\Temp\ccih4NWY.s 			page 14


 453              		.cfi_startproc
 454              		@ args = 0, pretend = 0, frame = 16
 455              		@ frame_needed = 1, uses_anonymous_args = 0
 456 0000 80B5     		push	{r7, lr}
 457              		.cfi_def_cfa_offset 8
 458              		.cfi_offset 7, -8
 459              		.cfi_offset 14, -4
 460 0002 84B0     		sub	sp, sp, #16
 461              		.cfi_def_cfa_offset 24
 462 0004 00AF     		add	r7, sp, #0
 463              		.cfi_def_cfa_register 7
 464 0006 0346     		mov	r3, r0
 465 0008 3960     		str	r1, [r7]
 466 000a FB71     		strb	r3, [r7, #7]
 161:Drivers/VL53L0X/core/src/vl53l0x_api.c **** 	VL53L0X_Error Status = VL53L0X_ERROR_NONE;
 467              		.loc 1 161 16
 468 000c 0023     		movs	r3, #0
 469 000e FB73     		strb	r3, [r7, #15]
 162:Drivers/VL53L0X/core/src/vl53l0x_api.c **** 	LOG_FUNCTION_START("");
 163:Drivers/VL53L0X/core/src/vl53l0x_api.c **** 
 164:Drivers/VL53L0X/core/src/vl53l0x_api.c **** 	Status = VL53L0X_get_pal_error_string(PalErrorCode, pPalErrorString);
 470              		.loc 1 164 11
 471 0010 97F90730 		ldrsb	r3, [r7, #7]
 472 0014 3968     		ldr	r1, [r7]
 473 0016 1846     		mov	r0, r3
 474 0018 FFF7FEFF 		bl	VL53L0X_get_pal_error_string
 475 001c 0346     		mov	r3, r0
 476 001e FB73     		strb	r3, [r7, #15]
 165:Drivers/VL53L0X/core/src/vl53l0x_api.c **** 
 166:Drivers/VL53L0X/core/src/vl53l0x_api.c **** 	LOG_FUNCTION_END(Status);
 167:Drivers/VL53L0X/core/src/vl53l0x_api.c **** 	return Status;
 477              		.loc 1 167 9
 478 0020 97F90F30 		ldrsb	r3, [r7, #15]
 168:Drivers/VL53L0X/core/src/vl53l0x_api.c **** }
 479              		.loc 1 168 1
 480 0024 1846     		mov	r0, r3
 481 0026 1037     		adds	r7, r7, #16
 482              		.cfi_def_cfa_offset 8
 483 0028 BD46     		mov	sp, r7
 484              		.cfi_def_cfa_register 13
 485              		@ sp needed
 486 002a 80BD     		pop	{r7, pc}
 487              		.cfi_endproc
 488              	.LFE331:
 490              		.section	.text.VL53L0X_GetPalStateString,"ax",%progbits
 491              		.align	1
 492              		.global	VL53L0X_GetPalStateString
 493              		.syntax unified
 494              		.thumb
 495              		.thumb_func
 497              	VL53L0X_GetPalStateString:
 498              	.LFB332:
 169:Drivers/VL53L0X/core/src/vl53l0x_api.c **** 
 170:Drivers/VL53L0X/core/src/vl53l0x_api.c **** VL53L0X_Error VL53L0X_GetPalStateString(VL53L0X_State PalStateCode,
 171:Drivers/VL53L0X/core/src/vl53l0x_api.c **** 	char *pPalStateString)
 172:Drivers/VL53L0X/core/src/vl53l0x_api.c **** {
 499              		.loc 1 172 1
ARM GAS  C:\Users\Morroway\AppData\Local\Temp\ccih4NWY.s 			page 15


 500              		.cfi_startproc
 501              		@ args = 0, pretend = 0, frame = 16
 502              		@ frame_needed = 1, uses_anonymous_args = 0
 503 0000 80B5     		push	{r7, lr}
 504              		.cfi_def_cfa_offset 8
 505              		.cfi_offset 7, -8
 506              		.cfi_offset 14, -4
 507 0002 84B0     		sub	sp, sp, #16
 508              		.cfi_def_cfa_offset 24
 509 0004 00AF     		add	r7, sp, #0
 510              		.cfi_def_cfa_register 7
 511 0006 0346     		mov	r3, r0
 512 0008 3960     		str	r1, [r7]
 513 000a FB71     		strb	r3, [r7, #7]
 173:Drivers/VL53L0X/core/src/vl53l0x_api.c **** 	VL53L0X_Error Status = VL53L0X_ERROR_NONE;
 514              		.loc 1 173 16
 515 000c 0023     		movs	r3, #0
 516 000e FB73     		strb	r3, [r7, #15]
 174:Drivers/VL53L0X/core/src/vl53l0x_api.c **** 	LOG_FUNCTION_START("");
 175:Drivers/VL53L0X/core/src/vl53l0x_api.c **** 
 176:Drivers/VL53L0X/core/src/vl53l0x_api.c **** 	Status = VL53L0X_get_pal_state_string(PalStateCode, pPalStateString);
 517              		.loc 1 176 11
 518 0010 FB79     		ldrb	r3, [r7, #7]	@ zero_extendqisi2
 519 0012 3968     		ldr	r1, [r7]
 520 0014 1846     		mov	r0, r3
 521 0016 FFF7FEFF 		bl	VL53L0X_get_pal_state_string
 522 001a 0346     		mov	r3, r0
 523 001c FB73     		strb	r3, [r7, #15]
 177:Drivers/VL53L0X/core/src/vl53l0x_api.c **** 
 178:Drivers/VL53L0X/core/src/vl53l0x_api.c **** 	LOG_FUNCTION_END(Status);
 179:Drivers/VL53L0X/core/src/vl53l0x_api.c **** 	return Status;
 524              		.loc 1 179 9
 525 001e 97F90F30 		ldrsb	r3, [r7, #15]
 180:Drivers/VL53L0X/core/src/vl53l0x_api.c **** }
 526              		.loc 1 180 1
 527 0022 1846     		mov	r0, r3
 528 0024 1037     		adds	r7, r7, #16
 529              		.cfi_def_cfa_offset 8
 530 0026 BD46     		mov	sp, r7
 531              		.cfi_def_cfa_register 13
 532              		@ sp needed
 533 0028 80BD     		pop	{r7, pc}
 534              		.cfi_endproc
 535              	.LFE332:
 537              		.section	.text.VL53L0X_GetPalState,"ax",%progbits
 538              		.align	1
 539              		.global	VL53L0X_GetPalState
 540              		.syntax unified
 541              		.thumb
 542              		.thumb_func
 544              	VL53L0X_GetPalState:
 545              	.LFB333:
 181:Drivers/VL53L0X/core/src/vl53l0x_api.c **** 
 182:Drivers/VL53L0X/core/src/vl53l0x_api.c **** VL53L0X_Error VL53L0X_GetPalState(VL53L0X_DEV Dev, VL53L0X_State *pPalState)
 183:Drivers/VL53L0X/core/src/vl53l0x_api.c **** {
 546              		.loc 1 183 1
 547              		.cfi_startproc
ARM GAS  C:\Users\Morroway\AppData\Local\Temp\ccih4NWY.s 			page 16


 548              		@ args = 0, pretend = 0, frame = 16
 549              		@ frame_needed = 1, uses_anonymous_args = 0
 550              		@ link register save eliminated.
 551 0000 80B4     		push	{r7}
 552              		.cfi_def_cfa_offset 4
 553              		.cfi_offset 7, -4
 554 0002 85B0     		sub	sp, sp, #20
 555              		.cfi_def_cfa_offset 24
 556 0004 00AF     		add	r7, sp, #0
 557              		.cfi_def_cfa_register 7
 558 0006 7860     		str	r0, [r7, #4]
 559 0008 3960     		str	r1, [r7]
 184:Drivers/VL53L0X/core/src/vl53l0x_api.c **** 	VL53L0X_Error Status = VL53L0X_ERROR_NONE;
 560              		.loc 1 184 16
 561 000a 0023     		movs	r3, #0
 562 000c FB73     		strb	r3, [r7, #15]
 185:Drivers/VL53L0X/core/src/vl53l0x_api.c **** 	LOG_FUNCTION_START("");
 186:Drivers/VL53L0X/core/src/vl53l0x_api.c **** 
 187:Drivers/VL53L0X/core/src/vl53l0x_api.c **** 	*pPalState = PALDevDataGet(Dev, PalState);
 563              		.loc 1 187 15
 564 000e 7B68     		ldr	r3, [r7, #4]
 565 0010 93F83221 		ldrb	r2, [r3, #306]	@ zero_extendqisi2
 566              		.loc 1 187 13
 567 0014 3B68     		ldr	r3, [r7]
 568 0016 1A70     		strb	r2, [r3]
 188:Drivers/VL53L0X/core/src/vl53l0x_api.c **** 
 189:Drivers/VL53L0X/core/src/vl53l0x_api.c **** 	LOG_FUNCTION_END(Status);
 190:Drivers/VL53L0X/core/src/vl53l0x_api.c **** 	return Status;
 569              		.loc 1 190 9
 570 0018 97F90F30 		ldrsb	r3, [r7, #15]
 191:Drivers/VL53L0X/core/src/vl53l0x_api.c **** }
 571              		.loc 1 191 1
 572 001c 1846     		mov	r0, r3
 573 001e 1437     		adds	r7, r7, #20
 574              		.cfi_def_cfa_offset 4
 575 0020 BD46     		mov	sp, r7
 576              		.cfi_def_cfa_register 13
 577              		@ sp needed
 578 0022 5DF8047B 		ldr	r7, [sp], #4
 579              		.cfi_restore 7
 580              		.cfi_def_cfa_offset 0
 581 0026 7047     		bx	lr
 582              		.cfi_endproc
 583              	.LFE333:
 585              		.section	.text.VL53L0X_SetPowerMode,"ax",%progbits
 586              		.align	1
 587              		.global	VL53L0X_SetPowerMode
 588              		.syntax unified
 589              		.thumb
 590              		.thumb_func
 592              	VL53L0X_SetPowerMode:
 593              	.LFB334:
 192:Drivers/VL53L0X/core/src/vl53l0x_api.c **** 
 193:Drivers/VL53L0X/core/src/vl53l0x_api.c **** VL53L0X_Error VL53L0X_SetPowerMode(VL53L0X_DEV Dev, VL53L0X_PowerModes PowerMode)
 194:Drivers/VL53L0X/core/src/vl53l0x_api.c **** {
 594              		.loc 1 194 1
 595              		.cfi_startproc
ARM GAS  C:\Users\Morroway\AppData\Local\Temp\ccih4NWY.s 			page 17


 596              		@ args = 0, pretend = 0, frame = 16
 597              		@ frame_needed = 1, uses_anonymous_args = 0
 598 0000 80B5     		push	{r7, lr}
 599              		.cfi_def_cfa_offset 8
 600              		.cfi_offset 7, -8
 601              		.cfi_offset 14, -4
 602 0002 84B0     		sub	sp, sp, #16
 603              		.cfi_def_cfa_offset 24
 604 0004 00AF     		add	r7, sp, #0
 605              		.cfi_def_cfa_register 7
 606 0006 7860     		str	r0, [r7, #4]
 607 0008 0B46     		mov	r3, r1
 608 000a FB70     		strb	r3, [r7, #3]
 195:Drivers/VL53L0X/core/src/vl53l0x_api.c **** 	VL53L0X_Error Status = VL53L0X_ERROR_NONE;
 609              		.loc 1 195 16
 610 000c 0023     		movs	r3, #0
 611 000e FB73     		strb	r3, [r7, #15]
 196:Drivers/VL53L0X/core/src/vl53l0x_api.c **** 	LOG_FUNCTION_START("");
 197:Drivers/VL53L0X/core/src/vl53l0x_api.c **** 
 198:Drivers/VL53L0X/core/src/vl53l0x_api.c **** 	/* Only level1 of Power mode exists */
 199:Drivers/VL53L0X/core/src/vl53l0x_api.c **** 	if ((PowerMode != VL53L0X_POWERMODE_STANDBY_LEVEL1)
 612              		.loc 1 199 5
 613 0010 FB78     		ldrb	r3, [r7, #3]	@ zero_extendqisi2
 614 0012 002B     		cmp	r3, #0
 615 0014 05D0     		beq	.L22
 200:Drivers/VL53L0X/core/src/vl53l0x_api.c **** 		&& (PowerMode != VL53L0X_POWERMODE_IDLE_LEVEL1)) {
 616              		.loc 1 200 3
 617 0016 FB78     		ldrb	r3, [r7, #3]	@ zero_extendqisi2
 618 0018 022B     		cmp	r3, #2
 619 001a 02D0     		beq	.L22
 201:Drivers/VL53L0X/core/src/vl53l0x_api.c **** 		Status = VL53L0X_ERROR_MODE_NOT_SUPPORTED;
 620              		.loc 1 201 10
 621 001c F823     		movs	r3, #248
 622 001e FB73     		strb	r3, [r7, #15]
 623 0020 2EE0     		b	.L23
 624              	.L22:
 202:Drivers/VL53L0X/core/src/vl53l0x_api.c **** 	} else if (PowerMode == VL53L0X_POWERMODE_STANDBY_LEVEL1) {
 625              		.loc 1 202 12
 626 0022 FB78     		ldrb	r3, [r7, #3]	@ zero_extendqisi2
 627 0024 002B     		cmp	r3, #0
 628 0026 13D1     		bne	.L24
 203:Drivers/VL53L0X/core/src/vl53l0x_api.c **** 		/* set the standby level1 of power mode */
 204:Drivers/VL53L0X/core/src/vl53l0x_api.c **** 		Status = VL53L0X_WrByte(Dev, 0x80, 0x00);
 629              		.loc 1 204 12
 630 0028 0022     		movs	r2, #0
 631 002a 8021     		movs	r1, #128
 632 002c 7868     		ldr	r0, [r7, #4]
 633 002e FFF7FEFF 		bl	VL53L0X_WrByte
 634 0032 0346     		mov	r3, r0
 635 0034 FB73     		strb	r3, [r7, #15]
 205:Drivers/VL53L0X/core/src/vl53l0x_api.c **** 		if (Status == VL53L0X_ERROR_NONE) {
 636              		.loc 1 205 6
 637 0036 97F90F30 		ldrsb	r3, [r7, #15]
 638 003a 002B     		cmp	r3, #0
 639 003c 20D1     		bne	.L23
 206:Drivers/VL53L0X/core/src/vl53l0x_api.c **** 			/* Set PAL State to standby */
 207:Drivers/VL53L0X/core/src/vl53l0x_api.c **** 			PALDevDataSet(Dev, PalState, VL53L0X_STATE_STANDBY);
ARM GAS  C:\Users\Morroway\AppData\Local\Temp\ccih4NWY.s 			page 18


 640              		.loc 1 207 4
 641 003e 7B68     		ldr	r3, [r7, #4]
 642 0040 0222     		movs	r2, #2
 643 0042 83F83221 		strb	r2, [r3, #306]
 208:Drivers/VL53L0X/core/src/vl53l0x_api.c **** 			PALDevDataSet(Dev, PowerMode,
 644              		.loc 1 208 4
 645 0046 7B68     		ldr	r3, [r7, #4]
 646 0048 0022     		movs	r2, #0
 647 004a 83F83321 		strb	r2, [r3, #307]
 648 004e 17E0     		b	.L23
 649              	.L24:
 209:Drivers/VL53L0X/core/src/vl53l0x_api.c **** 				VL53L0X_POWERMODE_STANDBY_LEVEL1);
 210:Drivers/VL53L0X/core/src/vl53l0x_api.c **** 		}
 211:Drivers/VL53L0X/core/src/vl53l0x_api.c **** 
 212:Drivers/VL53L0X/core/src/vl53l0x_api.c **** 	} else {
 213:Drivers/VL53L0X/core/src/vl53l0x_api.c **** 		/* VL53L0X_POWERMODE_IDLE_LEVEL1 */
 214:Drivers/VL53L0X/core/src/vl53l0x_api.c **** 		Status = VL53L0X_WrByte(Dev, 0x80, 0x00);
 650              		.loc 1 214 12
 651 0050 0022     		movs	r2, #0
 652 0052 8021     		movs	r1, #128
 653 0054 7868     		ldr	r0, [r7, #4]
 654 0056 FFF7FEFF 		bl	VL53L0X_WrByte
 655 005a 0346     		mov	r3, r0
 656 005c FB73     		strb	r3, [r7, #15]
 215:Drivers/VL53L0X/core/src/vl53l0x_api.c **** 		if (Status == VL53L0X_ERROR_NONE)
 657              		.loc 1 215 6
 658 005e 97F90F30 		ldrsb	r3, [r7, #15]
 659 0062 002B     		cmp	r3, #0
 660 0064 04D1     		bne	.L25
 216:Drivers/VL53L0X/core/src/vl53l0x_api.c **** 			Status = VL53L0X_StaticInit(Dev);
 661              		.loc 1 216 13
 662 0066 7868     		ldr	r0, [r7, #4]
 663 0068 FFF7FEFF 		bl	VL53L0X_StaticInit
 664 006c 0346     		mov	r3, r0
 665 006e FB73     		strb	r3, [r7, #15]
 666              	.L25:
 217:Drivers/VL53L0X/core/src/vl53l0x_api.c **** 
 218:Drivers/VL53L0X/core/src/vl53l0x_api.c **** 		if (Status == VL53L0X_ERROR_NONE)
 667              		.loc 1 218 6
 668 0070 97F90F30 		ldrsb	r3, [r7, #15]
 669 0074 002B     		cmp	r3, #0
 670 0076 03D1     		bne	.L23
 219:Drivers/VL53L0X/core/src/vl53l0x_api.c **** 			PALDevDataSet(Dev, PowerMode,
 671              		.loc 1 219 4
 672 0078 7B68     		ldr	r3, [r7, #4]
 673 007a 0222     		movs	r2, #2
 674 007c 83F83321 		strb	r2, [r3, #307]
 675              	.L23:
 220:Drivers/VL53L0X/core/src/vl53l0x_api.c **** 				VL53L0X_POWERMODE_IDLE_LEVEL1);
 221:Drivers/VL53L0X/core/src/vl53l0x_api.c **** 
 222:Drivers/VL53L0X/core/src/vl53l0x_api.c **** 	}
 223:Drivers/VL53L0X/core/src/vl53l0x_api.c **** 
 224:Drivers/VL53L0X/core/src/vl53l0x_api.c **** 	LOG_FUNCTION_END(Status);
 225:Drivers/VL53L0X/core/src/vl53l0x_api.c **** 	return Status;
 676              		.loc 1 225 9
 677 0080 97F90F30 		ldrsb	r3, [r7, #15]
 226:Drivers/VL53L0X/core/src/vl53l0x_api.c **** }
ARM GAS  C:\Users\Morroway\AppData\Local\Temp\ccih4NWY.s 			page 19


 678              		.loc 1 226 1
 679 0084 1846     		mov	r0, r3
 680 0086 1037     		adds	r7, r7, #16
 681              		.cfi_def_cfa_offset 8
 682 0088 BD46     		mov	sp, r7
 683              		.cfi_def_cfa_register 13
 684              		@ sp needed
 685 008a 80BD     		pop	{r7, pc}
 686              		.cfi_endproc
 687              	.LFE334:
 689              		.section	.text.VL53L0X_GetPowerMode,"ax",%progbits
 690              		.align	1
 691              		.global	VL53L0X_GetPowerMode
 692              		.syntax unified
 693              		.thumb
 694              		.thumb_func
 696              	VL53L0X_GetPowerMode:
 697              	.LFB335:
 227:Drivers/VL53L0X/core/src/vl53l0x_api.c **** 
 228:Drivers/VL53L0X/core/src/vl53l0x_api.c **** VL53L0X_Error VL53L0X_GetPowerMode(VL53L0X_DEV Dev, VL53L0X_PowerModes *pPowerMode)
 229:Drivers/VL53L0X/core/src/vl53l0x_api.c **** {
 698              		.loc 1 229 1
 699              		.cfi_startproc
 700              		@ args = 0, pretend = 0, frame = 16
 701              		@ frame_needed = 1, uses_anonymous_args = 0
 702 0000 80B5     		push	{r7, lr}
 703              		.cfi_def_cfa_offset 8
 704              		.cfi_offset 7, -8
 705              		.cfi_offset 14, -4
 706 0002 84B0     		sub	sp, sp, #16
 707              		.cfi_def_cfa_offset 24
 708 0004 00AF     		add	r7, sp, #0
 709              		.cfi_def_cfa_register 7
 710 0006 7860     		str	r0, [r7, #4]
 711 0008 3960     		str	r1, [r7]
 230:Drivers/VL53L0X/core/src/vl53l0x_api.c **** 	VL53L0X_Error Status = VL53L0X_ERROR_NONE;
 712              		.loc 1 230 16
 713 000a 0023     		movs	r3, #0
 714 000c FB73     		strb	r3, [r7, #15]
 231:Drivers/VL53L0X/core/src/vl53l0x_api.c **** 	uint8_t Byte;
 232:Drivers/VL53L0X/core/src/vl53l0x_api.c **** 	LOG_FUNCTION_START("");
 233:Drivers/VL53L0X/core/src/vl53l0x_api.c **** 
 234:Drivers/VL53L0X/core/src/vl53l0x_api.c **** 	/* Only level1 of Power mode exists */
 235:Drivers/VL53L0X/core/src/vl53l0x_api.c **** 	Status = VL53L0X_RdByte(Dev, 0x80, &Byte);
 715              		.loc 1 235 11
 716 000e 07F10E03 		add	r3, r7, #14
 717 0012 1A46     		mov	r2, r3
 718 0014 8021     		movs	r1, #128
 719 0016 7868     		ldr	r0, [r7, #4]
 720 0018 FFF7FEFF 		bl	VL53L0X_RdByte
 721 001c 0346     		mov	r3, r0
 722 001e FB73     		strb	r3, [r7, #15]
 236:Drivers/VL53L0X/core/src/vl53l0x_api.c **** 
 237:Drivers/VL53L0X/core/src/vl53l0x_api.c **** 	if (Status == VL53L0X_ERROR_NONE) {
 723              		.loc 1 237 5
 724 0020 97F90F30 		ldrsb	r3, [r7, #15]
 725 0024 002B     		cmp	r3, #0
ARM GAS  C:\Users\Morroway\AppData\Local\Temp\ccih4NWY.s 			page 20


 726 0026 0BD1     		bne	.L28
 238:Drivers/VL53L0X/core/src/vl53l0x_api.c **** 		if (Byte == 1) {
 727              		.loc 1 238 12
 728 0028 BB7B     		ldrb	r3, [r7, #14]	@ zero_extendqisi2
 729              		.loc 1 238 6
 730 002a 012B     		cmp	r3, #1
 731 002c 04D1     		bne	.L29
 239:Drivers/VL53L0X/core/src/vl53l0x_api.c **** 			PALDevDataSet(Dev, PowerMode,
 732              		.loc 1 239 4
 733 002e 7B68     		ldr	r3, [r7, #4]
 734 0030 0222     		movs	r2, #2
 735 0032 83F83321 		strb	r2, [r3, #307]
 736 0036 03E0     		b	.L28
 737              	.L29:
 240:Drivers/VL53L0X/core/src/vl53l0x_api.c **** 				VL53L0X_POWERMODE_IDLE_LEVEL1);
 241:Drivers/VL53L0X/core/src/vl53l0x_api.c **** 		} else {
 242:Drivers/VL53L0X/core/src/vl53l0x_api.c **** 			PALDevDataSet(Dev, PowerMode,
 738              		.loc 1 242 4
 739 0038 7B68     		ldr	r3, [r7, #4]
 740 003a 0022     		movs	r2, #0
 741 003c 83F83321 		strb	r2, [r3, #307]
 742              	.L28:
 243:Drivers/VL53L0X/core/src/vl53l0x_api.c **** 				VL53L0X_POWERMODE_STANDBY_LEVEL1);
 244:Drivers/VL53L0X/core/src/vl53l0x_api.c **** 		}
 245:Drivers/VL53L0X/core/src/vl53l0x_api.c **** 	}
 246:Drivers/VL53L0X/core/src/vl53l0x_api.c **** 
 247:Drivers/VL53L0X/core/src/vl53l0x_api.c **** 	LOG_FUNCTION_END(Status);
 248:Drivers/VL53L0X/core/src/vl53l0x_api.c **** 	return Status;
 743              		.loc 1 248 9
 744 0040 97F90F30 		ldrsb	r3, [r7, #15]
 249:Drivers/VL53L0X/core/src/vl53l0x_api.c **** }
 745              		.loc 1 249 1
 746 0044 1846     		mov	r0, r3
 747 0046 1037     		adds	r7, r7, #16
 748              		.cfi_def_cfa_offset 8
 749 0048 BD46     		mov	sp, r7
 750              		.cfi_def_cfa_register 13
 751              		@ sp needed
 752 004a 80BD     		pop	{r7, pc}
 753              		.cfi_endproc
 754              	.LFE335:
 756              		.section	.text.VL53L0X_SetOffsetCalibrationDataMicroMeter,"ax",%progbits
 757              		.align	1
 758              		.global	VL53L0X_SetOffsetCalibrationDataMicroMeter
 759              		.syntax unified
 760              		.thumb
 761              		.thumb_func
 763              	VL53L0X_SetOffsetCalibrationDataMicroMeter:
 764              	.LFB336:
 250:Drivers/VL53L0X/core/src/vl53l0x_api.c **** 
 251:Drivers/VL53L0X/core/src/vl53l0x_api.c **** VL53L0X_Error VL53L0X_SetOffsetCalibrationDataMicroMeter(VL53L0X_DEV Dev,
 252:Drivers/VL53L0X/core/src/vl53l0x_api.c **** 	int32_t OffsetCalibrationDataMicroMeter)
 253:Drivers/VL53L0X/core/src/vl53l0x_api.c **** {
 765              		.loc 1 253 1
 766              		.cfi_startproc
 767              		@ args = 0, pretend = 0, frame = 16
 768              		@ frame_needed = 1, uses_anonymous_args = 0
ARM GAS  C:\Users\Morroway\AppData\Local\Temp\ccih4NWY.s 			page 21


 769 0000 80B5     		push	{r7, lr}
 770              		.cfi_def_cfa_offset 8
 771              		.cfi_offset 7, -8
 772              		.cfi_offset 14, -4
 773 0002 84B0     		sub	sp, sp, #16
 774              		.cfi_def_cfa_offset 24
 775 0004 00AF     		add	r7, sp, #0
 776              		.cfi_def_cfa_register 7
 777 0006 7860     		str	r0, [r7, #4]
 778 0008 3960     		str	r1, [r7]
 254:Drivers/VL53L0X/core/src/vl53l0x_api.c **** 	VL53L0X_Error Status = VL53L0X_ERROR_NONE;
 779              		.loc 1 254 16
 780 000a 0023     		movs	r3, #0
 781 000c FB73     		strb	r3, [r7, #15]
 255:Drivers/VL53L0X/core/src/vl53l0x_api.c **** 	LOG_FUNCTION_START("");
 256:Drivers/VL53L0X/core/src/vl53l0x_api.c **** 
 257:Drivers/VL53L0X/core/src/vl53l0x_api.c **** 	Status = VL53L0X_set_offset_calibration_data_micro_meter(Dev,
 782              		.loc 1 257 11
 783 000e 3968     		ldr	r1, [r7]
 784 0010 7868     		ldr	r0, [r7, #4]
 785 0012 FFF7FEFF 		bl	VL53L0X_set_offset_calibration_data_micro_meter
 786 0016 0346     		mov	r3, r0
 787 0018 FB73     		strb	r3, [r7, #15]
 258:Drivers/VL53L0X/core/src/vl53l0x_api.c **** 		OffsetCalibrationDataMicroMeter);
 259:Drivers/VL53L0X/core/src/vl53l0x_api.c **** 
 260:Drivers/VL53L0X/core/src/vl53l0x_api.c **** 	LOG_FUNCTION_END(Status);
 261:Drivers/VL53L0X/core/src/vl53l0x_api.c **** 	return Status;
 788              		.loc 1 261 9
 789 001a 97F90F30 		ldrsb	r3, [r7, #15]
 262:Drivers/VL53L0X/core/src/vl53l0x_api.c **** }
 790              		.loc 1 262 1
 791 001e 1846     		mov	r0, r3
 792 0020 1037     		adds	r7, r7, #16
 793              		.cfi_def_cfa_offset 8
 794 0022 BD46     		mov	sp, r7
 795              		.cfi_def_cfa_register 13
 796              		@ sp needed
 797 0024 80BD     		pop	{r7, pc}
 798              		.cfi_endproc
 799              	.LFE336:
 801              		.section	.text.VL53L0X_GetOffsetCalibrationDataMicroMeter,"ax",%progbits
 802              		.align	1
 803              		.global	VL53L0X_GetOffsetCalibrationDataMicroMeter
 804              		.syntax unified
 805              		.thumb
 806              		.thumb_func
 808              	VL53L0X_GetOffsetCalibrationDataMicroMeter:
 809              	.LFB337:
 263:Drivers/VL53L0X/core/src/vl53l0x_api.c **** 
 264:Drivers/VL53L0X/core/src/vl53l0x_api.c **** VL53L0X_Error VL53L0X_GetOffsetCalibrationDataMicroMeter(VL53L0X_DEV Dev,
 265:Drivers/VL53L0X/core/src/vl53l0x_api.c **** 	int32_t *pOffsetCalibrationDataMicroMeter)
 266:Drivers/VL53L0X/core/src/vl53l0x_api.c **** {
 810              		.loc 1 266 1
 811              		.cfi_startproc
 812              		@ args = 0, pretend = 0, frame = 16
 813              		@ frame_needed = 1, uses_anonymous_args = 0
 814 0000 80B5     		push	{r7, lr}
ARM GAS  C:\Users\Morroway\AppData\Local\Temp\ccih4NWY.s 			page 22


 815              		.cfi_def_cfa_offset 8
 816              		.cfi_offset 7, -8
 817              		.cfi_offset 14, -4
 818 0002 84B0     		sub	sp, sp, #16
 819              		.cfi_def_cfa_offset 24
 820 0004 00AF     		add	r7, sp, #0
 821              		.cfi_def_cfa_register 7
 822 0006 7860     		str	r0, [r7, #4]
 823 0008 3960     		str	r1, [r7]
 267:Drivers/VL53L0X/core/src/vl53l0x_api.c **** 	VL53L0X_Error Status = VL53L0X_ERROR_NONE;
 824              		.loc 1 267 16
 825 000a 0023     		movs	r3, #0
 826 000c FB73     		strb	r3, [r7, #15]
 268:Drivers/VL53L0X/core/src/vl53l0x_api.c **** 	LOG_FUNCTION_START("");
 269:Drivers/VL53L0X/core/src/vl53l0x_api.c **** 
 270:Drivers/VL53L0X/core/src/vl53l0x_api.c **** 	Status = VL53L0X_get_offset_calibration_data_micro_meter(Dev,
 827              		.loc 1 270 11
 828 000e 3968     		ldr	r1, [r7]
 829 0010 7868     		ldr	r0, [r7, #4]
 830 0012 FFF7FEFF 		bl	VL53L0X_get_offset_calibration_data_micro_meter
 831 0016 0346     		mov	r3, r0
 832 0018 FB73     		strb	r3, [r7, #15]
 271:Drivers/VL53L0X/core/src/vl53l0x_api.c **** 		pOffsetCalibrationDataMicroMeter);
 272:Drivers/VL53L0X/core/src/vl53l0x_api.c **** 
 273:Drivers/VL53L0X/core/src/vl53l0x_api.c **** 	LOG_FUNCTION_END(Status);
 274:Drivers/VL53L0X/core/src/vl53l0x_api.c **** 	return Status;
 833              		.loc 1 274 9
 834 001a 97F90F30 		ldrsb	r3, [r7, #15]
 275:Drivers/VL53L0X/core/src/vl53l0x_api.c **** }
 835              		.loc 1 275 1
 836 001e 1846     		mov	r0, r3
 837 0020 1037     		adds	r7, r7, #16
 838              		.cfi_def_cfa_offset 8
 839 0022 BD46     		mov	sp, r7
 840              		.cfi_def_cfa_register 13
 841              		@ sp needed
 842 0024 80BD     		pop	{r7, pc}
 843              		.cfi_endproc
 844              	.LFE337:
 846              		.section	.text.VL53L0X_SetLinearityCorrectiveGain,"ax",%progbits
 847              		.align	1
 848              		.global	VL53L0X_SetLinearityCorrectiveGain
 849              		.syntax unified
 850              		.thumb
 851              		.thumb_func
 853              	VL53L0X_SetLinearityCorrectiveGain:
 854              	.LFB338:
 276:Drivers/VL53L0X/core/src/vl53l0x_api.c **** 
 277:Drivers/VL53L0X/core/src/vl53l0x_api.c **** VL53L0X_Error VL53L0X_SetLinearityCorrectiveGain(VL53L0X_DEV Dev,
 278:Drivers/VL53L0X/core/src/vl53l0x_api.c **** 	int16_t LinearityCorrectiveGain)
 279:Drivers/VL53L0X/core/src/vl53l0x_api.c **** {
 855              		.loc 1 279 1
 856              		.cfi_startproc
 857              		@ args = 0, pretend = 0, frame = 16
 858              		@ frame_needed = 1, uses_anonymous_args = 0
 859 0000 80B5     		push	{r7, lr}
 860              		.cfi_def_cfa_offset 8
ARM GAS  C:\Users\Morroway\AppData\Local\Temp\ccih4NWY.s 			page 23


 861              		.cfi_offset 7, -8
 862              		.cfi_offset 14, -4
 863 0002 84B0     		sub	sp, sp, #16
 864              		.cfi_def_cfa_offset 24
 865 0004 00AF     		add	r7, sp, #0
 866              		.cfi_def_cfa_register 7
 867 0006 7860     		str	r0, [r7, #4]
 868 0008 0B46     		mov	r3, r1
 869 000a 7B80     		strh	r3, [r7, #2]	@ movhi
 280:Drivers/VL53L0X/core/src/vl53l0x_api.c **** 	VL53L0X_Error Status = VL53L0X_ERROR_NONE;
 870              		.loc 1 280 16
 871 000c 0023     		movs	r3, #0
 872 000e FB73     		strb	r3, [r7, #15]
 281:Drivers/VL53L0X/core/src/vl53l0x_api.c **** 	LOG_FUNCTION_START("");
 282:Drivers/VL53L0X/core/src/vl53l0x_api.c **** 
 283:Drivers/VL53L0X/core/src/vl53l0x_api.c **** 	if ((LinearityCorrectiveGain < 0) || (LinearityCorrectiveGain > 1000))
 873              		.loc 1 283 5
 874 0010 B7F90230 		ldrsh	r3, [r7, #2]
 875 0014 002B     		cmp	r3, #0
 876 0016 04DB     		blt	.L36
 877              		.loc 1 283 36 discriminator 1
 878 0018 B7F90230 		ldrsh	r3, [r7, #2]
 879 001c B3F57A7F 		cmp	r3, #1000
 880 0020 02DD     		ble	.L37
 881              	.L36:
 284:Drivers/VL53L0X/core/src/vl53l0x_api.c **** 		Status = VL53L0X_ERROR_INVALID_PARAMS;
 882              		.loc 1 284 10
 883 0022 FC23     		movs	r3, #252
 884 0024 FB73     		strb	r3, [r7, #15]
 885 0026 0FE0     		b	.L38
 886              	.L37:
 285:Drivers/VL53L0X/core/src/vl53l0x_api.c **** 	else {
 286:Drivers/VL53L0X/core/src/vl53l0x_api.c **** 		PALDevDataSet(Dev, LinearityCorrectiveGain,
 887              		.loc 1 286 3
 888 0028 7A88     		ldrh	r2, [r7, #2]
 889 002a 7B68     		ldr	r3, [r7, #4]
 890 002c A3F85221 		strh	r2, [r3, #338]	@ movhi
 287:Drivers/VL53L0X/core/src/vl53l0x_api.c **** 			LinearityCorrectiveGain);
 288:Drivers/VL53L0X/core/src/vl53l0x_api.c **** 
 289:Drivers/VL53L0X/core/src/vl53l0x_api.c **** 		if (LinearityCorrectiveGain != 1000) {
 891              		.loc 1 289 6
 892 0030 B7F90230 		ldrsh	r3, [r7, #2]
 893 0034 B3F57A7F 		cmp	r3, #1000
 894 0038 06D0     		beq	.L38
 290:Drivers/VL53L0X/core/src/vl53l0x_api.c **** 			/* Disable FW Xtalk */
 291:Drivers/VL53L0X/core/src/vl53l0x_api.c **** 			Status = VL53L0X_WrWord(Dev,
 895              		.loc 1 291 13
 896 003a 0022     		movs	r2, #0
 897 003c 2021     		movs	r1, #32
 898 003e 7868     		ldr	r0, [r7, #4]
 899 0040 FFF7FEFF 		bl	VL53L0X_WrWord
 900 0044 0346     		mov	r3, r0
 901 0046 FB73     		strb	r3, [r7, #15]
 902              	.L38:
 292:Drivers/VL53L0X/core/src/vl53l0x_api.c **** 			VL53L0X_REG_CROSSTALK_COMPENSATION_PEAK_RATE_MCPS, 0);
 293:Drivers/VL53L0X/core/src/vl53l0x_api.c **** 		}
 294:Drivers/VL53L0X/core/src/vl53l0x_api.c **** 	}
ARM GAS  C:\Users\Morroway\AppData\Local\Temp\ccih4NWY.s 			page 24


 295:Drivers/VL53L0X/core/src/vl53l0x_api.c **** 
 296:Drivers/VL53L0X/core/src/vl53l0x_api.c **** 	LOG_FUNCTION_END(Status);
 297:Drivers/VL53L0X/core/src/vl53l0x_api.c **** 	return Status;
 903              		.loc 1 297 9
 904 0048 97F90F30 		ldrsb	r3, [r7, #15]
 298:Drivers/VL53L0X/core/src/vl53l0x_api.c **** }
 905              		.loc 1 298 1
 906 004c 1846     		mov	r0, r3
 907 004e 1037     		adds	r7, r7, #16
 908              		.cfi_def_cfa_offset 8
 909 0050 BD46     		mov	sp, r7
 910              		.cfi_def_cfa_register 13
 911              		@ sp needed
 912 0052 80BD     		pop	{r7, pc}
 913              		.cfi_endproc
 914              	.LFE338:
 916              		.section	.text.VL53L0X_GetLinearityCorrectiveGain,"ax",%progbits
 917              		.align	1
 918              		.global	VL53L0X_GetLinearityCorrectiveGain
 919              		.syntax unified
 920              		.thumb
 921              		.thumb_func
 923              	VL53L0X_GetLinearityCorrectiveGain:
 924              	.LFB339:
 299:Drivers/VL53L0X/core/src/vl53l0x_api.c **** 
 300:Drivers/VL53L0X/core/src/vl53l0x_api.c **** VL53L0X_Error VL53L0X_GetLinearityCorrectiveGain(VL53L0X_DEV Dev,
 301:Drivers/VL53L0X/core/src/vl53l0x_api.c **** 	uint16_t *pLinearityCorrectiveGain)
 302:Drivers/VL53L0X/core/src/vl53l0x_api.c **** {
 925              		.loc 1 302 1
 926              		.cfi_startproc
 927              		@ args = 0, pretend = 0, frame = 16
 928              		@ frame_needed = 1, uses_anonymous_args = 0
 929              		@ link register save eliminated.
 930 0000 80B4     		push	{r7}
 931              		.cfi_def_cfa_offset 4
 932              		.cfi_offset 7, -4
 933 0002 85B0     		sub	sp, sp, #20
 934              		.cfi_def_cfa_offset 24
 935 0004 00AF     		add	r7, sp, #0
 936              		.cfi_def_cfa_register 7
 937 0006 7860     		str	r0, [r7, #4]
 938 0008 3960     		str	r1, [r7]
 303:Drivers/VL53L0X/core/src/vl53l0x_api.c **** 	VL53L0X_Error Status = VL53L0X_ERROR_NONE;
 939              		.loc 1 303 16
 940 000a 0023     		movs	r3, #0
 941 000c FB73     		strb	r3, [r7, #15]
 304:Drivers/VL53L0X/core/src/vl53l0x_api.c **** 	LOG_FUNCTION_START("");
 305:Drivers/VL53L0X/core/src/vl53l0x_api.c **** 
 306:Drivers/VL53L0X/core/src/vl53l0x_api.c **** 	*pLinearityCorrectiveGain = PALDevDataGet(Dev, LinearityCorrectiveGain);
 942              		.loc 1 306 30
 943 000e 7B68     		ldr	r3, [r7, #4]
 944 0010 B3F85221 		ldrh	r2, [r3, #338]
 945              		.loc 1 306 28
 946 0014 3B68     		ldr	r3, [r7]
 947 0016 1A80     		strh	r2, [r3]	@ movhi
 307:Drivers/VL53L0X/core/src/vl53l0x_api.c **** 
 308:Drivers/VL53L0X/core/src/vl53l0x_api.c **** 	LOG_FUNCTION_END(Status);
ARM GAS  C:\Users\Morroway\AppData\Local\Temp\ccih4NWY.s 			page 25


 309:Drivers/VL53L0X/core/src/vl53l0x_api.c **** 	return Status;
 948              		.loc 1 309 9
 949 0018 97F90F30 		ldrsb	r3, [r7, #15]
 310:Drivers/VL53L0X/core/src/vl53l0x_api.c **** }
 950              		.loc 1 310 1
 951 001c 1846     		mov	r0, r3
 952 001e 1437     		adds	r7, r7, #20
 953              		.cfi_def_cfa_offset 4
 954 0020 BD46     		mov	sp, r7
 955              		.cfi_def_cfa_register 13
 956              		@ sp needed
 957 0022 5DF8047B 		ldr	r7, [sp], #4
 958              		.cfi_restore 7
 959              		.cfi_def_cfa_offset 0
 960 0026 7047     		bx	lr
 961              		.cfi_endproc
 962              	.LFE339:
 964              		.section	.text.VL53L0X_SetGroupParamHold,"ax",%progbits
 965              		.align	1
 966              		.global	VL53L0X_SetGroupParamHold
 967              		.syntax unified
 968              		.thumb
 969              		.thumb_func
 971              	VL53L0X_SetGroupParamHold:
 972              	.LFB340:
 311:Drivers/VL53L0X/core/src/vl53l0x_api.c **** 
 312:Drivers/VL53L0X/core/src/vl53l0x_api.c **** VL53L0X_Error VL53L0X_SetGroupParamHold(VL53L0X_DEV Dev, uint8_t GroupParamHold)
 313:Drivers/VL53L0X/core/src/vl53l0x_api.c **** {
 973              		.loc 1 313 1
 974              		.cfi_startproc
 975              		@ args = 0, pretend = 0, frame = 16
 976              		@ frame_needed = 1, uses_anonymous_args = 0
 977              		@ link register save eliminated.
 978 0000 80B4     		push	{r7}
 979              		.cfi_def_cfa_offset 4
 980              		.cfi_offset 7, -4
 981 0002 85B0     		sub	sp, sp, #20
 982              		.cfi_def_cfa_offset 24
 983 0004 00AF     		add	r7, sp, #0
 984              		.cfi_def_cfa_register 7
 985 0006 7860     		str	r0, [r7, #4]
 986 0008 0B46     		mov	r3, r1
 987 000a FB70     		strb	r3, [r7, #3]
 314:Drivers/VL53L0X/core/src/vl53l0x_api.c **** 	VL53L0X_Error Status = VL53L0X_ERROR_NOT_IMPLEMENTED;
 988              		.loc 1 314 16
 989 000c 9D23     		movs	r3, #157
 990 000e FB73     		strb	r3, [r7, #15]
 315:Drivers/VL53L0X/core/src/vl53l0x_api.c **** 	LOG_FUNCTION_START("");
 316:Drivers/VL53L0X/core/src/vl53l0x_api.c **** 
 317:Drivers/VL53L0X/core/src/vl53l0x_api.c **** 	/* not implemented on VL53L0X */
 318:Drivers/VL53L0X/core/src/vl53l0x_api.c **** 
 319:Drivers/VL53L0X/core/src/vl53l0x_api.c **** 	LOG_FUNCTION_END(Status);
 320:Drivers/VL53L0X/core/src/vl53l0x_api.c **** 	return Status;
 991              		.loc 1 320 9
 992 0010 97F90F30 		ldrsb	r3, [r7, #15]
 321:Drivers/VL53L0X/core/src/vl53l0x_api.c **** }
 993              		.loc 1 321 1
ARM GAS  C:\Users\Morroway\AppData\Local\Temp\ccih4NWY.s 			page 26


 994 0014 1846     		mov	r0, r3
 995 0016 1437     		adds	r7, r7, #20
 996              		.cfi_def_cfa_offset 4
 997 0018 BD46     		mov	sp, r7
 998              		.cfi_def_cfa_register 13
 999              		@ sp needed
 1000 001a 5DF8047B 		ldr	r7, [sp], #4
 1001              		.cfi_restore 7
 1002              		.cfi_def_cfa_offset 0
 1003 001e 7047     		bx	lr
 1004              		.cfi_endproc
 1005              	.LFE340:
 1007              		.section	.text.VL53L0X_GetUpperLimitMilliMeter,"ax",%progbits
 1008              		.align	1
 1009              		.global	VL53L0X_GetUpperLimitMilliMeter
 1010              		.syntax unified
 1011              		.thumb
 1012              		.thumb_func
 1014              	VL53L0X_GetUpperLimitMilliMeter:
 1015              	.LFB341:
 322:Drivers/VL53L0X/core/src/vl53l0x_api.c **** 
 323:Drivers/VL53L0X/core/src/vl53l0x_api.c **** VL53L0X_Error VL53L0X_GetUpperLimitMilliMeter(VL53L0X_DEV Dev,
 324:Drivers/VL53L0X/core/src/vl53l0x_api.c **** 	uint16_t *pUpperLimitMilliMeter)
 325:Drivers/VL53L0X/core/src/vl53l0x_api.c **** {
 1016              		.loc 1 325 1
 1017              		.cfi_startproc
 1018              		@ args = 0, pretend = 0, frame = 16
 1019              		@ frame_needed = 1, uses_anonymous_args = 0
 1020              		@ link register save eliminated.
 1021 0000 80B4     		push	{r7}
 1022              		.cfi_def_cfa_offset 4
 1023              		.cfi_offset 7, -4
 1024 0002 85B0     		sub	sp, sp, #20
 1025              		.cfi_def_cfa_offset 24
 1026 0004 00AF     		add	r7, sp, #0
 1027              		.cfi_def_cfa_register 7
 1028 0006 7860     		str	r0, [r7, #4]
 1029 0008 3960     		str	r1, [r7]
 326:Drivers/VL53L0X/core/src/vl53l0x_api.c **** 	VL53L0X_Error Status = VL53L0X_ERROR_NOT_IMPLEMENTED;
 1030              		.loc 1 326 16
 1031 000a 9D23     		movs	r3, #157
 1032 000c FB73     		strb	r3, [r7, #15]
 327:Drivers/VL53L0X/core/src/vl53l0x_api.c **** 	LOG_FUNCTION_START("");
 328:Drivers/VL53L0X/core/src/vl53l0x_api.c **** 
 329:Drivers/VL53L0X/core/src/vl53l0x_api.c **** 	/* not implemented on VL53L0X */
 330:Drivers/VL53L0X/core/src/vl53l0x_api.c **** 
 331:Drivers/VL53L0X/core/src/vl53l0x_api.c **** 	LOG_FUNCTION_END(Status);
 332:Drivers/VL53L0X/core/src/vl53l0x_api.c **** 	return Status;
 1033              		.loc 1 332 9
 1034 000e 97F90F30 		ldrsb	r3, [r7, #15]
 333:Drivers/VL53L0X/core/src/vl53l0x_api.c **** }
 1035              		.loc 1 333 1
 1036 0012 1846     		mov	r0, r3
 1037 0014 1437     		adds	r7, r7, #20
 1038              		.cfi_def_cfa_offset 4
 1039 0016 BD46     		mov	sp, r7
 1040              		.cfi_def_cfa_register 13
ARM GAS  C:\Users\Morroway\AppData\Local\Temp\ccih4NWY.s 			page 27


 1041              		@ sp needed
 1042 0018 5DF8047B 		ldr	r7, [sp], #4
 1043              		.cfi_restore 7
 1044              		.cfi_def_cfa_offset 0
 1045 001c 7047     		bx	lr
 1046              		.cfi_endproc
 1047              	.LFE341:
 1049              		.section	.text.VL53L0X_GetTotalSignalRate,"ax",%progbits
 1050              		.align	1
 1051              		.global	VL53L0X_GetTotalSignalRate
 1052              		.syntax unified
 1053              		.thumb
 1054              		.thumb_func
 1056              	VL53L0X_GetTotalSignalRate:
 1057              	.LFB342:
 334:Drivers/VL53L0X/core/src/vl53l0x_api.c **** 
 335:Drivers/VL53L0X/core/src/vl53l0x_api.c **** VL53L0X_Error VL53L0X_GetTotalSignalRate(VL53L0X_DEV Dev,
 336:Drivers/VL53L0X/core/src/vl53l0x_api.c **** 	FixPoint1616_t *pTotalSignalRate)
 337:Drivers/VL53L0X/core/src/vl53l0x_api.c **** {
 1058              		.loc 1 337 1
 1059              		.cfi_startproc
 1060              		@ args = 0, pretend = 0, frame = 40
 1061              		@ frame_needed = 1, uses_anonymous_args = 0
 1062 0000 B0B5     		push	{r4, r5, r7, lr}
 1063              		.cfi_def_cfa_offset 16
 1064              		.cfi_offset 4, -16
 1065              		.cfi_offset 5, -12
 1066              		.cfi_offset 7, -8
 1067              		.cfi_offset 14, -4
 1068 0002 8AB0     		sub	sp, sp, #40
 1069              		.cfi_def_cfa_offset 56
 1070 0004 00AF     		add	r7, sp, #0
 1071              		.cfi_def_cfa_register 7
 1072 0006 7860     		str	r0, [r7, #4]
 1073 0008 3960     		str	r1, [r7]
 338:Drivers/VL53L0X/core/src/vl53l0x_api.c **** 	VL53L0X_Error Status = VL53L0X_ERROR_NONE;
 1074              		.loc 1 338 16
 1075 000a 0023     		movs	r3, #0
 1076 000c 87F82730 		strb	r3, [r7, #39]
 339:Drivers/VL53L0X/core/src/vl53l0x_api.c **** 	VL53L0X_RangingMeasurementData_t LastRangeDataBuffer;
 340:Drivers/VL53L0X/core/src/vl53l0x_api.c **** 
 341:Drivers/VL53L0X/core/src/vl53l0x_api.c **** 	LOG_FUNCTION_START("");
 342:Drivers/VL53L0X/core/src/vl53l0x_api.c **** 
 343:Drivers/VL53L0X/core/src/vl53l0x_api.c **** 	LastRangeDataBuffer = PALDevDataGet(Dev, LastRangeMeasure);
 1077              		.loc 1 343 22
 1078 0010 7B68     		ldr	r3, [r7, #4]
 1079 0012 07F10804 		add	r4, r7, #8
 1080 0016 03F15005 		add	r5, r3, #80
 1081 001a 0FCD     		ldmia	r5!, {r0, r1, r2, r3}
 1082 001c 0FC4     		stmia	r4!, {r0, r1, r2, r3}
 1083 001e 95E80700 		ldm	r5, {r0, r1, r2}
 1084 0022 84E80700 		stm	r4, {r0, r1, r2}
 344:Drivers/VL53L0X/core/src/vl53l0x_api.c **** 
 345:Drivers/VL53L0X/core/src/vl53l0x_api.c **** 	Status = VL53L0X_get_total_signal_rate(
 1085              		.loc 1 345 11
 1086 0026 07F10803 		add	r3, r7, #8
 1087 002a 3A68     		ldr	r2, [r7]
ARM GAS  C:\Users\Morroway\AppData\Local\Temp\ccih4NWY.s 			page 28


 1088 002c 1946     		mov	r1, r3
 1089 002e 7868     		ldr	r0, [r7, #4]
 1090 0030 FFF7FEFF 		bl	VL53L0X_get_total_signal_rate
 1091 0034 0346     		mov	r3, r0
 1092 0036 87F82730 		strb	r3, [r7, #39]
 346:Drivers/VL53L0X/core/src/vl53l0x_api.c **** 		Dev, &LastRangeDataBuffer, pTotalSignalRate);
 347:Drivers/VL53L0X/core/src/vl53l0x_api.c **** 
 348:Drivers/VL53L0X/core/src/vl53l0x_api.c **** 	LOG_FUNCTION_END(Status);
 349:Drivers/VL53L0X/core/src/vl53l0x_api.c **** 	return Status;
 1093              		.loc 1 349 9
 1094 003a 97F92730 		ldrsb	r3, [r7, #39]
 350:Drivers/VL53L0X/core/src/vl53l0x_api.c **** }
 1095              		.loc 1 350 1
 1096 003e 1846     		mov	r0, r3
 1097 0040 2837     		adds	r7, r7, #40
 1098              		.cfi_def_cfa_offset 16
 1099 0042 BD46     		mov	sp, r7
 1100              		.cfi_def_cfa_register 13
 1101              		@ sp needed
 1102 0044 B0BD     		pop	{r4, r5, r7, pc}
 1103              		.cfi_endproc
 1104              	.LFE342:
 1106              		.section	.text.VL53L0X_SetDeviceAddress,"ax",%progbits
 1107              		.align	1
 1108              		.global	VL53L0X_SetDeviceAddress
 1109              		.syntax unified
 1110              		.thumb
 1111              		.thumb_func
 1113              	VL53L0X_SetDeviceAddress:
 1114              	.LFB343:
 351:Drivers/VL53L0X/core/src/vl53l0x_api.c **** 
 352:Drivers/VL53L0X/core/src/vl53l0x_api.c **** /* End Group PAL General Functions */
 353:Drivers/VL53L0X/core/src/vl53l0x_api.c **** 
 354:Drivers/VL53L0X/core/src/vl53l0x_api.c **** /* Group PAL Init Functions */
 355:Drivers/VL53L0X/core/src/vl53l0x_api.c **** VL53L0X_Error VL53L0X_SetDeviceAddress(VL53L0X_DEV Dev, uint8_t DeviceAddress)
 356:Drivers/VL53L0X/core/src/vl53l0x_api.c **** {
 1115              		.loc 1 356 1
 1116              		.cfi_startproc
 1117              		@ args = 0, pretend = 0, frame = 16
 1118              		@ frame_needed = 1, uses_anonymous_args = 0
 1119 0000 80B5     		push	{r7, lr}
 1120              		.cfi_def_cfa_offset 8
 1121              		.cfi_offset 7, -8
 1122              		.cfi_offset 14, -4
 1123 0002 84B0     		sub	sp, sp, #16
 1124              		.cfi_def_cfa_offset 24
 1125 0004 00AF     		add	r7, sp, #0
 1126              		.cfi_def_cfa_register 7
 1127 0006 7860     		str	r0, [r7, #4]
 1128 0008 0B46     		mov	r3, r1
 1129 000a FB70     		strb	r3, [r7, #3]
 357:Drivers/VL53L0X/core/src/vl53l0x_api.c **** 	VL53L0X_Error Status = VL53L0X_ERROR_NONE;
 1130              		.loc 1 357 16
 1131 000c 0023     		movs	r3, #0
 1132 000e FB73     		strb	r3, [r7, #15]
 358:Drivers/VL53L0X/core/src/vl53l0x_api.c **** 	LOG_FUNCTION_START("");
 359:Drivers/VL53L0X/core/src/vl53l0x_api.c **** 
ARM GAS  C:\Users\Morroway\AppData\Local\Temp\ccih4NWY.s 			page 29


 360:Drivers/VL53L0X/core/src/vl53l0x_api.c **** 	Status = VL53L0X_WrByte(Dev, VL53L0X_REG_I2C_SLAVE_DEVICE_ADDRESS,
 1133              		.loc 1 360 11
 1134 0010 FB78     		ldrb	r3, [r7, #3]	@ zero_extendqisi2
 1135 0012 5B08     		lsrs	r3, r3, #1
 1136 0014 DBB2     		uxtb	r3, r3
 1137 0016 1A46     		mov	r2, r3
 1138 0018 8A21     		movs	r1, #138
 1139 001a 7868     		ldr	r0, [r7, #4]
 1140 001c FFF7FEFF 		bl	VL53L0X_WrByte
 1141 0020 0346     		mov	r3, r0
 1142 0022 FB73     		strb	r3, [r7, #15]
 361:Drivers/VL53L0X/core/src/vl53l0x_api.c **** 		DeviceAddress / 2);
 362:Drivers/VL53L0X/core/src/vl53l0x_api.c **** 
 363:Drivers/VL53L0X/core/src/vl53l0x_api.c **** 	LOG_FUNCTION_END(Status);
 364:Drivers/VL53L0X/core/src/vl53l0x_api.c **** 	return Status;
 1143              		.loc 1 364 9
 1144 0024 97F90F30 		ldrsb	r3, [r7, #15]
 365:Drivers/VL53L0X/core/src/vl53l0x_api.c **** }
 1145              		.loc 1 365 1
 1146 0028 1846     		mov	r0, r3
 1147 002a 1037     		adds	r7, r7, #16
 1148              		.cfi_def_cfa_offset 8
 1149 002c BD46     		mov	sp, r7
 1150              		.cfi_def_cfa_register 13
 1151              		@ sp needed
 1152 002e 80BD     		pop	{r7, pc}
 1153              		.cfi_endproc
 1154              	.LFE343:
 1156              		.section	.text.VL53L0X_DataInit,"ax",%progbits
 1157              		.align	1
 1158              		.global	VL53L0X_DataInit
 1159              		.syntax unified
 1160              		.thumb
 1161              		.thumb_func
 1163              	VL53L0X_DataInit:
 1164              	.LFB344:
 366:Drivers/VL53L0X/core/src/vl53l0x_api.c **** 
 367:Drivers/VL53L0X/core/src/vl53l0x_api.c **** VL53L0X_Error VL53L0X_DataInit(VL53L0X_DEV Dev)
 368:Drivers/VL53L0X/core/src/vl53l0x_api.c **** {
 1165              		.loc 1 368 1
 1166              		.cfi_startproc
 1167              		@ args = 0, pretend = 0, frame = 88
 1168              		@ frame_needed = 1, uses_anonymous_args = 0
 1169 0000 B0B5     		push	{r4, r5, r7, lr}
 1170              		.cfi_def_cfa_offset 16
 1171              		.cfi_offset 4, -16
 1172              		.cfi_offset 5, -12
 1173              		.cfi_offset 7, -8
 1174              		.cfi_offset 14, -4
 1175 0002 96B0     		sub	sp, sp, #88
 1176              		.cfi_def_cfa_offset 104
 1177 0004 00AF     		add	r7, sp, #0
 1178              		.cfi_def_cfa_register 7
 1179 0006 7860     		str	r0, [r7, #4]
 369:Drivers/VL53L0X/core/src/vl53l0x_api.c **** 	VL53L0X_Error Status = VL53L0X_ERROR_NONE;
 1180              		.loc 1 369 16
 1181 0008 0023     		movs	r3, #0
ARM GAS  C:\Users\Morroway\AppData\Local\Temp\ccih4NWY.s 			page 30


 1182 000a 87F85730 		strb	r3, [r7, #87]
 370:Drivers/VL53L0X/core/src/vl53l0x_api.c **** 	VL53L0X_DeviceParameters_t CurrentParameters;
 371:Drivers/VL53L0X/core/src/vl53l0x_api.c **** 	int i;
 372:Drivers/VL53L0X/core/src/vl53l0x_api.c **** 	uint8_t StopVariable;
 373:Drivers/VL53L0X/core/src/vl53l0x_api.c **** 
 374:Drivers/VL53L0X/core/src/vl53l0x_api.c **** 	LOG_FUNCTION_START("");
 375:Drivers/VL53L0X/core/src/vl53l0x_api.c **** 
 376:Drivers/VL53L0X/core/src/vl53l0x_api.c **** 	/* by default the I2C is running at 1V8 if you want to change it you
 377:Drivers/VL53L0X/core/src/vl53l0x_api.c **** 	 * need to include this define at compilation level. */
 378:Drivers/VL53L0X/core/src/vl53l0x_api.c **** #ifdef USE_I2C_2V8
 379:Drivers/VL53L0X/core/src/vl53l0x_api.c **** 	Status = VL53L0X_UpdateByte(Dev,
 380:Drivers/VL53L0X/core/src/vl53l0x_api.c **** 		VL53L0X_REG_VHV_CONFIG_PAD_SCL_SDA__EXTSUP_HV,
 381:Drivers/VL53L0X/core/src/vl53l0x_api.c **** 		0xFE,
 382:Drivers/VL53L0X/core/src/vl53l0x_api.c **** 		0x01);
 383:Drivers/VL53L0X/core/src/vl53l0x_api.c **** #endif
 384:Drivers/VL53L0X/core/src/vl53l0x_api.c **** 
 385:Drivers/VL53L0X/core/src/vl53l0x_api.c **** 	/* Set I2C standard mode */
 386:Drivers/VL53L0X/core/src/vl53l0x_api.c **** 	if (Status == VL53L0X_ERROR_NONE)
 1183              		.loc 1 386 5
 1184 000e 97F95730 		ldrsb	r3, [r7, #87]
 1185 0012 002B     		cmp	r3, #0
 1186 0014 07D1     		bne	.L51
 387:Drivers/VL53L0X/core/src/vl53l0x_api.c **** 		Status = VL53L0X_WrByte(Dev, 0x88, 0x00);
 1187              		.loc 1 387 12
 1188 0016 0022     		movs	r2, #0
 1189 0018 8821     		movs	r1, #136
 1190 001a 7868     		ldr	r0, [r7, #4]
 1191 001c FFF7FEFF 		bl	VL53L0X_WrByte
 1192 0020 0346     		mov	r3, r0
 1193 0022 87F85730 		strb	r3, [r7, #87]
 1194              	.L51:
 388:Drivers/VL53L0X/core/src/vl53l0x_api.c **** 
 389:Drivers/VL53L0X/core/src/vl53l0x_api.c **** 	VL53L0X_SETDEVICESPECIFICPARAMETER(Dev, ReadDataFromDeviceDone, 0);
 1195              		.loc 1 389 2
 1196 0026 7B68     		ldr	r3, [r7, #4]
 1197 0028 0022     		movs	r2, #0
 1198 002a 83F8F020 		strb	r2, [r3, #240]
 390:Drivers/VL53L0X/core/src/vl53l0x_api.c **** 
 391:Drivers/VL53L0X/core/src/vl53l0x_api.c **** #ifdef USE_IQC_STATION
 392:Drivers/VL53L0X/core/src/vl53l0x_api.c **** 	if (Status == VL53L0X_ERROR_NONE)
 393:Drivers/VL53L0X/core/src/vl53l0x_api.c **** 		Status = VL53L0X_apply_offset_adjustment(Dev);
 394:Drivers/VL53L0X/core/src/vl53l0x_api.c **** #endif
 395:Drivers/VL53L0X/core/src/vl53l0x_api.c **** 
 396:Drivers/VL53L0X/core/src/vl53l0x_api.c **** 	/* Default value is 1000 for Linearity Corrective Gain */
 397:Drivers/VL53L0X/core/src/vl53l0x_api.c **** 	PALDevDataSet(Dev, LinearityCorrectiveGain, 1000);
 1199              		.loc 1 397 2
 1200 002e 7B68     		ldr	r3, [r7, #4]
 1201 0030 4FF47A72 		mov	r2, #1000
 1202 0034 A3F85221 		strh	r2, [r3, #338]	@ movhi
 398:Drivers/VL53L0X/core/src/vl53l0x_api.c **** 
 399:Drivers/VL53L0X/core/src/vl53l0x_api.c **** 	/* Dmax default Parameter */
 400:Drivers/VL53L0X/core/src/vl53l0x_api.c **** 	PALDevDataSet(Dev, DmaxCalRangeMilliMeter, 400);
 1203              		.loc 1 400 2
 1204 0038 7B68     		ldr	r3, [r7, #4]
 1205 003a 4FF4C872 		mov	r2, #400
 1206 003e A3F85421 		strh	r2, [r3, #340]	@ movhi
 401:Drivers/VL53L0X/core/src/vl53l0x_api.c **** 	PALDevDataSet(Dev, DmaxCalSignalRateRtnMegaCps,
ARM GAS  C:\Users\Morroway\AppData\Local\Temp\ccih4NWY.s 			page 31


 1207              		.loc 1 401 2
 1208 0042 7B68     		ldr	r3, [r7, #4]
 1209 0044 9E4A     		ldr	r2, .L70
 1210 0046 C3F85821 		str	r2, [r3, #344]
 402:Drivers/VL53L0X/core/src/vl53l0x_api.c **** 		(FixPoint1616_t)((0x00016B85))); /* 1.42 No Cover Glass*/
 403:Drivers/VL53L0X/core/src/vl53l0x_api.c **** 
 404:Drivers/VL53L0X/core/src/vl53l0x_api.c **** 	/* Set Default static parameters
 405:Drivers/VL53L0X/core/src/vl53l0x_api.c **** 	 *set first temporary values 9.44MHz * 65536 = 618660 */
 406:Drivers/VL53L0X/core/src/vl53l0x_api.c **** 	VL53L0X_SETDEVICESPECIFICPARAMETER(Dev, OscFrequencyMHz, 618660);
 1211              		.loc 1 406 2
 1212 004a 7B68     		ldr	r3, [r7, #4]
 1213 004c 9D4A     		ldr	r2, .L70+4
 1214 004e C3F8D420 		str	r2, [r3, #212]
 407:Drivers/VL53L0X/core/src/vl53l0x_api.c **** 
 408:Drivers/VL53L0X/core/src/vl53l0x_api.c **** 	/* Set Default XTalkCompensationRateMegaCps to 0  */
 409:Drivers/VL53L0X/core/src/vl53l0x_api.c **** 	VL53L0X_SETPARAMETERFIELD(Dev, XTalkCompensationRateMegaCps, 0);
 1215              		.loc 1 409 2
 1216 0052 7B68     		ldr	r3, [r7, #4]
 1217 0054 0022     		movs	r2, #0
 1218 0056 1A62     		str	r2, [r3, #32]
 410:Drivers/VL53L0X/core/src/vl53l0x_api.c **** 
 411:Drivers/VL53L0X/core/src/vl53l0x_api.c **** 	/* Get default parameters */
 412:Drivers/VL53L0X/core/src/vl53l0x_api.c **** 	Status = VL53L0X_GetDeviceParameters(Dev, &CurrentParameters);
 1219              		.loc 1 412 11
 1220 0058 07F11003 		add	r3, r7, #16
 1221 005c 1946     		mov	r1, r3
 1222 005e 7868     		ldr	r0, [r7, #4]
 1223 0060 FFF7FEFF 		bl	VL53L0X_GetDeviceParameters
 1224 0064 0346     		mov	r3, r0
 1225 0066 87F85730 		strb	r3, [r7, #87]
 413:Drivers/VL53L0X/core/src/vl53l0x_api.c **** 	if (Status == VL53L0X_ERROR_NONE) {
 1226              		.loc 1 413 5
 1227 006a 97F95730 		ldrsb	r3, [r7, #87]
 1228 006e 002B     		cmp	r3, #0
 1229 0070 12D1     		bne	.L52
 414:Drivers/VL53L0X/core/src/vl53l0x_api.c **** 		/* initialize PAL values */
 415:Drivers/VL53L0X/core/src/vl53l0x_api.c **** 		CurrentParameters.DeviceMode = VL53L0X_DEVICEMODE_SINGLE_RANGING;
 1230              		.loc 1 415 32
 1231 0072 0023     		movs	r3, #0
 1232 0074 3B74     		strb	r3, [r7, #16]
 416:Drivers/VL53L0X/core/src/vl53l0x_api.c **** 		CurrentParameters.HistogramMode = VL53L0X_HISTOGRAMMODE_DISABLED;
 1233              		.loc 1 416 35
 1234 0076 0023     		movs	r3, #0
 1235 0078 7B74     		strb	r3, [r7, #17]
 417:Drivers/VL53L0X/core/src/vl53l0x_api.c **** 		PALDevDataSet(Dev, CurrentParameters, CurrentParameters);
 1236              		.loc 1 417 3
 1237 007a 7B68     		ldr	r3, [r7, #4]
 1238 007c 03F11004 		add	r4, r3, #16
 1239 0080 07F11005 		add	r5, r7, #16
 1240 0084 0FCD     		ldmia	r5!, {r0, r1, r2, r3}
 1241 0086 0FC4     		stmia	r4!, {r0, r1, r2, r3}
 1242 0088 0FCD     		ldmia	r5!, {r0, r1, r2, r3}
 1243 008a 0FC4     		stmia	r4!, {r0, r1, r2, r3}
 1244 008c 0FCD     		ldmia	r5!, {r0, r1, r2, r3}
 1245 008e 0FC4     		stmia	r4!, {r0, r1, r2, r3}
 1246 0090 95E80F00 		ldm	r5, {r0, r1, r2, r3}
 1247 0094 84E80F00 		stm	r4, {r0, r1, r2, r3}
ARM GAS  C:\Users\Morroway\AppData\Local\Temp\ccih4NWY.s 			page 32


 1248              	.L52:
 418:Drivers/VL53L0X/core/src/vl53l0x_api.c **** 	}
 419:Drivers/VL53L0X/core/src/vl53l0x_api.c **** 
 420:Drivers/VL53L0X/core/src/vl53l0x_api.c **** 	/* Sigma estimator variable */
 421:Drivers/VL53L0X/core/src/vl53l0x_api.c **** 	PALDevDataSet(Dev, SigmaEstRefArray, 100);
 1249              		.loc 1 421 2
 1250 0098 7B68     		ldr	r3, [r7, #4]
 1251 009a 6422     		movs	r2, #100
 1252 009c A3F83421 		strh	r2, [r3, #308]	@ movhi
 422:Drivers/VL53L0X/core/src/vl53l0x_api.c **** 	PALDevDataSet(Dev, SigmaEstEffPulseWidth, 900);
 1253              		.loc 1 422 2
 1254 00a0 7B68     		ldr	r3, [r7, #4]
 1255 00a2 4FF46172 		mov	r2, #900
 1256 00a6 A3F83621 		strh	r2, [r3, #310]	@ movhi
 423:Drivers/VL53L0X/core/src/vl53l0x_api.c **** 	PALDevDataSet(Dev, SigmaEstEffAmbWidth, 500);
 1257              		.loc 1 423 2
 1258 00aa 7B68     		ldr	r3, [r7, #4]
 1259 00ac 4FF4FA72 		mov	r2, #500
 1260 00b0 A3F83821 		strh	r2, [r3, #312]	@ movhi
 424:Drivers/VL53L0X/core/src/vl53l0x_api.c **** 	PALDevDataSet(Dev, targetRefRate, 0x0A00); /* 20 MCPS in 9:7 format */
 1261              		.loc 1 424 2
 1262 00b4 7B68     		ldr	r3, [r7, #4]
 1263 00b6 4FF42062 		mov	r2, #2560
 1264 00ba A3F83C21 		strh	r2, [r3, #316]	@ movhi
 425:Drivers/VL53L0X/core/src/vl53l0x_api.c **** 
 426:Drivers/VL53L0X/core/src/vl53l0x_api.c **** 	/* Use internal default settings */
 427:Drivers/VL53L0X/core/src/vl53l0x_api.c **** 	PALDevDataSet(Dev, UseInternalTuningSettings, 1);
 1265              		.loc 1 427 2
 1266 00be 7B68     		ldr	r3, [r7, #4]
 1267 00c0 0122     		movs	r2, #1
 1268 00c2 83F85021 		strb	r2, [r3, #336]
 428:Drivers/VL53L0X/core/src/vl53l0x_api.c **** 
 429:Drivers/VL53L0X/core/src/vl53l0x_api.c **** 	Status |= VL53L0X_WrByte(Dev, 0x80, 0x01);
 1269              		.loc 1 429 12
 1270 00c6 0122     		movs	r2, #1
 1271 00c8 8021     		movs	r1, #128
 1272 00ca 7868     		ldr	r0, [r7, #4]
 1273 00cc FFF7FEFF 		bl	VL53L0X_WrByte
 1274 00d0 0346     		mov	r3, r0
 1275 00d2 1A46     		mov	r2, r3
 1276              		.loc 1 429 9
 1277 00d4 97F85730 		ldrb	r3, [r7, #87]
 1278 00d8 1343     		orrs	r3, r3, r2
 1279 00da 87F85730 		strb	r3, [r7, #87]
 430:Drivers/VL53L0X/core/src/vl53l0x_api.c **** 	Status |= VL53L0X_WrByte(Dev, 0xFF, 0x01);
 1280              		.loc 1 430 12
 1281 00de 0122     		movs	r2, #1
 1282 00e0 FF21     		movs	r1, #255
 1283 00e2 7868     		ldr	r0, [r7, #4]
 1284 00e4 FFF7FEFF 		bl	VL53L0X_WrByte
 1285 00e8 0346     		mov	r3, r0
 1286 00ea 1A46     		mov	r2, r3
 1287              		.loc 1 430 9
 1288 00ec 97F85730 		ldrb	r3, [r7, #87]
 1289 00f0 1343     		orrs	r3, r3, r2
 1290 00f2 87F85730 		strb	r3, [r7, #87]
 431:Drivers/VL53L0X/core/src/vl53l0x_api.c **** 	Status |= VL53L0X_WrByte(Dev, 0x00, 0x00);
ARM GAS  C:\Users\Morroway\AppData\Local\Temp\ccih4NWY.s 			page 33


 1291              		.loc 1 431 12
 1292 00f6 0022     		movs	r2, #0
 1293 00f8 0021     		movs	r1, #0
 1294 00fa 7868     		ldr	r0, [r7, #4]
 1295 00fc FFF7FEFF 		bl	VL53L0X_WrByte
 1296 0100 0346     		mov	r3, r0
 1297 0102 1A46     		mov	r2, r3
 1298              		.loc 1 431 9
 1299 0104 97F85730 		ldrb	r3, [r7, #87]
 1300 0108 1343     		orrs	r3, r3, r2
 1301 010a 87F85730 		strb	r3, [r7, #87]
 432:Drivers/VL53L0X/core/src/vl53l0x_api.c **** 	Status |= VL53L0X_RdByte(Dev, 0x91, &StopVariable);
 1302              		.loc 1 432 12
 1303 010e 07F10F03 		add	r3, r7, #15
 1304 0112 1A46     		mov	r2, r3
 1305 0114 9121     		movs	r1, #145
 1306 0116 7868     		ldr	r0, [r7, #4]
 1307 0118 FFF7FEFF 		bl	VL53L0X_RdByte
 1308 011c 0346     		mov	r3, r0
 1309 011e 1A46     		mov	r2, r3
 1310              		.loc 1 432 9
 1311 0120 97F85730 		ldrb	r3, [r7, #87]
 1312 0124 1343     		orrs	r3, r3, r2
 1313 0126 87F85730 		strb	r3, [r7, #87]
 433:Drivers/VL53L0X/core/src/vl53l0x_api.c **** 	PALDevDataSet(Dev, StopVariable, StopVariable);
 1314              		.loc 1 433 2
 1315 012a FA7B     		ldrb	r2, [r7, #15]	@ zero_extendqisi2
 1316 012c 7B68     		ldr	r3, [r7, #4]
 1317 012e 83F83A21 		strb	r2, [r3, #314]
 434:Drivers/VL53L0X/core/src/vl53l0x_api.c **** 	Status |= VL53L0X_WrByte(Dev, 0x00, 0x01);
 1318              		.loc 1 434 12
 1319 0132 0122     		movs	r2, #1
 1320 0134 0021     		movs	r1, #0
 1321 0136 7868     		ldr	r0, [r7, #4]
 1322 0138 FFF7FEFF 		bl	VL53L0X_WrByte
 1323 013c 0346     		mov	r3, r0
 1324 013e 1A46     		mov	r2, r3
 1325              		.loc 1 434 9
 1326 0140 97F85730 		ldrb	r3, [r7, #87]
 1327 0144 1343     		orrs	r3, r3, r2
 1328 0146 87F85730 		strb	r3, [r7, #87]
 435:Drivers/VL53L0X/core/src/vl53l0x_api.c **** 	Status |= VL53L0X_WrByte(Dev, 0xFF, 0x00);
 1329              		.loc 1 435 12
 1330 014a 0022     		movs	r2, #0
 1331 014c FF21     		movs	r1, #255
 1332 014e 7868     		ldr	r0, [r7, #4]
 1333 0150 FFF7FEFF 		bl	VL53L0X_WrByte
 1334 0154 0346     		mov	r3, r0
 1335 0156 1A46     		mov	r2, r3
 1336              		.loc 1 435 9
 1337 0158 97F85730 		ldrb	r3, [r7, #87]
 1338 015c 1343     		orrs	r3, r3, r2
 1339 015e 87F85730 		strb	r3, [r7, #87]
 436:Drivers/VL53L0X/core/src/vl53l0x_api.c **** 	Status |= VL53L0X_WrByte(Dev, 0x80, 0x00);
 1340              		.loc 1 436 12
 1341 0162 0022     		movs	r2, #0
 1342 0164 8021     		movs	r1, #128
ARM GAS  C:\Users\Morroway\AppData\Local\Temp\ccih4NWY.s 			page 34


 1343 0166 7868     		ldr	r0, [r7, #4]
 1344 0168 FFF7FEFF 		bl	VL53L0X_WrByte
 1345 016c 0346     		mov	r3, r0
 1346 016e 1A46     		mov	r2, r3
 1347              		.loc 1 436 9
 1348 0170 97F85730 		ldrb	r3, [r7, #87]
 1349 0174 1343     		orrs	r3, r3, r2
 1350 0176 87F85730 		strb	r3, [r7, #87]
 437:Drivers/VL53L0X/core/src/vl53l0x_api.c **** 
 438:Drivers/VL53L0X/core/src/vl53l0x_api.c **** 	/* Enable all check */
 439:Drivers/VL53L0X/core/src/vl53l0x_api.c **** 	for (i = 0; i < VL53L0X_CHECKENABLE_NUMBER_OF_CHECKS; i++) {
 1351              		.loc 1 439 9
 1352 017a 0023     		movs	r3, #0
 1353 017c 3B65     		str	r3, [r7, #80]
 1354              		.loc 1 439 2
 1355 017e 14E0     		b	.L53
 1356              	.L57:
 440:Drivers/VL53L0X/core/src/vl53l0x_api.c **** 		if (Status == VL53L0X_ERROR_NONE)
 1357              		.loc 1 440 6
 1358 0180 97F95730 		ldrsb	r3, [r7, #87]
 1359 0184 002B     		cmp	r3, #0
 1360 0186 14D1     		bne	.L69
 441:Drivers/VL53L0X/core/src/vl53l0x_api.c **** 			Status |= VL53L0X_SetLimitCheckEnable(Dev, i, 1);
 1361              		.loc 1 441 14
 1362 0188 3B6D     		ldr	r3, [r7, #80]
 1363 018a 9BB2     		uxth	r3, r3
 1364 018c 0122     		movs	r2, #1
 1365 018e 1946     		mov	r1, r3
 1366 0190 7868     		ldr	r0, [r7, #4]
 1367 0192 FFF7FEFF 		bl	VL53L0X_SetLimitCheckEnable
 1368 0196 0346     		mov	r3, r0
 1369 0198 1A46     		mov	r2, r3
 1370              		.loc 1 441 11
 1371 019a 97F85730 		ldrb	r3, [r7, #87]
 1372 019e 1343     		orrs	r3, r3, r2
 1373 01a0 87F85730 		strb	r3, [r7, #87]
 439:Drivers/VL53L0X/core/src/vl53l0x_api.c **** 		if (Status == VL53L0X_ERROR_NONE)
 1374              		.loc 1 439 57
 1375 01a4 3B6D     		ldr	r3, [r7, #80]
 1376 01a6 0133     		adds	r3, r3, #1
 1377 01a8 3B65     		str	r3, [r7, #80]
 1378              	.L53:
 439:Drivers/VL53L0X/core/src/vl53l0x_api.c **** 		if (Status == VL53L0X_ERROR_NONE)
 1379              		.loc 1 439 16 discriminator 1
 1380 01aa 3B6D     		ldr	r3, [r7, #80]
 1381 01ac 052B     		cmp	r3, #5
 1382 01ae E7DD     		ble	.L57
 1383 01b0 00E0     		b	.L56
 1384              	.L69:
 442:Drivers/VL53L0X/core/src/vl53l0x_api.c **** 		else
 443:Drivers/VL53L0X/core/src/vl53l0x_api.c **** 			break;
 1385              		.loc 1 443 4
 1386 01b2 00BF     		nop
 1387              	.L56:
 444:Drivers/VL53L0X/core/src/vl53l0x_api.c **** 
 445:Drivers/VL53L0X/core/src/vl53l0x_api.c **** 	}
 446:Drivers/VL53L0X/core/src/vl53l0x_api.c **** 
ARM GAS  C:\Users\Morroway\AppData\Local\Temp\ccih4NWY.s 			page 35


 447:Drivers/VL53L0X/core/src/vl53l0x_api.c **** 	/* Disable the following checks */
 448:Drivers/VL53L0X/core/src/vl53l0x_api.c **** 	if (Status == VL53L0X_ERROR_NONE)
 1388              		.loc 1 448 5
 1389 01b4 97F95730 		ldrsb	r3, [r7, #87]
 1390 01b8 002B     		cmp	r3, #0
 1391 01ba 07D1     		bne	.L58
 449:Drivers/VL53L0X/core/src/vl53l0x_api.c **** 		Status = VL53L0X_SetLimitCheckEnable(Dev,
 1392              		.loc 1 449 12
 1393 01bc 0022     		movs	r2, #0
 1394 01be 0221     		movs	r1, #2
 1395 01c0 7868     		ldr	r0, [r7, #4]
 1396 01c2 FFF7FEFF 		bl	VL53L0X_SetLimitCheckEnable
 1397 01c6 0346     		mov	r3, r0
 1398 01c8 87F85730 		strb	r3, [r7, #87]
 1399              	.L58:
 450:Drivers/VL53L0X/core/src/vl53l0x_api.c **** 			VL53L0X_CHECKENABLE_SIGNAL_REF_CLIP, 0);
 451:Drivers/VL53L0X/core/src/vl53l0x_api.c **** 
 452:Drivers/VL53L0X/core/src/vl53l0x_api.c **** 	if (Status == VL53L0X_ERROR_NONE)
 1400              		.loc 1 452 5
 1401 01cc 97F95730 		ldrsb	r3, [r7, #87]
 1402 01d0 002B     		cmp	r3, #0
 1403 01d2 07D1     		bne	.L59
 453:Drivers/VL53L0X/core/src/vl53l0x_api.c **** 		Status = VL53L0X_SetLimitCheckEnable(Dev,
 1404              		.loc 1 453 12
 1405 01d4 0022     		movs	r2, #0
 1406 01d6 0321     		movs	r1, #3
 1407 01d8 7868     		ldr	r0, [r7, #4]
 1408 01da FFF7FEFF 		bl	VL53L0X_SetLimitCheckEnable
 1409 01de 0346     		mov	r3, r0
 1410 01e0 87F85730 		strb	r3, [r7, #87]
 1411              	.L59:
 454:Drivers/VL53L0X/core/src/vl53l0x_api.c **** 			VL53L0X_CHECKENABLE_RANGE_IGNORE_THRESHOLD, 0);
 455:Drivers/VL53L0X/core/src/vl53l0x_api.c **** 
 456:Drivers/VL53L0X/core/src/vl53l0x_api.c **** 	if (Status == VL53L0X_ERROR_NONE)
 1412              		.loc 1 456 5
 1413 01e4 97F95730 		ldrsb	r3, [r7, #87]
 1414 01e8 002B     		cmp	r3, #0
 1415 01ea 07D1     		bne	.L60
 457:Drivers/VL53L0X/core/src/vl53l0x_api.c **** 		Status = VL53L0X_SetLimitCheckEnable(Dev,
 1416              		.loc 1 457 12
 1417 01ec 0022     		movs	r2, #0
 1418 01ee 0421     		movs	r1, #4
 1419 01f0 7868     		ldr	r0, [r7, #4]
 1420 01f2 FFF7FEFF 		bl	VL53L0X_SetLimitCheckEnable
 1421 01f6 0346     		mov	r3, r0
 1422 01f8 87F85730 		strb	r3, [r7, #87]
 1423              	.L60:
 458:Drivers/VL53L0X/core/src/vl53l0x_api.c **** 			VL53L0X_CHECKENABLE_SIGNAL_RATE_MSRC, 0);
 459:Drivers/VL53L0X/core/src/vl53l0x_api.c **** 
 460:Drivers/VL53L0X/core/src/vl53l0x_api.c **** 	if (Status == VL53L0X_ERROR_NONE)
 1424              		.loc 1 460 5
 1425 01fc 97F95730 		ldrsb	r3, [r7, #87]
 1426 0200 002B     		cmp	r3, #0
 1427 0202 07D1     		bne	.L61
 461:Drivers/VL53L0X/core/src/vl53l0x_api.c **** 		Status = VL53L0X_SetLimitCheckEnable(Dev,
 1428              		.loc 1 461 12
 1429 0204 0022     		movs	r2, #0
ARM GAS  C:\Users\Morroway\AppData\Local\Temp\ccih4NWY.s 			page 36


 1430 0206 0521     		movs	r1, #5
 1431 0208 7868     		ldr	r0, [r7, #4]
 1432 020a FFF7FEFF 		bl	VL53L0X_SetLimitCheckEnable
 1433 020e 0346     		mov	r3, r0
 1434 0210 87F85730 		strb	r3, [r7, #87]
 1435              	.L61:
 462:Drivers/VL53L0X/core/src/vl53l0x_api.c **** 			VL53L0X_CHECKENABLE_SIGNAL_RATE_PRE_RANGE, 0);
 463:Drivers/VL53L0X/core/src/vl53l0x_api.c **** 
 464:Drivers/VL53L0X/core/src/vl53l0x_api.c **** 	/* Limit default values */
 465:Drivers/VL53L0X/core/src/vl53l0x_api.c **** 	if (Status == VL53L0X_ERROR_NONE) {
 1436              		.loc 1 465 5
 1437 0214 97F95730 		ldrsb	r3, [r7, #87]
 1438 0218 002B     		cmp	r3, #0
 1439 021a 08D1     		bne	.L62
 466:Drivers/VL53L0X/core/src/vl53l0x_api.c **** 		Status = VL53L0X_SetLimitCheckValue(Dev,
 1440              		.loc 1 466 12
 1441 021c 4FF49012 		mov	r2, #1179648
 1442 0220 0021     		movs	r1, #0
 1443 0222 7868     		ldr	r0, [r7, #4]
 1444 0224 FFF7FEFF 		bl	VL53L0X_SetLimitCheckValue
 1445 0228 0346     		mov	r3, r0
 1446 022a 87F85730 		strb	r3, [r7, #87]
 1447              	.L62:
 467:Drivers/VL53L0X/core/src/vl53l0x_api.c **** 			VL53L0X_CHECKENABLE_SIGMA_FINAL_RANGE,
 468:Drivers/VL53L0X/core/src/vl53l0x_api.c **** 				(FixPoint1616_t)(18 * 65536));
 469:Drivers/VL53L0X/core/src/vl53l0x_api.c **** 	}
 470:Drivers/VL53L0X/core/src/vl53l0x_api.c **** 	if (Status == VL53L0X_ERROR_NONE) {
 1448              		.loc 1 470 5
 1449 022e 97F95730 		ldrsb	r3, [r7, #87]
 1450 0232 002B     		cmp	r3, #0
 1451 0234 08D1     		bne	.L63
 471:Drivers/VL53L0X/core/src/vl53l0x_api.c **** 		Status = VL53L0X_SetLimitCheckValue(Dev,
 1452              		.loc 1 471 12
 1453 0236 4FF48042 		mov	r2, #16384
 1454 023a 0121     		movs	r1, #1
 1455 023c 7868     		ldr	r0, [r7, #4]
 1456 023e FFF7FEFF 		bl	VL53L0X_SetLimitCheckValue
 1457 0242 0346     		mov	r3, r0
 1458 0244 87F85730 		strb	r3, [r7, #87]
 1459              	.L63:
 472:Drivers/VL53L0X/core/src/vl53l0x_api.c **** 			VL53L0X_CHECKENABLE_SIGNAL_RATE_FINAL_RANGE,
 473:Drivers/VL53L0X/core/src/vl53l0x_api.c **** 				(FixPoint1616_t)(25 * 65536 / 100));
 474:Drivers/VL53L0X/core/src/vl53l0x_api.c **** 				/* 0.25 * 65536 */
 475:Drivers/VL53L0X/core/src/vl53l0x_api.c **** 	}
 476:Drivers/VL53L0X/core/src/vl53l0x_api.c **** 
 477:Drivers/VL53L0X/core/src/vl53l0x_api.c **** 	if (Status == VL53L0X_ERROR_NONE) {
 1460              		.loc 1 477 5
 1461 0248 97F95730 		ldrsb	r3, [r7, #87]
 1462 024c 002B     		cmp	r3, #0
 1463 024e 08D1     		bne	.L64
 478:Drivers/VL53L0X/core/src/vl53l0x_api.c **** 		Status = VL53L0X_SetLimitCheckValue(Dev,
 1464              		.loc 1 478 12
 1465 0250 4FF40C12 		mov	r2, #2293760
 1466 0254 0221     		movs	r1, #2
 1467 0256 7868     		ldr	r0, [r7, #4]
 1468 0258 FFF7FEFF 		bl	VL53L0X_SetLimitCheckValue
 1469 025c 0346     		mov	r3, r0
ARM GAS  C:\Users\Morroway\AppData\Local\Temp\ccih4NWY.s 			page 37


 1470 025e 87F85730 		strb	r3, [r7, #87]
 1471              	.L64:
 479:Drivers/VL53L0X/core/src/vl53l0x_api.c **** 			VL53L0X_CHECKENABLE_SIGNAL_REF_CLIP,
 480:Drivers/VL53L0X/core/src/vl53l0x_api.c **** 				(FixPoint1616_t)(35 * 65536));
 481:Drivers/VL53L0X/core/src/vl53l0x_api.c **** 	}
 482:Drivers/VL53L0X/core/src/vl53l0x_api.c **** 
 483:Drivers/VL53L0X/core/src/vl53l0x_api.c **** 	if (Status == VL53L0X_ERROR_NONE) {
 1472              		.loc 1 483 5
 1473 0262 97F95730 		ldrsb	r3, [r7, #87]
 1474 0266 002B     		cmp	r3, #0
 1475 0268 07D1     		bne	.L65
 484:Drivers/VL53L0X/core/src/vl53l0x_api.c **** 		Status = VL53L0X_SetLimitCheckValue(Dev,
 1476              		.loc 1 484 12
 1477 026a 0022     		movs	r2, #0
 1478 026c 0321     		movs	r1, #3
 1479 026e 7868     		ldr	r0, [r7, #4]
 1480 0270 FFF7FEFF 		bl	VL53L0X_SetLimitCheckValue
 1481 0274 0346     		mov	r3, r0
 1482 0276 87F85730 		strb	r3, [r7, #87]
 1483              	.L65:
 485:Drivers/VL53L0X/core/src/vl53l0x_api.c **** 			VL53L0X_CHECKENABLE_RANGE_IGNORE_THRESHOLD,
 486:Drivers/VL53L0X/core/src/vl53l0x_api.c **** 				(FixPoint1616_t)(0 * 65536));
 487:Drivers/VL53L0X/core/src/vl53l0x_api.c **** 	}
 488:Drivers/VL53L0X/core/src/vl53l0x_api.c **** 
 489:Drivers/VL53L0X/core/src/vl53l0x_api.c **** 	if (Status == VL53L0X_ERROR_NONE) {
 1484              		.loc 1 489 5
 1485 027a 97F95730 		ldrsb	r3, [r7, #87]
 1486 027e 002B     		cmp	r3, #0
 1487 0280 0FD1     		bne	.L66
 490:Drivers/VL53L0X/core/src/vl53l0x_api.c **** 
 491:Drivers/VL53L0X/core/src/vl53l0x_api.c **** 		PALDevDataSet(Dev, SequenceConfig, 0xFF);
 1488              		.loc 1 491 3
 1489 0282 7B68     		ldr	r3, [r7, #4]
 1490 0284 FF22     		movs	r2, #255
 1491 0286 83F83021 		strb	r2, [r3, #304]
 492:Drivers/VL53L0X/core/src/vl53l0x_api.c **** 		Status = VL53L0X_WrByte(Dev, VL53L0X_REG_SYSTEM_SEQUENCE_CONFIG,
 1492              		.loc 1 492 12
 1493 028a FF22     		movs	r2, #255
 1494 028c 0121     		movs	r1, #1
 1495 028e 7868     		ldr	r0, [r7, #4]
 1496 0290 FFF7FEFF 		bl	VL53L0X_WrByte
 1497 0294 0346     		mov	r3, r0
 1498 0296 87F85730 		strb	r3, [r7, #87]
 493:Drivers/VL53L0X/core/src/vl53l0x_api.c **** 			0xFF);
 494:Drivers/VL53L0X/core/src/vl53l0x_api.c **** 
 495:Drivers/VL53L0X/core/src/vl53l0x_api.c **** 		/* Set PAL state to tell that we are waiting for call to
 496:Drivers/VL53L0X/core/src/vl53l0x_api.c **** 		 * VL53L0X_StaticInit */
 497:Drivers/VL53L0X/core/src/vl53l0x_api.c **** 		PALDevDataSet(Dev, PalState, VL53L0X_STATE_WAIT_STATICINIT);
 1499              		.loc 1 497 3
 1500 029a 7B68     		ldr	r3, [r7, #4]
 1501 029c 0122     		movs	r2, #1
 1502 029e 83F83221 		strb	r2, [r3, #306]
 1503              	.L66:
 498:Drivers/VL53L0X/core/src/vl53l0x_api.c **** 	}
 499:Drivers/VL53L0X/core/src/vl53l0x_api.c **** 
 500:Drivers/VL53L0X/core/src/vl53l0x_api.c **** 	if (Status == VL53L0X_ERROR_NONE)
 1504              		.loc 1 500 5
ARM GAS  C:\Users\Morroway\AppData\Local\Temp\ccih4NWY.s 			page 38


 1505 02a2 97F95730 		ldrsb	r3, [r7, #87]
 1506 02a6 002B     		cmp	r3, #0
 1507 02a8 03D1     		bne	.L67
 501:Drivers/VL53L0X/core/src/vl53l0x_api.c **** 		VL53L0X_SETDEVICESPECIFICPARAMETER(Dev, RefSpadsInitialised, 0);
 1508              		.loc 1 501 3
 1509 02aa 7B68     		ldr	r3, [r7, #4]
 1510 02ac 0022     		movs	r2, #0
 1511 02ae 83F81521 		strb	r2, [r3, #277]
 1512              	.L67:
 502:Drivers/VL53L0X/core/src/vl53l0x_api.c **** 
 503:Drivers/VL53L0X/core/src/vl53l0x_api.c **** 
 504:Drivers/VL53L0X/core/src/vl53l0x_api.c **** 	LOG_FUNCTION_END(Status);
 505:Drivers/VL53L0X/core/src/vl53l0x_api.c **** 	return Status;
 1513              		.loc 1 505 9
 1514 02b2 97F95730 		ldrsb	r3, [r7, #87]
 506:Drivers/VL53L0X/core/src/vl53l0x_api.c **** }
 1515              		.loc 1 506 1
 1516 02b6 1846     		mov	r0, r3
 1517 02b8 5837     		adds	r7, r7, #88
 1518              		.cfi_def_cfa_offset 16
 1519 02ba BD46     		mov	sp, r7
 1520              		.cfi_def_cfa_register 13
 1521              		@ sp needed
 1522 02bc B0BD     		pop	{r4, r5, r7, pc}
 1523              	.L71:
 1524 02be 00BF     		.align	2
 1525              	.L70:
 1526 02c0 856B0100 		.word	93061
 1527 02c4 A4700900 		.word	618660
 1528              		.cfi_endproc
 1529              	.LFE344:
 1531              		.section	.text.VL53L0X_SetTuningSettingBuffer,"ax",%progbits
 1532              		.align	1
 1533              		.global	VL53L0X_SetTuningSettingBuffer
 1534              		.syntax unified
 1535              		.thumb
 1536              		.thumb_func
 1538              	VL53L0X_SetTuningSettingBuffer:
 1539              	.LFB345:
 507:Drivers/VL53L0X/core/src/vl53l0x_api.c **** 
 508:Drivers/VL53L0X/core/src/vl53l0x_api.c **** VL53L0X_Error VL53L0X_SetTuningSettingBuffer(VL53L0X_DEV Dev,
 509:Drivers/VL53L0X/core/src/vl53l0x_api.c **** 	uint8_t *pTuningSettingBuffer, uint8_t UseInternalTuningSettings)
 510:Drivers/VL53L0X/core/src/vl53l0x_api.c **** {
 1540              		.loc 1 510 1
 1541              		.cfi_startproc
 1542              		@ args = 0, pretend = 0, frame = 24
 1543              		@ frame_needed = 1, uses_anonymous_args = 0
 1544              		@ link register save eliminated.
 1545 0000 80B4     		push	{r7}
 1546              		.cfi_def_cfa_offset 4
 1547              		.cfi_offset 7, -4
 1548 0002 87B0     		sub	sp, sp, #28
 1549              		.cfi_def_cfa_offset 32
 1550 0004 00AF     		add	r7, sp, #0
 1551              		.cfi_def_cfa_register 7
 1552 0006 F860     		str	r0, [r7, #12]
 1553 0008 B960     		str	r1, [r7, #8]
ARM GAS  C:\Users\Morroway\AppData\Local\Temp\ccih4NWY.s 			page 39


 1554 000a 1346     		mov	r3, r2
 1555 000c FB71     		strb	r3, [r7, #7]
 511:Drivers/VL53L0X/core/src/vl53l0x_api.c **** 	VL53L0X_Error Status = VL53L0X_ERROR_NONE;
 1556              		.loc 1 511 16
 1557 000e 0023     		movs	r3, #0
 1558 0010 FB75     		strb	r3, [r7, #23]
 512:Drivers/VL53L0X/core/src/vl53l0x_api.c **** 
 513:Drivers/VL53L0X/core/src/vl53l0x_api.c **** 	LOG_FUNCTION_START("");
 514:Drivers/VL53L0X/core/src/vl53l0x_api.c **** 
 515:Drivers/VL53L0X/core/src/vl53l0x_api.c **** 	if (UseInternalTuningSettings == 1) {
 1559              		.loc 1 515 5
 1560 0012 FB79     		ldrb	r3, [r7, #7]	@ zero_extendqisi2
 1561 0014 012B     		cmp	r3, #1
 1562 0016 04D1     		bne	.L73
 516:Drivers/VL53L0X/core/src/vl53l0x_api.c **** 		/* Force use internal settings */
 517:Drivers/VL53L0X/core/src/vl53l0x_api.c **** 		PALDevDataSet(Dev, UseInternalTuningSettings, 1);
 1563              		.loc 1 517 3
 1564 0018 FB68     		ldr	r3, [r7, #12]
 1565 001a 0122     		movs	r2, #1
 1566 001c 83F85021 		strb	r2, [r3, #336]
 1567 0020 0EE0     		b	.L74
 1568              	.L73:
 518:Drivers/VL53L0X/core/src/vl53l0x_api.c **** 	} else {
 519:Drivers/VL53L0X/core/src/vl53l0x_api.c **** 
 520:Drivers/VL53L0X/core/src/vl53l0x_api.c **** 		/* check that the first byte is not 0 */
 521:Drivers/VL53L0X/core/src/vl53l0x_api.c **** 		if (*pTuningSettingBuffer != 0) {
 1569              		.loc 1 521 7
 1570 0022 BB68     		ldr	r3, [r7, #8]
 1571 0024 1B78     		ldrb	r3, [r3]	@ zero_extendqisi2
 1572              		.loc 1 521 6
 1573 0026 002B     		cmp	r3, #0
 1574 0028 08D0     		beq	.L75
 522:Drivers/VL53L0X/core/src/vl53l0x_api.c **** 			PALDevDataSet(Dev, pTuningSettingsPointer,
 1575              		.loc 1 522 4
 1576 002a FB68     		ldr	r3, [r7, #12]
 1577 002c BA68     		ldr	r2, [r7, #8]
 1578 002e C3F84C21 		str	r2, [r3, #332]
 523:Drivers/VL53L0X/core/src/vl53l0x_api.c **** 				pTuningSettingBuffer);
 524:Drivers/VL53L0X/core/src/vl53l0x_api.c **** 			PALDevDataSet(Dev, UseInternalTuningSettings, 0);
 1579              		.loc 1 524 4
 1580 0032 FB68     		ldr	r3, [r7, #12]
 1581 0034 0022     		movs	r2, #0
 1582 0036 83F85021 		strb	r2, [r3, #336]
 1583 003a 01E0     		b	.L74
 1584              	.L75:
 525:Drivers/VL53L0X/core/src/vl53l0x_api.c **** 
 526:Drivers/VL53L0X/core/src/vl53l0x_api.c **** 		} else {
 527:Drivers/VL53L0X/core/src/vl53l0x_api.c **** 			Status = VL53L0X_ERROR_INVALID_PARAMS;
 1585              		.loc 1 527 11
 1586 003c FC23     		movs	r3, #252
 1587 003e FB75     		strb	r3, [r7, #23]
 1588              	.L74:
 528:Drivers/VL53L0X/core/src/vl53l0x_api.c **** 		}
 529:Drivers/VL53L0X/core/src/vl53l0x_api.c **** 	}
 530:Drivers/VL53L0X/core/src/vl53l0x_api.c **** 
 531:Drivers/VL53L0X/core/src/vl53l0x_api.c **** 	LOG_FUNCTION_END(Status);
 532:Drivers/VL53L0X/core/src/vl53l0x_api.c **** 	return Status;
ARM GAS  C:\Users\Morroway\AppData\Local\Temp\ccih4NWY.s 			page 40


 1589              		.loc 1 532 9
 1590 0040 97F91730 		ldrsb	r3, [r7, #23]
 533:Drivers/VL53L0X/core/src/vl53l0x_api.c **** }
 1591              		.loc 1 533 1
 1592 0044 1846     		mov	r0, r3
 1593 0046 1C37     		adds	r7, r7, #28
 1594              		.cfi_def_cfa_offset 4
 1595 0048 BD46     		mov	sp, r7
 1596              		.cfi_def_cfa_register 13
 1597              		@ sp needed
 1598 004a 5DF8047B 		ldr	r7, [sp], #4
 1599              		.cfi_restore 7
 1600              		.cfi_def_cfa_offset 0
 1601 004e 7047     		bx	lr
 1602              		.cfi_endproc
 1603              	.LFE345:
 1605              		.section	.text.VL53L0X_GetTuningSettingBuffer,"ax",%progbits
 1606              		.align	1
 1607              		.global	VL53L0X_GetTuningSettingBuffer
 1608              		.syntax unified
 1609              		.thumb
 1610              		.thumb_func
 1612              	VL53L0X_GetTuningSettingBuffer:
 1613              	.LFB346:
 534:Drivers/VL53L0X/core/src/vl53l0x_api.c **** 
 535:Drivers/VL53L0X/core/src/vl53l0x_api.c **** VL53L0X_Error VL53L0X_GetTuningSettingBuffer(VL53L0X_DEV Dev,
 536:Drivers/VL53L0X/core/src/vl53l0x_api.c **** 	uint8_t **ppTuningSettingBuffer, uint8_t *pUseInternalTuningSettings)
 537:Drivers/VL53L0X/core/src/vl53l0x_api.c **** {
 1614              		.loc 1 537 1
 1615              		.cfi_startproc
 1616              		@ args = 0, pretend = 0, frame = 24
 1617              		@ frame_needed = 1, uses_anonymous_args = 0
 1618              		@ link register save eliminated.
 1619 0000 80B4     		push	{r7}
 1620              		.cfi_def_cfa_offset 4
 1621              		.cfi_offset 7, -4
 1622 0002 87B0     		sub	sp, sp, #28
 1623              		.cfi_def_cfa_offset 32
 1624 0004 00AF     		add	r7, sp, #0
 1625              		.cfi_def_cfa_register 7
 1626 0006 F860     		str	r0, [r7, #12]
 1627 0008 B960     		str	r1, [r7, #8]
 1628 000a 7A60     		str	r2, [r7, #4]
 538:Drivers/VL53L0X/core/src/vl53l0x_api.c **** 	VL53L0X_Error Status = VL53L0X_ERROR_NONE;
 1629              		.loc 1 538 16
 1630 000c 0023     		movs	r3, #0
 1631 000e FB75     		strb	r3, [r7, #23]
 539:Drivers/VL53L0X/core/src/vl53l0x_api.c **** 
 540:Drivers/VL53L0X/core/src/vl53l0x_api.c **** 	LOG_FUNCTION_START("");
 541:Drivers/VL53L0X/core/src/vl53l0x_api.c **** 
 542:Drivers/VL53L0X/core/src/vl53l0x_api.c **** 	*ppTuningSettingBuffer = PALDevDataGet(Dev, pTuningSettingsPointer);
 1632              		.loc 1 542 27
 1633 0010 FB68     		ldr	r3, [r7, #12]
 1634 0012 D3F84C21 		ldr	r2, [r3, #332]
 1635              		.loc 1 542 25
 1636 0016 BB68     		ldr	r3, [r7, #8]
 1637 0018 1A60     		str	r2, [r3]
ARM GAS  C:\Users\Morroway\AppData\Local\Temp\ccih4NWY.s 			page 41


 543:Drivers/VL53L0X/core/src/vl53l0x_api.c **** 	*pUseInternalTuningSettings = PALDevDataGet(Dev,
 1638              		.loc 1 543 32
 1639 001a FB68     		ldr	r3, [r7, #12]
 1640 001c 93F85021 		ldrb	r2, [r3, #336]	@ zero_extendqisi2
 1641              		.loc 1 543 30
 1642 0020 7B68     		ldr	r3, [r7, #4]
 1643 0022 1A70     		strb	r2, [r3]
 544:Drivers/VL53L0X/core/src/vl53l0x_api.c **** 		UseInternalTuningSettings);
 545:Drivers/VL53L0X/core/src/vl53l0x_api.c **** 
 546:Drivers/VL53L0X/core/src/vl53l0x_api.c **** 	LOG_FUNCTION_END(Status);
 547:Drivers/VL53L0X/core/src/vl53l0x_api.c **** 	return Status;
 1644              		.loc 1 547 9
 1645 0024 97F91730 		ldrsb	r3, [r7, #23]
 548:Drivers/VL53L0X/core/src/vl53l0x_api.c **** }
 1646              		.loc 1 548 1
 1647 0028 1846     		mov	r0, r3
 1648 002a 1C37     		adds	r7, r7, #28
 1649              		.cfi_def_cfa_offset 4
 1650 002c BD46     		mov	sp, r7
 1651              		.cfi_def_cfa_register 13
 1652              		@ sp needed
 1653 002e 5DF8047B 		ldr	r7, [sp], #4
 1654              		.cfi_restore 7
 1655              		.cfi_def_cfa_offset 0
 1656 0032 7047     		bx	lr
 1657              		.cfi_endproc
 1658              	.LFE346:
 1660              		.section	.text.VL53L0X_StaticInit,"ax",%progbits
 1661              		.align	1
 1662              		.global	VL53L0X_StaticInit
 1663              		.syntax unified
 1664              		.thumb
 1665              		.thumb_func
 1667              	VL53L0X_StaticInit:
 1668              	.LFB347:
 549:Drivers/VL53L0X/core/src/vl53l0x_api.c **** 
 550:Drivers/VL53L0X/core/src/vl53l0x_api.c **** VL53L0X_Error VL53L0X_StaticInit(VL53L0X_DEV Dev)
 551:Drivers/VL53L0X/core/src/vl53l0x_api.c **** {
 1669              		.loc 1 551 1
 1670              		.cfi_startproc
 1671              		@ args = 0, pretend = 0, frame = 112
 1672              		@ frame_needed = 1, uses_anonymous_args = 0
 1673 0000 B0B5     		push	{r4, r5, r7, lr}
 1674              		.cfi_def_cfa_offset 16
 1675              		.cfi_offset 4, -16
 1676              		.cfi_offset 5, -12
 1677              		.cfi_offset 7, -8
 1678              		.cfi_offset 14, -4
 1679 0002 9EB0     		sub	sp, sp, #120
 1680              		.cfi_def_cfa_offset 136
 1681 0004 02AF     		add	r7, sp, #8
 1682              		.cfi_def_cfa 7, 128
 1683 0006 7860     		str	r0, [r7, #4]
 552:Drivers/VL53L0X/core/src/vl53l0x_api.c **** 	VL53L0X_Error Status = VL53L0X_ERROR_NONE;
 1684              		.loc 1 552 16
 1685 0008 0023     		movs	r3, #0
 1686 000a 87F86F30 		strb	r3, [r7, #111]
ARM GAS  C:\Users\Morroway\AppData\Local\Temp\ccih4NWY.s 			page 42


 553:Drivers/VL53L0X/core/src/vl53l0x_api.c **** 	VL53L0X_DeviceParameters_t CurrentParameters = {0};
 1687              		.loc 1 553 29
 1688 000e 07F11C03 		add	r3, r7, #28
 1689 0012 4022     		movs	r2, #64
 1690 0014 0021     		movs	r1, #0
 1691 0016 1846     		mov	r0, r3
 1692 0018 FFF7FEFF 		bl	memset
 554:Drivers/VL53L0X/core/src/vl53l0x_api.c **** 	uint8_t *pTuningSettingBuffer;
 555:Drivers/VL53L0X/core/src/vl53l0x_api.c **** 	uint16_t tempword = 0;
 1693              		.loc 1 555 11
 1694 001c 0023     		movs	r3, #0
 1695 001e 7B83     		strh	r3, [r7, #26]	@ movhi
 556:Drivers/VL53L0X/core/src/vl53l0x_api.c **** 	uint8_t tempbyte = 0;
 1696              		.loc 1 556 10
 1697 0020 0023     		movs	r3, #0
 1698 0022 7B76     		strb	r3, [r7, #25]
 557:Drivers/VL53L0X/core/src/vl53l0x_api.c **** 	uint8_t UseInternalTuningSettings = 0;
 1699              		.loc 1 557 10
 1700 0024 0023     		movs	r3, #0
 1701 0026 87F86730 		strb	r3, [r7, #103]
 558:Drivers/VL53L0X/core/src/vl53l0x_api.c **** 	uint32_t count = 0;
 1702              		.loc 1 558 11
 1703 002a 0023     		movs	r3, #0
 1704 002c 3B66     		str	r3, [r7, #96]
 559:Drivers/VL53L0X/core/src/vl53l0x_api.c **** 	uint8_t isApertureSpads = 0;
 1705              		.loc 1 559 10
 1706 002e 0023     		movs	r3, #0
 1707 0030 3B76     		strb	r3, [r7, #24]
 560:Drivers/VL53L0X/core/src/vl53l0x_api.c **** 	uint32_t refSpadCount = 0;
 1708              		.loc 1 560 11
 1709 0032 0023     		movs	r3, #0
 1710 0034 7B61     		str	r3, [r7, #20]
 561:Drivers/VL53L0X/core/src/vl53l0x_api.c **** 	uint8_t ApertureSpads = 0;
 1711              		.loc 1 561 10
 1712 0036 0023     		movs	r3, #0
 1713 0038 87F85F30 		strb	r3, [r7, #95]
 562:Drivers/VL53L0X/core/src/vl53l0x_api.c **** 	uint8_t vcselPulsePeriodPCLK;
 563:Drivers/VL53L0X/core/src/vl53l0x_api.c **** 	uint32_t seqTimeoutMicroSecs;
 564:Drivers/VL53L0X/core/src/vl53l0x_api.c **** 
 565:Drivers/VL53L0X/core/src/vl53l0x_api.c **** 	LOG_FUNCTION_START("");
 566:Drivers/VL53L0X/core/src/vl53l0x_api.c **** 
 567:Drivers/VL53L0X/core/src/vl53l0x_api.c **** 	Status = VL53L0X_get_info_from_device(Dev, 1);
 1714              		.loc 1 567 11
 1715 003c 0121     		movs	r1, #1
 1716 003e 7868     		ldr	r0, [r7, #4]
 1717 0040 FFF7FEFF 		bl	VL53L0X_get_info_from_device
 1718 0044 0346     		mov	r3, r0
 1719 0046 87F86F30 		strb	r3, [r7, #111]
 568:Drivers/VL53L0X/core/src/vl53l0x_api.c **** 
 569:Drivers/VL53L0X/core/src/vl53l0x_api.c **** 	/* set the ref spad from NVM */
 570:Drivers/VL53L0X/core/src/vl53l0x_api.c **** 	count	= (uint32_t)VL53L0X_GETDEVICESPECIFICPARAMETER(Dev,
 1720              		.loc 1 570 20
 1721 004a 7B68     		ldr	r3, [r7, #4]
 1722 004c 93F81331 		ldrb	r3, [r3, #275]	@ zero_extendqisi2
 1723              		.loc 1 570 8
 1724 0050 3B66     		str	r3, [r7, #96]
 571:Drivers/VL53L0X/core/src/vl53l0x_api.c **** 		ReferenceSpadCount);
ARM GAS  C:\Users\Morroway\AppData\Local\Temp\ccih4NWY.s 			page 43


 572:Drivers/VL53L0X/core/src/vl53l0x_api.c **** 	ApertureSpads = VL53L0X_GETDEVICESPECIFICPARAMETER(Dev,
 1725              		.loc 1 572 16
 1726 0052 7B68     		ldr	r3, [r7, #4]
 1727 0054 93F81431 		ldrb	r3, [r3, #276]
 1728 0058 87F85F30 		strb	r3, [r7, #95]
 573:Drivers/VL53L0X/core/src/vl53l0x_api.c **** 		ReferenceSpadType);
 574:Drivers/VL53L0X/core/src/vl53l0x_api.c **** 
 575:Drivers/VL53L0X/core/src/vl53l0x_api.c **** 	/* NVM value invalid */
 576:Drivers/VL53L0X/core/src/vl53l0x_api.c **** 	if ((ApertureSpads > 1) ||
 1729              		.loc 1 576 5
 1730 005c 97F85F30 		ldrb	r3, [r7, #95]	@ zero_extendqisi2
 1731 0060 012B     		cmp	r3, #1
 1732 0062 0DD8     		bhi	.L80
 1733              		.loc 1 576 26 discriminator 1
 1734 0064 97F85F30 		ldrb	r3, [r7, #95]	@ zero_extendqisi2
 1735 0068 012B     		cmp	r3, #1
 1736 006a 02D1     		bne	.L81
 577:Drivers/VL53L0X/core/src/vl53l0x_api.c **** 		((ApertureSpads == 1) && (count > 32)) ||
 1737              		.loc 1 577 25
 1738 006c 3B6E     		ldr	r3, [r7, #96]
 1739 006e 202B     		cmp	r3, #32
 1740 0070 06D8     		bhi	.L80
 1741              	.L81:
 1742              		.loc 1 577 42 discriminator 1
 1743 0072 97F85F30 		ldrb	r3, [r7, #95]	@ zero_extendqisi2
 1744 0076 002B     		cmp	r3, #0
 1745 0078 0ED1     		bne	.L82
 578:Drivers/VL53L0X/core/src/vl53l0x_api.c **** 		((ApertureSpads == 0) && (count > 12)))
 1746              		.loc 1 578 25
 1747 007a 3B6E     		ldr	r3, [r7, #96]
 1748 007c 0C2B     		cmp	r3, #12
 1749 007e 0BD9     		bls	.L82
 1750              	.L80:
 579:Drivers/VL53L0X/core/src/vl53l0x_api.c **** 		Status = VL53L0X_perform_ref_spad_management(Dev, &refSpadCount,
 1751              		.loc 1 579 12
 1752 0080 07F11802 		add	r2, r7, #24
 1753 0084 07F11403 		add	r3, r7, #20
 1754 0088 1946     		mov	r1, r3
 1755 008a 7868     		ldr	r0, [r7, #4]
 1756 008c FFF7FEFF 		bl	VL53L0X_perform_ref_spad_management
 1757 0090 0346     		mov	r3, r0
 1758 0092 87F86F30 		strb	r3, [r7, #111]
 1759              		.loc 1 579 10
 1760 0096 09E0     		b	.L83
 1761              	.L82:
 580:Drivers/VL53L0X/core/src/vl53l0x_api.c **** 			&isApertureSpads);
 581:Drivers/VL53L0X/core/src/vl53l0x_api.c **** 	else
 582:Drivers/VL53L0X/core/src/vl53l0x_api.c **** 		Status = VL53L0X_set_reference_spads(Dev, count, ApertureSpads);
 1762              		.loc 1 582 12
 1763 0098 97F85F30 		ldrb	r3, [r7, #95]	@ zero_extendqisi2
 1764 009c 1A46     		mov	r2, r3
 1765 009e 396E     		ldr	r1, [r7, #96]
 1766 00a0 7868     		ldr	r0, [r7, #4]
 1767 00a2 FFF7FEFF 		bl	VL53L0X_set_reference_spads
 1768 00a6 0346     		mov	r3, r0
 1769 00a8 87F86F30 		strb	r3, [r7, #111]
 1770              	.L83:
ARM GAS  C:\Users\Morroway\AppData\Local\Temp\ccih4NWY.s 			page 44


 583:Drivers/VL53L0X/core/src/vl53l0x_api.c **** 
 584:Drivers/VL53L0X/core/src/vl53l0x_api.c **** 
 585:Drivers/VL53L0X/core/src/vl53l0x_api.c **** 	/* Initialize tuning settings buffer to prevent compiler warning. */
 586:Drivers/VL53L0X/core/src/vl53l0x_api.c **** 	pTuningSettingBuffer = DefaultTuningSettings;
 1771              		.loc 1 586 23
 1772 00ac 944B     		ldr	r3, .L106
 1773 00ae BB66     		str	r3, [r7, #104]
 587:Drivers/VL53L0X/core/src/vl53l0x_api.c **** 
 588:Drivers/VL53L0X/core/src/vl53l0x_api.c **** 	if (Status == VL53L0X_ERROR_NONE) {
 1774              		.loc 1 588 5
 1775 00b0 97F96F30 		ldrsb	r3, [r7, #111]
 1776 00b4 002B     		cmp	r3, #0
 1777 00b6 0FD1     		bne	.L84
 589:Drivers/VL53L0X/core/src/vl53l0x_api.c **** 		UseInternalTuningSettings = PALDevDataGet(Dev,
 1778              		.loc 1 589 29
 1779 00b8 7B68     		ldr	r3, [r7, #4]
 1780 00ba 93F85031 		ldrb	r3, [r3, #336]
 1781 00be 87F86730 		strb	r3, [r7, #103]
 590:Drivers/VL53L0X/core/src/vl53l0x_api.c **** 			UseInternalTuningSettings);
 591:Drivers/VL53L0X/core/src/vl53l0x_api.c **** 
 592:Drivers/VL53L0X/core/src/vl53l0x_api.c **** 		if (UseInternalTuningSettings == 0)
 1782              		.loc 1 592 6
 1783 00c2 97F86730 		ldrb	r3, [r7, #103]	@ zero_extendqisi2
 1784 00c6 002B     		cmp	r3, #0
 1785 00c8 04D1     		bne	.L85
 593:Drivers/VL53L0X/core/src/vl53l0x_api.c **** 			pTuningSettingBuffer = PALDevDataGet(Dev,
 1786              		.loc 1 593 25
 1787 00ca 7B68     		ldr	r3, [r7, #4]
 1788 00cc D3F84C31 		ldr	r3, [r3, #332]
 1789 00d0 BB66     		str	r3, [r7, #104]
 1790 00d2 01E0     		b	.L84
 1791              	.L85:
 594:Drivers/VL53L0X/core/src/vl53l0x_api.c **** 				pTuningSettingsPointer);
 595:Drivers/VL53L0X/core/src/vl53l0x_api.c **** 		else
 596:Drivers/VL53L0X/core/src/vl53l0x_api.c **** 			pTuningSettingBuffer = DefaultTuningSettings;
 1792              		.loc 1 596 25
 1793 00d4 8A4B     		ldr	r3, .L106
 1794 00d6 BB66     		str	r3, [r7, #104]
 1795              	.L84:
 597:Drivers/VL53L0X/core/src/vl53l0x_api.c **** 
 598:Drivers/VL53L0X/core/src/vl53l0x_api.c **** 	}
 599:Drivers/VL53L0X/core/src/vl53l0x_api.c **** 
 600:Drivers/VL53L0X/core/src/vl53l0x_api.c **** 	if (Status == VL53L0X_ERROR_NONE)
 1796              		.loc 1 600 5
 1797 00d8 97F96F30 		ldrsb	r3, [r7, #111]
 1798 00dc 002B     		cmp	r3, #0
 1799 00de 06D1     		bne	.L86
 601:Drivers/VL53L0X/core/src/vl53l0x_api.c **** 		Status = VL53L0X_load_tuning_settings(Dev, pTuningSettingBuffer);
 1800              		.loc 1 601 12
 1801 00e0 B96E     		ldr	r1, [r7, #104]
 1802 00e2 7868     		ldr	r0, [r7, #4]
 1803 00e4 FFF7FEFF 		bl	VL53L0X_load_tuning_settings
 1804 00e8 0346     		mov	r3, r0
 1805 00ea 87F86F30 		strb	r3, [r7, #111]
 1806              	.L86:
 602:Drivers/VL53L0X/core/src/vl53l0x_api.c **** 
 603:Drivers/VL53L0X/core/src/vl53l0x_api.c **** 
ARM GAS  C:\Users\Morroway\AppData\Local\Temp\ccih4NWY.s 			page 45


 604:Drivers/VL53L0X/core/src/vl53l0x_api.c **** 	/* Set interrupt config to new sample ready */
 605:Drivers/VL53L0X/core/src/vl53l0x_api.c **** 	if (Status == VL53L0X_ERROR_NONE) {
 1807              		.loc 1 605 5
 1808 00ee 97F96F30 		ldrsb	r3, [r7, #111]
 1809 00f2 002B     		cmp	r3, #0
 1810 00f4 0AD1     		bne	.L87
 606:Drivers/VL53L0X/core/src/vl53l0x_api.c **** 		Status = VL53L0X_SetGpioConfig(Dev, 0, 0,
 1811              		.loc 1 606 12
 1812 00f6 0023     		movs	r3, #0
 1813 00f8 0093     		str	r3, [sp]
 1814 00fa 0423     		movs	r3, #4
 1815 00fc 0022     		movs	r2, #0
 1816 00fe 0021     		movs	r1, #0
 1817 0100 7868     		ldr	r0, [r7, #4]
 1818 0102 FFF7FEFF 		bl	VL53L0X_SetGpioConfig
 1819 0106 0346     		mov	r3, r0
 1820 0108 87F86F30 		strb	r3, [r7, #111]
 1821              	.L87:
 607:Drivers/VL53L0X/core/src/vl53l0x_api.c **** 		VL53L0X_REG_SYSTEM_INTERRUPT_GPIO_NEW_SAMPLE_READY,
 608:Drivers/VL53L0X/core/src/vl53l0x_api.c **** 		VL53L0X_INTERRUPTPOLARITY_LOW);
 609:Drivers/VL53L0X/core/src/vl53l0x_api.c **** 	}
 610:Drivers/VL53L0X/core/src/vl53l0x_api.c **** 
 611:Drivers/VL53L0X/core/src/vl53l0x_api.c **** 	if (Status == VL53L0X_ERROR_NONE) {
 1822              		.loc 1 611 5
 1823 010c 97F96F30 		ldrsb	r3, [r7, #111]
 1824 0110 002B     		cmp	r3, #0
 1825 0112 21D1     		bne	.L88
 612:Drivers/VL53L0X/core/src/vl53l0x_api.c **** 		Status = VL53L0X_WrByte(Dev, 0xFF, 0x01);
 1826              		.loc 1 612 12
 1827 0114 0122     		movs	r2, #1
 1828 0116 FF21     		movs	r1, #255
 1829 0118 7868     		ldr	r0, [r7, #4]
 1830 011a FFF7FEFF 		bl	VL53L0X_WrByte
 1831 011e 0346     		mov	r3, r0
 1832 0120 87F86F30 		strb	r3, [r7, #111]
 613:Drivers/VL53L0X/core/src/vl53l0x_api.c **** 		Status |= VL53L0X_RdWord(Dev, 0x84, &tempword);
 1833              		.loc 1 613 13
 1834 0124 07F11A03 		add	r3, r7, #26
 1835 0128 1A46     		mov	r2, r3
 1836 012a 8421     		movs	r1, #132
 1837 012c 7868     		ldr	r0, [r7, #4]
 1838 012e FFF7FEFF 		bl	VL53L0X_RdWord
 1839 0132 0346     		mov	r3, r0
 1840 0134 1A46     		mov	r2, r3
 1841              		.loc 1 613 10
 1842 0136 97F86F30 		ldrb	r3, [r7, #111]
 1843 013a 1343     		orrs	r3, r3, r2
 1844 013c 87F86F30 		strb	r3, [r7, #111]
 614:Drivers/VL53L0X/core/src/vl53l0x_api.c **** 		Status |= VL53L0X_WrByte(Dev, 0xFF, 0x00);
 1845              		.loc 1 614 13
 1846 0140 0022     		movs	r2, #0
 1847 0142 FF21     		movs	r1, #255
 1848 0144 7868     		ldr	r0, [r7, #4]
 1849 0146 FFF7FEFF 		bl	VL53L0X_WrByte
 1850 014a 0346     		mov	r3, r0
 1851 014c 1A46     		mov	r2, r3
 1852              		.loc 1 614 10
ARM GAS  C:\Users\Morroway\AppData\Local\Temp\ccih4NWY.s 			page 46


 1853 014e 97F86F30 		ldrb	r3, [r7, #111]
 1854 0152 1343     		orrs	r3, r3, r2
 1855 0154 87F86F30 		strb	r3, [r7, #111]
 1856              	.L88:
 615:Drivers/VL53L0X/core/src/vl53l0x_api.c **** 	}
 616:Drivers/VL53L0X/core/src/vl53l0x_api.c **** 
 617:Drivers/VL53L0X/core/src/vl53l0x_api.c **** 	if (Status == VL53L0X_ERROR_NONE) {
 1857              		.loc 1 617 5
 1858 0158 97F96F30 		ldrsb	r3, [r7, #111]
 1859 015c 002B     		cmp	r3, #0
 1860 015e 05D1     		bne	.L89
 618:Drivers/VL53L0X/core/src/vl53l0x_api.c **** 		VL53L0X_SETDEVICESPECIFICPARAMETER(Dev, OscFrequencyMHz,
 1861              		.loc 1 618 3
 1862 0160 7B8B     		ldrh	r3, [r7, #26]
 1863 0162 1B01     		lsls	r3, r3, #4
 1864 0164 1A46     		mov	r2, r3
 1865 0166 7B68     		ldr	r3, [r7, #4]
 1866 0168 C3F8D420 		str	r2, [r3, #212]
 1867              	.L89:
 619:Drivers/VL53L0X/core/src/vl53l0x_api.c **** 			VL53L0X_FIXPOINT412TOFIXPOINT1616(tempword));
 620:Drivers/VL53L0X/core/src/vl53l0x_api.c **** 	}
 621:Drivers/VL53L0X/core/src/vl53l0x_api.c **** 
 622:Drivers/VL53L0X/core/src/vl53l0x_api.c **** 	/* After static init, some device parameters may be changed,
 623:Drivers/VL53L0X/core/src/vl53l0x_api.c **** 	 * so update them */
 624:Drivers/VL53L0X/core/src/vl53l0x_api.c **** 	if (Status == VL53L0X_ERROR_NONE)
 1868              		.loc 1 624 5
 1869 016c 97F96F30 		ldrsb	r3, [r7, #111]
 1870 0170 002B     		cmp	r3, #0
 1871 0172 08D1     		bne	.L90
 625:Drivers/VL53L0X/core/src/vl53l0x_api.c **** 		Status = VL53L0X_GetDeviceParameters(Dev, &CurrentParameters);
 1872              		.loc 1 625 12
 1873 0174 07F11C03 		add	r3, r7, #28
 1874 0178 1946     		mov	r1, r3
 1875 017a 7868     		ldr	r0, [r7, #4]
 1876 017c FFF7FEFF 		bl	VL53L0X_GetDeviceParameters
 1877 0180 0346     		mov	r3, r0
 1878 0182 87F86F30 		strb	r3, [r7, #111]
 1879              	.L90:
 626:Drivers/VL53L0X/core/src/vl53l0x_api.c **** 
 627:Drivers/VL53L0X/core/src/vl53l0x_api.c **** 
 628:Drivers/VL53L0X/core/src/vl53l0x_api.c **** 	if (Status == VL53L0X_ERROR_NONE) {
 1880              		.loc 1 628 5
 1881 0186 97F96F30 		ldrsb	r3, [r7, #111]
 1882 018a 002B     		cmp	r3, #0
 1883 018c 10D1     		bne	.L91
 629:Drivers/VL53L0X/core/src/vl53l0x_api.c **** 		Status = VL53L0X_GetFractionEnable(Dev, &tempbyte);
 1884              		.loc 1 629 12
 1885 018e 07F11903 		add	r3, r7, #25
 1886 0192 1946     		mov	r1, r3
 1887 0194 7868     		ldr	r0, [r7, #4]
 1888 0196 FFF7FEFF 		bl	VL53L0X_GetFractionEnable
 1889 019a 0346     		mov	r3, r0
 1890 019c 87F86F30 		strb	r3, [r7, #111]
 630:Drivers/VL53L0X/core/src/vl53l0x_api.c **** 		if (Status == VL53L0X_ERROR_NONE)
 1891              		.loc 1 630 6
 1892 01a0 97F96F30 		ldrsb	r3, [r7, #111]
 1893 01a4 002B     		cmp	r3, #0
ARM GAS  C:\Users\Morroway\AppData\Local\Temp\ccih4NWY.s 			page 47


 1894 01a6 03D1     		bne	.L91
 631:Drivers/VL53L0X/core/src/vl53l0x_api.c **** 			PALDevDataSet(Dev, RangeFractionalEnable, tempbyte);
 1895              		.loc 1 631 4
 1896 01a8 7A7E     		ldrb	r2, [r7, #25]	@ zero_extendqisi2
 1897 01aa 7B68     		ldr	r3, [r7, #4]
 1898 01ac 83F83121 		strb	r2, [r3, #305]
 1899              	.L91:
 632:Drivers/VL53L0X/core/src/vl53l0x_api.c **** 
 633:Drivers/VL53L0X/core/src/vl53l0x_api.c **** 	}
 634:Drivers/VL53L0X/core/src/vl53l0x_api.c **** 
 635:Drivers/VL53L0X/core/src/vl53l0x_api.c **** 	if (Status == VL53L0X_ERROR_NONE)
 1900              		.loc 1 635 5
 1901 01b0 97F96F30 		ldrsb	r3, [r7, #111]
 1902 01b4 002B     		cmp	r3, #0
 1903 01b6 0ED1     		bne	.L92
 636:Drivers/VL53L0X/core/src/vl53l0x_api.c **** 		PALDevDataSet(Dev, CurrentParameters, CurrentParameters);
 1904              		.loc 1 636 3
 1905 01b8 7B68     		ldr	r3, [r7, #4]
 1906 01ba 03F11004 		add	r4, r3, #16
 1907 01be 07F11C05 		add	r5, r7, #28
 1908 01c2 0FCD     		ldmia	r5!, {r0, r1, r2, r3}
 1909 01c4 0FC4     		stmia	r4!, {r0, r1, r2, r3}
 1910 01c6 0FCD     		ldmia	r5!, {r0, r1, r2, r3}
 1911 01c8 0FC4     		stmia	r4!, {r0, r1, r2, r3}
 1912 01ca 0FCD     		ldmia	r5!, {r0, r1, r2, r3}
 1913 01cc 0FC4     		stmia	r4!, {r0, r1, r2, r3}
 1914 01ce 95E80F00 		ldm	r5, {r0, r1, r2, r3}
 1915 01d2 84E80F00 		stm	r4, {r0, r1, r2, r3}
 1916              	.L92:
 637:Drivers/VL53L0X/core/src/vl53l0x_api.c **** 
 638:Drivers/VL53L0X/core/src/vl53l0x_api.c **** 
 639:Drivers/VL53L0X/core/src/vl53l0x_api.c **** 	/* read the sequence config and save it */
 640:Drivers/VL53L0X/core/src/vl53l0x_api.c **** 	if (Status == VL53L0X_ERROR_NONE) {
 1917              		.loc 1 640 5
 1918 01d6 97F96F30 		ldrsb	r3, [r7, #111]
 1919 01da 002B     		cmp	r3, #0
 1920 01dc 11D1     		bne	.L93
 641:Drivers/VL53L0X/core/src/vl53l0x_api.c **** 		Status = VL53L0X_RdByte(Dev,
 1921              		.loc 1 641 12
 1922 01de 07F11903 		add	r3, r7, #25
 1923 01e2 1A46     		mov	r2, r3
 1924 01e4 0121     		movs	r1, #1
 1925 01e6 7868     		ldr	r0, [r7, #4]
 1926 01e8 FFF7FEFF 		bl	VL53L0X_RdByte
 1927 01ec 0346     		mov	r3, r0
 1928 01ee 87F86F30 		strb	r3, [r7, #111]
 642:Drivers/VL53L0X/core/src/vl53l0x_api.c **** 		VL53L0X_REG_SYSTEM_SEQUENCE_CONFIG, &tempbyte);
 643:Drivers/VL53L0X/core/src/vl53l0x_api.c **** 		if (Status == VL53L0X_ERROR_NONE)
 1929              		.loc 1 643 6
 1930 01f2 97F96F30 		ldrsb	r3, [r7, #111]
 1931 01f6 002B     		cmp	r3, #0
 1932 01f8 03D1     		bne	.L93
 644:Drivers/VL53L0X/core/src/vl53l0x_api.c **** 			PALDevDataSet(Dev, SequenceConfig, tempbyte);
 1933              		.loc 1 644 4
 1934 01fa 7A7E     		ldrb	r2, [r7, #25]	@ zero_extendqisi2
 1935 01fc 7B68     		ldr	r3, [r7, #4]
 1936 01fe 83F83021 		strb	r2, [r3, #304]
ARM GAS  C:\Users\Morroway\AppData\Local\Temp\ccih4NWY.s 			page 48


 1937              	.L93:
 645:Drivers/VL53L0X/core/src/vl53l0x_api.c **** 
 646:Drivers/VL53L0X/core/src/vl53l0x_api.c **** 	}
 647:Drivers/VL53L0X/core/src/vl53l0x_api.c **** 
 648:Drivers/VL53L0X/core/src/vl53l0x_api.c **** 	/* Disable MSRC and TCC by default */
 649:Drivers/VL53L0X/core/src/vl53l0x_api.c **** 	if (Status == VL53L0X_ERROR_NONE)
 1938              		.loc 1 649 5
 1939 0202 97F96F30 		ldrsb	r3, [r7, #111]
 1940 0206 002B     		cmp	r3, #0
 1941 0208 07D1     		bne	.L94
 650:Drivers/VL53L0X/core/src/vl53l0x_api.c **** 		Status = VL53L0X_SetSequenceStepEnable(Dev,
 1942              		.loc 1 650 12
 1943 020a 0022     		movs	r2, #0
 1944 020c 0021     		movs	r1, #0
 1945 020e 7868     		ldr	r0, [r7, #4]
 1946 0210 FFF7FEFF 		bl	VL53L0X_SetSequenceStepEnable
 1947 0214 0346     		mov	r3, r0
 1948 0216 87F86F30 		strb	r3, [r7, #111]
 1949              	.L94:
 651:Drivers/VL53L0X/core/src/vl53l0x_api.c **** 					VL53L0X_SEQUENCESTEP_TCC, 0);
 652:Drivers/VL53L0X/core/src/vl53l0x_api.c **** 
 653:Drivers/VL53L0X/core/src/vl53l0x_api.c **** 
 654:Drivers/VL53L0X/core/src/vl53l0x_api.c **** 	if (Status == VL53L0X_ERROR_NONE)
 1950              		.loc 1 654 5
 1951 021a 97F96F30 		ldrsb	r3, [r7, #111]
 1952 021e 002B     		cmp	r3, #0
 1953 0220 07D1     		bne	.L95
 655:Drivers/VL53L0X/core/src/vl53l0x_api.c **** 		Status = VL53L0X_SetSequenceStepEnable(Dev,
 1954              		.loc 1 655 12
 1955 0222 0022     		movs	r2, #0
 1956 0224 0221     		movs	r1, #2
 1957 0226 7868     		ldr	r0, [r7, #4]
 1958 0228 FFF7FEFF 		bl	VL53L0X_SetSequenceStepEnable
 1959 022c 0346     		mov	r3, r0
 1960 022e 87F86F30 		strb	r3, [r7, #111]
 1961              	.L95:
 656:Drivers/VL53L0X/core/src/vl53l0x_api.c **** 		VL53L0X_SEQUENCESTEP_MSRC, 0);
 657:Drivers/VL53L0X/core/src/vl53l0x_api.c **** 
 658:Drivers/VL53L0X/core/src/vl53l0x_api.c **** 
 659:Drivers/VL53L0X/core/src/vl53l0x_api.c **** 	/* Set PAL State to standby */
 660:Drivers/VL53L0X/core/src/vl53l0x_api.c **** 	if (Status == VL53L0X_ERROR_NONE)
 1962              		.loc 1 660 5
 1963 0232 97F96F30 		ldrsb	r3, [r7, #111]
 1964 0236 002B     		cmp	r3, #0
 1965 0238 03D1     		bne	.L96
 661:Drivers/VL53L0X/core/src/vl53l0x_api.c **** 		PALDevDataSet(Dev, PalState, VL53L0X_STATE_IDLE);
 1966              		.loc 1 661 3
 1967 023a 7B68     		ldr	r3, [r7, #4]
 1968 023c 0322     		movs	r2, #3
 1969 023e 83F83221 		strb	r2, [r3, #306]
 1970              	.L96:
 662:Drivers/VL53L0X/core/src/vl53l0x_api.c **** 
 663:Drivers/VL53L0X/core/src/vl53l0x_api.c **** 
 664:Drivers/VL53L0X/core/src/vl53l0x_api.c **** 
 665:Drivers/VL53L0X/core/src/vl53l0x_api.c **** 	/* Store pre-range vcsel period */
 666:Drivers/VL53L0X/core/src/vl53l0x_api.c **** 	if (Status == VL53L0X_ERROR_NONE) {
 1971              		.loc 1 666 5
ARM GAS  C:\Users\Morroway\AppData\Local\Temp\ccih4NWY.s 			page 49


 1972 0242 97F96F30 		ldrsb	r3, [r7, #111]
 1973 0246 002B     		cmp	r3, #0
 1974 0248 09D1     		bne	.L97
 667:Drivers/VL53L0X/core/src/vl53l0x_api.c **** 		Status = VL53L0X_GetVcselPulsePeriod(
 1975              		.loc 1 667 12
 1976 024a 07F11303 		add	r3, r7, #19
 1977 024e 1A46     		mov	r2, r3
 1978 0250 0021     		movs	r1, #0
 1979 0252 7868     		ldr	r0, [r7, #4]
 1980 0254 FFF7FEFF 		bl	VL53L0X_GetVcselPulsePeriod
 1981 0258 0346     		mov	r3, r0
 1982 025a 87F86F30 		strb	r3, [r7, #111]
 1983              	.L97:
 668:Drivers/VL53L0X/core/src/vl53l0x_api.c **** 			Dev,
 669:Drivers/VL53L0X/core/src/vl53l0x_api.c **** 			VL53L0X_VCSEL_PERIOD_PRE_RANGE,
 670:Drivers/VL53L0X/core/src/vl53l0x_api.c **** 			&vcselPulsePeriodPCLK);
 671:Drivers/VL53L0X/core/src/vl53l0x_api.c **** 	}
 672:Drivers/VL53L0X/core/src/vl53l0x_api.c **** 
 673:Drivers/VL53L0X/core/src/vl53l0x_api.c **** 	if (Status == VL53L0X_ERROR_NONE) {
 1984              		.loc 1 673 5
 1985 025e 97F96F30 		ldrsb	r3, [r7, #111]
 1986 0262 002B     		cmp	r3, #0
 1987 0264 03D1     		bne	.L98
 674:Drivers/VL53L0X/core/src/vl53l0x_api.c **** 			VL53L0X_SETDEVICESPECIFICPARAMETER(
 1988              		.loc 1 674 4
 1989 0266 FA7C     		ldrb	r2, [r7, #19]	@ zero_extendqisi2
 1990 0268 7B68     		ldr	r3, [r7, #4]
 1991 026a 83F8E820 		strb	r2, [r3, #232]
 1992              	.L98:
 675:Drivers/VL53L0X/core/src/vl53l0x_api.c **** 				Dev,
 676:Drivers/VL53L0X/core/src/vl53l0x_api.c **** 				PreRangeVcselPulsePeriod,
 677:Drivers/VL53L0X/core/src/vl53l0x_api.c **** 				vcselPulsePeriodPCLK);
 678:Drivers/VL53L0X/core/src/vl53l0x_api.c **** 	}
 679:Drivers/VL53L0X/core/src/vl53l0x_api.c **** 
 680:Drivers/VL53L0X/core/src/vl53l0x_api.c **** 	/* Store final-range vcsel period */
 681:Drivers/VL53L0X/core/src/vl53l0x_api.c **** 	if (Status == VL53L0X_ERROR_NONE) {
 1993              		.loc 1 681 5
 1994 026e 97F96F30 		ldrsb	r3, [r7, #111]
 1995 0272 002B     		cmp	r3, #0
 1996 0274 09D1     		bne	.L99
 682:Drivers/VL53L0X/core/src/vl53l0x_api.c **** 		Status = VL53L0X_GetVcselPulsePeriod(
 1997              		.loc 1 682 12
 1998 0276 07F11303 		add	r3, r7, #19
 1999 027a 1A46     		mov	r2, r3
 2000 027c 0121     		movs	r1, #1
 2001 027e 7868     		ldr	r0, [r7, #4]
 2002 0280 FFF7FEFF 		bl	VL53L0X_GetVcselPulsePeriod
 2003 0284 0346     		mov	r3, r0
 2004 0286 87F86F30 		strb	r3, [r7, #111]
 2005              	.L99:
 683:Drivers/VL53L0X/core/src/vl53l0x_api.c **** 			Dev,
 684:Drivers/VL53L0X/core/src/vl53l0x_api.c **** 			VL53L0X_VCSEL_PERIOD_FINAL_RANGE,
 685:Drivers/VL53L0X/core/src/vl53l0x_api.c **** 			&vcselPulsePeriodPCLK);
 686:Drivers/VL53L0X/core/src/vl53l0x_api.c **** 	}
 687:Drivers/VL53L0X/core/src/vl53l0x_api.c **** 
 688:Drivers/VL53L0X/core/src/vl53l0x_api.c **** 	if (Status == VL53L0X_ERROR_NONE) {
 2006              		.loc 1 688 5
ARM GAS  C:\Users\Morroway\AppData\Local\Temp\ccih4NWY.s 			page 50


 2007 028a 97F96F30 		ldrsb	r3, [r7, #111]
 2008 028e 002B     		cmp	r3, #0
 2009 0290 03D1     		bne	.L100
 689:Drivers/VL53L0X/core/src/vl53l0x_api.c **** 			VL53L0X_SETDEVICESPECIFICPARAMETER(
 2010              		.loc 1 689 4
 2011 0292 FA7C     		ldrb	r2, [r7, #19]	@ zero_extendqisi2
 2012 0294 7B68     		ldr	r3, [r7, #4]
 2013 0296 83F8E020 		strb	r2, [r3, #224]
 2014              	.L100:
 690:Drivers/VL53L0X/core/src/vl53l0x_api.c **** 				Dev,
 691:Drivers/VL53L0X/core/src/vl53l0x_api.c **** 				FinalRangeVcselPulsePeriod,
 692:Drivers/VL53L0X/core/src/vl53l0x_api.c **** 				vcselPulsePeriodPCLK);
 693:Drivers/VL53L0X/core/src/vl53l0x_api.c **** 	}
 694:Drivers/VL53L0X/core/src/vl53l0x_api.c **** 
 695:Drivers/VL53L0X/core/src/vl53l0x_api.c **** 	/* Store pre-range timeout */
 696:Drivers/VL53L0X/core/src/vl53l0x_api.c **** 	if (Status == VL53L0X_ERROR_NONE) {
 2015              		.loc 1 696 5
 2016 029a 97F96F30 		ldrsb	r3, [r7, #111]
 2017 029e 002B     		cmp	r3, #0
 2018 02a0 09D1     		bne	.L101
 697:Drivers/VL53L0X/core/src/vl53l0x_api.c **** 		Status = get_sequence_step_timeout(
 2019              		.loc 1 697 12
 2020 02a2 07F10C03 		add	r3, r7, #12
 2021 02a6 1A46     		mov	r2, r3
 2022 02a8 0321     		movs	r1, #3
 2023 02aa 7868     		ldr	r0, [r7, #4]
 2024 02ac FFF7FEFF 		bl	get_sequence_step_timeout
 2025 02b0 0346     		mov	r3, r0
 2026 02b2 87F86F30 		strb	r3, [r7, #111]
 2027              	.L101:
 698:Drivers/VL53L0X/core/src/vl53l0x_api.c **** 			Dev,
 699:Drivers/VL53L0X/core/src/vl53l0x_api.c **** 			VL53L0X_SEQUENCESTEP_PRE_RANGE,
 700:Drivers/VL53L0X/core/src/vl53l0x_api.c **** 			&seqTimeoutMicroSecs);
 701:Drivers/VL53L0X/core/src/vl53l0x_api.c **** 	}
 702:Drivers/VL53L0X/core/src/vl53l0x_api.c **** 
 703:Drivers/VL53L0X/core/src/vl53l0x_api.c **** 	if (Status == VL53L0X_ERROR_NONE) {
 2028              		.loc 1 703 5
 2029 02b6 97F96F30 		ldrsb	r3, [r7, #111]
 2030 02ba 002B     		cmp	r3, #0
 2031 02bc 03D1     		bne	.L102
 704:Drivers/VL53L0X/core/src/vl53l0x_api.c **** 		VL53L0X_SETDEVICESPECIFICPARAMETER(
 2032              		.loc 1 704 3
 2033 02be FA68     		ldr	r2, [r7, #12]
 2034 02c0 7B68     		ldr	r3, [r7, #4]
 2035 02c2 C3F8E420 		str	r2, [r3, #228]
 2036              	.L102:
 705:Drivers/VL53L0X/core/src/vl53l0x_api.c **** 			Dev,
 706:Drivers/VL53L0X/core/src/vl53l0x_api.c **** 			PreRangeTimeoutMicroSecs,
 707:Drivers/VL53L0X/core/src/vl53l0x_api.c **** 			seqTimeoutMicroSecs);
 708:Drivers/VL53L0X/core/src/vl53l0x_api.c **** 	}
 709:Drivers/VL53L0X/core/src/vl53l0x_api.c **** 
 710:Drivers/VL53L0X/core/src/vl53l0x_api.c **** 	/* Store final-range timeout */
 711:Drivers/VL53L0X/core/src/vl53l0x_api.c **** 	if (Status == VL53L0X_ERROR_NONE) {
 2037              		.loc 1 711 5
 2038 02c6 97F96F30 		ldrsb	r3, [r7, #111]
 2039 02ca 002B     		cmp	r3, #0
 2040 02cc 09D1     		bne	.L103
ARM GAS  C:\Users\Morroway\AppData\Local\Temp\ccih4NWY.s 			page 51


 712:Drivers/VL53L0X/core/src/vl53l0x_api.c **** 		Status = get_sequence_step_timeout(
 2041              		.loc 1 712 12
 2042 02ce 07F10C03 		add	r3, r7, #12
 2043 02d2 1A46     		mov	r2, r3
 2044 02d4 0421     		movs	r1, #4
 2045 02d6 7868     		ldr	r0, [r7, #4]
 2046 02d8 FFF7FEFF 		bl	get_sequence_step_timeout
 2047 02dc 0346     		mov	r3, r0
 2048 02de 87F86F30 		strb	r3, [r7, #111]
 2049              	.L103:
 713:Drivers/VL53L0X/core/src/vl53l0x_api.c **** 			Dev,
 714:Drivers/VL53L0X/core/src/vl53l0x_api.c **** 			VL53L0X_SEQUENCESTEP_FINAL_RANGE,
 715:Drivers/VL53L0X/core/src/vl53l0x_api.c **** 			&seqTimeoutMicroSecs);
 716:Drivers/VL53L0X/core/src/vl53l0x_api.c **** 	}
 717:Drivers/VL53L0X/core/src/vl53l0x_api.c **** 
 718:Drivers/VL53L0X/core/src/vl53l0x_api.c **** 	if (Status == VL53L0X_ERROR_NONE) {
 2050              		.loc 1 718 5
 2051 02e2 97F96F30 		ldrsb	r3, [r7, #111]
 2052 02e6 002B     		cmp	r3, #0
 2053 02e8 03D1     		bne	.L104
 719:Drivers/VL53L0X/core/src/vl53l0x_api.c **** 		VL53L0X_SETDEVICESPECIFICPARAMETER(
 2054              		.loc 1 719 3
 2055 02ea FA68     		ldr	r2, [r7, #12]
 2056 02ec 7B68     		ldr	r3, [r7, #4]
 2057 02ee C3F8DC20 		str	r2, [r3, #220]
 2058              	.L104:
 720:Drivers/VL53L0X/core/src/vl53l0x_api.c **** 			Dev,
 721:Drivers/VL53L0X/core/src/vl53l0x_api.c **** 			FinalRangeTimeoutMicroSecs,
 722:Drivers/VL53L0X/core/src/vl53l0x_api.c **** 			seqTimeoutMicroSecs);
 723:Drivers/VL53L0X/core/src/vl53l0x_api.c **** 	}
 724:Drivers/VL53L0X/core/src/vl53l0x_api.c **** 
 725:Drivers/VL53L0X/core/src/vl53l0x_api.c **** 	LOG_FUNCTION_END(Status);
 726:Drivers/VL53L0X/core/src/vl53l0x_api.c **** 	return Status;
 2059              		.loc 1 726 9
 2060 02f2 97F96F30 		ldrsb	r3, [r7, #111]
 727:Drivers/VL53L0X/core/src/vl53l0x_api.c **** }
 2061              		.loc 1 727 1
 2062 02f6 1846     		mov	r0, r3
 2063 02f8 7037     		adds	r7, r7, #112
 2064              		.cfi_def_cfa_offset 16
 2065 02fa BD46     		mov	sp, r7
 2066              		.cfi_def_cfa_register 13
 2067              		@ sp needed
 2068 02fc B0BD     		pop	{r4, r5, r7, pc}
 2069              	.L107:
 2070 02fe 00BF     		.align	2
 2071              	.L106:
 2072 0300 00000000 		.word	DefaultTuningSettings
 2073              		.cfi_endproc
 2074              	.LFE347:
 2076              		.section	.text.VL53L0X_WaitDeviceBooted,"ax",%progbits
 2077              		.align	1
 2078              		.global	VL53L0X_WaitDeviceBooted
 2079              		.syntax unified
 2080              		.thumb
 2081              		.thumb_func
 2083              	VL53L0X_WaitDeviceBooted:
ARM GAS  C:\Users\Morroway\AppData\Local\Temp\ccih4NWY.s 			page 52


 2084              	.LFB348:
 728:Drivers/VL53L0X/core/src/vl53l0x_api.c **** 
 729:Drivers/VL53L0X/core/src/vl53l0x_api.c **** VL53L0X_Error VL53L0X_WaitDeviceBooted(VL53L0X_DEV Dev)
 730:Drivers/VL53L0X/core/src/vl53l0x_api.c **** {
 2085              		.loc 1 730 1
 2086              		.cfi_startproc
 2087              		@ args = 0, pretend = 0, frame = 16
 2088              		@ frame_needed = 1, uses_anonymous_args = 0
 2089              		@ link register save eliminated.
 2090 0000 80B4     		push	{r7}
 2091              		.cfi_def_cfa_offset 4
 2092              		.cfi_offset 7, -4
 2093 0002 85B0     		sub	sp, sp, #20
 2094              		.cfi_def_cfa_offset 24
 2095 0004 00AF     		add	r7, sp, #0
 2096              		.cfi_def_cfa_register 7
 2097 0006 7860     		str	r0, [r7, #4]
 731:Drivers/VL53L0X/core/src/vl53l0x_api.c **** 	VL53L0X_Error Status = VL53L0X_ERROR_NOT_IMPLEMENTED;
 2098              		.loc 1 731 16
 2099 0008 9D23     		movs	r3, #157
 2100 000a FB73     		strb	r3, [r7, #15]
 732:Drivers/VL53L0X/core/src/vl53l0x_api.c **** 	LOG_FUNCTION_START("");
 733:Drivers/VL53L0X/core/src/vl53l0x_api.c **** 
 734:Drivers/VL53L0X/core/src/vl53l0x_api.c **** 	/* not implemented on VL53L0X */
 735:Drivers/VL53L0X/core/src/vl53l0x_api.c **** 
 736:Drivers/VL53L0X/core/src/vl53l0x_api.c **** 	LOG_FUNCTION_END(Status);
 737:Drivers/VL53L0X/core/src/vl53l0x_api.c **** 	return Status;
 2101              		.loc 1 737 9
 2102 000c 97F90F30 		ldrsb	r3, [r7, #15]
 738:Drivers/VL53L0X/core/src/vl53l0x_api.c **** }
 2103              		.loc 1 738 1
 2104 0010 1846     		mov	r0, r3
 2105 0012 1437     		adds	r7, r7, #20
 2106              		.cfi_def_cfa_offset 4
 2107 0014 BD46     		mov	sp, r7
 2108              		.cfi_def_cfa_register 13
 2109              		@ sp needed
 2110 0016 5DF8047B 		ldr	r7, [sp], #4
 2111              		.cfi_restore 7
 2112              		.cfi_def_cfa_offset 0
 2113 001a 7047     		bx	lr
 2114              		.cfi_endproc
 2115              	.LFE348:
 2117              		.section	.text.VL53L0X_ResetDevice,"ax",%progbits
 2118              		.align	1
 2119              		.global	VL53L0X_ResetDevice
 2120              		.syntax unified
 2121              		.thumb
 2122              		.thumb_func
 2124              	VL53L0X_ResetDevice:
 2125              	.LFB349:
 739:Drivers/VL53L0X/core/src/vl53l0x_api.c **** 
 740:Drivers/VL53L0X/core/src/vl53l0x_api.c **** VL53L0X_Error VL53L0X_ResetDevice(VL53L0X_DEV Dev)
 741:Drivers/VL53L0X/core/src/vl53l0x_api.c **** {
 2126              		.loc 1 741 1
 2127              		.cfi_startproc
 2128              		@ args = 0, pretend = 0, frame = 16
ARM GAS  C:\Users\Morroway\AppData\Local\Temp\ccih4NWY.s 			page 53


 2129              		@ frame_needed = 1, uses_anonymous_args = 0
 2130 0000 80B5     		push	{r7, lr}
 2131              		.cfi_def_cfa_offset 8
 2132              		.cfi_offset 7, -8
 2133              		.cfi_offset 14, -4
 2134 0002 84B0     		sub	sp, sp, #16
 2135              		.cfi_def_cfa_offset 24
 2136 0004 00AF     		add	r7, sp, #0
 2137              		.cfi_def_cfa_register 7
 2138 0006 7860     		str	r0, [r7, #4]
 742:Drivers/VL53L0X/core/src/vl53l0x_api.c **** 	VL53L0X_Error Status = VL53L0X_ERROR_NONE;
 2139              		.loc 1 742 16
 2140 0008 0023     		movs	r3, #0
 2141 000a FB73     		strb	r3, [r7, #15]
 743:Drivers/VL53L0X/core/src/vl53l0x_api.c **** 	uint8_t Byte;
 744:Drivers/VL53L0X/core/src/vl53l0x_api.c **** 	LOG_FUNCTION_START("");
 745:Drivers/VL53L0X/core/src/vl53l0x_api.c **** 
 746:Drivers/VL53L0X/core/src/vl53l0x_api.c **** 	/* Set reset bit */
 747:Drivers/VL53L0X/core/src/vl53l0x_api.c **** 	Status = VL53L0X_WrByte(Dev, VL53L0X_REG_SOFT_RESET_GO2_SOFT_RESET_N,
 2142              		.loc 1 747 11
 2143 000c 0022     		movs	r2, #0
 2144 000e BF21     		movs	r1, #191
 2145 0010 7868     		ldr	r0, [r7, #4]
 2146 0012 FFF7FEFF 		bl	VL53L0X_WrByte
 2147 0016 0346     		mov	r3, r0
 2148 0018 FB73     		strb	r3, [r7, #15]
 748:Drivers/VL53L0X/core/src/vl53l0x_api.c **** 		0x00);
 749:Drivers/VL53L0X/core/src/vl53l0x_api.c **** 
 750:Drivers/VL53L0X/core/src/vl53l0x_api.c **** 	/* Wait for some time */
 751:Drivers/VL53L0X/core/src/vl53l0x_api.c **** 	if (Status == VL53L0X_ERROR_NONE) {
 2149              		.loc 1 751 5
 2150 001a 97F90F30 		ldrsb	r3, [r7, #15]
 2151 001e 002B     		cmp	r3, #0
 2152 0020 0BD1     		bne	.L111
 2153              	.L112:
 752:Drivers/VL53L0X/core/src/vl53l0x_api.c **** 		do {
 753:Drivers/VL53L0X/core/src/vl53l0x_api.c **** 			Status = VL53L0X_RdByte(Dev,
 2154              		.loc 1 753 13 discriminator 1
 2155 0022 07F10E03 		add	r3, r7, #14
 2156 0026 1A46     		mov	r2, r3
 2157 0028 C021     		movs	r1, #192
 2158 002a 7868     		ldr	r0, [r7, #4]
 2159 002c FFF7FEFF 		bl	VL53L0X_RdByte
 2160 0030 0346     		mov	r3, r0
 2161 0032 FB73     		strb	r3, [r7, #15]
 754:Drivers/VL53L0X/core/src/vl53l0x_api.c **** 			VL53L0X_REG_IDENTIFICATION_MODEL_ID, &Byte);
 755:Drivers/VL53L0X/core/src/vl53l0x_api.c **** 		} while (Byte != 0x00);
 2162              		.loc 1 755 17 discriminator 1
 2163 0034 BB7B     		ldrb	r3, [r7, #14]	@ zero_extendqisi2
 2164 0036 002B     		cmp	r3, #0
 2165 0038 F3D1     		bne	.L112
 2166              	.L111:
 756:Drivers/VL53L0X/core/src/vl53l0x_api.c **** 	}
 757:Drivers/VL53L0X/core/src/vl53l0x_api.c **** 
 758:Drivers/VL53L0X/core/src/vl53l0x_api.c **** 	VL53L0X_PollingDelay(Dev);
 2167              		.loc 1 758 2
 2168 003a 7868     		ldr	r0, [r7, #4]
ARM GAS  C:\Users\Morroway\AppData\Local\Temp\ccih4NWY.s 			page 54


 2169 003c FFF7FEFF 		bl	VL53L0X_PollingDelay
 759:Drivers/VL53L0X/core/src/vl53l0x_api.c **** 
 760:Drivers/VL53L0X/core/src/vl53l0x_api.c **** 	/* Release reset */
 761:Drivers/VL53L0X/core/src/vl53l0x_api.c **** 	Status = VL53L0X_WrByte(Dev, VL53L0X_REG_SOFT_RESET_GO2_SOFT_RESET_N,
 2170              		.loc 1 761 11
 2171 0040 0122     		movs	r2, #1
 2172 0042 BF21     		movs	r1, #191
 2173 0044 7868     		ldr	r0, [r7, #4]
 2174 0046 FFF7FEFF 		bl	VL53L0X_WrByte
 2175 004a 0346     		mov	r3, r0
 2176 004c FB73     		strb	r3, [r7, #15]
 762:Drivers/VL53L0X/core/src/vl53l0x_api.c **** 		0x01);
 763:Drivers/VL53L0X/core/src/vl53l0x_api.c **** 
 764:Drivers/VL53L0X/core/src/vl53l0x_api.c **** 	/* Wait until correct boot-up of the device */
 765:Drivers/VL53L0X/core/src/vl53l0x_api.c **** 	if (Status == VL53L0X_ERROR_NONE) {
 2177              		.loc 1 765 5
 2178 004e 97F90F30 		ldrsb	r3, [r7, #15]
 2179 0052 002B     		cmp	r3, #0
 2180 0054 0BD1     		bne	.L113
 2181              	.L114:
 766:Drivers/VL53L0X/core/src/vl53l0x_api.c **** 		do {
 767:Drivers/VL53L0X/core/src/vl53l0x_api.c **** 			Status = VL53L0X_RdByte(Dev,
 2182              		.loc 1 767 13 discriminator 1
 2183 0056 07F10E03 		add	r3, r7, #14
 2184 005a 1A46     		mov	r2, r3
 2185 005c C021     		movs	r1, #192
 2186 005e 7868     		ldr	r0, [r7, #4]
 2187 0060 FFF7FEFF 		bl	VL53L0X_RdByte
 2188 0064 0346     		mov	r3, r0
 2189 0066 FB73     		strb	r3, [r7, #15]
 768:Drivers/VL53L0X/core/src/vl53l0x_api.c **** 			VL53L0X_REG_IDENTIFICATION_MODEL_ID, &Byte);
 769:Drivers/VL53L0X/core/src/vl53l0x_api.c **** 		} while (Byte == 0x00);
 2190              		.loc 1 769 17 discriminator 1
 2191 0068 BB7B     		ldrb	r3, [r7, #14]	@ zero_extendqisi2
 2192 006a 002B     		cmp	r3, #0
 2193 006c F3D0     		beq	.L114
 2194              	.L113:
 770:Drivers/VL53L0X/core/src/vl53l0x_api.c **** 	}
 771:Drivers/VL53L0X/core/src/vl53l0x_api.c **** 
 772:Drivers/VL53L0X/core/src/vl53l0x_api.c **** 	VL53L0X_PollingDelay(Dev);
 2195              		.loc 1 772 2
 2196 006e 7868     		ldr	r0, [r7, #4]
 2197 0070 FFF7FEFF 		bl	VL53L0X_PollingDelay
 773:Drivers/VL53L0X/core/src/vl53l0x_api.c **** 
 774:Drivers/VL53L0X/core/src/vl53l0x_api.c **** 	/* Set PAL State to VL53L0X_STATE_POWERDOWN */
 775:Drivers/VL53L0X/core/src/vl53l0x_api.c **** 	if (Status == VL53L0X_ERROR_NONE)
 2198              		.loc 1 775 5
 2199 0074 97F90F30 		ldrsb	r3, [r7, #15]
 2200 0078 002B     		cmp	r3, #0
 2201 007a 03D1     		bne	.L115
 776:Drivers/VL53L0X/core/src/vl53l0x_api.c **** 		PALDevDataSet(Dev, PalState, VL53L0X_STATE_POWERDOWN);
 2202              		.loc 1 776 3
 2203 007c 7B68     		ldr	r3, [r7, #4]
 2204 007e 0022     		movs	r2, #0
 2205 0080 83F83221 		strb	r2, [r3, #306]
 2206              	.L115:
 777:Drivers/VL53L0X/core/src/vl53l0x_api.c **** 
ARM GAS  C:\Users\Morroway\AppData\Local\Temp\ccih4NWY.s 			page 55


 778:Drivers/VL53L0X/core/src/vl53l0x_api.c **** 
 779:Drivers/VL53L0X/core/src/vl53l0x_api.c **** 	LOG_FUNCTION_END(Status);
 780:Drivers/VL53L0X/core/src/vl53l0x_api.c **** 	return Status;
 2207              		.loc 1 780 9
 2208 0084 97F90F30 		ldrsb	r3, [r7, #15]
 781:Drivers/VL53L0X/core/src/vl53l0x_api.c **** }
 2209              		.loc 1 781 1
 2210 0088 1846     		mov	r0, r3
 2211 008a 1037     		adds	r7, r7, #16
 2212              		.cfi_def_cfa_offset 8
 2213 008c BD46     		mov	sp, r7
 2214              		.cfi_def_cfa_register 13
 2215              		@ sp needed
 2216 008e 80BD     		pop	{r7, pc}
 2217              		.cfi_endproc
 2218              	.LFE349:
 2220              		.section	.text.VL53L0X_SetDeviceParameters,"ax",%progbits
 2221              		.align	1
 2222              		.global	VL53L0X_SetDeviceParameters
 2223              		.syntax unified
 2224              		.thumb
 2225              		.thumb_func
 2227              	VL53L0X_SetDeviceParameters:
 2228              	.LFB350:
 782:Drivers/VL53L0X/core/src/vl53l0x_api.c **** /* End Group PAL Init Functions */
 783:Drivers/VL53L0X/core/src/vl53l0x_api.c **** 
 784:Drivers/VL53L0X/core/src/vl53l0x_api.c **** /* Group PAL Parameters Functions */
 785:Drivers/VL53L0X/core/src/vl53l0x_api.c **** VL53L0X_Error VL53L0X_SetDeviceParameters(VL53L0X_DEV Dev,
 786:Drivers/VL53L0X/core/src/vl53l0x_api.c **** 	const VL53L0X_DeviceParameters_t *pDeviceParameters)
 787:Drivers/VL53L0X/core/src/vl53l0x_api.c **** {
 2229              		.loc 1 787 1
 2230              		.cfi_startproc
 2231              		@ args = 0, pretend = 0, frame = 16
 2232              		@ frame_needed = 1, uses_anonymous_args = 0
 2233 0000 80B5     		push	{r7, lr}
 2234              		.cfi_def_cfa_offset 8
 2235              		.cfi_offset 7, -8
 2236              		.cfi_offset 14, -4
 2237 0002 84B0     		sub	sp, sp, #16
 2238              		.cfi_def_cfa_offset 24
 2239 0004 00AF     		add	r7, sp, #0
 2240              		.cfi_def_cfa_register 7
 2241 0006 7860     		str	r0, [r7, #4]
 2242 0008 3960     		str	r1, [r7]
 788:Drivers/VL53L0X/core/src/vl53l0x_api.c **** 	VL53L0X_Error Status = VL53L0X_ERROR_NONE;
 2243              		.loc 1 788 16
 2244 000a 0023     		movs	r3, #0
 2245 000c FB73     		strb	r3, [r7, #15]
 789:Drivers/VL53L0X/core/src/vl53l0x_api.c **** 	int i;
 790:Drivers/VL53L0X/core/src/vl53l0x_api.c **** 	LOG_FUNCTION_START("");
 791:Drivers/VL53L0X/core/src/vl53l0x_api.c **** 	Status = VL53L0X_SetDeviceMode(Dev, pDeviceParameters->DeviceMode);
 2246              		.loc 1 791 55
 2247 000e 3B68     		ldr	r3, [r7]
 2248 0010 1B78     		ldrb	r3, [r3]	@ zero_extendqisi2
 2249              		.loc 1 791 11
 2250 0012 1946     		mov	r1, r3
 2251 0014 7868     		ldr	r0, [r7, #4]
ARM GAS  C:\Users\Morroway\AppData\Local\Temp\ccih4NWY.s 			page 56


 2252 0016 FFF7FEFF 		bl	VL53L0X_SetDeviceMode
 2253 001a 0346     		mov	r3, r0
 2254 001c FB73     		strb	r3, [r7, #15]
 792:Drivers/VL53L0X/core/src/vl53l0x_api.c **** 
 793:Drivers/VL53L0X/core/src/vl53l0x_api.c **** 	if (Status == VL53L0X_ERROR_NONE)
 2255              		.loc 1 793 5
 2256 001e 97F90F30 		ldrsb	r3, [r7, #15]
 2257 0022 002B     		cmp	r3, #0
 2258 0024 07D1     		bne	.L118
 794:Drivers/VL53L0X/core/src/vl53l0x_api.c **** 		Status = VL53L0X_SetInterMeasurementPeriodMilliSeconds(Dev,
 795:Drivers/VL53L0X/core/src/vl53l0x_api.c **** 			pDeviceParameters->InterMeasurementPeriodMilliSeconds);
 2259              		.loc 1 795 21
 2260 0026 3B68     		ldr	r3, [r7]
 2261 0028 9B68     		ldr	r3, [r3, #8]
 794:Drivers/VL53L0X/core/src/vl53l0x_api.c **** 		Status = VL53L0X_SetInterMeasurementPeriodMilliSeconds(Dev,
 2262              		.loc 1 794 12
 2263 002a 1946     		mov	r1, r3
 2264 002c 7868     		ldr	r0, [r7, #4]
 2265 002e FFF7FEFF 		bl	VL53L0X_SetInterMeasurementPeriodMilliSeconds
 2266 0032 0346     		mov	r3, r0
 2267 0034 FB73     		strb	r3, [r7, #15]
 2268              	.L118:
 796:Drivers/VL53L0X/core/src/vl53l0x_api.c **** 
 797:Drivers/VL53L0X/core/src/vl53l0x_api.c **** 
 798:Drivers/VL53L0X/core/src/vl53l0x_api.c **** 	if (Status == VL53L0X_ERROR_NONE)
 2269              		.loc 1 798 5
 2270 0036 97F90F30 		ldrsb	r3, [r7, #15]
 2271 003a 002B     		cmp	r3, #0
 2272 003c 07D1     		bne	.L119
 799:Drivers/VL53L0X/core/src/vl53l0x_api.c **** 		Status = VL53L0X_SetXTalkCompensationRateMegaCps(Dev,
 800:Drivers/VL53L0X/core/src/vl53l0x_api.c **** 			pDeviceParameters->XTalkCompensationRateMegaCps);
 2273              		.loc 1 800 21
 2274 003e 3B68     		ldr	r3, [r7]
 2275 0040 1B69     		ldr	r3, [r3, #16]
 799:Drivers/VL53L0X/core/src/vl53l0x_api.c **** 		Status = VL53L0X_SetXTalkCompensationRateMegaCps(Dev,
 2276              		.loc 1 799 12
 2277 0042 1946     		mov	r1, r3
 2278 0044 7868     		ldr	r0, [r7, #4]
 2279 0046 FFF7FEFF 		bl	VL53L0X_SetXTalkCompensationRateMegaCps
 2280 004a 0346     		mov	r3, r0
 2281 004c FB73     		strb	r3, [r7, #15]
 2282              	.L119:
 801:Drivers/VL53L0X/core/src/vl53l0x_api.c **** 
 802:Drivers/VL53L0X/core/src/vl53l0x_api.c **** 
 803:Drivers/VL53L0X/core/src/vl53l0x_api.c **** 	if (Status == VL53L0X_ERROR_NONE)
 2283              		.loc 1 803 5
 2284 004e 97F90F30 		ldrsb	r3, [r7, #15]
 2285 0052 002B     		cmp	r3, #0
 2286 0054 07D1     		bne	.L120
 804:Drivers/VL53L0X/core/src/vl53l0x_api.c **** 		Status = VL53L0X_SetOffsetCalibrationDataMicroMeter(Dev,
 805:Drivers/VL53L0X/core/src/vl53l0x_api.c **** 			pDeviceParameters->RangeOffsetMicroMeters);
 2287              		.loc 1 805 21
 2288 0056 3B68     		ldr	r3, [r7]
 2289 0058 5B69     		ldr	r3, [r3, #20]
 804:Drivers/VL53L0X/core/src/vl53l0x_api.c **** 		Status = VL53L0X_SetOffsetCalibrationDataMicroMeter(Dev,
 2290              		.loc 1 804 12
 2291 005a 1946     		mov	r1, r3
ARM GAS  C:\Users\Morroway\AppData\Local\Temp\ccih4NWY.s 			page 57


 2292 005c 7868     		ldr	r0, [r7, #4]
 2293 005e FFF7FEFF 		bl	VL53L0X_SetOffsetCalibrationDataMicroMeter
 2294 0062 0346     		mov	r3, r0
 2295 0064 FB73     		strb	r3, [r7, #15]
 2296              	.L120:
 806:Drivers/VL53L0X/core/src/vl53l0x_api.c **** 
 807:Drivers/VL53L0X/core/src/vl53l0x_api.c **** 
 808:Drivers/VL53L0X/core/src/vl53l0x_api.c **** 	for (i = 0; i < VL53L0X_CHECKENABLE_NUMBER_OF_CHECKS; i++) {
 2297              		.loc 1 808 9
 2298 0066 0023     		movs	r3, #0
 2299 0068 BB60     		str	r3, [r7, #8]
 2300              		.loc 1 808 2
 2301 006a 2BE0     		b	.L121
 2302              	.L127:
 809:Drivers/VL53L0X/core/src/vl53l0x_api.c **** 		if (Status == VL53L0X_ERROR_NONE)
 2303              		.loc 1 809 6
 2304 006c 97F90F30 		ldrsb	r3, [r7, #15]
 2305 0070 002B     		cmp	r3, #0
 2306 0072 2BD1     		bne	.L131
 810:Drivers/VL53L0X/core/src/vl53l0x_api.c **** 			Status |= VL53L0X_SetLimitCheckEnable(Dev, i,
 2307              		.loc 1 810 14
 2308 0074 BB68     		ldr	r3, [r7, #8]
 2309 0076 99B2     		uxth	r1, r3
 811:Drivers/VL53L0X/core/src/vl53l0x_api.c **** 				pDeviceParameters->LimitChecksEnable[i]);
 2310              		.loc 1 811 41
 2311 0078 3A68     		ldr	r2, [r7]
 2312 007a BB68     		ldr	r3, [r7, #8]
 2313 007c 1344     		add	r3, r3, r2
 2314 007e 1833     		adds	r3, r3, #24
 2315 0080 1B78     		ldrb	r3, [r3]	@ zero_extendqisi2
 810:Drivers/VL53L0X/core/src/vl53l0x_api.c **** 			Status |= VL53L0X_SetLimitCheckEnable(Dev, i,
 2316              		.loc 1 810 14
 2317 0082 1A46     		mov	r2, r3
 2318 0084 7868     		ldr	r0, [r7, #4]
 2319 0086 FFF7FEFF 		bl	VL53L0X_SetLimitCheckEnable
 2320 008a 0346     		mov	r3, r0
 2321 008c 1A46     		mov	r2, r3
 810:Drivers/VL53L0X/core/src/vl53l0x_api.c **** 			Status |= VL53L0X_SetLimitCheckEnable(Dev, i,
 2322              		.loc 1 810 11
 2323 008e FB7B     		ldrb	r3, [r7, #15]
 2324 0090 1343     		orrs	r3, r3, r2
 2325 0092 FB73     		strb	r3, [r7, #15]
 812:Drivers/VL53L0X/core/src/vl53l0x_api.c **** 		else
 813:Drivers/VL53L0X/core/src/vl53l0x_api.c **** 			break;
 814:Drivers/VL53L0X/core/src/vl53l0x_api.c **** 
 815:Drivers/VL53L0X/core/src/vl53l0x_api.c **** 		if (Status == VL53L0X_ERROR_NONE)
 2326              		.loc 1 815 6
 2327 0094 97F90F30 		ldrsb	r3, [r7, #15]
 2328 0098 002B     		cmp	r3, #0
 2329 009a 19D1     		bne	.L132
 816:Drivers/VL53L0X/core/src/vl53l0x_api.c **** 			Status |= VL53L0X_SetLimitCheckValue(Dev, i,
 2330              		.loc 1 816 14
 2331 009c BB68     		ldr	r3, [r7, #8]
 2332 009e 99B2     		uxth	r1, r3
 817:Drivers/VL53L0X/core/src/vl53l0x_api.c **** 				pDeviceParameters->LimitChecksValue[i]);
 2333              		.loc 1 817 40
 2334 00a0 3A68     		ldr	r2, [r7]
ARM GAS  C:\Users\Morroway\AppData\Local\Temp\ccih4NWY.s 			page 58


 2335 00a2 BB68     		ldr	r3, [r7, #8]
 2336 00a4 0833     		adds	r3, r3, #8
 2337 00a6 9B00     		lsls	r3, r3, #2
 2338 00a8 1344     		add	r3, r3, r2
 2339 00aa 5B68     		ldr	r3, [r3, #4]
 816:Drivers/VL53L0X/core/src/vl53l0x_api.c **** 			Status |= VL53L0X_SetLimitCheckValue(Dev, i,
 2340              		.loc 1 816 14
 2341 00ac 1A46     		mov	r2, r3
 2342 00ae 7868     		ldr	r0, [r7, #4]
 2343 00b0 FFF7FEFF 		bl	VL53L0X_SetLimitCheckValue
 2344 00b4 0346     		mov	r3, r0
 2345 00b6 1A46     		mov	r2, r3
 816:Drivers/VL53L0X/core/src/vl53l0x_api.c **** 			Status |= VL53L0X_SetLimitCheckValue(Dev, i,
 2346              		.loc 1 816 11
 2347 00b8 FB7B     		ldrb	r3, [r7, #15]
 2348 00ba 1343     		orrs	r3, r3, r2
 2349 00bc FB73     		strb	r3, [r7, #15]
 808:Drivers/VL53L0X/core/src/vl53l0x_api.c **** 		if (Status == VL53L0X_ERROR_NONE)
 2350              		.loc 1 808 57
 2351 00be BB68     		ldr	r3, [r7, #8]
 2352 00c0 0133     		adds	r3, r3, #1
 2353 00c2 BB60     		str	r3, [r7, #8]
 2354              	.L121:
 808:Drivers/VL53L0X/core/src/vl53l0x_api.c **** 		if (Status == VL53L0X_ERROR_NONE)
 2355              		.loc 1 808 16 discriminator 1
 2356 00c4 BB68     		ldr	r3, [r7, #8]
 2357 00c6 052B     		cmp	r3, #5
 2358 00c8 D0DD     		ble	.L127
 2359 00ca 02E0     		b	.L124
 2360              	.L131:
 813:Drivers/VL53L0X/core/src/vl53l0x_api.c **** 
 2361              		.loc 1 813 4
 2362 00cc 00BF     		nop
 2363 00ce 00E0     		b	.L124
 2364              	.L132:
 818:Drivers/VL53L0X/core/src/vl53l0x_api.c **** 		else
 819:Drivers/VL53L0X/core/src/vl53l0x_api.c **** 			break;
 2365              		.loc 1 819 4
 2366 00d0 00BF     		nop
 2367              	.L124:
 820:Drivers/VL53L0X/core/src/vl53l0x_api.c **** 
 821:Drivers/VL53L0X/core/src/vl53l0x_api.c **** 	}
 822:Drivers/VL53L0X/core/src/vl53l0x_api.c **** 
 823:Drivers/VL53L0X/core/src/vl53l0x_api.c **** 	if (Status == VL53L0X_ERROR_NONE)
 2368              		.loc 1 823 5
 2369 00d2 97F90F30 		ldrsb	r3, [r7, #15]
 2370 00d6 002B     		cmp	r3, #0
 2371 00d8 08D1     		bne	.L128
 824:Drivers/VL53L0X/core/src/vl53l0x_api.c **** 		Status = VL53L0X_SetWrapAroundCheckEnable(Dev,
 825:Drivers/VL53L0X/core/src/vl53l0x_api.c **** 			pDeviceParameters->WrapAroundCheckEnable);
 2372              		.loc 1 825 21
 2373 00da 3B68     		ldr	r3, [r7]
 2374 00dc 93F83C30 		ldrb	r3, [r3, #60]	@ zero_extendqisi2
 824:Drivers/VL53L0X/core/src/vl53l0x_api.c **** 		Status = VL53L0X_SetWrapAroundCheckEnable(Dev,
 2375              		.loc 1 824 12
 2376 00e0 1946     		mov	r1, r3
 2377 00e2 7868     		ldr	r0, [r7, #4]
ARM GAS  C:\Users\Morroway\AppData\Local\Temp\ccih4NWY.s 			page 59


 2378 00e4 FFF7FEFF 		bl	VL53L0X_SetWrapAroundCheckEnable
 2379 00e8 0346     		mov	r3, r0
 2380 00ea FB73     		strb	r3, [r7, #15]
 2381              	.L128:
 826:Drivers/VL53L0X/core/src/vl53l0x_api.c **** 
 827:Drivers/VL53L0X/core/src/vl53l0x_api.c **** 	if (Status == VL53L0X_ERROR_NONE)
 2382              		.loc 1 827 5
 2383 00ec 97F90F30 		ldrsb	r3, [r7, #15]
 2384 00f0 002B     		cmp	r3, #0
 2385 00f2 07D1     		bne	.L129
 828:Drivers/VL53L0X/core/src/vl53l0x_api.c **** 		Status = VL53L0X_SetMeasurementTimingBudgetMicroSeconds(Dev,
 829:Drivers/VL53L0X/core/src/vl53l0x_api.c **** 			pDeviceParameters->MeasurementTimingBudgetMicroSeconds);
 2386              		.loc 1 829 21
 2387 00f4 3B68     		ldr	r3, [r7]
 2388 00f6 5B68     		ldr	r3, [r3, #4]
 828:Drivers/VL53L0X/core/src/vl53l0x_api.c **** 		Status = VL53L0X_SetMeasurementTimingBudgetMicroSeconds(Dev,
 2389              		.loc 1 828 12
 2390 00f8 1946     		mov	r1, r3
 2391 00fa 7868     		ldr	r0, [r7, #4]
 2392 00fc FFF7FEFF 		bl	VL53L0X_SetMeasurementTimingBudgetMicroSeconds
 2393 0100 0346     		mov	r3, r0
 2394 0102 FB73     		strb	r3, [r7, #15]
 2395              	.L129:
 830:Drivers/VL53L0X/core/src/vl53l0x_api.c **** 
 831:Drivers/VL53L0X/core/src/vl53l0x_api.c **** 
 832:Drivers/VL53L0X/core/src/vl53l0x_api.c **** 	LOG_FUNCTION_END(Status);
 833:Drivers/VL53L0X/core/src/vl53l0x_api.c **** 	return Status;
 2396              		.loc 1 833 9
 2397 0104 97F90F30 		ldrsb	r3, [r7, #15]
 834:Drivers/VL53L0X/core/src/vl53l0x_api.c **** }
 2398              		.loc 1 834 1
 2399 0108 1846     		mov	r0, r3
 2400 010a 1037     		adds	r7, r7, #16
 2401              		.cfi_def_cfa_offset 8
 2402 010c BD46     		mov	sp, r7
 2403              		.cfi_def_cfa_register 13
 2404              		@ sp needed
 2405 010e 80BD     		pop	{r7, pc}
 2406              		.cfi_endproc
 2407              	.LFE350:
 2409              		.section	.text.VL53L0X_GetDeviceParameters,"ax",%progbits
 2410              		.align	1
 2411              		.global	VL53L0X_GetDeviceParameters
 2412              		.syntax unified
 2413              		.thumb
 2414              		.thumb_func
 2416              	VL53L0X_GetDeviceParameters:
 2417              	.LFB351:
 835:Drivers/VL53L0X/core/src/vl53l0x_api.c **** 
 836:Drivers/VL53L0X/core/src/vl53l0x_api.c **** VL53L0X_Error VL53L0X_GetDeviceParameters(VL53L0X_DEV Dev,
 837:Drivers/VL53L0X/core/src/vl53l0x_api.c **** 	VL53L0X_DeviceParameters_t *pDeviceParameters)
 838:Drivers/VL53L0X/core/src/vl53l0x_api.c **** {
 2418              		.loc 1 838 1
 2419              		.cfi_startproc
 2420              		@ args = 0, pretend = 0, frame = 16
 2421              		@ frame_needed = 1, uses_anonymous_args = 0
 2422 0000 80B5     		push	{r7, lr}
ARM GAS  C:\Users\Morroway\AppData\Local\Temp\ccih4NWY.s 			page 60


 2423              		.cfi_def_cfa_offset 8
 2424              		.cfi_offset 7, -8
 2425              		.cfi_offset 14, -4
 2426 0002 84B0     		sub	sp, sp, #16
 2427              		.cfi_def_cfa_offset 24
 2428 0004 00AF     		add	r7, sp, #0
 2429              		.cfi_def_cfa_register 7
 2430 0006 7860     		str	r0, [r7, #4]
 2431 0008 3960     		str	r1, [r7]
 839:Drivers/VL53L0X/core/src/vl53l0x_api.c **** 	VL53L0X_Error Status = VL53L0X_ERROR_NONE;
 2432              		.loc 1 839 16
 2433 000a 0023     		movs	r3, #0
 2434 000c FB73     		strb	r3, [r7, #15]
 840:Drivers/VL53L0X/core/src/vl53l0x_api.c **** 	int i;
 841:Drivers/VL53L0X/core/src/vl53l0x_api.c **** 
 842:Drivers/VL53L0X/core/src/vl53l0x_api.c **** 	LOG_FUNCTION_START("");
 843:Drivers/VL53L0X/core/src/vl53l0x_api.c **** 
 844:Drivers/VL53L0X/core/src/vl53l0x_api.c **** 	Status = VL53L0X_GetDeviceMode(Dev, &(pDeviceParameters->DeviceMode));
 2435              		.loc 1 844 11
 2436 000e 3B68     		ldr	r3, [r7]
 2437 0010 1946     		mov	r1, r3
 2438 0012 7868     		ldr	r0, [r7, #4]
 2439 0014 FFF7FEFF 		bl	VL53L0X_GetDeviceMode
 2440 0018 0346     		mov	r3, r0
 2441 001a FB73     		strb	r3, [r7, #15]
 845:Drivers/VL53L0X/core/src/vl53l0x_api.c **** 
 846:Drivers/VL53L0X/core/src/vl53l0x_api.c **** 	if (Status == VL53L0X_ERROR_NONE)
 2442              		.loc 1 846 5
 2443 001c 97F90F30 		ldrsb	r3, [r7, #15]
 2444 0020 002B     		cmp	r3, #0
 2445 0022 07D1     		bne	.L134
 847:Drivers/VL53L0X/core/src/vl53l0x_api.c **** 		Status = VL53L0X_GetInterMeasurementPeriodMilliSeconds(Dev,
 2446              		.loc 1 847 12
 2447 0024 3B68     		ldr	r3, [r7]
 2448 0026 0833     		adds	r3, r3, #8
 2449 0028 1946     		mov	r1, r3
 2450 002a 7868     		ldr	r0, [r7, #4]
 2451 002c FFF7FEFF 		bl	VL53L0X_GetInterMeasurementPeriodMilliSeconds
 2452 0030 0346     		mov	r3, r0
 2453 0032 FB73     		strb	r3, [r7, #15]
 2454              	.L134:
 848:Drivers/VL53L0X/core/src/vl53l0x_api.c **** 		&(pDeviceParameters->InterMeasurementPeriodMilliSeconds));
 849:Drivers/VL53L0X/core/src/vl53l0x_api.c **** 
 850:Drivers/VL53L0X/core/src/vl53l0x_api.c **** 
 851:Drivers/VL53L0X/core/src/vl53l0x_api.c **** 	if (Status == VL53L0X_ERROR_NONE)
 2455              		.loc 1 851 5
 2456 0034 97F90F30 		ldrsb	r3, [r7, #15]
 2457 0038 002B     		cmp	r3, #0
 2458 003a 02D1     		bne	.L135
 852:Drivers/VL53L0X/core/src/vl53l0x_api.c **** 		pDeviceParameters->XTalkCompensationEnable = 0;
 2459              		.loc 1 852 46
 2460 003c 3B68     		ldr	r3, [r7]
 2461 003e 0022     		movs	r2, #0
 2462 0040 1A73     		strb	r2, [r3, #12]
 2463              	.L135:
 853:Drivers/VL53L0X/core/src/vl53l0x_api.c **** 
 854:Drivers/VL53L0X/core/src/vl53l0x_api.c **** 	if (Status == VL53L0X_ERROR_NONE)
ARM GAS  C:\Users\Morroway\AppData\Local\Temp\ccih4NWY.s 			page 61


 2464              		.loc 1 854 5
 2465 0042 97F90F30 		ldrsb	r3, [r7, #15]
 2466 0046 002B     		cmp	r3, #0
 2467 0048 07D1     		bne	.L136
 855:Drivers/VL53L0X/core/src/vl53l0x_api.c **** 		Status = VL53L0X_GetXTalkCompensationRateMegaCps(Dev,
 2468              		.loc 1 855 12
 2469 004a 3B68     		ldr	r3, [r7]
 2470 004c 1033     		adds	r3, r3, #16
 2471 004e 1946     		mov	r1, r3
 2472 0050 7868     		ldr	r0, [r7, #4]
 2473 0052 FFF7FEFF 		bl	VL53L0X_GetXTalkCompensationRateMegaCps
 2474 0056 0346     		mov	r3, r0
 2475 0058 FB73     		strb	r3, [r7, #15]
 2476              	.L136:
 856:Drivers/VL53L0X/core/src/vl53l0x_api.c **** 			&(pDeviceParameters->XTalkCompensationRateMegaCps));
 857:Drivers/VL53L0X/core/src/vl53l0x_api.c **** 
 858:Drivers/VL53L0X/core/src/vl53l0x_api.c **** 
 859:Drivers/VL53L0X/core/src/vl53l0x_api.c **** 	if (Status == VL53L0X_ERROR_NONE)
 2477              		.loc 1 859 5
 2478 005a 97F90F30 		ldrsb	r3, [r7, #15]
 2479 005e 002B     		cmp	r3, #0
 2480 0060 07D1     		bne	.L137
 860:Drivers/VL53L0X/core/src/vl53l0x_api.c **** 		Status = VL53L0X_GetOffsetCalibrationDataMicroMeter(Dev,
 2481              		.loc 1 860 12
 2482 0062 3B68     		ldr	r3, [r7]
 2483 0064 1433     		adds	r3, r3, #20
 2484 0066 1946     		mov	r1, r3
 2485 0068 7868     		ldr	r0, [r7, #4]
 2486 006a FFF7FEFF 		bl	VL53L0X_GetOffsetCalibrationDataMicroMeter
 2487 006e 0346     		mov	r3, r0
 2488 0070 FB73     		strb	r3, [r7, #15]
 2489              	.L137:
 861:Drivers/VL53L0X/core/src/vl53l0x_api.c **** 			&(pDeviceParameters->RangeOffsetMicroMeters));
 862:Drivers/VL53L0X/core/src/vl53l0x_api.c **** 
 863:Drivers/VL53L0X/core/src/vl53l0x_api.c **** 
 864:Drivers/VL53L0X/core/src/vl53l0x_api.c **** 	if (Status == VL53L0X_ERROR_NONE) {
 2490              		.loc 1 864 5
 2491 0072 97F90F30 		ldrsb	r3, [r7, #15]
 2492 0076 002B     		cmp	r3, #0
 2493 0078 34D1     		bne	.L138
 865:Drivers/VL53L0X/core/src/vl53l0x_api.c **** 		for (i = 0; i < VL53L0X_CHECKENABLE_NUMBER_OF_CHECKS; i++) {
 2494              		.loc 1 865 10
 2495 007a 0023     		movs	r3, #0
 2496 007c BB60     		str	r3, [r7, #8]
 2497              		.loc 1 865 3
 2498 007e 2AE0     		b	.L139
 2499              	.L144:
 866:Drivers/VL53L0X/core/src/vl53l0x_api.c **** 			/* get first the values, then the enables.
 867:Drivers/VL53L0X/core/src/vl53l0x_api.c **** 			 * VL53L0X_GetLimitCheckValue will modify the enable
 868:Drivers/VL53L0X/core/src/vl53l0x_api.c **** 			 * flags
 869:Drivers/VL53L0X/core/src/vl53l0x_api.c **** 			 */
 870:Drivers/VL53L0X/core/src/vl53l0x_api.c **** 			if (Status == VL53L0X_ERROR_NONE) {
 2500              		.loc 1 870 7
 2501 0080 97F90F30 		ldrsb	r3, [r7, #15]
 2502 0084 002B     		cmp	r3, #0
 2503 0086 2AD1     		bne	.L148
 871:Drivers/VL53L0X/core/src/vl53l0x_api.c **** 				Status |= VL53L0X_GetLimitCheckValue(Dev, i,
ARM GAS  C:\Users\Morroway\AppData\Local\Temp\ccih4NWY.s 			page 62


 2504              		.loc 1 871 15
 2505 0088 BB68     		ldr	r3, [r7, #8]
 2506 008a 99B2     		uxth	r1, r3
 2507 008c BB68     		ldr	r3, [r7, #8]
 2508 008e 0833     		adds	r3, r3, #8
 2509 0090 9B00     		lsls	r3, r3, #2
 2510 0092 3A68     		ldr	r2, [r7]
 2511 0094 1344     		add	r3, r3, r2
 2512 0096 0433     		adds	r3, r3, #4
 2513 0098 1A46     		mov	r2, r3
 2514 009a 7868     		ldr	r0, [r7, #4]
 2515 009c FFF7FEFF 		bl	VL53L0X_GetLimitCheckValue
 2516 00a0 0346     		mov	r3, r0
 2517 00a2 1A46     		mov	r2, r3
 2518              		.loc 1 871 12
 2519 00a4 FB7B     		ldrb	r3, [r7, #15]
 2520 00a6 1343     		orrs	r3, r3, r2
 2521 00a8 FB73     		strb	r3, [r7, #15]
 872:Drivers/VL53L0X/core/src/vl53l0x_api.c **** 				&(pDeviceParameters->LimitChecksValue[i]));
 873:Drivers/VL53L0X/core/src/vl53l0x_api.c **** 			} else {
 874:Drivers/VL53L0X/core/src/vl53l0x_api.c **** 				break;
 875:Drivers/VL53L0X/core/src/vl53l0x_api.c **** 			}
 876:Drivers/VL53L0X/core/src/vl53l0x_api.c **** 			if (Status == VL53L0X_ERROR_NONE) {
 2522              		.loc 1 876 7
 2523 00aa 97F90F30 		ldrsb	r3, [r7, #15]
 2524 00ae 002B     		cmp	r3, #0
 2525 00b0 17D1     		bne	.L149
 877:Drivers/VL53L0X/core/src/vl53l0x_api.c **** 				Status |= VL53L0X_GetLimitCheckEnable(Dev, i,
 2526              		.loc 1 877 15
 2527 00b2 BB68     		ldr	r3, [r7, #8]
 2528 00b4 99B2     		uxth	r1, r3
 2529 00b6 BB68     		ldr	r3, [r7, #8]
 2530 00b8 1833     		adds	r3, r3, #24
 2531 00ba 3A68     		ldr	r2, [r7]
 2532 00bc 1344     		add	r3, r3, r2
 2533 00be 1A46     		mov	r2, r3
 2534 00c0 7868     		ldr	r0, [r7, #4]
 2535 00c2 FFF7FEFF 		bl	VL53L0X_GetLimitCheckEnable
 2536 00c6 0346     		mov	r3, r0
 2537 00c8 1A46     		mov	r2, r3
 2538              		.loc 1 877 12
 2539 00ca FB7B     		ldrb	r3, [r7, #15]
 2540 00cc 1343     		orrs	r3, r3, r2
 2541 00ce FB73     		strb	r3, [r7, #15]
 865:Drivers/VL53L0X/core/src/vl53l0x_api.c **** 			/* get first the values, then the enables.
 2542              		.loc 1 865 58
 2543 00d0 BB68     		ldr	r3, [r7, #8]
 2544 00d2 0133     		adds	r3, r3, #1
 2545 00d4 BB60     		str	r3, [r7, #8]
 2546              	.L139:
 865:Drivers/VL53L0X/core/src/vl53l0x_api.c **** 			/* get first the values, then the enables.
 2547              		.loc 1 865 17 discriminator 1
 2548 00d6 BB68     		ldr	r3, [r7, #8]
 2549 00d8 052B     		cmp	r3, #5
 2550 00da D1DD     		ble	.L144
 2551 00dc 02E0     		b	.L138
 2552              	.L148:
ARM GAS  C:\Users\Morroway\AppData\Local\Temp\ccih4NWY.s 			page 63


 874:Drivers/VL53L0X/core/src/vl53l0x_api.c **** 			}
 2553              		.loc 1 874 5
 2554 00de 00BF     		nop
 2555 00e0 00E0     		b	.L138
 2556              	.L149:
 878:Drivers/VL53L0X/core/src/vl53l0x_api.c **** 				&(pDeviceParameters->LimitChecksEnable[i]));
 879:Drivers/VL53L0X/core/src/vl53l0x_api.c **** 			} else {
 880:Drivers/VL53L0X/core/src/vl53l0x_api.c **** 				break;
 2557              		.loc 1 880 5
 2558 00e2 00BF     		nop
 2559              	.L138:
 881:Drivers/VL53L0X/core/src/vl53l0x_api.c **** 			}
 882:Drivers/VL53L0X/core/src/vl53l0x_api.c **** 		}
 883:Drivers/VL53L0X/core/src/vl53l0x_api.c **** 	}
 884:Drivers/VL53L0X/core/src/vl53l0x_api.c **** 
 885:Drivers/VL53L0X/core/src/vl53l0x_api.c **** 	if (Status == VL53L0X_ERROR_NONE) {
 2560              		.loc 1 885 5
 2561 00e4 97F90F30 		ldrsb	r3, [r7, #15]
 2562 00e8 002B     		cmp	r3, #0
 2563 00ea 07D1     		bne	.L145
 886:Drivers/VL53L0X/core/src/vl53l0x_api.c **** 		Status = VL53L0X_GetWrapAroundCheckEnable(Dev,
 2564              		.loc 1 886 12
 2565 00ec 3B68     		ldr	r3, [r7]
 2566 00ee 3C33     		adds	r3, r3, #60
 2567 00f0 1946     		mov	r1, r3
 2568 00f2 7868     		ldr	r0, [r7, #4]
 2569 00f4 FFF7FEFF 		bl	VL53L0X_GetWrapAroundCheckEnable
 2570 00f8 0346     		mov	r3, r0
 2571 00fa FB73     		strb	r3, [r7, #15]
 2572              	.L145:
 887:Drivers/VL53L0X/core/src/vl53l0x_api.c **** 			&(pDeviceParameters->WrapAroundCheckEnable));
 888:Drivers/VL53L0X/core/src/vl53l0x_api.c **** 	}
 889:Drivers/VL53L0X/core/src/vl53l0x_api.c **** 
 890:Drivers/VL53L0X/core/src/vl53l0x_api.c **** 	/* Need to be done at the end as it uses VCSELPulsePeriod */
 891:Drivers/VL53L0X/core/src/vl53l0x_api.c **** 	if (Status == VL53L0X_ERROR_NONE) {
 2573              		.loc 1 891 5
 2574 00fc 97F90F30 		ldrsb	r3, [r7, #15]
 2575 0100 002B     		cmp	r3, #0
 2576 0102 07D1     		bne	.L146
 892:Drivers/VL53L0X/core/src/vl53l0x_api.c **** 		Status = VL53L0X_GetMeasurementTimingBudgetMicroSeconds(Dev,
 2577              		.loc 1 892 12
 2578 0104 3B68     		ldr	r3, [r7]
 2579 0106 0433     		adds	r3, r3, #4
 2580 0108 1946     		mov	r1, r3
 2581 010a 7868     		ldr	r0, [r7, #4]
 2582 010c FFF7FEFF 		bl	VL53L0X_GetMeasurementTimingBudgetMicroSeconds
 2583 0110 0346     		mov	r3, r0
 2584 0112 FB73     		strb	r3, [r7, #15]
 2585              	.L146:
 893:Drivers/VL53L0X/core/src/vl53l0x_api.c **** 		&(pDeviceParameters->MeasurementTimingBudgetMicroSeconds));
 894:Drivers/VL53L0X/core/src/vl53l0x_api.c **** 	}
 895:Drivers/VL53L0X/core/src/vl53l0x_api.c **** 
 896:Drivers/VL53L0X/core/src/vl53l0x_api.c **** 	LOG_FUNCTION_END(Status);
 897:Drivers/VL53L0X/core/src/vl53l0x_api.c **** 	return Status;
 2586              		.loc 1 897 9
 2587 0114 97F90F30 		ldrsb	r3, [r7, #15]
 898:Drivers/VL53L0X/core/src/vl53l0x_api.c **** }
ARM GAS  C:\Users\Morroway\AppData\Local\Temp\ccih4NWY.s 			page 64


 2588              		.loc 1 898 1
 2589 0118 1846     		mov	r0, r3
 2590 011a 1037     		adds	r7, r7, #16
 2591              		.cfi_def_cfa_offset 8
 2592 011c BD46     		mov	sp, r7
 2593              		.cfi_def_cfa_register 13
 2594              		@ sp needed
 2595 011e 80BD     		pop	{r7, pc}
 2596              		.cfi_endproc
 2597              	.LFE351:
 2599              		.section	.text.VL53L0X_SetDeviceMode,"ax",%progbits
 2600              		.align	1
 2601              		.global	VL53L0X_SetDeviceMode
 2602              		.syntax unified
 2603              		.thumb
 2604              		.thumb_func
 2606              	VL53L0X_SetDeviceMode:
 2607              	.LFB352:
 899:Drivers/VL53L0X/core/src/vl53l0x_api.c **** 
 900:Drivers/VL53L0X/core/src/vl53l0x_api.c **** VL53L0X_Error VL53L0X_SetDeviceMode(VL53L0X_DEV Dev, VL53L0X_DeviceModes DeviceMode)
 901:Drivers/VL53L0X/core/src/vl53l0x_api.c **** {
 2608              		.loc 1 901 1
 2609              		.cfi_startproc
 2610              		@ args = 0, pretend = 0, frame = 16
 2611              		@ frame_needed = 1, uses_anonymous_args = 0
 2612              		@ link register save eliminated.
 2613 0000 80B4     		push	{r7}
 2614              		.cfi_def_cfa_offset 4
 2615              		.cfi_offset 7, -4
 2616 0002 85B0     		sub	sp, sp, #20
 2617              		.cfi_def_cfa_offset 24
 2618 0004 00AF     		add	r7, sp, #0
 2619              		.cfi_def_cfa_register 7
 2620 0006 7860     		str	r0, [r7, #4]
 2621 0008 0B46     		mov	r3, r1
 2622 000a FB70     		strb	r3, [r7, #3]
 902:Drivers/VL53L0X/core/src/vl53l0x_api.c **** 	VL53L0X_Error Status = VL53L0X_ERROR_NONE;
 2623              		.loc 1 902 16
 2624 000c 0023     		movs	r3, #0
 2625 000e FB73     		strb	r3, [r7, #15]
 903:Drivers/VL53L0X/core/src/vl53l0x_api.c **** 
 904:Drivers/VL53L0X/core/src/vl53l0x_api.c **** 	LOG_FUNCTION_START("%d", (int)DeviceMode);
 905:Drivers/VL53L0X/core/src/vl53l0x_api.c **** 
 906:Drivers/VL53L0X/core/src/vl53l0x_api.c **** 	switch (DeviceMode) {
 2626              		.loc 1 906 2
 2627 0010 FB78     		ldrb	r3, [r7, #3]	@ zero_extendqisi2
 2628 0012 152B     		cmp	r3, #21
 2629 0014 8CBF     		ite	hi
 2630 0016 0122     		movhi	r2, #1
 2631 0018 0022     		movls	r2, #0
 2632 001a D2B2     		uxtb	r2, r2
 2633 001c 002A     		cmp	r2, #0
 2634 001e 0FD1     		bne	.L151
 2635 0020 0C4A     		ldr	r2, .L154
 2636 0022 22FA03F3 		lsr	r3, r2, r3
 2637 0026 03F00103 		and	r3, r3, #1
 2638 002a 002B     		cmp	r3, #0
ARM GAS  C:\Users\Morroway\AppData\Local\Temp\ccih4NWY.s 			page 65


 2639 002c 14BF     		ite	ne
 2640 002e 0123     		movne	r3, #1
 2641 0030 0023     		moveq	r3, #0
 2642 0032 DBB2     		uxtb	r3, r3
 2643 0034 002B     		cmp	r3, #0
 2644 0036 03D0     		beq	.L151
 907:Drivers/VL53L0X/core/src/vl53l0x_api.c **** 	case VL53L0X_DEVICEMODE_SINGLE_RANGING:
 908:Drivers/VL53L0X/core/src/vl53l0x_api.c **** 	case VL53L0X_DEVICEMODE_CONTINUOUS_RANGING:
 909:Drivers/VL53L0X/core/src/vl53l0x_api.c **** 	case VL53L0X_DEVICEMODE_CONTINUOUS_TIMED_RANGING:
 910:Drivers/VL53L0X/core/src/vl53l0x_api.c **** 	case VL53L0X_DEVICEMODE_GPIO_DRIVE:
 911:Drivers/VL53L0X/core/src/vl53l0x_api.c **** 	case VL53L0X_DEVICEMODE_GPIO_OSC:
 912:Drivers/VL53L0X/core/src/vl53l0x_api.c **** 		/* Supported modes */
 913:Drivers/VL53L0X/core/src/vl53l0x_api.c **** 		VL53L0X_SETPARAMETERFIELD(Dev, DeviceMode, DeviceMode);
 2645              		.loc 1 913 3
 2646 0038 7B68     		ldr	r3, [r7, #4]
 2647 003a FA78     		ldrb	r2, [r7, #3]
 2648 003c 1A74     		strb	r2, [r3, #16]
 914:Drivers/VL53L0X/core/src/vl53l0x_api.c **** 		break;
 2649              		.loc 1 914 3
 2650 003e 01E0     		b	.L152
 2651              	.L151:
 915:Drivers/VL53L0X/core/src/vl53l0x_api.c **** 	default:
 916:Drivers/VL53L0X/core/src/vl53l0x_api.c **** 		/* Unsupported mode */
 917:Drivers/VL53L0X/core/src/vl53l0x_api.c **** 		Status = VL53L0X_ERROR_MODE_NOT_SUPPORTED;
 2652              		.loc 1 917 10
 2653 0040 F823     		movs	r3, #248
 2654 0042 FB73     		strb	r3, [r7, #15]
 2655              	.L152:
 918:Drivers/VL53L0X/core/src/vl53l0x_api.c **** 	}
 919:Drivers/VL53L0X/core/src/vl53l0x_api.c **** 
 920:Drivers/VL53L0X/core/src/vl53l0x_api.c **** 	LOG_FUNCTION_END(Status);
 921:Drivers/VL53L0X/core/src/vl53l0x_api.c **** 	return Status;
 2656              		.loc 1 921 9
 2657 0044 97F90F30 		ldrsb	r3, [r7, #15]
 922:Drivers/VL53L0X/core/src/vl53l0x_api.c **** }
 2658              		.loc 1 922 1
 2659 0048 1846     		mov	r0, r3
 2660 004a 1437     		adds	r7, r7, #20
 2661              		.cfi_def_cfa_offset 4
 2662 004c BD46     		mov	sp, r7
 2663              		.cfi_def_cfa_register 13
 2664              		@ sp needed
 2665 004e 5DF8047B 		ldr	r7, [sp], #4
 2666              		.cfi_restore 7
 2667              		.cfi_def_cfa_offset 0
 2668 0052 7047     		bx	lr
 2669              	.L155:
 2670              		.align	2
 2671              	.L154:
 2672 0054 0B003000 		.word	3145739
 2673              		.cfi_endproc
 2674              	.LFE352:
 2676              		.section	.text.VL53L0X_GetDeviceMode,"ax",%progbits
 2677              		.align	1
 2678              		.global	VL53L0X_GetDeviceMode
 2679              		.syntax unified
 2680              		.thumb
ARM GAS  C:\Users\Morroway\AppData\Local\Temp\ccih4NWY.s 			page 66


 2681              		.thumb_func
 2683              	VL53L0X_GetDeviceMode:
 2684              	.LFB353:
 923:Drivers/VL53L0X/core/src/vl53l0x_api.c **** 
 924:Drivers/VL53L0X/core/src/vl53l0x_api.c **** VL53L0X_Error VL53L0X_GetDeviceMode(VL53L0X_DEV Dev,
 925:Drivers/VL53L0X/core/src/vl53l0x_api.c **** 	VL53L0X_DeviceModes *pDeviceMode)
 926:Drivers/VL53L0X/core/src/vl53l0x_api.c **** {
 2685              		.loc 1 926 1
 2686              		.cfi_startproc
 2687              		@ args = 0, pretend = 0, frame = 16
 2688              		@ frame_needed = 1, uses_anonymous_args = 0
 2689              		@ link register save eliminated.
 2690 0000 80B4     		push	{r7}
 2691              		.cfi_def_cfa_offset 4
 2692              		.cfi_offset 7, -4
 2693 0002 85B0     		sub	sp, sp, #20
 2694              		.cfi_def_cfa_offset 24
 2695 0004 00AF     		add	r7, sp, #0
 2696              		.cfi_def_cfa_register 7
 2697 0006 7860     		str	r0, [r7, #4]
 2698 0008 3960     		str	r1, [r7]
 927:Drivers/VL53L0X/core/src/vl53l0x_api.c **** 	VL53L0X_Error Status = VL53L0X_ERROR_NONE;
 2699              		.loc 1 927 16
 2700 000a 0023     		movs	r3, #0
 2701 000c FB73     		strb	r3, [r7, #15]
 928:Drivers/VL53L0X/core/src/vl53l0x_api.c **** 	LOG_FUNCTION_START("");
 929:Drivers/VL53L0X/core/src/vl53l0x_api.c **** 
 930:Drivers/VL53L0X/core/src/vl53l0x_api.c **** 	VL53L0X_GETPARAMETERFIELD(Dev, DeviceMode, *pDeviceMode);
 2702              		.loc 1 930 2
 2703 000e 7B68     		ldr	r3, [r7, #4]
 2704 0010 1A7C     		ldrb	r2, [r3, #16]	@ zero_extendqisi2
 2705 0012 3B68     		ldr	r3, [r7]
 2706 0014 1A70     		strb	r2, [r3]
 931:Drivers/VL53L0X/core/src/vl53l0x_api.c **** 
 932:Drivers/VL53L0X/core/src/vl53l0x_api.c **** 	LOG_FUNCTION_END(Status);
 933:Drivers/VL53L0X/core/src/vl53l0x_api.c **** 	return Status;
 2707              		.loc 1 933 9
 2708 0016 97F90F30 		ldrsb	r3, [r7, #15]
 934:Drivers/VL53L0X/core/src/vl53l0x_api.c **** }
 2709              		.loc 1 934 1
 2710 001a 1846     		mov	r0, r3
 2711 001c 1437     		adds	r7, r7, #20
 2712              		.cfi_def_cfa_offset 4
 2713 001e BD46     		mov	sp, r7
 2714              		.cfi_def_cfa_register 13
 2715              		@ sp needed
 2716 0020 5DF8047B 		ldr	r7, [sp], #4
 2717              		.cfi_restore 7
 2718              		.cfi_def_cfa_offset 0
 2719 0024 7047     		bx	lr
 2720              		.cfi_endproc
 2721              	.LFE353:
 2723              		.section	.text.VL53L0X_SetRangeFractionEnable,"ax",%progbits
 2724              		.align	1
 2725              		.global	VL53L0X_SetRangeFractionEnable
 2726              		.syntax unified
 2727              		.thumb
ARM GAS  C:\Users\Morroway\AppData\Local\Temp\ccih4NWY.s 			page 67


 2728              		.thumb_func
 2730              	VL53L0X_SetRangeFractionEnable:
 2731              	.LFB354:
 935:Drivers/VL53L0X/core/src/vl53l0x_api.c **** 
 936:Drivers/VL53L0X/core/src/vl53l0x_api.c **** VL53L0X_Error VL53L0X_SetRangeFractionEnable(VL53L0X_DEV Dev,	uint8_t Enable)
 937:Drivers/VL53L0X/core/src/vl53l0x_api.c **** {
 2732              		.loc 1 937 1
 2733              		.cfi_startproc
 2734              		@ args = 0, pretend = 0, frame = 16
 2735              		@ frame_needed = 1, uses_anonymous_args = 0
 2736 0000 80B5     		push	{r7, lr}
 2737              		.cfi_def_cfa_offset 8
 2738              		.cfi_offset 7, -8
 2739              		.cfi_offset 14, -4
 2740 0002 84B0     		sub	sp, sp, #16
 2741              		.cfi_def_cfa_offset 24
 2742 0004 00AF     		add	r7, sp, #0
 2743              		.cfi_def_cfa_register 7
 2744 0006 7860     		str	r0, [r7, #4]
 2745 0008 0B46     		mov	r3, r1
 2746 000a FB70     		strb	r3, [r7, #3]
 938:Drivers/VL53L0X/core/src/vl53l0x_api.c **** 	VL53L0X_Error Status = VL53L0X_ERROR_NONE;
 2747              		.loc 1 938 16
 2748 000c 0023     		movs	r3, #0
 2749 000e FB73     		strb	r3, [r7, #15]
 939:Drivers/VL53L0X/core/src/vl53l0x_api.c **** 
 940:Drivers/VL53L0X/core/src/vl53l0x_api.c **** 	LOG_FUNCTION_START("%d", (int)Enable);
 941:Drivers/VL53L0X/core/src/vl53l0x_api.c **** 
 942:Drivers/VL53L0X/core/src/vl53l0x_api.c **** 	Status = VL53L0X_WrByte(Dev, VL53L0X_REG_SYSTEM_RANGE_CONFIG, Enable);
 2750              		.loc 1 942 11
 2751 0010 FB78     		ldrb	r3, [r7, #3]	@ zero_extendqisi2
 2752 0012 1A46     		mov	r2, r3
 2753 0014 0921     		movs	r1, #9
 2754 0016 7868     		ldr	r0, [r7, #4]
 2755 0018 FFF7FEFF 		bl	VL53L0X_WrByte
 2756 001c 0346     		mov	r3, r0
 2757 001e FB73     		strb	r3, [r7, #15]
 943:Drivers/VL53L0X/core/src/vl53l0x_api.c **** 
 944:Drivers/VL53L0X/core/src/vl53l0x_api.c **** 	if (Status == VL53L0X_ERROR_NONE)
 2758              		.loc 1 944 5
 2759 0020 97F90F30 		ldrsb	r3, [r7, #15]
 2760 0024 002B     		cmp	r3, #0
 2761 0026 03D1     		bne	.L159
 945:Drivers/VL53L0X/core/src/vl53l0x_api.c **** 		PALDevDataSet(Dev, RangeFractionalEnable, Enable);
 2762              		.loc 1 945 3
 2763 0028 7B68     		ldr	r3, [r7, #4]
 2764 002a FA78     		ldrb	r2, [r7, #3]
 2765 002c 83F83121 		strb	r2, [r3, #305]
 2766              	.L159:
 946:Drivers/VL53L0X/core/src/vl53l0x_api.c **** 
 947:Drivers/VL53L0X/core/src/vl53l0x_api.c **** 	LOG_FUNCTION_END(Status);
 948:Drivers/VL53L0X/core/src/vl53l0x_api.c **** 	return Status;
 2767              		.loc 1 948 9
 2768 0030 97F90F30 		ldrsb	r3, [r7, #15]
 949:Drivers/VL53L0X/core/src/vl53l0x_api.c **** }
 2769              		.loc 1 949 1
 2770 0034 1846     		mov	r0, r3
ARM GAS  C:\Users\Morroway\AppData\Local\Temp\ccih4NWY.s 			page 68


 2771 0036 1037     		adds	r7, r7, #16
 2772              		.cfi_def_cfa_offset 8
 2773 0038 BD46     		mov	sp, r7
 2774              		.cfi_def_cfa_register 13
 2775              		@ sp needed
 2776 003a 80BD     		pop	{r7, pc}
 2777              		.cfi_endproc
 2778              	.LFE354:
 2780              		.section	.text.VL53L0X_GetFractionEnable,"ax",%progbits
 2781              		.align	1
 2782              		.global	VL53L0X_GetFractionEnable
 2783              		.syntax unified
 2784              		.thumb
 2785              		.thumb_func
 2787              	VL53L0X_GetFractionEnable:
 2788              	.LFB355:
 950:Drivers/VL53L0X/core/src/vl53l0x_api.c **** 
 951:Drivers/VL53L0X/core/src/vl53l0x_api.c **** VL53L0X_Error VL53L0X_GetFractionEnable(VL53L0X_DEV Dev, uint8_t *pEnabled)
 952:Drivers/VL53L0X/core/src/vl53l0x_api.c **** {
 2789              		.loc 1 952 1
 2790              		.cfi_startproc
 2791              		@ args = 0, pretend = 0, frame = 16
 2792              		@ frame_needed = 1, uses_anonymous_args = 0
 2793 0000 80B5     		push	{r7, lr}
 2794              		.cfi_def_cfa_offset 8
 2795              		.cfi_offset 7, -8
 2796              		.cfi_offset 14, -4
 2797 0002 84B0     		sub	sp, sp, #16
 2798              		.cfi_def_cfa_offset 24
 2799 0004 00AF     		add	r7, sp, #0
 2800              		.cfi_def_cfa_register 7
 2801 0006 7860     		str	r0, [r7, #4]
 2802 0008 3960     		str	r1, [r7]
 953:Drivers/VL53L0X/core/src/vl53l0x_api.c **** 	VL53L0X_Error Status = VL53L0X_ERROR_NONE;
 2803              		.loc 1 953 16
 2804 000a 0023     		movs	r3, #0
 2805 000c FB73     		strb	r3, [r7, #15]
 954:Drivers/VL53L0X/core/src/vl53l0x_api.c **** 	LOG_FUNCTION_START("");
 955:Drivers/VL53L0X/core/src/vl53l0x_api.c **** 
 956:Drivers/VL53L0X/core/src/vl53l0x_api.c **** 	Status = VL53L0X_RdByte(Dev, VL53L0X_REG_SYSTEM_RANGE_CONFIG, pEnabled);
 2806              		.loc 1 956 11
 2807 000e 3A68     		ldr	r2, [r7]
 2808 0010 0921     		movs	r1, #9
 2809 0012 7868     		ldr	r0, [r7, #4]
 2810 0014 FFF7FEFF 		bl	VL53L0X_RdByte
 2811 0018 0346     		mov	r3, r0
 2812 001a FB73     		strb	r3, [r7, #15]
 957:Drivers/VL53L0X/core/src/vl53l0x_api.c **** 
 958:Drivers/VL53L0X/core/src/vl53l0x_api.c **** 	if (Status == VL53L0X_ERROR_NONE)
 2813              		.loc 1 958 5
 2814 001c 97F90F30 		ldrsb	r3, [r7, #15]
 2815 0020 002B     		cmp	r3, #0
 2816 0022 06D1     		bne	.L162
 959:Drivers/VL53L0X/core/src/vl53l0x_api.c **** 		*pEnabled = (*pEnabled & 1);
 2817              		.loc 1 959 16
 2818 0024 3B68     		ldr	r3, [r7]
 2819 0026 1B78     		ldrb	r3, [r3]	@ zero_extendqisi2
ARM GAS  C:\Users\Morroway\AppData\Local\Temp\ccih4NWY.s 			page 69


 2820              		.loc 1 959 26
 2821 0028 03F00103 		and	r3, r3, #1
 2822 002c DAB2     		uxtb	r2, r3
 2823              		.loc 1 959 13
 2824 002e 3B68     		ldr	r3, [r7]
 2825 0030 1A70     		strb	r2, [r3]
 2826              	.L162:
 960:Drivers/VL53L0X/core/src/vl53l0x_api.c **** 
 961:Drivers/VL53L0X/core/src/vl53l0x_api.c **** 	LOG_FUNCTION_END(Status);
 962:Drivers/VL53L0X/core/src/vl53l0x_api.c **** 	return Status;
 2827              		.loc 1 962 9
 2828 0032 97F90F30 		ldrsb	r3, [r7, #15]
 963:Drivers/VL53L0X/core/src/vl53l0x_api.c **** }
 2829              		.loc 1 963 1
 2830 0036 1846     		mov	r0, r3
 2831 0038 1037     		adds	r7, r7, #16
 2832              		.cfi_def_cfa_offset 8
 2833 003a BD46     		mov	sp, r7
 2834              		.cfi_def_cfa_register 13
 2835              		@ sp needed
 2836 003c 80BD     		pop	{r7, pc}
 2837              		.cfi_endproc
 2838              	.LFE355:
 2840              		.section	.text.VL53L0X_SetHistogramMode,"ax",%progbits
 2841              		.align	1
 2842              		.global	VL53L0X_SetHistogramMode
 2843              		.syntax unified
 2844              		.thumb
 2845              		.thumb_func
 2847              	VL53L0X_SetHistogramMode:
 2848              	.LFB356:
 964:Drivers/VL53L0X/core/src/vl53l0x_api.c **** 
 965:Drivers/VL53L0X/core/src/vl53l0x_api.c **** VL53L0X_Error VL53L0X_SetHistogramMode(VL53L0X_DEV Dev,
 966:Drivers/VL53L0X/core/src/vl53l0x_api.c **** 	VL53L0X_HistogramModes HistogramMode)
 967:Drivers/VL53L0X/core/src/vl53l0x_api.c **** {
 2849              		.loc 1 967 1
 2850              		.cfi_startproc
 2851              		@ args = 0, pretend = 0, frame = 16
 2852              		@ frame_needed = 1, uses_anonymous_args = 0
 2853              		@ link register save eliminated.
 2854 0000 80B4     		push	{r7}
 2855              		.cfi_def_cfa_offset 4
 2856              		.cfi_offset 7, -4
 2857 0002 85B0     		sub	sp, sp, #20
 2858              		.cfi_def_cfa_offset 24
 2859 0004 00AF     		add	r7, sp, #0
 2860              		.cfi_def_cfa_register 7
 2861 0006 7860     		str	r0, [r7, #4]
 2862 0008 0B46     		mov	r3, r1
 2863 000a FB70     		strb	r3, [r7, #3]
 968:Drivers/VL53L0X/core/src/vl53l0x_api.c **** 	VL53L0X_Error Status = VL53L0X_ERROR_NOT_IMPLEMENTED;
 2864              		.loc 1 968 16
 2865 000c 9D23     		movs	r3, #157
 2866 000e FB73     		strb	r3, [r7, #15]
 969:Drivers/VL53L0X/core/src/vl53l0x_api.c **** 	LOG_FUNCTION_START("");
 970:Drivers/VL53L0X/core/src/vl53l0x_api.c **** 
 971:Drivers/VL53L0X/core/src/vl53l0x_api.c **** 	/* not implemented on VL53L0X */
ARM GAS  C:\Users\Morroway\AppData\Local\Temp\ccih4NWY.s 			page 70


 972:Drivers/VL53L0X/core/src/vl53l0x_api.c **** 
 973:Drivers/VL53L0X/core/src/vl53l0x_api.c **** 	LOG_FUNCTION_END(Status);
 974:Drivers/VL53L0X/core/src/vl53l0x_api.c **** 	return Status;
 2867              		.loc 1 974 9
 2868 0010 97F90F30 		ldrsb	r3, [r7, #15]
 975:Drivers/VL53L0X/core/src/vl53l0x_api.c **** }
 2869              		.loc 1 975 1
 2870 0014 1846     		mov	r0, r3
 2871 0016 1437     		adds	r7, r7, #20
 2872              		.cfi_def_cfa_offset 4
 2873 0018 BD46     		mov	sp, r7
 2874              		.cfi_def_cfa_register 13
 2875              		@ sp needed
 2876 001a 5DF8047B 		ldr	r7, [sp], #4
 2877              		.cfi_restore 7
 2878              		.cfi_def_cfa_offset 0
 2879 001e 7047     		bx	lr
 2880              		.cfi_endproc
 2881              	.LFE356:
 2883              		.section	.text.VL53L0X_GetHistogramMode,"ax",%progbits
 2884              		.align	1
 2885              		.global	VL53L0X_GetHistogramMode
 2886              		.syntax unified
 2887              		.thumb
 2888              		.thumb_func
 2890              	VL53L0X_GetHistogramMode:
 2891              	.LFB357:
 976:Drivers/VL53L0X/core/src/vl53l0x_api.c **** 
 977:Drivers/VL53L0X/core/src/vl53l0x_api.c **** VL53L0X_Error VL53L0X_GetHistogramMode(VL53L0X_DEV Dev,
 978:Drivers/VL53L0X/core/src/vl53l0x_api.c **** 	VL53L0X_HistogramModes *pHistogramMode)
 979:Drivers/VL53L0X/core/src/vl53l0x_api.c **** {
 2892              		.loc 1 979 1
 2893              		.cfi_startproc
 2894              		@ args = 0, pretend = 0, frame = 16
 2895              		@ frame_needed = 1, uses_anonymous_args = 0
 2896              		@ link register save eliminated.
 2897 0000 80B4     		push	{r7}
 2898              		.cfi_def_cfa_offset 4
 2899              		.cfi_offset 7, -4
 2900 0002 85B0     		sub	sp, sp, #20
 2901              		.cfi_def_cfa_offset 24
 2902 0004 00AF     		add	r7, sp, #0
 2903              		.cfi_def_cfa_register 7
 2904 0006 7860     		str	r0, [r7, #4]
 2905 0008 3960     		str	r1, [r7]
 980:Drivers/VL53L0X/core/src/vl53l0x_api.c **** 	VL53L0X_Error Status = VL53L0X_ERROR_NOT_IMPLEMENTED;
 2906              		.loc 1 980 16
 2907 000a 9D23     		movs	r3, #157
 2908 000c FB73     		strb	r3, [r7, #15]
 981:Drivers/VL53L0X/core/src/vl53l0x_api.c **** 	LOG_FUNCTION_START("");
 982:Drivers/VL53L0X/core/src/vl53l0x_api.c **** 
 983:Drivers/VL53L0X/core/src/vl53l0x_api.c **** 	/* not implemented on VL53L0X */
 984:Drivers/VL53L0X/core/src/vl53l0x_api.c **** 
 985:Drivers/VL53L0X/core/src/vl53l0x_api.c **** 	LOG_FUNCTION_END(Status);
 986:Drivers/VL53L0X/core/src/vl53l0x_api.c **** 	return Status;
 2909              		.loc 1 986 9
 2910 000e 97F90F30 		ldrsb	r3, [r7, #15]
ARM GAS  C:\Users\Morroway\AppData\Local\Temp\ccih4NWY.s 			page 71


 987:Drivers/VL53L0X/core/src/vl53l0x_api.c **** }
 2911              		.loc 1 987 1
 2912 0012 1846     		mov	r0, r3
 2913 0014 1437     		adds	r7, r7, #20
 2914              		.cfi_def_cfa_offset 4
 2915 0016 BD46     		mov	sp, r7
 2916              		.cfi_def_cfa_register 13
 2917              		@ sp needed
 2918 0018 5DF8047B 		ldr	r7, [sp], #4
 2919              		.cfi_restore 7
 2920              		.cfi_def_cfa_offset 0
 2921 001c 7047     		bx	lr
 2922              		.cfi_endproc
 2923              	.LFE357:
 2925              		.section	.text.VL53L0X_SetMeasurementTimingBudgetMicroSeconds,"ax",%progbits
 2926              		.align	1
 2927              		.global	VL53L0X_SetMeasurementTimingBudgetMicroSeconds
 2928              		.syntax unified
 2929              		.thumb
 2930              		.thumb_func
 2932              	VL53L0X_SetMeasurementTimingBudgetMicroSeconds:
 2933              	.LFB358:
 988:Drivers/VL53L0X/core/src/vl53l0x_api.c **** 
 989:Drivers/VL53L0X/core/src/vl53l0x_api.c **** VL53L0X_Error VL53L0X_SetMeasurementTimingBudgetMicroSeconds(VL53L0X_DEV Dev,
 990:Drivers/VL53L0X/core/src/vl53l0x_api.c **** 	uint32_t MeasurementTimingBudgetMicroSeconds)
 991:Drivers/VL53L0X/core/src/vl53l0x_api.c **** {
 2934              		.loc 1 991 1
 2935              		.cfi_startproc
 2936              		@ args = 0, pretend = 0, frame = 16
 2937              		@ frame_needed = 1, uses_anonymous_args = 0
 2938 0000 80B5     		push	{r7, lr}
 2939              		.cfi_def_cfa_offset 8
 2940              		.cfi_offset 7, -8
 2941              		.cfi_offset 14, -4
 2942 0002 84B0     		sub	sp, sp, #16
 2943              		.cfi_def_cfa_offset 24
 2944 0004 00AF     		add	r7, sp, #0
 2945              		.cfi_def_cfa_register 7
 2946 0006 7860     		str	r0, [r7, #4]
 2947 0008 3960     		str	r1, [r7]
 992:Drivers/VL53L0X/core/src/vl53l0x_api.c **** 	VL53L0X_Error Status = VL53L0X_ERROR_NONE;
 2948              		.loc 1 992 16
 2949 000a 0023     		movs	r3, #0
 2950 000c FB73     		strb	r3, [r7, #15]
 993:Drivers/VL53L0X/core/src/vl53l0x_api.c **** 	LOG_FUNCTION_START("");
 994:Drivers/VL53L0X/core/src/vl53l0x_api.c **** 
 995:Drivers/VL53L0X/core/src/vl53l0x_api.c **** 	Status = VL53L0X_set_measurement_timing_budget_micro_seconds(Dev,
 2951              		.loc 1 995 11
 2952 000e 3968     		ldr	r1, [r7]
 2953 0010 7868     		ldr	r0, [r7, #4]
 2954 0012 FFF7FEFF 		bl	VL53L0X_set_measurement_timing_budget_micro_seconds
 2955 0016 0346     		mov	r3, r0
 2956 0018 FB73     		strb	r3, [r7, #15]
 996:Drivers/VL53L0X/core/src/vl53l0x_api.c **** 		MeasurementTimingBudgetMicroSeconds);
 997:Drivers/VL53L0X/core/src/vl53l0x_api.c **** 
 998:Drivers/VL53L0X/core/src/vl53l0x_api.c **** 	LOG_FUNCTION_END(Status);
 999:Drivers/VL53L0X/core/src/vl53l0x_api.c **** 
ARM GAS  C:\Users\Morroway\AppData\Local\Temp\ccih4NWY.s 			page 72


1000:Drivers/VL53L0X/core/src/vl53l0x_api.c **** 	return Status;
 2957              		.loc 1 1000 9
 2958 001a 97F90F30 		ldrsb	r3, [r7, #15]
1001:Drivers/VL53L0X/core/src/vl53l0x_api.c **** }
 2959              		.loc 1 1001 1
 2960 001e 1846     		mov	r0, r3
 2961 0020 1037     		adds	r7, r7, #16
 2962              		.cfi_def_cfa_offset 8
 2963 0022 BD46     		mov	sp, r7
 2964              		.cfi_def_cfa_register 13
 2965              		@ sp needed
 2966 0024 80BD     		pop	{r7, pc}
 2967              		.cfi_endproc
 2968              	.LFE358:
 2970              		.section	.text.VL53L0X_GetMeasurementTimingBudgetMicroSeconds,"ax",%progbits
 2971              		.align	1
 2972              		.global	VL53L0X_GetMeasurementTimingBudgetMicroSeconds
 2973              		.syntax unified
 2974              		.thumb
 2975              		.thumb_func
 2977              	VL53L0X_GetMeasurementTimingBudgetMicroSeconds:
 2978              	.LFB359:
1002:Drivers/VL53L0X/core/src/vl53l0x_api.c **** 
1003:Drivers/VL53L0X/core/src/vl53l0x_api.c **** VL53L0X_Error VL53L0X_GetMeasurementTimingBudgetMicroSeconds(VL53L0X_DEV Dev,
1004:Drivers/VL53L0X/core/src/vl53l0x_api.c **** 	uint32_t *pMeasurementTimingBudgetMicroSeconds)
1005:Drivers/VL53L0X/core/src/vl53l0x_api.c **** {
 2979              		.loc 1 1005 1
 2980              		.cfi_startproc
 2981              		@ args = 0, pretend = 0, frame = 16
 2982              		@ frame_needed = 1, uses_anonymous_args = 0
 2983 0000 80B5     		push	{r7, lr}
 2984              		.cfi_def_cfa_offset 8
 2985              		.cfi_offset 7, -8
 2986              		.cfi_offset 14, -4
 2987 0002 84B0     		sub	sp, sp, #16
 2988              		.cfi_def_cfa_offset 24
 2989 0004 00AF     		add	r7, sp, #0
 2990              		.cfi_def_cfa_register 7
 2991 0006 7860     		str	r0, [r7, #4]
 2992 0008 3960     		str	r1, [r7]
1006:Drivers/VL53L0X/core/src/vl53l0x_api.c **** 	VL53L0X_Error Status = VL53L0X_ERROR_NONE;
 2993              		.loc 1 1006 16
 2994 000a 0023     		movs	r3, #0
 2995 000c FB73     		strb	r3, [r7, #15]
1007:Drivers/VL53L0X/core/src/vl53l0x_api.c **** 	LOG_FUNCTION_START("");
1008:Drivers/VL53L0X/core/src/vl53l0x_api.c **** 
1009:Drivers/VL53L0X/core/src/vl53l0x_api.c **** 	Status = VL53L0X_get_measurement_timing_budget_micro_seconds(Dev,
 2996              		.loc 1 1009 11
 2997 000e 3968     		ldr	r1, [r7]
 2998 0010 7868     		ldr	r0, [r7, #4]
 2999 0012 FFF7FEFF 		bl	VL53L0X_get_measurement_timing_budget_micro_seconds
 3000 0016 0346     		mov	r3, r0
 3001 0018 FB73     		strb	r3, [r7, #15]
1010:Drivers/VL53L0X/core/src/vl53l0x_api.c **** 		pMeasurementTimingBudgetMicroSeconds);
1011:Drivers/VL53L0X/core/src/vl53l0x_api.c **** 
1012:Drivers/VL53L0X/core/src/vl53l0x_api.c **** 	LOG_FUNCTION_END(Status);
1013:Drivers/VL53L0X/core/src/vl53l0x_api.c **** 	return Status;
ARM GAS  C:\Users\Morroway\AppData\Local\Temp\ccih4NWY.s 			page 73


 3002              		.loc 1 1013 9
 3003 001a 97F90F30 		ldrsb	r3, [r7, #15]
1014:Drivers/VL53L0X/core/src/vl53l0x_api.c **** }
 3004              		.loc 1 1014 1
 3005 001e 1846     		mov	r0, r3
 3006 0020 1037     		adds	r7, r7, #16
 3007              		.cfi_def_cfa_offset 8
 3008 0022 BD46     		mov	sp, r7
 3009              		.cfi_def_cfa_register 13
 3010              		@ sp needed
 3011 0024 80BD     		pop	{r7, pc}
 3012              		.cfi_endproc
 3013              	.LFE359:
 3015              		.section	.text.VL53L0X_SetVcselPulsePeriod,"ax",%progbits
 3016              		.align	1
 3017              		.global	VL53L0X_SetVcselPulsePeriod
 3018              		.syntax unified
 3019              		.thumb
 3020              		.thumb_func
 3022              	VL53L0X_SetVcselPulsePeriod:
 3023              	.LFB360:
1015:Drivers/VL53L0X/core/src/vl53l0x_api.c **** 
1016:Drivers/VL53L0X/core/src/vl53l0x_api.c **** VL53L0X_Error VL53L0X_SetVcselPulsePeriod(VL53L0X_DEV Dev,
1017:Drivers/VL53L0X/core/src/vl53l0x_api.c **** 	VL53L0X_VcselPeriod VcselPeriodType, uint8_t VCSELPulsePeriodPCLK)
1018:Drivers/VL53L0X/core/src/vl53l0x_api.c **** {
 3024              		.loc 1 1018 1
 3025              		.cfi_startproc
 3026              		@ args = 0, pretend = 0, frame = 16
 3027              		@ frame_needed = 1, uses_anonymous_args = 0
 3028 0000 80B5     		push	{r7, lr}
 3029              		.cfi_def_cfa_offset 8
 3030              		.cfi_offset 7, -8
 3031              		.cfi_offset 14, -4
 3032 0002 84B0     		sub	sp, sp, #16
 3033              		.cfi_def_cfa_offset 24
 3034 0004 00AF     		add	r7, sp, #0
 3035              		.cfi_def_cfa_register 7
 3036 0006 7860     		str	r0, [r7, #4]
 3037 0008 0B46     		mov	r3, r1
 3038 000a FB70     		strb	r3, [r7, #3]
 3039 000c 1346     		mov	r3, r2
 3040 000e BB70     		strb	r3, [r7, #2]
1019:Drivers/VL53L0X/core/src/vl53l0x_api.c **** 	VL53L0X_Error Status = VL53L0X_ERROR_NONE;
 3041              		.loc 1 1019 16
 3042 0010 0023     		movs	r3, #0
 3043 0012 FB73     		strb	r3, [r7, #15]
1020:Drivers/VL53L0X/core/src/vl53l0x_api.c **** 	LOG_FUNCTION_START("");
1021:Drivers/VL53L0X/core/src/vl53l0x_api.c **** 
1022:Drivers/VL53L0X/core/src/vl53l0x_api.c **** 	Status = VL53L0X_set_vcsel_pulse_period(Dev, VcselPeriodType,
 3044              		.loc 1 1022 11
 3045 0014 BA78     		ldrb	r2, [r7, #2]	@ zero_extendqisi2
 3046 0016 FB78     		ldrb	r3, [r7, #3]	@ zero_extendqisi2
 3047 0018 1946     		mov	r1, r3
 3048 001a 7868     		ldr	r0, [r7, #4]
 3049 001c FFF7FEFF 		bl	VL53L0X_set_vcsel_pulse_period
 3050 0020 0346     		mov	r3, r0
 3051 0022 FB73     		strb	r3, [r7, #15]
ARM GAS  C:\Users\Morroway\AppData\Local\Temp\ccih4NWY.s 			page 74


1023:Drivers/VL53L0X/core/src/vl53l0x_api.c **** 		VCSELPulsePeriodPCLK);
1024:Drivers/VL53L0X/core/src/vl53l0x_api.c **** 
1025:Drivers/VL53L0X/core/src/vl53l0x_api.c **** 	LOG_FUNCTION_END(Status);
1026:Drivers/VL53L0X/core/src/vl53l0x_api.c **** 	return Status;
 3052              		.loc 1 1026 9
 3053 0024 97F90F30 		ldrsb	r3, [r7, #15]
1027:Drivers/VL53L0X/core/src/vl53l0x_api.c **** }
 3054              		.loc 1 1027 1
 3055 0028 1846     		mov	r0, r3
 3056 002a 1037     		adds	r7, r7, #16
 3057              		.cfi_def_cfa_offset 8
 3058 002c BD46     		mov	sp, r7
 3059              		.cfi_def_cfa_register 13
 3060              		@ sp needed
 3061 002e 80BD     		pop	{r7, pc}
 3062              		.cfi_endproc
 3063              	.LFE360:
 3065              		.section	.text.VL53L0X_GetVcselPulsePeriod,"ax",%progbits
 3066              		.align	1
 3067              		.global	VL53L0X_GetVcselPulsePeriod
 3068              		.syntax unified
 3069              		.thumb
 3070              		.thumb_func
 3072              	VL53L0X_GetVcselPulsePeriod:
 3073              	.LFB361:
1028:Drivers/VL53L0X/core/src/vl53l0x_api.c **** 
1029:Drivers/VL53L0X/core/src/vl53l0x_api.c **** VL53L0X_Error VL53L0X_GetVcselPulsePeriod(VL53L0X_DEV Dev,
1030:Drivers/VL53L0X/core/src/vl53l0x_api.c **** 	VL53L0X_VcselPeriod VcselPeriodType, uint8_t *pVCSELPulsePeriodPCLK)
1031:Drivers/VL53L0X/core/src/vl53l0x_api.c **** {
 3074              		.loc 1 1031 1
 3075              		.cfi_startproc
 3076              		@ args = 0, pretend = 0, frame = 24
 3077              		@ frame_needed = 1, uses_anonymous_args = 0
 3078 0000 80B5     		push	{r7, lr}
 3079              		.cfi_def_cfa_offset 8
 3080              		.cfi_offset 7, -8
 3081              		.cfi_offset 14, -4
 3082 0002 86B0     		sub	sp, sp, #24
 3083              		.cfi_def_cfa_offset 32
 3084 0004 00AF     		add	r7, sp, #0
 3085              		.cfi_def_cfa_register 7
 3086 0006 F860     		str	r0, [r7, #12]
 3087 0008 0B46     		mov	r3, r1
 3088 000a 7A60     		str	r2, [r7, #4]
 3089 000c FB72     		strb	r3, [r7, #11]
1032:Drivers/VL53L0X/core/src/vl53l0x_api.c **** 	VL53L0X_Error Status = VL53L0X_ERROR_NONE;
 3090              		.loc 1 1032 16
 3091 000e 0023     		movs	r3, #0
 3092 0010 FB75     		strb	r3, [r7, #23]
1033:Drivers/VL53L0X/core/src/vl53l0x_api.c **** 	LOG_FUNCTION_START("");
1034:Drivers/VL53L0X/core/src/vl53l0x_api.c **** 
1035:Drivers/VL53L0X/core/src/vl53l0x_api.c **** 	Status = VL53L0X_get_vcsel_pulse_period(Dev, VcselPeriodType,
 3093              		.loc 1 1035 11
 3094 0012 FB7A     		ldrb	r3, [r7, #11]	@ zero_extendqisi2
 3095 0014 7A68     		ldr	r2, [r7, #4]
 3096 0016 1946     		mov	r1, r3
 3097 0018 F868     		ldr	r0, [r7, #12]
ARM GAS  C:\Users\Morroway\AppData\Local\Temp\ccih4NWY.s 			page 75


 3098 001a FFF7FEFF 		bl	VL53L0X_get_vcsel_pulse_period
 3099 001e 0346     		mov	r3, r0
 3100 0020 FB75     		strb	r3, [r7, #23]
1036:Drivers/VL53L0X/core/src/vl53l0x_api.c **** 		pVCSELPulsePeriodPCLK);
1037:Drivers/VL53L0X/core/src/vl53l0x_api.c **** 
1038:Drivers/VL53L0X/core/src/vl53l0x_api.c **** 	LOG_FUNCTION_END(Status);
1039:Drivers/VL53L0X/core/src/vl53l0x_api.c **** 	return Status;
 3101              		.loc 1 1039 9
 3102 0022 97F91730 		ldrsb	r3, [r7, #23]
1040:Drivers/VL53L0X/core/src/vl53l0x_api.c **** }
 3103              		.loc 1 1040 1
 3104 0026 1846     		mov	r0, r3
 3105 0028 1837     		adds	r7, r7, #24
 3106              		.cfi_def_cfa_offset 8
 3107 002a BD46     		mov	sp, r7
 3108              		.cfi_def_cfa_register 13
 3109              		@ sp needed
 3110 002c 80BD     		pop	{r7, pc}
 3111              		.cfi_endproc
 3112              	.LFE361:
 3114              		.section	.text.VL53L0X_SetSequenceStepEnable,"ax",%progbits
 3115              		.align	1
 3116              		.global	VL53L0X_SetSequenceStepEnable
 3117              		.syntax unified
 3118              		.thumb
 3119              		.thumb_func
 3121              	VL53L0X_SetSequenceStepEnable:
 3122              	.LFB362:
1041:Drivers/VL53L0X/core/src/vl53l0x_api.c **** 
1042:Drivers/VL53L0X/core/src/vl53l0x_api.c **** VL53L0X_Error VL53L0X_SetSequenceStepEnable(VL53L0X_DEV Dev,
1043:Drivers/VL53L0X/core/src/vl53l0x_api.c **** 	VL53L0X_SequenceStepId SequenceStepId, uint8_t SequenceStepEnabled)
1044:Drivers/VL53L0X/core/src/vl53l0x_api.c **** {
 3123              		.loc 1 1044 1
 3124              		.cfi_startproc
 3125              		@ args = 0, pretend = 0, frame = 24
 3126              		@ frame_needed = 1, uses_anonymous_args = 0
 3127 0000 80B5     		push	{r7, lr}
 3128              		.cfi_def_cfa_offset 8
 3129              		.cfi_offset 7, -8
 3130              		.cfi_offset 14, -4
 3131 0002 86B0     		sub	sp, sp, #24
 3132              		.cfi_def_cfa_offset 32
 3133 0004 00AF     		add	r7, sp, #0
 3134              		.cfi_def_cfa_register 7
 3135 0006 7860     		str	r0, [r7, #4]
 3136 0008 0B46     		mov	r3, r1
 3137 000a FB70     		strb	r3, [r7, #3]
 3138 000c 1346     		mov	r3, r2
 3139 000e BB70     		strb	r3, [r7, #2]
1045:Drivers/VL53L0X/core/src/vl53l0x_api.c **** 	VL53L0X_Error Status = VL53L0X_ERROR_NONE;
 3140              		.loc 1 1045 16
 3141 0010 0023     		movs	r3, #0
 3142 0012 FB75     		strb	r3, [r7, #23]
1046:Drivers/VL53L0X/core/src/vl53l0x_api.c **** 	uint8_t SequenceConfig = 0;
 3143              		.loc 1 1046 10
 3144 0014 0023     		movs	r3, #0
 3145 0016 FB73     		strb	r3, [r7, #15]
ARM GAS  C:\Users\Morroway\AppData\Local\Temp\ccih4NWY.s 			page 76


1047:Drivers/VL53L0X/core/src/vl53l0x_api.c **** 	uint8_t SequenceConfigNew = 0;
 3146              		.loc 1 1047 10
 3147 0018 0023     		movs	r3, #0
 3148 001a BB75     		strb	r3, [r7, #22]
1048:Drivers/VL53L0X/core/src/vl53l0x_api.c **** 	uint32_t MeasurementTimingBudgetMicroSeconds;
1049:Drivers/VL53L0X/core/src/vl53l0x_api.c **** 	LOG_FUNCTION_START("");
1050:Drivers/VL53L0X/core/src/vl53l0x_api.c **** 
1051:Drivers/VL53L0X/core/src/vl53l0x_api.c **** 	Status = VL53L0X_RdByte(Dev, VL53L0X_REG_SYSTEM_SEQUENCE_CONFIG,
 3149              		.loc 1 1051 11
 3150 001c 07F10F03 		add	r3, r7, #15
 3151 0020 1A46     		mov	r2, r3
 3152 0022 0121     		movs	r1, #1
 3153 0024 7868     		ldr	r0, [r7, #4]
 3154 0026 FFF7FEFF 		bl	VL53L0X_RdByte
 3155 002a 0346     		mov	r3, r0
 3156 002c FB75     		strb	r3, [r7, #23]
1052:Drivers/VL53L0X/core/src/vl53l0x_api.c **** 		&SequenceConfig);
1053:Drivers/VL53L0X/core/src/vl53l0x_api.c **** 
1054:Drivers/VL53L0X/core/src/vl53l0x_api.c **** 	SequenceConfigNew = SequenceConfig;
 3157              		.loc 1 1054 20
 3158 002e FB7B     		ldrb	r3, [r7, #15]
 3159 0030 BB75     		strb	r3, [r7, #22]
1055:Drivers/VL53L0X/core/src/vl53l0x_api.c **** 
1056:Drivers/VL53L0X/core/src/vl53l0x_api.c **** 	if (Status == VL53L0X_ERROR_NONE) {
 3160              		.loc 1 1056 5
 3161 0032 97F91730 		ldrsb	r3, [r7, #23]
 3162 0036 002B     		cmp	r3, #0
 3163 0038 59D1     		bne	.L177
1057:Drivers/VL53L0X/core/src/vl53l0x_api.c **** 		if (SequenceStepEnabled == 1) {
 3164              		.loc 1 1057 6
 3165 003a BB78     		ldrb	r3, [r7, #2]	@ zero_extendqisi2
 3166 003c 012B     		cmp	r3, #1
 3167 003e 2BD1     		bne	.L178
1058:Drivers/VL53L0X/core/src/vl53l0x_api.c **** 
1059:Drivers/VL53L0X/core/src/vl53l0x_api.c **** 			/* Enable requested sequence step
1060:Drivers/VL53L0X/core/src/vl53l0x_api.c **** 			 */
1061:Drivers/VL53L0X/core/src/vl53l0x_api.c **** 			switch (SequenceStepId) {
 3168              		.loc 1 1061 4
 3169 0040 FB78     		ldrb	r3, [r7, #3]	@ zero_extendqisi2
 3170 0042 042B     		cmp	r3, #4
 3171 0044 25D8     		bhi	.L179
 3172 0046 01A2     		adr	r2, .L181
 3173 0048 52F823F0 		ldr	pc, [r2, r3, lsl #2]
 3174              		.p2align 2
 3175              	.L181:
 3176 004c 61000000 		.word	.L185+1
 3177 0050 6B000000 		.word	.L184+1
 3178 0054 75000000 		.word	.L183+1
 3179 0058 7F000000 		.word	.L182+1
 3180 005c 89000000 		.word	.L180+1
 3181              		.p2align 1
 3182              	.L185:
1062:Drivers/VL53L0X/core/src/vl53l0x_api.c **** 			case VL53L0X_SEQUENCESTEP_TCC:
1063:Drivers/VL53L0X/core/src/vl53l0x_api.c **** 				SequenceConfigNew |= 0x10;
 3183              		.loc 1 1063 23
 3184 0060 BB7D     		ldrb	r3, [r7, #22]
 3185 0062 43F01003 		orr	r3, r3, #16
ARM GAS  C:\Users\Morroway\AppData\Local\Temp\ccih4NWY.s 			page 77


 3186 0066 BB75     		strb	r3, [r7, #22]
1064:Drivers/VL53L0X/core/src/vl53l0x_api.c **** 				break;
 3187              		.loc 1 1064 5
 3188 0068 41E0     		b	.L177
 3189              	.L184:
1065:Drivers/VL53L0X/core/src/vl53l0x_api.c **** 			case VL53L0X_SEQUENCESTEP_DSS:
1066:Drivers/VL53L0X/core/src/vl53l0x_api.c **** 				SequenceConfigNew |= 0x28;
 3190              		.loc 1 1066 23
 3191 006a BB7D     		ldrb	r3, [r7, #22]
 3192 006c 43F02803 		orr	r3, r3, #40
 3193 0070 BB75     		strb	r3, [r7, #22]
1067:Drivers/VL53L0X/core/src/vl53l0x_api.c **** 				break;
 3194              		.loc 1 1067 5
 3195 0072 3CE0     		b	.L177
 3196              	.L183:
1068:Drivers/VL53L0X/core/src/vl53l0x_api.c **** 			case VL53L0X_SEQUENCESTEP_MSRC:
1069:Drivers/VL53L0X/core/src/vl53l0x_api.c **** 				SequenceConfigNew |= 0x04;
 3197              		.loc 1 1069 23
 3198 0074 BB7D     		ldrb	r3, [r7, #22]
 3199 0076 43F00403 		orr	r3, r3, #4
 3200 007a BB75     		strb	r3, [r7, #22]
1070:Drivers/VL53L0X/core/src/vl53l0x_api.c **** 				break;
 3201              		.loc 1 1070 5
 3202 007c 37E0     		b	.L177
 3203              	.L182:
1071:Drivers/VL53L0X/core/src/vl53l0x_api.c **** 			case VL53L0X_SEQUENCESTEP_PRE_RANGE:
1072:Drivers/VL53L0X/core/src/vl53l0x_api.c **** 				SequenceConfigNew |= 0x40;
 3204              		.loc 1 1072 23
 3205 007e BB7D     		ldrb	r3, [r7, #22]
 3206 0080 43F04003 		orr	r3, r3, #64
 3207 0084 BB75     		strb	r3, [r7, #22]
1073:Drivers/VL53L0X/core/src/vl53l0x_api.c **** 				break;
 3208              		.loc 1 1073 5
 3209 0086 32E0     		b	.L177
 3210              	.L180:
1074:Drivers/VL53L0X/core/src/vl53l0x_api.c **** 			case VL53L0X_SEQUENCESTEP_FINAL_RANGE:
1075:Drivers/VL53L0X/core/src/vl53l0x_api.c **** 				SequenceConfigNew |= 0x80;
 3211              		.loc 1 1075 23
 3212 0088 BB7D     		ldrb	r3, [r7, #22]
 3213 008a 63F07F03 		orn	r3, r3, #127
 3214 008e BB75     		strb	r3, [r7, #22]
1076:Drivers/VL53L0X/core/src/vl53l0x_api.c **** 				break;
 3215              		.loc 1 1076 5
 3216 0090 2DE0     		b	.L177
 3217              	.L179:
1077:Drivers/VL53L0X/core/src/vl53l0x_api.c **** 			default:
1078:Drivers/VL53L0X/core/src/vl53l0x_api.c **** 				Status = VL53L0X_ERROR_INVALID_PARAMS;
 3218              		.loc 1 1078 12
 3219 0092 FC23     		movs	r3, #252
 3220 0094 FB75     		strb	r3, [r7, #23]
 3221 0096 2AE0     		b	.L177
 3222              	.L178:
1079:Drivers/VL53L0X/core/src/vl53l0x_api.c **** 			}
1080:Drivers/VL53L0X/core/src/vl53l0x_api.c **** 		} else {
1081:Drivers/VL53L0X/core/src/vl53l0x_api.c **** 			/* Disable requested sequence step
1082:Drivers/VL53L0X/core/src/vl53l0x_api.c **** 			 */
1083:Drivers/VL53L0X/core/src/vl53l0x_api.c **** 			switch (SequenceStepId) {
ARM GAS  C:\Users\Morroway\AppData\Local\Temp\ccih4NWY.s 			page 78


 3223              		.loc 1 1083 4
 3224 0098 FB78     		ldrb	r3, [r7, #3]	@ zero_extendqisi2
 3225 009a 042B     		cmp	r3, #4
 3226 009c 25D8     		bhi	.L187
 3227 009e 01A2     		adr	r2, .L189
 3228 00a0 52F823F0 		ldr	pc, [r2, r3, lsl #2]
 3229              		.p2align 2
 3230              	.L189:
 3231 00a4 B9000000 		.word	.L193+1
 3232 00a8 C3000000 		.word	.L192+1
 3233 00ac CD000000 		.word	.L191+1
 3234 00b0 D7000000 		.word	.L190+1
 3235 00b4 E1000000 		.word	.L188+1
 3236              		.p2align 1
 3237              	.L193:
1084:Drivers/VL53L0X/core/src/vl53l0x_api.c **** 			case VL53L0X_SEQUENCESTEP_TCC:
1085:Drivers/VL53L0X/core/src/vl53l0x_api.c **** 				SequenceConfigNew &= 0xef;
 3238              		.loc 1 1085 23
 3239 00b8 BB7D     		ldrb	r3, [r7, #22]
 3240 00ba 23F01003 		bic	r3, r3, #16
 3241 00be BB75     		strb	r3, [r7, #22]
1086:Drivers/VL53L0X/core/src/vl53l0x_api.c **** 				break;
 3242              		.loc 1 1086 5
 3243 00c0 15E0     		b	.L177
 3244              	.L192:
1087:Drivers/VL53L0X/core/src/vl53l0x_api.c **** 			case VL53L0X_SEQUENCESTEP_DSS:
1088:Drivers/VL53L0X/core/src/vl53l0x_api.c **** 				SequenceConfigNew &= 0xd7;
 3245              		.loc 1 1088 23
 3246 00c2 BB7D     		ldrb	r3, [r7, #22]
 3247 00c4 23F02803 		bic	r3, r3, #40
 3248 00c8 BB75     		strb	r3, [r7, #22]
1089:Drivers/VL53L0X/core/src/vl53l0x_api.c **** 				break;
 3249              		.loc 1 1089 5
 3250 00ca 10E0     		b	.L177
 3251              	.L191:
1090:Drivers/VL53L0X/core/src/vl53l0x_api.c **** 			case VL53L0X_SEQUENCESTEP_MSRC:
1091:Drivers/VL53L0X/core/src/vl53l0x_api.c **** 				SequenceConfigNew &= 0xfb;
 3252              		.loc 1 1091 23
 3253 00cc BB7D     		ldrb	r3, [r7, #22]
 3254 00ce 23F00403 		bic	r3, r3, #4
 3255 00d2 BB75     		strb	r3, [r7, #22]
1092:Drivers/VL53L0X/core/src/vl53l0x_api.c **** 				break;
 3256              		.loc 1 1092 5
 3257 00d4 0BE0     		b	.L177
 3258              	.L190:
1093:Drivers/VL53L0X/core/src/vl53l0x_api.c **** 			case VL53L0X_SEQUENCESTEP_PRE_RANGE:
1094:Drivers/VL53L0X/core/src/vl53l0x_api.c **** 				SequenceConfigNew &= 0xbf;
 3259              		.loc 1 1094 23
 3260 00d6 BB7D     		ldrb	r3, [r7, #22]
 3261 00d8 23F04003 		bic	r3, r3, #64
 3262 00dc BB75     		strb	r3, [r7, #22]
1095:Drivers/VL53L0X/core/src/vl53l0x_api.c **** 				break;
 3263              		.loc 1 1095 5
 3264 00de 06E0     		b	.L177
 3265              	.L188:
1096:Drivers/VL53L0X/core/src/vl53l0x_api.c **** 			case VL53L0X_SEQUENCESTEP_FINAL_RANGE:
1097:Drivers/VL53L0X/core/src/vl53l0x_api.c **** 				SequenceConfigNew &= 0x7f;
ARM GAS  C:\Users\Morroway\AppData\Local\Temp\ccih4NWY.s 			page 79


 3266              		.loc 1 1097 23
 3267 00e0 BB7D     		ldrb	r3, [r7, #22]
 3268 00e2 03F07F03 		and	r3, r3, #127
 3269 00e6 BB75     		strb	r3, [r7, #22]
1098:Drivers/VL53L0X/core/src/vl53l0x_api.c **** 				break;
 3270              		.loc 1 1098 5
 3271 00e8 01E0     		b	.L177
 3272              	.L187:
1099:Drivers/VL53L0X/core/src/vl53l0x_api.c **** 			default:
1100:Drivers/VL53L0X/core/src/vl53l0x_api.c **** 				Status = VL53L0X_ERROR_INVALID_PARAMS;
 3273              		.loc 1 1100 12
 3274 00ea FC23     		movs	r3, #252
 3275 00ec FB75     		strb	r3, [r7, #23]
 3276              	.L177:
1101:Drivers/VL53L0X/core/src/vl53l0x_api.c **** 			}
1102:Drivers/VL53L0X/core/src/vl53l0x_api.c **** 		}
1103:Drivers/VL53L0X/core/src/vl53l0x_api.c **** 	}
1104:Drivers/VL53L0X/core/src/vl53l0x_api.c **** 
1105:Drivers/VL53L0X/core/src/vl53l0x_api.c **** 	if (SequenceConfigNew != SequenceConfig) {
 3277              		.loc 1 1105 24
 3278 00ee FB7B     		ldrb	r3, [r7, #15]	@ zero_extendqisi2
 3279              		.loc 1 1105 5
 3280 00f0 BA7D     		ldrb	r2, [r7, #22]	@ zero_extendqisi2
 3281 00f2 9A42     		cmp	r2, r3
 3282 00f4 1ED0     		beq	.L194
1106:Drivers/VL53L0X/core/src/vl53l0x_api.c **** 		/* Apply New Setting */
1107:Drivers/VL53L0X/core/src/vl53l0x_api.c **** 		if (Status == VL53L0X_ERROR_NONE) {
 3283              		.loc 1 1107 6
 3284 00f6 97F91730 		ldrsb	r3, [r7, #23]
 3285 00fa 002B     		cmp	r3, #0
 3286 00fc 07D1     		bne	.L195
1108:Drivers/VL53L0X/core/src/vl53l0x_api.c **** 			Status = VL53L0X_WrByte(Dev,
 3287              		.loc 1 1108 13
 3288 00fe BB7D     		ldrb	r3, [r7, #22]	@ zero_extendqisi2
 3289 0100 1A46     		mov	r2, r3
 3290 0102 0121     		movs	r1, #1
 3291 0104 7868     		ldr	r0, [r7, #4]
 3292 0106 FFF7FEFF 		bl	VL53L0X_WrByte
 3293 010a 0346     		mov	r3, r0
 3294 010c FB75     		strb	r3, [r7, #23]
 3295              	.L195:
1109:Drivers/VL53L0X/core/src/vl53l0x_api.c **** 			VL53L0X_REG_SYSTEM_SEQUENCE_CONFIG, SequenceConfigNew);
1110:Drivers/VL53L0X/core/src/vl53l0x_api.c **** 		}
1111:Drivers/VL53L0X/core/src/vl53l0x_api.c **** 		if (Status == VL53L0X_ERROR_NONE)
 3296              		.loc 1 1111 6
 3297 010e 97F91730 		ldrsb	r3, [r7, #23]
 3298 0112 002B     		cmp	r3, #0
 3299 0114 03D1     		bne	.L196
1112:Drivers/VL53L0X/core/src/vl53l0x_api.c **** 			PALDevDataSet(Dev, SequenceConfig, SequenceConfigNew);
 3300              		.loc 1 1112 4
 3301 0116 7B68     		ldr	r3, [r7, #4]
 3302 0118 BA7D     		ldrb	r2, [r7, #22]
 3303 011a 83F83021 		strb	r2, [r3, #304]
 3304              	.L196:
1113:Drivers/VL53L0X/core/src/vl53l0x_api.c **** 
1114:Drivers/VL53L0X/core/src/vl53l0x_api.c **** 
1115:Drivers/VL53L0X/core/src/vl53l0x_api.c **** 		/* Recalculate timing budget */
ARM GAS  C:\Users\Morroway\AppData\Local\Temp\ccih4NWY.s 			page 80


1116:Drivers/VL53L0X/core/src/vl53l0x_api.c **** 		if (Status == VL53L0X_ERROR_NONE) {
 3305              		.loc 1 1116 6
 3306 011e 97F91730 		ldrsb	r3, [r7, #23]
 3307 0122 002B     		cmp	r3, #0
 3308 0124 06D1     		bne	.L194
1117:Drivers/VL53L0X/core/src/vl53l0x_api.c **** 			VL53L0X_GETPARAMETERFIELD(Dev,
 3309              		.loc 1 1117 4
 3310 0126 7B68     		ldr	r3, [r7, #4]
 3311 0128 5B69     		ldr	r3, [r3, #20]
 3312 012a 3B61     		str	r3, [r7, #16]
1118:Drivers/VL53L0X/core/src/vl53l0x_api.c **** 				MeasurementTimingBudgetMicroSeconds,
1119:Drivers/VL53L0X/core/src/vl53l0x_api.c **** 				MeasurementTimingBudgetMicroSeconds);
1120:Drivers/VL53L0X/core/src/vl53l0x_api.c **** 
1121:Drivers/VL53L0X/core/src/vl53l0x_api.c **** 			VL53L0X_SetMeasurementTimingBudgetMicroSeconds(Dev,
 3313              		.loc 1 1121 4
 3314 012c 3969     		ldr	r1, [r7, #16]
 3315 012e 7868     		ldr	r0, [r7, #4]
 3316 0130 FFF7FEFF 		bl	VL53L0X_SetMeasurementTimingBudgetMicroSeconds
 3317              	.L194:
1122:Drivers/VL53L0X/core/src/vl53l0x_api.c **** 				MeasurementTimingBudgetMicroSeconds);
1123:Drivers/VL53L0X/core/src/vl53l0x_api.c **** 		}
1124:Drivers/VL53L0X/core/src/vl53l0x_api.c **** 	}
1125:Drivers/VL53L0X/core/src/vl53l0x_api.c **** 
1126:Drivers/VL53L0X/core/src/vl53l0x_api.c **** 	LOG_FUNCTION_END(Status);
1127:Drivers/VL53L0X/core/src/vl53l0x_api.c **** 
1128:Drivers/VL53L0X/core/src/vl53l0x_api.c **** 	return Status;
 3318              		.loc 1 1128 9
 3319 0134 97F91730 		ldrsb	r3, [r7, #23]
1129:Drivers/VL53L0X/core/src/vl53l0x_api.c **** }
 3320              		.loc 1 1129 1
 3321 0138 1846     		mov	r0, r3
 3322 013a 1837     		adds	r7, r7, #24
 3323              		.cfi_def_cfa_offset 8
 3324 013c BD46     		mov	sp, r7
 3325              		.cfi_def_cfa_register 13
 3326              		@ sp needed
 3327 013e 80BD     		pop	{r7, pc}
 3328              		.cfi_endproc
 3329              	.LFE362:
 3331              		.section	.text.sequence_step_enabled,"ax",%progbits
 3332              		.align	1
 3333              		.global	sequence_step_enabled
 3334              		.syntax unified
 3335              		.thumb
 3336              		.thumb_func
 3338              	sequence_step_enabled:
 3339              	.LFB363:
1130:Drivers/VL53L0X/core/src/vl53l0x_api.c **** 
1131:Drivers/VL53L0X/core/src/vl53l0x_api.c **** VL53L0X_Error sequence_step_enabled(VL53L0X_DEV Dev,
1132:Drivers/VL53L0X/core/src/vl53l0x_api.c **** 	VL53L0X_SequenceStepId SequenceStepId, uint8_t SequenceConfig,
1133:Drivers/VL53L0X/core/src/vl53l0x_api.c **** 	uint8_t *pSequenceStepEnabled)
1134:Drivers/VL53L0X/core/src/vl53l0x_api.c **** {
 3340              		.loc 1 1134 1
 3341              		.cfi_startproc
 3342              		@ args = 0, pretend = 0, frame = 24
 3343              		@ frame_needed = 1, uses_anonymous_args = 0
 3344              		@ link register save eliminated.
ARM GAS  C:\Users\Morroway\AppData\Local\Temp\ccih4NWY.s 			page 81


 3345 0000 80B4     		push	{r7}
 3346              		.cfi_def_cfa_offset 4
 3347              		.cfi_offset 7, -4
 3348 0002 87B0     		sub	sp, sp, #28
 3349              		.cfi_def_cfa_offset 32
 3350 0004 00AF     		add	r7, sp, #0
 3351              		.cfi_def_cfa_register 7
 3352 0006 F860     		str	r0, [r7, #12]
 3353 0008 7B60     		str	r3, [r7, #4]
 3354 000a 0B46     		mov	r3, r1
 3355 000c FB72     		strb	r3, [r7, #11]
 3356 000e 1346     		mov	r3, r2
 3357 0010 BB72     		strb	r3, [r7, #10]
1135:Drivers/VL53L0X/core/src/vl53l0x_api.c **** 	VL53L0X_Error Status = VL53L0X_ERROR_NONE;
 3358              		.loc 1 1135 16
 3359 0012 0023     		movs	r3, #0
 3360 0014 FB75     		strb	r3, [r7, #23]
1136:Drivers/VL53L0X/core/src/vl53l0x_api.c **** 	*pSequenceStepEnabled = 0;
 3361              		.loc 1 1136 24
 3362 0016 7B68     		ldr	r3, [r7, #4]
 3363 0018 0022     		movs	r2, #0
 3364 001a 1A70     		strb	r2, [r3]
1137:Drivers/VL53L0X/core/src/vl53l0x_api.c **** 	LOG_FUNCTION_START("");
1138:Drivers/VL53L0X/core/src/vl53l0x_api.c **** 
1139:Drivers/VL53L0X/core/src/vl53l0x_api.c **** 	switch (SequenceStepId) {
 3365              		.loc 1 1139 2
 3366 001c FB7A     		ldrb	r3, [r7, #11]	@ zero_extendqisi2
 3367 001e 042B     		cmp	r3, #4
 3368 0020 36D8     		bhi	.L199
 3369 0022 01A2     		adr	r2, .L201
 3370 0024 52F823F0 		ldr	pc, [r2, r3, lsl #2]
 3371              		.p2align 2
 3372              	.L201:
 3373 0028 3D000000 		.word	.L205+1
 3374 002c 4F000000 		.word	.L204+1
 3375 0030 61000000 		.word	.L203+1
 3376 0034 73000000 		.word	.L202+1
 3377 0038 85000000 		.word	.L200+1
 3378              		.p2align 1
 3379              	.L205:
1140:Drivers/VL53L0X/core/src/vl53l0x_api.c **** 	case VL53L0X_SEQUENCESTEP_TCC:
1141:Drivers/VL53L0X/core/src/vl53l0x_api.c **** 		*pSequenceStepEnabled = (SequenceConfig & 0x10) >> 4;
 3380              		.loc 1 1141 51
 3381 003c BB7A     		ldrb	r3, [r7, #10]	@ zero_extendqisi2
 3382 003e 1B11     		asrs	r3, r3, #4
 3383 0040 DBB2     		uxtb	r3, r3
 3384 0042 03F00103 		and	r3, r3, #1
 3385 0046 DAB2     		uxtb	r2, r3
 3386              		.loc 1 1141 25
 3387 0048 7B68     		ldr	r3, [r7, #4]
 3388 004a 1A70     		strb	r2, [r3]
1142:Drivers/VL53L0X/core/src/vl53l0x_api.c **** 		break;
 3389              		.loc 1 1142 3
 3390 004c 22E0     		b	.L206
 3391              	.L204:
1143:Drivers/VL53L0X/core/src/vl53l0x_api.c **** 	case VL53L0X_SEQUENCESTEP_DSS:
1144:Drivers/VL53L0X/core/src/vl53l0x_api.c **** 		*pSequenceStepEnabled = (SequenceConfig & 0x08) >> 3;
ARM GAS  C:\Users\Morroway\AppData\Local\Temp\ccih4NWY.s 			page 82


 3392              		.loc 1 1144 51
 3393 004e BB7A     		ldrb	r3, [r7, #10]	@ zero_extendqisi2
 3394 0050 DB10     		asrs	r3, r3, #3
 3395 0052 DBB2     		uxtb	r3, r3
 3396 0054 03F00103 		and	r3, r3, #1
 3397 0058 DAB2     		uxtb	r2, r3
 3398              		.loc 1 1144 25
 3399 005a 7B68     		ldr	r3, [r7, #4]
 3400 005c 1A70     		strb	r2, [r3]
1145:Drivers/VL53L0X/core/src/vl53l0x_api.c **** 		break;
 3401              		.loc 1 1145 3
 3402 005e 19E0     		b	.L206
 3403              	.L203:
1146:Drivers/VL53L0X/core/src/vl53l0x_api.c **** 	case VL53L0X_SEQUENCESTEP_MSRC:
1147:Drivers/VL53L0X/core/src/vl53l0x_api.c **** 		*pSequenceStepEnabled = (SequenceConfig & 0x04) >> 2;
 3404              		.loc 1 1147 51
 3405 0060 BB7A     		ldrb	r3, [r7, #10]	@ zero_extendqisi2
 3406 0062 9B10     		asrs	r3, r3, #2
 3407 0064 DBB2     		uxtb	r3, r3
 3408 0066 03F00103 		and	r3, r3, #1
 3409 006a DAB2     		uxtb	r2, r3
 3410              		.loc 1 1147 25
 3411 006c 7B68     		ldr	r3, [r7, #4]
 3412 006e 1A70     		strb	r2, [r3]
1148:Drivers/VL53L0X/core/src/vl53l0x_api.c **** 		break;
 3413              		.loc 1 1148 3
 3414 0070 10E0     		b	.L206
 3415              	.L202:
1149:Drivers/VL53L0X/core/src/vl53l0x_api.c **** 	case VL53L0X_SEQUENCESTEP_PRE_RANGE:
1150:Drivers/VL53L0X/core/src/vl53l0x_api.c **** 		*pSequenceStepEnabled = (SequenceConfig & 0x40) >> 6;
 3416              		.loc 1 1150 51
 3417 0072 BB7A     		ldrb	r3, [r7, #10]	@ zero_extendqisi2
 3418 0074 9B11     		asrs	r3, r3, #6
 3419 0076 DBB2     		uxtb	r3, r3
 3420 0078 03F00103 		and	r3, r3, #1
 3421 007c DAB2     		uxtb	r2, r3
 3422              		.loc 1 1150 25
 3423 007e 7B68     		ldr	r3, [r7, #4]
 3424 0080 1A70     		strb	r2, [r3]
1151:Drivers/VL53L0X/core/src/vl53l0x_api.c **** 		break;
 3425              		.loc 1 1151 3
 3426 0082 07E0     		b	.L206
 3427              	.L200:
1152:Drivers/VL53L0X/core/src/vl53l0x_api.c **** 	case VL53L0X_SEQUENCESTEP_FINAL_RANGE:
1153:Drivers/VL53L0X/core/src/vl53l0x_api.c **** 		*pSequenceStepEnabled = (SequenceConfig & 0x80) >> 7;
 3428              		.loc 1 1153 51
 3429 0084 BB7A     		ldrb	r3, [r7, #10]	@ zero_extendqisi2
 3430 0086 DB09     		lsrs	r3, r3, #7
 3431 0088 DAB2     		uxtb	r2, r3
 3432              		.loc 1 1153 25
 3433 008a 7B68     		ldr	r3, [r7, #4]
 3434 008c 1A70     		strb	r2, [r3]
1154:Drivers/VL53L0X/core/src/vl53l0x_api.c **** 		break;
 3435              		.loc 1 1154 3
 3436 008e 01E0     		b	.L206
 3437              	.L199:
1155:Drivers/VL53L0X/core/src/vl53l0x_api.c **** 	default:
ARM GAS  C:\Users\Morroway\AppData\Local\Temp\ccih4NWY.s 			page 83


1156:Drivers/VL53L0X/core/src/vl53l0x_api.c **** 		Status = VL53L0X_ERROR_INVALID_PARAMS;
 3438              		.loc 1 1156 10
 3439 0090 FC23     		movs	r3, #252
 3440 0092 FB75     		strb	r3, [r7, #23]
 3441              	.L206:
1157:Drivers/VL53L0X/core/src/vl53l0x_api.c **** 	}
1158:Drivers/VL53L0X/core/src/vl53l0x_api.c **** 
1159:Drivers/VL53L0X/core/src/vl53l0x_api.c **** 	LOG_FUNCTION_END(Status);
1160:Drivers/VL53L0X/core/src/vl53l0x_api.c **** 	return Status;
 3442              		.loc 1 1160 9
 3443 0094 97F91730 		ldrsb	r3, [r7, #23]
1161:Drivers/VL53L0X/core/src/vl53l0x_api.c **** }
 3444              		.loc 1 1161 1
 3445 0098 1846     		mov	r0, r3
 3446 009a 1C37     		adds	r7, r7, #28
 3447              		.cfi_def_cfa_offset 4
 3448 009c BD46     		mov	sp, r7
 3449              		.cfi_def_cfa_register 13
 3450              		@ sp needed
 3451 009e 5DF8047B 		ldr	r7, [sp], #4
 3452              		.cfi_restore 7
 3453              		.cfi_def_cfa_offset 0
 3454 00a2 7047     		bx	lr
 3455              		.cfi_endproc
 3456              	.LFE363:
 3458              		.section	.text.VL53L0X_GetSequenceStepEnable,"ax",%progbits
 3459              		.align	1
 3460              		.global	VL53L0X_GetSequenceStepEnable
 3461              		.syntax unified
 3462              		.thumb
 3463              		.thumb_func
 3465              	VL53L0X_GetSequenceStepEnable:
 3466              	.LFB364:
1162:Drivers/VL53L0X/core/src/vl53l0x_api.c **** 
1163:Drivers/VL53L0X/core/src/vl53l0x_api.c **** VL53L0X_Error VL53L0X_GetSequenceStepEnable(VL53L0X_DEV Dev,
1164:Drivers/VL53L0X/core/src/vl53l0x_api.c **** 	VL53L0X_SequenceStepId SequenceStepId, uint8_t *pSequenceStepEnabled)
1165:Drivers/VL53L0X/core/src/vl53l0x_api.c **** {
 3467              		.loc 1 1165 1
 3468              		.cfi_startproc
 3469              		@ args = 0, pretend = 0, frame = 24
 3470              		@ frame_needed = 1, uses_anonymous_args = 0
 3471 0000 80B5     		push	{r7, lr}
 3472              		.cfi_def_cfa_offset 8
 3473              		.cfi_offset 7, -8
 3474              		.cfi_offset 14, -4
 3475 0002 86B0     		sub	sp, sp, #24
 3476              		.cfi_def_cfa_offset 32
 3477 0004 00AF     		add	r7, sp, #0
 3478              		.cfi_def_cfa_register 7
 3479 0006 F860     		str	r0, [r7, #12]
 3480 0008 0B46     		mov	r3, r1
 3481 000a 7A60     		str	r2, [r7, #4]
 3482 000c FB72     		strb	r3, [r7, #11]
1166:Drivers/VL53L0X/core/src/vl53l0x_api.c **** 	VL53L0X_Error Status = VL53L0X_ERROR_NONE;
 3483              		.loc 1 1166 16
 3484 000e 0023     		movs	r3, #0
 3485 0010 FB75     		strb	r3, [r7, #23]
ARM GAS  C:\Users\Morroway\AppData\Local\Temp\ccih4NWY.s 			page 84


1167:Drivers/VL53L0X/core/src/vl53l0x_api.c **** 	uint8_t SequenceConfig = 0;
 3486              		.loc 1 1167 10
 3487 0012 0023     		movs	r3, #0
 3488 0014 BB75     		strb	r3, [r7, #22]
1168:Drivers/VL53L0X/core/src/vl53l0x_api.c **** 	LOG_FUNCTION_START("");
1169:Drivers/VL53L0X/core/src/vl53l0x_api.c **** 
1170:Drivers/VL53L0X/core/src/vl53l0x_api.c **** 	Status = VL53L0X_RdByte(Dev, VL53L0X_REG_SYSTEM_SEQUENCE_CONFIG,
 3489              		.loc 1 1170 11
 3490 0016 07F11603 		add	r3, r7, #22
 3491 001a 1A46     		mov	r2, r3
 3492 001c 0121     		movs	r1, #1
 3493 001e F868     		ldr	r0, [r7, #12]
 3494 0020 FFF7FEFF 		bl	VL53L0X_RdByte
 3495 0024 0346     		mov	r3, r0
 3496 0026 FB75     		strb	r3, [r7, #23]
1171:Drivers/VL53L0X/core/src/vl53l0x_api.c **** 		&SequenceConfig);
1172:Drivers/VL53L0X/core/src/vl53l0x_api.c **** 
1173:Drivers/VL53L0X/core/src/vl53l0x_api.c **** 	if (Status == VL53L0X_ERROR_NONE) {
 3497              		.loc 1 1173 5
 3498 0028 97F91730 		ldrsb	r3, [r7, #23]
 3499 002c 002B     		cmp	r3, #0
 3500 002e 07D1     		bne	.L209
1174:Drivers/VL53L0X/core/src/vl53l0x_api.c **** 		Status = sequence_step_enabled(Dev, SequenceStepId,
 3501              		.loc 1 1174 12
 3502 0030 BA7D     		ldrb	r2, [r7, #22]	@ zero_extendqisi2
 3503 0032 F97A     		ldrb	r1, [r7, #11]	@ zero_extendqisi2
 3504 0034 7B68     		ldr	r3, [r7, #4]
 3505 0036 F868     		ldr	r0, [r7, #12]
 3506 0038 FFF7FEFF 		bl	sequence_step_enabled
 3507 003c 0346     		mov	r3, r0
 3508 003e FB75     		strb	r3, [r7, #23]
 3509              	.L209:
1175:Drivers/VL53L0X/core/src/vl53l0x_api.c **** 			SequenceConfig, pSequenceStepEnabled);
1176:Drivers/VL53L0X/core/src/vl53l0x_api.c **** 	}
1177:Drivers/VL53L0X/core/src/vl53l0x_api.c **** 
1178:Drivers/VL53L0X/core/src/vl53l0x_api.c **** 	LOG_FUNCTION_END(Status);
1179:Drivers/VL53L0X/core/src/vl53l0x_api.c **** 	return Status;
 3510              		.loc 1 1179 9
 3511 0040 97F91730 		ldrsb	r3, [r7, #23]
1180:Drivers/VL53L0X/core/src/vl53l0x_api.c **** }
 3512              		.loc 1 1180 1
 3513 0044 1846     		mov	r0, r3
 3514 0046 1837     		adds	r7, r7, #24
 3515              		.cfi_def_cfa_offset 8
 3516 0048 BD46     		mov	sp, r7
 3517              		.cfi_def_cfa_register 13
 3518              		@ sp needed
 3519 004a 80BD     		pop	{r7, pc}
 3520              		.cfi_endproc
 3521              	.LFE364:
 3523              		.section	.text.VL53L0X_GetSequenceStepEnables,"ax",%progbits
 3524              		.align	1
 3525              		.global	VL53L0X_GetSequenceStepEnables
 3526              		.syntax unified
 3527              		.thumb
 3528              		.thumb_func
 3530              	VL53L0X_GetSequenceStepEnables:
ARM GAS  C:\Users\Morroway\AppData\Local\Temp\ccih4NWY.s 			page 85


 3531              	.LFB365:
1181:Drivers/VL53L0X/core/src/vl53l0x_api.c **** 
1182:Drivers/VL53L0X/core/src/vl53l0x_api.c **** VL53L0X_Error VL53L0X_GetSequenceStepEnables(VL53L0X_DEV Dev,
1183:Drivers/VL53L0X/core/src/vl53l0x_api.c **** 	VL53L0X_SchedulerSequenceSteps_t *pSchedulerSequenceSteps)
1184:Drivers/VL53L0X/core/src/vl53l0x_api.c **** {
 3532              		.loc 1 1184 1
 3533              		.cfi_startproc
 3534              		@ args = 0, pretend = 0, frame = 16
 3535              		@ frame_needed = 1, uses_anonymous_args = 0
 3536 0000 80B5     		push	{r7, lr}
 3537              		.cfi_def_cfa_offset 8
 3538              		.cfi_offset 7, -8
 3539              		.cfi_offset 14, -4
 3540 0002 84B0     		sub	sp, sp, #16
 3541              		.cfi_def_cfa_offset 24
 3542 0004 00AF     		add	r7, sp, #0
 3543              		.cfi_def_cfa_register 7
 3544 0006 7860     		str	r0, [r7, #4]
 3545 0008 3960     		str	r1, [r7]
1185:Drivers/VL53L0X/core/src/vl53l0x_api.c **** 	VL53L0X_Error Status = VL53L0X_ERROR_NONE;
 3546              		.loc 1 1185 16
 3547 000a 0023     		movs	r3, #0
 3548 000c FB73     		strb	r3, [r7, #15]
1186:Drivers/VL53L0X/core/src/vl53l0x_api.c **** 	uint8_t SequenceConfig = 0;
 3549              		.loc 1 1186 10
 3550 000e 0023     		movs	r3, #0
 3551 0010 BB73     		strb	r3, [r7, #14]
1187:Drivers/VL53L0X/core/src/vl53l0x_api.c **** 	LOG_FUNCTION_START("");
1188:Drivers/VL53L0X/core/src/vl53l0x_api.c **** 
1189:Drivers/VL53L0X/core/src/vl53l0x_api.c **** 	Status = VL53L0X_RdByte(Dev, VL53L0X_REG_SYSTEM_SEQUENCE_CONFIG,
 3552              		.loc 1 1189 11
 3553 0012 07F10E03 		add	r3, r7, #14
 3554 0016 1A46     		mov	r2, r3
 3555 0018 0121     		movs	r1, #1
 3556 001a 7868     		ldr	r0, [r7, #4]
 3557 001c FFF7FEFF 		bl	VL53L0X_RdByte
 3558 0020 0346     		mov	r3, r0
 3559 0022 FB73     		strb	r3, [r7, #15]
1190:Drivers/VL53L0X/core/src/vl53l0x_api.c **** 		&SequenceConfig);
1191:Drivers/VL53L0X/core/src/vl53l0x_api.c **** 
1192:Drivers/VL53L0X/core/src/vl53l0x_api.c **** 	if (Status == VL53L0X_ERROR_NONE) {
 3560              		.loc 1 1192 5
 3561 0024 97F90F30 		ldrsb	r3, [r7, #15]
 3562 0028 002B     		cmp	r3, #0
 3563 002a 07D1     		bne	.L212
1193:Drivers/VL53L0X/core/src/vl53l0x_api.c **** 		Status = sequence_step_enabled(Dev,
 3564              		.loc 1 1193 12
 3565 002c BA7B     		ldrb	r2, [r7, #14]	@ zero_extendqisi2
 3566 002e 3B68     		ldr	r3, [r7]
 3567 0030 0021     		movs	r1, #0
 3568 0032 7868     		ldr	r0, [r7, #4]
 3569 0034 FFF7FEFF 		bl	sequence_step_enabled
 3570 0038 0346     		mov	r3, r0
 3571 003a FB73     		strb	r3, [r7, #15]
 3572              	.L212:
1194:Drivers/VL53L0X/core/src/vl53l0x_api.c **** 		VL53L0X_SEQUENCESTEP_TCC, SequenceConfig,
1195:Drivers/VL53L0X/core/src/vl53l0x_api.c **** 			&pSchedulerSequenceSteps->TccOn);
ARM GAS  C:\Users\Morroway\AppData\Local\Temp\ccih4NWY.s 			page 86


1196:Drivers/VL53L0X/core/src/vl53l0x_api.c **** 	}
1197:Drivers/VL53L0X/core/src/vl53l0x_api.c **** 	if (Status == VL53L0X_ERROR_NONE) {
 3573              		.loc 1 1197 5
 3574 003c 97F90F30 		ldrsb	r3, [r7, #15]
 3575 0040 002B     		cmp	r3, #0
 3576 0042 08D1     		bne	.L213
1198:Drivers/VL53L0X/core/src/vl53l0x_api.c **** 		Status = sequence_step_enabled(Dev,
 3577              		.loc 1 1198 12
 3578 0044 BA7B     		ldrb	r2, [r7, #14]	@ zero_extendqisi2
 3579 0046 3B68     		ldr	r3, [r7]
 3580 0048 0233     		adds	r3, r3, #2
 3581 004a 0121     		movs	r1, #1
 3582 004c 7868     		ldr	r0, [r7, #4]
 3583 004e FFF7FEFF 		bl	sequence_step_enabled
 3584 0052 0346     		mov	r3, r0
 3585 0054 FB73     		strb	r3, [r7, #15]
 3586              	.L213:
1199:Drivers/VL53L0X/core/src/vl53l0x_api.c **** 		VL53L0X_SEQUENCESTEP_DSS, SequenceConfig,
1200:Drivers/VL53L0X/core/src/vl53l0x_api.c **** 			&pSchedulerSequenceSteps->DssOn);
1201:Drivers/VL53L0X/core/src/vl53l0x_api.c **** 	}
1202:Drivers/VL53L0X/core/src/vl53l0x_api.c **** 	if (Status == VL53L0X_ERROR_NONE) {
 3587              		.loc 1 1202 5
 3588 0056 97F90F30 		ldrsb	r3, [r7, #15]
 3589 005a 002B     		cmp	r3, #0
 3590 005c 08D1     		bne	.L214
1203:Drivers/VL53L0X/core/src/vl53l0x_api.c **** 		Status = sequence_step_enabled(Dev,
 3591              		.loc 1 1203 12
 3592 005e BA7B     		ldrb	r2, [r7, #14]	@ zero_extendqisi2
 3593 0060 3B68     		ldr	r3, [r7]
 3594 0062 0133     		adds	r3, r3, #1
 3595 0064 0221     		movs	r1, #2
 3596 0066 7868     		ldr	r0, [r7, #4]
 3597 0068 FFF7FEFF 		bl	sequence_step_enabled
 3598 006c 0346     		mov	r3, r0
 3599 006e FB73     		strb	r3, [r7, #15]
 3600              	.L214:
1204:Drivers/VL53L0X/core/src/vl53l0x_api.c **** 		VL53L0X_SEQUENCESTEP_MSRC, SequenceConfig,
1205:Drivers/VL53L0X/core/src/vl53l0x_api.c **** 			&pSchedulerSequenceSteps->MsrcOn);
1206:Drivers/VL53L0X/core/src/vl53l0x_api.c **** 	}
1207:Drivers/VL53L0X/core/src/vl53l0x_api.c **** 	if (Status == VL53L0X_ERROR_NONE) {
 3601              		.loc 1 1207 5
 3602 0070 97F90F30 		ldrsb	r3, [r7, #15]
 3603 0074 002B     		cmp	r3, #0
 3604 0076 08D1     		bne	.L215
1208:Drivers/VL53L0X/core/src/vl53l0x_api.c **** 		Status = sequence_step_enabled(Dev,
 3605              		.loc 1 1208 12
 3606 0078 BA7B     		ldrb	r2, [r7, #14]	@ zero_extendqisi2
 3607 007a 3B68     		ldr	r3, [r7]
 3608 007c 0333     		adds	r3, r3, #3
 3609 007e 0321     		movs	r1, #3
 3610 0080 7868     		ldr	r0, [r7, #4]
 3611 0082 FFF7FEFF 		bl	sequence_step_enabled
 3612 0086 0346     		mov	r3, r0
 3613 0088 FB73     		strb	r3, [r7, #15]
 3614              	.L215:
1209:Drivers/VL53L0X/core/src/vl53l0x_api.c **** 		VL53L0X_SEQUENCESTEP_PRE_RANGE, SequenceConfig,
1210:Drivers/VL53L0X/core/src/vl53l0x_api.c **** 			&pSchedulerSequenceSteps->PreRangeOn);
ARM GAS  C:\Users\Morroway\AppData\Local\Temp\ccih4NWY.s 			page 87


1211:Drivers/VL53L0X/core/src/vl53l0x_api.c **** 	}
1212:Drivers/VL53L0X/core/src/vl53l0x_api.c **** 	if (Status == VL53L0X_ERROR_NONE) {
 3615              		.loc 1 1212 5
 3616 008a 97F90F30 		ldrsb	r3, [r7, #15]
 3617 008e 002B     		cmp	r3, #0
 3618 0090 08D1     		bne	.L216
1213:Drivers/VL53L0X/core/src/vl53l0x_api.c **** 		Status = sequence_step_enabled(Dev,
 3619              		.loc 1 1213 12
 3620 0092 BA7B     		ldrb	r2, [r7, #14]	@ zero_extendqisi2
 3621 0094 3B68     		ldr	r3, [r7]
 3622 0096 0433     		adds	r3, r3, #4
 3623 0098 0421     		movs	r1, #4
 3624 009a 7868     		ldr	r0, [r7, #4]
 3625 009c FFF7FEFF 		bl	sequence_step_enabled
 3626 00a0 0346     		mov	r3, r0
 3627 00a2 FB73     		strb	r3, [r7, #15]
 3628              	.L216:
1214:Drivers/VL53L0X/core/src/vl53l0x_api.c **** 		VL53L0X_SEQUENCESTEP_FINAL_RANGE, SequenceConfig,
1215:Drivers/VL53L0X/core/src/vl53l0x_api.c **** 			&pSchedulerSequenceSteps->FinalRangeOn);
1216:Drivers/VL53L0X/core/src/vl53l0x_api.c **** 	}
1217:Drivers/VL53L0X/core/src/vl53l0x_api.c **** 
1218:Drivers/VL53L0X/core/src/vl53l0x_api.c **** 	LOG_FUNCTION_END(Status);
1219:Drivers/VL53L0X/core/src/vl53l0x_api.c **** 	return Status;
 3629              		.loc 1 1219 9
 3630 00a4 97F90F30 		ldrsb	r3, [r7, #15]
1220:Drivers/VL53L0X/core/src/vl53l0x_api.c **** }
 3631              		.loc 1 1220 1
 3632 00a8 1846     		mov	r0, r3
 3633 00aa 1037     		adds	r7, r7, #16
 3634              		.cfi_def_cfa_offset 8
 3635 00ac BD46     		mov	sp, r7
 3636              		.cfi_def_cfa_register 13
 3637              		@ sp needed
 3638 00ae 80BD     		pop	{r7, pc}
 3639              		.cfi_endproc
 3640              	.LFE365:
 3642              		.section	.text.VL53L0X_GetNumberOfSequenceSteps,"ax",%progbits
 3643              		.align	1
 3644              		.global	VL53L0X_GetNumberOfSequenceSteps
 3645              		.syntax unified
 3646              		.thumb
 3647              		.thumb_func
 3649              	VL53L0X_GetNumberOfSequenceSteps:
 3650              	.LFB366:
1221:Drivers/VL53L0X/core/src/vl53l0x_api.c **** 
1222:Drivers/VL53L0X/core/src/vl53l0x_api.c **** VL53L0X_Error VL53L0X_GetNumberOfSequenceSteps(VL53L0X_DEV Dev,
1223:Drivers/VL53L0X/core/src/vl53l0x_api.c **** 	uint8_t *pNumberOfSequenceSteps)
1224:Drivers/VL53L0X/core/src/vl53l0x_api.c **** {
 3651              		.loc 1 1224 1
 3652              		.cfi_startproc
 3653              		@ args = 0, pretend = 0, frame = 16
 3654              		@ frame_needed = 1, uses_anonymous_args = 0
 3655              		@ link register save eliminated.
 3656 0000 80B4     		push	{r7}
 3657              		.cfi_def_cfa_offset 4
 3658              		.cfi_offset 7, -4
 3659 0002 85B0     		sub	sp, sp, #20
ARM GAS  C:\Users\Morroway\AppData\Local\Temp\ccih4NWY.s 			page 88


 3660              		.cfi_def_cfa_offset 24
 3661 0004 00AF     		add	r7, sp, #0
 3662              		.cfi_def_cfa_register 7
 3663 0006 7860     		str	r0, [r7, #4]
 3664 0008 3960     		str	r1, [r7]
1225:Drivers/VL53L0X/core/src/vl53l0x_api.c **** 	VL53L0X_Error Status = VL53L0X_ERROR_NONE;
 3665              		.loc 1 1225 16
 3666 000a 0023     		movs	r3, #0
 3667 000c FB73     		strb	r3, [r7, #15]
1226:Drivers/VL53L0X/core/src/vl53l0x_api.c **** 	LOG_FUNCTION_START("");
1227:Drivers/VL53L0X/core/src/vl53l0x_api.c **** 
1228:Drivers/VL53L0X/core/src/vl53l0x_api.c **** 	*pNumberOfSequenceSteps = VL53L0X_SEQUENCESTEP_NUMBER_OF_CHECKS;
 3668              		.loc 1 1228 26
 3669 000e 3B68     		ldr	r3, [r7]
 3670 0010 0522     		movs	r2, #5
 3671 0012 1A70     		strb	r2, [r3]
1229:Drivers/VL53L0X/core/src/vl53l0x_api.c **** 
1230:Drivers/VL53L0X/core/src/vl53l0x_api.c **** 	LOG_FUNCTION_END(Status);
1231:Drivers/VL53L0X/core/src/vl53l0x_api.c **** 	return Status;
 3672              		.loc 1 1231 9
 3673 0014 97F90F30 		ldrsb	r3, [r7, #15]
1232:Drivers/VL53L0X/core/src/vl53l0x_api.c **** }
 3674              		.loc 1 1232 1
 3675 0018 1846     		mov	r0, r3
 3676 001a 1437     		adds	r7, r7, #20
 3677              		.cfi_def_cfa_offset 4
 3678 001c BD46     		mov	sp, r7
 3679              		.cfi_def_cfa_register 13
 3680              		@ sp needed
 3681 001e 5DF8047B 		ldr	r7, [sp], #4
 3682              		.cfi_restore 7
 3683              		.cfi_def_cfa_offset 0
 3684 0022 7047     		bx	lr
 3685              		.cfi_endproc
 3686              	.LFE366:
 3688              		.section	.text.VL53L0X_GetSequenceStepsInfo,"ax",%progbits
 3689              		.align	1
 3690              		.global	VL53L0X_GetSequenceStepsInfo
 3691              		.syntax unified
 3692              		.thumb
 3693              		.thumb_func
 3695              	VL53L0X_GetSequenceStepsInfo:
 3696              	.LFB367:
1233:Drivers/VL53L0X/core/src/vl53l0x_api.c **** 
1234:Drivers/VL53L0X/core/src/vl53l0x_api.c **** VL53L0X_Error VL53L0X_GetSequenceStepsInfo(VL53L0X_SequenceStepId SequenceStepId,
1235:Drivers/VL53L0X/core/src/vl53l0x_api.c **** 	char *pSequenceStepsString)
1236:Drivers/VL53L0X/core/src/vl53l0x_api.c **** {
 3697              		.loc 1 1236 1
 3698              		.cfi_startproc
 3699              		@ args = 0, pretend = 0, frame = 16
 3700              		@ frame_needed = 1, uses_anonymous_args = 0
 3701 0000 80B5     		push	{r7, lr}
 3702              		.cfi_def_cfa_offset 8
 3703              		.cfi_offset 7, -8
 3704              		.cfi_offset 14, -4
 3705 0002 84B0     		sub	sp, sp, #16
 3706              		.cfi_def_cfa_offset 24
ARM GAS  C:\Users\Morroway\AppData\Local\Temp\ccih4NWY.s 			page 89


 3707 0004 00AF     		add	r7, sp, #0
 3708              		.cfi_def_cfa_register 7
 3709 0006 0346     		mov	r3, r0
 3710 0008 3960     		str	r1, [r7]
 3711 000a FB71     		strb	r3, [r7, #7]
1237:Drivers/VL53L0X/core/src/vl53l0x_api.c **** 	VL53L0X_Error Status = VL53L0X_ERROR_NONE;
 3712              		.loc 1 1237 16
 3713 000c 0023     		movs	r3, #0
 3714 000e FB73     		strb	r3, [r7, #15]
1238:Drivers/VL53L0X/core/src/vl53l0x_api.c **** 	LOG_FUNCTION_START("");
1239:Drivers/VL53L0X/core/src/vl53l0x_api.c **** 
1240:Drivers/VL53L0X/core/src/vl53l0x_api.c **** 	Status = VL53L0X_get_sequence_steps_info(
 3715              		.loc 1 1240 11
 3716 0010 FB79     		ldrb	r3, [r7, #7]	@ zero_extendqisi2
 3717 0012 3968     		ldr	r1, [r7]
 3718 0014 1846     		mov	r0, r3
 3719 0016 FFF7FEFF 		bl	VL53L0X_get_sequence_steps_info
 3720 001a 0346     		mov	r3, r0
 3721 001c FB73     		strb	r3, [r7, #15]
1241:Drivers/VL53L0X/core/src/vl53l0x_api.c **** 			SequenceStepId,
1242:Drivers/VL53L0X/core/src/vl53l0x_api.c **** 			pSequenceStepsString);
1243:Drivers/VL53L0X/core/src/vl53l0x_api.c **** 
1244:Drivers/VL53L0X/core/src/vl53l0x_api.c **** 	LOG_FUNCTION_END(Status);
1245:Drivers/VL53L0X/core/src/vl53l0x_api.c **** 
1246:Drivers/VL53L0X/core/src/vl53l0x_api.c **** 	return Status;
 3722              		.loc 1 1246 9
 3723 001e 97F90F30 		ldrsb	r3, [r7, #15]
1247:Drivers/VL53L0X/core/src/vl53l0x_api.c **** }
 3724              		.loc 1 1247 1
 3725 0022 1846     		mov	r0, r3
 3726 0024 1037     		adds	r7, r7, #16
 3727              		.cfi_def_cfa_offset 8
 3728 0026 BD46     		mov	sp, r7
 3729              		.cfi_def_cfa_register 13
 3730              		@ sp needed
 3731 0028 80BD     		pop	{r7, pc}
 3732              		.cfi_endproc
 3733              	.LFE367:
 3735              		.section	.text.VL53L0X_SetSequenceStepTimeout,"ax",%progbits
 3736              		.align	1
 3737              		.global	VL53L0X_SetSequenceStepTimeout
 3738              		.syntax unified
 3739              		.thumb
 3740              		.thumb_func
 3742              	VL53L0X_SetSequenceStepTimeout:
 3743              	.LFB368:
1248:Drivers/VL53L0X/core/src/vl53l0x_api.c **** 
1249:Drivers/VL53L0X/core/src/vl53l0x_api.c **** VL53L0X_Error VL53L0X_SetSequenceStepTimeout(VL53L0X_DEV Dev,
1250:Drivers/VL53L0X/core/src/vl53l0x_api.c **** 	VL53L0X_SequenceStepId SequenceStepId, FixPoint1616_t TimeOutMilliSecs)
1251:Drivers/VL53L0X/core/src/vl53l0x_api.c **** {
 3744              		.loc 1 1251 1
 3745              		.cfi_startproc
 3746              		@ args = 0, pretend = 0, frame = 32
 3747              		@ frame_needed = 1, uses_anonymous_args = 0
 3748 0000 80B5     		push	{r7, lr}
 3749              		.cfi_def_cfa_offset 8
 3750              		.cfi_offset 7, -8
ARM GAS  C:\Users\Morroway\AppData\Local\Temp\ccih4NWY.s 			page 90


 3751              		.cfi_offset 14, -4
 3752 0002 88B0     		sub	sp, sp, #32
 3753              		.cfi_def_cfa_offset 40
 3754 0004 00AF     		add	r7, sp, #0
 3755              		.cfi_def_cfa_register 7
 3756 0006 F860     		str	r0, [r7, #12]
 3757 0008 0B46     		mov	r3, r1
 3758 000a 7A60     		str	r2, [r7, #4]
 3759 000c FB72     		strb	r3, [r7, #11]
1252:Drivers/VL53L0X/core/src/vl53l0x_api.c **** 	VL53L0X_Error Status = VL53L0X_ERROR_NONE;
 3760              		.loc 1 1252 16
 3761 000e 0023     		movs	r3, #0
 3762 0010 FB77     		strb	r3, [r7, #31]
1253:Drivers/VL53L0X/core/src/vl53l0x_api.c **** 	VL53L0X_Error Status1 = VL53L0X_ERROR_NONE;
 3763              		.loc 1 1253 16
 3764 0012 0023     		movs	r3, #0
 3765 0014 BB77     		strb	r3, [r7, #30]
1254:Drivers/VL53L0X/core/src/vl53l0x_api.c **** 	uint32_t TimeoutMicroSeconds = ((TimeOutMilliSecs * 1000) + 0x8000)
 3766              		.loc 1 1254 52
 3767 0016 7B68     		ldr	r3, [r7, #4]
 3768 0018 4FF47A72 		mov	r2, #1000
 3769 001c 02FB03F3 		mul	r3, r2, r3
 3770              		.loc 1 1254 60
 3771 0020 03F50043 		add	r3, r3, #32768
 3772              		.loc 1 1254 11
 3773 0024 1B0C     		lsrs	r3, r3, #16
 3774 0026 BB61     		str	r3, [r7, #24]
1255:Drivers/VL53L0X/core/src/vl53l0x_api.c **** 		>> 16;
1256:Drivers/VL53L0X/core/src/vl53l0x_api.c **** 	uint32_t MeasurementTimingBudgetMicroSeconds;
1257:Drivers/VL53L0X/core/src/vl53l0x_api.c **** 	FixPoint1616_t OldTimeOutMicroSeconds;
1258:Drivers/VL53L0X/core/src/vl53l0x_api.c **** 
1259:Drivers/VL53L0X/core/src/vl53l0x_api.c **** 	LOG_FUNCTION_START("");
1260:Drivers/VL53L0X/core/src/vl53l0x_api.c **** 
1261:Drivers/VL53L0X/core/src/vl53l0x_api.c **** 	/* Read back the current value in case we need to revert back to this.
1262:Drivers/VL53L0X/core/src/vl53l0x_api.c **** 	 */
1263:Drivers/VL53L0X/core/src/vl53l0x_api.c **** 	Status = get_sequence_step_timeout(Dev, SequenceStepId,
 3775              		.loc 1 1263 11
 3776 0028 07F11002 		add	r2, r7, #16
 3777 002c FB7A     		ldrb	r3, [r7, #11]	@ zero_extendqisi2
 3778 002e 1946     		mov	r1, r3
 3779 0030 F868     		ldr	r0, [r7, #12]
 3780 0032 FFF7FEFF 		bl	get_sequence_step_timeout
 3781 0036 0346     		mov	r3, r0
 3782 0038 FB77     		strb	r3, [r7, #31]
1264:Drivers/VL53L0X/core/src/vl53l0x_api.c **** 		&OldTimeOutMicroSeconds);
1265:Drivers/VL53L0X/core/src/vl53l0x_api.c **** 
1266:Drivers/VL53L0X/core/src/vl53l0x_api.c **** 	if (Status == VL53L0X_ERROR_NONE) {
 3783              		.loc 1 1266 5
 3784 003a 97F91F30 		ldrsb	r3, [r7, #31]
 3785 003e 002B     		cmp	r3, #0
 3786 0040 07D1     		bne	.L223
1267:Drivers/VL53L0X/core/src/vl53l0x_api.c **** 		Status = set_sequence_step_timeout(Dev, SequenceStepId,
 3787              		.loc 1 1267 12
 3788 0042 FB7A     		ldrb	r3, [r7, #11]	@ zero_extendqisi2
 3789 0044 BA69     		ldr	r2, [r7, #24]
 3790 0046 1946     		mov	r1, r3
 3791 0048 F868     		ldr	r0, [r7, #12]
ARM GAS  C:\Users\Morroway\AppData\Local\Temp\ccih4NWY.s 			page 91


 3792 004a FFF7FEFF 		bl	set_sequence_step_timeout
 3793 004e 0346     		mov	r3, r0
 3794 0050 FB77     		strb	r3, [r7, #31]
 3795              	.L223:
1268:Drivers/VL53L0X/core/src/vl53l0x_api.c **** 			TimeoutMicroSeconds);
1269:Drivers/VL53L0X/core/src/vl53l0x_api.c **** 	}
1270:Drivers/VL53L0X/core/src/vl53l0x_api.c **** 
1271:Drivers/VL53L0X/core/src/vl53l0x_api.c **** 	if (Status == VL53L0X_ERROR_NONE) {
 3796              		.loc 1 1271 5
 3797 0052 97F91F30 		ldrsb	r3, [r7, #31]
 3798 0056 002B     		cmp	r3, #0
 3799 0058 20D1     		bne	.L224
1272:Drivers/VL53L0X/core/src/vl53l0x_api.c **** 		VL53L0X_GETPARAMETERFIELD(Dev,
 3800              		.loc 1 1272 3
 3801 005a FB68     		ldr	r3, [r7, #12]
 3802 005c 5B69     		ldr	r3, [r3, #20]
 3803 005e 7B61     		str	r3, [r7, #20]
1273:Drivers/VL53L0X/core/src/vl53l0x_api.c **** 			MeasurementTimingBudgetMicroSeconds,
1274:Drivers/VL53L0X/core/src/vl53l0x_api.c **** 			MeasurementTimingBudgetMicroSeconds);
1275:Drivers/VL53L0X/core/src/vl53l0x_api.c **** 
1276:Drivers/VL53L0X/core/src/vl53l0x_api.c **** 		/* At this point we don't know if the requested value is valid,
1277:Drivers/VL53L0X/core/src/vl53l0x_api.c **** 		 therefore proceed to update the entire timing budget and
1278:Drivers/VL53L0X/core/src/vl53l0x_api.c **** 		 if this fails, revert back to the previous value.
1279:Drivers/VL53L0X/core/src/vl53l0x_api.c **** 		 */
1280:Drivers/VL53L0X/core/src/vl53l0x_api.c **** 		Status = VL53L0X_SetMeasurementTimingBudgetMicroSeconds(Dev,
 3804              		.loc 1 1280 12
 3805 0060 7969     		ldr	r1, [r7, #20]
 3806 0062 F868     		ldr	r0, [r7, #12]
 3807 0064 FFF7FEFF 		bl	VL53L0X_SetMeasurementTimingBudgetMicroSeconds
 3808 0068 0346     		mov	r3, r0
 3809 006a FB77     		strb	r3, [r7, #31]
1281:Drivers/VL53L0X/core/src/vl53l0x_api.c **** 			MeasurementTimingBudgetMicroSeconds);
1282:Drivers/VL53L0X/core/src/vl53l0x_api.c **** 
1283:Drivers/VL53L0X/core/src/vl53l0x_api.c **** 		if (Status != VL53L0X_ERROR_NONE) {
 3810              		.loc 1 1283 6
 3811 006c 97F91F30 		ldrsb	r3, [r7, #31]
 3812 0070 002B     		cmp	r3, #0
 3813 0072 13D0     		beq	.L224
1284:Drivers/VL53L0X/core/src/vl53l0x_api.c **** 			Status1 = set_sequence_step_timeout(Dev, SequenceStepId,
 3814              		.loc 1 1284 14
 3815 0074 3A69     		ldr	r2, [r7, #16]
 3816 0076 FB7A     		ldrb	r3, [r7, #11]	@ zero_extendqisi2
 3817 0078 1946     		mov	r1, r3
 3818 007a F868     		ldr	r0, [r7, #12]
 3819 007c FFF7FEFF 		bl	set_sequence_step_timeout
 3820 0080 0346     		mov	r3, r0
 3821 0082 BB77     		strb	r3, [r7, #30]
1285:Drivers/VL53L0X/core/src/vl53l0x_api.c **** 				OldTimeOutMicroSeconds);
1286:Drivers/VL53L0X/core/src/vl53l0x_api.c **** 
1287:Drivers/VL53L0X/core/src/vl53l0x_api.c **** 			if (Status1 == VL53L0X_ERROR_NONE) {
 3822              		.loc 1 1287 7
 3823 0084 97F91E30 		ldrsb	r3, [r7, #30]
 3824 0088 002B     		cmp	r3, #0
 3825 008a 05D1     		bne	.L225
1288:Drivers/VL53L0X/core/src/vl53l0x_api.c **** 				Status1 =
1289:Drivers/VL53L0X/core/src/vl53l0x_api.c **** 				VL53L0X_SetMeasurementTimingBudgetMicroSeconds(
 3826              		.loc 1 1289 5
ARM GAS  C:\Users\Morroway\AppData\Local\Temp\ccih4NWY.s 			page 92


 3827 008c 7969     		ldr	r1, [r7, #20]
 3828 008e F868     		ldr	r0, [r7, #12]
 3829 0090 FFF7FEFF 		bl	VL53L0X_SetMeasurementTimingBudgetMicroSeconds
 3830 0094 0346     		mov	r3, r0
 3831 0096 BB77     		strb	r3, [r7, #30]
 3832              	.L225:
1290:Drivers/VL53L0X/core/src/vl53l0x_api.c **** 					Dev,
1291:Drivers/VL53L0X/core/src/vl53l0x_api.c **** 					MeasurementTimingBudgetMicroSeconds);
1292:Drivers/VL53L0X/core/src/vl53l0x_api.c **** 			}
1293:Drivers/VL53L0X/core/src/vl53l0x_api.c **** 
1294:Drivers/VL53L0X/core/src/vl53l0x_api.c **** 			Status = Status1;
 3833              		.loc 1 1294 11
 3834 0098 BB7F     		ldrb	r3, [r7, #30]
 3835 009a FB77     		strb	r3, [r7, #31]
 3836              	.L224:
1295:Drivers/VL53L0X/core/src/vl53l0x_api.c **** 		}
1296:Drivers/VL53L0X/core/src/vl53l0x_api.c **** 	}
1297:Drivers/VL53L0X/core/src/vl53l0x_api.c **** 
1298:Drivers/VL53L0X/core/src/vl53l0x_api.c **** 	LOG_FUNCTION_END(Status);
1299:Drivers/VL53L0X/core/src/vl53l0x_api.c **** 
1300:Drivers/VL53L0X/core/src/vl53l0x_api.c **** 	return Status;
 3837              		.loc 1 1300 9
 3838 009c 97F91F30 		ldrsb	r3, [r7, #31]
1301:Drivers/VL53L0X/core/src/vl53l0x_api.c **** }
 3839              		.loc 1 1301 1
 3840 00a0 1846     		mov	r0, r3
 3841 00a2 2037     		adds	r7, r7, #32
 3842              		.cfi_def_cfa_offset 8
 3843 00a4 BD46     		mov	sp, r7
 3844              		.cfi_def_cfa_register 13
 3845              		@ sp needed
 3846 00a6 80BD     		pop	{r7, pc}
 3847              		.cfi_endproc
 3848              	.LFE368:
 3850              		.section	.text.VL53L0X_GetSequenceStepTimeout,"ax",%progbits
 3851              		.align	1
 3852              		.global	VL53L0X_GetSequenceStepTimeout
 3853              		.syntax unified
 3854              		.thumb
 3855              		.thumb_func
 3857              	VL53L0X_GetSequenceStepTimeout:
 3858              	.LFB369:
1302:Drivers/VL53L0X/core/src/vl53l0x_api.c **** 
1303:Drivers/VL53L0X/core/src/vl53l0x_api.c **** VL53L0X_Error VL53L0X_GetSequenceStepTimeout(VL53L0X_DEV Dev,
1304:Drivers/VL53L0X/core/src/vl53l0x_api.c **** 	VL53L0X_SequenceStepId SequenceStepId, FixPoint1616_t *pTimeOutMilliSecs)
1305:Drivers/VL53L0X/core/src/vl53l0x_api.c **** {
 3859              		.loc 1 1305 1
 3860              		.cfi_startproc
 3861              		@ args = 0, pretend = 0, frame = 24
 3862              		@ frame_needed = 1, uses_anonymous_args = 0
 3863 0000 80B5     		push	{r7, lr}
 3864              		.cfi_def_cfa_offset 8
 3865              		.cfi_offset 7, -8
 3866              		.cfi_offset 14, -4
 3867 0002 86B0     		sub	sp, sp, #24
 3868              		.cfi_def_cfa_offset 32
 3869 0004 00AF     		add	r7, sp, #0
ARM GAS  C:\Users\Morroway\AppData\Local\Temp\ccih4NWY.s 			page 93


 3870              		.cfi_def_cfa_register 7
 3871 0006 F860     		str	r0, [r7, #12]
 3872 0008 0B46     		mov	r3, r1
 3873 000a 7A60     		str	r2, [r7, #4]
 3874 000c FB72     		strb	r3, [r7, #11]
1306:Drivers/VL53L0X/core/src/vl53l0x_api.c **** 	VL53L0X_Error Status = VL53L0X_ERROR_NONE;
 3875              		.loc 1 1306 16
 3876 000e 0023     		movs	r3, #0
 3877 0010 FB75     		strb	r3, [r7, #23]
1307:Drivers/VL53L0X/core/src/vl53l0x_api.c **** 	uint32_t TimeoutMicroSeconds;
1308:Drivers/VL53L0X/core/src/vl53l0x_api.c **** 	LOG_FUNCTION_START("");
1309:Drivers/VL53L0X/core/src/vl53l0x_api.c **** 
1310:Drivers/VL53L0X/core/src/vl53l0x_api.c **** 	Status = get_sequence_step_timeout(Dev, SequenceStepId,
 3878              		.loc 1 1310 11
 3879 0012 07F11002 		add	r2, r7, #16
 3880 0016 FB7A     		ldrb	r3, [r7, #11]	@ zero_extendqisi2
 3881 0018 1946     		mov	r1, r3
 3882 001a F868     		ldr	r0, [r7, #12]
 3883 001c FFF7FEFF 		bl	get_sequence_step_timeout
 3884 0020 0346     		mov	r3, r0
 3885 0022 FB75     		strb	r3, [r7, #23]
1311:Drivers/VL53L0X/core/src/vl53l0x_api.c **** 		&TimeoutMicroSeconds);
1312:Drivers/VL53L0X/core/src/vl53l0x_api.c **** 	if (Status == VL53L0X_ERROR_NONE) {
 3886              		.loc 1 1312 5
 3887 0024 97F91730 		ldrsb	r3, [r7, #23]
 3888 0028 002B     		cmp	r3, #0
 3889 002a 10D1     		bne	.L228
1313:Drivers/VL53L0X/core/src/vl53l0x_api.c **** 		TimeoutMicroSeconds <<= 8;
 3890              		.loc 1 1313 23
 3891 002c 3B69     		ldr	r3, [r7, #16]
 3892 002e 1B02     		lsls	r3, r3, #8
 3893 0030 3B61     		str	r3, [r7, #16]
1314:Drivers/VL53L0X/core/src/vl53l0x_api.c **** 		*pTimeOutMilliSecs = (TimeoutMicroSeconds + 500)/1000;
 3894              		.loc 1 1314 45
 3895 0032 3B69     		ldr	r3, [r7, #16]
 3896 0034 03F5FA73 		add	r3, r3, #500
 3897              		.loc 1 1314 51
 3898 0038 084A     		ldr	r2, .L230
 3899 003a A2FB0323 		umull	r2, r3, r2, r3
 3900 003e 9A09     		lsrs	r2, r3, #6
 3901              		.loc 1 1314 22
 3902 0040 7B68     		ldr	r3, [r7, #4]
 3903 0042 1A60     		str	r2, [r3]
1315:Drivers/VL53L0X/core/src/vl53l0x_api.c **** 		*pTimeOutMilliSecs <<= 8;
 3904              		.loc 1 1315 22
 3905 0044 7B68     		ldr	r3, [r7, #4]
 3906 0046 1B68     		ldr	r3, [r3]
 3907 0048 1A02     		lsls	r2, r3, #8
 3908 004a 7B68     		ldr	r3, [r7, #4]
 3909 004c 1A60     		str	r2, [r3]
 3910              	.L228:
1316:Drivers/VL53L0X/core/src/vl53l0x_api.c **** 	}
1317:Drivers/VL53L0X/core/src/vl53l0x_api.c **** 
1318:Drivers/VL53L0X/core/src/vl53l0x_api.c **** 	LOG_FUNCTION_END(Status);
1319:Drivers/VL53L0X/core/src/vl53l0x_api.c **** 	return Status;
 3911              		.loc 1 1319 9
 3912 004e 97F91730 		ldrsb	r3, [r7, #23]
ARM GAS  C:\Users\Morroway\AppData\Local\Temp\ccih4NWY.s 			page 94


1320:Drivers/VL53L0X/core/src/vl53l0x_api.c **** }
 3913              		.loc 1 1320 1
 3914 0052 1846     		mov	r0, r3
 3915 0054 1837     		adds	r7, r7, #24
 3916              		.cfi_def_cfa_offset 8
 3917 0056 BD46     		mov	sp, r7
 3918              		.cfi_def_cfa_register 13
 3919              		@ sp needed
 3920 0058 80BD     		pop	{r7, pc}
 3921              	.L231:
 3922 005a 00BF     		.align	2
 3923              	.L230:
 3924 005c D34D6210 		.word	274877907
 3925              		.cfi_endproc
 3926              	.LFE369:
 3928              		.section	.text.VL53L0X_SetInterMeasurementPeriodMilliSeconds,"ax",%progbits
 3929              		.align	1
 3930              		.global	VL53L0X_SetInterMeasurementPeriodMilliSeconds
 3931              		.syntax unified
 3932              		.thumb
 3933              		.thumb_func
 3935              	VL53L0X_SetInterMeasurementPeriodMilliSeconds:
 3936              	.LFB370:
1321:Drivers/VL53L0X/core/src/vl53l0x_api.c **** 
1322:Drivers/VL53L0X/core/src/vl53l0x_api.c **** VL53L0X_Error VL53L0X_SetInterMeasurementPeriodMilliSeconds(VL53L0X_DEV Dev,
1323:Drivers/VL53L0X/core/src/vl53l0x_api.c **** 	uint32_t InterMeasurementPeriodMilliSeconds)
1324:Drivers/VL53L0X/core/src/vl53l0x_api.c **** {
 3937              		.loc 1 1324 1
 3938              		.cfi_startproc
 3939              		@ args = 0, pretend = 0, frame = 24
 3940              		@ frame_needed = 1, uses_anonymous_args = 0
 3941 0000 80B5     		push	{r7, lr}
 3942              		.cfi_def_cfa_offset 8
 3943              		.cfi_offset 7, -8
 3944              		.cfi_offset 14, -4
 3945 0002 86B0     		sub	sp, sp, #24
 3946              		.cfi_def_cfa_offset 32
 3947 0004 00AF     		add	r7, sp, #0
 3948              		.cfi_def_cfa_register 7
 3949 0006 7860     		str	r0, [r7, #4]
 3950 0008 3960     		str	r1, [r7]
1325:Drivers/VL53L0X/core/src/vl53l0x_api.c **** 	VL53L0X_Error Status = VL53L0X_ERROR_NONE;
 3951              		.loc 1 1325 16
 3952 000a 0023     		movs	r3, #0
 3953 000c FB75     		strb	r3, [r7, #23]
1326:Drivers/VL53L0X/core/src/vl53l0x_api.c **** 	uint16_t osc_calibrate_val;
1327:Drivers/VL53L0X/core/src/vl53l0x_api.c **** 	uint32_t IMPeriodMilliSeconds;
1328:Drivers/VL53L0X/core/src/vl53l0x_api.c **** 
1329:Drivers/VL53L0X/core/src/vl53l0x_api.c **** 	LOG_FUNCTION_START("");
1330:Drivers/VL53L0X/core/src/vl53l0x_api.c **** 
1331:Drivers/VL53L0X/core/src/vl53l0x_api.c **** 	Status = VL53L0X_RdWord(Dev, VL53L0X_REG_OSC_CALIBRATE_VAL,
 3954              		.loc 1 1331 11
 3955 000e 07F10E03 		add	r3, r7, #14
 3956 0012 1A46     		mov	r2, r3
 3957 0014 F821     		movs	r1, #248
 3958 0016 7868     		ldr	r0, [r7, #4]
 3959 0018 FFF7FEFF 		bl	VL53L0X_RdWord
ARM GAS  C:\Users\Morroway\AppData\Local\Temp\ccih4NWY.s 			page 95


 3960 001c 0346     		mov	r3, r0
 3961 001e FB75     		strb	r3, [r7, #23]
1332:Drivers/VL53L0X/core/src/vl53l0x_api.c **** 		&osc_calibrate_val);
1333:Drivers/VL53L0X/core/src/vl53l0x_api.c **** 
1334:Drivers/VL53L0X/core/src/vl53l0x_api.c **** 	if (Status == VL53L0X_ERROR_NONE) {
 3962              		.loc 1 1334 5
 3963 0020 97F91730 		ldrsb	r3, [r7, #23]
 3964 0024 002B     		cmp	r3, #0
 3965 0026 12D1     		bne	.L233
1335:Drivers/VL53L0X/core/src/vl53l0x_api.c **** 		if (osc_calibrate_val != 0) {
 3966              		.loc 1 1335 25
 3967 0028 FB89     		ldrh	r3, [r7, #14]
 3968              		.loc 1 1335 6
 3969 002a 002B     		cmp	r3, #0
 3970 002c 06D0     		beq	.L234
1336:Drivers/VL53L0X/core/src/vl53l0x_api.c **** 			IMPeriodMilliSeconds =
1337:Drivers/VL53L0X/core/src/vl53l0x_api.c **** 				InterMeasurementPeriodMilliSeconds
1338:Drivers/VL53L0X/core/src/vl53l0x_api.c **** 					* osc_calibrate_val;
 3971              		.loc 1 1338 6
 3972 002e FB89     		ldrh	r3, [r7, #14]
 3973 0030 1A46     		mov	r2, r3
1336:Drivers/VL53L0X/core/src/vl53l0x_api.c **** 			IMPeriodMilliSeconds =
 3974              		.loc 1 1336 25
 3975 0032 3B68     		ldr	r3, [r7]
 3976 0034 02FB03F3 		mul	r3, r2, r3
 3977 0038 3B61     		str	r3, [r7, #16]
 3978 003a 01E0     		b	.L235
 3979              	.L234:
1339:Drivers/VL53L0X/core/src/vl53l0x_api.c **** 		} else {
1340:Drivers/VL53L0X/core/src/vl53l0x_api.c **** 			IMPeriodMilliSeconds =
 3980              		.loc 1 1340 25
 3981 003c 3B68     		ldr	r3, [r7]
 3982 003e 3B61     		str	r3, [r7, #16]
 3983              	.L235:
1341:Drivers/VL53L0X/core/src/vl53l0x_api.c **** 				InterMeasurementPeriodMilliSeconds;
1342:Drivers/VL53L0X/core/src/vl53l0x_api.c **** 		}
1343:Drivers/VL53L0X/core/src/vl53l0x_api.c **** 		Status = VL53L0X_WrDWord(Dev,
 3984              		.loc 1 1343 12
 3985 0040 3A69     		ldr	r2, [r7, #16]
 3986 0042 0421     		movs	r1, #4
 3987 0044 7868     		ldr	r0, [r7, #4]
 3988 0046 FFF7FEFF 		bl	VL53L0X_WrDWord
 3989 004a 0346     		mov	r3, r0
 3990 004c FB75     		strb	r3, [r7, #23]
 3991              	.L233:
1344:Drivers/VL53L0X/core/src/vl53l0x_api.c **** 		VL53L0X_REG_SYSTEM_INTERMEASUREMENT_PERIOD,
1345:Drivers/VL53L0X/core/src/vl53l0x_api.c **** 			IMPeriodMilliSeconds);
1346:Drivers/VL53L0X/core/src/vl53l0x_api.c **** 	}
1347:Drivers/VL53L0X/core/src/vl53l0x_api.c **** 
1348:Drivers/VL53L0X/core/src/vl53l0x_api.c **** 	if (Status == VL53L0X_ERROR_NONE) {
 3992              		.loc 1 1348 5
 3993 004e 97F91730 		ldrsb	r3, [r7, #23]
 3994 0052 002B     		cmp	r3, #0
 3995 0054 02D1     		bne	.L236
1349:Drivers/VL53L0X/core/src/vl53l0x_api.c **** 		VL53L0X_SETPARAMETERFIELD(Dev,
 3996              		.loc 1 1349 3
 3997 0056 7B68     		ldr	r3, [r7, #4]
ARM GAS  C:\Users\Morroway\AppData\Local\Temp\ccih4NWY.s 			page 96


 3998 0058 3A68     		ldr	r2, [r7]
 3999 005a 9A61     		str	r2, [r3, #24]
 4000              	.L236:
1350:Drivers/VL53L0X/core/src/vl53l0x_api.c **** 			InterMeasurementPeriodMilliSeconds,
1351:Drivers/VL53L0X/core/src/vl53l0x_api.c **** 			InterMeasurementPeriodMilliSeconds);
1352:Drivers/VL53L0X/core/src/vl53l0x_api.c **** 	}
1353:Drivers/VL53L0X/core/src/vl53l0x_api.c **** 
1354:Drivers/VL53L0X/core/src/vl53l0x_api.c **** 	LOG_FUNCTION_END(Status);
1355:Drivers/VL53L0X/core/src/vl53l0x_api.c **** 	return Status;
 4001              		.loc 1 1355 9
 4002 005c 97F91730 		ldrsb	r3, [r7, #23]
1356:Drivers/VL53L0X/core/src/vl53l0x_api.c **** }
 4003              		.loc 1 1356 1
 4004 0060 1846     		mov	r0, r3
 4005 0062 1837     		adds	r7, r7, #24
 4006              		.cfi_def_cfa_offset 8
 4007 0064 BD46     		mov	sp, r7
 4008              		.cfi_def_cfa_register 13
 4009              		@ sp needed
 4010 0066 80BD     		pop	{r7, pc}
 4011              		.cfi_endproc
 4012              	.LFE370:
 4014              		.section	.text.VL53L0X_GetInterMeasurementPeriodMilliSeconds,"ax",%progbits
 4015              		.align	1
 4016              		.global	VL53L0X_GetInterMeasurementPeriodMilliSeconds
 4017              		.syntax unified
 4018              		.thumb
 4019              		.thumb_func
 4021              	VL53L0X_GetInterMeasurementPeriodMilliSeconds:
 4022              	.LFB371:
1357:Drivers/VL53L0X/core/src/vl53l0x_api.c **** 
1358:Drivers/VL53L0X/core/src/vl53l0x_api.c **** VL53L0X_Error VL53L0X_GetInterMeasurementPeriodMilliSeconds(VL53L0X_DEV Dev,
1359:Drivers/VL53L0X/core/src/vl53l0x_api.c **** 	uint32_t *pInterMeasurementPeriodMilliSeconds)
1360:Drivers/VL53L0X/core/src/vl53l0x_api.c **** {
 4023              		.loc 1 1360 1
 4024              		.cfi_startproc
 4025              		@ args = 0, pretend = 0, frame = 16
 4026              		@ frame_needed = 1, uses_anonymous_args = 0
 4027 0000 80B5     		push	{r7, lr}
 4028              		.cfi_def_cfa_offset 8
 4029              		.cfi_offset 7, -8
 4030              		.cfi_offset 14, -4
 4031 0002 84B0     		sub	sp, sp, #16
 4032              		.cfi_def_cfa_offset 24
 4033 0004 00AF     		add	r7, sp, #0
 4034              		.cfi_def_cfa_register 7
 4035 0006 7860     		str	r0, [r7, #4]
 4036 0008 3960     		str	r1, [r7]
1361:Drivers/VL53L0X/core/src/vl53l0x_api.c **** 	VL53L0X_Error Status = VL53L0X_ERROR_NONE;
 4037              		.loc 1 1361 16
 4038 000a 0023     		movs	r3, #0
 4039 000c FB73     		strb	r3, [r7, #15]
1362:Drivers/VL53L0X/core/src/vl53l0x_api.c **** 	uint16_t osc_calibrate_val;
1363:Drivers/VL53L0X/core/src/vl53l0x_api.c **** 	uint32_t IMPeriodMilliSeconds;
1364:Drivers/VL53L0X/core/src/vl53l0x_api.c **** 
1365:Drivers/VL53L0X/core/src/vl53l0x_api.c **** 	LOG_FUNCTION_START("");
1366:Drivers/VL53L0X/core/src/vl53l0x_api.c **** 
ARM GAS  C:\Users\Morroway\AppData\Local\Temp\ccih4NWY.s 			page 97


1367:Drivers/VL53L0X/core/src/vl53l0x_api.c **** 	Status = VL53L0X_RdWord(Dev, VL53L0X_REG_OSC_CALIBRATE_VAL,
 4040              		.loc 1 1367 11
 4041 000e 07F10C03 		add	r3, r7, #12
 4042 0012 1A46     		mov	r2, r3
 4043 0014 F821     		movs	r1, #248
 4044 0016 7868     		ldr	r0, [r7, #4]
 4045 0018 FFF7FEFF 		bl	VL53L0X_RdWord
 4046 001c 0346     		mov	r3, r0
 4047 001e FB73     		strb	r3, [r7, #15]
1368:Drivers/VL53L0X/core/src/vl53l0x_api.c **** 		&osc_calibrate_val);
1369:Drivers/VL53L0X/core/src/vl53l0x_api.c **** 
1370:Drivers/VL53L0X/core/src/vl53l0x_api.c **** 	if (Status == VL53L0X_ERROR_NONE) {
 4048              		.loc 1 1370 5
 4049 0020 97F90F30 		ldrsb	r3, [r7, #15]
 4050 0024 002B     		cmp	r3, #0
 4051 0026 08D1     		bne	.L239
1371:Drivers/VL53L0X/core/src/vl53l0x_api.c **** 		Status = VL53L0X_RdDWord(Dev,
 4052              		.loc 1 1371 12
 4053 0028 07F10803 		add	r3, r7, #8
 4054 002c 1A46     		mov	r2, r3
 4055 002e 0421     		movs	r1, #4
 4056 0030 7868     		ldr	r0, [r7, #4]
 4057 0032 FFF7FEFF 		bl	VL53L0X_RdDWord
 4058 0036 0346     		mov	r3, r0
 4059 0038 FB73     		strb	r3, [r7, #15]
 4060              	.L239:
1372:Drivers/VL53L0X/core/src/vl53l0x_api.c **** 		VL53L0X_REG_SYSTEM_INTERMEASUREMENT_PERIOD,
1373:Drivers/VL53L0X/core/src/vl53l0x_api.c **** 			&IMPeriodMilliSeconds);
1374:Drivers/VL53L0X/core/src/vl53l0x_api.c **** 	}
1375:Drivers/VL53L0X/core/src/vl53l0x_api.c **** 
1376:Drivers/VL53L0X/core/src/vl53l0x_api.c **** 	if (Status == VL53L0X_ERROR_NONE) {
 4061              		.loc 1 1376 5
 4062 003a 97F90F30 		ldrsb	r3, [r7, #15]
 4063 003e 002B     		cmp	r3, #0
 4064 0040 0CD1     		bne	.L240
1377:Drivers/VL53L0X/core/src/vl53l0x_api.c **** 		if (osc_calibrate_val != 0) {
 4065              		.loc 1 1377 25
 4066 0042 BB89     		ldrh	r3, [r7, #12]
 4067              		.loc 1 1377 6
 4068 0044 002B     		cmp	r3, #0
 4069 0046 05D0     		beq	.L241
1378:Drivers/VL53L0X/core/src/vl53l0x_api.c **** 			*pInterMeasurementPeriodMilliSeconds =
1379:Drivers/VL53L0X/core/src/vl53l0x_api.c **** 				IMPeriodMilliSeconds / osc_calibrate_val;
 4070              		.loc 1 1379 26
 4071 0048 BB68     		ldr	r3, [r7, #8]
 4072 004a BA89     		ldrh	r2, [r7, #12]
 4073 004c B3FBF2F2 		udiv	r2, r3, r2
1378:Drivers/VL53L0X/core/src/vl53l0x_api.c **** 			*pInterMeasurementPeriodMilliSeconds =
 4074              		.loc 1 1378 41
 4075 0050 3B68     		ldr	r3, [r7]
 4076 0052 1A60     		str	r2, [r3]
 4077              	.L241:
1380:Drivers/VL53L0X/core/src/vl53l0x_api.c **** 		}
1381:Drivers/VL53L0X/core/src/vl53l0x_api.c **** 		VL53L0X_SETPARAMETERFIELD(Dev,
 4078              		.loc 1 1381 3
 4079 0054 3B68     		ldr	r3, [r7]
 4080 0056 1A68     		ldr	r2, [r3]
ARM GAS  C:\Users\Morroway\AppData\Local\Temp\ccih4NWY.s 			page 98


 4081 0058 7B68     		ldr	r3, [r7, #4]
 4082 005a 9A61     		str	r2, [r3, #24]
 4083              	.L240:
1382:Drivers/VL53L0X/core/src/vl53l0x_api.c **** 			InterMeasurementPeriodMilliSeconds,
1383:Drivers/VL53L0X/core/src/vl53l0x_api.c **** 			*pInterMeasurementPeriodMilliSeconds);
1384:Drivers/VL53L0X/core/src/vl53l0x_api.c **** 	}
1385:Drivers/VL53L0X/core/src/vl53l0x_api.c **** 
1386:Drivers/VL53L0X/core/src/vl53l0x_api.c **** 	LOG_FUNCTION_END(Status);
1387:Drivers/VL53L0X/core/src/vl53l0x_api.c **** 	return Status;
 4084              		.loc 1 1387 9
 4085 005c 97F90F30 		ldrsb	r3, [r7, #15]
1388:Drivers/VL53L0X/core/src/vl53l0x_api.c **** }
 4086              		.loc 1 1388 1
 4087 0060 1846     		mov	r0, r3
 4088 0062 1037     		adds	r7, r7, #16
 4089              		.cfi_def_cfa_offset 8
 4090 0064 BD46     		mov	sp, r7
 4091              		.cfi_def_cfa_register 13
 4092              		@ sp needed
 4093 0066 80BD     		pop	{r7, pc}
 4094              		.cfi_endproc
 4095              	.LFE371:
 4097              		.section	.text.VL53L0X_SetXTalkCompensationEnable,"ax",%progbits
 4098              		.align	1
 4099              		.global	VL53L0X_SetXTalkCompensationEnable
 4100              		.syntax unified
 4101              		.thumb
 4102              		.thumb_func
 4104              	VL53L0X_SetXTalkCompensationEnable:
 4105              	.LFB372:
1389:Drivers/VL53L0X/core/src/vl53l0x_api.c **** 
1390:Drivers/VL53L0X/core/src/vl53l0x_api.c **** VL53L0X_Error VL53L0X_SetXTalkCompensationEnable(VL53L0X_DEV Dev,
1391:Drivers/VL53L0X/core/src/vl53l0x_api.c **** 	uint8_t XTalkCompensationEnable)
1392:Drivers/VL53L0X/core/src/vl53l0x_api.c **** {
 4106              		.loc 1 1392 1
 4107              		.cfi_startproc
 4108              		@ args = 0, pretend = 0, frame = 16
 4109              		@ frame_needed = 1, uses_anonymous_args = 0
 4110 0000 80B5     		push	{r7, lr}
 4111              		.cfi_def_cfa_offset 8
 4112              		.cfi_offset 7, -8
 4113              		.cfi_offset 14, -4
 4114 0002 84B0     		sub	sp, sp, #16
 4115              		.cfi_def_cfa_offset 24
 4116 0004 00AF     		add	r7, sp, #0
 4117              		.cfi_def_cfa_register 7
 4118 0006 7860     		str	r0, [r7, #4]
 4119 0008 0B46     		mov	r3, r1
 4120 000a FB70     		strb	r3, [r7, #3]
1393:Drivers/VL53L0X/core/src/vl53l0x_api.c **** 	VL53L0X_Error Status = VL53L0X_ERROR_NONE;
 4121              		.loc 1 1393 16
 4122 000c 0023     		movs	r3, #0
 4123 000e FB72     		strb	r3, [r7, #11]
1394:Drivers/VL53L0X/core/src/vl53l0x_api.c **** 	FixPoint1616_t TempFix1616;
1395:Drivers/VL53L0X/core/src/vl53l0x_api.c **** 	uint16_t LinearityCorrectiveGain;
1396:Drivers/VL53L0X/core/src/vl53l0x_api.c **** 
1397:Drivers/VL53L0X/core/src/vl53l0x_api.c **** 	LOG_FUNCTION_START("");
ARM GAS  C:\Users\Morroway\AppData\Local\Temp\ccih4NWY.s 			page 99


1398:Drivers/VL53L0X/core/src/vl53l0x_api.c **** 
1399:Drivers/VL53L0X/core/src/vl53l0x_api.c **** 	LinearityCorrectiveGain = PALDevDataGet(Dev, LinearityCorrectiveGain);
 4124              		.loc 1 1399 26
 4125 0010 7B68     		ldr	r3, [r7, #4]
 4126 0012 B3F85231 		ldrh	r3, [r3, #338]	@ movhi
 4127 0016 3B81     		strh	r3, [r7, #8]	@ movhi
1400:Drivers/VL53L0X/core/src/vl53l0x_api.c **** 
1401:Drivers/VL53L0X/core/src/vl53l0x_api.c **** 	if ((XTalkCompensationEnable == 0)
 4128              		.loc 1 1401 5
 4129 0018 FB78     		ldrb	r3, [r7, #3]	@ zero_extendqisi2
 4130 001a 002B     		cmp	r3, #0
 4131 001c 03D0     		beq	.L244
1402:Drivers/VL53L0X/core/src/vl53l0x_api.c **** 		|| (LinearityCorrectiveGain != 1000)) {
 4132              		.loc 1 1402 3
 4133 001e 3B89     		ldrh	r3, [r7, #8]
 4134 0020 B3F57A7F 		cmp	r3, #1000
 4135 0024 02D0     		beq	.L245
 4136              	.L244:
1403:Drivers/VL53L0X/core/src/vl53l0x_api.c **** 		TempFix1616 = 0;
 4137              		.loc 1 1403 15
 4138 0026 0023     		movs	r3, #0
 4139 0028 FB60     		str	r3, [r7, #12]
 4140 002a 02E0     		b	.L246
 4141              	.L245:
1404:Drivers/VL53L0X/core/src/vl53l0x_api.c **** 	} else {
1405:Drivers/VL53L0X/core/src/vl53l0x_api.c **** 		VL53L0X_GETPARAMETERFIELD(Dev, XTalkCompensationRateMegaCps,
 4142              		.loc 1 1405 3
 4143 002c 7B68     		ldr	r3, [r7, #4]
 4144 002e 1B6A     		ldr	r3, [r3, #32]
 4145 0030 FB60     		str	r3, [r7, #12]
 4146              	.L246:
1406:Drivers/VL53L0X/core/src/vl53l0x_api.c **** 			TempFix1616);
1407:Drivers/VL53L0X/core/src/vl53l0x_api.c **** 	}
1408:Drivers/VL53L0X/core/src/vl53l0x_api.c **** 
1409:Drivers/VL53L0X/core/src/vl53l0x_api.c **** 	/* the following register has a format 3.13 */
1410:Drivers/VL53L0X/core/src/vl53l0x_api.c **** 	Status = VL53L0X_WrWord(Dev,
1411:Drivers/VL53L0X/core/src/vl53l0x_api.c **** 	VL53L0X_REG_CROSSTALK_COMPENSATION_PEAK_RATE_MCPS,
1412:Drivers/VL53L0X/core/src/vl53l0x_api.c **** 		VL53L0X_FIXPOINT1616TOFIXPOINT313(TempFix1616));
 4147              		.loc 1 1412 3
 4148 0032 FB68     		ldr	r3, [r7, #12]
 4149 0034 DB08     		lsrs	r3, r3, #3
1410:Drivers/VL53L0X/core/src/vl53l0x_api.c **** 	VL53L0X_REG_CROSSTALK_COMPENSATION_PEAK_RATE_MCPS,
 4150              		.loc 1 1410 11
 4151 0036 9BB2     		uxth	r3, r3
 4152 0038 1A46     		mov	r2, r3
 4153 003a 2021     		movs	r1, #32
 4154 003c 7868     		ldr	r0, [r7, #4]
 4155 003e FFF7FEFF 		bl	VL53L0X_WrWord
 4156 0042 0346     		mov	r3, r0
 4157 0044 FB72     		strb	r3, [r7, #11]
1413:Drivers/VL53L0X/core/src/vl53l0x_api.c **** 
1414:Drivers/VL53L0X/core/src/vl53l0x_api.c **** 	if (Status == VL53L0X_ERROR_NONE) {
 4158              		.loc 1 1414 5
 4159 0046 97F90B30 		ldrsb	r3, [r7, #11]
 4160 004a 002B     		cmp	r3, #0
 4161 004c 09D1     		bne	.L247
1415:Drivers/VL53L0X/core/src/vl53l0x_api.c **** 		if (XTalkCompensationEnable == 0) {
ARM GAS  C:\Users\Morroway\AppData\Local\Temp\ccih4NWY.s 			page 100


 4162              		.loc 1 1415 6
 4163 004e FB78     		ldrb	r3, [r7, #3]	@ zero_extendqisi2
 4164 0050 002B     		cmp	r3, #0
 4165 0052 03D1     		bne	.L248
1416:Drivers/VL53L0X/core/src/vl53l0x_api.c **** 			VL53L0X_SETPARAMETERFIELD(Dev, XTalkCompensationEnable,
 4166              		.loc 1 1416 4
 4167 0054 7B68     		ldr	r3, [r7, #4]
 4168 0056 0022     		movs	r2, #0
 4169 0058 1A77     		strb	r2, [r3, #28]
 4170 005a 02E0     		b	.L247
 4171              	.L248:
1417:Drivers/VL53L0X/core/src/vl53l0x_api.c **** 				0);
1418:Drivers/VL53L0X/core/src/vl53l0x_api.c **** 		} else {
1419:Drivers/VL53L0X/core/src/vl53l0x_api.c **** 			VL53L0X_SETPARAMETERFIELD(Dev, XTalkCompensationEnable,
 4172              		.loc 1 1419 4
 4173 005c 7B68     		ldr	r3, [r7, #4]
 4174 005e 0122     		movs	r2, #1
 4175 0060 1A77     		strb	r2, [r3, #28]
 4176              	.L247:
1420:Drivers/VL53L0X/core/src/vl53l0x_api.c **** 				1);
1421:Drivers/VL53L0X/core/src/vl53l0x_api.c **** 		}
1422:Drivers/VL53L0X/core/src/vl53l0x_api.c **** 	}
1423:Drivers/VL53L0X/core/src/vl53l0x_api.c **** 
1424:Drivers/VL53L0X/core/src/vl53l0x_api.c **** 	LOG_FUNCTION_END(Status);
1425:Drivers/VL53L0X/core/src/vl53l0x_api.c **** 	return Status;
 4177              		.loc 1 1425 9
 4178 0062 97F90B30 		ldrsb	r3, [r7, #11]
1426:Drivers/VL53L0X/core/src/vl53l0x_api.c **** }
 4179              		.loc 1 1426 1
 4180 0066 1846     		mov	r0, r3
 4181 0068 1037     		adds	r7, r7, #16
 4182              		.cfi_def_cfa_offset 8
 4183 006a BD46     		mov	sp, r7
 4184              		.cfi_def_cfa_register 13
 4185              		@ sp needed
 4186 006c 80BD     		pop	{r7, pc}
 4187              		.cfi_endproc
 4188              	.LFE372:
 4190              		.section	.text.VL53L0X_GetXTalkCompensationEnable,"ax",%progbits
 4191              		.align	1
 4192              		.global	VL53L0X_GetXTalkCompensationEnable
 4193              		.syntax unified
 4194              		.thumb
 4195              		.thumb_func
 4197              	VL53L0X_GetXTalkCompensationEnable:
 4198              	.LFB373:
1427:Drivers/VL53L0X/core/src/vl53l0x_api.c **** 
1428:Drivers/VL53L0X/core/src/vl53l0x_api.c **** VL53L0X_Error VL53L0X_GetXTalkCompensationEnable(VL53L0X_DEV Dev,
1429:Drivers/VL53L0X/core/src/vl53l0x_api.c **** 	uint8_t *pXTalkCompensationEnable)
1430:Drivers/VL53L0X/core/src/vl53l0x_api.c **** {
 4199              		.loc 1 1430 1
 4200              		.cfi_startproc
 4201              		@ args = 0, pretend = 0, frame = 16
 4202              		@ frame_needed = 1, uses_anonymous_args = 0
 4203              		@ link register save eliminated.
 4204 0000 80B4     		push	{r7}
 4205              		.cfi_def_cfa_offset 4
ARM GAS  C:\Users\Morroway\AppData\Local\Temp\ccih4NWY.s 			page 101


 4206              		.cfi_offset 7, -4
 4207 0002 85B0     		sub	sp, sp, #20
 4208              		.cfi_def_cfa_offset 24
 4209 0004 00AF     		add	r7, sp, #0
 4210              		.cfi_def_cfa_register 7
 4211 0006 7860     		str	r0, [r7, #4]
 4212 0008 3960     		str	r1, [r7]
1431:Drivers/VL53L0X/core/src/vl53l0x_api.c **** 	VL53L0X_Error Status = VL53L0X_ERROR_NONE;
 4213              		.loc 1 1431 16
 4214 000a 0023     		movs	r3, #0
 4215 000c FB73     		strb	r3, [r7, #15]
1432:Drivers/VL53L0X/core/src/vl53l0x_api.c **** 	uint8_t Temp8;
1433:Drivers/VL53L0X/core/src/vl53l0x_api.c **** 	LOG_FUNCTION_START("");
1434:Drivers/VL53L0X/core/src/vl53l0x_api.c **** 
1435:Drivers/VL53L0X/core/src/vl53l0x_api.c **** 	VL53L0X_GETPARAMETERFIELD(Dev, XTalkCompensationEnable, Temp8);
 4216              		.loc 1 1435 2
 4217 000e 7B68     		ldr	r3, [r7, #4]
 4218 0010 1B7F     		ldrb	r3, [r3, #28]
 4219 0012 BB73     		strb	r3, [r7, #14]
1436:Drivers/VL53L0X/core/src/vl53l0x_api.c **** 	*pXTalkCompensationEnable = Temp8;
 4220              		.loc 1 1436 28
 4221 0014 3B68     		ldr	r3, [r7]
 4222 0016 BA7B     		ldrb	r2, [r7, #14]
 4223 0018 1A70     		strb	r2, [r3]
1437:Drivers/VL53L0X/core/src/vl53l0x_api.c **** 
1438:Drivers/VL53L0X/core/src/vl53l0x_api.c **** 	LOG_FUNCTION_END(Status);
1439:Drivers/VL53L0X/core/src/vl53l0x_api.c **** 	return Status;
 4224              		.loc 1 1439 9
 4225 001a 97F90F30 		ldrsb	r3, [r7, #15]
1440:Drivers/VL53L0X/core/src/vl53l0x_api.c **** }
 4226              		.loc 1 1440 1
 4227 001e 1846     		mov	r0, r3
 4228 0020 1437     		adds	r7, r7, #20
 4229              		.cfi_def_cfa_offset 4
 4230 0022 BD46     		mov	sp, r7
 4231              		.cfi_def_cfa_register 13
 4232              		@ sp needed
 4233 0024 5DF8047B 		ldr	r7, [sp], #4
 4234              		.cfi_restore 7
 4235              		.cfi_def_cfa_offset 0
 4236 0028 7047     		bx	lr
 4237              		.cfi_endproc
 4238              	.LFE373:
 4240              		.section	.text.VL53L0X_SetXTalkCompensationRateMegaCps,"ax",%progbits
 4241              		.align	1
 4242              		.global	VL53L0X_SetXTalkCompensationRateMegaCps
 4243              		.syntax unified
 4244              		.thumb
 4245              		.thumb_func
 4247              	VL53L0X_SetXTalkCompensationRateMegaCps:
 4248              	.LFB374:
1441:Drivers/VL53L0X/core/src/vl53l0x_api.c **** 
1442:Drivers/VL53L0X/core/src/vl53l0x_api.c **** VL53L0X_Error VL53L0X_SetXTalkCompensationRateMegaCps(VL53L0X_DEV Dev,
1443:Drivers/VL53L0X/core/src/vl53l0x_api.c **** 	FixPoint1616_t XTalkCompensationRateMegaCps)
1444:Drivers/VL53L0X/core/src/vl53l0x_api.c **** {
 4249              		.loc 1 1444 1
 4250              		.cfi_startproc
ARM GAS  C:\Users\Morroway\AppData\Local\Temp\ccih4NWY.s 			page 102


 4251              		@ args = 0, pretend = 0, frame = 16
 4252              		@ frame_needed = 1, uses_anonymous_args = 0
 4253 0000 80B5     		push	{r7, lr}
 4254              		.cfi_def_cfa_offset 8
 4255              		.cfi_offset 7, -8
 4256              		.cfi_offset 14, -4
 4257 0002 84B0     		sub	sp, sp, #16
 4258              		.cfi_def_cfa_offset 24
 4259 0004 00AF     		add	r7, sp, #0
 4260              		.cfi_def_cfa_register 7
 4261 0006 7860     		str	r0, [r7, #4]
 4262 0008 3960     		str	r1, [r7]
1445:Drivers/VL53L0X/core/src/vl53l0x_api.c **** 	VL53L0X_Error Status = VL53L0X_ERROR_NONE;
 4263              		.loc 1 1445 16
 4264 000a 0023     		movs	r3, #0
 4265 000c FB73     		strb	r3, [r7, #15]
1446:Drivers/VL53L0X/core/src/vl53l0x_api.c **** 	uint8_t Temp8;
1447:Drivers/VL53L0X/core/src/vl53l0x_api.c **** 	uint16_t LinearityCorrectiveGain;
1448:Drivers/VL53L0X/core/src/vl53l0x_api.c **** 	uint16_t data;
1449:Drivers/VL53L0X/core/src/vl53l0x_api.c **** 	LOG_FUNCTION_START("");
1450:Drivers/VL53L0X/core/src/vl53l0x_api.c **** 
1451:Drivers/VL53L0X/core/src/vl53l0x_api.c **** 	VL53L0X_GETPARAMETERFIELD(Dev, XTalkCompensationEnable, Temp8);
 4266              		.loc 1 1451 2
 4267 000e 7B68     		ldr	r3, [r7, #4]
 4268 0010 1B7F     		ldrb	r3, [r3, #28]
 4269 0012 FB72     		strb	r3, [r7, #11]
1452:Drivers/VL53L0X/core/src/vl53l0x_api.c **** 	LinearityCorrectiveGain = PALDevDataGet(Dev, LinearityCorrectiveGain);
 4270              		.loc 1 1452 26
 4271 0014 7B68     		ldr	r3, [r7, #4]
 4272 0016 B3F85231 		ldrh	r3, [r3, #338]	@ movhi
 4273 001a 3B81     		strh	r3, [r7, #8]	@ movhi
1453:Drivers/VL53L0X/core/src/vl53l0x_api.c **** 
1454:Drivers/VL53L0X/core/src/vl53l0x_api.c **** 	if (Temp8 == 0) { /* disabled write only internal value */
 4274              		.loc 1 1454 5
 4275 001c FB7A     		ldrb	r3, [r7, #11]	@ zero_extendqisi2
 4276 001e 002B     		cmp	r3, #0
 4277 0020 03D1     		bne	.L253
1455:Drivers/VL53L0X/core/src/vl53l0x_api.c **** 		VL53L0X_SETPARAMETERFIELD(Dev, XTalkCompensationRateMegaCps,
 4278              		.loc 1 1455 3
 4279 0022 7B68     		ldr	r3, [r7, #4]
 4280 0024 3A68     		ldr	r2, [r7]
 4281 0026 1A62     		str	r2, [r3, #32]
 4282 0028 18E0     		b	.L254
 4283              	.L253:
1456:Drivers/VL53L0X/core/src/vl53l0x_api.c **** 			XTalkCompensationRateMegaCps);
1457:Drivers/VL53L0X/core/src/vl53l0x_api.c **** 	} else {
1458:Drivers/VL53L0X/core/src/vl53l0x_api.c **** 		/* the following register has a format 3.13 */
1459:Drivers/VL53L0X/core/src/vl53l0x_api.c **** 		if (LinearityCorrectiveGain == 1000) {
 4284              		.loc 1 1459 6
 4285 002a 3B89     		ldrh	r3, [r7, #8]
 4286 002c B3F57A7F 		cmp	r3, #1000
 4287 0030 03D1     		bne	.L255
1460:Drivers/VL53L0X/core/src/vl53l0x_api.c **** 			data = VL53L0X_FIXPOINT1616TOFIXPOINT313(
 4288              		.loc 1 1460 11
 4289 0032 3B68     		ldr	r3, [r7]
 4290 0034 DB08     		lsrs	r3, r3, #3
 4291              		.loc 1 1460 9
ARM GAS  C:\Users\Morroway\AppData\Local\Temp\ccih4NWY.s 			page 103


 4292 0036 BB81     		strh	r3, [r7, #12]	@ movhi
 4293 0038 01E0     		b	.L256
 4294              	.L255:
1461:Drivers/VL53L0X/core/src/vl53l0x_api.c **** 				XTalkCompensationRateMegaCps);
1462:Drivers/VL53L0X/core/src/vl53l0x_api.c **** 		} else {
1463:Drivers/VL53L0X/core/src/vl53l0x_api.c **** 			data = 0;
 4295              		.loc 1 1463 9
 4296 003a 0023     		movs	r3, #0
 4297 003c BB81     		strh	r3, [r7, #12]	@ movhi
 4298              	.L256:
1464:Drivers/VL53L0X/core/src/vl53l0x_api.c **** 		}
1465:Drivers/VL53L0X/core/src/vl53l0x_api.c **** 
1466:Drivers/VL53L0X/core/src/vl53l0x_api.c **** 		Status = VL53L0X_WrWord(Dev,
 4299              		.loc 1 1466 12
 4300 003e BB89     		ldrh	r3, [r7, #12]
 4301 0040 1A46     		mov	r2, r3
 4302 0042 2021     		movs	r1, #32
 4303 0044 7868     		ldr	r0, [r7, #4]
 4304 0046 FFF7FEFF 		bl	VL53L0X_WrWord
 4305 004a 0346     		mov	r3, r0
 4306 004c FB73     		strb	r3, [r7, #15]
1467:Drivers/VL53L0X/core/src/vl53l0x_api.c **** 		VL53L0X_REG_CROSSTALK_COMPENSATION_PEAK_RATE_MCPS, data);
1468:Drivers/VL53L0X/core/src/vl53l0x_api.c **** 
1469:Drivers/VL53L0X/core/src/vl53l0x_api.c **** 		if (Status == VL53L0X_ERROR_NONE) {
 4307              		.loc 1 1469 6
 4308 004e 97F90F30 		ldrsb	r3, [r7, #15]
 4309 0052 002B     		cmp	r3, #0
 4310 0054 02D1     		bne	.L254
1470:Drivers/VL53L0X/core/src/vl53l0x_api.c **** 			VL53L0X_SETPARAMETERFIELD(Dev,
 4311              		.loc 1 1470 4
 4312 0056 7B68     		ldr	r3, [r7, #4]
 4313 0058 3A68     		ldr	r2, [r7]
 4314 005a 1A62     		str	r2, [r3, #32]
 4315              	.L254:
1471:Drivers/VL53L0X/core/src/vl53l0x_api.c **** 				XTalkCompensationRateMegaCps,
1472:Drivers/VL53L0X/core/src/vl53l0x_api.c **** 				XTalkCompensationRateMegaCps);
1473:Drivers/VL53L0X/core/src/vl53l0x_api.c **** 		}
1474:Drivers/VL53L0X/core/src/vl53l0x_api.c **** 	}
1475:Drivers/VL53L0X/core/src/vl53l0x_api.c **** 
1476:Drivers/VL53L0X/core/src/vl53l0x_api.c **** 	LOG_FUNCTION_END(Status);
1477:Drivers/VL53L0X/core/src/vl53l0x_api.c **** 	return Status;
 4316              		.loc 1 1477 9
 4317 005c 97F90F30 		ldrsb	r3, [r7, #15]
1478:Drivers/VL53L0X/core/src/vl53l0x_api.c **** }
 4318              		.loc 1 1478 1
 4319 0060 1846     		mov	r0, r3
 4320 0062 1037     		adds	r7, r7, #16
 4321              		.cfi_def_cfa_offset 8
 4322 0064 BD46     		mov	sp, r7
 4323              		.cfi_def_cfa_register 13
 4324              		@ sp needed
 4325 0066 80BD     		pop	{r7, pc}
 4326              		.cfi_endproc
 4327              	.LFE374:
 4329              		.section	.text.VL53L0X_GetXTalkCompensationRateMegaCps,"ax",%progbits
 4330              		.align	1
 4331              		.global	VL53L0X_GetXTalkCompensationRateMegaCps
ARM GAS  C:\Users\Morroway\AppData\Local\Temp\ccih4NWY.s 			page 104


 4332              		.syntax unified
 4333              		.thumb
 4334              		.thumb_func
 4336              	VL53L0X_GetXTalkCompensationRateMegaCps:
 4337              	.LFB375:
1479:Drivers/VL53L0X/core/src/vl53l0x_api.c **** 
1480:Drivers/VL53L0X/core/src/vl53l0x_api.c **** VL53L0X_Error VL53L0X_GetXTalkCompensationRateMegaCps(VL53L0X_DEV Dev,
1481:Drivers/VL53L0X/core/src/vl53l0x_api.c **** 	FixPoint1616_t *pXTalkCompensationRateMegaCps)
1482:Drivers/VL53L0X/core/src/vl53l0x_api.c **** {
 4338              		.loc 1 1482 1
 4339              		.cfi_startproc
 4340              		@ args = 0, pretend = 0, frame = 24
 4341              		@ frame_needed = 1, uses_anonymous_args = 0
 4342 0000 80B5     		push	{r7, lr}
 4343              		.cfi_def_cfa_offset 8
 4344              		.cfi_offset 7, -8
 4345              		.cfi_offset 14, -4
 4346 0002 86B0     		sub	sp, sp, #24
 4347              		.cfi_def_cfa_offset 32
 4348 0004 00AF     		add	r7, sp, #0
 4349              		.cfi_def_cfa_register 7
 4350 0006 7860     		str	r0, [r7, #4]
 4351 0008 3960     		str	r1, [r7]
1483:Drivers/VL53L0X/core/src/vl53l0x_api.c **** 	VL53L0X_Error Status = VL53L0X_ERROR_NONE;
 4352              		.loc 1 1483 16
 4353 000a 0023     		movs	r3, #0
 4354 000c FB75     		strb	r3, [r7, #23]
1484:Drivers/VL53L0X/core/src/vl53l0x_api.c **** 	uint16_t Value;
1485:Drivers/VL53L0X/core/src/vl53l0x_api.c **** 	FixPoint1616_t TempFix1616;
1486:Drivers/VL53L0X/core/src/vl53l0x_api.c **** 
1487:Drivers/VL53L0X/core/src/vl53l0x_api.c **** 	LOG_FUNCTION_START("");
1488:Drivers/VL53L0X/core/src/vl53l0x_api.c **** 
1489:Drivers/VL53L0X/core/src/vl53l0x_api.c **** 	Status = VL53L0X_RdWord(Dev,
 4355              		.loc 1 1489 11
 4356 000e 07F10E03 		add	r3, r7, #14
 4357 0012 1A46     		mov	r2, r3
 4358 0014 2021     		movs	r1, #32
 4359 0016 7868     		ldr	r0, [r7, #4]
 4360 0018 FFF7FEFF 		bl	VL53L0X_RdWord
 4361 001c 0346     		mov	r3, r0
 4362 001e FB75     		strb	r3, [r7, #23]
1490:Drivers/VL53L0X/core/src/vl53l0x_api.c **** 	VL53L0X_REG_CROSSTALK_COMPENSATION_PEAK_RATE_MCPS, (uint16_t *)&Value);
1491:Drivers/VL53L0X/core/src/vl53l0x_api.c **** 	if (Status == VL53L0X_ERROR_NONE) {
 4363              		.loc 1 1491 5
 4364 0020 97F91730 		ldrsb	r3, [r7, #23]
 4365 0024 002B     		cmp	r3, #0
 4366 0026 18D1     		bne	.L259
1492:Drivers/VL53L0X/core/src/vl53l0x_api.c **** 		if (Value == 0) {
 4367              		.loc 1 1492 13
 4368 0028 FB89     		ldrh	r3, [r7, #14]
 4369              		.loc 1 1492 6
 4370 002a 002B     		cmp	r3, #0
 4371 002c 09D1     		bne	.L260
1493:Drivers/VL53L0X/core/src/vl53l0x_api.c **** 			/* the Xtalk is disabled return value from memory */
1494:Drivers/VL53L0X/core/src/vl53l0x_api.c **** 			VL53L0X_GETPARAMETERFIELD(Dev,
 4372              		.loc 1 1494 4
 4373 002e 7B68     		ldr	r3, [r7, #4]
ARM GAS  C:\Users\Morroway\AppData\Local\Temp\ccih4NWY.s 			page 105


 4374 0030 1B6A     		ldr	r3, [r3, #32]
 4375 0032 3B61     		str	r3, [r7, #16]
1495:Drivers/VL53L0X/core/src/vl53l0x_api.c **** 				XTalkCompensationRateMegaCps, TempFix1616);
1496:Drivers/VL53L0X/core/src/vl53l0x_api.c **** 			*pXTalkCompensationRateMegaCps = TempFix1616;
 4376              		.loc 1 1496 35
 4377 0034 3B68     		ldr	r3, [r7]
 4378 0036 3A69     		ldr	r2, [r7, #16]
 4379 0038 1A60     		str	r2, [r3]
1497:Drivers/VL53L0X/core/src/vl53l0x_api.c **** 			VL53L0X_SETPARAMETERFIELD(Dev, XTalkCompensationEnable,
 4380              		.loc 1 1497 4
 4381 003a 7B68     		ldr	r3, [r7, #4]
 4382 003c 0022     		movs	r2, #0
 4383 003e 1A77     		strb	r2, [r3, #28]
 4384 0040 0BE0     		b	.L259
 4385              	.L260:
1498:Drivers/VL53L0X/core/src/vl53l0x_api.c **** 				0);
1499:Drivers/VL53L0X/core/src/vl53l0x_api.c **** 		} else {
1500:Drivers/VL53L0X/core/src/vl53l0x_api.c **** 			TempFix1616 = VL53L0X_FIXPOINT313TOFIXPOINT1616(Value);
 4386              		.loc 1 1500 18
 4387 0042 FB89     		ldrh	r3, [r7, #14]
 4388 0044 DB00     		lsls	r3, r3, #3
 4389              		.loc 1 1500 16
 4390 0046 3B61     		str	r3, [r7, #16]
1501:Drivers/VL53L0X/core/src/vl53l0x_api.c **** 			*pXTalkCompensationRateMegaCps = TempFix1616;
 4391              		.loc 1 1501 35
 4392 0048 3B68     		ldr	r3, [r7]
 4393 004a 3A69     		ldr	r2, [r7, #16]
 4394 004c 1A60     		str	r2, [r3]
1502:Drivers/VL53L0X/core/src/vl53l0x_api.c **** 			VL53L0X_SETPARAMETERFIELD(Dev,
 4395              		.loc 1 1502 4
 4396 004e 7B68     		ldr	r3, [r7, #4]
 4397 0050 3A69     		ldr	r2, [r7, #16]
 4398 0052 1A62     		str	r2, [r3, #32]
1503:Drivers/VL53L0X/core/src/vl53l0x_api.c **** 				XTalkCompensationRateMegaCps, TempFix1616);
1504:Drivers/VL53L0X/core/src/vl53l0x_api.c **** 			VL53L0X_SETPARAMETERFIELD(Dev, XTalkCompensationEnable,
 4399              		.loc 1 1504 4
 4400 0054 7B68     		ldr	r3, [r7, #4]
 4401 0056 0122     		movs	r2, #1
 4402 0058 1A77     		strb	r2, [r3, #28]
 4403              	.L259:
1505:Drivers/VL53L0X/core/src/vl53l0x_api.c **** 				1);
1506:Drivers/VL53L0X/core/src/vl53l0x_api.c **** 		}
1507:Drivers/VL53L0X/core/src/vl53l0x_api.c **** 	}
1508:Drivers/VL53L0X/core/src/vl53l0x_api.c **** 
1509:Drivers/VL53L0X/core/src/vl53l0x_api.c **** 	LOG_FUNCTION_END(Status);
1510:Drivers/VL53L0X/core/src/vl53l0x_api.c **** 	return Status;
 4404              		.loc 1 1510 9
 4405 005a 97F91730 		ldrsb	r3, [r7, #23]
1511:Drivers/VL53L0X/core/src/vl53l0x_api.c **** }
 4406              		.loc 1 1511 1
 4407 005e 1846     		mov	r0, r3
 4408 0060 1837     		adds	r7, r7, #24
 4409              		.cfi_def_cfa_offset 8
 4410 0062 BD46     		mov	sp, r7
 4411              		.cfi_def_cfa_register 13
 4412              		@ sp needed
 4413 0064 80BD     		pop	{r7, pc}
ARM GAS  C:\Users\Morroway\AppData\Local\Temp\ccih4NWY.s 			page 106


 4414              		.cfi_endproc
 4415              	.LFE375:
 4417              		.section	.text.VL53L0X_SetRefCalibration,"ax",%progbits
 4418              		.align	1
 4419              		.global	VL53L0X_SetRefCalibration
 4420              		.syntax unified
 4421              		.thumb
 4422              		.thumb_func
 4424              	VL53L0X_SetRefCalibration:
 4425              	.LFB376:
1512:Drivers/VL53L0X/core/src/vl53l0x_api.c **** 
1513:Drivers/VL53L0X/core/src/vl53l0x_api.c **** VL53L0X_Error VL53L0X_SetRefCalibration(VL53L0X_DEV Dev, uint8_t VhvSettings,
1514:Drivers/VL53L0X/core/src/vl53l0x_api.c **** 	uint8_t PhaseCal)
1515:Drivers/VL53L0X/core/src/vl53l0x_api.c **** {
 4426              		.loc 1 1515 1
 4427              		.cfi_startproc
 4428              		@ args = 0, pretend = 0, frame = 16
 4429              		@ frame_needed = 1, uses_anonymous_args = 0
 4430 0000 80B5     		push	{r7, lr}
 4431              		.cfi_def_cfa_offset 8
 4432              		.cfi_offset 7, -8
 4433              		.cfi_offset 14, -4
 4434 0002 84B0     		sub	sp, sp, #16
 4435              		.cfi_def_cfa_offset 24
 4436 0004 00AF     		add	r7, sp, #0
 4437              		.cfi_def_cfa_register 7
 4438 0006 7860     		str	r0, [r7, #4]
 4439 0008 0B46     		mov	r3, r1
 4440 000a FB70     		strb	r3, [r7, #3]
 4441 000c 1346     		mov	r3, r2
 4442 000e BB70     		strb	r3, [r7, #2]
1516:Drivers/VL53L0X/core/src/vl53l0x_api.c **** 	VL53L0X_Error Status = VL53L0X_ERROR_NONE;
 4443              		.loc 1 1516 16
 4444 0010 0023     		movs	r3, #0
 4445 0012 FB73     		strb	r3, [r7, #15]
1517:Drivers/VL53L0X/core/src/vl53l0x_api.c **** 	LOG_FUNCTION_START("");
1518:Drivers/VL53L0X/core/src/vl53l0x_api.c **** 
1519:Drivers/VL53L0X/core/src/vl53l0x_api.c **** 	Status = VL53L0X_set_ref_calibration(Dev, VhvSettings, PhaseCal);
 4446              		.loc 1 1519 11
 4447 0014 BA78     		ldrb	r2, [r7, #2]	@ zero_extendqisi2
 4448 0016 FB78     		ldrb	r3, [r7, #3]	@ zero_extendqisi2
 4449 0018 1946     		mov	r1, r3
 4450 001a 7868     		ldr	r0, [r7, #4]
 4451 001c FFF7FEFF 		bl	VL53L0X_set_ref_calibration
 4452 0020 0346     		mov	r3, r0
 4453 0022 FB73     		strb	r3, [r7, #15]
1520:Drivers/VL53L0X/core/src/vl53l0x_api.c **** 
1521:Drivers/VL53L0X/core/src/vl53l0x_api.c **** 	LOG_FUNCTION_END(Status);
1522:Drivers/VL53L0X/core/src/vl53l0x_api.c **** 	return Status;
 4454              		.loc 1 1522 9
 4455 0024 97F90F30 		ldrsb	r3, [r7, #15]
1523:Drivers/VL53L0X/core/src/vl53l0x_api.c **** }
 4456              		.loc 1 1523 1
 4457 0028 1846     		mov	r0, r3
 4458 002a 1037     		adds	r7, r7, #16
 4459              		.cfi_def_cfa_offset 8
 4460 002c BD46     		mov	sp, r7
ARM GAS  C:\Users\Morroway\AppData\Local\Temp\ccih4NWY.s 			page 107


 4461              		.cfi_def_cfa_register 13
 4462              		@ sp needed
 4463 002e 80BD     		pop	{r7, pc}
 4464              		.cfi_endproc
 4465              	.LFE376:
 4467              		.section	.text.VL53L0X_GetRefCalibration,"ax",%progbits
 4468              		.align	1
 4469              		.global	VL53L0X_GetRefCalibration
 4470              		.syntax unified
 4471              		.thumb
 4472              		.thumb_func
 4474              	VL53L0X_GetRefCalibration:
 4475              	.LFB377:
1524:Drivers/VL53L0X/core/src/vl53l0x_api.c **** 
1525:Drivers/VL53L0X/core/src/vl53l0x_api.c **** VL53L0X_Error VL53L0X_GetRefCalibration(VL53L0X_DEV Dev, uint8_t *pVhvSettings,
1526:Drivers/VL53L0X/core/src/vl53l0x_api.c **** 	uint8_t *pPhaseCal)
1527:Drivers/VL53L0X/core/src/vl53l0x_api.c **** {
 4476              		.loc 1 1527 1
 4477              		.cfi_startproc
 4478              		@ args = 0, pretend = 0, frame = 24
 4479              		@ frame_needed = 1, uses_anonymous_args = 0
 4480 0000 80B5     		push	{r7, lr}
 4481              		.cfi_def_cfa_offset 8
 4482              		.cfi_offset 7, -8
 4483              		.cfi_offset 14, -4
 4484 0002 86B0     		sub	sp, sp, #24
 4485              		.cfi_def_cfa_offset 32
 4486 0004 00AF     		add	r7, sp, #0
 4487              		.cfi_def_cfa_register 7
 4488 0006 F860     		str	r0, [r7, #12]
 4489 0008 B960     		str	r1, [r7, #8]
 4490 000a 7A60     		str	r2, [r7, #4]
1528:Drivers/VL53L0X/core/src/vl53l0x_api.c **** 	VL53L0X_Error Status = VL53L0X_ERROR_NONE;
 4491              		.loc 1 1528 16
 4492 000c 0023     		movs	r3, #0
 4493 000e FB75     		strb	r3, [r7, #23]
1529:Drivers/VL53L0X/core/src/vl53l0x_api.c **** 	LOG_FUNCTION_START("");
1530:Drivers/VL53L0X/core/src/vl53l0x_api.c **** 
1531:Drivers/VL53L0X/core/src/vl53l0x_api.c **** 	Status = VL53L0X_get_ref_calibration(Dev, pVhvSettings, pPhaseCal);
 4494              		.loc 1 1531 11
 4495 0010 7A68     		ldr	r2, [r7, #4]
 4496 0012 B968     		ldr	r1, [r7, #8]
 4497 0014 F868     		ldr	r0, [r7, #12]
 4498 0016 FFF7FEFF 		bl	VL53L0X_get_ref_calibration
 4499 001a 0346     		mov	r3, r0
 4500 001c FB75     		strb	r3, [r7, #23]
1532:Drivers/VL53L0X/core/src/vl53l0x_api.c **** 
1533:Drivers/VL53L0X/core/src/vl53l0x_api.c **** 	LOG_FUNCTION_END(Status);
1534:Drivers/VL53L0X/core/src/vl53l0x_api.c **** 	return Status;
 4501              		.loc 1 1534 9
 4502 001e 97F91730 		ldrsb	r3, [r7, #23]
1535:Drivers/VL53L0X/core/src/vl53l0x_api.c **** }
 4503              		.loc 1 1535 1
 4504 0022 1846     		mov	r0, r3
 4505 0024 1837     		adds	r7, r7, #24
 4506              		.cfi_def_cfa_offset 8
 4507 0026 BD46     		mov	sp, r7
ARM GAS  C:\Users\Morroway\AppData\Local\Temp\ccih4NWY.s 			page 108


 4508              		.cfi_def_cfa_register 13
 4509              		@ sp needed
 4510 0028 80BD     		pop	{r7, pc}
 4511              		.cfi_endproc
 4512              	.LFE377:
 4514              		.section	.text.VL53L0X_GetNumberOfLimitCheck,"ax",%progbits
 4515              		.align	1
 4516              		.global	VL53L0X_GetNumberOfLimitCheck
 4517              		.syntax unified
 4518              		.thumb
 4519              		.thumb_func
 4521              	VL53L0X_GetNumberOfLimitCheck:
 4522              	.LFB378:
1536:Drivers/VL53L0X/core/src/vl53l0x_api.c **** 
1537:Drivers/VL53L0X/core/src/vl53l0x_api.c **** /*
1538:Drivers/VL53L0X/core/src/vl53l0x_api.c ****  * CHECK LIMIT FUNCTIONS
1539:Drivers/VL53L0X/core/src/vl53l0x_api.c ****  */
1540:Drivers/VL53L0X/core/src/vl53l0x_api.c **** 
1541:Drivers/VL53L0X/core/src/vl53l0x_api.c **** VL53L0X_Error VL53L0X_GetNumberOfLimitCheck(uint16_t *pNumberOfLimitCheck)
1542:Drivers/VL53L0X/core/src/vl53l0x_api.c **** {
 4523              		.loc 1 1542 1
 4524              		.cfi_startproc
 4525              		@ args = 0, pretend = 0, frame = 16
 4526              		@ frame_needed = 1, uses_anonymous_args = 0
 4527              		@ link register save eliminated.
 4528 0000 80B4     		push	{r7}
 4529              		.cfi_def_cfa_offset 4
 4530              		.cfi_offset 7, -4
 4531 0002 85B0     		sub	sp, sp, #20
 4532              		.cfi_def_cfa_offset 24
 4533 0004 00AF     		add	r7, sp, #0
 4534              		.cfi_def_cfa_register 7
 4535 0006 7860     		str	r0, [r7, #4]
1543:Drivers/VL53L0X/core/src/vl53l0x_api.c **** 	VL53L0X_Error Status = VL53L0X_ERROR_NONE;
 4536              		.loc 1 1543 16
 4537 0008 0023     		movs	r3, #0
 4538 000a FB73     		strb	r3, [r7, #15]
1544:Drivers/VL53L0X/core/src/vl53l0x_api.c **** 	LOG_FUNCTION_START("");
1545:Drivers/VL53L0X/core/src/vl53l0x_api.c **** 
1546:Drivers/VL53L0X/core/src/vl53l0x_api.c **** 	*pNumberOfLimitCheck = VL53L0X_CHECKENABLE_NUMBER_OF_CHECKS;
 4539              		.loc 1 1546 23
 4540 000c 7B68     		ldr	r3, [r7, #4]
 4541 000e 0622     		movs	r2, #6
 4542 0010 1A80     		strh	r2, [r3]	@ movhi
1547:Drivers/VL53L0X/core/src/vl53l0x_api.c **** 
1548:Drivers/VL53L0X/core/src/vl53l0x_api.c **** 	LOG_FUNCTION_END(Status);
1549:Drivers/VL53L0X/core/src/vl53l0x_api.c **** 	return Status;
 4543              		.loc 1 1549 9
 4544 0012 97F90F30 		ldrsb	r3, [r7, #15]
1550:Drivers/VL53L0X/core/src/vl53l0x_api.c **** }
 4545              		.loc 1 1550 1
 4546 0016 1846     		mov	r0, r3
 4547 0018 1437     		adds	r7, r7, #20
 4548              		.cfi_def_cfa_offset 4
 4549 001a BD46     		mov	sp, r7
 4550              		.cfi_def_cfa_register 13
 4551              		@ sp needed
ARM GAS  C:\Users\Morroway\AppData\Local\Temp\ccih4NWY.s 			page 109


 4552 001c 5DF8047B 		ldr	r7, [sp], #4
 4553              		.cfi_restore 7
 4554              		.cfi_def_cfa_offset 0
 4555 0020 7047     		bx	lr
 4556              		.cfi_endproc
 4557              	.LFE378:
 4559              		.section	.text.VL53L0X_GetLimitCheckInfo,"ax",%progbits
 4560              		.align	1
 4561              		.global	VL53L0X_GetLimitCheckInfo
 4562              		.syntax unified
 4563              		.thumb
 4564              		.thumb_func
 4566              	VL53L0X_GetLimitCheckInfo:
 4567              	.LFB379:
1551:Drivers/VL53L0X/core/src/vl53l0x_api.c **** 
1552:Drivers/VL53L0X/core/src/vl53l0x_api.c **** VL53L0X_Error VL53L0X_GetLimitCheckInfo(VL53L0X_DEV Dev, uint16_t LimitCheckId,
1553:Drivers/VL53L0X/core/src/vl53l0x_api.c **** 	char *pLimitCheckString)
1554:Drivers/VL53L0X/core/src/vl53l0x_api.c **** {
 4568              		.loc 1 1554 1
 4569              		.cfi_startproc
 4570              		@ args = 0, pretend = 0, frame = 24
 4571              		@ frame_needed = 1, uses_anonymous_args = 0
 4572 0000 80B5     		push	{r7, lr}
 4573              		.cfi_def_cfa_offset 8
 4574              		.cfi_offset 7, -8
 4575              		.cfi_offset 14, -4
 4576 0002 86B0     		sub	sp, sp, #24
 4577              		.cfi_def_cfa_offset 32
 4578 0004 00AF     		add	r7, sp, #0
 4579              		.cfi_def_cfa_register 7
 4580 0006 F860     		str	r0, [r7, #12]
 4581 0008 0B46     		mov	r3, r1
 4582 000a 7A60     		str	r2, [r7, #4]
 4583 000c 7B81     		strh	r3, [r7, #10]	@ movhi
1555:Drivers/VL53L0X/core/src/vl53l0x_api.c **** 	VL53L0X_Error Status = VL53L0X_ERROR_NONE;
 4584              		.loc 1 1555 16
 4585 000e 0023     		movs	r3, #0
 4586 0010 FB75     		strb	r3, [r7, #23]
1556:Drivers/VL53L0X/core/src/vl53l0x_api.c **** 
1557:Drivers/VL53L0X/core/src/vl53l0x_api.c **** 	LOG_FUNCTION_START("");
1558:Drivers/VL53L0X/core/src/vl53l0x_api.c **** 
1559:Drivers/VL53L0X/core/src/vl53l0x_api.c **** 	Status = VL53L0X_get_limit_check_info(Dev, LimitCheckId,
 4587              		.loc 1 1559 11
 4588 0012 7B89     		ldrh	r3, [r7, #10]
 4589 0014 7A68     		ldr	r2, [r7, #4]
 4590 0016 1946     		mov	r1, r3
 4591 0018 F868     		ldr	r0, [r7, #12]
 4592 001a FFF7FEFF 		bl	VL53L0X_get_limit_check_info
 4593 001e 0346     		mov	r3, r0
 4594 0020 FB75     		strb	r3, [r7, #23]
1560:Drivers/VL53L0X/core/src/vl53l0x_api.c **** 		pLimitCheckString);
1561:Drivers/VL53L0X/core/src/vl53l0x_api.c **** 
1562:Drivers/VL53L0X/core/src/vl53l0x_api.c **** 	LOG_FUNCTION_END(Status);
1563:Drivers/VL53L0X/core/src/vl53l0x_api.c **** 	return Status;
 4595              		.loc 1 1563 9
 4596 0022 97F91730 		ldrsb	r3, [r7, #23]
1564:Drivers/VL53L0X/core/src/vl53l0x_api.c **** }
ARM GAS  C:\Users\Morroway\AppData\Local\Temp\ccih4NWY.s 			page 110


 4597              		.loc 1 1564 1
 4598 0026 1846     		mov	r0, r3
 4599 0028 1837     		adds	r7, r7, #24
 4600              		.cfi_def_cfa_offset 8
 4601 002a BD46     		mov	sp, r7
 4602              		.cfi_def_cfa_register 13
 4603              		@ sp needed
 4604 002c 80BD     		pop	{r7, pc}
 4605              		.cfi_endproc
 4606              	.LFE379:
 4608              		.section	.text.VL53L0X_GetLimitCheckStatus,"ax",%progbits
 4609              		.align	1
 4610              		.global	VL53L0X_GetLimitCheckStatus
 4611              		.syntax unified
 4612              		.thumb
 4613              		.thumb_func
 4615              	VL53L0X_GetLimitCheckStatus:
 4616              	.LFB380:
1565:Drivers/VL53L0X/core/src/vl53l0x_api.c **** 
1566:Drivers/VL53L0X/core/src/vl53l0x_api.c **** VL53L0X_Error VL53L0X_GetLimitCheckStatus(VL53L0X_DEV Dev, uint16_t LimitCheckId,
1567:Drivers/VL53L0X/core/src/vl53l0x_api.c **** 	uint8_t *pLimitCheckStatus)
1568:Drivers/VL53L0X/core/src/vl53l0x_api.c **** {
 4617              		.loc 1 1568 1
 4618              		.cfi_startproc
 4619              		@ args = 0, pretend = 0, frame = 24
 4620              		@ frame_needed = 1, uses_anonymous_args = 0
 4621              		@ link register save eliminated.
 4622 0000 80B4     		push	{r7}
 4623              		.cfi_def_cfa_offset 4
 4624              		.cfi_offset 7, -4
 4625 0002 87B0     		sub	sp, sp, #28
 4626              		.cfi_def_cfa_offset 32
 4627 0004 00AF     		add	r7, sp, #0
 4628              		.cfi_def_cfa_register 7
 4629 0006 F860     		str	r0, [r7, #12]
 4630 0008 0B46     		mov	r3, r1
 4631 000a 7A60     		str	r2, [r7, #4]
 4632 000c 7B81     		strh	r3, [r7, #10]	@ movhi
1569:Drivers/VL53L0X/core/src/vl53l0x_api.c **** 	VL53L0X_Error Status = VL53L0X_ERROR_NONE;
 4633              		.loc 1 1569 16
 4634 000e 0023     		movs	r3, #0
 4635 0010 FB75     		strb	r3, [r7, #23]
1570:Drivers/VL53L0X/core/src/vl53l0x_api.c **** 	uint8_t Temp8;
1571:Drivers/VL53L0X/core/src/vl53l0x_api.c **** 
1572:Drivers/VL53L0X/core/src/vl53l0x_api.c **** 	LOG_FUNCTION_START("");
1573:Drivers/VL53L0X/core/src/vl53l0x_api.c **** 
1574:Drivers/VL53L0X/core/src/vl53l0x_api.c **** 	if (LimitCheckId >= VL53L0X_CHECKENABLE_NUMBER_OF_CHECKS) {
 4636              		.loc 1 1574 5
 4637 0012 7B89     		ldrh	r3, [r7, #10]
 4638 0014 052B     		cmp	r3, #5
 4639 0016 02D9     		bls	.L271
1575:Drivers/VL53L0X/core/src/vl53l0x_api.c **** 		Status = VL53L0X_ERROR_INVALID_PARAMS;
 4640              		.loc 1 1575 10
 4641 0018 FC23     		movs	r3, #252
 4642 001a FB75     		strb	r3, [r7, #23]
 4643 001c 08E0     		b	.L272
 4644              	.L271:
ARM GAS  C:\Users\Morroway\AppData\Local\Temp\ccih4NWY.s 			page 111


1576:Drivers/VL53L0X/core/src/vl53l0x_api.c **** 	} else {
1577:Drivers/VL53L0X/core/src/vl53l0x_api.c **** 
1578:Drivers/VL53L0X/core/src/vl53l0x_api.c **** 		VL53L0X_GETARRAYPARAMETERFIELD(Dev, LimitChecksStatus,
 4645              		.loc 1 1578 3
 4646 001e 7B89     		ldrh	r3, [r7, #10]
 4647 0020 FA68     		ldr	r2, [r7, #12]
 4648 0022 1344     		add	r3, r3, r2
 4649 0024 93F82E30 		ldrb	r3, [r3, #46]
 4650 0028 BB75     		strb	r3, [r7, #22]
1579:Drivers/VL53L0X/core/src/vl53l0x_api.c **** 			LimitCheckId, Temp8);
1580:Drivers/VL53L0X/core/src/vl53l0x_api.c **** 
1581:Drivers/VL53L0X/core/src/vl53l0x_api.c **** 		*pLimitCheckStatus = Temp8;
 4651              		.loc 1 1581 22
 4652 002a 7B68     		ldr	r3, [r7, #4]
 4653 002c BA7D     		ldrb	r2, [r7, #22]
 4654 002e 1A70     		strb	r2, [r3]
 4655              	.L272:
1582:Drivers/VL53L0X/core/src/vl53l0x_api.c **** 
1583:Drivers/VL53L0X/core/src/vl53l0x_api.c **** 	}
1584:Drivers/VL53L0X/core/src/vl53l0x_api.c **** 
1585:Drivers/VL53L0X/core/src/vl53l0x_api.c **** 	LOG_FUNCTION_END(Status);
1586:Drivers/VL53L0X/core/src/vl53l0x_api.c **** 	return Status;
 4656              		.loc 1 1586 9
 4657 0030 97F91730 		ldrsb	r3, [r7, #23]
1587:Drivers/VL53L0X/core/src/vl53l0x_api.c **** }
 4658              		.loc 1 1587 1
 4659 0034 1846     		mov	r0, r3
 4660 0036 1C37     		adds	r7, r7, #28
 4661              		.cfi_def_cfa_offset 4
 4662 0038 BD46     		mov	sp, r7
 4663              		.cfi_def_cfa_register 13
 4664              		@ sp needed
 4665 003a 5DF8047B 		ldr	r7, [sp], #4
 4666              		.cfi_restore 7
 4667              		.cfi_def_cfa_offset 0
 4668 003e 7047     		bx	lr
 4669              		.cfi_endproc
 4670              	.LFE380:
 4672              		.section	.text.VL53L0X_SetLimitCheckEnable,"ax",%progbits
 4673              		.align	1
 4674              		.global	VL53L0X_SetLimitCheckEnable
 4675              		.syntax unified
 4676              		.thumb
 4677              		.thumb_func
 4679              	VL53L0X_SetLimitCheckEnable:
 4680              	.LFB381:
1588:Drivers/VL53L0X/core/src/vl53l0x_api.c **** 
1589:Drivers/VL53L0X/core/src/vl53l0x_api.c **** VL53L0X_Error VL53L0X_SetLimitCheckEnable(VL53L0X_DEV Dev, uint16_t LimitCheckId,
1590:Drivers/VL53L0X/core/src/vl53l0x_api.c **** 	uint8_t LimitCheckEnable)
1591:Drivers/VL53L0X/core/src/vl53l0x_api.c **** {
 4681              		.loc 1 1591 1
 4682              		.cfi_startproc
 4683              		@ args = 0, pretend = 0, frame = 24
 4684              		@ frame_needed = 1, uses_anonymous_args = 0
 4685 0000 80B5     		push	{r7, lr}
 4686              		.cfi_def_cfa_offset 8
 4687              		.cfi_offset 7, -8
ARM GAS  C:\Users\Morroway\AppData\Local\Temp\ccih4NWY.s 			page 112


 4688              		.cfi_offset 14, -4
 4689 0002 86B0     		sub	sp, sp, #24
 4690              		.cfi_def_cfa_offset 32
 4691 0004 00AF     		add	r7, sp, #0
 4692              		.cfi_def_cfa_register 7
 4693 0006 7860     		str	r0, [r7, #4]
 4694 0008 0B46     		mov	r3, r1
 4695 000a 7B80     		strh	r3, [r7, #2]	@ movhi
 4696 000c 1346     		mov	r3, r2
 4697 000e 7B70     		strb	r3, [r7, #1]
1592:Drivers/VL53L0X/core/src/vl53l0x_api.c **** 	VL53L0X_Error Status = VL53L0X_ERROR_NONE;
 4698              		.loc 1 1592 16
 4699 0010 0023     		movs	r3, #0
 4700 0012 FB75     		strb	r3, [r7, #23]
1593:Drivers/VL53L0X/core/src/vl53l0x_api.c **** 	FixPoint1616_t TempFix1616 = 0;
 4701              		.loc 1 1593 17
 4702 0014 0023     		movs	r3, #0
 4703 0016 3B61     		str	r3, [r7, #16]
1594:Drivers/VL53L0X/core/src/vl53l0x_api.c **** 	uint8_t LimitCheckEnableInt = 0;
 4704              		.loc 1 1594 10
 4705 0018 0023     		movs	r3, #0
 4706 001a FB73     		strb	r3, [r7, #15]
1595:Drivers/VL53L0X/core/src/vl53l0x_api.c **** 	uint8_t LimitCheckDisable = 0;
 4707              		.loc 1 1595 10
 4708 001c 0023     		movs	r3, #0
 4709 001e BB73     		strb	r3, [r7, #14]
1596:Drivers/VL53L0X/core/src/vl53l0x_api.c **** 	uint8_t Temp8;
1597:Drivers/VL53L0X/core/src/vl53l0x_api.c **** 
1598:Drivers/VL53L0X/core/src/vl53l0x_api.c **** 	LOG_FUNCTION_START("");
1599:Drivers/VL53L0X/core/src/vl53l0x_api.c **** 
1600:Drivers/VL53L0X/core/src/vl53l0x_api.c **** 	if (LimitCheckId >= VL53L0X_CHECKENABLE_NUMBER_OF_CHECKS) {
 4710              		.loc 1 1600 5
 4711 0020 7B88     		ldrh	r3, [r7, #2]
 4712 0022 052B     		cmp	r3, #5
 4713 0024 02D9     		bls	.L275
1601:Drivers/VL53L0X/core/src/vl53l0x_api.c **** 		Status = VL53L0X_ERROR_INVALID_PARAMS;
 4714              		.loc 1 1601 10
 4715 0026 FC23     		movs	r3, #252
 4716 0028 FB75     		strb	r3, [r7, #23]
 4717 002a 5BE0     		b	.L276
 4718              	.L275:
1602:Drivers/VL53L0X/core/src/vl53l0x_api.c **** 	} else {
1603:Drivers/VL53L0X/core/src/vl53l0x_api.c **** 		if (LimitCheckEnable == 0) {
 4719              		.loc 1 1603 6
 4720 002c 7B78     		ldrb	r3, [r7, #1]	@ zero_extendqisi2
 4721 002e 002B     		cmp	r3, #0
 4722 0030 06D1     		bne	.L277
1604:Drivers/VL53L0X/core/src/vl53l0x_api.c **** 			TempFix1616 = 0;
 4723              		.loc 1 1604 16
 4724 0032 0023     		movs	r3, #0
 4725 0034 3B61     		str	r3, [r7, #16]
1605:Drivers/VL53L0X/core/src/vl53l0x_api.c **** 			LimitCheckEnableInt = 0;
 4726              		.loc 1 1605 24
 4727 0036 0023     		movs	r3, #0
 4728 0038 FB73     		strb	r3, [r7, #15]
1606:Drivers/VL53L0X/core/src/vl53l0x_api.c **** 			LimitCheckDisable = 1;
 4729              		.loc 1 1606 22
ARM GAS  C:\Users\Morroway\AppData\Local\Temp\ccih4NWY.s 			page 113


 4730 003a 0123     		movs	r3, #1
 4731 003c BB73     		strb	r3, [r7, #14]
 4732 003e 0AE0     		b	.L278
 4733              	.L277:
1607:Drivers/VL53L0X/core/src/vl53l0x_api.c **** 
1608:Drivers/VL53L0X/core/src/vl53l0x_api.c **** 		} else {
1609:Drivers/VL53L0X/core/src/vl53l0x_api.c **** 			VL53L0X_GETARRAYPARAMETERFIELD(Dev, LimitChecksValue,
 4734              		.loc 1 1609 4
 4735 0040 7B88     		ldrh	r3, [r7, #2]
 4736 0042 7A68     		ldr	r2, [r7, #4]
 4737 0044 0C33     		adds	r3, r3, #12
 4738 0046 9B00     		lsls	r3, r3, #2
 4739 0048 1344     		add	r3, r3, r2
 4740 004a 5B68     		ldr	r3, [r3, #4]
 4741 004c 3B61     		str	r3, [r7, #16]
1610:Drivers/VL53L0X/core/src/vl53l0x_api.c **** 				LimitCheckId, TempFix1616);
1611:Drivers/VL53L0X/core/src/vl53l0x_api.c **** 			LimitCheckDisable = 0;
 4742              		.loc 1 1611 22
 4743 004e 0023     		movs	r3, #0
 4744 0050 BB73     		strb	r3, [r7, #14]
1612:Drivers/VL53L0X/core/src/vl53l0x_api.c **** 			/* this to be sure to have either 0 or 1 */
1613:Drivers/VL53L0X/core/src/vl53l0x_api.c **** 			LimitCheckEnableInt = 1;
 4745              		.loc 1 1613 24
 4746 0052 0123     		movs	r3, #1
 4747 0054 FB73     		strb	r3, [r7, #15]
 4748              	.L278:
1614:Drivers/VL53L0X/core/src/vl53l0x_api.c **** 		}
1615:Drivers/VL53L0X/core/src/vl53l0x_api.c **** 
1616:Drivers/VL53L0X/core/src/vl53l0x_api.c **** 		switch (LimitCheckId) {
 4749              		.loc 1 1616 3
 4750 0056 7B88     		ldrh	r3, [r7, #2]
 4751 0058 052B     		cmp	r3, #5
 4752 005a 41D8     		bhi	.L279
 4753 005c 01A2     		adr	r2, .L281
 4754 005e 52F823F0 		ldr	pc, [r2, r3, lsl #2]
 4755 0062 00BF     		.p2align 2
 4756              	.L281:
 4757 0064 7D000000 		.word	.L286+1
 4758 0068 87000000 		.word	.L285+1
 4759 006c 9D000000 		.word	.L284+1
 4760 0070 A7000000 		.word	.L283+1
 4761 0074 B1000000 		.word	.L282+1
 4762 0078 C9000000 		.word	.L280+1
 4763              		.p2align 1
 4764              	.L286:
1617:Drivers/VL53L0X/core/src/vl53l0x_api.c **** 
1618:Drivers/VL53L0X/core/src/vl53l0x_api.c **** 		case VL53L0X_CHECKENABLE_SIGMA_FINAL_RANGE:
1619:Drivers/VL53L0X/core/src/vl53l0x_api.c **** 			/* internal computation: */
1620:Drivers/VL53L0X/core/src/vl53l0x_api.c **** 			VL53L0X_SETARRAYPARAMETERFIELD(Dev, LimitChecksEnable,
 4765              		.loc 1 1620 4
 4766 007c 7B68     		ldr	r3, [r7, #4]
 4767 007e FA7B     		ldrb	r2, [r7, #15]
 4768 0080 83F82820 		strb	r2, [r3, #40]
1621:Drivers/VL53L0X/core/src/vl53l0x_api.c **** 				VL53L0X_CHECKENABLE_SIGMA_FINAL_RANGE,
1622:Drivers/VL53L0X/core/src/vl53l0x_api.c **** 				LimitCheckEnableInt);
1623:Drivers/VL53L0X/core/src/vl53l0x_api.c **** 
1624:Drivers/VL53L0X/core/src/vl53l0x_api.c **** 			break;
ARM GAS  C:\Users\Morroway\AppData\Local\Temp\ccih4NWY.s 			page 114


 4769              		.loc 1 1624 4
 4770 0084 2EE0     		b	.L276
 4771              	.L285:
1625:Drivers/VL53L0X/core/src/vl53l0x_api.c **** 
1626:Drivers/VL53L0X/core/src/vl53l0x_api.c **** 		case VL53L0X_CHECKENABLE_SIGNAL_RATE_FINAL_RANGE:
1627:Drivers/VL53L0X/core/src/vl53l0x_api.c **** 
1628:Drivers/VL53L0X/core/src/vl53l0x_api.c **** 			Status = VL53L0X_WrWord(Dev,
1629:Drivers/VL53L0X/core/src/vl53l0x_api.c **** 			VL53L0X_REG_FINAL_RANGE_CONFIG_MIN_COUNT_RATE_RTN_LIMIT,
1630:Drivers/VL53L0X/core/src/vl53l0x_api.c **** 				VL53L0X_FIXPOINT1616TOFIXPOINT97(TempFix1616));
 4772              		.loc 1 1630 5
 4773 0086 3B69     		ldr	r3, [r7, #16]
 4774 0088 5B0A     		lsrs	r3, r3, #9
1628:Drivers/VL53L0X/core/src/vl53l0x_api.c **** 			VL53L0X_REG_FINAL_RANGE_CONFIG_MIN_COUNT_RATE_RTN_LIMIT,
 4775              		.loc 1 1628 13
 4776 008a 9BB2     		uxth	r3, r3
 4777 008c 1A46     		mov	r2, r3
 4778 008e 4421     		movs	r1, #68
 4779 0090 7868     		ldr	r0, [r7, #4]
 4780 0092 FFF7FEFF 		bl	VL53L0X_WrWord
 4781 0096 0346     		mov	r3, r0
 4782 0098 FB75     		strb	r3, [r7, #23]
1631:Drivers/VL53L0X/core/src/vl53l0x_api.c **** 
1632:Drivers/VL53L0X/core/src/vl53l0x_api.c **** 			break;
 4783              		.loc 1 1632 4
 4784 009a 23E0     		b	.L276
 4785              	.L284:
1633:Drivers/VL53L0X/core/src/vl53l0x_api.c **** 
1634:Drivers/VL53L0X/core/src/vl53l0x_api.c **** 		case VL53L0X_CHECKENABLE_SIGNAL_REF_CLIP:
1635:Drivers/VL53L0X/core/src/vl53l0x_api.c **** 
1636:Drivers/VL53L0X/core/src/vl53l0x_api.c **** 			/* internal computation: */
1637:Drivers/VL53L0X/core/src/vl53l0x_api.c **** 			VL53L0X_SETARRAYPARAMETERFIELD(Dev, LimitChecksEnable,
 4786              		.loc 1 1637 4
 4787 009c 7B68     		ldr	r3, [r7, #4]
 4788 009e FA7B     		ldrb	r2, [r7, #15]
 4789 00a0 83F82A20 		strb	r2, [r3, #42]
1638:Drivers/VL53L0X/core/src/vl53l0x_api.c **** 				VL53L0X_CHECKENABLE_SIGNAL_REF_CLIP,
1639:Drivers/VL53L0X/core/src/vl53l0x_api.c **** 				LimitCheckEnableInt);
1640:Drivers/VL53L0X/core/src/vl53l0x_api.c **** 
1641:Drivers/VL53L0X/core/src/vl53l0x_api.c **** 			break;
 4790              		.loc 1 1641 4
 4791 00a4 1EE0     		b	.L276
 4792              	.L283:
1642:Drivers/VL53L0X/core/src/vl53l0x_api.c **** 
1643:Drivers/VL53L0X/core/src/vl53l0x_api.c **** 		case VL53L0X_CHECKENABLE_RANGE_IGNORE_THRESHOLD:
1644:Drivers/VL53L0X/core/src/vl53l0x_api.c **** 
1645:Drivers/VL53L0X/core/src/vl53l0x_api.c **** 			/* internal computation: */
1646:Drivers/VL53L0X/core/src/vl53l0x_api.c **** 			VL53L0X_SETARRAYPARAMETERFIELD(Dev, LimitChecksEnable,
 4793              		.loc 1 1646 4
 4794 00a6 7B68     		ldr	r3, [r7, #4]
 4795 00a8 FA7B     		ldrb	r2, [r7, #15]
 4796 00aa 83F82B20 		strb	r2, [r3, #43]
1647:Drivers/VL53L0X/core/src/vl53l0x_api.c **** 				VL53L0X_CHECKENABLE_RANGE_IGNORE_THRESHOLD,
1648:Drivers/VL53L0X/core/src/vl53l0x_api.c **** 				LimitCheckEnableInt);
1649:Drivers/VL53L0X/core/src/vl53l0x_api.c **** 
1650:Drivers/VL53L0X/core/src/vl53l0x_api.c **** 			break;
 4797              		.loc 1 1650 4
 4798 00ae 19E0     		b	.L276
ARM GAS  C:\Users\Morroway\AppData\Local\Temp\ccih4NWY.s 			page 115


 4799              	.L282:
1651:Drivers/VL53L0X/core/src/vl53l0x_api.c **** 
1652:Drivers/VL53L0X/core/src/vl53l0x_api.c **** 		case VL53L0X_CHECKENABLE_SIGNAL_RATE_MSRC:
1653:Drivers/VL53L0X/core/src/vl53l0x_api.c **** 
1654:Drivers/VL53L0X/core/src/vl53l0x_api.c **** 			Temp8 = (uint8_t)(LimitCheckDisable << 1);
 4800              		.loc 1 1654 10
 4801 00b0 BB7B     		ldrb	r3, [r7, #14]
 4802 00b2 5B00     		lsls	r3, r3, #1
 4803 00b4 7B73     		strb	r3, [r7, #13]
1655:Drivers/VL53L0X/core/src/vl53l0x_api.c **** 			Status = VL53L0X_UpdateByte(Dev,
 4804              		.loc 1 1655 13
 4805 00b6 7B7B     		ldrb	r3, [r7, #13]	@ zero_extendqisi2
 4806 00b8 FE22     		movs	r2, #254
 4807 00ba 6021     		movs	r1, #96
 4808 00bc 7868     		ldr	r0, [r7, #4]
 4809 00be FFF7FEFF 		bl	VL53L0X_UpdateByte
 4810 00c2 0346     		mov	r3, r0
 4811 00c4 FB75     		strb	r3, [r7, #23]
1656:Drivers/VL53L0X/core/src/vl53l0x_api.c **** 				VL53L0X_REG_MSRC_CONFIG_CONTROL,
1657:Drivers/VL53L0X/core/src/vl53l0x_api.c **** 				0xFE, Temp8);
1658:Drivers/VL53L0X/core/src/vl53l0x_api.c **** 
1659:Drivers/VL53L0X/core/src/vl53l0x_api.c **** 			break;
 4812              		.loc 1 1659 4
 4813 00c6 0DE0     		b	.L276
 4814              	.L280:
1660:Drivers/VL53L0X/core/src/vl53l0x_api.c **** 
1661:Drivers/VL53L0X/core/src/vl53l0x_api.c **** 		case VL53L0X_CHECKENABLE_SIGNAL_RATE_PRE_RANGE:
1662:Drivers/VL53L0X/core/src/vl53l0x_api.c **** 
1663:Drivers/VL53L0X/core/src/vl53l0x_api.c **** 			Temp8 = (uint8_t)(LimitCheckDisable << 4);
 4815              		.loc 1 1663 10
 4816 00c8 BB7B     		ldrb	r3, [r7, #14]
 4817 00ca 1B01     		lsls	r3, r3, #4
 4818 00cc 7B73     		strb	r3, [r7, #13]
1664:Drivers/VL53L0X/core/src/vl53l0x_api.c **** 			Status = VL53L0X_UpdateByte(Dev,
 4819              		.loc 1 1664 13
 4820 00ce 7B7B     		ldrb	r3, [r7, #13]	@ zero_extendqisi2
 4821 00d0 EF22     		movs	r2, #239
 4822 00d2 6021     		movs	r1, #96
 4823 00d4 7868     		ldr	r0, [r7, #4]
 4824 00d6 FFF7FEFF 		bl	VL53L0X_UpdateByte
 4825 00da 0346     		mov	r3, r0
 4826 00dc FB75     		strb	r3, [r7, #23]
1665:Drivers/VL53L0X/core/src/vl53l0x_api.c **** 				VL53L0X_REG_MSRC_CONFIG_CONTROL,
1666:Drivers/VL53L0X/core/src/vl53l0x_api.c **** 				0xEF, Temp8);
1667:Drivers/VL53L0X/core/src/vl53l0x_api.c **** 
1668:Drivers/VL53L0X/core/src/vl53l0x_api.c **** 			break;
 4827              		.loc 1 1668 4
 4828 00de 01E0     		b	.L276
 4829              	.L279:
1669:Drivers/VL53L0X/core/src/vl53l0x_api.c **** 
1670:Drivers/VL53L0X/core/src/vl53l0x_api.c **** 
1671:Drivers/VL53L0X/core/src/vl53l0x_api.c **** 		default:
1672:Drivers/VL53L0X/core/src/vl53l0x_api.c **** 			Status = VL53L0X_ERROR_INVALID_PARAMS;
 4830              		.loc 1 1672 11
 4831 00e0 FC23     		movs	r3, #252
 4832 00e2 FB75     		strb	r3, [r7, #23]
 4833              	.L276:
ARM GAS  C:\Users\Morroway\AppData\Local\Temp\ccih4NWY.s 			page 116


1673:Drivers/VL53L0X/core/src/vl53l0x_api.c **** 
1674:Drivers/VL53L0X/core/src/vl53l0x_api.c **** 		}
1675:Drivers/VL53L0X/core/src/vl53l0x_api.c **** 
1676:Drivers/VL53L0X/core/src/vl53l0x_api.c **** 	}
1677:Drivers/VL53L0X/core/src/vl53l0x_api.c **** 
1678:Drivers/VL53L0X/core/src/vl53l0x_api.c **** 	if (Status == VL53L0X_ERROR_NONE) {
 4834              		.loc 1 1678 5
 4835 00e4 97F91730 		ldrsb	r3, [r7, #23]
 4836 00e8 002B     		cmp	r3, #0
 4837 00ea 0FD1     		bne	.L287
1679:Drivers/VL53L0X/core/src/vl53l0x_api.c **** 		if (LimitCheckEnable == 0) {
 4838              		.loc 1 1679 6
 4839 00ec 7B78     		ldrb	r3, [r7, #1]	@ zero_extendqisi2
 4840 00ee 002B     		cmp	r3, #0
 4841 00f0 06D1     		bne	.L288
1680:Drivers/VL53L0X/core/src/vl53l0x_api.c **** 			VL53L0X_SETARRAYPARAMETERFIELD(Dev, LimitChecksEnable,
 4842              		.loc 1 1680 4
 4843 00f2 7B88     		ldrh	r3, [r7, #2]
 4844 00f4 7A68     		ldr	r2, [r7, #4]
 4845 00f6 1344     		add	r3, r3, r2
 4846 00f8 0022     		movs	r2, #0
 4847 00fa 83F82820 		strb	r2, [r3, #40]
 4848 00fe 05E0     		b	.L287
 4849              	.L288:
1681:Drivers/VL53L0X/core/src/vl53l0x_api.c **** 				LimitCheckId, 0);
1682:Drivers/VL53L0X/core/src/vl53l0x_api.c **** 		} else {
1683:Drivers/VL53L0X/core/src/vl53l0x_api.c **** 			VL53L0X_SETARRAYPARAMETERFIELD(Dev, LimitChecksEnable,
 4850              		.loc 1 1683 4
 4851 0100 7B88     		ldrh	r3, [r7, #2]
 4852 0102 7A68     		ldr	r2, [r7, #4]
 4853 0104 1344     		add	r3, r3, r2
 4854 0106 0122     		movs	r2, #1
 4855 0108 83F82820 		strb	r2, [r3, #40]
 4856              	.L287:
1684:Drivers/VL53L0X/core/src/vl53l0x_api.c **** 				LimitCheckId, 1);
1685:Drivers/VL53L0X/core/src/vl53l0x_api.c **** 		}
1686:Drivers/VL53L0X/core/src/vl53l0x_api.c **** 	}
1687:Drivers/VL53L0X/core/src/vl53l0x_api.c **** 
1688:Drivers/VL53L0X/core/src/vl53l0x_api.c **** 	LOG_FUNCTION_END(Status);
1689:Drivers/VL53L0X/core/src/vl53l0x_api.c **** 	return Status;
 4857              		.loc 1 1689 9
 4858 010c 97F91730 		ldrsb	r3, [r7, #23]
1690:Drivers/VL53L0X/core/src/vl53l0x_api.c **** }
 4859              		.loc 1 1690 1
 4860 0110 1846     		mov	r0, r3
 4861 0112 1837     		adds	r7, r7, #24
 4862              		.cfi_def_cfa_offset 8
 4863 0114 BD46     		mov	sp, r7
 4864              		.cfi_def_cfa_register 13
 4865              		@ sp needed
 4866 0116 80BD     		pop	{r7, pc}
 4867              		.cfi_endproc
 4868              	.LFE381:
 4870              		.section	.text.VL53L0X_GetLimitCheckEnable,"ax",%progbits
 4871              		.align	1
 4872              		.global	VL53L0X_GetLimitCheckEnable
 4873              		.syntax unified
ARM GAS  C:\Users\Morroway\AppData\Local\Temp\ccih4NWY.s 			page 117


 4874              		.thumb
 4875              		.thumb_func
 4877              	VL53L0X_GetLimitCheckEnable:
 4878              	.LFB382:
1691:Drivers/VL53L0X/core/src/vl53l0x_api.c **** 
1692:Drivers/VL53L0X/core/src/vl53l0x_api.c **** VL53L0X_Error VL53L0X_GetLimitCheckEnable(VL53L0X_DEV Dev, uint16_t LimitCheckId,
1693:Drivers/VL53L0X/core/src/vl53l0x_api.c **** 	uint8_t *pLimitCheckEnable)
1694:Drivers/VL53L0X/core/src/vl53l0x_api.c **** {
 4879              		.loc 1 1694 1
 4880              		.cfi_startproc
 4881              		@ args = 0, pretend = 0, frame = 24
 4882              		@ frame_needed = 1, uses_anonymous_args = 0
 4883              		@ link register save eliminated.
 4884 0000 80B4     		push	{r7}
 4885              		.cfi_def_cfa_offset 4
 4886              		.cfi_offset 7, -4
 4887 0002 87B0     		sub	sp, sp, #28
 4888              		.cfi_def_cfa_offset 32
 4889 0004 00AF     		add	r7, sp, #0
 4890              		.cfi_def_cfa_register 7
 4891 0006 F860     		str	r0, [r7, #12]
 4892 0008 0B46     		mov	r3, r1
 4893 000a 7A60     		str	r2, [r7, #4]
 4894 000c 7B81     		strh	r3, [r7, #10]	@ movhi
1695:Drivers/VL53L0X/core/src/vl53l0x_api.c **** 	VL53L0X_Error Status = VL53L0X_ERROR_NONE;
 4895              		.loc 1 1695 16
 4896 000e 0023     		movs	r3, #0
 4897 0010 FB75     		strb	r3, [r7, #23]
1696:Drivers/VL53L0X/core/src/vl53l0x_api.c **** 	uint8_t Temp8;
1697:Drivers/VL53L0X/core/src/vl53l0x_api.c **** 
1698:Drivers/VL53L0X/core/src/vl53l0x_api.c **** 	LOG_FUNCTION_START("");
1699:Drivers/VL53L0X/core/src/vl53l0x_api.c **** 
1700:Drivers/VL53L0X/core/src/vl53l0x_api.c **** 	if (LimitCheckId >= VL53L0X_CHECKENABLE_NUMBER_OF_CHECKS) {
 4898              		.loc 1 1700 5
 4899 0012 7B89     		ldrh	r3, [r7, #10]
 4900 0014 052B     		cmp	r3, #5
 4901 0016 05D9     		bls	.L291
1701:Drivers/VL53L0X/core/src/vl53l0x_api.c **** 		Status = VL53L0X_ERROR_INVALID_PARAMS;
 4902              		.loc 1 1701 10
 4903 0018 FC23     		movs	r3, #252
 4904 001a FB75     		strb	r3, [r7, #23]
1702:Drivers/VL53L0X/core/src/vl53l0x_api.c **** 		*pLimitCheckEnable = 0;
 4905              		.loc 1 1702 22
 4906 001c 7B68     		ldr	r3, [r7, #4]
 4907 001e 0022     		movs	r2, #0
 4908 0020 1A70     		strb	r2, [r3]
 4909 0022 08E0     		b	.L292
 4910              	.L291:
1703:Drivers/VL53L0X/core/src/vl53l0x_api.c **** 	} else {
1704:Drivers/VL53L0X/core/src/vl53l0x_api.c **** 		VL53L0X_GETARRAYPARAMETERFIELD(Dev, LimitChecksEnable,
 4911              		.loc 1 1704 3
 4912 0024 7B89     		ldrh	r3, [r7, #10]
 4913 0026 FA68     		ldr	r2, [r7, #12]
 4914 0028 1344     		add	r3, r3, r2
 4915 002a 93F82830 		ldrb	r3, [r3, #40]
 4916 002e BB75     		strb	r3, [r7, #22]
1705:Drivers/VL53L0X/core/src/vl53l0x_api.c **** 			LimitCheckId, Temp8);
ARM GAS  C:\Users\Morroway\AppData\Local\Temp\ccih4NWY.s 			page 118


1706:Drivers/VL53L0X/core/src/vl53l0x_api.c **** 		*pLimitCheckEnable = Temp8;
 4917              		.loc 1 1706 22
 4918 0030 7B68     		ldr	r3, [r7, #4]
 4919 0032 BA7D     		ldrb	r2, [r7, #22]
 4920 0034 1A70     		strb	r2, [r3]
 4921              	.L292:
1707:Drivers/VL53L0X/core/src/vl53l0x_api.c **** 	}
1708:Drivers/VL53L0X/core/src/vl53l0x_api.c **** 
1709:Drivers/VL53L0X/core/src/vl53l0x_api.c **** 	LOG_FUNCTION_END(Status);
1710:Drivers/VL53L0X/core/src/vl53l0x_api.c **** 	return Status;
 4922              		.loc 1 1710 9
 4923 0036 97F91730 		ldrsb	r3, [r7, #23]
1711:Drivers/VL53L0X/core/src/vl53l0x_api.c **** }
 4924              		.loc 1 1711 1
 4925 003a 1846     		mov	r0, r3
 4926 003c 1C37     		adds	r7, r7, #28
 4927              		.cfi_def_cfa_offset 4
 4928 003e BD46     		mov	sp, r7
 4929              		.cfi_def_cfa_register 13
 4930              		@ sp needed
 4931 0040 5DF8047B 		ldr	r7, [sp], #4
 4932              		.cfi_restore 7
 4933              		.cfi_def_cfa_offset 0
 4934 0044 7047     		bx	lr
 4935              		.cfi_endproc
 4936              	.LFE382:
 4938              		.section	.text.VL53L0X_SetLimitCheckValue,"ax",%progbits
 4939              		.align	1
 4940              		.global	VL53L0X_SetLimitCheckValue
 4941              		.syntax unified
 4942              		.thumb
 4943              		.thumb_func
 4945              	VL53L0X_SetLimitCheckValue:
 4946              	.LFB383:
1712:Drivers/VL53L0X/core/src/vl53l0x_api.c **** 
1713:Drivers/VL53L0X/core/src/vl53l0x_api.c **** VL53L0X_Error VL53L0X_SetLimitCheckValue(VL53L0X_DEV Dev, uint16_t LimitCheckId,
1714:Drivers/VL53L0X/core/src/vl53l0x_api.c **** 	FixPoint1616_t LimitCheckValue)
1715:Drivers/VL53L0X/core/src/vl53l0x_api.c **** {
 4947              		.loc 1 1715 1
 4948              		.cfi_startproc
 4949              		@ args = 0, pretend = 0, frame = 24
 4950              		@ frame_needed = 1, uses_anonymous_args = 0
 4951 0000 80B5     		push	{r7, lr}
 4952              		.cfi_def_cfa_offset 8
 4953              		.cfi_offset 7, -8
 4954              		.cfi_offset 14, -4
 4955 0002 86B0     		sub	sp, sp, #24
 4956              		.cfi_def_cfa_offset 32
 4957 0004 00AF     		add	r7, sp, #0
 4958              		.cfi_def_cfa_register 7
 4959 0006 F860     		str	r0, [r7, #12]
 4960 0008 0B46     		mov	r3, r1
 4961 000a 7A60     		str	r2, [r7, #4]
 4962 000c 7B81     		strh	r3, [r7, #10]	@ movhi
1716:Drivers/VL53L0X/core/src/vl53l0x_api.c **** 	VL53L0X_Error Status = VL53L0X_ERROR_NONE;
 4963              		.loc 1 1716 16
 4964 000e 0023     		movs	r3, #0
ARM GAS  C:\Users\Morroway\AppData\Local\Temp\ccih4NWY.s 			page 119


 4965 0010 FB75     		strb	r3, [r7, #23]
1717:Drivers/VL53L0X/core/src/vl53l0x_api.c **** 	uint8_t Temp8;
1718:Drivers/VL53L0X/core/src/vl53l0x_api.c **** 
1719:Drivers/VL53L0X/core/src/vl53l0x_api.c **** 	LOG_FUNCTION_START("");
1720:Drivers/VL53L0X/core/src/vl53l0x_api.c **** 
1721:Drivers/VL53L0X/core/src/vl53l0x_api.c **** 	VL53L0X_GETARRAYPARAMETERFIELD(Dev, LimitChecksEnable, LimitCheckId,
 4966              		.loc 1 1721 2
 4967 0012 7B89     		ldrh	r3, [r7, #10]
 4968 0014 FA68     		ldr	r2, [r7, #12]
 4969 0016 1344     		add	r3, r3, r2
 4970 0018 93F82830 		ldrb	r3, [r3, #40]
 4971 001c BB75     		strb	r3, [r7, #22]
1722:Drivers/VL53L0X/core/src/vl53l0x_api.c **** 		Temp8);
1723:Drivers/VL53L0X/core/src/vl53l0x_api.c **** 
1724:Drivers/VL53L0X/core/src/vl53l0x_api.c **** 	if (Temp8 == 0) { /* disabled write only internal value */
 4972              		.loc 1 1724 5
 4973 001e BB7D     		ldrb	r3, [r7, #22]	@ zero_extendqisi2
 4974 0020 002B     		cmp	r3, #0
 4975 0022 07D1     		bne	.L295
1725:Drivers/VL53L0X/core/src/vl53l0x_api.c **** 		VL53L0X_SETARRAYPARAMETERFIELD(Dev, LimitChecksValue,
 4976              		.loc 1 1725 3
 4977 0024 7B89     		ldrh	r3, [r7, #10]
 4978 0026 FA68     		ldr	r2, [r7, #12]
 4979 0028 0C33     		adds	r3, r3, #12
 4980 002a 9B00     		lsls	r3, r3, #2
 4981 002c 1344     		add	r3, r3, r2
 4982 002e 7A68     		ldr	r2, [r7, #4]
 4983 0030 5A60     		str	r2, [r3, #4]
 4984 0032 40E0     		b	.L296
 4985              	.L295:
1726:Drivers/VL53L0X/core/src/vl53l0x_api.c **** 			LimitCheckId, LimitCheckValue);
1727:Drivers/VL53L0X/core/src/vl53l0x_api.c **** 	} else {
1728:Drivers/VL53L0X/core/src/vl53l0x_api.c **** 
1729:Drivers/VL53L0X/core/src/vl53l0x_api.c **** 		switch (LimitCheckId) {
 4986              		.loc 1 1729 3
 4987 0034 7B89     		ldrh	r3, [r7, #10]
 4988 0036 052B     		cmp	r3, #5
 4989 0038 30D8     		bhi	.L297
 4990 003a 01A2     		adr	r2, .L299
 4991 003c 52F823F0 		ldr	pc, [r2, r3, lsl #2]
 4992              		.p2align 2
 4993              	.L299:
 4994 0040 59000000 		.word	.L303+1
 4995 0044 61000000 		.word	.L302+1
 4996 0048 77000000 		.word	.L301+1
 4997 004c 7F000000 		.word	.L300+1
 4998 0050 87000000 		.word	.L298+1
 4999 0054 87000000 		.word	.L298+1
 5000              		.p2align 1
 5001              	.L303:
1730:Drivers/VL53L0X/core/src/vl53l0x_api.c **** 
1731:Drivers/VL53L0X/core/src/vl53l0x_api.c **** 		case VL53L0X_CHECKENABLE_SIGMA_FINAL_RANGE:
1732:Drivers/VL53L0X/core/src/vl53l0x_api.c **** 			/* internal computation: */
1733:Drivers/VL53L0X/core/src/vl53l0x_api.c **** 			VL53L0X_SETARRAYPARAMETERFIELD(Dev, LimitChecksValue,
 5002              		.loc 1 1733 4
 5003 0058 FB68     		ldr	r3, [r7, #12]
 5004 005a 7A68     		ldr	r2, [r7, #4]
ARM GAS  C:\Users\Morroway\AppData\Local\Temp\ccih4NWY.s 			page 120


 5005 005c 5A63     		str	r2, [r3, #52]
1734:Drivers/VL53L0X/core/src/vl53l0x_api.c **** 				VL53L0X_CHECKENABLE_SIGMA_FINAL_RANGE,
1735:Drivers/VL53L0X/core/src/vl53l0x_api.c **** 				LimitCheckValue);
1736:Drivers/VL53L0X/core/src/vl53l0x_api.c **** 			break;
 5006              		.loc 1 1736 4
 5007 005e 1FE0     		b	.L304
 5008              	.L302:
1737:Drivers/VL53L0X/core/src/vl53l0x_api.c **** 
1738:Drivers/VL53L0X/core/src/vl53l0x_api.c **** 		case VL53L0X_CHECKENABLE_SIGNAL_RATE_FINAL_RANGE:
1739:Drivers/VL53L0X/core/src/vl53l0x_api.c **** 
1740:Drivers/VL53L0X/core/src/vl53l0x_api.c **** 			Status = VL53L0X_WrWord(Dev,
1741:Drivers/VL53L0X/core/src/vl53l0x_api.c **** 			VL53L0X_REG_FINAL_RANGE_CONFIG_MIN_COUNT_RATE_RTN_LIMIT,
1742:Drivers/VL53L0X/core/src/vl53l0x_api.c **** 				VL53L0X_FIXPOINT1616TOFIXPOINT97(
 5009              		.loc 1 1742 5
 5010 0060 7B68     		ldr	r3, [r7, #4]
 5011 0062 5B0A     		lsrs	r3, r3, #9
1740:Drivers/VL53L0X/core/src/vl53l0x_api.c **** 			VL53L0X_REG_FINAL_RANGE_CONFIG_MIN_COUNT_RATE_RTN_LIMIT,
 5012              		.loc 1 1740 13
 5013 0064 9BB2     		uxth	r3, r3
 5014 0066 1A46     		mov	r2, r3
 5015 0068 4421     		movs	r1, #68
 5016 006a F868     		ldr	r0, [r7, #12]
 5017 006c FFF7FEFF 		bl	VL53L0X_WrWord
 5018 0070 0346     		mov	r3, r0
 5019 0072 FB75     		strb	r3, [r7, #23]
1743:Drivers/VL53L0X/core/src/vl53l0x_api.c **** 					LimitCheckValue));
1744:Drivers/VL53L0X/core/src/vl53l0x_api.c **** 
1745:Drivers/VL53L0X/core/src/vl53l0x_api.c **** 			break;
 5020              		.loc 1 1745 4
 5021 0074 14E0     		b	.L304
 5022              	.L301:
1746:Drivers/VL53L0X/core/src/vl53l0x_api.c **** 
1747:Drivers/VL53L0X/core/src/vl53l0x_api.c **** 		case VL53L0X_CHECKENABLE_SIGNAL_REF_CLIP:
1748:Drivers/VL53L0X/core/src/vl53l0x_api.c **** 
1749:Drivers/VL53L0X/core/src/vl53l0x_api.c **** 			/* internal computation: */
1750:Drivers/VL53L0X/core/src/vl53l0x_api.c **** 			VL53L0X_SETARRAYPARAMETERFIELD(Dev, LimitChecksValue,
 5023              		.loc 1 1750 4
 5024 0076 FB68     		ldr	r3, [r7, #12]
 5025 0078 7A68     		ldr	r2, [r7, #4]
 5026 007a DA63     		str	r2, [r3, #60]
1751:Drivers/VL53L0X/core/src/vl53l0x_api.c **** 				VL53L0X_CHECKENABLE_SIGNAL_REF_CLIP,
1752:Drivers/VL53L0X/core/src/vl53l0x_api.c **** 				LimitCheckValue);
1753:Drivers/VL53L0X/core/src/vl53l0x_api.c **** 
1754:Drivers/VL53L0X/core/src/vl53l0x_api.c **** 			break;
 5027              		.loc 1 1754 4
 5028 007c 10E0     		b	.L304
 5029              	.L300:
1755:Drivers/VL53L0X/core/src/vl53l0x_api.c **** 
1756:Drivers/VL53L0X/core/src/vl53l0x_api.c **** 		case VL53L0X_CHECKENABLE_RANGE_IGNORE_THRESHOLD:
1757:Drivers/VL53L0X/core/src/vl53l0x_api.c **** 
1758:Drivers/VL53L0X/core/src/vl53l0x_api.c **** 			/* internal computation: */
1759:Drivers/VL53L0X/core/src/vl53l0x_api.c **** 			VL53L0X_SETARRAYPARAMETERFIELD(Dev, LimitChecksValue,
 5030              		.loc 1 1759 4
 5031 007e FB68     		ldr	r3, [r7, #12]
 5032 0080 7A68     		ldr	r2, [r7, #4]
 5033 0082 1A64     		str	r2, [r3, #64]
1760:Drivers/VL53L0X/core/src/vl53l0x_api.c **** 				VL53L0X_CHECKENABLE_RANGE_IGNORE_THRESHOLD,
ARM GAS  C:\Users\Morroway\AppData\Local\Temp\ccih4NWY.s 			page 121


1761:Drivers/VL53L0X/core/src/vl53l0x_api.c **** 				LimitCheckValue);
1762:Drivers/VL53L0X/core/src/vl53l0x_api.c **** 
1763:Drivers/VL53L0X/core/src/vl53l0x_api.c **** 			break;
 5034              		.loc 1 1763 4
 5035 0084 0CE0     		b	.L304
 5036              	.L298:
1764:Drivers/VL53L0X/core/src/vl53l0x_api.c **** 
1765:Drivers/VL53L0X/core/src/vl53l0x_api.c **** 		case VL53L0X_CHECKENABLE_SIGNAL_RATE_MSRC:
1766:Drivers/VL53L0X/core/src/vl53l0x_api.c **** 		case VL53L0X_CHECKENABLE_SIGNAL_RATE_PRE_RANGE:
1767:Drivers/VL53L0X/core/src/vl53l0x_api.c **** 
1768:Drivers/VL53L0X/core/src/vl53l0x_api.c **** 			Status = VL53L0X_WrWord(Dev,
1769:Drivers/VL53L0X/core/src/vl53l0x_api.c **** 				VL53L0X_REG_PRE_RANGE_MIN_COUNT_RATE_RTN_LIMIT,
1770:Drivers/VL53L0X/core/src/vl53l0x_api.c **** 				VL53L0X_FIXPOINT1616TOFIXPOINT97(
 5037              		.loc 1 1770 5
 5038 0086 7B68     		ldr	r3, [r7, #4]
 5039 0088 5B0A     		lsrs	r3, r3, #9
1768:Drivers/VL53L0X/core/src/vl53l0x_api.c **** 				VL53L0X_REG_PRE_RANGE_MIN_COUNT_RATE_RTN_LIMIT,
 5040              		.loc 1 1768 13
 5041 008a 9BB2     		uxth	r3, r3
 5042 008c 1A46     		mov	r2, r3
 5043 008e 6421     		movs	r1, #100
 5044 0090 F868     		ldr	r0, [r7, #12]
 5045 0092 FFF7FEFF 		bl	VL53L0X_WrWord
 5046 0096 0346     		mov	r3, r0
 5047 0098 FB75     		strb	r3, [r7, #23]
1771:Drivers/VL53L0X/core/src/vl53l0x_api.c **** 					LimitCheckValue));
1772:Drivers/VL53L0X/core/src/vl53l0x_api.c **** 
1773:Drivers/VL53L0X/core/src/vl53l0x_api.c **** 			break;
 5048              		.loc 1 1773 4
 5049 009a 01E0     		b	.L304
 5050              	.L297:
1774:Drivers/VL53L0X/core/src/vl53l0x_api.c **** 
1775:Drivers/VL53L0X/core/src/vl53l0x_api.c **** 		default:
1776:Drivers/VL53L0X/core/src/vl53l0x_api.c **** 			Status = VL53L0X_ERROR_INVALID_PARAMS;
 5051              		.loc 1 1776 11
 5052 009c FC23     		movs	r3, #252
 5053 009e FB75     		strb	r3, [r7, #23]
 5054              	.L304:
1777:Drivers/VL53L0X/core/src/vl53l0x_api.c **** 
1778:Drivers/VL53L0X/core/src/vl53l0x_api.c **** 		}
1779:Drivers/VL53L0X/core/src/vl53l0x_api.c **** 
1780:Drivers/VL53L0X/core/src/vl53l0x_api.c **** 		if (Status == VL53L0X_ERROR_NONE) {
 5055              		.loc 1 1780 6
 5056 00a0 97F91730 		ldrsb	r3, [r7, #23]
 5057 00a4 002B     		cmp	r3, #0
 5058 00a6 06D1     		bne	.L296
1781:Drivers/VL53L0X/core/src/vl53l0x_api.c **** 			VL53L0X_SETARRAYPARAMETERFIELD(Dev, LimitChecksValue,
 5059              		.loc 1 1781 4
 5060 00a8 7B89     		ldrh	r3, [r7, #10]
 5061 00aa FA68     		ldr	r2, [r7, #12]
 5062 00ac 0C33     		adds	r3, r3, #12
 5063 00ae 9B00     		lsls	r3, r3, #2
 5064 00b0 1344     		add	r3, r3, r2
 5065 00b2 7A68     		ldr	r2, [r7, #4]
 5066 00b4 5A60     		str	r2, [r3, #4]
 5067              	.L296:
1782:Drivers/VL53L0X/core/src/vl53l0x_api.c **** 				LimitCheckId, LimitCheckValue);
ARM GAS  C:\Users\Morroway\AppData\Local\Temp\ccih4NWY.s 			page 122


1783:Drivers/VL53L0X/core/src/vl53l0x_api.c **** 		}
1784:Drivers/VL53L0X/core/src/vl53l0x_api.c **** 	}
1785:Drivers/VL53L0X/core/src/vl53l0x_api.c **** 
1786:Drivers/VL53L0X/core/src/vl53l0x_api.c **** 	LOG_FUNCTION_END(Status);
1787:Drivers/VL53L0X/core/src/vl53l0x_api.c **** 	return Status;
 5068              		.loc 1 1787 9
 5069 00b6 97F91730 		ldrsb	r3, [r7, #23]
1788:Drivers/VL53L0X/core/src/vl53l0x_api.c **** }
 5070              		.loc 1 1788 1
 5071 00ba 1846     		mov	r0, r3
 5072 00bc 1837     		adds	r7, r7, #24
 5073              		.cfi_def_cfa_offset 8
 5074 00be BD46     		mov	sp, r7
 5075              		.cfi_def_cfa_register 13
 5076              		@ sp needed
 5077 00c0 80BD     		pop	{r7, pc}
 5078              		.cfi_endproc
 5079              	.LFE383:
 5081 00c2 00BF     		.section	.text.VL53L0X_GetLimitCheckValue,"ax",%progbits
 5082              		.align	1
 5083              		.global	VL53L0X_GetLimitCheckValue
 5084              		.syntax unified
 5085              		.thumb
 5086              		.thumb_func
 5088              	VL53L0X_GetLimitCheckValue:
 5089              	.LFB384:
1789:Drivers/VL53L0X/core/src/vl53l0x_api.c **** 
1790:Drivers/VL53L0X/core/src/vl53l0x_api.c **** VL53L0X_Error VL53L0X_GetLimitCheckValue(VL53L0X_DEV Dev, uint16_t LimitCheckId,
1791:Drivers/VL53L0X/core/src/vl53l0x_api.c **** 	FixPoint1616_t *pLimitCheckValue)
1792:Drivers/VL53L0X/core/src/vl53l0x_api.c **** {
 5090              		.loc 1 1792 1
 5091              		.cfi_startproc
 5092              		@ args = 0, pretend = 0, frame = 32
 5093              		@ frame_needed = 1, uses_anonymous_args = 0
 5094 0000 80B5     		push	{r7, lr}
 5095              		.cfi_def_cfa_offset 8
 5096              		.cfi_offset 7, -8
 5097              		.cfi_offset 14, -4
 5098 0002 88B0     		sub	sp, sp, #32
 5099              		.cfi_def_cfa_offset 40
 5100 0004 00AF     		add	r7, sp, #0
 5101              		.cfi_def_cfa_register 7
 5102 0006 F860     		str	r0, [r7, #12]
 5103 0008 0B46     		mov	r3, r1
 5104 000a 7A60     		str	r2, [r7, #4]
 5105 000c 7B81     		strh	r3, [r7, #10]	@ movhi
1793:Drivers/VL53L0X/core/src/vl53l0x_api.c **** 	VL53L0X_Error Status = VL53L0X_ERROR_NONE;
 5106              		.loc 1 1793 16
 5107 000e 0023     		movs	r3, #0
 5108 0010 FB77     		strb	r3, [r7, #31]
1794:Drivers/VL53L0X/core/src/vl53l0x_api.c **** 	uint8_t EnableZeroValue = 0;
 5109              		.loc 1 1794 10
 5110 0012 0023     		movs	r3, #0
 5111 0014 BB77     		strb	r3, [r7, #30]
1795:Drivers/VL53L0X/core/src/vl53l0x_api.c **** 	uint16_t Temp16;
1796:Drivers/VL53L0X/core/src/vl53l0x_api.c **** 	FixPoint1616_t TempFix1616;
1797:Drivers/VL53L0X/core/src/vl53l0x_api.c **** 
ARM GAS  C:\Users\Morroway\AppData\Local\Temp\ccih4NWY.s 			page 123


1798:Drivers/VL53L0X/core/src/vl53l0x_api.c **** 	LOG_FUNCTION_START("");
1799:Drivers/VL53L0X/core/src/vl53l0x_api.c **** 
1800:Drivers/VL53L0X/core/src/vl53l0x_api.c **** 	switch (LimitCheckId) {
 5112              		.loc 1 1800 2
 5113 0016 7B89     		ldrh	r3, [r7, #10]
 5114 0018 052B     		cmp	r3, #5
 5115 001a 47D8     		bhi	.L307
 5116 001c 01A2     		adr	r2, .L309
 5117 001e 52F823F0 		ldr	pc, [r2, r3, lsl #2]
 5118 0022 00BF     		.p2align 2
 5119              	.L309:
 5120 0024 3D000000 		.word	.L313+1
 5121 0028 49000000 		.word	.L312+1
 5122 002c 6F000000 		.word	.L311+1
 5123 0030 7B000000 		.word	.L310+1
 5124 0034 87000000 		.word	.L308+1
 5125 0038 87000000 		.word	.L308+1
 5126              		.p2align 1
 5127              	.L313:
1801:Drivers/VL53L0X/core/src/vl53l0x_api.c **** 
1802:Drivers/VL53L0X/core/src/vl53l0x_api.c **** 	case VL53L0X_CHECKENABLE_SIGMA_FINAL_RANGE:
1803:Drivers/VL53L0X/core/src/vl53l0x_api.c **** 		/* internal computation: */
1804:Drivers/VL53L0X/core/src/vl53l0x_api.c **** 		VL53L0X_GETARRAYPARAMETERFIELD(Dev, LimitChecksValue,
 5128              		.loc 1 1804 3
 5129 003c FB68     		ldr	r3, [r7, #12]
 5130 003e 5B6B     		ldr	r3, [r3, #52]
 5131 0040 BB61     		str	r3, [r7, #24]
1805:Drivers/VL53L0X/core/src/vl53l0x_api.c **** 			VL53L0X_CHECKENABLE_SIGMA_FINAL_RANGE, TempFix1616);
1806:Drivers/VL53L0X/core/src/vl53l0x_api.c **** 		EnableZeroValue = 0;
 5132              		.loc 1 1806 19
 5133 0042 0023     		movs	r3, #0
 5134 0044 BB77     		strb	r3, [r7, #30]
1807:Drivers/VL53L0X/core/src/vl53l0x_api.c **** 		break;
 5135              		.loc 1 1807 3
 5136 0046 33E0     		b	.L314
 5137              	.L312:
1808:Drivers/VL53L0X/core/src/vl53l0x_api.c **** 
1809:Drivers/VL53L0X/core/src/vl53l0x_api.c **** 	case VL53L0X_CHECKENABLE_SIGNAL_RATE_FINAL_RANGE:
1810:Drivers/VL53L0X/core/src/vl53l0x_api.c **** 		Status = VL53L0X_RdWord(Dev,
 5138              		.loc 1 1810 12
 5139 0048 07F11603 		add	r3, r7, #22
 5140 004c 1A46     		mov	r2, r3
 5141 004e 4421     		movs	r1, #68
 5142 0050 F868     		ldr	r0, [r7, #12]
 5143 0052 FFF7FEFF 		bl	VL53L0X_RdWord
 5144 0056 0346     		mov	r3, r0
 5145 0058 FB77     		strb	r3, [r7, #31]
1811:Drivers/VL53L0X/core/src/vl53l0x_api.c **** 		VL53L0X_REG_FINAL_RANGE_CONFIG_MIN_COUNT_RATE_RTN_LIMIT,
1812:Drivers/VL53L0X/core/src/vl53l0x_api.c **** 			&Temp16);
1813:Drivers/VL53L0X/core/src/vl53l0x_api.c **** 		if (Status == VL53L0X_ERROR_NONE)
 5146              		.loc 1 1813 6
 5147 005a 97F91F30 		ldrsb	r3, [r7, #31]
 5148 005e 002B     		cmp	r3, #0
 5149 0060 02D1     		bne	.L315
1814:Drivers/VL53L0X/core/src/vl53l0x_api.c **** 			TempFix1616 = VL53L0X_FIXPOINT97TOFIXPOINT1616(Temp16);
 5150              		.loc 1 1814 18
 5151 0062 FB8A     		ldrh	r3, [r7, #22]
ARM GAS  C:\Users\Morroway\AppData\Local\Temp\ccih4NWY.s 			page 124


 5152 0064 5B02     		lsls	r3, r3, #9
 5153              		.loc 1 1814 16
 5154 0066 BB61     		str	r3, [r7, #24]
 5155              	.L315:
1815:Drivers/VL53L0X/core/src/vl53l0x_api.c **** 
1816:Drivers/VL53L0X/core/src/vl53l0x_api.c **** 
1817:Drivers/VL53L0X/core/src/vl53l0x_api.c **** 		EnableZeroValue = 1;
 5156              		.loc 1 1817 19
 5157 0068 0123     		movs	r3, #1
 5158 006a BB77     		strb	r3, [r7, #30]
1818:Drivers/VL53L0X/core/src/vl53l0x_api.c **** 		break;
 5159              		.loc 1 1818 3
 5160 006c 20E0     		b	.L314
 5161              	.L311:
1819:Drivers/VL53L0X/core/src/vl53l0x_api.c **** 
1820:Drivers/VL53L0X/core/src/vl53l0x_api.c **** 	case VL53L0X_CHECKENABLE_SIGNAL_REF_CLIP:
1821:Drivers/VL53L0X/core/src/vl53l0x_api.c **** 		/* internal computation: */
1822:Drivers/VL53L0X/core/src/vl53l0x_api.c **** 		VL53L0X_GETARRAYPARAMETERFIELD(Dev, LimitChecksValue,
 5162              		.loc 1 1822 3
 5163 006e FB68     		ldr	r3, [r7, #12]
 5164 0070 DB6B     		ldr	r3, [r3, #60]
 5165 0072 BB61     		str	r3, [r7, #24]
1823:Drivers/VL53L0X/core/src/vl53l0x_api.c **** 			VL53L0X_CHECKENABLE_SIGNAL_REF_CLIP, TempFix1616);
1824:Drivers/VL53L0X/core/src/vl53l0x_api.c **** 		EnableZeroValue = 0;
 5166              		.loc 1 1824 19
 5167 0074 0023     		movs	r3, #0
 5168 0076 BB77     		strb	r3, [r7, #30]
1825:Drivers/VL53L0X/core/src/vl53l0x_api.c **** 		break;
 5169              		.loc 1 1825 3
 5170 0078 1AE0     		b	.L314
 5171              	.L310:
1826:Drivers/VL53L0X/core/src/vl53l0x_api.c **** 
1827:Drivers/VL53L0X/core/src/vl53l0x_api.c **** 	case VL53L0X_CHECKENABLE_RANGE_IGNORE_THRESHOLD:
1828:Drivers/VL53L0X/core/src/vl53l0x_api.c **** 		/* internal computation: */
1829:Drivers/VL53L0X/core/src/vl53l0x_api.c **** 		VL53L0X_GETARRAYPARAMETERFIELD(Dev, LimitChecksValue,
 5172              		.loc 1 1829 3
 5173 007a FB68     		ldr	r3, [r7, #12]
 5174 007c 1B6C     		ldr	r3, [r3, #64]
 5175 007e BB61     		str	r3, [r7, #24]
1830:Drivers/VL53L0X/core/src/vl53l0x_api.c **** 			VL53L0X_CHECKENABLE_RANGE_IGNORE_THRESHOLD, TempFix1616);
1831:Drivers/VL53L0X/core/src/vl53l0x_api.c **** 		EnableZeroValue = 0;
 5176              		.loc 1 1831 19
 5177 0080 0023     		movs	r3, #0
 5178 0082 BB77     		strb	r3, [r7, #30]
1832:Drivers/VL53L0X/core/src/vl53l0x_api.c **** 		break;
 5179              		.loc 1 1832 3
 5180 0084 14E0     		b	.L314
 5181              	.L308:
1833:Drivers/VL53L0X/core/src/vl53l0x_api.c **** 
1834:Drivers/VL53L0X/core/src/vl53l0x_api.c **** 	case VL53L0X_CHECKENABLE_SIGNAL_RATE_MSRC:
1835:Drivers/VL53L0X/core/src/vl53l0x_api.c **** 	case VL53L0X_CHECKENABLE_SIGNAL_RATE_PRE_RANGE:
1836:Drivers/VL53L0X/core/src/vl53l0x_api.c **** 		Status = VL53L0X_RdWord(Dev,
 5182              		.loc 1 1836 12
 5183 0086 07F11603 		add	r3, r7, #22
 5184 008a 1A46     		mov	r2, r3
 5185 008c 6421     		movs	r1, #100
 5186 008e F868     		ldr	r0, [r7, #12]
ARM GAS  C:\Users\Morroway\AppData\Local\Temp\ccih4NWY.s 			page 125


 5187 0090 FFF7FEFF 		bl	VL53L0X_RdWord
 5188 0094 0346     		mov	r3, r0
 5189 0096 FB77     		strb	r3, [r7, #31]
1837:Drivers/VL53L0X/core/src/vl53l0x_api.c **** 			VL53L0X_REG_PRE_RANGE_MIN_COUNT_RATE_RTN_LIMIT,
1838:Drivers/VL53L0X/core/src/vl53l0x_api.c **** 			&Temp16);
1839:Drivers/VL53L0X/core/src/vl53l0x_api.c **** 		if (Status == VL53L0X_ERROR_NONE)
 5190              		.loc 1 1839 6
 5191 0098 97F91F30 		ldrsb	r3, [r7, #31]
 5192 009c 002B     		cmp	r3, #0
 5193 009e 02D1     		bne	.L316
1840:Drivers/VL53L0X/core/src/vl53l0x_api.c **** 			TempFix1616 = VL53L0X_FIXPOINT97TOFIXPOINT1616(Temp16);
 5194              		.loc 1 1840 18
 5195 00a0 FB8A     		ldrh	r3, [r7, #22]
 5196 00a2 5B02     		lsls	r3, r3, #9
 5197              		.loc 1 1840 16
 5198 00a4 BB61     		str	r3, [r7, #24]
 5199              	.L316:
1841:Drivers/VL53L0X/core/src/vl53l0x_api.c **** 
1842:Drivers/VL53L0X/core/src/vl53l0x_api.c **** 
1843:Drivers/VL53L0X/core/src/vl53l0x_api.c **** 		EnableZeroValue = 0;
 5200              		.loc 1 1843 19
 5201 00a6 0023     		movs	r3, #0
 5202 00a8 BB77     		strb	r3, [r7, #30]
1844:Drivers/VL53L0X/core/src/vl53l0x_api.c **** 		break;
 5203              		.loc 1 1844 3
 5204 00aa 01E0     		b	.L314
 5205              	.L307:
1845:Drivers/VL53L0X/core/src/vl53l0x_api.c **** 
1846:Drivers/VL53L0X/core/src/vl53l0x_api.c **** 	default:
1847:Drivers/VL53L0X/core/src/vl53l0x_api.c **** 		Status = VL53L0X_ERROR_INVALID_PARAMS;
 5206              		.loc 1 1847 10
 5207 00ac FC23     		movs	r3, #252
 5208 00ae FB77     		strb	r3, [r7, #31]
 5209              	.L314:
1848:Drivers/VL53L0X/core/src/vl53l0x_api.c **** 
1849:Drivers/VL53L0X/core/src/vl53l0x_api.c **** 	}
1850:Drivers/VL53L0X/core/src/vl53l0x_api.c **** 
1851:Drivers/VL53L0X/core/src/vl53l0x_api.c **** 	if (Status == VL53L0X_ERROR_NONE) {
 5210              		.loc 1 1851 5
 5211 00b0 97F91F30 		ldrsb	r3, [r7, #31]
 5212 00b4 002B     		cmp	r3, #0
 5213 00b6 2AD1     		bne	.L317
1852:Drivers/VL53L0X/core/src/vl53l0x_api.c **** 
1853:Drivers/VL53L0X/core/src/vl53l0x_api.c **** 		if (EnableZeroValue == 1) {
 5214              		.loc 1 1853 6
 5215 00b8 BB7F     		ldrb	r3, [r7, #30]	@ zero_extendqisi2
 5216 00ba 012B     		cmp	r3, #1
 5217 00bc 24D1     		bne	.L318
1854:Drivers/VL53L0X/core/src/vl53l0x_api.c **** 
1855:Drivers/VL53L0X/core/src/vl53l0x_api.c **** 			if (TempFix1616 == 0) {
 5218              		.loc 1 1855 7
 5219 00be BB69     		ldr	r3, [r7, #24]
 5220 00c0 002B     		cmp	r3, #0
 5221 00c2 10D1     		bne	.L319
1856:Drivers/VL53L0X/core/src/vl53l0x_api.c **** 				/* disabled: return value from memory */
1857:Drivers/VL53L0X/core/src/vl53l0x_api.c **** 				VL53L0X_GETARRAYPARAMETERFIELD(Dev,
 5222              		.loc 1 1857 5
ARM GAS  C:\Users\Morroway\AppData\Local\Temp\ccih4NWY.s 			page 126


 5223 00c4 7B89     		ldrh	r3, [r7, #10]
 5224 00c6 FA68     		ldr	r2, [r7, #12]
 5225 00c8 0C33     		adds	r3, r3, #12
 5226 00ca 9B00     		lsls	r3, r3, #2
 5227 00cc 1344     		add	r3, r3, r2
 5228 00ce 5B68     		ldr	r3, [r3, #4]
 5229 00d0 BB61     		str	r3, [r7, #24]
1858:Drivers/VL53L0X/core/src/vl53l0x_api.c **** 					LimitChecksValue, LimitCheckId,
1859:Drivers/VL53L0X/core/src/vl53l0x_api.c **** 					TempFix1616);
1860:Drivers/VL53L0X/core/src/vl53l0x_api.c **** 				*pLimitCheckValue = TempFix1616;
 5230              		.loc 1 1860 23
 5231 00d2 7B68     		ldr	r3, [r7, #4]
 5232 00d4 BA69     		ldr	r2, [r7, #24]
 5233 00d6 1A60     		str	r2, [r3]
1861:Drivers/VL53L0X/core/src/vl53l0x_api.c **** 				VL53L0X_SETARRAYPARAMETERFIELD(Dev,
 5234              		.loc 1 1861 5
 5235 00d8 7B89     		ldrh	r3, [r7, #10]
 5236 00da FA68     		ldr	r2, [r7, #12]
 5237 00dc 1344     		add	r3, r3, r2
 5238 00de 0022     		movs	r2, #0
 5239 00e0 83F82820 		strb	r2, [r3, #40]
 5240 00e4 13E0     		b	.L317
 5241              	.L319:
1862:Drivers/VL53L0X/core/src/vl53l0x_api.c **** 					LimitChecksEnable, LimitCheckId, 0);
1863:Drivers/VL53L0X/core/src/vl53l0x_api.c **** 			} else {
1864:Drivers/VL53L0X/core/src/vl53l0x_api.c **** 				*pLimitCheckValue = TempFix1616;
 5242              		.loc 1 1864 23
 5243 00e6 7B68     		ldr	r3, [r7, #4]
 5244 00e8 BA69     		ldr	r2, [r7, #24]
 5245 00ea 1A60     		str	r2, [r3]
1865:Drivers/VL53L0X/core/src/vl53l0x_api.c **** 				VL53L0X_SETARRAYPARAMETERFIELD(Dev,
 5246              		.loc 1 1865 5
 5247 00ec 7B89     		ldrh	r3, [r7, #10]
 5248 00ee FA68     		ldr	r2, [r7, #12]
 5249 00f0 0C33     		adds	r3, r3, #12
 5250 00f2 9B00     		lsls	r3, r3, #2
 5251 00f4 1344     		add	r3, r3, r2
 5252 00f6 BA69     		ldr	r2, [r7, #24]
 5253 00f8 5A60     		str	r2, [r3, #4]
1866:Drivers/VL53L0X/core/src/vl53l0x_api.c **** 					LimitChecksValue, LimitCheckId,
1867:Drivers/VL53L0X/core/src/vl53l0x_api.c **** 					TempFix1616);
1868:Drivers/VL53L0X/core/src/vl53l0x_api.c **** 				VL53L0X_SETARRAYPARAMETERFIELD(Dev,
 5254              		.loc 1 1868 5
 5255 00fa 7B89     		ldrh	r3, [r7, #10]
 5256 00fc FA68     		ldr	r2, [r7, #12]
 5257 00fe 1344     		add	r3, r3, r2
 5258 0100 0122     		movs	r2, #1
 5259 0102 83F82820 		strb	r2, [r3, #40]
 5260 0106 02E0     		b	.L317
 5261              	.L318:
1869:Drivers/VL53L0X/core/src/vl53l0x_api.c **** 					LimitChecksEnable, LimitCheckId, 1);
1870:Drivers/VL53L0X/core/src/vl53l0x_api.c **** 			}
1871:Drivers/VL53L0X/core/src/vl53l0x_api.c **** 		} else {
1872:Drivers/VL53L0X/core/src/vl53l0x_api.c **** 			*pLimitCheckValue = TempFix1616;
 5262              		.loc 1 1872 22
 5263 0108 7B68     		ldr	r3, [r7, #4]
 5264 010a BA69     		ldr	r2, [r7, #24]
ARM GAS  C:\Users\Morroway\AppData\Local\Temp\ccih4NWY.s 			page 127


 5265 010c 1A60     		str	r2, [r3]
 5266              	.L317:
1873:Drivers/VL53L0X/core/src/vl53l0x_api.c **** 		}
1874:Drivers/VL53L0X/core/src/vl53l0x_api.c **** 	}
1875:Drivers/VL53L0X/core/src/vl53l0x_api.c **** 
1876:Drivers/VL53L0X/core/src/vl53l0x_api.c **** 	LOG_FUNCTION_END(Status);
1877:Drivers/VL53L0X/core/src/vl53l0x_api.c **** 	return Status;
 5267              		.loc 1 1877 9
 5268 010e 97F91F30 		ldrsb	r3, [r7, #31]
1878:Drivers/VL53L0X/core/src/vl53l0x_api.c **** 
1879:Drivers/VL53L0X/core/src/vl53l0x_api.c **** }
 5269              		.loc 1 1879 1
 5270 0112 1846     		mov	r0, r3
 5271 0114 2037     		adds	r7, r7, #32
 5272              		.cfi_def_cfa_offset 8
 5273 0116 BD46     		mov	sp, r7
 5274              		.cfi_def_cfa_register 13
 5275              		@ sp needed
 5276 0118 80BD     		pop	{r7, pc}
 5277              		.cfi_endproc
 5278              	.LFE384:
 5280 011a 00BF     		.section	.text.VL53L0X_GetLimitCheckCurrent,"ax",%progbits
 5281              		.align	1
 5282              		.global	VL53L0X_GetLimitCheckCurrent
 5283              		.syntax unified
 5284              		.thumb
 5285              		.thumb_func
 5287              	VL53L0X_GetLimitCheckCurrent:
 5288              	.LFB385:
1880:Drivers/VL53L0X/core/src/vl53l0x_api.c **** 
1881:Drivers/VL53L0X/core/src/vl53l0x_api.c **** VL53L0X_Error VL53L0X_GetLimitCheckCurrent(VL53L0X_DEV Dev, uint16_t LimitCheckId,
1882:Drivers/VL53L0X/core/src/vl53l0x_api.c **** 	FixPoint1616_t *pLimitCheckCurrent)
1883:Drivers/VL53L0X/core/src/vl53l0x_api.c **** {
 5289              		.loc 1 1883 1
 5290              		.cfi_startproc
 5291              		@ args = 0, pretend = 0, frame = 48
 5292              		@ frame_needed = 1, uses_anonymous_args = 0
 5293              		@ link register save eliminated.
 5294 0000 B0B4     		push	{r4, r5, r7}
 5295              		.cfi_def_cfa_offset 12
 5296              		.cfi_offset 4, -12
 5297              		.cfi_offset 5, -8
 5298              		.cfi_offset 7, -4
 5299 0002 8DB0     		sub	sp, sp, #52
 5300              		.cfi_def_cfa_offset 64
 5301 0004 00AF     		add	r7, sp, #0
 5302              		.cfi_def_cfa_register 7
 5303 0006 F860     		str	r0, [r7, #12]
 5304 0008 0B46     		mov	r3, r1
 5305 000a 7A60     		str	r2, [r7, #4]
 5306 000c 7B81     		strh	r3, [r7, #10]	@ movhi
1884:Drivers/VL53L0X/core/src/vl53l0x_api.c **** 	VL53L0X_Error Status = VL53L0X_ERROR_NONE;
 5307              		.loc 1 1884 16
 5308 000e 0023     		movs	r3, #0
 5309 0010 87F82F30 		strb	r3, [r7, #47]
1885:Drivers/VL53L0X/core/src/vl53l0x_api.c **** 	VL53L0X_RangingMeasurementData_t LastRangeDataBuffer;
1886:Drivers/VL53L0X/core/src/vl53l0x_api.c **** 
ARM GAS  C:\Users\Morroway\AppData\Local\Temp\ccih4NWY.s 			page 128


1887:Drivers/VL53L0X/core/src/vl53l0x_api.c **** 	LOG_FUNCTION_START("");
1888:Drivers/VL53L0X/core/src/vl53l0x_api.c **** 
1889:Drivers/VL53L0X/core/src/vl53l0x_api.c **** 	if (LimitCheckId >= VL53L0X_CHECKENABLE_NUMBER_OF_CHECKS) {
 5310              		.loc 1 1889 5
 5311 0014 7B89     		ldrh	r3, [r7, #10]
 5312 0016 052B     		cmp	r3, #5
 5313 0018 03D9     		bls	.L322
1890:Drivers/VL53L0X/core/src/vl53l0x_api.c **** 		Status = VL53L0X_ERROR_INVALID_PARAMS;
 5314              		.loc 1 1890 10
 5315 001a FC23     		movs	r3, #252
 5316 001c 87F82F30 		strb	r3, [r7, #47]
 5317 0020 5DE0     		b	.L323
 5318              	.L322:
1891:Drivers/VL53L0X/core/src/vl53l0x_api.c **** 	} else {
1892:Drivers/VL53L0X/core/src/vl53l0x_api.c **** 		switch (LimitCheckId) {
 5319              		.loc 1 1892 3
 5320 0022 7B89     		ldrh	r3, [r7, #10]
 5321 0024 052B     		cmp	r3, #5
 5322 0026 57D8     		bhi	.L324
 5323 0028 01A2     		adr	r2, .L326
 5324 002a 52F823F0 		ldr	pc, [r2, r3, lsl #2]
 5325 002e 00BF     		.p2align 2
 5326              	.L326:
 5327 0030 49000000 		.word	.L331+1
 5328 0034 55000000 		.word	.L330+1
 5329 0038 73000000 		.word	.L329+1
 5330 003c 7F000000 		.word	.L328+1
 5331 0040 9D000000 		.word	.L327+1
 5332 0044 BB000000 		.word	.L325+1
 5333              		.p2align 1
 5334              	.L331:
1893:Drivers/VL53L0X/core/src/vl53l0x_api.c **** 		case VL53L0X_CHECKENABLE_SIGMA_FINAL_RANGE:
1894:Drivers/VL53L0X/core/src/vl53l0x_api.c **** 			/* Need to run a ranging to have the latest values */
1895:Drivers/VL53L0X/core/src/vl53l0x_api.c **** 			*pLimitCheckCurrent = PALDevDataGet(Dev, SigmaEstimate);
 5335              		.loc 1 1895 26
 5336 0048 FB68     		ldr	r3, [r7, #12]
 5337 004a D3F84021 		ldr	r2, [r3, #320]
 5338              		.loc 1 1895 24
 5339 004e 7B68     		ldr	r3, [r7, #4]
 5340 0050 1A60     		str	r2, [r3]
1896:Drivers/VL53L0X/core/src/vl53l0x_api.c **** 
1897:Drivers/VL53L0X/core/src/vl53l0x_api.c **** 			break;
 5341              		.loc 1 1897 4
 5342 0052 44E0     		b	.L323
 5343              	.L330:
1898:Drivers/VL53L0X/core/src/vl53l0x_api.c **** 
1899:Drivers/VL53L0X/core/src/vl53l0x_api.c **** 		case VL53L0X_CHECKENABLE_SIGNAL_RATE_FINAL_RANGE:
1900:Drivers/VL53L0X/core/src/vl53l0x_api.c **** 			/* Need to run a ranging to have the latest values */
1901:Drivers/VL53L0X/core/src/vl53l0x_api.c **** 			LastRangeDataBuffer = PALDevDataGet(Dev,
 5344              		.loc 1 1901 24
 5345 0054 FB68     		ldr	r3, [r7, #12]
 5346 0056 07F11004 		add	r4, r7, #16
 5347 005a 03F15005 		add	r5, r3, #80
 5348 005e 0FCD     		ldmia	r5!, {r0, r1, r2, r3}
 5349 0060 0FC4     		stmia	r4!, {r0, r1, r2, r3}
 5350 0062 95E80700 		ldm	r5, {r0, r1, r2}
 5351 0066 84E80700 		stm	r4, {r0, r1, r2}
ARM GAS  C:\Users\Morroway\AppData\Local\Temp\ccih4NWY.s 			page 129


1902:Drivers/VL53L0X/core/src/vl53l0x_api.c **** 				LastRangeMeasure);
1903:Drivers/VL53L0X/core/src/vl53l0x_api.c **** 			*pLimitCheckCurrent =
1904:Drivers/VL53L0X/core/src/vl53l0x_api.c **** 				LastRangeDataBuffer.SignalRateRtnMegaCps;
 5352              		.loc 1 1904 24
 5353 006a FA69     		ldr	r2, [r7, #28]
1903:Drivers/VL53L0X/core/src/vl53l0x_api.c **** 				LastRangeDataBuffer.SignalRateRtnMegaCps;
 5354              		.loc 1 1903 24
 5355 006c 7B68     		ldr	r3, [r7, #4]
 5356 006e 1A60     		str	r2, [r3]
1905:Drivers/VL53L0X/core/src/vl53l0x_api.c **** 
1906:Drivers/VL53L0X/core/src/vl53l0x_api.c **** 			break;
 5357              		.loc 1 1906 4
 5358 0070 35E0     		b	.L323
 5359              	.L329:
1907:Drivers/VL53L0X/core/src/vl53l0x_api.c **** 
1908:Drivers/VL53L0X/core/src/vl53l0x_api.c **** 		case VL53L0X_CHECKENABLE_SIGNAL_REF_CLIP:
1909:Drivers/VL53L0X/core/src/vl53l0x_api.c **** 			/* Need to run a ranging to have the latest values */
1910:Drivers/VL53L0X/core/src/vl53l0x_api.c **** 			*pLimitCheckCurrent = PALDevDataGet(Dev,
 5360              		.loc 1 1910 26
 5361 0072 FB68     		ldr	r3, [r7, #12]
 5362 0074 D3F84821 		ldr	r2, [r3, #328]
 5363              		.loc 1 1910 24
 5364 0078 7B68     		ldr	r3, [r7, #4]
 5365 007a 1A60     		str	r2, [r3]
1911:Drivers/VL53L0X/core/src/vl53l0x_api.c **** 				LastSignalRefMcps);
1912:Drivers/VL53L0X/core/src/vl53l0x_api.c **** 
1913:Drivers/VL53L0X/core/src/vl53l0x_api.c **** 			break;
 5366              		.loc 1 1913 4
 5367 007c 2FE0     		b	.L323
 5368              	.L328:
1914:Drivers/VL53L0X/core/src/vl53l0x_api.c **** 
1915:Drivers/VL53L0X/core/src/vl53l0x_api.c **** 		case VL53L0X_CHECKENABLE_RANGE_IGNORE_THRESHOLD:
1916:Drivers/VL53L0X/core/src/vl53l0x_api.c **** 			/* Need to run a ranging to have the latest values */
1917:Drivers/VL53L0X/core/src/vl53l0x_api.c **** 			LastRangeDataBuffer = PALDevDataGet(Dev,
 5369              		.loc 1 1917 24
 5370 007e FB68     		ldr	r3, [r7, #12]
 5371 0080 07F11004 		add	r4, r7, #16
 5372 0084 03F15005 		add	r5, r3, #80
 5373 0088 0FCD     		ldmia	r5!, {r0, r1, r2, r3}
 5374 008a 0FC4     		stmia	r4!, {r0, r1, r2, r3}
 5375 008c 95E80700 		ldm	r5, {r0, r1, r2}
 5376 0090 84E80700 		stm	r4, {r0, r1, r2}
1918:Drivers/VL53L0X/core/src/vl53l0x_api.c **** 				LastRangeMeasure);
1919:Drivers/VL53L0X/core/src/vl53l0x_api.c **** 			*pLimitCheckCurrent =
1920:Drivers/VL53L0X/core/src/vl53l0x_api.c **** 				LastRangeDataBuffer.SignalRateRtnMegaCps;
 5377              		.loc 1 1920 24
 5378 0094 FA69     		ldr	r2, [r7, #28]
1919:Drivers/VL53L0X/core/src/vl53l0x_api.c **** 				LastRangeDataBuffer.SignalRateRtnMegaCps;
 5379              		.loc 1 1919 24
 5380 0096 7B68     		ldr	r3, [r7, #4]
 5381 0098 1A60     		str	r2, [r3]
1921:Drivers/VL53L0X/core/src/vl53l0x_api.c **** 
1922:Drivers/VL53L0X/core/src/vl53l0x_api.c **** 			break;
 5382              		.loc 1 1922 4
 5383 009a 20E0     		b	.L323
 5384              	.L327:
1923:Drivers/VL53L0X/core/src/vl53l0x_api.c **** 
ARM GAS  C:\Users\Morroway\AppData\Local\Temp\ccih4NWY.s 			page 130


1924:Drivers/VL53L0X/core/src/vl53l0x_api.c **** 		case VL53L0X_CHECKENABLE_SIGNAL_RATE_MSRC:
1925:Drivers/VL53L0X/core/src/vl53l0x_api.c **** 			/* Need to run a ranging to have the latest values */
1926:Drivers/VL53L0X/core/src/vl53l0x_api.c **** 			LastRangeDataBuffer = PALDevDataGet(Dev,
 5385              		.loc 1 1926 24
 5386 009c FB68     		ldr	r3, [r7, #12]
 5387 009e 07F11004 		add	r4, r7, #16
 5388 00a2 03F15005 		add	r5, r3, #80
 5389 00a6 0FCD     		ldmia	r5!, {r0, r1, r2, r3}
 5390 00a8 0FC4     		stmia	r4!, {r0, r1, r2, r3}
 5391 00aa 95E80700 		ldm	r5, {r0, r1, r2}
 5392 00ae 84E80700 		stm	r4, {r0, r1, r2}
1927:Drivers/VL53L0X/core/src/vl53l0x_api.c **** 				LastRangeMeasure);
1928:Drivers/VL53L0X/core/src/vl53l0x_api.c **** 			*pLimitCheckCurrent =
1929:Drivers/VL53L0X/core/src/vl53l0x_api.c **** 				LastRangeDataBuffer.SignalRateRtnMegaCps;
 5393              		.loc 1 1929 24
 5394 00b2 FA69     		ldr	r2, [r7, #28]
1928:Drivers/VL53L0X/core/src/vl53l0x_api.c **** 				LastRangeDataBuffer.SignalRateRtnMegaCps;
 5395              		.loc 1 1928 24
 5396 00b4 7B68     		ldr	r3, [r7, #4]
 5397 00b6 1A60     		str	r2, [r3]
1930:Drivers/VL53L0X/core/src/vl53l0x_api.c **** 
1931:Drivers/VL53L0X/core/src/vl53l0x_api.c **** 			break;
 5398              		.loc 1 1931 4
 5399 00b8 11E0     		b	.L323
 5400              	.L325:
1932:Drivers/VL53L0X/core/src/vl53l0x_api.c **** 
1933:Drivers/VL53L0X/core/src/vl53l0x_api.c **** 		case VL53L0X_CHECKENABLE_SIGNAL_RATE_PRE_RANGE:
1934:Drivers/VL53L0X/core/src/vl53l0x_api.c **** 			/* Need to run a ranging to have the latest values */
1935:Drivers/VL53L0X/core/src/vl53l0x_api.c **** 			LastRangeDataBuffer = PALDevDataGet(Dev,
 5401              		.loc 1 1935 24
 5402 00ba FB68     		ldr	r3, [r7, #12]
 5403 00bc 07F11004 		add	r4, r7, #16
 5404 00c0 03F15005 		add	r5, r3, #80
 5405 00c4 0FCD     		ldmia	r5!, {r0, r1, r2, r3}
 5406 00c6 0FC4     		stmia	r4!, {r0, r1, r2, r3}
 5407 00c8 95E80700 		ldm	r5, {r0, r1, r2}
 5408 00cc 84E80700 		stm	r4, {r0, r1, r2}
1936:Drivers/VL53L0X/core/src/vl53l0x_api.c **** 				LastRangeMeasure);
1937:Drivers/VL53L0X/core/src/vl53l0x_api.c **** 			*pLimitCheckCurrent =
1938:Drivers/VL53L0X/core/src/vl53l0x_api.c **** 				LastRangeDataBuffer.SignalRateRtnMegaCps;
 5409              		.loc 1 1938 24
 5410 00d0 FA69     		ldr	r2, [r7, #28]
1937:Drivers/VL53L0X/core/src/vl53l0x_api.c **** 				LastRangeDataBuffer.SignalRateRtnMegaCps;
 5411              		.loc 1 1937 24
 5412 00d2 7B68     		ldr	r3, [r7, #4]
 5413 00d4 1A60     		str	r2, [r3]
1939:Drivers/VL53L0X/core/src/vl53l0x_api.c **** 
1940:Drivers/VL53L0X/core/src/vl53l0x_api.c **** 			break;
 5414              		.loc 1 1940 4
 5415 00d6 02E0     		b	.L323
 5416              	.L324:
1941:Drivers/VL53L0X/core/src/vl53l0x_api.c **** 
1942:Drivers/VL53L0X/core/src/vl53l0x_api.c **** 		default:
1943:Drivers/VL53L0X/core/src/vl53l0x_api.c **** 			Status = VL53L0X_ERROR_INVALID_PARAMS;
 5417              		.loc 1 1943 11
 5418 00d8 FC23     		movs	r3, #252
 5419 00da 87F82F30 		strb	r3, [r7, #47]
ARM GAS  C:\Users\Morroway\AppData\Local\Temp\ccih4NWY.s 			page 131


 5420              	.L323:
1944:Drivers/VL53L0X/core/src/vl53l0x_api.c **** 		}
1945:Drivers/VL53L0X/core/src/vl53l0x_api.c **** 	}
1946:Drivers/VL53L0X/core/src/vl53l0x_api.c **** 
1947:Drivers/VL53L0X/core/src/vl53l0x_api.c **** 	LOG_FUNCTION_END(Status);
1948:Drivers/VL53L0X/core/src/vl53l0x_api.c **** 	return Status;
 5421              		.loc 1 1948 9
 5422 00de 97F92F30 		ldrsb	r3, [r7, #47]
1949:Drivers/VL53L0X/core/src/vl53l0x_api.c **** 
1950:Drivers/VL53L0X/core/src/vl53l0x_api.c **** }
 5423              		.loc 1 1950 1
 5424 00e2 1846     		mov	r0, r3
 5425 00e4 3437     		adds	r7, r7, #52
 5426              		.cfi_def_cfa_offset 12
 5427 00e6 BD46     		mov	sp, r7
 5428              		.cfi_def_cfa_register 13
 5429              		@ sp needed
 5430 00e8 B0BC     		pop	{r4, r5, r7}
 5431              		.cfi_restore 7
 5432              		.cfi_restore 5
 5433              		.cfi_restore 4
 5434              		.cfi_def_cfa_offset 0
 5435 00ea 7047     		bx	lr
 5436              		.cfi_endproc
 5437              	.LFE385:
 5439              		.section	.text.VL53L0X_SetWrapAroundCheckEnable,"ax",%progbits
 5440              		.align	1
 5441              		.global	VL53L0X_SetWrapAroundCheckEnable
 5442              		.syntax unified
 5443              		.thumb
 5444              		.thumb_func
 5446              	VL53L0X_SetWrapAroundCheckEnable:
 5447              	.LFB386:
1951:Drivers/VL53L0X/core/src/vl53l0x_api.c **** 
1952:Drivers/VL53L0X/core/src/vl53l0x_api.c **** /*
1953:Drivers/VL53L0X/core/src/vl53l0x_api.c ****  * WRAPAROUND Check
1954:Drivers/VL53L0X/core/src/vl53l0x_api.c ****  */
1955:Drivers/VL53L0X/core/src/vl53l0x_api.c **** VL53L0X_Error VL53L0X_SetWrapAroundCheckEnable(VL53L0X_DEV Dev,
1956:Drivers/VL53L0X/core/src/vl53l0x_api.c **** 	uint8_t WrapAroundCheckEnable)
1957:Drivers/VL53L0X/core/src/vl53l0x_api.c **** {
 5448              		.loc 1 1957 1
 5449              		.cfi_startproc
 5450              		@ args = 0, pretend = 0, frame = 16
 5451              		@ frame_needed = 1, uses_anonymous_args = 0
 5452 0000 80B5     		push	{r7, lr}
 5453              		.cfi_def_cfa_offset 8
 5454              		.cfi_offset 7, -8
 5455              		.cfi_offset 14, -4
 5456 0002 84B0     		sub	sp, sp, #16
 5457              		.cfi_def_cfa_offset 24
 5458 0004 00AF     		add	r7, sp, #0
 5459              		.cfi_def_cfa_register 7
 5460 0006 7860     		str	r0, [r7, #4]
 5461 0008 0B46     		mov	r3, r1
 5462 000a FB70     		strb	r3, [r7, #3]
1958:Drivers/VL53L0X/core/src/vl53l0x_api.c **** 	VL53L0X_Error Status = VL53L0X_ERROR_NONE;
 5463              		.loc 1 1958 16
ARM GAS  C:\Users\Morroway\AppData\Local\Temp\ccih4NWY.s 			page 132


 5464 000c 0023     		movs	r3, #0
 5465 000e BB73     		strb	r3, [r7, #14]
1959:Drivers/VL53L0X/core/src/vl53l0x_api.c **** 	uint8_t Byte;
1960:Drivers/VL53L0X/core/src/vl53l0x_api.c **** 	uint8_t WrapAroundCheckEnableInt;
1961:Drivers/VL53L0X/core/src/vl53l0x_api.c **** 
1962:Drivers/VL53L0X/core/src/vl53l0x_api.c **** 	LOG_FUNCTION_START("");
1963:Drivers/VL53L0X/core/src/vl53l0x_api.c **** 
1964:Drivers/VL53L0X/core/src/vl53l0x_api.c **** 	Status = VL53L0X_RdByte(Dev, VL53L0X_REG_SYSTEM_SEQUENCE_CONFIG, &Byte);
 5466              		.loc 1 1964 11
 5467 0010 07F10D03 		add	r3, r7, #13
 5468 0014 1A46     		mov	r2, r3
 5469 0016 0121     		movs	r1, #1
 5470 0018 7868     		ldr	r0, [r7, #4]
 5471 001a FFF7FEFF 		bl	VL53L0X_RdByte
 5472 001e 0346     		mov	r3, r0
 5473 0020 BB73     		strb	r3, [r7, #14]
1965:Drivers/VL53L0X/core/src/vl53l0x_api.c **** 	if (WrapAroundCheckEnable == 0) {
 5474              		.loc 1 1965 5
 5475 0022 FB78     		ldrb	r3, [r7, #3]	@ zero_extendqisi2
 5476 0024 002B     		cmp	r3, #0
 5477 0026 07D1     		bne	.L334
1966:Drivers/VL53L0X/core/src/vl53l0x_api.c **** 		/* Disable wraparound */
1967:Drivers/VL53L0X/core/src/vl53l0x_api.c **** 		Byte = Byte & 0x7F;
 5478              		.loc 1 1967 15
 5479 0028 7B7B     		ldrb	r3, [r7, #13]	@ zero_extendqisi2
 5480 002a 03F07F03 		and	r3, r3, #127
 5481 002e DBB2     		uxtb	r3, r3
 5482              		.loc 1 1967 8
 5483 0030 7B73     		strb	r3, [r7, #13]
1968:Drivers/VL53L0X/core/src/vl53l0x_api.c **** 		WrapAroundCheckEnableInt = 0;
 5484              		.loc 1 1968 28
 5485 0032 0023     		movs	r3, #0
 5486 0034 FB73     		strb	r3, [r7, #15]
 5487 0036 06E0     		b	.L335
 5488              	.L334:
1969:Drivers/VL53L0X/core/src/vl53l0x_api.c **** 	} else {
1970:Drivers/VL53L0X/core/src/vl53l0x_api.c **** 		/*Enable wraparound */
1971:Drivers/VL53L0X/core/src/vl53l0x_api.c **** 		Byte = Byte | 0x80;
 5489              		.loc 1 1971 8
 5490 0038 7B7B     		ldrb	r3, [r7, #13]	@ zero_extendqisi2
 5491 003a 63F07F03 		orn	r3, r3, #127
 5492 003e DBB2     		uxtb	r3, r3
 5493 0040 7B73     		strb	r3, [r7, #13]
1972:Drivers/VL53L0X/core/src/vl53l0x_api.c **** 		WrapAroundCheckEnableInt = 1;
 5494              		.loc 1 1972 28
 5495 0042 0123     		movs	r3, #1
 5496 0044 FB73     		strb	r3, [r7, #15]
 5497              	.L335:
1973:Drivers/VL53L0X/core/src/vl53l0x_api.c **** 	}
1974:Drivers/VL53L0X/core/src/vl53l0x_api.c **** 
1975:Drivers/VL53L0X/core/src/vl53l0x_api.c **** 	Status = VL53L0X_WrByte(Dev, VL53L0X_REG_SYSTEM_SEQUENCE_CONFIG, Byte);
 5498              		.loc 1 1975 11
 5499 0046 7B7B     		ldrb	r3, [r7, #13]	@ zero_extendqisi2
 5500 0048 1A46     		mov	r2, r3
 5501 004a 0121     		movs	r1, #1
 5502 004c 7868     		ldr	r0, [r7, #4]
 5503 004e FFF7FEFF 		bl	VL53L0X_WrByte
ARM GAS  C:\Users\Morroway\AppData\Local\Temp\ccih4NWY.s 			page 133


 5504 0052 0346     		mov	r3, r0
 5505 0054 BB73     		strb	r3, [r7, #14]
1976:Drivers/VL53L0X/core/src/vl53l0x_api.c **** 
1977:Drivers/VL53L0X/core/src/vl53l0x_api.c **** 	if (Status == VL53L0X_ERROR_NONE) {
 5506              		.loc 1 1977 5
 5507 0056 97F90E30 		ldrsb	r3, [r7, #14]
 5508 005a 002B     		cmp	r3, #0
 5509 005c 07D1     		bne	.L336
1978:Drivers/VL53L0X/core/src/vl53l0x_api.c **** 		PALDevDataSet(Dev, SequenceConfig, Byte);
 5510              		.loc 1 1978 3
 5511 005e 7A7B     		ldrb	r2, [r7, #13]	@ zero_extendqisi2
 5512 0060 7B68     		ldr	r3, [r7, #4]
 5513 0062 83F83021 		strb	r2, [r3, #304]
1979:Drivers/VL53L0X/core/src/vl53l0x_api.c **** 		VL53L0X_SETPARAMETERFIELD(Dev, WrapAroundCheckEnable,
 5514              		.loc 1 1979 3
 5515 0066 7B68     		ldr	r3, [r7, #4]
 5516 0068 FA7B     		ldrb	r2, [r7, #15]
 5517 006a 83F84C20 		strb	r2, [r3, #76]
 5518              	.L336:
1980:Drivers/VL53L0X/core/src/vl53l0x_api.c **** 			WrapAroundCheckEnableInt);
1981:Drivers/VL53L0X/core/src/vl53l0x_api.c **** 	}
1982:Drivers/VL53L0X/core/src/vl53l0x_api.c **** 
1983:Drivers/VL53L0X/core/src/vl53l0x_api.c **** 	LOG_FUNCTION_END(Status);
1984:Drivers/VL53L0X/core/src/vl53l0x_api.c **** 	return Status;
 5519              		.loc 1 1984 9
 5520 006e 97F90E30 		ldrsb	r3, [r7, #14]
1985:Drivers/VL53L0X/core/src/vl53l0x_api.c **** }
 5521              		.loc 1 1985 1
 5522 0072 1846     		mov	r0, r3
 5523 0074 1037     		adds	r7, r7, #16
 5524              		.cfi_def_cfa_offset 8
 5525 0076 BD46     		mov	sp, r7
 5526              		.cfi_def_cfa_register 13
 5527              		@ sp needed
 5528 0078 80BD     		pop	{r7, pc}
 5529              		.cfi_endproc
 5530              	.LFE386:
 5532              		.section	.text.VL53L0X_GetWrapAroundCheckEnable,"ax",%progbits
 5533              		.align	1
 5534              		.global	VL53L0X_GetWrapAroundCheckEnable
 5535              		.syntax unified
 5536              		.thumb
 5537              		.thumb_func
 5539              	VL53L0X_GetWrapAroundCheckEnable:
 5540              	.LFB387:
1986:Drivers/VL53L0X/core/src/vl53l0x_api.c **** 
1987:Drivers/VL53L0X/core/src/vl53l0x_api.c **** VL53L0X_Error VL53L0X_GetWrapAroundCheckEnable(VL53L0X_DEV Dev,
1988:Drivers/VL53L0X/core/src/vl53l0x_api.c **** 	uint8_t *pWrapAroundCheckEnable)
1989:Drivers/VL53L0X/core/src/vl53l0x_api.c **** {
 5541              		.loc 1 1989 1
 5542              		.cfi_startproc
 5543              		@ args = 0, pretend = 0, frame = 16
 5544              		@ frame_needed = 1, uses_anonymous_args = 0
 5545 0000 80B5     		push	{r7, lr}
 5546              		.cfi_def_cfa_offset 8
 5547              		.cfi_offset 7, -8
 5548              		.cfi_offset 14, -4
ARM GAS  C:\Users\Morroway\AppData\Local\Temp\ccih4NWY.s 			page 134


 5549 0002 84B0     		sub	sp, sp, #16
 5550              		.cfi_def_cfa_offset 24
 5551 0004 00AF     		add	r7, sp, #0
 5552              		.cfi_def_cfa_register 7
 5553 0006 7860     		str	r0, [r7, #4]
 5554 0008 3960     		str	r1, [r7]
1990:Drivers/VL53L0X/core/src/vl53l0x_api.c **** 	VL53L0X_Error Status = VL53L0X_ERROR_NONE;
 5555              		.loc 1 1990 16
 5556 000a 0023     		movs	r3, #0
 5557 000c FB73     		strb	r3, [r7, #15]
1991:Drivers/VL53L0X/core/src/vl53l0x_api.c **** 	uint8_t data;
1992:Drivers/VL53L0X/core/src/vl53l0x_api.c **** 
1993:Drivers/VL53L0X/core/src/vl53l0x_api.c **** 	LOG_FUNCTION_START("");
1994:Drivers/VL53L0X/core/src/vl53l0x_api.c **** 
1995:Drivers/VL53L0X/core/src/vl53l0x_api.c **** 	Status = VL53L0X_RdByte(Dev, VL53L0X_REG_SYSTEM_SEQUENCE_CONFIG, &data);
 5558              		.loc 1 1995 11
 5559 000e 07F10E03 		add	r3, r7, #14
 5560 0012 1A46     		mov	r2, r3
 5561 0014 0121     		movs	r1, #1
 5562 0016 7868     		ldr	r0, [r7, #4]
 5563 0018 FFF7FEFF 		bl	VL53L0X_RdByte
 5564 001c 0346     		mov	r3, r0
 5565 001e FB73     		strb	r3, [r7, #15]
1996:Drivers/VL53L0X/core/src/vl53l0x_api.c **** 	if (Status == VL53L0X_ERROR_NONE) {
 5566              		.loc 1 1996 5
 5567 0020 97F90F30 		ldrsb	r3, [r7, #15]
 5568 0024 002B     		cmp	r3, #0
 5569 0026 0ED1     		bne	.L339
1997:Drivers/VL53L0X/core/src/vl53l0x_api.c **** 		PALDevDataSet(Dev, SequenceConfig, data);
 5570              		.loc 1 1997 3
 5571 0028 BA7B     		ldrb	r2, [r7, #14]	@ zero_extendqisi2
 5572 002a 7B68     		ldr	r3, [r7, #4]
 5573 002c 83F83021 		strb	r2, [r3, #304]
1998:Drivers/VL53L0X/core/src/vl53l0x_api.c **** 		if (data & (0x01 << 7))
 5574              		.loc 1 1998 7
 5575 0030 BB7B     		ldrb	r3, [r7, #14]	@ zero_extendqisi2
 5576 0032 5BB2     		sxtb	r3, r3
 5577              		.loc 1 1998 6
 5578 0034 002B     		cmp	r3, #0
 5579 0036 03DA     		bge	.L340
1999:Drivers/VL53L0X/core/src/vl53l0x_api.c **** 			*pWrapAroundCheckEnable = 0x01;
 5580              		.loc 1 1999 28
 5581 0038 3B68     		ldr	r3, [r7]
 5582 003a 0122     		movs	r2, #1
 5583 003c 1A70     		strb	r2, [r3]
 5584 003e 02E0     		b	.L339
 5585              	.L340:
2000:Drivers/VL53L0X/core/src/vl53l0x_api.c **** 		else
2001:Drivers/VL53L0X/core/src/vl53l0x_api.c **** 			*pWrapAroundCheckEnable = 0x00;
 5586              		.loc 1 2001 28
 5587 0040 3B68     		ldr	r3, [r7]
 5588 0042 0022     		movs	r2, #0
 5589 0044 1A70     		strb	r2, [r3]
 5590              	.L339:
2002:Drivers/VL53L0X/core/src/vl53l0x_api.c **** 	}
2003:Drivers/VL53L0X/core/src/vl53l0x_api.c **** 	if (Status == VL53L0X_ERROR_NONE) {
 5591              		.loc 1 2003 5
ARM GAS  C:\Users\Morroway\AppData\Local\Temp\ccih4NWY.s 			page 135


 5592 0046 97F90F30 		ldrsb	r3, [r7, #15]
 5593 004a 002B     		cmp	r3, #0
 5594 004c 04D1     		bne	.L341
2004:Drivers/VL53L0X/core/src/vl53l0x_api.c **** 		VL53L0X_SETPARAMETERFIELD(Dev, WrapAroundCheckEnable,
 5595              		.loc 1 2004 3
 5596 004e 3B68     		ldr	r3, [r7]
 5597 0050 1A78     		ldrb	r2, [r3]	@ zero_extendqisi2
 5598 0052 7B68     		ldr	r3, [r7, #4]
 5599 0054 83F84C20 		strb	r2, [r3, #76]
 5600              	.L341:
2005:Drivers/VL53L0X/core/src/vl53l0x_api.c **** 			*pWrapAroundCheckEnable);
2006:Drivers/VL53L0X/core/src/vl53l0x_api.c **** 	}
2007:Drivers/VL53L0X/core/src/vl53l0x_api.c **** 
2008:Drivers/VL53L0X/core/src/vl53l0x_api.c **** 	LOG_FUNCTION_END(Status);
2009:Drivers/VL53L0X/core/src/vl53l0x_api.c **** 	return Status;
 5601              		.loc 1 2009 9
 5602 0058 97F90F30 		ldrsb	r3, [r7, #15]
2010:Drivers/VL53L0X/core/src/vl53l0x_api.c **** }
 5603              		.loc 1 2010 1
 5604 005c 1846     		mov	r0, r3
 5605 005e 1037     		adds	r7, r7, #16
 5606              		.cfi_def_cfa_offset 8
 5607 0060 BD46     		mov	sp, r7
 5608              		.cfi_def_cfa_register 13
 5609              		@ sp needed
 5610 0062 80BD     		pop	{r7, pc}
 5611              		.cfi_endproc
 5612              	.LFE387:
 5614              		.section	.text.VL53L0X_SetDmaxCalParameters,"ax",%progbits
 5615              		.align	1
 5616              		.global	VL53L0X_SetDmaxCalParameters
 5617              		.syntax unified
 5618              		.thumb
 5619              		.thumb_func
 5621              	VL53L0X_SetDmaxCalParameters:
 5622              	.LFB388:
2011:Drivers/VL53L0X/core/src/vl53l0x_api.c **** 
2012:Drivers/VL53L0X/core/src/vl53l0x_api.c **** VL53L0X_Error VL53L0X_SetDmaxCalParameters(VL53L0X_DEV Dev,
2013:Drivers/VL53L0X/core/src/vl53l0x_api.c **** 	uint16_t RangeMilliMeter, FixPoint1616_t SignalRateRtnMegaCps)
2014:Drivers/VL53L0X/core/src/vl53l0x_api.c **** {
 5623              		.loc 1 2014 1
 5624              		.cfi_startproc
 5625              		@ args = 0, pretend = 0, frame = 24
 5626              		@ frame_needed = 1, uses_anonymous_args = 0
 5627 0000 80B5     		push	{r7, lr}
 5628              		.cfi_def_cfa_offset 8
 5629              		.cfi_offset 7, -8
 5630              		.cfi_offset 14, -4
 5631 0002 86B0     		sub	sp, sp, #24
 5632              		.cfi_def_cfa_offset 32
 5633 0004 00AF     		add	r7, sp, #0
 5634              		.cfi_def_cfa_register 7
 5635 0006 F860     		str	r0, [r7, #12]
 5636 0008 0B46     		mov	r3, r1
 5637 000a 7A60     		str	r2, [r7, #4]
 5638 000c 7B81     		strh	r3, [r7, #10]	@ movhi
2015:Drivers/VL53L0X/core/src/vl53l0x_api.c **** 	VL53L0X_Error Status = VL53L0X_ERROR_NONE;
ARM GAS  C:\Users\Morroway\AppData\Local\Temp\ccih4NWY.s 			page 136


 5639              		.loc 1 2015 16
 5640 000e 0023     		movs	r3, #0
 5641 0010 FB75     		strb	r3, [r7, #23]
2016:Drivers/VL53L0X/core/src/vl53l0x_api.c **** 	FixPoint1616_t SignalRateRtnMegaCpsTemp = 0;
 5642              		.loc 1 2016 17
 5643 0012 0023     		movs	r3, #0
 5644 0014 3B61     		str	r3, [r7, #16]
2017:Drivers/VL53L0X/core/src/vl53l0x_api.c **** 
2018:Drivers/VL53L0X/core/src/vl53l0x_api.c **** 	LOG_FUNCTION_START("");
2019:Drivers/VL53L0X/core/src/vl53l0x_api.c **** 
2020:Drivers/VL53L0X/core/src/vl53l0x_api.c **** 	/* Check if one of input parameter is zero, in that case the
2021:Drivers/VL53L0X/core/src/vl53l0x_api.c **** 	 * value are get from NVM */
2022:Drivers/VL53L0X/core/src/vl53l0x_api.c **** 	if ((RangeMilliMeter == 0) || (SignalRateRtnMegaCps == 0)) {
 5645              		.loc 1 2022 5
 5646 0016 7B89     		ldrh	r3, [r7, #10]
 5647 0018 002B     		cmp	r3, #0
 5648 001a 02D0     		beq	.L344
 5649              		.loc 1 2022 29 discriminator 1
 5650 001c 7B68     		ldr	r3, [r7, #4]
 5651 001e 002B     		cmp	r3, #0
 5652 0020 11D1     		bne	.L345
 5653              	.L344:
2023:Drivers/VL53L0X/core/src/vl53l0x_api.c **** 		/* NVM parameters */
2024:Drivers/VL53L0X/core/src/vl53l0x_api.c **** 		/* Run VL53L0X_get_info_from_device wit option 4 to get
2025:Drivers/VL53L0X/core/src/vl53l0x_api.c **** 		 * signal rate at 400 mm if the value have been already
2026:Drivers/VL53L0X/core/src/vl53l0x_api.c **** 		 * get this function will return with no access to device */
2027:Drivers/VL53L0X/core/src/vl53l0x_api.c **** 		VL53L0X_get_info_from_device(Dev, 4);
 5654              		.loc 1 2027 3
 5655 0022 0421     		movs	r1, #4
 5656 0024 F868     		ldr	r0, [r7, #12]
 5657 0026 FFF7FEFF 		bl	VL53L0X_get_info_from_device
2028:Drivers/VL53L0X/core/src/vl53l0x_api.c **** 
2029:Drivers/VL53L0X/core/src/vl53l0x_api.c **** 		SignalRateRtnMegaCpsTemp = VL53L0X_GETDEVICESPECIFICPARAMETER(
 5658              		.loc 1 2029 28
 5659 002a FB68     		ldr	r3, [r7, #12]
 5660 002c D3F82031 		ldr	r3, [r3, #288]
 5661 0030 3B61     		str	r3, [r7, #16]
2030:Drivers/VL53L0X/core/src/vl53l0x_api.c **** 			Dev, SignalRateMeasFixed400mm);
2031:Drivers/VL53L0X/core/src/vl53l0x_api.c **** 
2032:Drivers/VL53L0X/core/src/vl53l0x_api.c **** 		PALDevDataSet(Dev, DmaxCalRangeMilliMeter, 400);
 5662              		.loc 1 2032 3
 5663 0032 FB68     		ldr	r3, [r7, #12]
 5664 0034 4FF4C872 		mov	r2, #400
 5665 0038 A3F85421 		strh	r2, [r3, #340]	@ movhi
2033:Drivers/VL53L0X/core/src/vl53l0x_api.c **** 		PALDevDataSet(Dev, DmaxCalSignalRateRtnMegaCps,
 5666              		.loc 1 2033 3
 5667 003c FB68     		ldr	r3, [r7, #12]
 5668 003e 3A69     		ldr	r2, [r7, #16]
 5669 0040 C3F85821 		str	r2, [r3, #344]
 5670 0044 07E0     		b	.L346
 5671              	.L345:
2034:Drivers/VL53L0X/core/src/vl53l0x_api.c **** 			SignalRateRtnMegaCpsTemp);
2035:Drivers/VL53L0X/core/src/vl53l0x_api.c **** 	} else {
2036:Drivers/VL53L0X/core/src/vl53l0x_api.c **** 		/* User parameters */
2037:Drivers/VL53L0X/core/src/vl53l0x_api.c **** 		PALDevDataSet(Dev, DmaxCalRangeMilliMeter, RangeMilliMeter);
 5672              		.loc 1 2037 3
 5673 0046 FB68     		ldr	r3, [r7, #12]
ARM GAS  C:\Users\Morroway\AppData\Local\Temp\ccih4NWY.s 			page 137


 5674 0048 7A89     		ldrh	r2, [r7, #10]	@ movhi
 5675 004a A3F85421 		strh	r2, [r3, #340]	@ movhi
2038:Drivers/VL53L0X/core/src/vl53l0x_api.c **** 		PALDevDataSet(Dev, DmaxCalSignalRateRtnMegaCps,
 5676              		.loc 1 2038 3
 5677 004e FB68     		ldr	r3, [r7, #12]
 5678 0050 7A68     		ldr	r2, [r7, #4]
 5679 0052 C3F85821 		str	r2, [r3, #344]
 5680              	.L346:
2039:Drivers/VL53L0X/core/src/vl53l0x_api.c **** 			SignalRateRtnMegaCps);
2040:Drivers/VL53L0X/core/src/vl53l0x_api.c **** 	}
2041:Drivers/VL53L0X/core/src/vl53l0x_api.c **** 
2042:Drivers/VL53L0X/core/src/vl53l0x_api.c **** 	LOG_FUNCTION_END(Status);
2043:Drivers/VL53L0X/core/src/vl53l0x_api.c **** 	return Status;
 5681              		.loc 1 2043 9
 5682 0056 97F91730 		ldrsb	r3, [r7, #23]
2044:Drivers/VL53L0X/core/src/vl53l0x_api.c **** }
 5683              		.loc 1 2044 1
 5684 005a 1846     		mov	r0, r3
 5685 005c 1837     		adds	r7, r7, #24
 5686              		.cfi_def_cfa_offset 8
 5687 005e BD46     		mov	sp, r7
 5688              		.cfi_def_cfa_register 13
 5689              		@ sp needed
 5690 0060 80BD     		pop	{r7, pc}
 5691              		.cfi_endproc
 5692              	.LFE388:
 5694              		.section	.text.VL53L0X_GetDmaxCalParameters,"ax",%progbits
 5695              		.align	1
 5696              		.global	VL53L0X_GetDmaxCalParameters
 5697              		.syntax unified
 5698              		.thumb
 5699              		.thumb_func
 5701              	VL53L0X_GetDmaxCalParameters:
 5702              	.LFB389:
2045:Drivers/VL53L0X/core/src/vl53l0x_api.c **** 
2046:Drivers/VL53L0X/core/src/vl53l0x_api.c **** VL53L0X_Error VL53L0X_GetDmaxCalParameters(VL53L0X_DEV Dev,
2047:Drivers/VL53L0X/core/src/vl53l0x_api.c **** 	uint16_t *pRangeMilliMeter, FixPoint1616_t *pSignalRateRtnMegaCps)
2048:Drivers/VL53L0X/core/src/vl53l0x_api.c **** {
 5703              		.loc 1 2048 1
 5704              		.cfi_startproc
 5705              		@ args = 0, pretend = 0, frame = 24
 5706              		@ frame_needed = 1, uses_anonymous_args = 0
 5707              		@ link register save eliminated.
 5708 0000 80B4     		push	{r7}
 5709              		.cfi_def_cfa_offset 4
 5710              		.cfi_offset 7, -4
 5711 0002 87B0     		sub	sp, sp, #28
 5712              		.cfi_def_cfa_offset 32
 5713 0004 00AF     		add	r7, sp, #0
 5714              		.cfi_def_cfa_register 7
 5715 0006 F860     		str	r0, [r7, #12]
 5716 0008 B960     		str	r1, [r7, #8]
 5717 000a 7A60     		str	r2, [r7, #4]
2049:Drivers/VL53L0X/core/src/vl53l0x_api.c **** 	VL53L0X_Error Status = VL53L0X_ERROR_NONE;
 5718              		.loc 1 2049 16
 5719 000c 0023     		movs	r3, #0
 5720 000e FB75     		strb	r3, [r7, #23]
ARM GAS  C:\Users\Morroway\AppData\Local\Temp\ccih4NWY.s 			page 138


2050:Drivers/VL53L0X/core/src/vl53l0x_api.c **** 
2051:Drivers/VL53L0X/core/src/vl53l0x_api.c **** 	LOG_FUNCTION_START("");
2052:Drivers/VL53L0X/core/src/vl53l0x_api.c **** 
2053:Drivers/VL53L0X/core/src/vl53l0x_api.c **** 	*pRangeMilliMeter = PALDevDataGet(Dev, DmaxCalRangeMilliMeter);
 5721              		.loc 1 2053 22
 5722 0010 FB68     		ldr	r3, [r7, #12]
 5723 0012 B3F85421 		ldrh	r2, [r3, #340]
 5724              		.loc 1 2053 20
 5725 0016 BB68     		ldr	r3, [r7, #8]
 5726 0018 1A80     		strh	r2, [r3]	@ movhi
2054:Drivers/VL53L0X/core/src/vl53l0x_api.c **** 	*pSignalRateRtnMegaCps = PALDevDataGet(Dev,
 5727              		.loc 1 2054 27
 5728 001a FB68     		ldr	r3, [r7, #12]
 5729 001c D3F85821 		ldr	r2, [r3, #344]
 5730              		.loc 1 2054 25
 5731 0020 7B68     		ldr	r3, [r7, #4]
 5732 0022 1A60     		str	r2, [r3]
2055:Drivers/VL53L0X/core/src/vl53l0x_api.c **** 		DmaxCalSignalRateRtnMegaCps);
2056:Drivers/VL53L0X/core/src/vl53l0x_api.c **** 
2057:Drivers/VL53L0X/core/src/vl53l0x_api.c **** 	LOG_FUNCTION_END(Status);
2058:Drivers/VL53L0X/core/src/vl53l0x_api.c **** 	return Status;
 5733              		.loc 1 2058 9
 5734 0024 97F91730 		ldrsb	r3, [r7, #23]
2059:Drivers/VL53L0X/core/src/vl53l0x_api.c **** }
 5735              		.loc 1 2059 1
 5736 0028 1846     		mov	r0, r3
 5737 002a 1C37     		adds	r7, r7, #28
 5738              		.cfi_def_cfa_offset 4
 5739 002c BD46     		mov	sp, r7
 5740              		.cfi_def_cfa_register 13
 5741              		@ sp needed
 5742 002e 5DF8047B 		ldr	r7, [sp], #4
 5743              		.cfi_restore 7
 5744              		.cfi_def_cfa_offset 0
 5745 0032 7047     		bx	lr
 5746              		.cfi_endproc
 5747              	.LFE389:
 5749              		.section	.text.VL53L0X_PerformSingleMeasurement,"ax",%progbits
 5750              		.align	1
 5751              		.global	VL53L0X_PerformSingleMeasurement
 5752              		.syntax unified
 5753              		.thumb
 5754              		.thumb_func
 5756              	VL53L0X_PerformSingleMeasurement:
 5757              	.LFB390:
2060:Drivers/VL53L0X/core/src/vl53l0x_api.c **** 
2061:Drivers/VL53L0X/core/src/vl53l0x_api.c **** /* End Group PAL Parameters Functions */
2062:Drivers/VL53L0X/core/src/vl53l0x_api.c **** 
2063:Drivers/VL53L0X/core/src/vl53l0x_api.c **** /* Group PAL Measurement Functions */
2064:Drivers/VL53L0X/core/src/vl53l0x_api.c **** VL53L0X_Error VL53L0X_PerformSingleMeasurement(VL53L0X_DEV Dev)
2065:Drivers/VL53L0X/core/src/vl53l0x_api.c **** {
 5758              		.loc 1 2065 1
 5759              		.cfi_startproc
 5760              		@ args = 0, pretend = 0, frame = 16
 5761              		@ frame_needed = 1, uses_anonymous_args = 0
 5762 0000 80B5     		push	{r7, lr}
 5763              		.cfi_def_cfa_offset 8
ARM GAS  C:\Users\Morroway\AppData\Local\Temp\ccih4NWY.s 			page 139


 5764              		.cfi_offset 7, -8
 5765              		.cfi_offset 14, -4
 5766 0002 84B0     		sub	sp, sp, #16
 5767              		.cfi_def_cfa_offset 24
 5768 0004 00AF     		add	r7, sp, #0
 5769              		.cfi_def_cfa_register 7
 5770 0006 7860     		str	r0, [r7, #4]
2066:Drivers/VL53L0X/core/src/vl53l0x_api.c **** 	VL53L0X_Error Status = VL53L0X_ERROR_NONE;
 5771              		.loc 1 2066 16
 5772 0008 0023     		movs	r3, #0
 5773 000a FB73     		strb	r3, [r7, #15]
2067:Drivers/VL53L0X/core/src/vl53l0x_api.c **** 	VL53L0X_DeviceModes DeviceMode;
2068:Drivers/VL53L0X/core/src/vl53l0x_api.c **** 
2069:Drivers/VL53L0X/core/src/vl53l0x_api.c **** 	LOG_FUNCTION_START("");
2070:Drivers/VL53L0X/core/src/vl53l0x_api.c **** 
2071:Drivers/VL53L0X/core/src/vl53l0x_api.c **** 	/* Get Current DeviceMode */
2072:Drivers/VL53L0X/core/src/vl53l0x_api.c **** 	Status = VL53L0X_GetDeviceMode(Dev, &DeviceMode);
 5774              		.loc 1 2072 11
 5775 000c 07F10E03 		add	r3, r7, #14
 5776 0010 1946     		mov	r1, r3
 5777 0012 7868     		ldr	r0, [r7, #4]
 5778 0014 FFF7FEFF 		bl	VL53L0X_GetDeviceMode
 5779 0018 0346     		mov	r3, r0
 5780 001a FB73     		strb	r3, [r7, #15]
2073:Drivers/VL53L0X/core/src/vl53l0x_api.c **** 
2074:Drivers/VL53L0X/core/src/vl53l0x_api.c **** 	/* Start immediately to run a single ranging measurement in case of
2075:Drivers/VL53L0X/core/src/vl53l0x_api.c **** 	 * single ranging or single histogram */
2076:Drivers/VL53L0X/core/src/vl53l0x_api.c **** 	if (Status == VL53L0X_ERROR_NONE
 5781              		.loc 1 2076 5
 5782 001c 97F90F30 		ldrsb	r3, [r7, #15]
 5783 0020 002B     		cmp	r3, #0
 5784 0022 07D1     		bne	.L351
2077:Drivers/VL53L0X/core/src/vl53l0x_api.c **** 		&& DeviceMode == VL53L0X_DEVICEMODE_SINGLE_RANGING)
 5785              		.loc 1 2077 17
 5786 0024 BB7B     		ldrb	r3, [r7, #14]	@ zero_extendqisi2
 5787              		.loc 1 2077 3
 5788 0026 002B     		cmp	r3, #0
 5789 0028 04D1     		bne	.L351
2078:Drivers/VL53L0X/core/src/vl53l0x_api.c **** 		Status = VL53L0X_StartMeasurement(Dev);
 5790              		.loc 1 2078 12
 5791 002a 7868     		ldr	r0, [r7, #4]
 5792 002c FFF7FEFF 		bl	VL53L0X_StartMeasurement
 5793 0030 0346     		mov	r3, r0
 5794 0032 FB73     		strb	r3, [r7, #15]
 5795              	.L351:
2079:Drivers/VL53L0X/core/src/vl53l0x_api.c **** 
2080:Drivers/VL53L0X/core/src/vl53l0x_api.c **** 
2081:Drivers/VL53L0X/core/src/vl53l0x_api.c **** 	if (Status == VL53L0X_ERROR_NONE)
 5796              		.loc 1 2081 5
 5797 0034 97F90F30 		ldrsb	r3, [r7, #15]
 5798 0038 002B     		cmp	r3, #0
 5799 003a 04D1     		bne	.L352
2082:Drivers/VL53L0X/core/src/vl53l0x_api.c **** 		Status = VL53L0X_measurement_poll_for_completion(Dev);
 5800              		.loc 1 2082 12
 5801 003c 7868     		ldr	r0, [r7, #4]
 5802 003e FFF7FEFF 		bl	VL53L0X_measurement_poll_for_completion
 5803 0042 0346     		mov	r3, r0
ARM GAS  C:\Users\Morroway\AppData\Local\Temp\ccih4NWY.s 			page 140


 5804 0044 FB73     		strb	r3, [r7, #15]
 5805              	.L352:
2083:Drivers/VL53L0X/core/src/vl53l0x_api.c **** 
2084:Drivers/VL53L0X/core/src/vl53l0x_api.c **** 
2085:Drivers/VL53L0X/core/src/vl53l0x_api.c **** 	/* Change PAL State in case of single ranging or single histogram */
2086:Drivers/VL53L0X/core/src/vl53l0x_api.c **** 	if (Status == VL53L0X_ERROR_NONE
 5806              		.loc 1 2086 5
 5807 0046 97F90F30 		ldrsb	r3, [r7, #15]
 5808 004a 002B     		cmp	r3, #0
 5809 004c 06D1     		bne	.L353
2087:Drivers/VL53L0X/core/src/vl53l0x_api.c **** 		&& DeviceMode == VL53L0X_DEVICEMODE_SINGLE_RANGING)
 5810              		.loc 1 2087 17
 5811 004e BB7B     		ldrb	r3, [r7, #14]	@ zero_extendqisi2
 5812              		.loc 1 2087 3
 5813 0050 002B     		cmp	r3, #0
 5814 0052 03D1     		bne	.L353
2088:Drivers/VL53L0X/core/src/vl53l0x_api.c **** 		PALDevDataSet(Dev, PalState, VL53L0X_STATE_IDLE);
 5815              		.loc 1 2088 3
 5816 0054 7B68     		ldr	r3, [r7, #4]
 5817 0056 0322     		movs	r2, #3
 5818 0058 83F83221 		strb	r2, [r3, #306]
 5819              	.L353:
2089:Drivers/VL53L0X/core/src/vl53l0x_api.c **** 
2090:Drivers/VL53L0X/core/src/vl53l0x_api.c **** 
2091:Drivers/VL53L0X/core/src/vl53l0x_api.c **** 	LOG_FUNCTION_END(Status);
2092:Drivers/VL53L0X/core/src/vl53l0x_api.c **** 	return Status;
 5820              		.loc 1 2092 9
 5821 005c 97F90F30 		ldrsb	r3, [r7, #15]
2093:Drivers/VL53L0X/core/src/vl53l0x_api.c **** }
 5822              		.loc 1 2093 1
 5823 0060 1846     		mov	r0, r3
 5824 0062 1037     		adds	r7, r7, #16
 5825              		.cfi_def_cfa_offset 8
 5826 0064 BD46     		mov	sp, r7
 5827              		.cfi_def_cfa_register 13
 5828              		@ sp needed
 5829 0066 80BD     		pop	{r7, pc}
 5830              		.cfi_endproc
 5831              	.LFE390:
 5833              		.section	.text.VL53L0X_PerformSingleHistogramMeasurement,"ax",%progbits
 5834              		.align	1
 5835              		.global	VL53L0X_PerformSingleHistogramMeasurement
 5836              		.syntax unified
 5837              		.thumb
 5838              		.thumb_func
 5840              	VL53L0X_PerformSingleHistogramMeasurement:
 5841              	.LFB391:
2094:Drivers/VL53L0X/core/src/vl53l0x_api.c **** 
2095:Drivers/VL53L0X/core/src/vl53l0x_api.c **** VL53L0X_Error VL53L0X_PerformSingleHistogramMeasurement(VL53L0X_DEV Dev,
2096:Drivers/VL53L0X/core/src/vl53l0x_api.c **** 	VL53L0X_HistogramMeasurementData_t *pHistogramMeasurementData)
2097:Drivers/VL53L0X/core/src/vl53l0x_api.c **** {
 5842              		.loc 1 2097 1
 5843              		.cfi_startproc
 5844              		@ args = 0, pretend = 0, frame = 16
 5845              		@ frame_needed = 1, uses_anonymous_args = 0
 5846              		@ link register save eliminated.
 5847 0000 80B4     		push	{r7}
ARM GAS  C:\Users\Morroway\AppData\Local\Temp\ccih4NWY.s 			page 141


 5848              		.cfi_def_cfa_offset 4
 5849              		.cfi_offset 7, -4
 5850 0002 85B0     		sub	sp, sp, #20
 5851              		.cfi_def_cfa_offset 24
 5852 0004 00AF     		add	r7, sp, #0
 5853              		.cfi_def_cfa_register 7
 5854 0006 7860     		str	r0, [r7, #4]
 5855 0008 3960     		str	r1, [r7]
2098:Drivers/VL53L0X/core/src/vl53l0x_api.c **** 	VL53L0X_Error Status = VL53L0X_ERROR_NOT_IMPLEMENTED;
 5856              		.loc 1 2098 16
 5857 000a 9D23     		movs	r3, #157
 5858 000c FB73     		strb	r3, [r7, #15]
2099:Drivers/VL53L0X/core/src/vl53l0x_api.c **** 	LOG_FUNCTION_START("");
2100:Drivers/VL53L0X/core/src/vl53l0x_api.c **** 
2101:Drivers/VL53L0X/core/src/vl53l0x_api.c **** 	/* not implemented on VL53L0X */
2102:Drivers/VL53L0X/core/src/vl53l0x_api.c **** 
2103:Drivers/VL53L0X/core/src/vl53l0x_api.c **** 	LOG_FUNCTION_END(Status);
2104:Drivers/VL53L0X/core/src/vl53l0x_api.c **** 	return Status;
 5859              		.loc 1 2104 9
 5860 000e 97F90F30 		ldrsb	r3, [r7, #15]
2105:Drivers/VL53L0X/core/src/vl53l0x_api.c **** }
 5861              		.loc 1 2105 1
 5862 0012 1846     		mov	r0, r3
 5863 0014 1437     		adds	r7, r7, #20
 5864              		.cfi_def_cfa_offset 4
 5865 0016 BD46     		mov	sp, r7
 5866              		.cfi_def_cfa_register 13
 5867              		@ sp needed
 5868 0018 5DF8047B 		ldr	r7, [sp], #4
 5869              		.cfi_restore 7
 5870              		.cfi_def_cfa_offset 0
 5871 001c 7047     		bx	lr
 5872              		.cfi_endproc
 5873              	.LFE391:
 5875              		.section	.text.VL53L0X_PerformRefCalibration,"ax",%progbits
 5876              		.align	1
 5877              		.global	VL53L0X_PerformRefCalibration
 5878              		.syntax unified
 5879              		.thumb
 5880              		.thumb_func
 5882              	VL53L0X_PerformRefCalibration:
 5883              	.LFB392:
2106:Drivers/VL53L0X/core/src/vl53l0x_api.c **** 
2107:Drivers/VL53L0X/core/src/vl53l0x_api.c **** VL53L0X_Error VL53L0X_PerformRefCalibration(VL53L0X_DEV Dev, uint8_t *pVhvSettings,
2108:Drivers/VL53L0X/core/src/vl53l0x_api.c **** 	uint8_t *pPhaseCal)
2109:Drivers/VL53L0X/core/src/vl53l0x_api.c **** {
 5884              		.loc 1 2109 1
 5885              		.cfi_startproc
 5886              		@ args = 0, pretend = 0, frame = 24
 5887              		@ frame_needed = 1, uses_anonymous_args = 0
 5888 0000 80B5     		push	{r7, lr}
 5889              		.cfi_def_cfa_offset 8
 5890              		.cfi_offset 7, -8
 5891              		.cfi_offset 14, -4
 5892 0002 86B0     		sub	sp, sp, #24
 5893              		.cfi_def_cfa_offset 32
 5894 0004 00AF     		add	r7, sp, #0
ARM GAS  C:\Users\Morroway\AppData\Local\Temp\ccih4NWY.s 			page 142


 5895              		.cfi_def_cfa_register 7
 5896 0006 F860     		str	r0, [r7, #12]
 5897 0008 B960     		str	r1, [r7, #8]
 5898 000a 7A60     		str	r2, [r7, #4]
2110:Drivers/VL53L0X/core/src/vl53l0x_api.c **** 	VL53L0X_Error Status = VL53L0X_ERROR_NONE;
 5899              		.loc 1 2110 16
 5900 000c 0023     		movs	r3, #0
 5901 000e FB75     		strb	r3, [r7, #23]
2111:Drivers/VL53L0X/core/src/vl53l0x_api.c **** 	LOG_FUNCTION_START("");
2112:Drivers/VL53L0X/core/src/vl53l0x_api.c **** 
2113:Drivers/VL53L0X/core/src/vl53l0x_api.c **** 	Status = VL53L0X_perform_ref_calibration(Dev, pVhvSettings,
 5902              		.loc 1 2113 11
 5903 0010 0123     		movs	r3, #1
 5904 0012 7A68     		ldr	r2, [r7, #4]
 5905 0014 B968     		ldr	r1, [r7, #8]
 5906 0016 F868     		ldr	r0, [r7, #12]
 5907 0018 FFF7FEFF 		bl	VL53L0X_perform_ref_calibration
 5908 001c 0346     		mov	r3, r0
 5909 001e FB75     		strb	r3, [r7, #23]
2114:Drivers/VL53L0X/core/src/vl53l0x_api.c **** 		pPhaseCal, 1);
2115:Drivers/VL53L0X/core/src/vl53l0x_api.c **** 
2116:Drivers/VL53L0X/core/src/vl53l0x_api.c **** 	LOG_FUNCTION_END(Status);
2117:Drivers/VL53L0X/core/src/vl53l0x_api.c **** 	return Status;
 5910              		.loc 1 2117 9
 5911 0020 97F91730 		ldrsb	r3, [r7, #23]
2118:Drivers/VL53L0X/core/src/vl53l0x_api.c **** }
 5912              		.loc 1 2118 1
 5913 0024 1846     		mov	r0, r3
 5914 0026 1837     		adds	r7, r7, #24
 5915              		.cfi_def_cfa_offset 8
 5916 0028 BD46     		mov	sp, r7
 5917              		.cfi_def_cfa_register 13
 5918              		@ sp needed
 5919 002a 80BD     		pop	{r7, pc}
 5920              		.cfi_endproc
 5921              	.LFE392:
 5923              		.section	.text.VL53L0X_PerformXTalkMeasurement,"ax",%progbits
 5924              		.align	1
 5925              		.global	VL53L0X_PerformXTalkMeasurement
 5926              		.syntax unified
 5927              		.thumb
 5928              		.thumb_func
 5930              	VL53L0X_PerformXTalkMeasurement:
 5931              	.LFB393:
2119:Drivers/VL53L0X/core/src/vl53l0x_api.c **** 
2120:Drivers/VL53L0X/core/src/vl53l0x_api.c **** VL53L0X_Error VL53L0X_PerformXTalkMeasurement(VL53L0X_DEV Dev,
2121:Drivers/VL53L0X/core/src/vl53l0x_api.c **** 	uint32_t TimeoutMs, FixPoint1616_t *pXtalkPerSpad,
2122:Drivers/VL53L0X/core/src/vl53l0x_api.c **** 	uint8_t *pAmbientTooHigh)
2123:Drivers/VL53L0X/core/src/vl53l0x_api.c **** {
 5932              		.loc 1 2123 1
 5933              		.cfi_startproc
 5934              		@ args = 0, pretend = 0, frame = 24
 5935              		@ frame_needed = 1, uses_anonymous_args = 0
 5936              		@ link register save eliminated.
 5937 0000 80B4     		push	{r7}
 5938              		.cfi_def_cfa_offset 4
 5939              		.cfi_offset 7, -4
ARM GAS  C:\Users\Morroway\AppData\Local\Temp\ccih4NWY.s 			page 143


 5940 0002 87B0     		sub	sp, sp, #28
 5941              		.cfi_def_cfa_offset 32
 5942 0004 00AF     		add	r7, sp, #0
 5943              		.cfi_def_cfa_register 7
 5944 0006 F860     		str	r0, [r7, #12]
 5945 0008 B960     		str	r1, [r7, #8]
 5946 000a 7A60     		str	r2, [r7, #4]
 5947 000c 3B60     		str	r3, [r7]
2124:Drivers/VL53L0X/core/src/vl53l0x_api.c **** 	VL53L0X_Error Status = VL53L0X_ERROR_NOT_IMPLEMENTED;
 5948              		.loc 1 2124 16
 5949 000e 9D23     		movs	r3, #157
 5950 0010 FB75     		strb	r3, [r7, #23]
2125:Drivers/VL53L0X/core/src/vl53l0x_api.c **** 	LOG_FUNCTION_START("");
2126:Drivers/VL53L0X/core/src/vl53l0x_api.c **** 
2127:Drivers/VL53L0X/core/src/vl53l0x_api.c **** 	/* not implemented on VL53L0X */
2128:Drivers/VL53L0X/core/src/vl53l0x_api.c **** 
2129:Drivers/VL53L0X/core/src/vl53l0x_api.c **** 	LOG_FUNCTION_END(Status);
2130:Drivers/VL53L0X/core/src/vl53l0x_api.c **** 	return Status;
 5951              		.loc 1 2130 9
 5952 0012 97F91730 		ldrsb	r3, [r7, #23]
2131:Drivers/VL53L0X/core/src/vl53l0x_api.c **** }
 5953              		.loc 1 2131 1
 5954 0016 1846     		mov	r0, r3
 5955 0018 1C37     		adds	r7, r7, #28
 5956              		.cfi_def_cfa_offset 4
 5957 001a BD46     		mov	sp, r7
 5958              		.cfi_def_cfa_register 13
 5959              		@ sp needed
 5960 001c 5DF8047B 		ldr	r7, [sp], #4
 5961              		.cfi_restore 7
 5962              		.cfi_def_cfa_offset 0
 5963 0020 7047     		bx	lr
 5964              		.cfi_endproc
 5965              	.LFE393:
 5967              		.section	.text.VL53L0X_PerformXTalkCalibration,"ax",%progbits
 5968              		.align	1
 5969              		.global	VL53L0X_PerformXTalkCalibration
 5970              		.syntax unified
 5971              		.thumb
 5972              		.thumb_func
 5974              	VL53L0X_PerformXTalkCalibration:
 5975              	.LFB394:
2132:Drivers/VL53L0X/core/src/vl53l0x_api.c **** 
2133:Drivers/VL53L0X/core/src/vl53l0x_api.c **** VL53L0X_Error VL53L0X_PerformXTalkCalibration(VL53L0X_DEV Dev,
2134:Drivers/VL53L0X/core/src/vl53l0x_api.c **** 	FixPoint1616_t XTalkCalDistance,
2135:Drivers/VL53L0X/core/src/vl53l0x_api.c **** 	FixPoint1616_t *pXTalkCompensationRateMegaCps)
2136:Drivers/VL53L0X/core/src/vl53l0x_api.c **** {
 5976              		.loc 1 2136 1
 5977              		.cfi_startproc
 5978              		@ args = 0, pretend = 0, frame = 24
 5979              		@ frame_needed = 1, uses_anonymous_args = 0
 5980 0000 80B5     		push	{r7, lr}
 5981              		.cfi_def_cfa_offset 8
 5982              		.cfi_offset 7, -8
 5983              		.cfi_offset 14, -4
 5984 0002 86B0     		sub	sp, sp, #24
 5985              		.cfi_def_cfa_offset 32
ARM GAS  C:\Users\Morroway\AppData\Local\Temp\ccih4NWY.s 			page 144


 5986 0004 00AF     		add	r7, sp, #0
 5987              		.cfi_def_cfa_register 7
 5988 0006 F860     		str	r0, [r7, #12]
 5989 0008 B960     		str	r1, [r7, #8]
 5990 000a 7A60     		str	r2, [r7, #4]
2137:Drivers/VL53L0X/core/src/vl53l0x_api.c **** 	VL53L0X_Error Status = VL53L0X_ERROR_NONE;
 5991              		.loc 1 2137 16
 5992 000c 0023     		movs	r3, #0
 5993 000e FB75     		strb	r3, [r7, #23]
2138:Drivers/VL53L0X/core/src/vl53l0x_api.c **** 	LOG_FUNCTION_START("");
2139:Drivers/VL53L0X/core/src/vl53l0x_api.c **** 
2140:Drivers/VL53L0X/core/src/vl53l0x_api.c **** 	Status = VL53L0X_perform_xtalk_calibration(Dev, XTalkCalDistance,
 5994              		.loc 1 2140 11
 5995 0010 7A68     		ldr	r2, [r7, #4]
 5996 0012 B968     		ldr	r1, [r7, #8]
 5997 0014 F868     		ldr	r0, [r7, #12]
 5998 0016 FFF7FEFF 		bl	VL53L0X_perform_xtalk_calibration
 5999 001a 0346     		mov	r3, r0
 6000 001c FB75     		strb	r3, [r7, #23]
2141:Drivers/VL53L0X/core/src/vl53l0x_api.c **** 		pXTalkCompensationRateMegaCps);
2142:Drivers/VL53L0X/core/src/vl53l0x_api.c **** 
2143:Drivers/VL53L0X/core/src/vl53l0x_api.c **** 	LOG_FUNCTION_END(Status);
2144:Drivers/VL53L0X/core/src/vl53l0x_api.c **** 	return Status;
 6001              		.loc 1 2144 9
 6002 001e 97F91730 		ldrsb	r3, [r7, #23]
2145:Drivers/VL53L0X/core/src/vl53l0x_api.c **** }
 6003              		.loc 1 2145 1
 6004 0022 1846     		mov	r0, r3
 6005 0024 1837     		adds	r7, r7, #24
 6006              		.cfi_def_cfa_offset 8
 6007 0026 BD46     		mov	sp, r7
 6008              		.cfi_def_cfa_register 13
 6009              		@ sp needed
 6010 0028 80BD     		pop	{r7, pc}
 6011              		.cfi_endproc
 6012              	.LFE394:
 6014              		.section	.text.VL53L0X_PerformOffsetCalibration,"ax",%progbits
 6015              		.align	1
 6016              		.global	VL53L0X_PerformOffsetCalibration
 6017              		.syntax unified
 6018              		.thumb
 6019              		.thumb_func
 6021              	VL53L0X_PerformOffsetCalibration:
 6022              	.LFB395:
2146:Drivers/VL53L0X/core/src/vl53l0x_api.c **** 
2147:Drivers/VL53L0X/core/src/vl53l0x_api.c **** VL53L0X_Error VL53L0X_PerformOffsetCalibration(VL53L0X_DEV Dev,
2148:Drivers/VL53L0X/core/src/vl53l0x_api.c **** 	FixPoint1616_t CalDistanceMilliMeter, int32_t *pOffsetMicroMeter)
2149:Drivers/VL53L0X/core/src/vl53l0x_api.c **** {
 6023              		.loc 1 2149 1
 6024              		.cfi_startproc
 6025              		@ args = 0, pretend = 0, frame = 24
 6026              		@ frame_needed = 1, uses_anonymous_args = 0
 6027 0000 80B5     		push	{r7, lr}
 6028              		.cfi_def_cfa_offset 8
 6029              		.cfi_offset 7, -8
 6030              		.cfi_offset 14, -4
 6031 0002 86B0     		sub	sp, sp, #24
ARM GAS  C:\Users\Morroway\AppData\Local\Temp\ccih4NWY.s 			page 145


 6032              		.cfi_def_cfa_offset 32
 6033 0004 00AF     		add	r7, sp, #0
 6034              		.cfi_def_cfa_register 7
 6035 0006 F860     		str	r0, [r7, #12]
 6036 0008 B960     		str	r1, [r7, #8]
 6037 000a 7A60     		str	r2, [r7, #4]
2150:Drivers/VL53L0X/core/src/vl53l0x_api.c **** 	VL53L0X_Error Status = VL53L0X_ERROR_NONE;
 6038              		.loc 1 2150 16
 6039 000c 0023     		movs	r3, #0
 6040 000e FB75     		strb	r3, [r7, #23]
2151:Drivers/VL53L0X/core/src/vl53l0x_api.c **** 	LOG_FUNCTION_START("");
2152:Drivers/VL53L0X/core/src/vl53l0x_api.c **** 
2153:Drivers/VL53L0X/core/src/vl53l0x_api.c **** 	Status = VL53L0X_perform_offset_calibration(Dev, CalDistanceMilliMeter,
 6041              		.loc 1 2153 11
 6042 0010 7A68     		ldr	r2, [r7, #4]
 6043 0012 B968     		ldr	r1, [r7, #8]
 6044 0014 F868     		ldr	r0, [r7, #12]
 6045 0016 FFF7FEFF 		bl	VL53L0X_perform_offset_calibration
 6046 001a 0346     		mov	r3, r0
 6047 001c FB75     		strb	r3, [r7, #23]
2154:Drivers/VL53L0X/core/src/vl53l0x_api.c **** 		pOffsetMicroMeter);
2155:Drivers/VL53L0X/core/src/vl53l0x_api.c **** 
2156:Drivers/VL53L0X/core/src/vl53l0x_api.c **** 	LOG_FUNCTION_END(Status);
2157:Drivers/VL53L0X/core/src/vl53l0x_api.c **** 	return Status;
 6048              		.loc 1 2157 9
 6049 001e 97F91730 		ldrsb	r3, [r7, #23]
2158:Drivers/VL53L0X/core/src/vl53l0x_api.c **** }
 6050              		.loc 1 2158 1
 6051 0022 1846     		mov	r0, r3
 6052 0024 1837     		adds	r7, r7, #24
 6053              		.cfi_def_cfa_offset 8
 6054 0026 BD46     		mov	sp, r7
 6055              		.cfi_def_cfa_register 13
 6056              		@ sp needed
 6057 0028 80BD     		pop	{r7, pc}
 6058              		.cfi_endproc
 6059              	.LFE395:
 6061              		.section	.text.VL53L0X_CheckAndLoadInterruptSettings,"ax",%progbits
 6062              		.align	1
 6063              		.global	VL53L0X_CheckAndLoadInterruptSettings
 6064              		.syntax unified
 6065              		.thumb
 6066              		.thumb_func
 6068              	VL53L0X_CheckAndLoadInterruptSettings:
 6069              	.LFB396:
2159:Drivers/VL53L0X/core/src/vl53l0x_api.c **** 
2160:Drivers/VL53L0X/core/src/vl53l0x_api.c **** VL53L0X_Error VL53L0X_CheckAndLoadInterruptSettings(VL53L0X_DEV Dev,
2161:Drivers/VL53L0X/core/src/vl53l0x_api.c **** 	uint8_t StartNotStopFlag)
2162:Drivers/VL53L0X/core/src/vl53l0x_api.c **** {
 6070              		.loc 1 2162 1
 6071              		.cfi_startproc
 6072              		@ args = 0, pretend = 0, frame = 24
 6073              		@ frame_needed = 1, uses_anonymous_args = 0
 6074 0000 80B5     		push	{r7, lr}
 6075              		.cfi_def_cfa_offset 8
 6076              		.cfi_offset 7, -8
 6077              		.cfi_offset 14, -4
ARM GAS  C:\Users\Morroway\AppData\Local\Temp\ccih4NWY.s 			page 146


 6078 0002 86B0     		sub	sp, sp, #24
 6079              		.cfi_def_cfa_offset 32
 6080 0004 00AF     		add	r7, sp, #0
 6081              		.cfi_def_cfa_register 7
 6082 0006 7860     		str	r0, [r7, #4]
 6083 0008 0B46     		mov	r3, r1
 6084 000a FB70     		strb	r3, [r7, #3]
2163:Drivers/VL53L0X/core/src/vl53l0x_api.c **** 	uint8_t InterruptConfig;
2164:Drivers/VL53L0X/core/src/vl53l0x_api.c **** 	FixPoint1616_t ThresholdLow;
2165:Drivers/VL53L0X/core/src/vl53l0x_api.c **** 	FixPoint1616_t ThresholdHigh;
2166:Drivers/VL53L0X/core/src/vl53l0x_api.c **** 	VL53L0X_Error Status = VL53L0X_ERROR_NONE;
 6085              		.loc 1 2166 16
 6086 000c 0023     		movs	r3, #0
 6087 000e FB75     		strb	r3, [r7, #23]
2167:Drivers/VL53L0X/core/src/vl53l0x_api.c **** 
2168:Drivers/VL53L0X/core/src/vl53l0x_api.c **** 	InterruptConfig = VL53L0X_GETDEVICESPECIFICPARAMETER(Dev,
 6088              		.loc 1 2168 18
 6089 0010 7B68     		ldr	r3, [r7, #4]
 6090 0012 93F8DA30 		ldrb	r3, [r3, #218]
 6091 0016 BB75     		strb	r3, [r7, #22]
2169:Drivers/VL53L0X/core/src/vl53l0x_api.c **** 		Pin0GpioFunctionality);
2170:Drivers/VL53L0X/core/src/vl53l0x_api.c **** 
2171:Drivers/VL53L0X/core/src/vl53l0x_api.c **** 	if ((InterruptConfig ==
 6092              		.loc 1 2171 5
 6093 0018 BB7D     		ldrb	r3, [r7, #22]	@ zero_extendqisi2
 6094 001a 012B     		cmp	r3, #1
 6095 001c 05D0     		beq	.L366
2172:Drivers/VL53L0X/core/src/vl53l0x_api.c **** 		VL53L0X_GPIOFUNCTIONALITY_THRESHOLD_CROSSED_LOW) ||
 6096              		.loc 1 2172 52
 6097 001e BB7D     		ldrb	r3, [r7, #22]	@ zero_extendqisi2
 6098 0020 022B     		cmp	r3, #2
 6099 0022 02D0     		beq	.L366
2173:Drivers/VL53L0X/core/src/vl53l0x_api.c **** 		(InterruptConfig ==
2174:Drivers/VL53L0X/core/src/vl53l0x_api.c **** 		VL53L0X_GPIOFUNCTIONALITY_THRESHOLD_CROSSED_HIGH) ||
 6100              		.loc 1 2174 53
 6101 0024 BB7D     		ldrb	r3, [r7, #22]	@ zero_extendqisi2
 6102 0026 032B     		cmp	r3, #3
 6103 0028 47D1     		bne	.L367
 6104              	.L366:
2175:Drivers/VL53L0X/core/src/vl53l0x_api.c **** 		(InterruptConfig ==
2176:Drivers/VL53L0X/core/src/vl53l0x_api.c **** 		VL53L0X_GPIOFUNCTIONALITY_THRESHOLD_CROSSED_OUT)) {
2177:Drivers/VL53L0X/core/src/vl53l0x_api.c **** 
2178:Drivers/VL53L0X/core/src/vl53l0x_api.c **** 		Status = VL53L0X_GetInterruptThresholds(Dev,
 6105              		.loc 1 2178 12
 6106 002a 07F10C03 		add	r3, r7, #12
 6107 002e 07F11002 		add	r2, r7, #16
 6108 0032 0121     		movs	r1, #1
 6109 0034 7868     		ldr	r0, [r7, #4]
 6110 0036 FFF7FEFF 		bl	VL53L0X_GetInterruptThresholds
 6111 003a 0346     		mov	r3, r0
 6112 003c FB75     		strb	r3, [r7, #23]
2179:Drivers/VL53L0X/core/src/vl53l0x_api.c **** 			VL53L0X_DEVICEMODE_CONTINUOUS_RANGING,
2180:Drivers/VL53L0X/core/src/vl53l0x_api.c **** 			&ThresholdLow, &ThresholdHigh);
2181:Drivers/VL53L0X/core/src/vl53l0x_api.c **** 
2182:Drivers/VL53L0X/core/src/vl53l0x_api.c **** 		if (((ThresholdLow > 255*65536) ||
 6113              		.loc 1 2182 22
 6114 003e 3B69     		ldr	r3, [r7, #16]
ARM GAS  C:\Users\Morroway\AppData\Local\Temp\ccih4NWY.s 			page 147


 6115              		.loc 1 2182 6
 6116 0040 B3F57F0F 		cmp	r3, #16711680
 6117 0044 03D8     		bhi	.L368
2183:Drivers/VL53L0X/core/src/vl53l0x_api.c **** 			(ThresholdHigh > 255*65536)) &&
 6118              		.loc 1 2183 19 discriminator 1
 6119 0046 FB68     		ldr	r3, [r7, #12]
2182:Drivers/VL53L0X/core/src/vl53l0x_api.c **** 			(ThresholdHigh > 255*65536)) &&
 6120              		.loc 1 2182 35 discriminator 1
 6121 0048 B3F57F0F 		cmp	r3, #16711680
 6122 004c 35D9     		bls	.L367
 6123              	.L368:
 6124              		.loc 1 2183 33
 6125 004e 97F91730 		ldrsb	r3, [r7, #23]
 6126 0052 002B     		cmp	r3, #0
 6127 0054 31D1     		bne	.L367
2184:Drivers/VL53L0X/core/src/vl53l0x_api.c **** 			(Status == VL53L0X_ERROR_NONE)) {
2185:Drivers/VL53L0X/core/src/vl53l0x_api.c **** 
2186:Drivers/VL53L0X/core/src/vl53l0x_api.c **** 			if (StartNotStopFlag != 0) {
 6128              		.loc 1 2186 7
 6129 0056 FB78     		ldrb	r3, [r7, #3]	@ zero_extendqisi2
 6130 0058 002B     		cmp	r3, #0
 6131 005a 06D0     		beq	.L369
2187:Drivers/VL53L0X/core/src/vl53l0x_api.c **** 				Status = VL53L0X_load_tuning_settings(Dev,
 6132              		.loc 1 2187 14
 6133 005c 1A49     		ldr	r1, .L371
 6134 005e 7868     		ldr	r0, [r7, #4]
 6135 0060 FFF7FEFF 		bl	VL53L0X_load_tuning_settings
 6136 0064 0346     		mov	r3, r0
 6137 0066 FB75     		strb	r3, [r7, #23]
 6138 0068 27E0     		b	.L367
 6139              	.L369:
2188:Drivers/VL53L0X/core/src/vl53l0x_api.c **** 					InterruptThresholdSettings);
2189:Drivers/VL53L0X/core/src/vl53l0x_api.c **** 			} else {
2190:Drivers/VL53L0X/core/src/vl53l0x_api.c **** 				Status |= VL53L0X_WrByte(Dev, 0xFF, 0x04);
 6140              		.loc 1 2190 15
 6141 006a 0422     		movs	r2, #4
 6142 006c FF21     		movs	r1, #255
 6143 006e 7868     		ldr	r0, [r7, #4]
 6144 0070 FFF7FEFF 		bl	VL53L0X_WrByte
 6145 0074 0346     		mov	r3, r0
 6146 0076 1A46     		mov	r2, r3
 6147              		.loc 1 2190 12
 6148 0078 FB7D     		ldrb	r3, [r7, #23]
 6149 007a 1343     		orrs	r3, r3, r2
 6150 007c FB75     		strb	r3, [r7, #23]
2191:Drivers/VL53L0X/core/src/vl53l0x_api.c **** 				Status |= VL53L0X_WrByte(Dev, 0x70, 0x00);
 6151              		.loc 1 2191 15
 6152 007e 0022     		movs	r2, #0
 6153 0080 7021     		movs	r1, #112
 6154 0082 7868     		ldr	r0, [r7, #4]
 6155 0084 FFF7FEFF 		bl	VL53L0X_WrByte
 6156 0088 0346     		mov	r3, r0
 6157 008a 1A46     		mov	r2, r3
 6158              		.loc 1 2191 12
 6159 008c FB7D     		ldrb	r3, [r7, #23]
 6160 008e 1343     		orrs	r3, r3, r2
 6161 0090 FB75     		strb	r3, [r7, #23]
ARM GAS  C:\Users\Morroway\AppData\Local\Temp\ccih4NWY.s 			page 148


2192:Drivers/VL53L0X/core/src/vl53l0x_api.c **** 				Status |= VL53L0X_WrByte(Dev, 0xFF, 0x00);
 6162              		.loc 1 2192 15
 6163 0092 0022     		movs	r2, #0
 6164 0094 FF21     		movs	r1, #255
 6165 0096 7868     		ldr	r0, [r7, #4]
 6166 0098 FFF7FEFF 		bl	VL53L0X_WrByte
 6167 009c 0346     		mov	r3, r0
 6168 009e 1A46     		mov	r2, r3
 6169              		.loc 1 2192 12
 6170 00a0 FB7D     		ldrb	r3, [r7, #23]
 6171 00a2 1343     		orrs	r3, r3, r2
 6172 00a4 FB75     		strb	r3, [r7, #23]
2193:Drivers/VL53L0X/core/src/vl53l0x_api.c **** 				Status |= VL53L0X_WrByte(Dev, 0x80, 0x00);
 6173              		.loc 1 2193 15
 6174 00a6 0022     		movs	r2, #0
 6175 00a8 8021     		movs	r1, #128
 6176 00aa 7868     		ldr	r0, [r7, #4]
 6177 00ac FFF7FEFF 		bl	VL53L0X_WrByte
 6178 00b0 0346     		mov	r3, r0
 6179 00b2 1A46     		mov	r2, r3
 6180              		.loc 1 2193 12
 6181 00b4 FB7D     		ldrb	r3, [r7, #23]
 6182 00b6 1343     		orrs	r3, r3, r2
 6183 00b8 FB75     		strb	r3, [r7, #23]
 6184              	.L367:
2194:Drivers/VL53L0X/core/src/vl53l0x_api.c **** 			}
2195:Drivers/VL53L0X/core/src/vl53l0x_api.c **** 
2196:Drivers/VL53L0X/core/src/vl53l0x_api.c **** 		}
2197:Drivers/VL53L0X/core/src/vl53l0x_api.c **** 
2198:Drivers/VL53L0X/core/src/vl53l0x_api.c **** 
2199:Drivers/VL53L0X/core/src/vl53l0x_api.c **** 	}
2200:Drivers/VL53L0X/core/src/vl53l0x_api.c **** 
2201:Drivers/VL53L0X/core/src/vl53l0x_api.c **** 	return Status;
 6185              		.loc 1 2201 9
 6186 00ba 97F91730 		ldrsb	r3, [r7, #23]
2202:Drivers/VL53L0X/core/src/vl53l0x_api.c **** 
2203:Drivers/VL53L0X/core/src/vl53l0x_api.c **** }
 6187              		.loc 1 2203 1
 6188 00be 1846     		mov	r0, r3
 6189 00c0 1837     		adds	r7, r7, #24
 6190              		.cfi_def_cfa_offset 8
 6191 00c2 BD46     		mov	sp, r7
 6192              		.cfi_def_cfa_register 13
 6193              		@ sp needed
 6194 00c4 80BD     		pop	{r7, pc}
 6195              	.L372:
 6196 00c6 00BF     		.align	2
 6197              	.L371:
 6198 00c8 00000000 		.word	InterruptThresholdSettings
 6199              		.cfi_endproc
 6200              	.LFE396:
 6202              		.section	.text.VL53L0X_StartMeasurement,"ax",%progbits
 6203              		.align	1
 6204              		.global	VL53L0X_StartMeasurement
 6205              		.syntax unified
 6206              		.thumb
 6207              		.thumb_func
ARM GAS  C:\Users\Morroway\AppData\Local\Temp\ccih4NWY.s 			page 149


 6209              	VL53L0X_StartMeasurement:
 6210              	.LFB397:
2204:Drivers/VL53L0X/core/src/vl53l0x_api.c **** 
2205:Drivers/VL53L0X/core/src/vl53l0x_api.c **** 
2206:Drivers/VL53L0X/core/src/vl53l0x_api.c **** VL53L0X_Error VL53L0X_StartMeasurement(VL53L0X_DEV Dev)
2207:Drivers/VL53L0X/core/src/vl53l0x_api.c **** {
 6211              		.loc 1 2207 1
 6212              		.cfi_startproc
 6213              		@ args = 0, pretend = 0, frame = 24
 6214              		@ frame_needed = 1, uses_anonymous_args = 0
 6215 0000 80B5     		push	{r7, lr}
 6216              		.cfi_def_cfa_offset 8
 6217              		.cfi_offset 7, -8
 6218              		.cfi_offset 14, -4
 6219 0002 86B0     		sub	sp, sp, #24
 6220              		.cfi_def_cfa_offset 32
 6221 0004 00AF     		add	r7, sp, #0
 6222              		.cfi_def_cfa_register 7
 6223 0006 7860     		str	r0, [r7, #4]
2208:Drivers/VL53L0X/core/src/vl53l0x_api.c **** 	VL53L0X_Error Status = VL53L0X_ERROR_NONE;
 6224              		.loc 1 2208 16
 6225 0008 0023     		movs	r3, #0
 6226 000a FB75     		strb	r3, [r7, #23]
2209:Drivers/VL53L0X/core/src/vl53l0x_api.c **** 	VL53L0X_DeviceModes DeviceMode;
2210:Drivers/VL53L0X/core/src/vl53l0x_api.c **** 	uint8_t Byte;
2211:Drivers/VL53L0X/core/src/vl53l0x_api.c **** 	uint8_t StartStopByte = VL53L0X_REG_SYSRANGE_MODE_START_STOP;
 6227              		.loc 1 2211 10
 6228 000c 0123     		movs	r3, #1
 6229 000e FB73     		strb	r3, [r7, #15]
2212:Drivers/VL53L0X/core/src/vl53l0x_api.c **** 	uint32_t LoopNb;
2213:Drivers/VL53L0X/core/src/vl53l0x_api.c **** 	LOG_FUNCTION_START("");
2214:Drivers/VL53L0X/core/src/vl53l0x_api.c **** 
2215:Drivers/VL53L0X/core/src/vl53l0x_api.c **** 	/* Get Current DeviceMode */
2216:Drivers/VL53L0X/core/src/vl53l0x_api.c **** 	VL53L0X_GetDeviceMode(Dev, &DeviceMode);
 6230              		.loc 1 2216 2
 6231 0010 07F10E03 		add	r3, r7, #14
 6232 0014 1946     		mov	r1, r3
 6233 0016 7868     		ldr	r0, [r7, #4]
 6234 0018 FFF7FEFF 		bl	VL53L0X_GetDeviceMode
2217:Drivers/VL53L0X/core/src/vl53l0x_api.c **** 
2218:Drivers/VL53L0X/core/src/vl53l0x_api.c **** 	Status = VL53L0X_WrByte(Dev, 0x80, 0x01);
 6235              		.loc 1 2218 11
 6236 001c 0122     		movs	r2, #1
 6237 001e 8021     		movs	r1, #128
 6238 0020 7868     		ldr	r0, [r7, #4]
 6239 0022 FFF7FEFF 		bl	VL53L0X_WrByte
 6240 0026 0346     		mov	r3, r0
 6241 0028 FB75     		strb	r3, [r7, #23]
2219:Drivers/VL53L0X/core/src/vl53l0x_api.c **** 	Status = VL53L0X_WrByte(Dev, 0xFF, 0x01);
 6242              		.loc 1 2219 11
 6243 002a 0122     		movs	r2, #1
 6244 002c FF21     		movs	r1, #255
 6245 002e 7868     		ldr	r0, [r7, #4]
 6246 0030 FFF7FEFF 		bl	VL53L0X_WrByte
 6247 0034 0346     		mov	r3, r0
 6248 0036 FB75     		strb	r3, [r7, #23]
2220:Drivers/VL53L0X/core/src/vl53l0x_api.c **** 	Status = VL53L0X_WrByte(Dev, 0x00, 0x00);
ARM GAS  C:\Users\Morroway\AppData\Local\Temp\ccih4NWY.s 			page 150


 6249              		.loc 1 2220 11
 6250 0038 0022     		movs	r2, #0
 6251 003a 0021     		movs	r1, #0
 6252 003c 7868     		ldr	r0, [r7, #4]
 6253 003e FFF7FEFF 		bl	VL53L0X_WrByte
 6254 0042 0346     		mov	r3, r0
 6255 0044 FB75     		strb	r3, [r7, #23]
2221:Drivers/VL53L0X/core/src/vl53l0x_api.c **** 	Status = VL53L0X_WrByte(Dev, 0x91, PALDevDataGet(Dev, StopVariable));
 6256              		.loc 1 2221 11
 6257 0046 7B68     		ldr	r3, [r7, #4]
 6258 0048 93F83A31 		ldrb	r3, [r3, #314]	@ zero_extendqisi2
 6259 004c 1A46     		mov	r2, r3
 6260 004e 9121     		movs	r1, #145
 6261 0050 7868     		ldr	r0, [r7, #4]
 6262 0052 FFF7FEFF 		bl	VL53L0X_WrByte
 6263 0056 0346     		mov	r3, r0
 6264 0058 FB75     		strb	r3, [r7, #23]
2222:Drivers/VL53L0X/core/src/vl53l0x_api.c **** 	Status = VL53L0X_WrByte(Dev, 0x00, 0x01);
 6265              		.loc 1 2222 11
 6266 005a 0122     		movs	r2, #1
 6267 005c 0021     		movs	r1, #0
 6268 005e 7868     		ldr	r0, [r7, #4]
 6269 0060 FFF7FEFF 		bl	VL53L0X_WrByte
 6270 0064 0346     		mov	r3, r0
 6271 0066 FB75     		strb	r3, [r7, #23]
2223:Drivers/VL53L0X/core/src/vl53l0x_api.c **** 	Status = VL53L0X_WrByte(Dev, 0xFF, 0x00);
 6272              		.loc 1 2223 11
 6273 0068 0022     		movs	r2, #0
 6274 006a FF21     		movs	r1, #255
 6275 006c 7868     		ldr	r0, [r7, #4]
 6276 006e FFF7FEFF 		bl	VL53L0X_WrByte
 6277 0072 0346     		mov	r3, r0
 6278 0074 FB75     		strb	r3, [r7, #23]
2224:Drivers/VL53L0X/core/src/vl53l0x_api.c **** 	Status = VL53L0X_WrByte(Dev, 0x80, 0x00);
 6279              		.loc 1 2224 11
 6280 0076 0022     		movs	r2, #0
 6281 0078 8021     		movs	r1, #128
 6282 007a 7868     		ldr	r0, [r7, #4]
 6283 007c FFF7FEFF 		bl	VL53L0X_WrByte
 6284 0080 0346     		mov	r3, r0
 6285 0082 FB75     		strb	r3, [r7, #23]
2225:Drivers/VL53L0X/core/src/vl53l0x_api.c **** 
2226:Drivers/VL53L0X/core/src/vl53l0x_api.c **** 	switch (DeviceMode) {
 6286              		.loc 1 2226 2
 6287 0084 BB7B     		ldrb	r3, [r7, #14]	@ zero_extendqisi2
 6288 0086 032B     		cmp	r3, #3
 6289 0088 54D0     		beq	.L374
 6290 008a 032B     		cmp	r3, #3
 6291 008c 6CDC     		bgt	.L375
 6292 008e 002B     		cmp	r3, #0
 6293 0090 02D0     		beq	.L376
 6294 0092 012B     		cmp	r3, #1
 6295 0094 34D0     		beq	.L377
 6296 0096 67E0     		b	.L375
 6297              	.L376:
2227:Drivers/VL53L0X/core/src/vl53l0x_api.c **** 	case VL53L0X_DEVICEMODE_SINGLE_RANGING:
2228:Drivers/VL53L0X/core/src/vl53l0x_api.c **** 		Status = VL53L0X_WrByte(Dev, VL53L0X_REG_SYSRANGE_START, 0x01);
ARM GAS  C:\Users\Morroway\AppData\Local\Temp\ccih4NWY.s 			page 151


 6298              		.loc 1 2228 12
 6299 0098 0122     		movs	r2, #1
 6300 009a 0021     		movs	r1, #0
 6301 009c 7868     		ldr	r0, [r7, #4]
 6302 009e FFF7FEFF 		bl	VL53L0X_WrByte
 6303 00a2 0346     		mov	r3, r0
 6304 00a4 FB75     		strb	r3, [r7, #23]
2229:Drivers/VL53L0X/core/src/vl53l0x_api.c **** 
2230:Drivers/VL53L0X/core/src/vl53l0x_api.c **** 		Byte = StartStopByte;
 6305              		.loc 1 2230 8
 6306 00a6 FB7B     		ldrb	r3, [r7, #15]
 6307 00a8 7B73     		strb	r3, [r7, #13]
2231:Drivers/VL53L0X/core/src/vl53l0x_api.c **** 		if (Status == VL53L0X_ERROR_NONE) {
 6308              		.loc 1 2231 6
 6309 00aa 97F91730 		ldrsb	r3, [r7, #23]
 6310 00ae 002B     		cmp	r3, #0
 6311 00b0 5DD1     		bne	.L388
2232:Drivers/VL53L0X/core/src/vl53l0x_api.c **** 			/* Wait until start bit has been cleared */
2233:Drivers/VL53L0X/core/src/vl53l0x_api.c **** 			LoopNb = 0;
 6312              		.loc 1 2233 11
 6313 00b2 0023     		movs	r3, #0
 6314 00b4 3B61     		str	r3, [r7, #16]
 6315              	.L381:
2234:Drivers/VL53L0X/core/src/vl53l0x_api.c **** 			do {
2235:Drivers/VL53L0X/core/src/vl53l0x_api.c **** 				if (LoopNb > 0)
 6316              		.loc 1 2235 8
 6317 00b6 3B69     		ldr	r3, [r7, #16]
 6318 00b8 002B     		cmp	r3, #0
 6319 00ba 08D0     		beq	.L379
2236:Drivers/VL53L0X/core/src/vl53l0x_api.c **** 					Status = VL53L0X_RdByte(Dev,
 6320              		.loc 1 2236 15
 6321 00bc 07F10D03 		add	r3, r7, #13
 6322 00c0 1A46     		mov	r2, r3
 6323 00c2 0021     		movs	r1, #0
 6324 00c4 7868     		ldr	r0, [r7, #4]
 6325 00c6 FFF7FEFF 		bl	VL53L0X_RdByte
 6326 00ca 0346     		mov	r3, r0
 6327 00cc FB75     		strb	r3, [r7, #23]
 6328              	.L379:
2237:Drivers/VL53L0X/core/src/vl53l0x_api.c **** 					VL53L0X_REG_SYSRANGE_START, &Byte);
2238:Drivers/VL53L0X/core/src/vl53l0x_api.c **** 				LoopNb = LoopNb + 1;
 6329              		.loc 1 2238 12
 6330 00ce 3B69     		ldr	r3, [r7, #16]
 6331 00d0 0133     		adds	r3, r3, #1
 6332 00d2 3B61     		str	r3, [r7, #16]
2239:Drivers/VL53L0X/core/src/vl53l0x_api.c **** 			} while (((Byte & StartStopByte) == StartStopByte)
 6333              		.loc 1 2239 37
 6334 00d4 7A7B     		ldrb	r2, [r7, #13]	@ zero_extendqisi2
 6335 00d6 FB7B     		ldrb	r3, [r7, #15]
 6336 00d8 1340     		ands	r3, r3, r2
 6337 00da DBB2     		uxtb	r3, r3
2240:Drivers/VL53L0X/core/src/vl53l0x_api.c **** 				&& (Status == VL53L0X_ERROR_NONE)
2241:Drivers/VL53L0X/core/src/vl53l0x_api.c **** 				&& (LoopNb < VL53L0X_DEFAULT_MAX_LOOP));
 6338              		.loc 1 2241 5
 6339 00dc FA7B     		ldrb	r2, [r7, #15]	@ zero_extendqisi2
 6340 00de 9A42     		cmp	r2, r3
 6341 00e0 07D1     		bne	.L380
ARM GAS  C:\Users\Morroway\AppData\Local\Temp\ccih4NWY.s 			page 152


2240:Drivers/VL53L0X/core/src/vl53l0x_api.c **** 				&& (Status == VL53L0X_ERROR_NONE)
 6342              		.loc 1 2240 5
 6343 00e2 97F91730 		ldrsb	r3, [r7, #23]
 6344 00e6 002B     		cmp	r3, #0
 6345 00e8 03D1     		bne	.L380
 6346              		.loc 1 2241 5
 6347 00ea 3B69     		ldr	r3, [r7, #16]
 6348 00ec B3F5FA6F 		cmp	r3, #2000
 6349 00f0 E1D3     		bcc	.L381
 6350              	.L380:
2242:Drivers/VL53L0X/core/src/vl53l0x_api.c **** 
2243:Drivers/VL53L0X/core/src/vl53l0x_api.c **** 			if (LoopNb >= VL53L0X_DEFAULT_MAX_LOOP)
 6351              		.loc 1 2243 7
 6352 00f2 3B69     		ldr	r3, [r7, #16]
 6353 00f4 B3F5FA6F 		cmp	r3, #2000
 6354 00f8 39D3     		bcc	.L388
2244:Drivers/VL53L0X/core/src/vl53l0x_api.c **** 				Status = VL53L0X_ERROR_TIME_OUT;
 6355              		.loc 1 2244 12
 6356 00fa F923     		movs	r3, #249
 6357 00fc FB75     		strb	r3, [r7, #23]
2245:Drivers/VL53L0X/core/src/vl53l0x_api.c **** 
2246:Drivers/VL53L0X/core/src/vl53l0x_api.c **** 		}
2247:Drivers/VL53L0X/core/src/vl53l0x_api.c **** 
2248:Drivers/VL53L0X/core/src/vl53l0x_api.c **** 		break;
 6358              		.loc 1 2248 3
 6359 00fe 36E0     		b	.L388
 6360              	.L377:
2249:Drivers/VL53L0X/core/src/vl53l0x_api.c **** 	case VL53L0X_DEVICEMODE_CONTINUOUS_RANGING:
2250:Drivers/VL53L0X/core/src/vl53l0x_api.c **** 		/* Back-to-back mode */
2251:Drivers/VL53L0X/core/src/vl53l0x_api.c **** 
2252:Drivers/VL53L0X/core/src/vl53l0x_api.c **** 		/* Check if need to apply interrupt settings */
2253:Drivers/VL53L0X/core/src/vl53l0x_api.c **** 		if (Status == VL53L0X_ERROR_NONE)
 6361              		.loc 1 2253 6
 6362 0100 97F91730 		ldrsb	r3, [r7, #23]
 6363 0104 002B     		cmp	r3, #0
 6364 0106 05D1     		bne	.L383
2254:Drivers/VL53L0X/core/src/vl53l0x_api.c **** 			Status = VL53L0X_CheckAndLoadInterruptSettings(Dev, 1);
 6365              		.loc 1 2254 13
 6366 0108 0121     		movs	r1, #1
 6367 010a 7868     		ldr	r0, [r7, #4]
 6368 010c FFF7FEFF 		bl	VL53L0X_CheckAndLoadInterruptSettings
 6369 0110 0346     		mov	r3, r0
 6370 0112 FB75     		strb	r3, [r7, #23]
 6371              	.L383:
2255:Drivers/VL53L0X/core/src/vl53l0x_api.c **** 
2256:Drivers/VL53L0X/core/src/vl53l0x_api.c **** 		Status = VL53L0X_WrByte(Dev,
 6372              		.loc 1 2256 12
 6373 0114 0222     		movs	r2, #2
 6374 0116 0021     		movs	r1, #0
 6375 0118 7868     		ldr	r0, [r7, #4]
 6376 011a FFF7FEFF 		bl	VL53L0X_WrByte
 6377 011e 0346     		mov	r3, r0
 6378 0120 FB75     		strb	r3, [r7, #23]
2257:Drivers/VL53L0X/core/src/vl53l0x_api.c **** 		VL53L0X_REG_SYSRANGE_START,
2258:Drivers/VL53L0X/core/src/vl53l0x_api.c **** 		VL53L0X_REG_SYSRANGE_MODE_BACKTOBACK);
2259:Drivers/VL53L0X/core/src/vl53l0x_api.c **** 		if (Status == VL53L0X_ERROR_NONE) {
 6379              		.loc 1 2259 6
ARM GAS  C:\Users\Morroway\AppData\Local\Temp\ccih4NWY.s 			page 153


 6380 0122 97F91730 		ldrsb	r3, [r7, #23]
 6381 0126 002B     		cmp	r3, #0
 6382 0128 23D1     		bne	.L389
2260:Drivers/VL53L0X/core/src/vl53l0x_api.c **** 			/* Set PAL State to Running */
2261:Drivers/VL53L0X/core/src/vl53l0x_api.c **** 			PALDevDataSet(Dev, PalState, VL53L0X_STATE_RUNNING);
 6383              		.loc 1 2261 4
 6384 012a 7B68     		ldr	r3, [r7, #4]
 6385 012c 0422     		movs	r2, #4
 6386 012e 83F83221 		strb	r2, [r3, #306]
2262:Drivers/VL53L0X/core/src/vl53l0x_api.c **** 		}
2263:Drivers/VL53L0X/core/src/vl53l0x_api.c **** 		break;
 6387              		.loc 1 2263 3
 6388 0132 1EE0     		b	.L389
 6389              	.L374:
2264:Drivers/VL53L0X/core/src/vl53l0x_api.c **** 	case VL53L0X_DEVICEMODE_CONTINUOUS_TIMED_RANGING:
2265:Drivers/VL53L0X/core/src/vl53l0x_api.c **** 		/* Continuous mode */
2266:Drivers/VL53L0X/core/src/vl53l0x_api.c **** 		/* Check if need to apply interrupt settings */
2267:Drivers/VL53L0X/core/src/vl53l0x_api.c **** 		if (Status == VL53L0X_ERROR_NONE)
 6390              		.loc 1 2267 6
 6391 0134 97F91730 		ldrsb	r3, [r7, #23]
 6392 0138 002B     		cmp	r3, #0
 6393 013a 05D1     		bne	.L385
2268:Drivers/VL53L0X/core/src/vl53l0x_api.c **** 			Status = VL53L0X_CheckAndLoadInterruptSettings(Dev, 1);
 6394              		.loc 1 2268 13
 6395 013c 0121     		movs	r1, #1
 6396 013e 7868     		ldr	r0, [r7, #4]
 6397 0140 FFF7FEFF 		bl	VL53L0X_CheckAndLoadInterruptSettings
 6398 0144 0346     		mov	r3, r0
 6399 0146 FB75     		strb	r3, [r7, #23]
 6400              	.L385:
2269:Drivers/VL53L0X/core/src/vl53l0x_api.c **** 
2270:Drivers/VL53L0X/core/src/vl53l0x_api.c **** 		Status = VL53L0X_WrByte(Dev,
 6401              		.loc 1 2270 12
 6402 0148 0422     		movs	r2, #4
 6403 014a 0021     		movs	r1, #0
 6404 014c 7868     		ldr	r0, [r7, #4]
 6405 014e FFF7FEFF 		bl	VL53L0X_WrByte
 6406 0152 0346     		mov	r3, r0
 6407 0154 FB75     		strb	r3, [r7, #23]
2271:Drivers/VL53L0X/core/src/vl53l0x_api.c **** 		VL53L0X_REG_SYSRANGE_START,
2272:Drivers/VL53L0X/core/src/vl53l0x_api.c **** 		VL53L0X_REG_SYSRANGE_MODE_TIMED);
2273:Drivers/VL53L0X/core/src/vl53l0x_api.c **** 
2274:Drivers/VL53L0X/core/src/vl53l0x_api.c **** 		if (Status == VL53L0X_ERROR_NONE) {
 6408              		.loc 1 2274 6
 6409 0156 97F91730 		ldrsb	r3, [r7, #23]
 6410 015a 002B     		cmp	r3, #0
 6411 015c 0BD1     		bne	.L390
2275:Drivers/VL53L0X/core/src/vl53l0x_api.c **** 			/* Set PAL State to Running */
2276:Drivers/VL53L0X/core/src/vl53l0x_api.c **** 			PALDevDataSet(Dev, PalState, VL53L0X_STATE_RUNNING);
 6412              		.loc 1 2276 4
 6413 015e 7B68     		ldr	r3, [r7, #4]
 6414 0160 0422     		movs	r2, #4
 6415 0162 83F83221 		strb	r2, [r3, #306]
2277:Drivers/VL53L0X/core/src/vl53l0x_api.c **** 		}
2278:Drivers/VL53L0X/core/src/vl53l0x_api.c **** 		break;
 6416              		.loc 1 2278 3
 6417 0166 06E0     		b	.L390
ARM GAS  C:\Users\Morroway\AppData\Local\Temp\ccih4NWY.s 			page 154


 6418              	.L375:
2279:Drivers/VL53L0X/core/src/vl53l0x_api.c **** 	default:
2280:Drivers/VL53L0X/core/src/vl53l0x_api.c **** 		/* Selected mode not supported */
2281:Drivers/VL53L0X/core/src/vl53l0x_api.c **** 		Status = VL53L0X_ERROR_MODE_NOT_SUPPORTED;
 6419              		.loc 1 2281 10
 6420 0168 F823     		movs	r3, #248
 6421 016a FB75     		strb	r3, [r7, #23]
 6422 016c 04E0     		b	.L382
 6423              	.L388:
2248:Drivers/VL53L0X/core/src/vl53l0x_api.c **** 	case VL53L0X_DEVICEMODE_CONTINUOUS_RANGING:
 6424              		.loc 1 2248 3
 6425 016e 00BF     		nop
 6426 0170 02E0     		b	.L382
 6427              	.L389:
2263:Drivers/VL53L0X/core/src/vl53l0x_api.c **** 	case VL53L0X_DEVICEMODE_CONTINUOUS_TIMED_RANGING:
 6428              		.loc 1 2263 3
 6429 0172 00BF     		nop
 6430 0174 00E0     		b	.L382
 6431              	.L390:
2278:Drivers/VL53L0X/core/src/vl53l0x_api.c **** 	default:
 6432              		.loc 1 2278 3
 6433 0176 00BF     		nop
 6434              	.L382:
2282:Drivers/VL53L0X/core/src/vl53l0x_api.c **** 	}
2283:Drivers/VL53L0X/core/src/vl53l0x_api.c **** 
2284:Drivers/VL53L0X/core/src/vl53l0x_api.c **** 
2285:Drivers/VL53L0X/core/src/vl53l0x_api.c **** 	LOG_FUNCTION_END(Status);
2286:Drivers/VL53L0X/core/src/vl53l0x_api.c **** 	return Status;
 6435              		.loc 1 2286 9
 6436 0178 97F91730 		ldrsb	r3, [r7, #23]
2287:Drivers/VL53L0X/core/src/vl53l0x_api.c **** }
 6437              		.loc 1 2287 1
 6438 017c 1846     		mov	r0, r3
 6439 017e 1837     		adds	r7, r7, #24
 6440              		.cfi_def_cfa_offset 8
 6441 0180 BD46     		mov	sp, r7
 6442              		.cfi_def_cfa_register 13
 6443              		@ sp needed
 6444 0182 80BD     		pop	{r7, pc}
 6445              		.cfi_endproc
 6446              	.LFE397:
 6448              		.section	.text.VL53L0X_StopMeasurement,"ax",%progbits
 6449              		.align	1
 6450              		.global	VL53L0X_StopMeasurement
 6451              		.syntax unified
 6452              		.thumb
 6453              		.thumb_func
 6455              	VL53L0X_StopMeasurement:
 6456              	.LFB398:
2288:Drivers/VL53L0X/core/src/vl53l0x_api.c **** 
2289:Drivers/VL53L0X/core/src/vl53l0x_api.c **** VL53L0X_Error VL53L0X_StopMeasurement(VL53L0X_DEV Dev)
2290:Drivers/VL53L0X/core/src/vl53l0x_api.c **** {
 6457              		.loc 1 2290 1
 6458              		.cfi_startproc
 6459              		@ args = 0, pretend = 0, frame = 16
 6460              		@ frame_needed = 1, uses_anonymous_args = 0
 6461 0000 80B5     		push	{r7, lr}
ARM GAS  C:\Users\Morroway\AppData\Local\Temp\ccih4NWY.s 			page 155


 6462              		.cfi_def_cfa_offset 8
 6463              		.cfi_offset 7, -8
 6464              		.cfi_offset 14, -4
 6465 0002 84B0     		sub	sp, sp, #16
 6466              		.cfi_def_cfa_offset 24
 6467 0004 00AF     		add	r7, sp, #0
 6468              		.cfi_def_cfa_register 7
 6469 0006 7860     		str	r0, [r7, #4]
2291:Drivers/VL53L0X/core/src/vl53l0x_api.c **** 	VL53L0X_Error Status = VL53L0X_ERROR_NONE;
 6470              		.loc 1 2291 16
 6471 0008 0023     		movs	r3, #0
 6472 000a FB73     		strb	r3, [r7, #15]
2292:Drivers/VL53L0X/core/src/vl53l0x_api.c **** 	LOG_FUNCTION_START("");
2293:Drivers/VL53L0X/core/src/vl53l0x_api.c **** 
2294:Drivers/VL53L0X/core/src/vl53l0x_api.c **** 	Status = VL53L0X_WrByte(Dev, VL53L0X_REG_SYSRANGE_START,
 6473              		.loc 1 2294 11
 6474 000c 0022     		movs	r2, #0
 6475 000e 0021     		movs	r1, #0
 6476 0010 7868     		ldr	r0, [r7, #4]
 6477 0012 FFF7FEFF 		bl	VL53L0X_WrByte
 6478 0016 0346     		mov	r3, r0
 6479 0018 FB73     		strb	r3, [r7, #15]
2295:Drivers/VL53L0X/core/src/vl53l0x_api.c **** 	VL53L0X_REG_SYSRANGE_MODE_SINGLESHOT);
2296:Drivers/VL53L0X/core/src/vl53l0x_api.c **** 
2297:Drivers/VL53L0X/core/src/vl53l0x_api.c **** 	Status = VL53L0X_WrByte(Dev, 0xFF, 0x01);
 6480              		.loc 1 2297 11
 6481 001a 0122     		movs	r2, #1
 6482 001c FF21     		movs	r1, #255
 6483 001e 7868     		ldr	r0, [r7, #4]
 6484 0020 FFF7FEFF 		bl	VL53L0X_WrByte
 6485 0024 0346     		mov	r3, r0
 6486 0026 FB73     		strb	r3, [r7, #15]
2298:Drivers/VL53L0X/core/src/vl53l0x_api.c **** 	Status = VL53L0X_WrByte(Dev, 0x00, 0x00);
 6487              		.loc 1 2298 11
 6488 0028 0022     		movs	r2, #0
 6489 002a 0021     		movs	r1, #0
 6490 002c 7868     		ldr	r0, [r7, #4]
 6491 002e FFF7FEFF 		bl	VL53L0X_WrByte
 6492 0032 0346     		mov	r3, r0
 6493 0034 FB73     		strb	r3, [r7, #15]
2299:Drivers/VL53L0X/core/src/vl53l0x_api.c **** 	Status = VL53L0X_WrByte(Dev, 0x91, 0x00);
 6494              		.loc 1 2299 11
 6495 0036 0022     		movs	r2, #0
 6496 0038 9121     		movs	r1, #145
 6497 003a 7868     		ldr	r0, [r7, #4]
 6498 003c FFF7FEFF 		bl	VL53L0X_WrByte
 6499 0040 0346     		mov	r3, r0
 6500 0042 FB73     		strb	r3, [r7, #15]
2300:Drivers/VL53L0X/core/src/vl53l0x_api.c **** 	Status = VL53L0X_WrByte(Dev, 0x00, 0x01);
 6501              		.loc 1 2300 11
 6502 0044 0122     		movs	r2, #1
 6503 0046 0021     		movs	r1, #0
 6504 0048 7868     		ldr	r0, [r7, #4]
 6505 004a FFF7FEFF 		bl	VL53L0X_WrByte
 6506 004e 0346     		mov	r3, r0
 6507 0050 FB73     		strb	r3, [r7, #15]
2301:Drivers/VL53L0X/core/src/vl53l0x_api.c **** 	Status = VL53L0X_WrByte(Dev, 0xFF, 0x00);
ARM GAS  C:\Users\Morroway\AppData\Local\Temp\ccih4NWY.s 			page 156


 6508              		.loc 1 2301 11
 6509 0052 0022     		movs	r2, #0
 6510 0054 FF21     		movs	r1, #255
 6511 0056 7868     		ldr	r0, [r7, #4]
 6512 0058 FFF7FEFF 		bl	VL53L0X_WrByte
 6513 005c 0346     		mov	r3, r0
 6514 005e FB73     		strb	r3, [r7, #15]
2302:Drivers/VL53L0X/core/src/vl53l0x_api.c **** 
2303:Drivers/VL53L0X/core/src/vl53l0x_api.c **** 	if (Status == VL53L0X_ERROR_NONE) {
 6515              		.loc 1 2303 5
 6516 0060 97F90F30 		ldrsb	r3, [r7, #15]
 6517 0064 002B     		cmp	r3, #0
 6518 0066 03D1     		bne	.L392
2304:Drivers/VL53L0X/core/src/vl53l0x_api.c **** 		/* Set PAL State to Idle */
2305:Drivers/VL53L0X/core/src/vl53l0x_api.c **** 		PALDevDataSet(Dev, PalState, VL53L0X_STATE_IDLE);
 6519              		.loc 1 2305 3
 6520 0068 7B68     		ldr	r3, [r7, #4]
 6521 006a 0322     		movs	r2, #3
 6522 006c 83F83221 		strb	r2, [r3, #306]
 6523              	.L392:
2306:Drivers/VL53L0X/core/src/vl53l0x_api.c **** 	}
2307:Drivers/VL53L0X/core/src/vl53l0x_api.c **** 
2308:Drivers/VL53L0X/core/src/vl53l0x_api.c **** 	/* Check if need to apply interrupt settings */
2309:Drivers/VL53L0X/core/src/vl53l0x_api.c **** 	if (Status == VL53L0X_ERROR_NONE)
 6524              		.loc 1 2309 5
 6525 0070 97F90F30 		ldrsb	r3, [r7, #15]
 6526 0074 002B     		cmp	r3, #0
 6527 0076 05D1     		bne	.L393
2310:Drivers/VL53L0X/core/src/vl53l0x_api.c **** 		Status = VL53L0X_CheckAndLoadInterruptSettings(Dev, 0);
 6528              		.loc 1 2310 12
 6529 0078 0021     		movs	r1, #0
 6530 007a 7868     		ldr	r0, [r7, #4]
 6531 007c FFF7FEFF 		bl	VL53L0X_CheckAndLoadInterruptSettings
 6532 0080 0346     		mov	r3, r0
 6533 0082 FB73     		strb	r3, [r7, #15]
 6534              	.L393:
2311:Drivers/VL53L0X/core/src/vl53l0x_api.c **** 
2312:Drivers/VL53L0X/core/src/vl53l0x_api.c **** 	LOG_FUNCTION_END(Status);
2313:Drivers/VL53L0X/core/src/vl53l0x_api.c **** 	return Status;
 6535              		.loc 1 2313 9
 6536 0084 97F90F30 		ldrsb	r3, [r7, #15]
2314:Drivers/VL53L0X/core/src/vl53l0x_api.c **** }
 6537              		.loc 1 2314 1
 6538 0088 1846     		mov	r0, r3
 6539 008a 1037     		adds	r7, r7, #16
 6540              		.cfi_def_cfa_offset 8
 6541 008c BD46     		mov	sp, r7
 6542              		.cfi_def_cfa_register 13
 6543              		@ sp needed
 6544 008e 80BD     		pop	{r7, pc}
 6545              		.cfi_endproc
 6546              	.LFE398:
 6548              		.section	.text.VL53L0X_GetMeasurementDataReady,"ax",%progbits
 6549              		.align	1
 6550              		.global	VL53L0X_GetMeasurementDataReady
 6551              		.syntax unified
 6552              		.thumb
ARM GAS  C:\Users\Morroway\AppData\Local\Temp\ccih4NWY.s 			page 157


 6553              		.thumb_func
 6555              	VL53L0X_GetMeasurementDataReady:
 6556              	.LFB399:
2315:Drivers/VL53L0X/core/src/vl53l0x_api.c **** 
2316:Drivers/VL53L0X/core/src/vl53l0x_api.c **** VL53L0X_Error VL53L0X_GetMeasurementDataReady(VL53L0X_DEV Dev,
2317:Drivers/VL53L0X/core/src/vl53l0x_api.c **** 	uint8_t *pMeasurementDataReady)
2318:Drivers/VL53L0X/core/src/vl53l0x_api.c **** {
 6557              		.loc 1 2318 1
 6558              		.cfi_startproc
 6559              		@ args = 0, pretend = 0, frame = 16
 6560              		@ frame_needed = 1, uses_anonymous_args = 0
 6561 0000 80B5     		push	{r7, lr}
 6562              		.cfi_def_cfa_offset 8
 6563              		.cfi_offset 7, -8
 6564              		.cfi_offset 14, -4
 6565 0002 84B0     		sub	sp, sp, #16
 6566              		.cfi_def_cfa_offset 24
 6567 0004 00AF     		add	r7, sp, #0
 6568              		.cfi_def_cfa_register 7
 6569 0006 7860     		str	r0, [r7, #4]
 6570 0008 3960     		str	r1, [r7]
2319:Drivers/VL53L0X/core/src/vl53l0x_api.c **** 	VL53L0X_Error Status = VL53L0X_ERROR_NONE;
 6571              		.loc 1 2319 16
 6572 000a 0023     		movs	r3, #0
 6573 000c FB73     		strb	r3, [r7, #15]
2320:Drivers/VL53L0X/core/src/vl53l0x_api.c **** 	uint8_t SysRangeStatusRegister;
2321:Drivers/VL53L0X/core/src/vl53l0x_api.c **** 	uint8_t InterruptConfig;
2322:Drivers/VL53L0X/core/src/vl53l0x_api.c **** 	uint32_t InterruptMask;
2323:Drivers/VL53L0X/core/src/vl53l0x_api.c **** 	LOG_FUNCTION_START("");
2324:Drivers/VL53L0X/core/src/vl53l0x_api.c **** 
2325:Drivers/VL53L0X/core/src/vl53l0x_api.c **** 	InterruptConfig = VL53L0X_GETDEVICESPECIFICPARAMETER(Dev,
 6574              		.loc 1 2325 18
 6575 000e 7B68     		ldr	r3, [r7, #4]
 6576 0010 93F8DA30 		ldrb	r3, [r3, #218]
 6577 0014 BB73     		strb	r3, [r7, #14]
2326:Drivers/VL53L0X/core/src/vl53l0x_api.c **** 		Pin0GpioFunctionality);
2327:Drivers/VL53L0X/core/src/vl53l0x_api.c **** 
2328:Drivers/VL53L0X/core/src/vl53l0x_api.c **** 	if (InterruptConfig ==
 6578              		.loc 1 2328 5
 6579 0016 BB7B     		ldrb	r3, [r7, #14]	@ zero_extendqisi2
 6580 0018 042B     		cmp	r3, #4
 6581 001a 12D1     		bne	.L396
2329:Drivers/VL53L0X/core/src/vl53l0x_api.c **** 		VL53L0X_REG_SYSTEM_INTERRUPT_GPIO_NEW_SAMPLE_READY) {
2330:Drivers/VL53L0X/core/src/vl53l0x_api.c **** 		Status = VL53L0X_GetInterruptMaskStatus(Dev, &InterruptMask);
 6582              		.loc 1 2330 12
 6583 001c 07F10803 		add	r3, r7, #8
 6584 0020 1946     		mov	r1, r3
 6585 0022 7868     		ldr	r0, [r7, #4]
 6586 0024 FFF7FEFF 		bl	VL53L0X_GetInterruptMaskStatus
 6587 0028 0346     		mov	r3, r0
 6588 002a FB73     		strb	r3, [r7, #15]
2331:Drivers/VL53L0X/core/src/vl53l0x_api.c **** 		if (InterruptMask ==
 6589              		.loc 1 2331 21
 6590 002c BB68     		ldr	r3, [r7, #8]
 6591              		.loc 1 2331 6
 6592 002e 042B     		cmp	r3, #4
 6593 0030 03D1     		bne	.L397
ARM GAS  C:\Users\Morroway\AppData\Local\Temp\ccih4NWY.s 			page 158


2332:Drivers/VL53L0X/core/src/vl53l0x_api.c **** 		VL53L0X_REG_SYSTEM_INTERRUPT_GPIO_NEW_SAMPLE_READY)
2333:Drivers/VL53L0X/core/src/vl53l0x_api.c **** 			*pMeasurementDataReady = 1;
 6594              		.loc 1 2333 27
 6595 0032 3B68     		ldr	r3, [r7]
 6596 0034 0122     		movs	r2, #1
 6597 0036 1A70     		strb	r2, [r3]
 6598 0038 1CE0     		b	.L398
 6599              	.L397:
2334:Drivers/VL53L0X/core/src/vl53l0x_api.c **** 		else
2335:Drivers/VL53L0X/core/src/vl53l0x_api.c **** 			*pMeasurementDataReady = 0;
 6600              		.loc 1 2335 27
 6601 003a 3B68     		ldr	r3, [r7]
 6602 003c 0022     		movs	r2, #0
 6603 003e 1A70     		strb	r2, [r3]
 6604 0040 18E0     		b	.L398
 6605              	.L396:
2336:Drivers/VL53L0X/core/src/vl53l0x_api.c **** 	} else {
2337:Drivers/VL53L0X/core/src/vl53l0x_api.c **** 		Status = VL53L0X_RdByte(Dev, VL53L0X_REG_RESULT_RANGE_STATUS,
 6606              		.loc 1 2337 12
 6607 0042 07F10D03 		add	r3, r7, #13
 6608 0046 1A46     		mov	r2, r3
 6609 0048 1421     		movs	r1, #20
 6610 004a 7868     		ldr	r0, [r7, #4]
 6611 004c FFF7FEFF 		bl	VL53L0X_RdByte
 6612 0050 0346     		mov	r3, r0
 6613 0052 FB73     		strb	r3, [r7, #15]
2338:Drivers/VL53L0X/core/src/vl53l0x_api.c **** 			&SysRangeStatusRegister);
2339:Drivers/VL53L0X/core/src/vl53l0x_api.c **** 		if (Status == VL53L0X_ERROR_NONE) {
 6614              		.loc 1 2339 6
 6615 0054 97F90F30 		ldrsb	r3, [r7, #15]
 6616 0058 002B     		cmp	r3, #0
 6617 005a 0BD1     		bne	.L398
2340:Drivers/VL53L0X/core/src/vl53l0x_api.c **** 			if (SysRangeStatusRegister & 0x01)
 6618              		.loc 1 2340 31
 6619 005c 7B7B     		ldrb	r3, [r7, #13]	@ zero_extendqisi2
 6620 005e 03F00103 		and	r3, r3, #1
 6621              		.loc 1 2340 7
 6622 0062 002B     		cmp	r3, #0
 6623 0064 03D0     		beq	.L399
2341:Drivers/VL53L0X/core/src/vl53l0x_api.c **** 				*pMeasurementDataReady = 1;
 6624              		.loc 1 2341 28
 6625 0066 3B68     		ldr	r3, [r7]
 6626 0068 0122     		movs	r2, #1
 6627 006a 1A70     		strb	r2, [r3]
 6628 006c 02E0     		b	.L398
 6629              	.L399:
2342:Drivers/VL53L0X/core/src/vl53l0x_api.c **** 			else
2343:Drivers/VL53L0X/core/src/vl53l0x_api.c **** 				*pMeasurementDataReady = 0;
 6630              		.loc 1 2343 28
 6631 006e 3B68     		ldr	r3, [r7]
 6632 0070 0022     		movs	r2, #0
 6633 0072 1A70     		strb	r2, [r3]
 6634              	.L398:
2344:Drivers/VL53L0X/core/src/vl53l0x_api.c **** 		}
2345:Drivers/VL53L0X/core/src/vl53l0x_api.c **** 	}
2346:Drivers/VL53L0X/core/src/vl53l0x_api.c **** 
2347:Drivers/VL53L0X/core/src/vl53l0x_api.c **** 	LOG_FUNCTION_END(Status);
ARM GAS  C:\Users\Morroway\AppData\Local\Temp\ccih4NWY.s 			page 159


2348:Drivers/VL53L0X/core/src/vl53l0x_api.c **** 	return Status;
 6635              		.loc 1 2348 9
 6636 0074 97F90F30 		ldrsb	r3, [r7, #15]
2349:Drivers/VL53L0X/core/src/vl53l0x_api.c **** }
 6637              		.loc 1 2349 1
 6638 0078 1846     		mov	r0, r3
 6639 007a 1037     		adds	r7, r7, #16
 6640              		.cfi_def_cfa_offset 8
 6641 007c BD46     		mov	sp, r7
 6642              		.cfi_def_cfa_register 13
 6643              		@ sp needed
 6644 007e 80BD     		pop	{r7, pc}
 6645              		.cfi_endproc
 6646              	.LFE399:
 6648              		.section	.text.VL53L0X_WaitDeviceReadyForNewMeasurement,"ax",%progbits
 6649              		.align	1
 6650              		.global	VL53L0X_WaitDeviceReadyForNewMeasurement
 6651              		.syntax unified
 6652              		.thumb
 6653              		.thumb_func
 6655              	VL53L0X_WaitDeviceReadyForNewMeasurement:
 6656              	.LFB400:
2350:Drivers/VL53L0X/core/src/vl53l0x_api.c **** 
2351:Drivers/VL53L0X/core/src/vl53l0x_api.c **** VL53L0X_Error VL53L0X_WaitDeviceReadyForNewMeasurement(VL53L0X_DEV Dev,
2352:Drivers/VL53L0X/core/src/vl53l0x_api.c **** 	uint32_t MaxLoop)
2353:Drivers/VL53L0X/core/src/vl53l0x_api.c **** {
 6657              		.loc 1 2353 1
 6658              		.cfi_startproc
 6659              		@ args = 0, pretend = 0, frame = 16
 6660              		@ frame_needed = 1, uses_anonymous_args = 0
 6661              		@ link register save eliminated.
 6662 0000 80B4     		push	{r7}
 6663              		.cfi_def_cfa_offset 4
 6664              		.cfi_offset 7, -4
 6665 0002 85B0     		sub	sp, sp, #20
 6666              		.cfi_def_cfa_offset 24
 6667 0004 00AF     		add	r7, sp, #0
 6668              		.cfi_def_cfa_register 7
 6669 0006 7860     		str	r0, [r7, #4]
 6670 0008 3960     		str	r1, [r7]
2354:Drivers/VL53L0X/core/src/vl53l0x_api.c **** 	VL53L0X_Error Status = VL53L0X_ERROR_NOT_IMPLEMENTED;
 6671              		.loc 1 2354 16
 6672 000a 9D23     		movs	r3, #157
 6673 000c FB73     		strb	r3, [r7, #15]
2355:Drivers/VL53L0X/core/src/vl53l0x_api.c **** 	LOG_FUNCTION_START("");
2356:Drivers/VL53L0X/core/src/vl53l0x_api.c **** 
2357:Drivers/VL53L0X/core/src/vl53l0x_api.c **** 	/* not implemented for VL53L0X */
2358:Drivers/VL53L0X/core/src/vl53l0x_api.c **** 
2359:Drivers/VL53L0X/core/src/vl53l0x_api.c **** 	LOG_FUNCTION_END(Status);
2360:Drivers/VL53L0X/core/src/vl53l0x_api.c **** 	return Status;
 6674              		.loc 1 2360 9
 6675 000e 97F90F30 		ldrsb	r3, [r7, #15]
2361:Drivers/VL53L0X/core/src/vl53l0x_api.c **** }
 6676              		.loc 1 2361 1
 6677 0012 1846     		mov	r0, r3
 6678 0014 1437     		adds	r7, r7, #20
 6679              		.cfi_def_cfa_offset 4
ARM GAS  C:\Users\Morroway\AppData\Local\Temp\ccih4NWY.s 			page 160


 6680 0016 BD46     		mov	sp, r7
 6681              		.cfi_def_cfa_register 13
 6682              		@ sp needed
 6683 0018 5DF8047B 		ldr	r7, [sp], #4
 6684              		.cfi_restore 7
 6685              		.cfi_def_cfa_offset 0
 6686 001c 7047     		bx	lr
 6687              		.cfi_endproc
 6688              	.LFE400:
 6690              		.section	.text.VL53L0X_GetRangingMeasurementData,"ax",%progbits
 6691              		.align	1
 6692              		.global	VL53L0X_GetRangingMeasurementData
 6693              		.syntax unified
 6694              		.thumb
 6695              		.thumb_func
 6697              	VL53L0X_GetRangingMeasurementData:
 6698              	.LFB401:
2362:Drivers/VL53L0X/core/src/vl53l0x_api.c **** 
2363:Drivers/VL53L0X/core/src/vl53l0x_api.c **** 
2364:Drivers/VL53L0X/core/src/vl53l0x_api.c **** VL53L0X_Error VL53L0X_GetRangingMeasurementData(VL53L0X_DEV Dev,
2365:Drivers/VL53L0X/core/src/vl53l0x_api.c **** 	VL53L0X_RangingMeasurementData_t *pRangingMeasurementData)
2366:Drivers/VL53L0X/core/src/vl53l0x_api.c **** {
 6699              		.loc 1 2366 1
 6700              		.cfi_startproc
 6701              		@ args = 0, pretend = 0, frame = 80
 6702              		@ frame_needed = 1, uses_anonymous_args = 0
 6703 0000 B0B5     		push	{r4, r5, r7, lr}
 6704              		.cfi_def_cfa_offset 16
 6705              		.cfi_offset 4, -16
 6706              		.cfi_offset 5, -12
 6707              		.cfi_offset 7, -8
 6708              		.cfi_offset 14, -4
 6709 0002 96B0     		sub	sp, sp, #88
 6710              		.cfi_def_cfa_offset 104
 6711 0004 02AF     		add	r7, sp, #8
 6712              		.cfi_def_cfa 7, 96
 6713 0006 7860     		str	r0, [r7, #4]
 6714 0008 3960     		str	r1, [r7]
2367:Drivers/VL53L0X/core/src/vl53l0x_api.c **** 	VL53L0X_Error Status = VL53L0X_ERROR_NONE;
 6715              		.loc 1 2367 16
 6716 000a 0023     		movs	r3, #0
 6717 000c 87F84F30 		strb	r3, [r7, #79]
2368:Drivers/VL53L0X/core/src/vl53l0x_api.c **** 	uint8_t DeviceRangeStatus;
2369:Drivers/VL53L0X/core/src/vl53l0x_api.c **** 	uint8_t RangeFractionalEnable;
2370:Drivers/VL53L0X/core/src/vl53l0x_api.c **** 	uint8_t PalRangeStatus;
2371:Drivers/VL53L0X/core/src/vl53l0x_api.c **** 	uint8_t XTalkCompensationEnable;
2372:Drivers/VL53L0X/core/src/vl53l0x_api.c **** 	uint16_t AmbientRate;
2373:Drivers/VL53L0X/core/src/vl53l0x_api.c **** 	FixPoint1616_t SignalRate;
2374:Drivers/VL53L0X/core/src/vl53l0x_api.c **** 	uint16_t XTalkCompensationRateMegaCps;
2375:Drivers/VL53L0X/core/src/vl53l0x_api.c **** 	uint16_t EffectiveSpadRtnCount;
2376:Drivers/VL53L0X/core/src/vl53l0x_api.c **** 	uint16_t tmpuint16;
2377:Drivers/VL53L0X/core/src/vl53l0x_api.c **** 	uint16_t XtalkRangeMilliMeter;
2378:Drivers/VL53L0X/core/src/vl53l0x_api.c **** 	uint16_t LinearityCorrectiveGain;
2379:Drivers/VL53L0X/core/src/vl53l0x_api.c **** 	uint8_t localBuffer[12];
2380:Drivers/VL53L0X/core/src/vl53l0x_api.c **** 	VL53L0X_RangingMeasurementData_t LastRangeDataBuffer;
2381:Drivers/VL53L0X/core/src/vl53l0x_api.c **** 
2382:Drivers/VL53L0X/core/src/vl53l0x_api.c **** 	LOG_FUNCTION_START("");
ARM GAS  C:\Users\Morroway\AppData\Local\Temp\ccih4NWY.s 			page 161


2383:Drivers/VL53L0X/core/src/vl53l0x_api.c **** 
2384:Drivers/VL53L0X/core/src/vl53l0x_api.c **** 	/*
2385:Drivers/VL53L0X/core/src/vl53l0x_api.c **** 	 * use multi read even if some registers are not useful, result will
2386:Drivers/VL53L0X/core/src/vl53l0x_api.c **** 	 * be more efficient
2387:Drivers/VL53L0X/core/src/vl53l0x_api.c **** 	 * start reading at 0x14 dec20
2388:Drivers/VL53L0X/core/src/vl53l0x_api.c **** 	 * end reading at 0x21 dec33 total 14 bytes to read
2389:Drivers/VL53L0X/core/src/vl53l0x_api.c **** 	 */
2390:Drivers/VL53L0X/core/src/vl53l0x_api.c **** 	Status = VL53L0X_ReadMulti(Dev, 0x14, localBuffer, 12);
 6718              		.loc 1 2390 11
 6719 0010 07F12802 		add	r2, r7, #40
 6720 0014 0C23     		movs	r3, #12
 6721 0016 1421     		movs	r1, #20
 6722 0018 7868     		ldr	r0, [r7, #4]
 6723 001a FFF7FEFF 		bl	VL53L0X_ReadMulti
 6724 001e 0346     		mov	r3, r0
 6725 0020 87F84F30 		strb	r3, [r7, #79]
2391:Drivers/VL53L0X/core/src/vl53l0x_api.c **** 
2392:Drivers/VL53L0X/core/src/vl53l0x_api.c **** 	if (Status == VL53L0X_ERROR_NONE) {
 6726              		.loc 1 2392 5
 6727 0024 97F94F30 		ldrsb	r3, [r7, #79]
 6728 0028 002B     		cmp	r3, #0
 6729 002a 40F0D180 		bne	.L404
2393:Drivers/VL53L0X/core/src/vl53l0x_api.c **** 
2394:Drivers/VL53L0X/core/src/vl53l0x_api.c **** 		pRangingMeasurementData->ZoneId = 0; /* Only one zone */
 6730              		.loc 1 2394 35
 6731 002e 3B68     		ldr	r3, [r7]
 6732 0030 0022     		movs	r2, #0
 6733 0032 9A75     		strb	r2, [r3, #22]
2395:Drivers/VL53L0X/core/src/vl53l0x_api.c **** 		pRangingMeasurementData->TimeStamp = 0; /* Not Implemented */
 6734              		.loc 1 2395 38
 6735 0034 3B68     		ldr	r3, [r7]
 6736 0036 0022     		movs	r2, #0
 6737 0038 1A60     		str	r2, [r3]
2396:Drivers/VL53L0X/core/src/vl53l0x_api.c **** 
2397:Drivers/VL53L0X/core/src/vl53l0x_api.c **** 		tmpuint16 = VL53L0X_MAKEUINT16(localBuffer[11], localBuffer[10]);
 6738              		.loc 1 2397 15
 6739 003a 97F83230 		ldrb	r3, [r7, #50]	@ zero_extendqisi2
 6740 003e 9BB2     		uxth	r3, r3
 6741 0040 1B02     		lsls	r3, r3, #8
 6742 0042 9AB2     		uxth	r2, r3
 6743 0044 97F83330 		ldrb	r3, [r7, #51]	@ zero_extendqisi2
 6744 0048 9BB2     		uxth	r3, r3
 6745              		.loc 1 2397 13
 6746 004a 1344     		add	r3, r3, r2
 6747 004c A7F84C30 		strh	r3, [r7, #76]	@ movhi
2398:Drivers/VL53L0X/core/src/vl53l0x_api.c **** 		/* cut1.1 if SYSTEM__RANGE_CONFIG if 1 range is 2bits fractional
2399:Drivers/VL53L0X/core/src/vl53l0x_api.c **** 		 *(format 11.2) else no fractional
2400:Drivers/VL53L0X/core/src/vl53l0x_api.c **** 		 */
2401:Drivers/VL53L0X/core/src/vl53l0x_api.c **** 
2402:Drivers/VL53L0X/core/src/vl53l0x_api.c **** 		pRangingMeasurementData->MeasurementTimeUsec = 0;
 6748              		.loc 1 2402 48
 6749 0050 3B68     		ldr	r3, [r7]
 6750 0052 0022     		movs	r2, #0
 6751 0054 5A60     		str	r2, [r3, #4]
2403:Drivers/VL53L0X/core/src/vl53l0x_api.c **** 
2404:Drivers/VL53L0X/core/src/vl53l0x_api.c **** 		SignalRate = VL53L0X_FIXPOINT97TOFIXPOINT1616(
 6752              		.loc 1 2404 16
ARM GAS  C:\Users\Morroway\AppData\Local\Temp\ccih4NWY.s 			page 162


 6753 0056 97F82E30 		ldrb	r3, [r7, #46]	@ zero_extendqisi2
 6754 005a 9BB2     		uxth	r3, r3
 6755 005c 1B02     		lsls	r3, r3, #8
 6756 005e 9AB2     		uxth	r2, r3
 6757 0060 97F82F30 		ldrb	r3, [r7, #47]	@ zero_extendqisi2
 6758 0064 9BB2     		uxth	r3, r3
 6759 0066 1344     		add	r3, r3, r2
 6760 0068 9BB2     		uxth	r3, r3
 6761 006a 5B02     		lsls	r3, r3, #9
 6762              		.loc 1 2404 14
 6763 006c 7B64     		str	r3, [r7, #68]
2405:Drivers/VL53L0X/core/src/vl53l0x_api.c **** 			VL53L0X_MAKEUINT16(localBuffer[7], localBuffer[6]));
2406:Drivers/VL53L0X/core/src/vl53l0x_api.c **** 		/* peak_signal_count_rate_rtn_mcps */
2407:Drivers/VL53L0X/core/src/vl53l0x_api.c **** 		pRangingMeasurementData->SignalRateRtnMegaCps = SignalRate;
 6764              		.loc 1 2407 49
 6765 006e 3B68     		ldr	r3, [r7]
 6766 0070 7A6C     		ldr	r2, [r7, #68]
 6767 0072 DA60     		str	r2, [r3, #12]
2408:Drivers/VL53L0X/core/src/vl53l0x_api.c **** 
2409:Drivers/VL53L0X/core/src/vl53l0x_api.c **** 		AmbientRate = VL53L0X_MAKEUINT16(localBuffer[9], localBuffer[8]);
 6768              		.loc 1 2409 17
 6769 0074 97F83030 		ldrb	r3, [r7, #48]	@ zero_extendqisi2
 6770 0078 9BB2     		uxth	r3, r3
 6771 007a 1B02     		lsls	r3, r3, #8
 6772 007c 9AB2     		uxth	r2, r3
 6773 007e 97F83130 		ldrb	r3, [r7, #49]	@ zero_extendqisi2
 6774 0082 9BB2     		uxth	r3, r3
 6775              		.loc 1 2409 15
 6776 0084 1344     		add	r3, r3, r2
 6777 0086 A7F84230 		strh	r3, [r7, #66]	@ movhi
2410:Drivers/VL53L0X/core/src/vl53l0x_api.c **** 		pRangingMeasurementData->AmbientRateRtnMegaCps =
2411:Drivers/VL53L0X/core/src/vl53l0x_api.c **** 			VL53L0X_FIXPOINT97TOFIXPOINT1616(AmbientRate);
 6778              		.loc 1 2411 4
 6779 008a B7F84230 		ldrh	r3, [r7, #66]
 6780 008e 5B02     		lsls	r3, r3, #9
 6781 0090 1A46     		mov	r2, r3
2410:Drivers/VL53L0X/core/src/vl53l0x_api.c **** 		pRangingMeasurementData->AmbientRateRtnMegaCps =
 6782              		.loc 1 2410 50
 6783 0092 3B68     		ldr	r3, [r7]
 6784 0094 1A61     		str	r2, [r3, #16]
2412:Drivers/VL53L0X/core/src/vl53l0x_api.c **** 
2413:Drivers/VL53L0X/core/src/vl53l0x_api.c **** 		EffectiveSpadRtnCount = VL53L0X_MAKEUINT16(localBuffer[3],
 6785              		.loc 1 2413 27
 6786 0096 97F82A30 		ldrb	r3, [r7, #42]	@ zero_extendqisi2
 6787 009a 9BB2     		uxth	r3, r3
 6788 009c 1B02     		lsls	r3, r3, #8
 6789 009e 9AB2     		uxth	r2, r3
 6790 00a0 97F82B30 		ldrb	r3, [r7, #43]	@ zero_extendqisi2
 6791 00a4 9BB2     		uxth	r3, r3
 6792              		.loc 1 2413 25
 6793 00a6 1344     		add	r3, r3, r2
 6794 00a8 A7F84030 		strh	r3, [r7, #64]	@ movhi
2414:Drivers/VL53L0X/core/src/vl53l0x_api.c **** 			localBuffer[2]);
2415:Drivers/VL53L0X/core/src/vl53l0x_api.c **** 		/* EffectiveSpadRtnCount is 8.8 format */
2416:Drivers/VL53L0X/core/src/vl53l0x_api.c **** 		pRangingMeasurementData->EffectiveSpadRtnCount =
 6795              		.loc 1 2416 50
 6796 00ac 3B68     		ldr	r3, [r7]
ARM GAS  C:\Users\Morroway\AppData\Local\Temp\ccih4NWY.s 			page 163


 6797 00ae B7F84020 		ldrh	r2, [r7, #64]	@ movhi
 6798 00b2 9A82     		strh	r2, [r3, #20]	@ movhi
2417:Drivers/VL53L0X/core/src/vl53l0x_api.c **** 			EffectiveSpadRtnCount;
2418:Drivers/VL53L0X/core/src/vl53l0x_api.c **** 
2419:Drivers/VL53L0X/core/src/vl53l0x_api.c **** 		DeviceRangeStatus = localBuffer[0];
 6799              		.loc 1 2419 21
 6800 00b4 97F82830 		ldrb	r3, [r7, #40]
 6801 00b8 87F83F30 		strb	r3, [r7, #63]
2420:Drivers/VL53L0X/core/src/vl53l0x_api.c **** 
2421:Drivers/VL53L0X/core/src/vl53l0x_api.c **** 		/* Get Linearity Corrective Gain */
2422:Drivers/VL53L0X/core/src/vl53l0x_api.c **** 		LinearityCorrectiveGain = PALDevDataGet(Dev,
 6802              		.loc 1 2422 27
 6803 00bc 7B68     		ldr	r3, [r7, #4]
 6804 00be B3F85231 		ldrh	r3, [r3, #338]	@ movhi
 6805 00c2 BB87     		strh	r3, [r7, #60]	@ movhi
2423:Drivers/VL53L0X/core/src/vl53l0x_api.c **** 			LinearityCorrectiveGain);
2424:Drivers/VL53L0X/core/src/vl53l0x_api.c **** 
2425:Drivers/VL53L0X/core/src/vl53l0x_api.c **** 		/* Get ranging configuration */
2426:Drivers/VL53L0X/core/src/vl53l0x_api.c **** 		RangeFractionalEnable = PALDevDataGet(Dev,
 6806              		.loc 1 2426 25
 6807 00c4 7B68     		ldr	r3, [r7, #4]
 6808 00c6 93F83131 		ldrb	r3, [r3, #305]
 6809 00ca 87F83B30 		strb	r3, [r7, #59]
2427:Drivers/VL53L0X/core/src/vl53l0x_api.c **** 			RangeFractionalEnable);
2428:Drivers/VL53L0X/core/src/vl53l0x_api.c **** 
2429:Drivers/VL53L0X/core/src/vl53l0x_api.c **** 		if (LinearityCorrectiveGain != 1000) {
 6810              		.loc 1 2429 6
 6811 00ce BB8F     		ldrh	r3, [r7, #60]
 6812 00d0 B3F57A7F 		cmp	r3, #1000
 6813 00d4 46D0     		beq	.L405
2430:Drivers/VL53L0X/core/src/vl53l0x_api.c **** 
2431:Drivers/VL53L0X/core/src/vl53l0x_api.c **** 			tmpuint16 = (uint16_t)((LinearityCorrectiveGain
2432:Drivers/VL53L0X/core/src/vl53l0x_api.c **** 				* tmpuint16 + 500) / 1000);
 6814              		.loc 1 2432 5
 6815 00d6 BB8F     		ldrh	r3, [r7, #60]
 6816 00d8 B7F84C20 		ldrh	r2, [r7, #76]
 6817 00dc 02FB03F3 		mul	r3, r2, r3
 6818              		.loc 1 2432 17
 6819 00e0 03F5FA73 		add	r3, r3, #500
 6820              		.loc 1 2432 24
 6821 00e4 574A     		ldr	r2, .L413
 6822 00e6 82FB0312 		smull	r1, r2, r2, r3
 6823 00ea 9211     		asrs	r2, r2, #6
 6824 00ec DB17     		asrs	r3, r3, #31
 6825 00ee D31A     		subs	r3, r2, r3
2431:Drivers/VL53L0X/core/src/vl53l0x_api.c **** 				* tmpuint16 + 500) / 1000);
 6826              		.loc 1 2431 14
 6827 00f0 A7F84C30 		strh	r3, [r7, #76]	@ movhi
2433:Drivers/VL53L0X/core/src/vl53l0x_api.c **** 
2434:Drivers/VL53L0X/core/src/vl53l0x_api.c **** 			/* Implement Xtalk */
2435:Drivers/VL53L0X/core/src/vl53l0x_api.c **** 			VL53L0X_GETPARAMETERFIELD(Dev,
 6828              		.loc 1 2435 4
 6829 00f4 7B68     		ldr	r3, [r7, #4]
 6830 00f6 1B6A     		ldr	r3, [r3, #32]
 6831 00f8 3B87     		strh	r3, [r7, #56]	@ movhi
2436:Drivers/VL53L0X/core/src/vl53l0x_api.c **** 				XTalkCompensationRateMegaCps,
2437:Drivers/VL53L0X/core/src/vl53l0x_api.c **** 				XTalkCompensationRateMegaCps);
ARM GAS  C:\Users\Morroway\AppData\Local\Temp\ccih4NWY.s 			page 164


2438:Drivers/VL53L0X/core/src/vl53l0x_api.c **** 			VL53L0X_GETPARAMETERFIELD(Dev, XTalkCompensationEnable,
 6832              		.loc 1 2438 4
 6833 00fa 7B68     		ldr	r3, [r7, #4]
 6834 00fc 1B7F     		ldrb	r3, [r3, #28]
 6835 00fe 87F83730 		strb	r3, [r7, #55]
2439:Drivers/VL53L0X/core/src/vl53l0x_api.c **** 				XTalkCompensationEnable);
2440:Drivers/VL53L0X/core/src/vl53l0x_api.c **** 
2441:Drivers/VL53L0X/core/src/vl53l0x_api.c **** 			if (XTalkCompensationEnable) {
 6836              		.loc 1 2441 7
 6837 0102 97F83730 		ldrb	r3, [r7, #55]	@ zero_extendqisi2
 6838 0106 002B     		cmp	r3, #0
 6839 0108 2CD0     		beq	.L405
2442:Drivers/VL53L0X/core/src/vl53l0x_api.c **** 
2443:Drivers/VL53L0X/core/src/vl53l0x_api.c **** 				if ((SignalRate
2444:Drivers/VL53L0X/core/src/vl53l0x_api.c **** 					- ((XTalkCompensationRateMegaCps
2445:Drivers/VL53L0X/core/src/vl53l0x_api.c **** 					* EffectiveSpadRtnCount) >> 8))
 6840              		.loc 1 2445 6
 6841 010a 3B8F     		ldrh	r3, [r7, #56]
 6842 010c B7F84020 		ldrh	r2, [r7, #64]
 6843 0110 02FB03F3 		mul	r3, r2, r3
 6844              		.loc 1 2445 31
 6845 0114 1A12     		asrs	r2, r3, #8
2446:Drivers/VL53L0X/core/src/vl53l0x_api.c **** 					<= 0) {
 6846              		.loc 1 2446 6
 6847 0116 7B6C     		ldr	r3, [r7, #68]
2443:Drivers/VL53L0X/core/src/vl53l0x_api.c **** 					- ((XTalkCompensationRateMegaCps
 6848              		.loc 1 2443 8
 6849 0118 9A42     		cmp	r2, r3
 6850 011a 0DD1     		bne	.L406
2447:Drivers/VL53L0X/core/src/vl53l0x_api.c **** 					if (RangeFractionalEnable)
 6851              		.loc 1 2447 9
 6852 011c 97F83B30 		ldrb	r3, [r7, #59]	@ zero_extendqisi2
 6853 0120 002B     		cmp	r3, #0
 6854 0122 04D0     		beq	.L407
2448:Drivers/VL53L0X/core/src/vl53l0x_api.c **** 						XtalkRangeMilliMeter = 8888;
 6855              		.loc 1 2448 28
 6856 0124 42F2B823 		movw	r3, #8888
 6857 0128 A7F84A30 		strh	r3, [r7, #74]	@ movhi
 6858 012c 16E0     		b	.L408
 6859              	.L407:
2449:Drivers/VL53L0X/core/src/vl53l0x_api.c **** 					else
2450:Drivers/VL53L0X/core/src/vl53l0x_api.c **** 						XtalkRangeMilliMeter = 8888
 6860              		.loc 1 2450 28
 6861 012e 48F6E023 		movw	r3, #35552
 6862 0132 A7F84A30 		strh	r3, [r7, #74]	@ movhi
 6863 0136 11E0     		b	.L408
 6864              	.L406:
2451:Drivers/VL53L0X/core/src/vl53l0x_api.c **** 							<< 2;
2452:Drivers/VL53L0X/core/src/vl53l0x_api.c **** 				} else {
2453:Drivers/VL53L0X/core/src/vl53l0x_api.c **** 					XtalkRangeMilliMeter =
2454:Drivers/VL53L0X/core/src/vl53l0x_api.c **** 					(tmpuint16 * SignalRate)
 6865              		.loc 1 2454 17
 6866 0138 B7F84C30 		ldrh	r3, [r7, #76]
 6867 013c 7A6C     		ldr	r2, [r7, #68]
 6868 013e 03FB02F2 		mul	r2, r3, r2
2455:Drivers/VL53L0X/core/src/vl53l0x_api.c **** 						/ (SignalRate
2456:Drivers/VL53L0X/core/src/vl53l0x_api.c **** 						- ((XTalkCompensationRateMegaCps
ARM GAS  C:\Users\Morroway\AppData\Local\Temp\ccih4NWY.s 			page 165


2457:Drivers/VL53L0X/core/src/vl53l0x_api.c **** 						* EffectiveSpadRtnCount)
 6869              		.loc 1 2457 7
 6870 0142 3B8F     		ldrh	r3, [r7, #56]
 6871 0144 B7F84010 		ldrh	r1, [r7, #64]
 6872 0148 01FB03F3 		mul	r3, r1, r3
2458:Drivers/VL53L0X/core/src/vl53l0x_api.c **** 						>> 8));
 6873              		.loc 1 2458 7
 6874 014c 1B12     		asrs	r3, r3, #8
 6875 014e 1946     		mov	r1, r3
2456:Drivers/VL53L0X/core/src/vl53l0x_api.c **** 						* EffectiveSpadRtnCount)
 6876              		.loc 1 2456 7
 6877 0150 7B6C     		ldr	r3, [r7, #68]
 6878 0152 5B1A     		subs	r3, r3, r1
2455:Drivers/VL53L0X/core/src/vl53l0x_api.c **** 						/ (SignalRate
 6879              		.loc 1 2455 7
 6880 0154 B2FBF3F3 		udiv	r3, r2, r3
2453:Drivers/VL53L0X/core/src/vl53l0x_api.c **** 					(tmpuint16 * SignalRate)
 6881              		.loc 1 2453 27
 6882 0158 A7F84A30 		strh	r3, [r7, #74]	@ movhi
 6883              	.L408:
2459:Drivers/VL53L0X/core/src/vl53l0x_api.c **** 				}
2460:Drivers/VL53L0X/core/src/vl53l0x_api.c **** 
2461:Drivers/VL53L0X/core/src/vl53l0x_api.c **** 				tmpuint16 = XtalkRangeMilliMeter;
 6884              		.loc 1 2461 15
 6885 015c B7F84A30 		ldrh	r3, [r7, #74]	@ movhi
 6886 0160 A7F84C30 		strh	r3, [r7, #76]	@ movhi
 6887              	.L405:
2462:Drivers/VL53L0X/core/src/vl53l0x_api.c **** 			}
2463:Drivers/VL53L0X/core/src/vl53l0x_api.c **** 
2464:Drivers/VL53L0X/core/src/vl53l0x_api.c **** 		}
2465:Drivers/VL53L0X/core/src/vl53l0x_api.c **** 
2466:Drivers/VL53L0X/core/src/vl53l0x_api.c **** 		if (RangeFractionalEnable) {
 6888              		.loc 1 2466 6
 6889 0164 97F83B30 		ldrb	r3, [r7, #59]	@ zero_extendqisi2
 6890 0168 002B     		cmp	r3, #0
 6891 016a 0DD0     		beq	.L409
2467:Drivers/VL53L0X/core/src/vl53l0x_api.c **** 			pRangingMeasurementData->RangeMilliMeter =
2468:Drivers/VL53L0X/core/src/vl53l0x_api.c **** 				(uint16_t)((tmpuint16) >> 2);
 6892              		.loc 1 2468 5
 6893 016c B7F84C30 		ldrh	r3, [r7, #76]
 6894 0170 9B08     		lsrs	r3, r3, #2
 6895 0172 9AB2     		uxth	r2, r3
2467:Drivers/VL53L0X/core/src/vl53l0x_api.c **** 			pRangingMeasurementData->RangeMilliMeter =
 6896              		.loc 1 2467 45
 6897 0174 3B68     		ldr	r3, [r7]
 6898 0176 1A81     		strh	r2, [r3, #8]	@ movhi
2469:Drivers/VL53L0X/core/src/vl53l0x_api.c **** 			pRangingMeasurementData->RangeFractionalPart =
2470:Drivers/VL53L0X/core/src/vl53l0x_api.c **** 				(uint8_t)((tmpuint16 & 0x03) << 6);
 6899              		.loc 1 2470 26
 6900 0178 B7F84C30 		ldrh	r3, [r7, #76]	@ movhi
 6901 017c DBB2     		uxtb	r3, r3
 6902              		.loc 1 2470 5
 6903 017e 9B01     		lsls	r3, r3, #6
 6904 0180 DAB2     		uxtb	r2, r3
2469:Drivers/VL53L0X/core/src/vl53l0x_api.c **** 			pRangingMeasurementData->RangeFractionalPart =
 6905              		.loc 1 2469 49
 6906 0182 3B68     		ldr	r3, [r7]
ARM GAS  C:\Users\Morroway\AppData\Local\Temp\ccih4NWY.s 			page 166


 6907 0184 DA75     		strb	r2, [r3, #23]
 6908 0186 06E0     		b	.L410
 6909              	.L409:
2471:Drivers/VL53L0X/core/src/vl53l0x_api.c **** 		} else {
2472:Drivers/VL53L0X/core/src/vl53l0x_api.c **** 			pRangingMeasurementData->RangeMilliMeter = tmpuint16;
 6910              		.loc 1 2472 45
 6911 0188 3B68     		ldr	r3, [r7]
 6912 018a B7F84C20 		ldrh	r2, [r7, #76]	@ movhi
 6913 018e 1A81     		strh	r2, [r3, #8]	@ movhi
2473:Drivers/VL53L0X/core/src/vl53l0x_api.c **** 			pRangingMeasurementData->RangeFractionalPart = 0;
 6914              		.loc 1 2473 49
 6915 0190 3B68     		ldr	r3, [r7]
 6916 0192 0022     		movs	r2, #0
 6917 0194 DA75     		strb	r2, [r3, #23]
 6918              	.L410:
2474:Drivers/VL53L0X/core/src/vl53l0x_api.c **** 		}
2475:Drivers/VL53L0X/core/src/vl53l0x_api.c **** 
2476:Drivers/VL53L0X/core/src/vl53l0x_api.c **** 		/*
2477:Drivers/VL53L0X/core/src/vl53l0x_api.c **** 		 * For a standard definition of RangeStatus, this should
2478:Drivers/VL53L0X/core/src/vl53l0x_api.c **** 		 * return 0 in case of good result after a ranging
2479:Drivers/VL53L0X/core/src/vl53l0x_api.c **** 		 * The range status depends on the device so call a device
2480:Drivers/VL53L0X/core/src/vl53l0x_api.c **** 		 * specific function to obtain the right Status.
2481:Drivers/VL53L0X/core/src/vl53l0x_api.c **** 		 */
2482:Drivers/VL53L0X/core/src/vl53l0x_api.c **** 		Status |= VL53L0X_get_pal_range_status(Dev, DeviceRangeStatus,
 6919              		.loc 1 2482 13
 6920 0196 B7F84020 		ldrh	r2, [r7, #64]
 6921 019a 97F83F10 		ldrb	r1, [r7, #63]	@ zero_extendqisi2
 6922 019e 07F13603 		add	r3, r7, #54
 6923 01a2 0193     		str	r3, [sp, #4]
 6924 01a4 3B68     		ldr	r3, [r7]
 6925 01a6 0093     		str	r3, [sp]
 6926 01a8 1346     		mov	r3, r2
 6927 01aa 7A6C     		ldr	r2, [r7, #68]
 6928 01ac 7868     		ldr	r0, [r7, #4]
 6929 01ae FFF7FEFF 		bl	VL53L0X_get_pal_range_status
 6930 01b2 0346     		mov	r3, r0
 6931 01b4 1A46     		mov	r2, r3
 6932              		.loc 1 2482 10
 6933 01b6 97F84F30 		ldrb	r3, [r7, #79]
 6934 01ba 1343     		orrs	r3, r3, r2
 6935 01bc 87F84F30 		strb	r3, [r7, #79]
2483:Drivers/VL53L0X/core/src/vl53l0x_api.c **** 			SignalRate, EffectiveSpadRtnCount,
2484:Drivers/VL53L0X/core/src/vl53l0x_api.c **** 			pRangingMeasurementData, &PalRangeStatus);
2485:Drivers/VL53L0X/core/src/vl53l0x_api.c **** 
2486:Drivers/VL53L0X/core/src/vl53l0x_api.c **** 		if (Status == VL53L0X_ERROR_NONE)
 6936              		.loc 1 2486 6
 6937 01c0 97F94F30 		ldrsb	r3, [r7, #79]
 6938 01c4 002B     		cmp	r3, #0
 6939 01c6 03D1     		bne	.L404
2487:Drivers/VL53L0X/core/src/vl53l0x_api.c **** 			pRangingMeasurementData->RangeStatus = PalRangeStatus;
 6940              		.loc 1 2487 41
 6941 01c8 97F83620 		ldrb	r2, [r7, #54]	@ zero_extendqisi2
 6942 01cc 3B68     		ldr	r3, [r7]
 6943 01ce 1A76     		strb	r2, [r3, #24]
 6944              	.L404:
2488:Drivers/VL53L0X/core/src/vl53l0x_api.c **** 
2489:Drivers/VL53L0X/core/src/vl53l0x_api.c **** 	}
ARM GAS  C:\Users\Morroway\AppData\Local\Temp\ccih4NWY.s 			page 167


2490:Drivers/VL53L0X/core/src/vl53l0x_api.c **** 
2491:Drivers/VL53L0X/core/src/vl53l0x_api.c **** 	if (Status == VL53L0X_ERROR_NONE) {
 6945              		.loc 1 2491 5
 6946 01d0 97F94F30 		ldrsb	r3, [r7, #79]
 6947 01d4 002B     		cmp	r3, #0
 6948 01d6 2FD1     		bne	.L411
2492:Drivers/VL53L0X/core/src/vl53l0x_api.c **** 		/* Copy last read data into Dev buffer */
2493:Drivers/VL53L0X/core/src/vl53l0x_api.c **** 		LastRangeDataBuffer = PALDevDataGet(Dev, LastRangeMeasure);
 6949              		.loc 1 2493 23
 6950 01d8 7B68     		ldr	r3, [r7, #4]
 6951 01da 07F10C04 		add	r4, r7, #12
 6952 01de 03F15005 		add	r5, r3, #80
 6953 01e2 0FCD     		ldmia	r5!, {r0, r1, r2, r3}
 6954 01e4 0FC4     		stmia	r4!, {r0, r1, r2, r3}
 6955 01e6 95E80700 		ldm	r5, {r0, r1, r2}
 6956 01ea 84E80700 		stm	r4, {r0, r1, r2}
2494:Drivers/VL53L0X/core/src/vl53l0x_api.c **** 
2495:Drivers/VL53L0X/core/src/vl53l0x_api.c **** 		LastRangeDataBuffer.RangeMilliMeter =
2496:Drivers/VL53L0X/core/src/vl53l0x_api.c **** 			pRangingMeasurementData->RangeMilliMeter;
 6957              		.loc 1 2496 27
 6958 01ee 3B68     		ldr	r3, [r7]
 6959 01f0 1B89     		ldrh	r3, [r3, #8]
2495:Drivers/VL53L0X/core/src/vl53l0x_api.c **** 			pRangingMeasurementData->RangeMilliMeter;
 6960              		.loc 1 2495 39
 6961 01f2 BB82     		strh	r3, [r7, #20]	@ movhi
2497:Drivers/VL53L0X/core/src/vl53l0x_api.c **** 		LastRangeDataBuffer.RangeFractionalPart =
2498:Drivers/VL53L0X/core/src/vl53l0x_api.c **** 			pRangingMeasurementData->RangeFractionalPart;
 6962              		.loc 1 2498 27
 6963 01f4 3B68     		ldr	r3, [r7]
 6964 01f6 DB7D     		ldrb	r3, [r3, #23]	@ zero_extendqisi2
2497:Drivers/VL53L0X/core/src/vl53l0x_api.c **** 		LastRangeDataBuffer.RangeFractionalPart =
 6965              		.loc 1 2497 43
 6966 01f8 87F82330 		strb	r3, [r7, #35]
2499:Drivers/VL53L0X/core/src/vl53l0x_api.c **** 		LastRangeDataBuffer.RangeDMaxMilliMeter =
2500:Drivers/VL53L0X/core/src/vl53l0x_api.c **** 			pRangingMeasurementData->RangeDMaxMilliMeter;
 6967              		.loc 1 2500 27
 6968 01fc 3B68     		ldr	r3, [r7]
 6969 01fe 5B89     		ldrh	r3, [r3, #10]
2499:Drivers/VL53L0X/core/src/vl53l0x_api.c **** 		LastRangeDataBuffer.RangeDMaxMilliMeter =
 6970              		.loc 1 2499 43
 6971 0200 FB82     		strh	r3, [r7, #22]	@ movhi
2501:Drivers/VL53L0X/core/src/vl53l0x_api.c **** 		LastRangeDataBuffer.MeasurementTimeUsec =
2502:Drivers/VL53L0X/core/src/vl53l0x_api.c **** 			pRangingMeasurementData->MeasurementTimeUsec;
 6972              		.loc 1 2502 27
 6973 0202 3B68     		ldr	r3, [r7]
 6974 0204 5B68     		ldr	r3, [r3, #4]
2501:Drivers/VL53L0X/core/src/vl53l0x_api.c **** 		LastRangeDataBuffer.MeasurementTimeUsec =
 6975              		.loc 1 2501 43
 6976 0206 3B61     		str	r3, [r7, #16]
2503:Drivers/VL53L0X/core/src/vl53l0x_api.c **** 		LastRangeDataBuffer.SignalRateRtnMegaCps =
2504:Drivers/VL53L0X/core/src/vl53l0x_api.c **** 			pRangingMeasurementData->SignalRateRtnMegaCps;
 6977              		.loc 1 2504 27
 6978 0208 3B68     		ldr	r3, [r7]
 6979 020a DB68     		ldr	r3, [r3, #12]
2503:Drivers/VL53L0X/core/src/vl53l0x_api.c **** 		LastRangeDataBuffer.SignalRateRtnMegaCps =
 6980              		.loc 1 2503 44
 6981 020c BB61     		str	r3, [r7, #24]
ARM GAS  C:\Users\Morroway\AppData\Local\Temp\ccih4NWY.s 			page 168


2505:Drivers/VL53L0X/core/src/vl53l0x_api.c **** 		LastRangeDataBuffer.AmbientRateRtnMegaCps =
2506:Drivers/VL53L0X/core/src/vl53l0x_api.c **** 			pRangingMeasurementData->AmbientRateRtnMegaCps;
 6982              		.loc 1 2506 27
 6983 020e 3B68     		ldr	r3, [r7]
 6984 0210 1B69     		ldr	r3, [r3, #16]
2505:Drivers/VL53L0X/core/src/vl53l0x_api.c **** 		LastRangeDataBuffer.AmbientRateRtnMegaCps =
 6985              		.loc 1 2505 45
 6986 0212 FB61     		str	r3, [r7, #28]
2507:Drivers/VL53L0X/core/src/vl53l0x_api.c **** 		LastRangeDataBuffer.EffectiveSpadRtnCount =
2508:Drivers/VL53L0X/core/src/vl53l0x_api.c **** 			pRangingMeasurementData->EffectiveSpadRtnCount;
 6987              		.loc 1 2508 27
 6988 0214 3B68     		ldr	r3, [r7]
 6989 0216 9B8A     		ldrh	r3, [r3, #20]
2507:Drivers/VL53L0X/core/src/vl53l0x_api.c **** 		LastRangeDataBuffer.EffectiveSpadRtnCount =
 6990              		.loc 1 2507 45
 6991 0218 3B84     		strh	r3, [r7, #32]	@ movhi
2509:Drivers/VL53L0X/core/src/vl53l0x_api.c **** 		LastRangeDataBuffer.RangeStatus =
2510:Drivers/VL53L0X/core/src/vl53l0x_api.c **** 			pRangingMeasurementData->RangeStatus;
 6992              		.loc 1 2510 27
 6993 021a 3B68     		ldr	r3, [r7]
 6994 021c 1B7E     		ldrb	r3, [r3, #24]	@ zero_extendqisi2
2509:Drivers/VL53L0X/core/src/vl53l0x_api.c **** 		LastRangeDataBuffer.RangeStatus =
 6995              		.loc 1 2509 35
 6996 021e 87F82430 		strb	r3, [r7, #36]
2511:Drivers/VL53L0X/core/src/vl53l0x_api.c **** 
2512:Drivers/VL53L0X/core/src/vl53l0x_api.c **** 		PALDevDataSet(Dev, LastRangeMeasure, LastRangeDataBuffer);
 6997              		.loc 1 2512 3
 6998 0222 7B68     		ldr	r3, [r7, #4]
 6999 0224 03F15004 		add	r4, r3, #80
 7000 0228 07F10C05 		add	r5, r7, #12
 7001 022c 0FCD     		ldmia	r5!, {r0, r1, r2, r3}
 7002 022e 0FC4     		stmia	r4!, {r0, r1, r2, r3}
 7003 0230 95E80700 		ldm	r5, {r0, r1, r2}
 7004 0234 84E80700 		stm	r4, {r0, r1, r2}
 7005              	.L411:
2513:Drivers/VL53L0X/core/src/vl53l0x_api.c **** 	}
2514:Drivers/VL53L0X/core/src/vl53l0x_api.c **** 
2515:Drivers/VL53L0X/core/src/vl53l0x_api.c **** 	LOG_FUNCTION_END(Status);
2516:Drivers/VL53L0X/core/src/vl53l0x_api.c **** 	return Status;
 7006              		.loc 1 2516 9
 7007 0238 97F94F30 		ldrsb	r3, [r7, #79]
2517:Drivers/VL53L0X/core/src/vl53l0x_api.c **** }
 7008              		.loc 1 2517 1
 7009 023c 1846     		mov	r0, r3
 7010 023e 5037     		adds	r7, r7, #80
 7011              		.cfi_def_cfa_offset 16
 7012 0240 BD46     		mov	sp, r7
 7013              		.cfi_def_cfa_register 13
 7014              		@ sp needed
 7015 0242 B0BD     		pop	{r4, r5, r7, pc}
 7016              	.L414:
 7017              		.align	2
 7018              	.L413:
 7019 0244 D34D6210 		.word	274877907
 7020              		.cfi_endproc
 7021              	.LFE401:
 7023              		.section	.text.VL53L0X_GetMeasurementRefSignal,"ax",%progbits
ARM GAS  C:\Users\Morroway\AppData\Local\Temp\ccih4NWY.s 			page 169


 7024              		.align	1
 7025              		.global	VL53L0X_GetMeasurementRefSignal
 7026              		.syntax unified
 7027              		.thumb
 7028              		.thumb_func
 7030              	VL53L0X_GetMeasurementRefSignal:
 7031              	.LFB402:
2518:Drivers/VL53L0X/core/src/vl53l0x_api.c **** 
2519:Drivers/VL53L0X/core/src/vl53l0x_api.c **** VL53L0X_Error VL53L0X_GetMeasurementRefSignal(VL53L0X_DEV Dev,
2520:Drivers/VL53L0X/core/src/vl53l0x_api.c **** 	FixPoint1616_t *pMeasurementRefSignal)
2521:Drivers/VL53L0X/core/src/vl53l0x_api.c **** {
 7032              		.loc 1 2521 1
 7033              		.cfi_startproc
 7034              		@ args = 0, pretend = 0, frame = 16
 7035              		@ frame_needed = 1, uses_anonymous_args = 0
 7036 0000 80B5     		push	{r7, lr}
 7037              		.cfi_def_cfa_offset 8
 7038              		.cfi_offset 7, -8
 7039              		.cfi_offset 14, -4
 7040 0002 84B0     		sub	sp, sp, #16
 7041              		.cfi_def_cfa_offset 24
 7042 0004 00AF     		add	r7, sp, #0
 7043              		.cfi_def_cfa_register 7
 7044 0006 7860     		str	r0, [r7, #4]
 7045 0008 3960     		str	r1, [r7]
2522:Drivers/VL53L0X/core/src/vl53l0x_api.c **** 	VL53L0X_Error Status = VL53L0X_ERROR_NONE;
 7046              		.loc 1 2522 16
 7047 000a 0023     		movs	r3, #0
 7048 000c FB73     		strb	r3, [r7, #15]
2523:Drivers/VL53L0X/core/src/vl53l0x_api.c **** 	uint8_t SignalRefClipLimitCheckEnable = 0;
 7049              		.loc 1 2523 10
 7050 000e 0023     		movs	r3, #0
 7051 0010 BB73     		strb	r3, [r7, #14]
2524:Drivers/VL53L0X/core/src/vl53l0x_api.c **** 	LOG_FUNCTION_START("");
2525:Drivers/VL53L0X/core/src/vl53l0x_api.c **** 
2526:Drivers/VL53L0X/core/src/vl53l0x_api.c **** 	Status = VL53L0X_GetLimitCheckEnable(Dev,
 7052              		.loc 1 2526 11
 7053 0012 07F10E03 		add	r3, r7, #14
 7054 0016 1A46     		mov	r2, r3
 7055 0018 0221     		movs	r1, #2
 7056 001a 7868     		ldr	r0, [r7, #4]
 7057 001c FFF7FEFF 		bl	VL53L0X_GetLimitCheckEnable
 7058 0020 0346     		mov	r3, r0
 7059 0022 FB73     		strb	r3, [r7, #15]
2527:Drivers/VL53L0X/core/src/vl53l0x_api.c **** 			VL53L0X_CHECKENABLE_SIGNAL_REF_CLIP,
2528:Drivers/VL53L0X/core/src/vl53l0x_api.c **** 			&SignalRefClipLimitCheckEnable);
2529:Drivers/VL53L0X/core/src/vl53l0x_api.c **** 	if (SignalRefClipLimitCheckEnable != 0) {
 7060              		.loc 1 2529 36
 7061 0024 BB7B     		ldrb	r3, [r7, #14]	@ zero_extendqisi2
 7062              		.loc 1 2529 5
 7063 0026 002B     		cmp	r3, #0
 7064 0028 05D0     		beq	.L416
2530:Drivers/VL53L0X/core/src/vl53l0x_api.c **** 		*pMeasurementRefSignal = PALDevDataGet(Dev, LastSignalRefMcps);
 7065              		.loc 1 2530 28
 7066 002a 7B68     		ldr	r3, [r7, #4]
 7067 002c D3F84821 		ldr	r2, [r3, #328]
 7068              		.loc 1 2530 26
ARM GAS  C:\Users\Morroway\AppData\Local\Temp\ccih4NWY.s 			page 170


 7069 0030 3B68     		ldr	r3, [r7]
 7070 0032 1A60     		str	r2, [r3]
 7071 0034 01E0     		b	.L417
 7072              	.L416:
2531:Drivers/VL53L0X/core/src/vl53l0x_api.c **** 	} else {
2532:Drivers/VL53L0X/core/src/vl53l0x_api.c **** 		Status = VL53L0X_ERROR_INVALID_COMMAND;
 7073              		.loc 1 2532 10
 7074 0036 E223     		movs	r3, #226
 7075 0038 FB73     		strb	r3, [r7, #15]
 7076              	.L417:
2533:Drivers/VL53L0X/core/src/vl53l0x_api.c **** 	}
2534:Drivers/VL53L0X/core/src/vl53l0x_api.c **** 	LOG_FUNCTION_END(Status);
2535:Drivers/VL53L0X/core/src/vl53l0x_api.c **** 
2536:Drivers/VL53L0X/core/src/vl53l0x_api.c **** 	return Status;
 7077              		.loc 1 2536 9
 7078 003a 97F90F30 		ldrsb	r3, [r7, #15]
2537:Drivers/VL53L0X/core/src/vl53l0x_api.c **** }
 7079              		.loc 1 2537 1
 7080 003e 1846     		mov	r0, r3
 7081 0040 1037     		adds	r7, r7, #16
 7082              		.cfi_def_cfa_offset 8
 7083 0042 BD46     		mov	sp, r7
 7084              		.cfi_def_cfa_register 13
 7085              		@ sp needed
 7086 0044 80BD     		pop	{r7, pc}
 7087              		.cfi_endproc
 7088              	.LFE402:
 7090              		.section	.text.VL53L0X_GetHistogramMeasurementData,"ax",%progbits
 7091              		.align	1
 7092              		.global	VL53L0X_GetHistogramMeasurementData
 7093              		.syntax unified
 7094              		.thumb
 7095              		.thumb_func
 7097              	VL53L0X_GetHistogramMeasurementData:
 7098              	.LFB403:
2538:Drivers/VL53L0X/core/src/vl53l0x_api.c **** 
2539:Drivers/VL53L0X/core/src/vl53l0x_api.c **** VL53L0X_Error VL53L0X_GetHistogramMeasurementData(VL53L0X_DEV Dev,
2540:Drivers/VL53L0X/core/src/vl53l0x_api.c **** 	VL53L0X_HistogramMeasurementData_t *pHistogramMeasurementData)
2541:Drivers/VL53L0X/core/src/vl53l0x_api.c **** {
 7099              		.loc 1 2541 1
 7100              		.cfi_startproc
 7101              		@ args = 0, pretend = 0, frame = 16
 7102              		@ frame_needed = 1, uses_anonymous_args = 0
 7103              		@ link register save eliminated.
 7104 0000 80B4     		push	{r7}
 7105              		.cfi_def_cfa_offset 4
 7106              		.cfi_offset 7, -4
 7107 0002 85B0     		sub	sp, sp, #20
 7108              		.cfi_def_cfa_offset 24
 7109 0004 00AF     		add	r7, sp, #0
 7110              		.cfi_def_cfa_register 7
 7111 0006 7860     		str	r0, [r7, #4]
 7112 0008 3960     		str	r1, [r7]
2542:Drivers/VL53L0X/core/src/vl53l0x_api.c **** 	VL53L0X_Error Status = VL53L0X_ERROR_NOT_IMPLEMENTED;
 7113              		.loc 1 2542 16
 7114 000a 9D23     		movs	r3, #157
 7115 000c FB73     		strb	r3, [r7, #15]
ARM GAS  C:\Users\Morroway\AppData\Local\Temp\ccih4NWY.s 			page 171


2543:Drivers/VL53L0X/core/src/vl53l0x_api.c **** 	LOG_FUNCTION_START("");
2544:Drivers/VL53L0X/core/src/vl53l0x_api.c **** 
2545:Drivers/VL53L0X/core/src/vl53l0x_api.c **** 	LOG_FUNCTION_END(Status);
2546:Drivers/VL53L0X/core/src/vl53l0x_api.c **** 	return Status;
 7116              		.loc 1 2546 9
 7117 000e 97F90F30 		ldrsb	r3, [r7, #15]
2547:Drivers/VL53L0X/core/src/vl53l0x_api.c **** }
 7118              		.loc 1 2547 1
 7119 0012 1846     		mov	r0, r3
 7120 0014 1437     		adds	r7, r7, #20
 7121              		.cfi_def_cfa_offset 4
 7122 0016 BD46     		mov	sp, r7
 7123              		.cfi_def_cfa_register 13
 7124              		@ sp needed
 7125 0018 5DF8047B 		ldr	r7, [sp], #4
 7126              		.cfi_restore 7
 7127              		.cfi_def_cfa_offset 0
 7128 001c 7047     		bx	lr
 7129              		.cfi_endproc
 7130              	.LFE403:
 7132              		.section	.text.VL53L0X_PerformSingleRangingMeasurement,"ax",%progbits
 7133              		.align	1
 7134              		.global	VL53L0X_PerformSingleRangingMeasurement
 7135              		.syntax unified
 7136              		.thumb
 7137              		.thumb_func
 7139              	VL53L0X_PerformSingleRangingMeasurement:
 7140              	.LFB404:
2548:Drivers/VL53L0X/core/src/vl53l0x_api.c **** 
2549:Drivers/VL53L0X/core/src/vl53l0x_api.c **** VL53L0X_Error VL53L0X_PerformSingleRangingMeasurement(VL53L0X_DEV Dev,
2550:Drivers/VL53L0X/core/src/vl53l0x_api.c **** 	VL53L0X_RangingMeasurementData_t *pRangingMeasurementData)
2551:Drivers/VL53L0X/core/src/vl53l0x_api.c **** {
 7141              		.loc 1 2551 1
 7142              		.cfi_startproc
 7143              		@ args = 0, pretend = 0, frame = 16
 7144              		@ frame_needed = 1, uses_anonymous_args = 0
 7145 0000 80B5     		push	{r7, lr}
 7146              		.cfi_def_cfa_offset 8
 7147              		.cfi_offset 7, -8
 7148              		.cfi_offset 14, -4
 7149 0002 84B0     		sub	sp, sp, #16
 7150              		.cfi_def_cfa_offset 24
 7151 0004 00AF     		add	r7, sp, #0
 7152              		.cfi_def_cfa_register 7
 7153 0006 7860     		str	r0, [r7, #4]
 7154 0008 3960     		str	r1, [r7]
2552:Drivers/VL53L0X/core/src/vl53l0x_api.c **** 	VL53L0X_Error Status = VL53L0X_ERROR_NONE;
 7155              		.loc 1 2552 16
 7156 000a 0023     		movs	r3, #0
 7157 000c FB73     		strb	r3, [r7, #15]
2553:Drivers/VL53L0X/core/src/vl53l0x_api.c **** 
2554:Drivers/VL53L0X/core/src/vl53l0x_api.c **** 	LOG_FUNCTION_START("");
2555:Drivers/VL53L0X/core/src/vl53l0x_api.c **** 
2556:Drivers/VL53L0X/core/src/vl53l0x_api.c **** 	/* This function will do a complete single ranging
2557:Drivers/VL53L0X/core/src/vl53l0x_api.c **** 	 * Here we fix the mode! */
2558:Drivers/VL53L0X/core/src/vl53l0x_api.c **** 	Status = VL53L0X_SetDeviceMode(Dev, VL53L0X_DEVICEMODE_SINGLE_RANGING);
 7158              		.loc 1 2558 11
ARM GAS  C:\Users\Morroway\AppData\Local\Temp\ccih4NWY.s 			page 172


 7159 000e 0021     		movs	r1, #0
 7160 0010 7868     		ldr	r0, [r7, #4]
 7161 0012 FFF7FEFF 		bl	VL53L0X_SetDeviceMode
 7162 0016 0346     		mov	r3, r0
 7163 0018 FB73     		strb	r3, [r7, #15]
2559:Drivers/VL53L0X/core/src/vl53l0x_api.c **** 
2560:Drivers/VL53L0X/core/src/vl53l0x_api.c **** 	if (Status == VL53L0X_ERROR_NONE)
 7164              		.loc 1 2560 5
 7165 001a 97F90F30 		ldrsb	r3, [r7, #15]
 7166 001e 002B     		cmp	r3, #0
 7167 0020 04D1     		bne	.L422
2561:Drivers/VL53L0X/core/src/vl53l0x_api.c **** 		Status = VL53L0X_PerformSingleMeasurement(Dev);
 7168              		.loc 1 2561 12
 7169 0022 7868     		ldr	r0, [r7, #4]
 7170 0024 FFF7FEFF 		bl	VL53L0X_PerformSingleMeasurement
 7171 0028 0346     		mov	r3, r0
 7172 002a FB73     		strb	r3, [r7, #15]
 7173              	.L422:
2562:Drivers/VL53L0X/core/src/vl53l0x_api.c **** 
2563:Drivers/VL53L0X/core/src/vl53l0x_api.c **** 
2564:Drivers/VL53L0X/core/src/vl53l0x_api.c **** 	if (Status == VL53L0X_ERROR_NONE)
 7174              		.loc 1 2564 5
 7175 002c 97F90F30 		ldrsb	r3, [r7, #15]
 7176 0030 002B     		cmp	r3, #0
 7177 0032 05D1     		bne	.L423
2565:Drivers/VL53L0X/core/src/vl53l0x_api.c **** 		Status = VL53L0X_GetRangingMeasurementData(Dev,
 7178              		.loc 1 2565 12
 7179 0034 3968     		ldr	r1, [r7]
 7180 0036 7868     		ldr	r0, [r7, #4]
 7181 0038 FFF7FEFF 		bl	VL53L0X_GetRangingMeasurementData
 7182 003c 0346     		mov	r3, r0
 7183 003e FB73     		strb	r3, [r7, #15]
 7184              	.L423:
2566:Drivers/VL53L0X/core/src/vl53l0x_api.c **** 			pRangingMeasurementData);
2567:Drivers/VL53L0X/core/src/vl53l0x_api.c **** 
2568:Drivers/VL53L0X/core/src/vl53l0x_api.c **** 
2569:Drivers/VL53L0X/core/src/vl53l0x_api.c **** 	if (Status == VL53L0X_ERROR_NONE)
 7185              		.loc 1 2569 5
 7186 0040 97F90F30 		ldrsb	r3, [r7, #15]
 7187 0044 002B     		cmp	r3, #0
 7188 0046 05D1     		bne	.L424
2570:Drivers/VL53L0X/core/src/vl53l0x_api.c **** 		Status = VL53L0X_ClearInterruptMask(Dev, 0);
 7189              		.loc 1 2570 12
 7190 0048 0021     		movs	r1, #0
 7191 004a 7868     		ldr	r0, [r7, #4]
 7192 004c FFF7FEFF 		bl	VL53L0X_ClearInterruptMask
 7193 0050 0346     		mov	r3, r0
 7194 0052 FB73     		strb	r3, [r7, #15]
 7195              	.L424:
2571:Drivers/VL53L0X/core/src/vl53l0x_api.c **** 
2572:Drivers/VL53L0X/core/src/vl53l0x_api.c **** 
2573:Drivers/VL53L0X/core/src/vl53l0x_api.c **** 	LOG_FUNCTION_END(Status);
2574:Drivers/VL53L0X/core/src/vl53l0x_api.c **** 	return Status;
 7196              		.loc 1 2574 9
 7197 0054 97F90F30 		ldrsb	r3, [r7, #15]
2575:Drivers/VL53L0X/core/src/vl53l0x_api.c **** }
 7198              		.loc 1 2575 1
ARM GAS  C:\Users\Morroway\AppData\Local\Temp\ccih4NWY.s 			page 173


 7199 0058 1846     		mov	r0, r3
 7200 005a 1037     		adds	r7, r7, #16
 7201              		.cfi_def_cfa_offset 8
 7202 005c BD46     		mov	sp, r7
 7203              		.cfi_def_cfa_register 13
 7204              		@ sp needed
 7205 005e 80BD     		pop	{r7, pc}
 7206              		.cfi_endproc
 7207              	.LFE404:
 7209              		.section	.text.VL53L0X_SetNumberOfROIZones,"ax",%progbits
 7210              		.align	1
 7211              		.global	VL53L0X_SetNumberOfROIZones
 7212              		.syntax unified
 7213              		.thumb
 7214              		.thumb_func
 7216              	VL53L0X_SetNumberOfROIZones:
 7217              	.LFB405:
2576:Drivers/VL53L0X/core/src/vl53l0x_api.c **** 
2577:Drivers/VL53L0X/core/src/vl53l0x_api.c **** VL53L0X_Error VL53L0X_SetNumberOfROIZones(VL53L0X_DEV Dev,
2578:Drivers/VL53L0X/core/src/vl53l0x_api.c **** 	uint8_t NumberOfROIZones)
2579:Drivers/VL53L0X/core/src/vl53l0x_api.c **** {
 7218              		.loc 1 2579 1
 7219              		.cfi_startproc
 7220              		@ args = 0, pretend = 0, frame = 16
 7221              		@ frame_needed = 1, uses_anonymous_args = 0
 7222              		@ link register save eliminated.
 7223 0000 80B4     		push	{r7}
 7224              		.cfi_def_cfa_offset 4
 7225              		.cfi_offset 7, -4
 7226 0002 85B0     		sub	sp, sp, #20
 7227              		.cfi_def_cfa_offset 24
 7228 0004 00AF     		add	r7, sp, #0
 7229              		.cfi_def_cfa_register 7
 7230 0006 7860     		str	r0, [r7, #4]
 7231 0008 0B46     		mov	r3, r1
 7232 000a FB70     		strb	r3, [r7, #3]
2580:Drivers/VL53L0X/core/src/vl53l0x_api.c **** 	VL53L0X_Error Status = VL53L0X_ERROR_NONE;
 7233              		.loc 1 2580 16
 7234 000c 0023     		movs	r3, #0
 7235 000e FB73     		strb	r3, [r7, #15]
2581:Drivers/VL53L0X/core/src/vl53l0x_api.c **** 
2582:Drivers/VL53L0X/core/src/vl53l0x_api.c **** 	LOG_FUNCTION_START("");
2583:Drivers/VL53L0X/core/src/vl53l0x_api.c **** 
2584:Drivers/VL53L0X/core/src/vl53l0x_api.c **** 	if (NumberOfROIZones != 1)
 7236              		.loc 1 2584 5
 7237 0010 FB78     		ldrb	r3, [r7, #3]	@ zero_extendqisi2
 7238 0012 012B     		cmp	r3, #1
 7239 0014 01D0     		beq	.L427
2585:Drivers/VL53L0X/core/src/vl53l0x_api.c **** 		Status = VL53L0X_ERROR_INVALID_PARAMS;
 7240              		.loc 1 2585 10
 7241 0016 FC23     		movs	r3, #252
 7242 0018 FB73     		strb	r3, [r7, #15]
 7243              	.L427:
2586:Drivers/VL53L0X/core/src/vl53l0x_api.c **** 
2587:Drivers/VL53L0X/core/src/vl53l0x_api.c **** 
2588:Drivers/VL53L0X/core/src/vl53l0x_api.c **** 	LOG_FUNCTION_END(Status);
2589:Drivers/VL53L0X/core/src/vl53l0x_api.c **** 	return Status;
ARM GAS  C:\Users\Morroway\AppData\Local\Temp\ccih4NWY.s 			page 174


 7244              		.loc 1 2589 9
 7245 001a 97F90F30 		ldrsb	r3, [r7, #15]
2590:Drivers/VL53L0X/core/src/vl53l0x_api.c **** }
 7246              		.loc 1 2590 1
 7247 001e 1846     		mov	r0, r3
 7248 0020 1437     		adds	r7, r7, #20
 7249              		.cfi_def_cfa_offset 4
 7250 0022 BD46     		mov	sp, r7
 7251              		.cfi_def_cfa_register 13
 7252              		@ sp needed
 7253 0024 5DF8047B 		ldr	r7, [sp], #4
 7254              		.cfi_restore 7
 7255              		.cfi_def_cfa_offset 0
 7256 0028 7047     		bx	lr
 7257              		.cfi_endproc
 7258              	.LFE405:
 7260              		.section	.text.VL53L0X_GetNumberOfROIZones,"ax",%progbits
 7261              		.align	1
 7262              		.global	VL53L0X_GetNumberOfROIZones
 7263              		.syntax unified
 7264              		.thumb
 7265              		.thumb_func
 7267              	VL53L0X_GetNumberOfROIZones:
 7268              	.LFB406:
2591:Drivers/VL53L0X/core/src/vl53l0x_api.c **** 
2592:Drivers/VL53L0X/core/src/vl53l0x_api.c **** VL53L0X_Error VL53L0X_GetNumberOfROIZones(VL53L0X_DEV Dev,
2593:Drivers/VL53L0X/core/src/vl53l0x_api.c **** 	uint8_t *pNumberOfROIZones)
2594:Drivers/VL53L0X/core/src/vl53l0x_api.c **** {
 7269              		.loc 1 2594 1
 7270              		.cfi_startproc
 7271              		@ args = 0, pretend = 0, frame = 16
 7272              		@ frame_needed = 1, uses_anonymous_args = 0
 7273              		@ link register save eliminated.
 7274 0000 80B4     		push	{r7}
 7275              		.cfi_def_cfa_offset 4
 7276              		.cfi_offset 7, -4
 7277 0002 85B0     		sub	sp, sp, #20
 7278              		.cfi_def_cfa_offset 24
 7279 0004 00AF     		add	r7, sp, #0
 7280              		.cfi_def_cfa_register 7
 7281 0006 7860     		str	r0, [r7, #4]
 7282 0008 3960     		str	r1, [r7]
2595:Drivers/VL53L0X/core/src/vl53l0x_api.c **** 	VL53L0X_Error Status = VL53L0X_ERROR_NONE;
 7283              		.loc 1 2595 16
 7284 000a 0023     		movs	r3, #0
 7285 000c FB73     		strb	r3, [r7, #15]
2596:Drivers/VL53L0X/core/src/vl53l0x_api.c **** 
2597:Drivers/VL53L0X/core/src/vl53l0x_api.c **** 	LOG_FUNCTION_START("");
2598:Drivers/VL53L0X/core/src/vl53l0x_api.c **** 
2599:Drivers/VL53L0X/core/src/vl53l0x_api.c **** 	*pNumberOfROIZones = 1;
 7286              		.loc 1 2599 21
 7287 000e 3B68     		ldr	r3, [r7]
 7288 0010 0122     		movs	r2, #1
 7289 0012 1A70     		strb	r2, [r3]
2600:Drivers/VL53L0X/core/src/vl53l0x_api.c **** 
2601:Drivers/VL53L0X/core/src/vl53l0x_api.c **** 	LOG_FUNCTION_END(Status);
2602:Drivers/VL53L0X/core/src/vl53l0x_api.c **** 	return Status;
ARM GAS  C:\Users\Morroway\AppData\Local\Temp\ccih4NWY.s 			page 175


 7290              		.loc 1 2602 9
 7291 0014 97F90F30 		ldrsb	r3, [r7, #15]
2603:Drivers/VL53L0X/core/src/vl53l0x_api.c **** }
 7292              		.loc 1 2603 1
 7293 0018 1846     		mov	r0, r3
 7294 001a 1437     		adds	r7, r7, #20
 7295              		.cfi_def_cfa_offset 4
 7296 001c BD46     		mov	sp, r7
 7297              		.cfi_def_cfa_register 13
 7298              		@ sp needed
 7299 001e 5DF8047B 		ldr	r7, [sp], #4
 7300              		.cfi_restore 7
 7301              		.cfi_def_cfa_offset 0
 7302 0022 7047     		bx	lr
 7303              		.cfi_endproc
 7304              	.LFE406:
 7306              		.section	.text.VL53L0X_GetMaxNumberOfROIZones,"ax",%progbits
 7307              		.align	1
 7308              		.global	VL53L0X_GetMaxNumberOfROIZones
 7309              		.syntax unified
 7310              		.thumb
 7311              		.thumb_func
 7313              	VL53L0X_GetMaxNumberOfROIZones:
 7314              	.LFB407:
2604:Drivers/VL53L0X/core/src/vl53l0x_api.c **** 
2605:Drivers/VL53L0X/core/src/vl53l0x_api.c **** VL53L0X_Error VL53L0X_GetMaxNumberOfROIZones(VL53L0X_DEV Dev,
2606:Drivers/VL53L0X/core/src/vl53l0x_api.c **** 	uint8_t *pMaxNumberOfROIZones)
2607:Drivers/VL53L0X/core/src/vl53l0x_api.c **** {
 7315              		.loc 1 2607 1
 7316              		.cfi_startproc
 7317              		@ args = 0, pretend = 0, frame = 16
 7318              		@ frame_needed = 1, uses_anonymous_args = 0
 7319              		@ link register save eliminated.
 7320 0000 80B4     		push	{r7}
 7321              		.cfi_def_cfa_offset 4
 7322              		.cfi_offset 7, -4
 7323 0002 85B0     		sub	sp, sp, #20
 7324              		.cfi_def_cfa_offset 24
 7325 0004 00AF     		add	r7, sp, #0
 7326              		.cfi_def_cfa_register 7
 7327 0006 7860     		str	r0, [r7, #4]
 7328 0008 3960     		str	r1, [r7]
2608:Drivers/VL53L0X/core/src/vl53l0x_api.c **** 	VL53L0X_Error Status = VL53L0X_ERROR_NONE;
 7329              		.loc 1 2608 16
 7330 000a 0023     		movs	r3, #0
 7331 000c FB73     		strb	r3, [r7, #15]
2609:Drivers/VL53L0X/core/src/vl53l0x_api.c **** 
2610:Drivers/VL53L0X/core/src/vl53l0x_api.c **** 	LOG_FUNCTION_START("");
2611:Drivers/VL53L0X/core/src/vl53l0x_api.c **** 
2612:Drivers/VL53L0X/core/src/vl53l0x_api.c **** 	*pMaxNumberOfROIZones = 1;
 7332              		.loc 1 2612 24
 7333 000e 3B68     		ldr	r3, [r7]
 7334 0010 0122     		movs	r2, #1
 7335 0012 1A70     		strb	r2, [r3]
2613:Drivers/VL53L0X/core/src/vl53l0x_api.c **** 
2614:Drivers/VL53L0X/core/src/vl53l0x_api.c **** 	LOG_FUNCTION_END(Status);
2615:Drivers/VL53L0X/core/src/vl53l0x_api.c **** 	return Status;
ARM GAS  C:\Users\Morroway\AppData\Local\Temp\ccih4NWY.s 			page 176


 7336              		.loc 1 2615 9
 7337 0014 97F90F30 		ldrsb	r3, [r7, #15]
2616:Drivers/VL53L0X/core/src/vl53l0x_api.c **** }
 7338              		.loc 1 2616 1
 7339 0018 1846     		mov	r0, r3
 7340 001a 1437     		adds	r7, r7, #20
 7341              		.cfi_def_cfa_offset 4
 7342 001c BD46     		mov	sp, r7
 7343              		.cfi_def_cfa_register 13
 7344              		@ sp needed
 7345 001e 5DF8047B 		ldr	r7, [sp], #4
 7346              		.cfi_restore 7
 7347              		.cfi_def_cfa_offset 0
 7348 0022 7047     		bx	lr
 7349              		.cfi_endproc
 7350              	.LFE407:
 7352              		.section	.text.VL53L0X_SetGpioConfig,"ax",%progbits
 7353              		.align	1
 7354              		.global	VL53L0X_SetGpioConfig
 7355              		.syntax unified
 7356              		.thumb
 7357              		.thumb_func
 7359              	VL53L0X_SetGpioConfig:
 7360              	.LFB408:
2617:Drivers/VL53L0X/core/src/vl53l0x_api.c **** 
2618:Drivers/VL53L0X/core/src/vl53l0x_api.c **** /* End Group PAL Measurement Functions */
2619:Drivers/VL53L0X/core/src/vl53l0x_api.c **** 
2620:Drivers/VL53L0X/core/src/vl53l0x_api.c **** VL53L0X_Error VL53L0X_SetGpioConfig(VL53L0X_DEV Dev, uint8_t Pin,
2621:Drivers/VL53L0X/core/src/vl53l0x_api.c **** 	VL53L0X_DeviceModes DeviceMode, VL53L0X_GpioFunctionality Functionality,
2622:Drivers/VL53L0X/core/src/vl53l0x_api.c **** 	VL53L0X_InterruptPolarity Polarity)
2623:Drivers/VL53L0X/core/src/vl53l0x_api.c **** {
 7361              		.loc 1 2623 1
 7362              		.cfi_startproc
 7363              		@ args = 4, pretend = 0, frame = 16
 7364              		@ frame_needed = 1, uses_anonymous_args = 0
 7365 0000 80B5     		push	{r7, lr}
 7366              		.cfi_def_cfa_offset 8
 7367              		.cfi_offset 7, -8
 7368              		.cfi_offset 14, -4
 7369 0002 84B0     		sub	sp, sp, #16
 7370              		.cfi_def_cfa_offset 24
 7371 0004 00AF     		add	r7, sp, #0
 7372              		.cfi_def_cfa_register 7
 7373 0006 7860     		str	r0, [r7, #4]
 7374 0008 0846     		mov	r0, r1
 7375 000a 1146     		mov	r1, r2
 7376 000c 1A46     		mov	r2, r3
 7377 000e 0346     		mov	r3, r0
 7378 0010 FB70     		strb	r3, [r7, #3]
 7379 0012 0B46     		mov	r3, r1
 7380 0014 BB70     		strb	r3, [r7, #2]
 7381 0016 1346     		mov	r3, r2
 7382 0018 7B70     		strb	r3, [r7, #1]
2624:Drivers/VL53L0X/core/src/vl53l0x_api.c **** 	VL53L0X_Error Status = VL53L0X_ERROR_NONE;
 7383              		.loc 1 2624 16
 7384 001a 0023     		movs	r3, #0
 7385 001c FB73     		strb	r3, [r7, #15]
ARM GAS  C:\Users\Morroway\AppData\Local\Temp\ccih4NWY.s 			page 177


2625:Drivers/VL53L0X/core/src/vl53l0x_api.c **** 	uint8_t data;
2626:Drivers/VL53L0X/core/src/vl53l0x_api.c **** 
2627:Drivers/VL53L0X/core/src/vl53l0x_api.c **** 	LOG_FUNCTION_START("");
2628:Drivers/VL53L0X/core/src/vl53l0x_api.c **** 
2629:Drivers/VL53L0X/core/src/vl53l0x_api.c **** 	if (Pin != 0) {
 7386              		.loc 1 2629 5
 7387 001e FB78     		ldrb	r3, [r7, #3]	@ zero_extendqisi2
 7388 0020 002B     		cmp	r3, #0
 7389 0022 02D0     		beq	.L434
2630:Drivers/VL53L0X/core/src/vl53l0x_api.c **** 		Status = VL53L0X_ERROR_GPIO_NOT_EXISTING;
 7390              		.loc 1 2630 10
 7391 0024 F623     		movs	r3, #246
 7392 0026 FB73     		strb	r3, [r7, #15]
 7393 0028 05E1     		b	.L435
 7394              	.L434:
2631:Drivers/VL53L0X/core/src/vl53l0x_api.c **** 	} else if (DeviceMode == VL53L0X_DEVICEMODE_GPIO_DRIVE) {
 7395              		.loc 1 2631 12
 7396 002a BB78     		ldrb	r3, [r7, #2]	@ zero_extendqisi2
 7397 002c 142B     		cmp	r3, #20
 7398 002e 10D1     		bne	.L436
2632:Drivers/VL53L0X/core/src/vl53l0x_api.c **** 		if (Polarity == VL53L0X_INTERRUPTPOLARITY_LOW)
 7399              		.loc 1 2632 6
 7400 0030 3B7E     		ldrb	r3, [r7, #24]	@ zero_extendqisi2
 7401 0032 002B     		cmp	r3, #0
 7402 0034 02D1     		bne	.L437
2633:Drivers/VL53L0X/core/src/vl53l0x_api.c **** 			data = 0x10;
 7403              		.loc 1 2633 9
 7404 0036 1023     		movs	r3, #16
 7405 0038 BB73     		strb	r3, [r7, #14]
 7406 003a 01E0     		b	.L438
 7407              	.L437:
2634:Drivers/VL53L0X/core/src/vl53l0x_api.c **** 		else
2635:Drivers/VL53L0X/core/src/vl53l0x_api.c **** 			data = 1;
 7408              		.loc 1 2635 9
 7409 003c 0123     		movs	r3, #1
 7410 003e BB73     		strb	r3, [r7, #14]
 7411              	.L438:
2636:Drivers/VL53L0X/core/src/vl53l0x_api.c **** 
2637:Drivers/VL53L0X/core/src/vl53l0x_api.c **** 		Status = VL53L0X_WrByte(Dev,
 7412              		.loc 1 2637 12
 7413 0040 BB7B     		ldrb	r3, [r7, #14]	@ zero_extendqisi2
 7414 0042 1A46     		mov	r2, r3
 7415 0044 8421     		movs	r1, #132
 7416 0046 7868     		ldr	r0, [r7, #4]
 7417 0048 FFF7FEFF 		bl	VL53L0X_WrByte
 7418 004c 0346     		mov	r3, r0
 7419 004e FB73     		strb	r3, [r7, #15]
 7420 0050 F1E0     		b	.L435
 7421              	.L436:
2638:Drivers/VL53L0X/core/src/vl53l0x_api.c **** 		VL53L0X_REG_GPIO_HV_MUX_ACTIVE_HIGH, data);
2639:Drivers/VL53L0X/core/src/vl53l0x_api.c **** 
2640:Drivers/VL53L0X/core/src/vl53l0x_api.c **** 	} else if (DeviceMode == VL53L0X_DEVICEMODE_GPIO_OSC) {
 7422              		.loc 1 2640 12
 7423 0052 BB78     		ldrb	r3, [r7, #2]	@ zero_extendqisi2
 7424 0054 152B     		cmp	r3, #21
 7425 0056 40F09780 		bne	.L439
2641:Drivers/VL53L0X/core/src/vl53l0x_api.c **** 
ARM GAS  C:\Users\Morroway\AppData\Local\Temp\ccih4NWY.s 			page 178


2642:Drivers/VL53L0X/core/src/vl53l0x_api.c **** 		Status |= VL53L0X_WrByte(Dev, 0xff, 0x01);
 7426              		.loc 1 2642 13
 7427 005a 0122     		movs	r2, #1
 7428 005c FF21     		movs	r1, #255
 7429 005e 7868     		ldr	r0, [r7, #4]
 7430 0060 FFF7FEFF 		bl	VL53L0X_WrByte
 7431 0064 0346     		mov	r3, r0
 7432 0066 1A46     		mov	r2, r3
 7433              		.loc 1 2642 10
 7434 0068 FB7B     		ldrb	r3, [r7, #15]
 7435 006a 1343     		orrs	r3, r3, r2
 7436 006c FB73     		strb	r3, [r7, #15]
2643:Drivers/VL53L0X/core/src/vl53l0x_api.c **** 		Status |= VL53L0X_WrByte(Dev, 0x00, 0x00);
 7437              		.loc 1 2643 13
 7438 006e 0022     		movs	r2, #0
 7439 0070 0021     		movs	r1, #0
 7440 0072 7868     		ldr	r0, [r7, #4]
 7441 0074 FFF7FEFF 		bl	VL53L0X_WrByte
 7442 0078 0346     		mov	r3, r0
 7443 007a 1A46     		mov	r2, r3
 7444              		.loc 1 2643 10
 7445 007c FB7B     		ldrb	r3, [r7, #15]
 7446 007e 1343     		orrs	r3, r3, r2
 7447 0080 FB73     		strb	r3, [r7, #15]
2644:Drivers/VL53L0X/core/src/vl53l0x_api.c **** 
2645:Drivers/VL53L0X/core/src/vl53l0x_api.c **** 		Status |= VL53L0X_WrByte(Dev, 0xff, 0x00);
 7448              		.loc 1 2645 13
 7449 0082 0022     		movs	r2, #0
 7450 0084 FF21     		movs	r1, #255
 7451 0086 7868     		ldr	r0, [r7, #4]
 7452 0088 FFF7FEFF 		bl	VL53L0X_WrByte
 7453 008c 0346     		mov	r3, r0
 7454 008e 1A46     		mov	r2, r3
 7455              		.loc 1 2645 10
 7456 0090 FB7B     		ldrb	r3, [r7, #15]
 7457 0092 1343     		orrs	r3, r3, r2
 7458 0094 FB73     		strb	r3, [r7, #15]
2646:Drivers/VL53L0X/core/src/vl53l0x_api.c **** 		Status |= VL53L0X_WrByte(Dev, 0x80, 0x01);
 7459              		.loc 1 2646 13
 7460 0096 0122     		movs	r2, #1
 7461 0098 8021     		movs	r1, #128
 7462 009a 7868     		ldr	r0, [r7, #4]
 7463 009c FFF7FEFF 		bl	VL53L0X_WrByte
 7464 00a0 0346     		mov	r3, r0
 7465 00a2 1A46     		mov	r2, r3
 7466              		.loc 1 2646 10
 7467 00a4 FB7B     		ldrb	r3, [r7, #15]
 7468 00a6 1343     		orrs	r3, r3, r2
 7469 00a8 FB73     		strb	r3, [r7, #15]
2647:Drivers/VL53L0X/core/src/vl53l0x_api.c **** 		Status |= VL53L0X_WrByte(Dev, 0x85, 0x02);
 7470              		.loc 1 2647 13
 7471 00aa 0222     		movs	r2, #2
 7472 00ac 8521     		movs	r1, #133
 7473 00ae 7868     		ldr	r0, [r7, #4]
 7474 00b0 FFF7FEFF 		bl	VL53L0X_WrByte
 7475 00b4 0346     		mov	r3, r0
 7476 00b6 1A46     		mov	r2, r3
ARM GAS  C:\Users\Morroway\AppData\Local\Temp\ccih4NWY.s 			page 179


 7477              		.loc 1 2647 10
 7478 00b8 FB7B     		ldrb	r3, [r7, #15]
 7479 00ba 1343     		orrs	r3, r3, r2
 7480 00bc FB73     		strb	r3, [r7, #15]
2648:Drivers/VL53L0X/core/src/vl53l0x_api.c **** 
2649:Drivers/VL53L0X/core/src/vl53l0x_api.c **** 		Status |= VL53L0X_WrByte(Dev, 0xff, 0x04);
 7481              		.loc 1 2649 13
 7482 00be 0422     		movs	r2, #4
 7483 00c0 FF21     		movs	r1, #255
 7484 00c2 7868     		ldr	r0, [r7, #4]
 7485 00c4 FFF7FEFF 		bl	VL53L0X_WrByte
 7486 00c8 0346     		mov	r3, r0
 7487 00ca 1A46     		mov	r2, r3
 7488              		.loc 1 2649 10
 7489 00cc FB7B     		ldrb	r3, [r7, #15]
 7490 00ce 1343     		orrs	r3, r3, r2
 7491 00d0 FB73     		strb	r3, [r7, #15]
2650:Drivers/VL53L0X/core/src/vl53l0x_api.c **** 		Status |= VL53L0X_WrByte(Dev, 0xcd, 0x00);
 7492              		.loc 1 2650 13
 7493 00d2 0022     		movs	r2, #0
 7494 00d4 CD21     		movs	r1, #205
 7495 00d6 7868     		ldr	r0, [r7, #4]
 7496 00d8 FFF7FEFF 		bl	VL53L0X_WrByte
 7497 00dc 0346     		mov	r3, r0
 7498 00de 1A46     		mov	r2, r3
 7499              		.loc 1 2650 10
 7500 00e0 FB7B     		ldrb	r3, [r7, #15]
 7501 00e2 1343     		orrs	r3, r3, r2
 7502 00e4 FB73     		strb	r3, [r7, #15]
2651:Drivers/VL53L0X/core/src/vl53l0x_api.c **** 		Status |= VL53L0X_WrByte(Dev, 0xcc, 0x11);
 7503              		.loc 1 2651 13
 7504 00e6 1122     		movs	r2, #17
 7505 00e8 CC21     		movs	r1, #204
 7506 00ea 7868     		ldr	r0, [r7, #4]
 7507 00ec FFF7FEFF 		bl	VL53L0X_WrByte
 7508 00f0 0346     		mov	r3, r0
 7509 00f2 1A46     		mov	r2, r3
 7510              		.loc 1 2651 10
 7511 00f4 FB7B     		ldrb	r3, [r7, #15]
 7512 00f6 1343     		orrs	r3, r3, r2
 7513 00f8 FB73     		strb	r3, [r7, #15]
2652:Drivers/VL53L0X/core/src/vl53l0x_api.c **** 
2653:Drivers/VL53L0X/core/src/vl53l0x_api.c **** 		Status |= VL53L0X_WrByte(Dev, 0xff, 0x07);
 7514              		.loc 1 2653 13
 7515 00fa 0722     		movs	r2, #7
 7516 00fc FF21     		movs	r1, #255
 7517 00fe 7868     		ldr	r0, [r7, #4]
 7518 0100 FFF7FEFF 		bl	VL53L0X_WrByte
 7519 0104 0346     		mov	r3, r0
 7520 0106 1A46     		mov	r2, r3
 7521              		.loc 1 2653 10
 7522 0108 FB7B     		ldrb	r3, [r7, #15]
 7523 010a 1343     		orrs	r3, r3, r2
 7524 010c FB73     		strb	r3, [r7, #15]
2654:Drivers/VL53L0X/core/src/vl53l0x_api.c **** 		Status |= VL53L0X_WrByte(Dev, 0xbe, 0x00);
 7525              		.loc 1 2654 13
 7526 010e 0022     		movs	r2, #0
ARM GAS  C:\Users\Morroway\AppData\Local\Temp\ccih4NWY.s 			page 180


 7527 0110 BE21     		movs	r1, #190
 7528 0112 7868     		ldr	r0, [r7, #4]
 7529 0114 FFF7FEFF 		bl	VL53L0X_WrByte
 7530 0118 0346     		mov	r3, r0
 7531 011a 1A46     		mov	r2, r3
 7532              		.loc 1 2654 10
 7533 011c FB7B     		ldrb	r3, [r7, #15]
 7534 011e 1343     		orrs	r3, r3, r2
 7535 0120 FB73     		strb	r3, [r7, #15]
2655:Drivers/VL53L0X/core/src/vl53l0x_api.c **** 
2656:Drivers/VL53L0X/core/src/vl53l0x_api.c **** 		Status |= VL53L0X_WrByte(Dev, 0xff, 0x06);
 7536              		.loc 1 2656 13
 7537 0122 0622     		movs	r2, #6
 7538 0124 FF21     		movs	r1, #255
 7539 0126 7868     		ldr	r0, [r7, #4]
 7540 0128 FFF7FEFF 		bl	VL53L0X_WrByte
 7541 012c 0346     		mov	r3, r0
 7542 012e 1A46     		mov	r2, r3
 7543              		.loc 1 2656 10
 7544 0130 FB7B     		ldrb	r3, [r7, #15]
 7545 0132 1343     		orrs	r3, r3, r2
 7546 0134 FB73     		strb	r3, [r7, #15]
2657:Drivers/VL53L0X/core/src/vl53l0x_api.c **** 		Status |= VL53L0X_WrByte(Dev, 0xcc, 0x09);
 7547              		.loc 1 2657 13
 7548 0136 0922     		movs	r2, #9
 7549 0138 CC21     		movs	r1, #204
 7550 013a 7868     		ldr	r0, [r7, #4]
 7551 013c FFF7FEFF 		bl	VL53L0X_WrByte
 7552 0140 0346     		mov	r3, r0
 7553 0142 1A46     		mov	r2, r3
 7554              		.loc 1 2657 10
 7555 0144 FB7B     		ldrb	r3, [r7, #15]
 7556 0146 1343     		orrs	r3, r3, r2
 7557 0148 FB73     		strb	r3, [r7, #15]
2658:Drivers/VL53L0X/core/src/vl53l0x_api.c **** 
2659:Drivers/VL53L0X/core/src/vl53l0x_api.c **** 		Status |= VL53L0X_WrByte(Dev, 0xff, 0x00);
 7558              		.loc 1 2659 13
 7559 014a 0022     		movs	r2, #0
 7560 014c FF21     		movs	r1, #255
 7561 014e 7868     		ldr	r0, [r7, #4]
 7562 0150 FFF7FEFF 		bl	VL53L0X_WrByte
 7563 0154 0346     		mov	r3, r0
 7564 0156 1A46     		mov	r2, r3
 7565              		.loc 1 2659 10
 7566 0158 FB7B     		ldrb	r3, [r7, #15]
 7567 015a 1343     		orrs	r3, r3, r2
 7568 015c FB73     		strb	r3, [r7, #15]
2660:Drivers/VL53L0X/core/src/vl53l0x_api.c **** 		Status |= VL53L0X_WrByte(Dev, 0xff, 0x01);
 7569              		.loc 1 2660 13
 7570 015e 0122     		movs	r2, #1
 7571 0160 FF21     		movs	r1, #255
 7572 0162 7868     		ldr	r0, [r7, #4]
 7573 0164 FFF7FEFF 		bl	VL53L0X_WrByte
 7574 0168 0346     		mov	r3, r0
 7575 016a 1A46     		mov	r2, r3
 7576              		.loc 1 2660 10
 7577 016c FB7B     		ldrb	r3, [r7, #15]
ARM GAS  C:\Users\Morroway\AppData\Local\Temp\ccih4NWY.s 			page 181


 7578 016e 1343     		orrs	r3, r3, r2
 7579 0170 FB73     		strb	r3, [r7, #15]
2661:Drivers/VL53L0X/core/src/vl53l0x_api.c **** 		Status |= VL53L0X_WrByte(Dev, 0x00, 0x00);
 7580              		.loc 1 2661 13
 7581 0172 0022     		movs	r2, #0
 7582 0174 0021     		movs	r1, #0
 7583 0176 7868     		ldr	r0, [r7, #4]
 7584 0178 FFF7FEFF 		bl	VL53L0X_WrByte
 7585 017c 0346     		mov	r3, r0
 7586 017e 1A46     		mov	r2, r3
 7587              		.loc 1 2661 10
 7588 0180 FB7B     		ldrb	r3, [r7, #15]
 7589 0182 1343     		orrs	r3, r3, r2
 7590 0184 FB73     		strb	r3, [r7, #15]
 7591 0186 56E0     		b	.L435
 7592              	.L439:
2662:Drivers/VL53L0X/core/src/vl53l0x_api.c **** 
2663:Drivers/VL53L0X/core/src/vl53l0x_api.c **** 	} else {
2664:Drivers/VL53L0X/core/src/vl53l0x_api.c **** 
2665:Drivers/VL53L0X/core/src/vl53l0x_api.c **** 		if (Status == VL53L0X_ERROR_NONE) {
 7593              		.loc 1 2665 6
 7594 0188 97F90F30 		ldrsb	r3, [r7, #15]
 7595 018c 002B     		cmp	r3, #0
 7596 018e 20D1     		bne	.L440
2666:Drivers/VL53L0X/core/src/vl53l0x_api.c **** 			switch (Functionality) {
 7597              		.loc 1 2666 4
 7598 0190 7B78     		ldrb	r3, [r7, #1]	@ zero_extendqisi2
 7599 0192 042B     		cmp	r3, #4
 7600 0194 1BD8     		bhi	.L441
 7601 0196 01A2     		adr	r2, .L443
 7602 0198 52F823F0 		ldr	pc, [r2, r3, lsl #2]
 7603              		.p2align 2
 7604              	.L443:
 7605 019c B1010000 		.word	.L447+1
 7606 01a0 B7010000 		.word	.L446+1
 7607 01a4 BD010000 		.word	.L445+1
 7608 01a8 C3010000 		.word	.L444+1
 7609 01ac C9010000 		.word	.L442+1
 7610              		.p2align 1
 7611              	.L447:
2667:Drivers/VL53L0X/core/src/vl53l0x_api.c **** 			case VL53L0X_GPIOFUNCTIONALITY_OFF:
2668:Drivers/VL53L0X/core/src/vl53l0x_api.c **** 				data = 0x00;
 7612              		.loc 1 2668 10
 7613 01b0 0023     		movs	r3, #0
 7614 01b2 BB73     		strb	r3, [r7, #14]
2669:Drivers/VL53L0X/core/src/vl53l0x_api.c **** 				break;
 7615              		.loc 1 2669 5
 7616 01b4 0DE0     		b	.L440
 7617              	.L446:
2670:Drivers/VL53L0X/core/src/vl53l0x_api.c **** 			case VL53L0X_GPIOFUNCTIONALITY_THRESHOLD_CROSSED_LOW:
2671:Drivers/VL53L0X/core/src/vl53l0x_api.c **** 				data = 0x01;
 7618              		.loc 1 2671 10
 7619 01b6 0123     		movs	r3, #1
 7620 01b8 BB73     		strb	r3, [r7, #14]
2672:Drivers/VL53L0X/core/src/vl53l0x_api.c **** 				break;
 7621              		.loc 1 2672 5
 7622 01ba 0AE0     		b	.L440
ARM GAS  C:\Users\Morroway\AppData\Local\Temp\ccih4NWY.s 			page 182


 7623              	.L445:
2673:Drivers/VL53L0X/core/src/vl53l0x_api.c **** 			case VL53L0X_GPIOFUNCTIONALITY_THRESHOLD_CROSSED_HIGH:
2674:Drivers/VL53L0X/core/src/vl53l0x_api.c **** 				data = 0x02;
 7624              		.loc 1 2674 10
 7625 01bc 0223     		movs	r3, #2
 7626 01be BB73     		strb	r3, [r7, #14]
2675:Drivers/VL53L0X/core/src/vl53l0x_api.c **** 				break;
 7627              		.loc 1 2675 5
 7628 01c0 07E0     		b	.L440
 7629              	.L444:
2676:Drivers/VL53L0X/core/src/vl53l0x_api.c **** 			case VL53L0X_GPIOFUNCTIONALITY_THRESHOLD_CROSSED_OUT:
2677:Drivers/VL53L0X/core/src/vl53l0x_api.c **** 				data = 0x03;
 7630              		.loc 1 2677 10
 7631 01c2 0323     		movs	r3, #3
 7632 01c4 BB73     		strb	r3, [r7, #14]
2678:Drivers/VL53L0X/core/src/vl53l0x_api.c **** 				break;
 7633              		.loc 1 2678 5
 7634 01c6 04E0     		b	.L440
 7635              	.L442:
2679:Drivers/VL53L0X/core/src/vl53l0x_api.c **** 			case VL53L0X_GPIOFUNCTIONALITY_NEW_MEASURE_READY:
2680:Drivers/VL53L0X/core/src/vl53l0x_api.c **** 				data = 0x04;
 7636              		.loc 1 2680 10
 7637 01c8 0423     		movs	r3, #4
 7638 01ca BB73     		strb	r3, [r7, #14]
2681:Drivers/VL53L0X/core/src/vl53l0x_api.c **** 				break;
 7639              		.loc 1 2681 5
 7640 01cc 01E0     		b	.L440
 7641              	.L441:
2682:Drivers/VL53L0X/core/src/vl53l0x_api.c **** 			default:
2683:Drivers/VL53L0X/core/src/vl53l0x_api.c **** 				Status =
 7642              		.loc 1 2683 12
 7643 01ce F523     		movs	r3, #245
 7644 01d0 FB73     		strb	r3, [r7, #15]
 7645              	.L440:
2684:Drivers/VL53L0X/core/src/vl53l0x_api.c **** 				VL53L0X_ERROR_GPIO_FUNCTIONALITY_NOT_SUPPORTED;
2685:Drivers/VL53L0X/core/src/vl53l0x_api.c **** 			}
2686:Drivers/VL53L0X/core/src/vl53l0x_api.c **** 		}
2687:Drivers/VL53L0X/core/src/vl53l0x_api.c **** 
2688:Drivers/VL53L0X/core/src/vl53l0x_api.c **** 		if (Status == VL53L0X_ERROR_NONE)
 7646              		.loc 1 2688 6
 7647 01d2 97F90F30 		ldrsb	r3, [r7, #15]
 7648 01d6 002B     		cmp	r3, #0
 7649 01d8 07D1     		bne	.L448
2689:Drivers/VL53L0X/core/src/vl53l0x_api.c **** 			Status = VL53L0X_WrByte(Dev,
 7650              		.loc 1 2689 13
 7651 01da BB7B     		ldrb	r3, [r7, #14]	@ zero_extendqisi2
 7652 01dc 1A46     		mov	r2, r3
 7653 01de 0A21     		movs	r1, #10
 7654 01e0 7868     		ldr	r0, [r7, #4]
 7655 01e2 FFF7FEFF 		bl	VL53L0X_WrByte
 7656 01e6 0346     		mov	r3, r0
 7657 01e8 FB73     		strb	r3, [r7, #15]
 7658              	.L448:
2690:Drivers/VL53L0X/core/src/vl53l0x_api.c **** 			VL53L0X_REG_SYSTEM_INTERRUPT_CONFIG_GPIO, data);
2691:Drivers/VL53L0X/core/src/vl53l0x_api.c **** 
2692:Drivers/VL53L0X/core/src/vl53l0x_api.c **** 		if (Status == VL53L0X_ERROR_NONE) {
 7659              		.loc 1 2692 6
ARM GAS  C:\Users\Morroway\AppData\Local\Temp\ccih4NWY.s 			page 183


 7660 01ea 97F90F30 		ldrsb	r3, [r7, #15]
 7661 01ee 002B     		cmp	r3, #0
 7662 01f0 0FD1     		bne	.L449
2693:Drivers/VL53L0X/core/src/vl53l0x_api.c **** 			if (Polarity == VL53L0X_INTERRUPTPOLARITY_LOW)
 7663              		.loc 1 2693 7
 7664 01f2 3B7E     		ldrb	r3, [r7, #24]	@ zero_extendqisi2
 7665 01f4 002B     		cmp	r3, #0
 7666 01f6 02D1     		bne	.L450
2694:Drivers/VL53L0X/core/src/vl53l0x_api.c **** 				data = 0;
 7667              		.loc 1 2694 10
 7668 01f8 0023     		movs	r3, #0
 7669 01fa BB73     		strb	r3, [r7, #14]
 7670 01fc 01E0     		b	.L451
 7671              	.L450:
2695:Drivers/VL53L0X/core/src/vl53l0x_api.c **** 			else
2696:Drivers/VL53L0X/core/src/vl53l0x_api.c **** 				data = (uint8_t)(1 << 4);
 7672              		.loc 1 2696 10
 7673 01fe 1023     		movs	r3, #16
 7674 0200 BB73     		strb	r3, [r7, #14]
 7675              	.L451:
2697:Drivers/VL53L0X/core/src/vl53l0x_api.c **** 
2698:Drivers/VL53L0X/core/src/vl53l0x_api.c **** 			Status = VL53L0X_UpdateByte(Dev,
 7676              		.loc 1 2698 13
 7677 0202 BB7B     		ldrb	r3, [r7, #14]	@ zero_extendqisi2
 7678 0204 EF22     		movs	r2, #239
 7679 0206 8421     		movs	r1, #132
 7680 0208 7868     		ldr	r0, [r7, #4]
 7681 020a FFF7FEFF 		bl	VL53L0X_UpdateByte
 7682 020e 0346     		mov	r3, r0
 7683 0210 FB73     		strb	r3, [r7, #15]
 7684              	.L449:
2699:Drivers/VL53L0X/core/src/vl53l0x_api.c **** 			VL53L0X_REG_GPIO_HV_MUX_ACTIVE_HIGH, 0xEF, data);
2700:Drivers/VL53L0X/core/src/vl53l0x_api.c **** 		}
2701:Drivers/VL53L0X/core/src/vl53l0x_api.c **** 
2702:Drivers/VL53L0X/core/src/vl53l0x_api.c **** 		if (Status == VL53L0X_ERROR_NONE)
 7685              		.loc 1 2702 6
 7686 0212 97F90F30 		ldrsb	r3, [r7, #15]
 7687 0216 002B     		cmp	r3, #0
 7688 0218 03D1     		bne	.L452
2703:Drivers/VL53L0X/core/src/vl53l0x_api.c **** 			VL53L0X_SETDEVICESPECIFICPARAMETER(Dev,
 7689              		.loc 1 2703 4
 7690 021a 7B68     		ldr	r3, [r7, #4]
 7691 021c 7A78     		ldrb	r2, [r7, #1]
 7692 021e 83F8DA20 		strb	r2, [r3, #218]
 7693              	.L452:
2704:Drivers/VL53L0X/core/src/vl53l0x_api.c **** 				Pin0GpioFunctionality, Functionality);
2705:Drivers/VL53L0X/core/src/vl53l0x_api.c **** 
2706:Drivers/VL53L0X/core/src/vl53l0x_api.c **** 		if (Status == VL53L0X_ERROR_NONE)
 7694              		.loc 1 2706 6
 7695 0222 97F90F30 		ldrsb	r3, [r7, #15]
 7696 0226 002B     		cmp	r3, #0
 7697 0228 05D1     		bne	.L435
2707:Drivers/VL53L0X/core/src/vl53l0x_api.c **** 			Status = VL53L0X_ClearInterruptMask(Dev, 0);
 7698              		.loc 1 2707 13
 7699 022a 0021     		movs	r1, #0
 7700 022c 7868     		ldr	r0, [r7, #4]
 7701 022e FFF7FEFF 		bl	VL53L0X_ClearInterruptMask
ARM GAS  C:\Users\Morroway\AppData\Local\Temp\ccih4NWY.s 			page 184


 7702 0232 0346     		mov	r3, r0
 7703 0234 FB73     		strb	r3, [r7, #15]
 7704              	.L435:
2708:Drivers/VL53L0X/core/src/vl53l0x_api.c **** 
2709:Drivers/VL53L0X/core/src/vl53l0x_api.c **** 	}
2710:Drivers/VL53L0X/core/src/vl53l0x_api.c **** 
2711:Drivers/VL53L0X/core/src/vl53l0x_api.c **** 	LOG_FUNCTION_END(Status);
2712:Drivers/VL53L0X/core/src/vl53l0x_api.c **** 	return Status;
 7705              		.loc 1 2712 9
 7706 0236 97F90F30 		ldrsb	r3, [r7, #15]
2713:Drivers/VL53L0X/core/src/vl53l0x_api.c **** }
 7707              		.loc 1 2713 1
 7708 023a 1846     		mov	r0, r3
 7709 023c 1037     		adds	r7, r7, #16
 7710              		.cfi_def_cfa_offset 8
 7711 023e BD46     		mov	sp, r7
 7712              		.cfi_def_cfa_register 13
 7713              		@ sp needed
 7714 0240 80BD     		pop	{r7, pc}
 7715              		.cfi_endproc
 7716              	.LFE408:
 7718 0242 00BF     		.section	.text.VL53L0X_GetGpioConfig,"ax",%progbits
 7719              		.align	1
 7720              		.global	VL53L0X_GetGpioConfig
 7721              		.syntax unified
 7722              		.thumb
 7723              		.thumb_func
 7725              	VL53L0X_GetGpioConfig:
 7726              	.LFB409:
2714:Drivers/VL53L0X/core/src/vl53l0x_api.c **** 
2715:Drivers/VL53L0X/core/src/vl53l0x_api.c **** VL53L0X_Error VL53L0X_GetGpioConfig(VL53L0X_DEV Dev, uint8_t Pin,
2716:Drivers/VL53L0X/core/src/vl53l0x_api.c **** 	VL53L0X_DeviceModes *pDeviceMode,
2717:Drivers/VL53L0X/core/src/vl53l0x_api.c **** 	VL53L0X_GpioFunctionality *pFunctionality,
2718:Drivers/VL53L0X/core/src/vl53l0x_api.c **** 	VL53L0X_InterruptPolarity *pPolarity)
2719:Drivers/VL53L0X/core/src/vl53l0x_api.c **** {
 7727              		.loc 1 2719 1
 7728              		.cfi_startproc
 7729              		@ args = 4, pretend = 0, frame = 24
 7730              		@ frame_needed = 1, uses_anonymous_args = 0
 7731 0000 80B5     		push	{r7, lr}
 7732              		.cfi_def_cfa_offset 8
 7733              		.cfi_offset 7, -8
 7734              		.cfi_offset 14, -4
 7735 0002 86B0     		sub	sp, sp, #24
 7736              		.cfi_def_cfa_offset 32
 7737 0004 00AF     		add	r7, sp, #0
 7738              		.cfi_def_cfa_register 7
 7739 0006 F860     		str	r0, [r7, #12]
 7740 0008 7A60     		str	r2, [r7, #4]
 7741 000a 3B60     		str	r3, [r7]
 7742 000c 0B46     		mov	r3, r1
 7743 000e FB72     		strb	r3, [r7, #11]
2720:Drivers/VL53L0X/core/src/vl53l0x_api.c **** 	VL53L0X_Error Status = VL53L0X_ERROR_NONE;
 7744              		.loc 1 2720 16
 7745 0010 0023     		movs	r3, #0
 7746 0012 FB75     		strb	r3, [r7, #23]
2721:Drivers/VL53L0X/core/src/vl53l0x_api.c **** 	VL53L0X_GpioFunctionality GpioFunctionality;
ARM GAS  C:\Users\Morroway\AppData\Local\Temp\ccih4NWY.s 			page 185


2722:Drivers/VL53L0X/core/src/vl53l0x_api.c **** 	uint8_t data;
2723:Drivers/VL53L0X/core/src/vl53l0x_api.c **** 
2724:Drivers/VL53L0X/core/src/vl53l0x_api.c **** 	LOG_FUNCTION_START("");
2725:Drivers/VL53L0X/core/src/vl53l0x_api.c **** 
2726:Drivers/VL53L0X/core/src/vl53l0x_api.c **** 	/* pDeviceMode not managed by Ewok it return the current mode */
2727:Drivers/VL53L0X/core/src/vl53l0x_api.c **** 
2728:Drivers/VL53L0X/core/src/vl53l0x_api.c **** 	Status = VL53L0X_GetDeviceMode(Dev, pDeviceMode);
 7747              		.loc 1 2728 11
 7748 0014 7968     		ldr	r1, [r7, #4]
 7749 0016 F868     		ldr	r0, [r7, #12]
 7750 0018 FFF7FEFF 		bl	VL53L0X_GetDeviceMode
 7751 001c 0346     		mov	r3, r0
 7752 001e FB75     		strb	r3, [r7, #23]
2729:Drivers/VL53L0X/core/src/vl53l0x_api.c **** 
2730:Drivers/VL53L0X/core/src/vl53l0x_api.c **** 	if (Status == VL53L0X_ERROR_NONE) {
 7753              		.loc 1 2730 5
 7754 0020 97F91730 		ldrsb	r3, [r7, #23]
 7755 0024 002B     		cmp	r3, #0
 7756 0026 0ED1     		bne	.L455
2731:Drivers/VL53L0X/core/src/vl53l0x_api.c **** 		if (Pin != 0) {
 7757              		.loc 1 2731 6
 7758 0028 FB7A     		ldrb	r3, [r7, #11]	@ zero_extendqisi2
 7759 002a 002B     		cmp	r3, #0
 7760 002c 02D0     		beq	.L456
2732:Drivers/VL53L0X/core/src/vl53l0x_api.c **** 			Status = VL53L0X_ERROR_GPIO_NOT_EXISTING;
 7761              		.loc 1 2732 11
 7762 002e F623     		movs	r3, #246
 7763 0030 FB75     		strb	r3, [r7, #23]
 7764 0032 08E0     		b	.L455
 7765              	.L456:
2733:Drivers/VL53L0X/core/src/vl53l0x_api.c **** 		} else {
2734:Drivers/VL53L0X/core/src/vl53l0x_api.c **** 			Status = VL53L0X_RdByte(Dev,
 7766              		.loc 1 2734 13
 7767 0034 07F11503 		add	r3, r7, #21
 7768 0038 1A46     		mov	r2, r3
 7769 003a 0A21     		movs	r1, #10
 7770 003c F868     		ldr	r0, [r7, #12]
 7771 003e FFF7FEFF 		bl	VL53L0X_RdByte
 7772 0042 0346     		mov	r3, r0
 7773 0044 FB75     		strb	r3, [r7, #23]
 7774              	.L455:
2735:Drivers/VL53L0X/core/src/vl53l0x_api.c **** 			VL53L0X_REG_SYSTEM_INTERRUPT_CONFIG_GPIO, &data);
2736:Drivers/VL53L0X/core/src/vl53l0x_api.c **** 		}
2737:Drivers/VL53L0X/core/src/vl53l0x_api.c **** 	}
2738:Drivers/VL53L0X/core/src/vl53l0x_api.c **** 
2739:Drivers/VL53L0X/core/src/vl53l0x_api.c **** 	if (Status == VL53L0X_ERROR_NONE) {
 7775              		.loc 1 2739 5
 7776 0046 97F91730 		ldrsb	r3, [r7, #23]
 7777 004a 002B     		cmp	r3, #0
 7778 004c 23D1     		bne	.L457
2740:Drivers/VL53L0X/core/src/vl53l0x_api.c **** 		switch (data & 0x07) {
 7779              		.loc 1 2740 16
 7780 004e 7B7D     		ldrb	r3, [r7, #21]	@ zero_extendqisi2
 7781 0050 03F00703 		and	r3, r3, #7
 7782              		.loc 1 2740 3
 7783 0054 042B     		cmp	r3, #4
 7784 0056 1CD8     		bhi	.L458
ARM GAS  C:\Users\Morroway\AppData\Local\Temp\ccih4NWY.s 			page 186


 7785 0058 01A2     		adr	r2, .L460
 7786 005a 52F823F0 		ldr	pc, [r2, r3, lsl #2]
 7787 005e 00BF     		.p2align 2
 7788              	.L460:
 7789 0060 75000000 		.word	.L464+1
 7790 0064 7B000000 		.word	.L463+1
 7791 0068 81000000 		.word	.L462+1
 7792 006c 87000000 		.word	.L461+1
 7793 0070 8D000000 		.word	.L459+1
 7794              		.p2align 1
 7795              	.L464:
2741:Drivers/VL53L0X/core/src/vl53l0x_api.c **** 		case 0x00:
2742:Drivers/VL53L0X/core/src/vl53l0x_api.c **** 			GpioFunctionality = VL53L0X_GPIOFUNCTIONALITY_OFF;
 7796              		.loc 1 2742 22
 7797 0074 0023     		movs	r3, #0
 7798 0076 BB75     		strb	r3, [r7, #22]
2743:Drivers/VL53L0X/core/src/vl53l0x_api.c **** 			break;
 7799              		.loc 1 2743 4
 7800 0078 0DE0     		b	.L457
 7801              	.L463:
2744:Drivers/VL53L0X/core/src/vl53l0x_api.c **** 		case 0x01:
2745:Drivers/VL53L0X/core/src/vl53l0x_api.c **** 			GpioFunctionality =
 7802              		.loc 1 2745 22
 7803 007a 0123     		movs	r3, #1
 7804 007c BB75     		strb	r3, [r7, #22]
2746:Drivers/VL53L0X/core/src/vl53l0x_api.c **** 			VL53L0X_GPIOFUNCTIONALITY_THRESHOLD_CROSSED_LOW;
2747:Drivers/VL53L0X/core/src/vl53l0x_api.c **** 			break;
 7805              		.loc 1 2747 4
 7806 007e 0AE0     		b	.L457
 7807              	.L462:
2748:Drivers/VL53L0X/core/src/vl53l0x_api.c **** 		case 0x02:
2749:Drivers/VL53L0X/core/src/vl53l0x_api.c **** 			GpioFunctionality =
 7808              		.loc 1 2749 22
 7809 0080 0223     		movs	r3, #2
 7810 0082 BB75     		strb	r3, [r7, #22]
2750:Drivers/VL53L0X/core/src/vl53l0x_api.c **** 			VL53L0X_GPIOFUNCTIONALITY_THRESHOLD_CROSSED_HIGH;
2751:Drivers/VL53L0X/core/src/vl53l0x_api.c **** 			break;
 7811              		.loc 1 2751 4
 7812 0084 07E0     		b	.L457
 7813              	.L461:
2752:Drivers/VL53L0X/core/src/vl53l0x_api.c **** 		case 0x03:
2753:Drivers/VL53L0X/core/src/vl53l0x_api.c **** 			GpioFunctionality =
 7814              		.loc 1 2753 22
 7815 0086 0323     		movs	r3, #3
 7816 0088 BB75     		strb	r3, [r7, #22]
2754:Drivers/VL53L0X/core/src/vl53l0x_api.c **** 			VL53L0X_GPIOFUNCTIONALITY_THRESHOLD_CROSSED_OUT;
2755:Drivers/VL53L0X/core/src/vl53l0x_api.c **** 			break;
 7817              		.loc 1 2755 4
 7818 008a 04E0     		b	.L457
 7819              	.L459:
2756:Drivers/VL53L0X/core/src/vl53l0x_api.c **** 		case 0x04:
2757:Drivers/VL53L0X/core/src/vl53l0x_api.c **** 			GpioFunctionality =
 7820              		.loc 1 2757 22
 7821 008c 0423     		movs	r3, #4
 7822 008e BB75     		strb	r3, [r7, #22]
2758:Drivers/VL53L0X/core/src/vl53l0x_api.c **** 			VL53L0X_GPIOFUNCTIONALITY_NEW_MEASURE_READY;
2759:Drivers/VL53L0X/core/src/vl53l0x_api.c **** 			break;
ARM GAS  C:\Users\Morroway\AppData\Local\Temp\ccih4NWY.s 			page 187


 7823              		.loc 1 2759 4
 7824 0090 01E0     		b	.L457
 7825              	.L458:
2760:Drivers/VL53L0X/core/src/vl53l0x_api.c **** 		default:
2761:Drivers/VL53L0X/core/src/vl53l0x_api.c **** 			Status = VL53L0X_ERROR_GPIO_FUNCTIONALITY_NOT_SUPPORTED;
 7826              		.loc 1 2761 11
 7827 0092 F523     		movs	r3, #245
 7828 0094 FB75     		strb	r3, [r7, #23]
 7829              	.L457:
2762:Drivers/VL53L0X/core/src/vl53l0x_api.c **** 		}
2763:Drivers/VL53L0X/core/src/vl53l0x_api.c **** 	}
2764:Drivers/VL53L0X/core/src/vl53l0x_api.c **** 
2765:Drivers/VL53L0X/core/src/vl53l0x_api.c **** 	if (Status == VL53L0X_ERROR_NONE)
 7830              		.loc 1 2765 5
 7831 0096 97F91730 		ldrsb	r3, [r7, #23]
 7832 009a 002B     		cmp	r3, #0
 7833 009c 08D1     		bne	.L465
2766:Drivers/VL53L0X/core/src/vl53l0x_api.c **** 		Status = VL53L0X_RdByte(Dev, VL53L0X_REG_GPIO_HV_MUX_ACTIVE_HIGH,
 7834              		.loc 1 2766 12
 7835 009e 07F11503 		add	r3, r7, #21
 7836 00a2 1A46     		mov	r2, r3
 7837 00a4 8421     		movs	r1, #132
 7838 00a6 F868     		ldr	r0, [r7, #12]
 7839 00a8 FFF7FEFF 		bl	VL53L0X_RdByte
 7840 00ac 0346     		mov	r3, r0
 7841 00ae FB75     		strb	r3, [r7, #23]
 7842              	.L465:
2767:Drivers/VL53L0X/core/src/vl53l0x_api.c **** 			&data);
2768:Drivers/VL53L0X/core/src/vl53l0x_api.c **** 
2769:Drivers/VL53L0X/core/src/vl53l0x_api.c **** 	if (Status == VL53L0X_ERROR_NONE) {
 7843              		.loc 1 2769 5
 7844 00b0 97F91730 		ldrsb	r3, [r7, #23]
 7845 00b4 002B     		cmp	r3, #0
 7846 00b6 0BD1     		bne	.L466
2770:Drivers/VL53L0X/core/src/vl53l0x_api.c **** 		if ((data & (uint8_t)(1 << 4)) == 0)
 7847              		.loc 1 2770 13
 7848 00b8 7B7D     		ldrb	r3, [r7, #21]	@ zero_extendqisi2
 7849 00ba 03F01003 		and	r3, r3, #16
 7850              		.loc 1 2770 6
 7851 00be 002B     		cmp	r3, #0
 7852 00c0 03D1     		bne	.L467
2771:Drivers/VL53L0X/core/src/vl53l0x_api.c **** 			*pPolarity = VL53L0X_INTERRUPTPOLARITY_LOW;
 7853              		.loc 1 2771 15
 7854 00c2 3B6A     		ldr	r3, [r7, #32]
 7855 00c4 0022     		movs	r2, #0
 7856 00c6 1A70     		strb	r2, [r3]
 7857 00c8 02E0     		b	.L466
 7858              	.L467:
2772:Drivers/VL53L0X/core/src/vl53l0x_api.c **** 		else
2773:Drivers/VL53L0X/core/src/vl53l0x_api.c **** 			*pPolarity = VL53L0X_INTERRUPTPOLARITY_HIGH;
 7859              		.loc 1 2773 15
 7860 00ca 3B6A     		ldr	r3, [r7, #32]
 7861 00cc 0122     		movs	r2, #1
 7862 00ce 1A70     		strb	r2, [r3]
 7863              	.L466:
2774:Drivers/VL53L0X/core/src/vl53l0x_api.c **** 	}
2775:Drivers/VL53L0X/core/src/vl53l0x_api.c **** 
ARM GAS  C:\Users\Morroway\AppData\Local\Temp\ccih4NWY.s 			page 188


2776:Drivers/VL53L0X/core/src/vl53l0x_api.c **** 	if (Status == VL53L0X_ERROR_NONE) {
 7864              		.loc 1 2776 5
 7865 00d0 97F91730 		ldrsb	r3, [r7, #23]
 7866 00d4 002B     		cmp	r3, #0
 7867 00d6 06D1     		bne	.L468
2777:Drivers/VL53L0X/core/src/vl53l0x_api.c **** 		*pFunctionality = GpioFunctionality;
 7868              		.loc 1 2777 19
 7869 00d8 3B68     		ldr	r3, [r7]
 7870 00da BA7D     		ldrb	r2, [r7, #22]
 7871 00dc 1A70     		strb	r2, [r3]
2778:Drivers/VL53L0X/core/src/vl53l0x_api.c **** 		VL53L0X_SETDEVICESPECIFICPARAMETER(Dev, Pin0GpioFunctionality,
 7872              		.loc 1 2778 3
 7873 00de FB68     		ldr	r3, [r7, #12]
 7874 00e0 BA7D     		ldrb	r2, [r7, #22]
 7875 00e2 83F8DA20 		strb	r2, [r3, #218]
 7876              	.L468:
2779:Drivers/VL53L0X/core/src/vl53l0x_api.c **** 			GpioFunctionality);
2780:Drivers/VL53L0X/core/src/vl53l0x_api.c **** 	}
2781:Drivers/VL53L0X/core/src/vl53l0x_api.c **** 
2782:Drivers/VL53L0X/core/src/vl53l0x_api.c **** 	LOG_FUNCTION_END(Status);
2783:Drivers/VL53L0X/core/src/vl53l0x_api.c **** 	return Status;
 7877              		.loc 1 2783 9
 7878 00e6 97F91730 		ldrsb	r3, [r7, #23]
2784:Drivers/VL53L0X/core/src/vl53l0x_api.c **** }
 7879              		.loc 1 2784 1
 7880 00ea 1846     		mov	r0, r3
 7881 00ec 1837     		adds	r7, r7, #24
 7882              		.cfi_def_cfa_offset 8
 7883 00ee BD46     		mov	sp, r7
 7884              		.cfi_def_cfa_register 13
 7885              		@ sp needed
 7886 00f0 80BD     		pop	{r7, pc}
 7887              		.cfi_endproc
 7888              	.LFE409:
 7890 00f2 00BF     		.section	.text.VL53L0X_SetInterruptThresholds,"ax",%progbits
 7891              		.align	1
 7892              		.global	VL53L0X_SetInterruptThresholds
 7893              		.syntax unified
 7894              		.thumb
 7895              		.thumb_func
 7897              	VL53L0X_SetInterruptThresholds:
 7898              	.LFB410:
2785:Drivers/VL53L0X/core/src/vl53l0x_api.c **** 
2786:Drivers/VL53L0X/core/src/vl53l0x_api.c **** VL53L0X_Error VL53L0X_SetInterruptThresholds(VL53L0X_DEV Dev,
2787:Drivers/VL53L0X/core/src/vl53l0x_api.c **** 	VL53L0X_DeviceModes DeviceMode, FixPoint1616_t ThresholdLow,
2788:Drivers/VL53L0X/core/src/vl53l0x_api.c **** 	FixPoint1616_t ThresholdHigh)
2789:Drivers/VL53L0X/core/src/vl53l0x_api.c **** {
 7899              		.loc 1 2789 1
 7900              		.cfi_startproc
 7901              		@ args = 0, pretend = 0, frame = 24
 7902              		@ frame_needed = 1, uses_anonymous_args = 0
 7903 0000 80B5     		push	{r7, lr}
 7904              		.cfi_def_cfa_offset 8
 7905              		.cfi_offset 7, -8
 7906              		.cfi_offset 14, -4
 7907 0002 86B0     		sub	sp, sp, #24
 7908              		.cfi_def_cfa_offset 32
ARM GAS  C:\Users\Morroway\AppData\Local\Temp\ccih4NWY.s 			page 189


 7909 0004 00AF     		add	r7, sp, #0
 7910              		.cfi_def_cfa_register 7
 7911 0006 F860     		str	r0, [r7, #12]
 7912 0008 7A60     		str	r2, [r7, #4]
 7913 000a 3B60     		str	r3, [r7]
 7914 000c 0B46     		mov	r3, r1
 7915 000e FB72     		strb	r3, [r7, #11]
2790:Drivers/VL53L0X/core/src/vl53l0x_api.c **** 	VL53L0X_Error Status = VL53L0X_ERROR_NONE;
 7916              		.loc 1 2790 16
 7917 0010 0023     		movs	r3, #0
 7918 0012 FB75     		strb	r3, [r7, #23]
2791:Drivers/VL53L0X/core/src/vl53l0x_api.c **** 	uint16_t Threshold16;
2792:Drivers/VL53L0X/core/src/vl53l0x_api.c **** 	LOG_FUNCTION_START("");
2793:Drivers/VL53L0X/core/src/vl53l0x_api.c **** 
2794:Drivers/VL53L0X/core/src/vl53l0x_api.c **** 	/* no dependency on DeviceMode for Ewok */
2795:Drivers/VL53L0X/core/src/vl53l0x_api.c **** 	/* Need to divide by 2 because the FW will apply a x2 */
2796:Drivers/VL53L0X/core/src/vl53l0x_api.c **** 	Threshold16 = (uint16_t)((ThresholdLow >> 17) & 0x00fff);
 7919              		.loc 1 2796 41
 7920 0014 7B68     		ldr	r3, [r7, #4]
 7921 0016 5B0C     		lsrs	r3, r3, #17
 7922              		.loc 1 2796 16
 7923 0018 9BB2     		uxth	r3, r3
 7924              		.loc 1 2796 14
 7925 001a C3F30B03 		ubfx	r3, r3, #0, #12
 7926 001e BB82     		strh	r3, [r7, #20]	@ movhi
2797:Drivers/VL53L0X/core/src/vl53l0x_api.c **** 	Status = VL53L0X_WrWord(Dev, VL53L0X_REG_SYSTEM_THRESH_LOW, Threshold16);
 7927              		.loc 1 2797 11
 7928 0020 BB8A     		ldrh	r3, [r7, #20]
 7929 0022 1A46     		mov	r2, r3
 7930 0024 0E21     		movs	r1, #14
 7931 0026 F868     		ldr	r0, [r7, #12]
 7932 0028 FFF7FEFF 		bl	VL53L0X_WrWord
 7933 002c 0346     		mov	r3, r0
 7934 002e FB75     		strb	r3, [r7, #23]
2798:Drivers/VL53L0X/core/src/vl53l0x_api.c **** 
2799:Drivers/VL53L0X/core/src/vl53l0x_api.c **** 	if (Status == VL53L0X_ERROR_NONE) {
 7935              		.loc 1 2799 5
 7936 0030 97F91730 		ldrsb	r3, [r7, #23]
 7937 0034 002B     		cmp	r3, #0
 7938 0036 0DD1     		bne	.L471
2800:Drivers/VL53L0X/core/src/vl53l0x_api.c **** 		/* Need to divide by 2 because the FW will apply a x2 */
2801:Drivers/VL53L0X/core/src/vl53l0x_api.c **** 		Threshold16 = (uint16_t)((ThresholdHigh >> 17) & 0x00fff);
 7939              		.loc 1 2801 43
 7940 0038 3B68     		ldr	r3, [r7]
 7941 003a 5B0C     		lsrs	r3, r3, #17
 7942              		.loc 1 2801 17
 7943 003c 9BB2     		uxth	r3, r3
 7944              		.loc 1 2801 15
 7945 003e C3F30B03 		ubfx	r3, r3, #0, #12
 7946 0042 BB82     		strh	r3, [r7, #20]	@ movhi
2802:Drivers/VL53L0X/core/src/vl53l0x_api.c **** 		Status = VL53L0X_WrWord(Dev, VL53L0X_REG_SYSTEM_THRESH_HIGH,
 7947              		.loc 1 2802 12
 7948 0044 BB8A     		ldrh	r3, [r7, #20]
 7949 0046 1A46     		mov	r2, r3
 7950 0048 0C21     		movs	r1, #12
 7951 004a F868     		ldr	r0, [r7, #12]
 7952 004c FFF7FEFF 		bl	VL53L0X_WrWord
ARM GAS  C:\Users\Morroway\AppData\Local\Temp\ccih4NWY.s 			page 190


 7953 0050 0346     		mov	r3, r0
 7954 0052 FB75     		strb	r3, [r7, #23]
 7955              	.L471:
2803:Drivers/VL53L0X/core/src/vl53l0x_api.c **** 			Threshold16);
2804:Drivers/VL53L0X/core/src/vl53l0x_api.c **** 	}
2805:Drivers/VL53L0X/core/src/vl53l0x_api.c **** 
2806:Drivers/VL53L0X/core/src/vl53l0x_api.c **** 	LOG_FUNCTION_END(Status);
2807:Drivers/VL53L0X/core/src/vl53l0x_api.c **** 	return Status;
 7956              		.loc 1 2807 9
 7957 0054 97F91730 		ldrsb	r3, [r7, #23]
2808:Drivers/VL53L0X/core/src/vl53l0x_api.c **** }
 7958              		.loc 1 2808 1
 7959 0058 1846     		mov	r0, r3
 7960 005a 1837     		adds	r7, r7, #24
 7961              		.cfi_def_cfa_offset 8
 7962 005c BD46     		mov	sp, r7
 7963              		.cfi_def_cfa_register 13
 7964              		@ sp needed
 7965 005e 80BD     		pop	{r7, pc}
 7966              		.cfi_endproc
 7967              	.LFE410:
 7969              		.section	.text.VL53L0X_GetInterruptThresholds,"ax",%progbits
 7970              		.align	1
 7971              		.global	VL53L0X_GetInterruptThresholds
 7972              		.syntax unified
 7973              		.thumb
 7974              		.thumb_func
 7976              	VL53L0X_GetInterruptThresholds:
 7977              	.LFB411:
2809:Drivers/VL53L0X/core/src/vl53l0x_api.c **** 
2810:Drivers/VL53L0X/core/src/vl53l0x_api.c **** VL53L0X_Error VL53L0X_GetInterruptThresholds(VL53L0X_DEV Dev,
2811:Drivers/VL53L0X/core/src/vl53l0x_api.c **** 	VL53L0X_DeviceModes DeviceMode, FixPoint1616_t *pThresholdLow,
2812:Drivers/VL53L0X/core/src/vl53l0x_api.c **** 	FixPoint1616_t *pThresholdHigh)
2813:Drivers/VL53L0X/core/src/vl53l0x_api.c **** {
 7978              		.loc 1 2813 1
 7979              		.cfi_startproc
 7980              		@ args = 0, pretend = 0, frame = 24
 7981              		@ frame_needed = 1, uses_anonymous_args = 0
 7982 0000 80B5     		push	{r7, lr}
 7983              		.cfi_def_cfa_offset 8
 7984              		.cfi_offset 7, -8
 7985              		.cfi_offset 14, -4
 7986 0002 86B0     		sub	sp, sp, #24
 7987              		.cfi_def_cfa_offset 32
 7988 0004 00AF     		add	r7, sp, #0
 7989              		.cfi_def_cfa_register 7
 7990 0006 F860     		str	r0, [r7, #12]
 7991 0008 7A60     		str	r2, [r7, #4]
 7992 000a 3B60     		str	r3, [r7]
 7993 000c 0B46     		mov	r3, r1
 7994 000e FB72     		strb	r3, [r7, #11]
2814:Drivers/VL53L0X/core/src/vl53l0x_api.c **** 	VL53L0X_Error Status = VL53L0X_ERROR_NONE;
 7995              		.loc 1 2814 16
 7996 0010 0023     		movs	r3, #0
 7997 0012 FB75     		strb	r3, [r7, #23]
2815:Drivers/VL53L0X/core/src/vl53l0x_api.c **** 	uint16_t Threshold16;
2816:Drivers/VL53L0X/core/src/vl53l0x_api.c **** 	LOG_FUNCTION_START("");
ARM GAS  C:\Users\Morroway\AppData\Local\Temp\ccih4NWY.s 			page 191


2817:Drivers/VL53L0X/core/src/vl53l0x_api.c **** 
2818:Drivers/VL53L0X/core/src/vl53l0x_api.c **** 	/* no dependency on DeviceMode for Ewok */
2819:Drivers/VL53L0X/core/src/vl53l0x_api.c **** 
2820:Drivers/VL53L0X/core/src/vl53l0x_api.c **** 	Status = VL53L0X_RdWord(Dev, VL53L0X_REG_SYSTEM_THRESH_LOW, &Threshold16);
 7998              		.loc 1 2820 11
 7999 0014 07F11403 		add	r3, r7, #20
 8000 0018 1A46     		mov	r2, r3
 8001 001a 0E21     		movs	r1, #14
 8002 001c F868     		ldr	r0, [r7, #12]
 8003 001e FFF7FEFF 		bl	VL53L0X_RdWord
 8004 0022 0346     		mov	r3, r0
 8005 0024 FB75     		strb	r3, [r7, #23]
2821:Drivers/VL53L0X/core/src/vl53l0x_api.c **** 	/* Need to multiply by 2 because the FW will apply a x2 */
2822:Drivers/VL53L0X/core/src/vl53l0x_api.c **** 	*pThresholdLow = (FixPoint1616_t)((0x00fff & Threshold16) << 17);
 8006              		.loc 1 2822 45
 8007 0026 BB8A     		ldrh	r3, [r7, #20]
 8008              		.loc 1 2822 60
 8009 0028 5B04     		lsls	r3, r3, #17
 8010              		.loc 1 2822 19
 8011 002a 1A46     		mov	r2, r3
 8012 002c 0E4B     		ldr	r3, .L476
 8013 002e 1340     		ands	r3, r3, r2
 8014              		.loc 1 2822 17
 8015 0030 7A68     		ldr	r2, [r7, #4]
 8016 0032 1360     		str	r3, [r2]
2823:Drivers/VL53L0X/core/src/vl53l0x_api.c **** 
2824:Drivers/VL53L0X/core/src/vl53l0x_api.c **** 	if (Status == VL53L0X_ERROR_NONE) {
 8017              		.loc 1 2824 5
 8018 0034 97F91730 		ldrsb	r3, [r7, #23]
 8019 0038 002B     		cmp	r3, #0
 8020 003a 0FD1     		bne	.L474
2825:Drivers/VL53L0X/core/src/vl53l0x_api.c **** 		Status = VL53L0X_RdWord(Dev, VL53L0X_REG_SYSTEM_THRESH_HIGH,
 8021              		.loc 1 2825 12
 8022 003c 07F11403 		add	r3, r7, #20
 8023 0040 1A46     		mov	r2, r3
 8024 0042 0C21     		movs	r1, #12
 8025 0044 F868     		ldr	r0, [r7, #12]
 8026 0046 FFF7FEFF 		bl	VL53L0X_RdWord
 8027 004a 0346     		mov	r3, r0
 8028 004c FB75     		strb	r3, [r7, #23]
2826:Drivers/VL53L0X/core/src/vl53l0x_api.c **** 			&Threshold16);
2827:Drivers/VL53L0X/core/src/vl53l0x_api.c **** 		/* Need to multiply by 2 because the FW will apply a x2 */
2828:Drivers/VL53L0X/core/src/vl53l0x_api.c **** 		*pThresholdHigh =
2829:Drivers/VL53L0X/core/src/vl53l0x_api.c **** 			(FixPoint1616_t)((0x00fff & Threshold16) << 17);
 8029              		.loc 1 2829 30
 8030 004e BB8A     		ldrh	r3, [r7, #20]
 8031              		.loc 1 2829 45
 8032 0050 5B04     		lsls	r3, r3, #17
 8033              		.loc 1 2829 4
 8034 0052 1A46     		mov	r2, r3
 8035 0054 044B     		ldr	r3, .L476
 8036 0056 1340     		ands	r3, r3, r2
2828:Drivers/VL53L0X/core/src/vl53l0x_api.c **** 			(FixPoint1616_t)((0x00fff & Threshold16) << 17);
 8037              		.loc 1 2828 19
 8038 0058 3A68     		ldr	r2, [r7]
 8039 005a 1360     		str	r3, [r2]
 8040              	.L474:
ARM GAS  C:\Users\Morroway\AppData\Local\Temp\ccih4NWY.s 			page 192


2830:Drivers/VL53L0X/core/src/vl53l0x_api.c **** 	}
2831:Drivers/VL53L0X/core/src/vl53l0x_api.c **** 
2832:Drivers/VL53L0X/core/src/vl53l0x_api.c **** 	LOG_FUNCTION_END(Status);
2833:Drivers/VL53L0X/core/src/vl53l0x_api.c **** 	return Status;
 8041              		.loc 1 2833 9
 8042 005c 97F91730 		ldrsb	r3, [r7, #23]
2834:Drivers/VL53L0X/core/src/vl53l0x_api.c **** }
 8043              		.loc 1 2834 1
 8044 0060 1846     		mov	r0, r3
 8045 0062 1837     		adds	r7, r7, #24
 8046              		.cfi_def_cfa_offset 8
 8047 0064 BD46     		mov	sp, r7
 8048              		.cfi_def_cfa_register 13
 8049              		@ sp needed
 8050 0066 80BD     		pop	{r7, pc}
 8051              	.L477:
 8052              		.align	2
 8053              	.L476:
 8054 0068 0000FE1F 		.word	536739840
 8055              		.cfi_endproc
 8056              	.LFE411:
 8058              		.section	.text.VL53L0X_GetStopCompletedStatus,"ax",%progbits
 8059              		.align	1
 8060              		.global	VL53L0X_GetStopCompletedStatus
 8061              		.syntax unified
 8062              		.thumb
 8063              		.thumb_func
 8065              	VL53L0X_GetStopCompletedStatus:
 8066              	.LFB412:
2835:Drivers/VL53L0X/core/src/vl53l0x_api.c **** 
2836:Drivers/VL53L0X/core/src/vl53l0x_api.c **** VL53L0X_Error VL53L0X_GetStopCompletedStatus(VL53L0X_DEV Dev,
2837:Drivers/VL53L0X/core/src/vl53l0x_api.c **** 	uint32_t *pStopStatus)
2838:Drivers/VL53L0X/core/src/vl53l0x_api.c **** {
 8067              		.loc 1 2838 1
 8068              		.cfi_startproc
 8069              		@ args = 0, pretend = 0, frame = 16
 8070              		@ frame_needed = 1, uses_anonymous_args = 0
 8071 0000 80B5     		push	{r7, lr}
 8072              		.cfi_def_cfa_offset 8
 8073              		.cfi_offset 7, -8
 8074              		.cfi_offset 14, -4
 8075 0002 84B0     		sub	sp, sp, #16
 8076              		.cfi_def_cfa_offset 24
 8077 0004 00AF     		add	r7, sp, #0
 8078              		.cfi_def_cfa_register 7
 8079 0006 7860     		str	r0, [r7, #4]
 8080 0008 3960     		str	r1, [r7]
2839:Drivers/VL53L0X/core/src/vl53l0x_api.c **** 	VL53L0X_Error Status = VL53L0X_ERROR_NONE;
 8081              		.loc 1 2839 16
 8082 000a 0023     		movs	r3, #0
 8083 000c FB73     		strb	r3, [r7, #15]
2840:Drivers/VL53L0X/core/src/vl53l0x_api.c **** 	uint8_t Byte = 0;
 8084              		.loc 1 2840 10
 8085 000e 0023     		movs	r3, #0
 8086 0010 BB73     		strb	r3, [r7, #14]
2841:Drivers/VL53L0X/core/src/vl53l0x_api.c **** 	LOG_FUNCTION_START("");
2842:Drivers/VL53L0X/core/src/vl53l0x_api.c **** 
ARM GAS  C:\Users\Morroway\AppData\Local\Temp\ccih4NWY.s 			page 193


2843:Drivers/VL53L0X/core/src/vl53l0x_api.c **** 	Status = VL53L0X_WrByte(Dev, 0xFF, 0x01);
 8087              		.loc 1 2843 11
 8088 0012 0122     		movs	r2, #1
 8089 0014 FF21     		movs	r1, #255
 8090 0016 7868     		ldr	r0, [r7, #4]
 8091 0018 FFF7FEFF 		bl	VL53L0X_WrByte
 8092 001c 0346     		mov	r3, r0
 8093 001e FB73     		strb	r3, [r7, #15]
2844:Drivers/VL53L0X/core/src/vl53l0x_api.c **** 
2845:Drivers/VL53L0X/core/src/vl53l0x_api.c **** 	if (Status == VL53L0X_ERROR_NONE)
 8094              		.loc 1 2845 5
 8095 0020 97F90F30 		ldrsb	r3, [r7, #15]
 8096 0024 002B     		cmp	r3, #0
 8097 0026 08D1     		bne	.L479
2846:Drivers/VL53L0X/core/src/vl53l0x_api.c **** 		Status = VL53L0X_RdByte(Dev, 0x04, &Byte);
 8098              		.loc 1 2846 12
 8099 0028 07F10E03 		add	r3, r7, #14
 8100 002c 1A46     		mov	r2, r3
 8101 002e 0421     		movs	r1, #4
 8102 0030 7868     		ldr	r0, [r7, #4]
 8103 0032 FFF7FEFF 		bl	VL53L0X_RdByte
 8104 0036 0346     		mov	r3, r0
 8105 0038 FB73     		strb	r3, [r7, #15]
 8106              	.L479:
2847:Drivers/VL53L0X/core/src/vl53l0x_api.c **** 
2848:Drivers/VL53L0X/core/src/vl53l0x_api.c **** 	if (Status == VL53L0X_ERROR_NONE)
 8107              		.loc 1 2848 5
 8108 003a 97F90F30 		ldrsb	r3, [r7, #15]
 8109 003e 002B     		cmp	r3, #0
 8110 0040 06D1     		bne	.L480
2849:Drivers/VL53L0X/core/src/vl53l0x_api.c **** 		Status = VL53L0X_WrByte(Dev, 0xFF, 0x0);
 8111              		.loc 1 2849 12
 8112 0042 0022     		movs	r2, #0
 8113 0044 FF21     		movs	r1, #255
 8114 0046 7868     		ldr	r0, [r7, #4]
 8115 0048 FFF7FEFF 		bl	VL53L0X_WrByte
 8116 004c 0346     		mov	r3, r0
 8117 004e FB73     		strb	r3, [r7, #15]
 8118              	.L480:
2850:Drivers/VL53L0X/core/src/vl53l0x_api.c **** 
2851:Drivers/VL53L0X/core/src/vl53l0x_api.c **** 	*pStopStatus = Byte;
 8119              		.loc 1 2851 15
 8120 0050 BB7B     		ldrb	r3, [r7, #14]	@ zero_extendqisi2
 8121 0052 1A46     		mov	r2, r3
 8122 0054 3B68     		ldr	r3, [r7]
 8123 0056 1A60     		str	r2, [r3]
2852:Drivers/VL53L0X/core/src/vl53l0x_api.c **** 
2853:Drivers/VL53L0X/core/src/vl53l0x_api.c **** 	if (Byte == 0) {
 8124              		.loc 1 2853 11
 8125 0058 BB7B     		ldrb	r3, [r7, #14]	@ zero_extendqisi2
 8126              		.loc 1 2853 5
 8127 005a 002B     		cmp	r3, #0
 8128 005c 33D1     		bne	.L481
2854:Drivers/VL53L0X/core/src/vl53l0x_api.c **** 		Status = VL53L0X_WrByte(Dev, 0x80, 0x01);
 8129              		.loc 1 2854 12
 8130 005e 0122     		movs	r2, #1
 8131 0060 8021     		movs	r1, #128
ARM GAS  C:\Users\Morroway\AppData\Local\Temp\ccih4NWY.s 			page 194


 8132 0062 7868     		ldr	r0, [r7, #4]
 8133 0064 FFF7FEFF 		bl	VL53L0X_WrByte
 8134 0068 0346     		mov	r3, r0
 8135 006a FB73     		strb	r3, [r7, #15]
2855:Drivers/VL53L0X/core/src/vl53l0x_api.c **** 		Status = VL53L0X_WrByte(Dev, 0xFF, 0x01);
 8136              		.loc 1 2855 12
 8137 006c 0122     		movs	r2, #1
 8138 006e FF21     		movs	r1, #255
 8139 0070 7868     		ldr	r0, [r7, #4]
 8140 0072 FFF7FEFF 		bl	VL53L0X_WrByte
 8141 0076 0346     		mov	r3, r0
 8142 0078 FB73     		strb	r3, [r7, #15]
2856:Drivers/VL53L0X/core/src/vl53l0x_api.c **** 		Status = VL53L0X_WrByte(Dev, 0x00, 0x00);
 8143              		.loc 1 2856 12
 8144 007a 0022     		movs	r2, #0
 8145 007c 0021     		movs	r1, #0
 8146 007e 7868     		ldr	r0, [r7, #4]
 8147 0080 FFF7FEFF 		bl	VL53L0X_WrByte
 8148 0084 0346     		mov	r3, r0
 8149 0086 FB73     		strb	r3, [r7, #15]
2857:Drivers/VL53L0X/core/src/vl53l0x_api.c **** 		Status = VL53L0X_WrByte(Dev, 0x91,
 8150              		.loc 1 2857 12
 8151 0088 7B68     		ldr	r3, [r7, #4]
 8152 008a 93F83A31 		ldrb	r3, [r3, #314]	@ zero_extendqisi2
 8153 008e 1A46     		mov	r2, r3
 8154 0090 9121     		movs	r1, #145
 8155 0092 7868     		ldr	r0, [r7, #4]
 8156 0094 FFF7FEFF 		bl	VL53L0X_WrByte
 8157 0098 0346     		mov	r3, r0
 8158 009a FB73     		strb	r3, [r7, #15]
2858:Drivers/VL53L0X/core/src/vl53l0x_api.c **** 			PALDevDataGet(Dev, StopVariable));
2859:Drivers/VL53L0X/core/src/vl53l0x_api.c **** 		Status = VL53L0X_WrByte(Dev, 0x00, 0x01);
 8159              		.loc 1 2859 12
 8160 009c 0122     		movs	r2, #1
 8161 009e 0021     		movs	r1, #0
 8162 00a0 7868     		ldr	r0, [r7, #4]
 8163 00a2 FFF7FEFF 		bl	VL53L0X_WrByte
 8164 00a6 0346     		mov	r3, r0
 8165 00a8 FB73     		strb	r3, [r7, #15]
2860:Drivers/VL53L0X/core/src/vl53l0x_api.c **** 		Status = VL53L0X_WrByte(Dev, 0xFF, 0x00);
 8166              		.loc 1 2860 12
 8167 00aa 0022     		movs	r2, #0
 8168 00ac FF21     		movs	r1, #255
 8169 00ae 7868     		ldr	r0, [r7, #4]
 8170 00b0 FFF7FEFF 		bl	VL53L0X_WrByte
 8171 00b4 0346     		mov	r3, r0
 8172 00b6 FB73     		strb	r3, [r7, #15]
2861:Drivers/VL53L0X/core/src/vl53l0x_api.c **** 		Status = VL53L0X_WrByte(Dev, 0x80, 0x00);
 8173              		.loc 1 2861 12
 8174 00b8 0022     		movs	r2, #0
 8175 00ba 8021     		movs	r1, #128
 8176 00bc 7868     		ldr	r0, [r7, #4]
 8177 00be FFF7FEFF 		bl	VL53L0X_WrByte
 8178 00c2 0346     		mov	r3, r0
 8179 00c4 FB73     		strb	r3, [r7, #15]
 8180              	.L481:
2862:Drivers/VL53L0X/core/src/vl53l0x_api.c **** 	}
ARM GAS  C:\Users\Morroway\AppData\Local\Temp\ccih4NWY.s 			page 195


2863:Drivers/VL53L0X/core/src/vl53l0x_api.c **** 
2864:Drivers/VL53L0X/core/src/vl53l0x_api.c **** 	LOG_FUNCTION_END(Status);
2865:Drivers/VL53L0X/core/src/vl53l0x_api.c **** 	return Status;
 8181              		.loc 1 2865 9
 8182 00c6 97F90F30 		ldrsb	r3, [r7, #15]
2866:Drivers/VL53L0X/core/src/vl53l0x_api.c **** }
 8183              		.loc 1 2866 1
 8184 00ca 1846     		mov	r0, r3
 8185 00cc 1037     		adds	r7, r7, #16
 8186              		.cfi_def_cfa_offset 8
 8187 00ce BD46     		mov	sp, r7
 8188              		.cfi_def_cfa_register 13
 8189              		@ sp needed
 8190 00d0 80BD     		pop	{r7, pc}
 8191              		.cfi_endproc
 8192              	.LFE412:
 8194              		.section	.text.VL53L0X_ClearInterruptMask,"ax",%progbits
 8195              		.align	1
 8196              		.global	VL53L0X_ClearInterruptMask
 8197              		.syntax unified
 8198              		.thumb
 8199              		.thumb_func
 8201              	VL53L0X_ClearInterruptMask:
 8202              	.LFB413:
2867:Drivers/VL53L0X/core/src/vl53l0x_api.c **** 
2868:Drivers/VL53L0X/core/src/vl53l0x_api.c **** /* Group PAL Interrupt Functions */
2869:Drivers/VL53L0X/core/src/vl53l0x_api.c **** VL53L0X_Error VL53L0X_ClearInterruptMask(VL53L0X_DEV Dev, uint32_t InterruptMask)
2870:Drivers/VL53L0X/core/src/vl53l0x_api.c **** {
 8203              		.loc 1 2870 1
 8204              		.cfi_startproc
 8205              		@ args = 0, pretend = 0, frame = 16
 8206              		@ frame_needed = 1, uses_anonymous_args = 0
 8207 0000 80B5     		push	{r7, lr}
 8208              		.cfi_def_cfa_offset 8
 8209              		.cfi_offset 7, -8
 8210              		.cfi_offset 14, -4
 8211 0002 84B0     		sub	sp, sp, #16
 8212              		.cfi_def_cfa_offset 24
 8213 0004 00AF     		add	r7, sp, #0
 8214              		.cfi_def_cfa_register 7
 8215 0006 7860     		str	r0, [r7, #4]
 8216 0008 3960     		str	r1, [r7]
2871:Drivers/VL53L0X/core/src/vl53l0x_api.c **** 	VL53L0X_Error Status = VL53L0X_ERROR_NONE;
 8217              		.loc 1 2871 16
 8218 000a 0023     		movs	r3, #0
 8219 000c FB73     		strb	r3, [r7, #15]
2872:Drivers/VL53L0X/core/src/vl53l0x_api.c **** 	uint8_t LoopCount;
2873:Drivers/VL53L0X/core/src/vl53l0x_api.c **** 	uint8_t Byte;
2874:Drivers/VL53L0X/core/src/vl53l0x_api.c **** 	LOG_FUNCTION_START("");
2875:Drivers/VL53L0X/core/src/vl53l0x_api.c **** 
2876:Drivers/VL53L0X/core/src/vl53l0x_api.c **** 	/* clear bit 0 range interrupt, bit 1 error interrupt */
2877:Drivers/VL53L0X/core/src/vl53l0x_api.c **** 	LoopCount = 0;
 8220              		.loc 1 2877 12
 8221 000e 0023     		movs	r3, #0
 8222 0010 BB73     		strb	r3, [r7, #14]
 8223              	.L485:
2878:Drivers/VL53L0X/core/src/vl53l0x_api.c **** 	do {
ARM GAS  C:\Users\Morroway\AppData\Local\Temp\ccih4NWY.s 			page 196


2879:Drivers/VL53L0X/core/src/vl53l0x_api.c **** 		Status = VL53L0X_WrByte(Dev,
 8224              		.loc 1 2879 12 discriminator 1
 8225 0012 0122     		movs	r2, #1
 8226 0014 0B21     		movs	r1, #11
 8227 0016 7868     		ldr	r0, [r7, #4]
 8228 0018 FFF7FEFF 		bl	VL53L0X_WrByte
 8229 001c 0346     		mov	r3, r0
 8230 001e FB73     		strb	r3, [r7, #15]
2880:Drivers/VL53L0X/core/src/vl53l0x_api.c **** 			VL53L0X_REG_SYSTEM_INTERRUPT_CLEAR, 0x01);
2881:Drivers/VL53L0X/core/src/vl53l0x_api.c **** 		Status |= VL53L0X_WrByte(Dev,
 8231              		.loc 1 2881 13 discriminator 1
 8232 0020 0022     		movs	r2, #0
 8233 0022 0B21     		movs	r1, #11
 8234 0024 7868     		ldr	r0, [r7, #4]
 8235 0026 FFF7FEFF 		bl	VL53L0X_WrByte
 8236 002a 0346     		mov	r3, r0
 8237 002c 1A46     		mov	r2, r3
 8238              		.loc 1 2881 10 discriminator 1
 8239 002e FB7B     		ldrb	r3, [r7, #15]
 8240 0030 1343     		orrs	r3, r3, r2
 8241 0032 FB73     		strb	r3, [r7, #15]
2882:Drivers/VL53L0X/core/src/vl53l0x_api.c **** 			VL53L0X_REG_SYSTEM_INTERRUPT_CLEAR, 0x00);
2883:Drivers/VL53L0X/core/src/vl53l0x_api.c **** 		Status |= VL53L0X_RdByte(Dev,
 8242              		.loc 1 2883 13 discriminator 1
 8243 0034 07F10D03 		add	r3, r7, #13
 8244 0038 1A46     		mov	r2, r3
 8245 003a 1321     		movs	r1, #19
 8246 003c 7868     		ldr	r0, [r7, #4]
 8247 003e FFF7FEFF 		bl	VL53L0X_RdByte
 8248 0042 0346     		mov	r3, r0
 8249 0044 1A46     		mov	r2, r3
 8250              		.loc 1 2883 10 discriminator 1
 8251 0046 FB7B     		ldrb	r3, [r7, #15]
 8252 0048 1343     		orrs	r3, r3, r2
 8253 004a FB73     		strb	r3, [r7, #15]
2884:Drivers/VL53L0X/core/src/vl53l0x_api.c **** 			VL53L0X_REG_RESULT_INTERRUPT_STATUS, &Byte);
2885:Drivers/VL53L0X/core/src/vl53l0x_api.c **** 		LoopCount++;
 8254              		.loc 1 2885 12 discriminator 1
 8255 004c BB7B     		ldrb	r3, [r7, #14]	@ zero_extendqisi2
 8256 004e 0133     		adds	r3, r3, #1
 8257 0050 BB73     		strb	r3, [r7, #14]
2886:Drivers/VL53L0X/core/src/vl53l0x_api.c **** 	} while (((Byte & 0x07) != 0x00)
 8258              		.loc 1 2886 18 discriminator 1
 8259 0052 7B7B     		ldrb	r3, [r7, #13]	@ zero_extendqisi2
 8260 0054 03F00703 		and	r3, r3, #7
2887:Drivers/VL53L0X/core/src/vl53l0x_api.c **** 			&& (LoopCount < 3)
2888:Drivers/VL53L0X/core/src/vl53l0x_api.c **** 			&& (Status == VL53L0X_ERROR_NONE));
 8261              		.loc 1 2888 4 discriminator 1
 8262 0058 002B     		cmp	r3, #0
 8263 005a 06D0     		beq	.L484
2887:Drivers/VL53L0X/core/src/vl53l0x_api.c **** 			&& (LoopCount < 3)
 8264              		.loc 1 2887 4
 8265 005c BB7B     		ldrb	r3, [r7, #14]	@ zero_extendqisi2
 8266 005e 022B     		cmp	r3, #2
 8267 0060 03D8     		bhi	.L484
 8268              		.loc 1 2888 4
 8269 0062 97F90F30 		ldrsb	r3, [r7, #15]
ARM GAS  C:\Users\Morroway\AppData\Local\Temp\ccih4NWY.s 			page 197


 8270 0066 002B     		cmp	r3, #0
 8271 0068 D3D0     		beq	.L485
 8272              	.L484:
2889:Drivers/VL53L0X/core/src/vl53l0x_api.c **** 
2890:Drivers/VL53L0X/core/src/vl53l0x_api.c **** 
2891:Drivers/VL53L0X/core/src/vl53l0x_api.c **** 	if (LoopCount >= 3)
 8273              		.loc 1 2891 5
 8274 006a BB7B     		ldrb	r3, [r7, #14]	@ zero_extendqisi2
 8275 006c 022B     		cmp	r3, #2
 8276 006e 01D9     		bls	.L486
2892:Drivers/VL53L0X/core/src/vl53l0x_api.c **** 		Status = VL53L0X_ERROR_INTERRUPT_NOT_CLEARED;
 8277              		.loc 1 2892 10
 8278 0070 F423     		movs	r3, #244
 8279 0072 FB73     		strb	r3, [r7, #15]
 8280              	.L486:
2893:Drivers/VL53L0X/core/src/vl53l0x_api.c **** 
2894:Drivers/VL53L0X/core/src/vl53l0x_api.c **** 	LOG_FUNCTION_END(Status);
2895:Drivers/VL53L0X/core/src/vl53l0x_api.c **** 	return Status;
 8281              		.loc 1 2895 9
 8282 0074 97F90F30 		ldrsb	r3, [r7, #15]
2896:Drivers/VL53L0X/core/src/vl53l0x_api.c **** }
 8283              		.loc 1 2896 1
 8284 0078 1846     		mov	r0, r3
 8285 007a 1037     		adds	r7, r7, #16
 8286              		.cfi_def_cfa_offset 8
 8287 007c BD46     		mov	sp, r7
 8288              		.cfi_def_cfa_register 13
 8289              		@ sp needed
 8290 007e 80BD     		pop	{r7, pc}
 8291              		.cfi_endproc
 8292              	.LFE413:
 8294              		.section	.text.VL53L0X_GetInterruptMaskStatus,"ax",%progbits
 8295              		.align	1
 8296              		.global	VL53L0X_GetInterruptMaskStatus
 8297              		.syntax unified
 8298              		.thumb
 8299              		.thumb_func
 8301              	VL53L0X_GetInterruptMaskStatus:
 8302              	.LFB414:
2897:Drivers/VL53L0X/core/src/vl53l0x_api.c **** 
2898:Drivers/VL53L0X/core/src/vl53l0x_api.c **** VL53L0X_Error VL53L0X_GetInterruptMaskStatus(VL53L0X_DEV Dev,
2899:Drivers/VL53L0X/core/src/vl53l0x_api.c **** 	uint32_t *pInterruptMaskStatus)
2900:Drivers/VL53L0X/core/src/vl53l0x_api.c **** {
 8303              		.loc 1 2900 1
 8304              		.cfi_startproc
 8305              		@ args = 0, pretend = 0, frame = 16
 8306              		@ frame_needed = 1, uses_anonymous_args = 0
 8307 0000 80B5     		push	{r7, lr}
 8308              		.cfi_def_cfa_offset 8
 8309              		.cfi_offset 7, -8
 8310              		.cfi_offset 14, -4
 8311 0002 84B0     		sub	sp, sp, #16
 8312              		.cfi_def_cfa_offset 24
 8313 0004 00AF     		add	r7, sp, #0
 8314              		.cfi_def_cfa_register 7
 8315 0006 7860     		str	r0, [r7, #4]
 8316 0008 3960     		str	r1, [r7]
ARM GAS  C:\Users\Morroway\AppData\Local\Temp\ccih4NWY.s 			page 198


2901:Drivers/VL53L0X/core/src/vl53l0x_api.c **** 	VL53L0X_Error Status = VL53L0X_ERROR_NONE;
 8317              		.loc 1 2901 16
 8318 000a 0023     		movs	r3, #0
 8319 000c FB73     		strb	r3, [r7, #15]
2902:Drivers/VL53L0X/core/src/vl53l0x_api.c **** 	uint8_t Byte;
2903:Drivers/VL53L0X/core/src/vl53l0x_api.c **** 	LOG_FUNCTION_START("");
2904:Drivers/VL53L0X/core/src/vl53l0x_api.c **** 
2905:Drivers/VL53L0X/core/src/vl53l0x_api.c **** 	Status = VL53L0X_RdByte(Dev, VL53L0X_REG_RESULT_INTERRUPT_STATUS, &Byte);
 8320              		.loc 1 2905 11
 8321 000e 07F10E03 		add	r3, r7, #14
 8322 0012 1A46     		mov	r2, r3
 8323 0014 1321     		movs	r1, #19
 8324 0016 7868     		ldr	r0, [r7, #4]
 8325 0018 FFF7FEFF 		bl	VL53L0X_RdByte
 8326 001c 0346     		mov	r3, r0
 8327 001e FB73     		strb	r3, [r7, #15]
2906:Drivers/VL53L0X/core/src/vl53l0x_api.c **** 	*pInterruptMaskStatus = Byte & 0x07;
 8328              		.loc 1 2906 31
 8329 0020 BB7B     		ldrb	r3, [r7, #14]	@ zero_extendqisi2
 8330 0022 03F00702 		and	r2, r3, #7
 8331              		.loc 1 2906 24
 8332 0026 3B68     		ldr	r3, [r7]
 8333 0028 1A60     		str	r2, [r3]
2907:Drivers/VL53L0X/core/src/vl53l0x_api.c **** 
2908:Drivers/VL53L0X/core/src/vl53l0x_api.c **** 	if (Byte & 0x18)
 8334              		.loc 1 2908 11
 8335 002a BB7B     		ldrb	r3, [r7, #14]	@ zero_extendqisi2
 8336 002c 03F01803 		and	r3, r3, #24
 8337              		.loc 1 2908 5
 8338 0030 002B     		cmp	r3, #0
 8339 0032 01D0     		beq	.L489
2909:Drivers/VL53L0X/core/src/vl53l0x_api.c **** 		Status = VL53L0X_ERROR_RANGE_ERROR;
 8340              		.loc 1 2909 10
 8341 0034 FA23     		movs	r3, #250
 8342 0036 FB73     		strb	r3, [r7, #15]
 8343              	.L489:
2910:Drivers/VL53L0X/core/src/vl53l0x_api.c **** 
2911:Drivers/VL53L0X/core/src/vl53l0x_api.c **** 	LOG_FUNCTION_END(Status);
2912:Drivers/VL53L0X/core/src/vl53l0x_api.c **** 	return Status;
 8344              		.loc 1 2912 9
 8345 0038 97F90F30 		ldrsb	r3, [r7, #15]
2913:Drivers/VL53L0X/core/src/vl53l0x_api.c **** }
 8346              		.loc 1 2913 1
 8347 003c 1846     		mov	r0, r3
 8348 003e 1037     		adds	r7, r7, #16
 8349              		.cfi_def_cfa_offset 8
 8350 0040 BD46     		mov	sp, r7
 8351              		.cfi_def_cfa_register 13
 8352              		@ sp needed
 8353 0042 80BD     		pop	{r7, pc}
 8354              		.cfi_endproc
 8355              	.LFE414:
 8357              		.section	.text.VL53L0X_EnableInterruptMask,"ax",%progbits
 8358              		.align	1
 8359              		.global	VL53L0X_EnableInterruptMask
 8360              		.syntax unified
 8361              		.thumb
ARM GAS  C:\Users\Morroway\AppData\Local\Temp\ccih4NWY.s 			page 199


 8362              		.thumb_func
 8364              	VL53L0X_EnableInterruptMask:
 8365              	.LFB415:
2914:Drivers/VL53L0X/core/src/vl53l0x_api.c **** 
2915:Drivers/VL53L0X/core/src/vl53l0x_api.c **** VL53L0X_Error VL53L0X_EnableInterruptMask(VL53L0X_DEV Dev, uint32_t InterruptMask)
2916:Drivers/VL53L0X/core/src/vl53l0x_api.c **** {
 8366              		.loc 1 2916 1
 8367              		.cfi_startproc
 8368              		@ args = 0, pretend = 0, frame = 16
 8369              		@ frame_needed = 1, uses_anonymous_args = 0
 8370              		@ link register save eliminated.
 8371 0000 80B4     		push	{r7}
 8372              		.cfi_def_cfa_offset 4
 8373              		.cfi_offset 7, -4
 8374 0002 85B0     		sub	sp, sp, #20
 8375              		.cfi_def_cfa_offset 24
 8376 0004 00AF     		add	r7, sp, #0
 8377              		.cfi_def_cfa_register 7
 8378 0006 7860     		str	r0, [r7, #4]
 8379 0008 3960     		str	r1, [r7]
2917:Drivers/VL53L0X/core/src/vl53l0x_api.c **** 	VL53L0X_Error Status = VL53L0X_ERROR_NOT_IMPLEMENTED;
 8380              		.loc 1 2917 16
 8381 000a 9D23     		movs	r3, #157
 8382 000c FB73     		strb	r3, [r7, #15]
2918:Drivers/VL53L0X/core/src/vl53l0x_api.c **** 	LOG_FUNCTION_START("");
2919:Drivers/VL53L0X/core/src/vl53l0x_api.c **** 
2920:Drivers/VL53L0X/core/src/vl53l0x_api.c **** 	/* not implemented for VL53L0X */
2921:Drivers/VL53L0X/core/src/vl53l0x_api.c **** 
2922:Drivers/VL53L0X/core/src/vl53l0x_api.c **** 	LOG_FUNCTION_END(Status);
2923:Drivers/VL53L0X/core/src/vl53l0x_api.c **** 	return Status;
 8383              		.loc 1 2923 9
 8384 000e 97F90F30 		ldrsb	r3, [r7, #15]
2924:Drivers/VL53L0X/core/src/vl53l0x_api.c **** }
 8385              		.loc 1 2924 1
 8386 0012 1846     		mov	r0, r3
 8387 0014 1437     		adds	r7, r7, #20
 8388              		.cfi_def_cfa_offset 4
 8389 0016 BD46     		mov	sp, r7
 8390              		.cfi_def_cfa_register 13
 8391              		@ sp needed
 8392 0018 5DF8047B 		ldr	r7, [sp], #4
 8393              		.cfi_restore 7
 8394              		.cfi_def_cfa_offset 0
 8395 001c 7047     		bx	lr
 8396              		.cfi_endproc
 8397              	.LFE415:
 8399              		.section	.text.VL53L0X_SetSpadAmbientDamperThreshold,"ax",%progbits
 8400              		.align	1
 8401              		.global	VL53L0X_SetSpadAmbientDamperThreshold
 8402              		.syntax unified
 8403              		.thumb
 8404              		.thumb_func
 8406              	VL53L0X_SetSpadAmbientDamperThreshold:
 8407              	.LFB416:
2925:Drivers/VL53L0X/core/src/vl53l0x_api.c **** 
2926:Drivers/VL53L0X/core/src/vl53l0x_api.c **** /* End Group PAL Interrupt Functions */
2927:Drivers/VL53L0X/core/src/vl53l0x_api.c **** 
ARM GAS  C:\Users\Morroway\AppData\Local\Temp\ccih4NWY.s 			page 200


2928:Drivers/VL53L0X/core/src/vl53l0x_api.c **** /* Group SPAD functions */
2929:Drivers/VL53L0X/core/src/vl53l0x_api.c **** 
2930:Drivers/VL53L0X/core/src/vl53l0x_api.c **** VL53L0X_Error VL53L0X_SetSpadAmbientDamperThreshold(VL53L0X_DEV Dev,
2931:Drivers/VL53L0X/core/src/vl53l0x_api.c **** 	uint16_t SpadAmbientDamperThreshold)
2932:Drivers/VL53L0X/core/src/vl53l0x_api.c **** {
 8408              		.loc 1 2932 1
 8409              		.cfi_startproc
 8410              		@ args = 0, pretend = 0, frame = 16
 8411              		@ frame_needed = 1, uses_anonymous_args = 0
 8412 0000 80B5     		push	{r7, lr}
 8413              		.cfi_def_cfa_offset 8
 8414              		.cfi_offset 7, -8
 8415              		.cfi_offset 14, -4
 8416 0002 84B0     		sub	sp, sp, #16
 8417              		.cfi_def_cfa_offset 24
 8418 0004 00AF     		add	r7, sp, #0
 8419              		.cfi_def_cfa_register 7
 8420 0006 7860     		str	r0, [r7, #4]
 8421 0008 0B46     		mov	r3, r1
 8422 000a 7B80     		strh	r3, [r7, #2]	@ movhi
2933:Drivers/VL53L0X/core/src/vl53l0x_api.c **** 	VL53L0X_Error Status = VL53L0X_ERROR_NONE;
 8423              		.loc 1 2933 16
 8424 000c 0023     		movs	r3, #0
 8425 000e FB73     		strb	r3, [r7, #15]
2934:Drivers/VL53L0X/core/src/vl53l0x_api.c **** 	LOG_FUNCTION_START("");
2935:Drivers/VL53L0X/core/src/vl53l0x_api.c **** 
2936:Drivers/VL53L0X/core/src/vl53l0x_api.c **** 	Status = VL53L0X_WrByte(Dev, 0xFF, 0x01);
 8426              		.loc 1 2936 11
 8427 0010 0122     		movs	r2, #1
 8428 0012 FF21     		movs	r1, #255
 8429 0014 7868     		ldr	r0, [r7, #4]
 8430 0016 FFF7FEFF 		bl	VL53L0X_WrByte
 8431 001a 0346     		mov	r3, r0
 8432 001c FB73     		strb	r3, [r7, #15]
2937:Drivers/VL53L0X/core/src/vl53l0x_api.c **** 	Status |= VL53L0X_WrWord(Dev, 0x40, SpadAmbientDamperThreshold);
 8433              		.loc 1 2937 12
 8434 001e 7B88     		ldrh	r3, [r7, #2]
 8435 0020 1A46     		mov	r2, r3
 8436 0022 4021     		movs	r1, #64
 8437 0024 7868     		ldr	r0, [r7, #4]
 8438 0026 FFF7FEFF 		bl	VL53L0X_WrWord
 8439 002a 0346     		mov	r3, r0
 8440 002c 1A46     		mov	r2, r3
 8441              		.loc 1 2937 9
 8442 002e FB7B     		ldrb	r3, [r7, #15]
 8443 0030 1343     		orrs	r3, r3, r2
 8444 0032 FB73     		strb	r3, [r7, #15]
2938:Drivers/VL53L0X/core/src/vl53l0x_api.c **** 	Status |= VL53L0X_WrByte(Dev, 0xFF, 0x00);
 8445              		.loc 1 2938 12
 8446 0034 0022     		movs	r2, #0
 8447 0036 FF21     		movs	r1, #255
 8448 0038 7868     		ldr	r0, [r7, #4]
 8449 003a FFF7FEFF 		bl	VL53L0X_WrByte
 8450 003e 0346     		mov	r3, r0
 8451 0040 1A46     		mov	r2, r3
 8452              		.loc 1 2938 9
 8453 0042 FB7B     		ldrb	r3, [r7, #15]
ARM GAS  C:\Users\Morroway\AppData\Local\Temp\ccih4NWY.s 			page 201


 8454 0044 1343     		orrs	r3, r3, r2
 8455 0046 FB73     		strb	r3, [r7, #15]
2939:Drivers/VL53L0X/core/src/vl53l0x_api.c **** 
2940:Drivers/VL53L0X/core/src/vl53l0x_api.c **** 	LOG_FUNCTION_END(Status);
2941:Drivers/VL53L0X/core/src/vl53l0x_api.c **** 	return Status;
 8456              		.loc 1 2941 9
 8457 0048 97F90F30 		ldrsb	r3, [r7, #15]
2942:Drivers/VL53L0X/core/src/vl53l0x_api.c **** }
 8458              		.loc 1 2942 1
 8459 004c 1846     		mov	r0, r3
 8460 004e 1037     		adds	r7, r7, #16
 8461              		.cfi_def_cfa_offset 8
 8462 0050 BD46     		mov	sp, r7
 8463              		.cfi_def_cfa_register 13
 8464              		@ sp needed
 8465 0052 80BD     		pop	{r7, pc}
 8466              		.cfi_endproc
 8467              	.LFE416:
 8469              		.section	.text.VL53L0X_GetSpadAmbientDamperThreshold,"ax",%progbits
 8470              		.align	1
 8471              		.global	VL53L0X_GetSpadAmbientDamperThreshold
 8472              		.syntax unified
 8473              		.thumb
 8474              		.thumb_func
 8476              	VL53L0X_GetSpadAmbientDamperThreshold:
 8477              	.LFB417:
2943:Drivers/VL53L0X/core/src/vl53l0x_api.c **** 
2944:Drivers/VL53L0X/core/src/vl53l0x_api.c **** VL53L0X_Error VL53L0X_GetSpadAmbientDamperThreshold(VL53L0X_DEV Dev,
2945:Drivers/VL53L0X/core/src/vl53l0x_api.c **** 	uint16_t *pSpadAmbientDamperThreshold)
2946:Drivers/VL53L0X/core/src/vl53l0x_api.c **** {
 8478              		.loc 1 2946 1
 8479              		.cfi_startproc
 8480              		@ args = 0, pretend = 0, frame = 16
 8481              		@ frame_needed = 1, uses_anonymous_args = 0
 8482 0000 80B5     		push	{r7, lr}
 8483              		.cfi_def_cfa_offset 8
 8484              		.cfi_offset 7, -8
 8485              		.cfi_offset 14, -4
 8486 0002 84B0     		sub	sp, sp, #16
 8487              		.cfi_def_cfa_offset 24
 8488 0004 00AF     		add	r7, sp, #0
 8489              		.cfi_def_cfa_register 7
 8490 0006 7860     		str	r0, [r7, #4]
 8491 0008 3960     		str	r1, [r7]
2947:Drivers/VL53L0X/core/src/vl53l0x_api.c **** 	VL53L0X_Error Status = VL53L0X_ERROR_NONE;
 8492              		.loc 1 2947 16
 8493 000a 0023     		movs	r3, #0
 8494 000c FB73     		strb	r3, [r7, #15]
2948:Drivers/VL53L0X/core/src/vl53l0x_api.c **** 	LOG_FUNCTION_START("");
2949:Drivers/VL53L0X/core/src/vl53l0x_api.c **** 
2950:Drivers/VL53L0X/core/src/vl53l0x_api.c **** 	Status = VL53L0X_WrByte(Dev, 0xFF, 0x01);
 8495              		.loc 1 2950 11
 8496 000e 0122     		movs	r2, #1
 8497 0010 FF21     		movs	r1, #255
 8498 0012 7868     		ldr	r0, [r7, #4]
 8499 0014 FFF7FEFF 		bl	VL53L0X_WrByte
 8500 0018 0346     		mov	r3, r0
ARM GAS  C:\Users\Morroway\AppData\Local\Temp\ccih4NWY.s 			page 202


 8501 001a FB73     		strb	r3, [r7, #15]
2951:Drivers/VL53L0X/core/src/vl53l0x_api.c **** 	Status |= VL53L0X_RdWord(Dev, 0x40, pSpadAmbientDamperThreshold);
 8502              		.loc 1 2951 12
 8503 001c 3A68     		ldr	r2, [r7]
 8504 001e 4021     		movs	r1, #64
 8505 0020 7868     		ldr	r0, [r7, #4]
 8506 0022 FFF7FEFF 		bl	VL53L0X_RdWord
 8507 0026 0346     		mov	r3, r0
 8508 0028 1A46     		mov	r2, r3
 8509              		.loc 1 2951 9
 8510 002a FB7B     		ldrb	r3, [r7, #15]
 8511 002c 1343     		orrs	r3, r3, r2
 8512 002e FB73     		strb	r3, [r7, #15]
2952:Drivers/VL53L0X/core/src/vl53l0x_api.c **** 	Status |= VL53L0X_WrByte(Dev, 0xFF, 0x00);
 8513              		.loc 1 2952 12
 8514 0030 0022     		movs	r2, #0
 8515 0032 FF21     		movs	r1, #255
 8516 0034 7868     		ldr	r0, [r7, #4]
 8517 0036 FFF7FEFF 		bl	VL53L0X_WrByte
 8518 003a 0346     		mov	r3, r0
 8519 003c 1A46     		mov	r2, r3
 8520              		.loc 1 2952 9
 8521 003e FB7B     		ldrb	r3, [r7, #15]
 8522 0040 1343     		orrs	r3, r3, r2
 8523 0042 FB73     		strb	r3, [r7, #15]
2953:Drivers/VL53L0X/core/src/vl53l0x_api.c **** 
2954:Drivers/VL53L0X/core/src/vl53l0x_api.c **** 	LOG_FUNCTION_END(Status);
2955:Drivers/VL53L0X/core/src/vl53l0x_api.c **** 	return Status;
 8524              		.loc 1 2955 9
 8525 0044 97F90F30 		ldrsb	r3, [r7, #15]
2956:Drivers/VL53L0X/core/src/vl53l0x_api.c **** }
 8526              		.loc 1 2956 1
 8527 0048 1846     		mov	r0, r3
 8528 004a 1037     		adds	r7, r7, #16
 8529              		.cfi_def_cfa_offset 8
 8530 004c BD46     		mov	sp, r7
 8531              		.cfi_def_cfa_register 13
 8532              		@ sp needed
 8533 004e 80BD     		pop	{r7, pc}
 8534              		.cfi_endproc
 8535              	.LFE417:
 8537              		.section	.text.VL53L0X_SetSpadAmbientDamperFactor,"ax",%progbits
 8538              		.align	1
 8539              		.global	VL53L0X_SetSpadAmbientDamperFactor
 8540              		.syntax unified
 8541              		.thumb
 8542              		.thumb_func
 8544              	VL53L0X_SetSpadAmbientDamperFactor:
 8545              	.LFB418:
2957:Drivers/VL53L0X/core/src/vl53l0x_api.c **** 
2958:Drivers/VL53L0X/core/src/vl53l0x_api.c **** VL53L0X_Error VL53L0X_SetSpadAmbientDamperFactor(VL53L0X_DEV Dev,
2959:Drivers/VL53L0X/core/src/vl53l0x_api.c **** 	uint16_t SpadAmbientDamperFactor)
2960:Drivers/VL53L0X/core/src/vl53l0x_api.c **** {
 8546              		.loc 1 2960 1
 8547              		.cfi_startproc
 8548              		@ args = 0, pretend = 0, frame = 16
 8549              		@ frame_needed = 1, uses_anonymous_args = 0
ARM GAS  C:\Users\Morroway\AppData\Local\Temp\ccih4NWY.s 			page 203


 8550 0000 80B5     		push	{r7, lr}
 8551              		.cfi_def_cfa_offset 8
 8552              		.cfi_offset 7, -8
 8553              		.cfi_offset 14, -4
 8554 0002 84B0     		sub	sp, sp, #16
 8555              		.cfi_def_cfa_offset 24
 8556 0004 00AF     		add	r7, sp, #0
 8557              		.cfi_def_cfa_register 7
 8558 0006 7860     		str	r0, [r7, #4]
 8559 0008 0B46     		mov	r3, r1
 8560 000a 7B80     		strh	r3, [r7, #2]	@ movhi
2961:Drivers/VL53L0X/core/src/vl53l0x_api.c **** 	VL53L0X_Error Status = VL53L0X_ERROR_NONE;
 8561              		.loc 1 2961 16
 8562 000c 0023     		movs	r3, #0
 8563 000e FB73     		strb	r3, [r7, #15]
2962:Drivers/VL53L0X/core/src/vl53l0x_api.c **** 	uint8_t Byte;
2963:Drivers/VL53L0X/core/src/vl53l0x_api.c **** 	LOG_FUNCTION_START("");
2964:Drivers/VL53L0X/core/src/vl53l0x_api.c **** 
2965:Drivers/VL53L0X/core/src/vl53l0x_api.c **** 	Byte = (uint8_t)(SpadAmbientDamperFactor & 0x00FF);
 8564              		.loc 1 2965 7
 8565 0010 7B88     		ldrh	r3, [r7, #2]	@ movhi
 8566 0012 BB73     		strb	r3, [r7, #14]
2966:Drivers/VL53L0X/core/src/vl53l0x_api.c **** 
2967:Drivers/VL53L0X/core/src/vl53l0x_api.c **** 	Status = VL53L0X_WrByte(Dev, 0xFF, 0x01);
 8567              		.loc 1 2967 11
 8568 0014 0122     		movs	r2, #1
 8569 0016 FF21     		movs	r1, #255
 8570 0018 7868     		ldr	r0, [r7, #4]
 8571 001a FFF7FEFF 		bl	VL53L0X_WrByte
 8572 001e 0346     		mov	r3, r0
 8573 0020 FB73     		strb	r3, [r7, #15]
2968:Drivers/VL53L0X/core/src/vl53l0x_api.c **** 	Status |= VL53L0X_WrByte(Dev, 0x42, Byte);
 8574              		.loc 1 2968 12
 8575 0022 BB7B     		ldrb	r3, [r7, #14]	@ zero_extendqisi2
 8576 0024 1A46     		mov	r2, r3
 8577 0026 4221     		movs	r1, #66
 8578 0028 7868     		ldr	r0, [r7, #4]
 8579 002a FFF7FEFF 		bl	VL53L0X_WrByte
 8580 002e 0346     		mov	r3, r0
 8581 0030 1A46     		mov	r2, r3
 8582              		.loc 1 2968 9
 8583 0032 FB7B     		ldrb	r3, [r7, #15]
 8584 0034 1343     		orrs	r3, r3, r2
 8585 0036 FB73     		strb	r3, [r7, #15]
2969:Drivers/VL53L0X/core/src/vl53l0x_api.c **** 	Status |= VL53L0X_WrByte(Dev, 0xFF, 0x00);
 8586              		.loc 1 2969 12
 8587 0038 0022     		movs	r2, #0
 8588 003a FF21     		movs	r1, #255
 8589 003c 7868     		ldr	r0, [r7, #4]
 8590 003e FFF7FEFF 		bl	VL53L0X_WrByte
 8591 0042 0346     		mov	r3, r0
 8592 0044 1A46     		mov	r2, r3
 8593              		.loc 1 2969 9
 8594 0046 FB7B     		ldrb	r3, [r7, #15]
 8595 0048 1343     		orrs	r3, r3, r2
 8596 004a FB73     		strb	r3, [r7, #15]
2970:Drivers/VL53L0X/core/src/vl53l0x_api.c **** 
ARM GAS  C:\Users\Morroway\AppData\Local\Temp\ccih4NWY.s 			page 204


2971:Drivers/VL53L0X/core/src/vl53l0x_api.c **** 	LOG_FUNCTION_END(Status);
2972:Drivers/VL53L0X/core/src/vl53l0x_api.c **** 	return Status;
 8597              		.loc 1 2972 9
 8598 004c 97F90F30 		ldrsb	r3, [r7, #15]
2973:Drivers/VL53L0X/core/src/vl53l0x_api.c **** }
 8599              		.loc 1 2973 1
 8600 0050 1846     		mov	r0, r3
 8601 0052 1037     		adds	r7, r7, #16
 8602              		.cfi_def_cfa_offset 8
 8603 0054 BD46     		mov	sp, r7
 8604              		.cfi_def_cfa_register 13
 8605              		@ sp needed
 8606 0056 80BD     		pop	{r7, pc}
 8607              		.cfi_endproc
 8608              	.LFE418:
 8610              		.section	.text.VL53L0X_GetSpadAmbientDamperFactor,"ax",%progbits
 8611              		.align	1
 8612              		.global	VL53L0X_GetSpadAmbientDamperFactor
 8613              		.syntax unified
 8614              		.thumb
 8615              		.thumb_func
 8617              	VL53L0X_GetSpadAmbientDamperFactor:
 8618              	.LFB419:
2974:Drivers/VL53L0X/core/src/vl53l0x_api.c **** 
2975:Drivers/VL53L0X/core/src/vl53l0x_api.c **** VL53L0X_Error VL53L0X_GetSpadAmbientDamperFactor(VL53L0X_DEV Dev,
2976:Drivers/VL53L0X/core/src/vl53l0x_api.c **** 	uint16_t *pSpadAmbientDamperFactor)
2977:Drivers/VL53L0X/core/src/vl53l0x_api.c **** {
 8619              		.loc 1 2977 1
 8620              		.cfi_startproc
 8621              		@ args = 0, pretend = 0, frame = 16
 8622              		@ frame_needed = 1, uses_anonymous_args = 0
 8623 0000 80B5     		push	{r7, lr}
 8624              		.cfi_def_cfa_offset 8
 8625              		.cfi_offset 7, -8
 8626              		.cfi_offset 14, -4
 8627 0002 84B0     		sub	sp, sp, #16
 8628              		.cfi_def_cfa_offset 24
 8629 0004 00AF     		add	r7, sp, #0
 8630              		.cfi_def_cfa_register 7
 8631 0006 7860     		str	r0, [r7, #4]
 8632 0008 3960     		str	r1, [r7]
2978:Drivers/VL53L0X/core/src/vl53l0x_api.c **** 	VL53L0X_Error Status = VL53L0X_ERROR_NONE;
 8633              		.loc 1 2978 16
 8634 000a 0023     		movs	r3, #0
 8635 000c FB73     		strb	r3, [r7, #15]
2979:Drivers/VL53L0X/core/src/vl53l0x_api.c **** 	uint8_t Byte;
2980:Drivers/VL53L0X/core/src/vl53l0x_api.c **** 	LOG_FUNCTION_START("");
2981:Drivers/VL53L0X/core/src/vl53l0x_api.c **** 
2982:Drivers/VL53L0X/core/src/vl53l0x_api.c **** 	Status = VL53L0X_WrByte(Dev, 0xFF, 0x01);
 8636              		.loc 1 2982 11
 8637 000e 0122     		movs	r2, #1
 8638 0010 FF21     		movs	r1, #255
 8639 0012 7868     		ldr	r0, [r7, #4]
 8640 0014 FFF7FEFF 		bl	VL53L0X_WrByte
 8641 0018 0346     		mov	r3, r0
 8642 001a FB73     		strb	r3, [r7, #15]
2983:Drivers/VL53L0X/core/src/vl53l0x_api.c **** 	Status |= VL53L0X_RdByte(Dev, 0x42, &Byte);
ARM GAS  C:\Users\Morroway\AppData\Local\Temp\ccih4NWY.s 			page 205


 8643              		.loc 1 2983 12
 8644 001c 07F10E03 		add	r3, r7, #14
 8645 0020 1A46     		mov	r2, r3
 8646 0022 4221     		movs	r1, #66
 8647 0024 7868     		ldr	r0, [r7, #4]
 8648 0026 FFF7FEFF 		bl	VL53L0X_RdByte
 8649 002a 0346     		mov	r3, r0
 8650 002c 1A46     		mov	r2, r3
 8651              		.loc 1 2983 9
 8652 002e FB7B     		ldrb	r3, [r7, #15]
 8653 0030 1343     		orrs	r3, r3, r2
 8654 0032 FB73     		strb	r3, [r7, #15]
2984:Drivers/VL53L0X/core/src/vl53l0x_api.c **** 	Status |= VL53L0X_WrByte(Dev, 0xFF, 0x00);
 8655              		.loc 1 2984 12
 8656 0034 0022     		movs	r2, #0
 8657 0036 FF21     		movs	r1, #255
 8658 0038 7868     		ldr	r0, [r7, #4]
 8659 003a FFF7FEFF 		bl	VL53L0X_WrByte
 8660 003e 0346     		mov	r3, r0
 8661 0040 1A46     		mov	r2, r3
 8662              		.loc 1 2984 9
 8663 0042 FB7B     		ldrb	r3, [r7, #15]
 8664 0044 1343     		orrs	r3, r3, r2
 8665 0046 FB73     		strb	r3, [r7, #15]
2985:Drivers/VL53L0X/core/src/vl53l0x_api.c **** 	*pSpadAmbientDamperFactor = (uint16_t)Byte;
 8666              		.loc 1 2985 30
 8667 0048 BB7B     		ldrb	r3, [r7, #14]	@ zero_extendqisi2
 8668 004a 9AB2     		uxth	r2, r3
 8669              		.loc 1 2985 28
 8670 004c 3B68     		ldr	r3, [r7]
 8671 004e 1A80     		strh	r2, [r3]	@ movhi
2986:Drivers/VL53L0X/core/src/vl53l0x_api.c **** 
2987:Drivers/VL53L0X/core/src/vl53l0x_api.c **** 	LOG_FUNCTION_END(Status);
2988:Drivers/VL53L0X/core/src/vl53l0x_api.c **** 	return Status;
 8672              		.loc 1 2988 9
 8673 0050 97F90F30 		ldrsb	r3, [r7, #15]
2989:Drivers/VL53L0X/core/src/vl53l0x_api.c **** }
 8674              		.loc 1 2989 1
 8675 0054 1846     		mov	r0, r3
 8676 0056 1037     		adds	r7, r7, #16
 8677              		.cfi_def_cfa_offset 8
 8678 0058 BD46     		mov	sp, r7
 8679              		.cfi_def_cfa_register 13
 8680              		@ sp needed
 8681 005a 80BD     		pop	{r7, pc}
 8682              		.cfi_endproc
 8683              	.LFE419:
 8685              		.section	.text.VL53L0X_SetReferenceSpads,"ax",%progbits
 8686              		.align	1
 8687              		.global	VL53L0X_SetReferenceSpads
 8688              		.syntax unified
 8689              		.thumb
 8690              		.thumb_func
 8692              	VL53L0X_SetReferenceSpads:
 8693              	.LFB420:
2990:Drivers/VL53L0X/core/src/vl53l0x_api.c **** 
2991:Drivers/VL53L0X/core/src/vl53l0x_api.c **** /* END Group SPAD functions */
ARM GAS  C:\Users\Morroway\AppData\Local\Temp\ccih4NWY.s 			page 206


2992:Drivers/VL53L0X/core/src/vl53l0x_api.c **** 
2993:Drivers/VL53L0X/core/src/vl53l0x_api.c **** /*****************************************************************************
2994:Drivers/VL53L0X/core/src/vl53l0x_api.c ****  * Internal functions
2995:Drivers/VL53L0X/core/src/vl53l0x_api.c ****  *****************************************************************************/
2996:Drivers/VL53L0X/core/src/vl53l0x_api.c **** 
2997:Drivers/VL53L0X/core/src/vl53l0x_api.c **** VL53L0X_Error VL53L0X_SetReferenceSpads(VL53L0X_DEV Dev, uint32_t count,
2998:Drivers/VL53L0X/core/src/vl53l0x_api.c **** 	uint8_t isApertureSpads)
2999:Drivers/VL53L0X/core/src/vl53l0x_api.c **** {
 8694              		.loc 1 2999 1
 8695              		.cfi_startproc
 8696              		@ args = 0, pretend = 0, frame = 24
 8697              		@ frame_needed = 1, uses_anonymous_args = 0
 8698 0000 80B5     		push	{r7, lr}
 8699              		.cfi_def_cfa_offset 8
 8700              		.cfi_offset 7, -8
 8701              		.cfi_offset 14, -4
 8702 0002 86B0     		sub	sp, sp, #24
 8703              		.cfi_def_cfa_offset 32
 8704 0004 00AF     		add	r7, sp, #0
 8705              		.cfi_def_cfa_register 7
 8706 0006 F860     		str	r0, [r7, #12]
 8707 0008 B960     		str	r1, [r7, #8]
 8708 000a 1346     		mov	r3, r2
 8709 000c FB71     		strb	r3, [r7, #7]
3000:Drivers/VL53L0X/core/src/vl53l0x_api.c **** 	VL53L0X_Error Status = VL53L0X_ERROR_NONE;
 8710              		.loc 1 3000 16
 8711 000e 0023     		movs	r3, #0
 8712 0010 FB75     		strb	r3, [r7, #23]
3001:Drivers/VL53L0X/core/src/vl53l0x_api.c **** 	LOG_FUNCTION_START("");
3002:Drivers/VL53L0X/core/src/vl53l0x_api.c **** 
3003:Drivers/VL53L0X/core/src/vl53l0x_api.c **** 	Status = VL53L0X_set_reference_spads(Dev, count, isApertureSpads);
 8713              		.loc 1 3003 11
 8714 0012 FB79     		ldrb	r3, [r7, #7]	@ zero_extendqisi2
 8715 0014 1A46     		mov	r2, r3
 8716 0016 B968     		ldr	r1, [r7, #8]
 8717 0018 F868     		ldr	r0, [r7, #12]
 8718 001a FFF7FEFF 		bl	VL53L0X_set_reference_spads
 8719 001e 0346     		mov	r3, r0
 8720 0020 FB75     		strb	r3, [r7, #23]
3004:Drivers/VL53L0X/core/src/vl53l0x_api.c **** 
3005:Drivers/VL53L0X/core/src/vl53l0x_api.c **** 	LOG_FUNCTION_END(Status);
3006:Drivers/VL53L0X/core/src/vl53l0x_api.c **** 
3007:Drivers/VL53L0X/core/src/vl53l0x_api.c **** 	return Status;
 8721              		.loc 1 3007 9
 8722 0022 97F91730 		ldrsb	r3, [r7, #23]
3008:Drivers/VL53L0X/core/src/vl53l0x_api.c **** }
 8723              		.loc 1 3008 1
 8724 0026 1846     		mov	r0, r3
 8725 0028 1837     		adds	r7, r7, #24
 8726              		.cfi_def_cfa_offset 8
 8727 002a BD46     		mov	sp, r7
 8728              		.cfi_def_cfa_register 13
 8729              		@ sp needed
 8730 002c 80BD     		pop	{r7, pc}
 8731              		.cfi_endproc
 8732              	.LFE420:
 8734              		.section	.text.VL53L0X_GetReferenceSpads,"ax",%progbits
ARM GAS  C:\Users\Morroway\AppData\Local\Temp\ccih4NWY.s 			page 207


 8735              		.align	1
 8736              		.global	VL53L0X_GetReferenceSpads
 8737              		.syntax unified
 8738              		.thumb
 8739              		.thumb_func
 8741              	VL53L0X_GetReferenceSpads:
 8742              	.LFB421:
3009:Drivers/VL53L0X/core/src/vl53l0x_api.c **** 
3010:Drivers/VL53L0X/core/src/vl53l0x_api.c **** VL53L0X_Error VL53L0X_GetReferenceSpads(VL53L0X_DEV Dev, uint32_t *pSpadCount,
3011:Drivers/VL53L0X/core/src/vl53l0x_api.c **** 	uint8_t *pIsApertureSpads)
3012:Drivers/VL53L0X/core/src/vl53l0x_api.c **** {
 8743              		.loc 1 3012 1
 8744              		.cfi_startproc
 8745              		@ args = 0, pretend = 0, frame = 24
 8746              		@ frame_needed = 1, uses_anonymous_args = 0
 8747 0000 80B5     		push	{r7, lr}
 8748              		.cfi_def_cfa_offset 8
 8749              		.cfi_offset 7, -8
 8750              		.cfi_offset 14, -4
 8751 0002 86B0     		sub	sp, sp, #24
 8752              		.cfi_def_cfa_offset 32
 8753 0004 00AF     		add	r7, sp, #0
 8754              		.cfi_def_cfa_register 7
 8755 0006 F860     		str	r0, [r7, #12]
 8756 0008 B960     		str	r1, [r7, #8]
 8757 000a 7A60     		str	r2, [r7, #4]
3013:Drivers/VL53L0X/core/src/vl53l0x_api.c **** 	VL53L0X_Error Status = VL53L0X_ERROR_NONE;
 8758              		.loc 1 3013 16
 8759 000c 0023     		movs	r3, #0
 8760 000e FB75     		strb	r3, [r7, #23]
3014:Drivers/VL53L0X/core/src/vl53l0x_api.c **** 	LOG_FUNCTION_START("");
3015:Drivers/VL53L0X/core/src/vl53l0x_api.c **** 
3016:Drivers/VL53L0X/core/src/vl53l0x_api.c **** 	Status = VL53L0X_get_reference_spads(Dev, pSpadCount, pIsApertureSpads);
 8761              		.loc 1 3016 11
 8762 0010 7A68     		ldr	r2, [r7, #4]
 8763 0012 B968     		ldr	r1, [r7, #8]
 8764 0014 F868     		ldr	r0, [r7, #12]
 8765 0016 FFF7FEFF 		bl	VL53L0X_get_reference_spads
 8766 001a 0346     		mov	r3, r0
 8767 001c FB75     		strb	r3, [r7, #23]
3017:Drivers/VL53L0X/core/src/vl53l0x_api.c **** 
3018:Drivers/VL53L0X/core/src/vl53l0x_api.c **** 	LOG_FUNCTION_END(Status);
3019:Drivers/VL53L0X/core/src/vl53l0x_api.c **** 
3020:Drivers/VL53L0X/core/src/vl53l0x_api.c **** 	return Status;
 8768              		.loc 1 3020 9
 8769 001e 97F91730 		ldrsb	r3, [r7, #23]
3021:Drivers/VL53L0X/core/src/vl53l0x_api.c **** }
 8770              		.loc 1 3021 1
 8771 0022 1846     		mov	r0, r3
 8772 0024 1837     		adds	r7, r7, #24
 8773              		.cfi_def_cfa_offset 8
 8774 0026 BD46     		mov	sp, r7
 8775              		.cfi_def_cfa_register 13
 8776              		@ sp needed
 8777 0028 80BD     		pop	{r7, pc}
 8778              		.cfi_endproc
 8779              	.LFE421:
ARM GAS  C:\Users\Morroway\AppData\Local\Temp\ccih4NWY.s 			page 208


 8781              		.section	.text.VL53L0X_PerformRefSpadManagement,"ax",%progbits
 8782              		.align	1
 8783              		.global	VL53L0X_PerformRefSpadManagement
 8784              		.syntax unified
 8785              		.thumb
 8786              		.thumb_func
 8788              	VL53L0X_PerformRefSpadManagement:
 8789              	.LFB422:
3022:Drivers/VL53L0X/core/src/vl53l0x_api.c **** 
3023:Drivers/VL53L0X/core/src/vl53l0x_api.c **** VL53L0X_Error VL53L0X_PerformRefSpadManagement(VL53L0X_DEV Dev,
3024:Drivers/VL53L0X/core/src/vl53l0x_api.c **** 	uint32_t *refSpadCount, uint8_t *isApertureSpads)
3025:Drivers/VL53L0X/core/src/vl53l0x_api.c **** {
 8790              		.loc 1 3025 1
 8791              		.cfi_startproc
 8792              		@ args = 0, pretend = 0, frame = 24
 8793              		@ frame_needed = 1, uses_anonymous_args = 0
 8794 0000 80B5     		push	{r7, lr}
 8795              		.cfi_def_cfa_offset 8
 8796              		.cfi_offset 7, -8
 8797              		.cfi_offset 14, -4
 8798 0002 86B0     		sub	sp, sp, #24
 8799              		.cfi_def_cfa_offset 32
 8800 0004 00AF     		add	r7, sp, #0
 8801              		.cfi_def_cfa_register 7
 8802 0006 F860     		str	r0, [r7, #12]
 8803 0008 B960     		str	r1, [r7, #8]
 8804 000a 7A60     		str	r2, [r7, #4]
3026:Drivers/VL53L0X/core/src/vl53l0x_api.c **** 	VL53L0X_Error Status = VL53L0X_ERROR_NONE;
 8805              		.loc 1 3026 16
 8806 000c 0023     		movs	r3, #0
 8807 000e FB75     		strb	r3, [r7, #23]
3027:Drivers/VL53L0X/core/src/vl53l0x_api.c **** 	LOG_FUNCTION_START("");
3028:Drivers/VL53L0X/core/src/vl53l0x_api.c **** 
3029:Drivers/VL53L0X/core/src/vl53l0x_api.c **** 	Status = VL53L0X_perform_ref_spad_management(Dev, refSpadCount,
 8808              		.loc 1 3029 11
 8809 0010 7A68     		ldr	r2, [r7, #4]
 8810 0012 B968     		ldr	r1, [r7, #8]
 8811 0014 F868     		ldr	r0, [r7, #12]
 8812 0016 FFF7FEFF 		bl	VL53L0X_perform_ref_spad_management
 8813 001a 0346     		mov	r3, r0
 8814 001c FB75     		strb	r3, [r7, #23]
3030:Drivers/VL53L0X/core/src/vl53l0x_api.c **** 		isApertureSpads);
3031:Drivers/VL53L0X/core/src/vl53l0x_api.c **** 
3032:Drivers/VL53L0X/core/src/vl53l0x_api.c **** 	LOG_FUNCTION_END(Status);
3033:Drivers/VL53L0X/core/src/vl53l0x_api.c **** 
3034:Drivers/VL53L0X/core/src/vl53l0x_api.c **** 	return Status;
 8815              		.loc 1 3034 9
 8816 001e 97F91730 		ldrsb	r3, [r7, #23]
3035:Drivers/VL53L0X/core/src/vl53l0x_api.c **** }
 8817              		.loc 1 3035 1
 8818 0022 1846     		mov	r0, r3
 8819 0024 1837     		adds	r7, r7, #24
 8820              		.cfi_def_cfa_offset 8
 8821 0026 BD46     		mov	sp, r7
 8822              		.cfi_def_cfa_register 13
 8823              		@ sp needed
 8824 0028 80BD     		pop	{r7, pc}
ARM GAS  C:\Users\Morroway\AppData\Local\Temp\ccih4NWY.s 			page 209


 8825              		.cfi_endproc
 8826              	.LFE422:
 8828              		.text
 8829              	.Letext0:
 8830              		.file 2 "c:\\users\\morroway\\appdata\\roaming\\code\\user\\globalstorage\\bmd.stm32-for-vscode\\@
 8831              		.file 3 "c:\\users\\morroway\\appdata\\roaming\\code\\user\\globalstorage\\bmd.stm32-for-vscode\\@
 8832              		.file 4 "Drivers/VL53L0X/platform/inc/vl53l0x_types.h"
 8833              		.file 5 "Drivers/VL53L0X/core/inc/vl53l0x_device.h"
 8834              		.file 6 "Drivers/VL53L0X/core/inc/vl53l0x_def.h"
 8835              		.file 7 "Drivers/CMSIS/Device/ST/STM32L4xx/Include/stm32l4p5xx.h"
 8836              		.file 8 "Drivers/STM32L4xx_HAL_Driver/Inc/stm32l4xx_hal_def.h"
 8837              		.file 9 "Drivers/STM32L4xx_HAL_Driver/Inc/stm32l4xx_hal_dma.h"
 8838              		.file 10 "Drivers/STM32L4xx_HAL_Driver/Inc/stm32l4xx_hal_i2c.h"
 8839              		.file 11 "Drivers/VL53L0X/platform/inc/vl53l0x_platform.h"
 8840              		.file 12 "Drivers/VL53L0X/core/inc/vl53l0x_tuning.h"
 8841              		.file 13 "Drivers/VL53L0X/core/inc/vl53l0x_interrupt_threshold_settings.h"
 8842              		.file 14 "Drivers/VL53L0X/core/inc/vl53l0x_api_calibration.h"
 8843              		.file 15 "Drivers/VL53L0X/core/inc/vl53l0x_api_core.h"
 8844              		.file 16 "Drivers/VL53L0X/core/inc/vl53l0x_api_strings.h"
ARM GAS  C:\Users\Morroway\AppData\Local\Temp\ccih4NWY.s 			page 210


DEFINED SYMBOLS
                            *ABS*:0000000000000000 vl53l0x_api.c
C:\Users\Morroway\AppData\Local\Temp\ccih4NWY.s:24     .data.DefaultTuningSettings:0000000000000000 DefaultTuningSettings
C:\Users\Morroway\AppData\Local\Temp\ccih4NWY.s:21     .data.DefaultTuningSettings:0000000000000000 $d
C:\Users\Morroway\AppData\Local\Temp\ccih4NWY.s:45     .data.InterruptThresholdSettings:0000000000000000 InterruptThresholdSettings
C:\Users\Morroway\AppData\Local\Temp\ccih4NWY.s:42     .data.InterruptThresholdSettings:0000000000000000 $d
C:\Users\Morroway\AppData\Local\Temp\ccih4NWY.s:74     .text.VL53L0X_GetVersion:0000000000000000 $t
C:\Users\Morroway\AppData\Local\Temp\ccih4NWY.s:80     .text.VL53L0X_GetVersion:0000000000000000 VL53L0X_GetVersion
C:\Users\Morroway\AppData\Local\Temp\ccih4NWY.s:132    .text.VL53L0X_GetPalSpecVersion:0000000000000000 $t
C:\Users\Morroway\AppData\Local\Temp\ccih4NWY.s:138    .text.VL53L0X_GetPalSpecVersion:0000000000000000 VL53L0X_GetPalSpecVersion
C:\Users\Morroway\AppData\Local\Temp\ccih4NWY.s:189    .text.VL53L0X_GetProductRevision:0000000000000000 $t
C:\Users\Morroway\AppData\Local\Temp\ccih4NWY.s:195    .text.VL53L0X_GetProductRevision:0000000000000000 VL53L0X_GetProductRevision
C:\Users\Morroway\AppData\Local\Temp\ccih4NWY.s:248    .text.VL53L0X_GetDeviceInfo:0000000000000000 $t
C:\Users\Morroway\AppData\Local\Temp\ccih4NWY.s:254    .text.VL53L0X_GetDeviceInfo:0000000000000000 VL53L0X_GetDeviceInfo
C:\Users\Morroway\AppData\Local\Temp\ccih4NWY.s:293    .text.VL53L0X_GetDeviceErrorStatus:0000000000000000 $t
C:\Users\Morroway\AppData\Local\Temp\ccih4NWY.s:299    .text.VL53L0X_GetDeviceErrorStatus:0000000000000000 VL53L0X_GetDeviceErrorStatus
C:\Users\Morroway\AppData\Local\Temp\ccih4NWY.s:350    .text.VL53L0X_GetDeviceErrorString:0000000000000000 $t
C:\Users\Morroway\AppData\Local\Temp\ccih4NWY.s:356    .text.VL53L0X_GetDeviceErrorString:0000000000000000 VL53L0X_GetDeviceErrorString
C:\Users\Morroway\AppData\Local\Temp\ccih4NWY.s:397    .text.VL53L0X_GetRangeStatusString:0000000000000000 $t
C:\Users\Morroway\AppData\Local\Temp\ccih4NWY.s:403    .text.VL53L0X_GetRangeStatusString:0000000000000000 VL53L0X_GetRangeStatusString
C:\Users\Morroway\AppData\Local\Temp\ccih4NWY.s:444    .text.VL53L0X_GetPalErrorString:0000000000000000 $t
C:\Users\Morroway\AppData\Local\Temp\ccih4NWY.s:450    .text.VL53L0X_GetPalErrorString:0000000000000000 VL53L0X_GetPalErrorString
C:\Users\Morroway\AppData\Local\Temp\ccih4NWY.s:491    .text.VL53L0X_GetPalStateString:0000000000000000 $t
C:\Users\Morroway\AppData\Local\Temp\ccih4NWY.s:497    .text.VL53L0X_GetPalStateString:0000000000000000 VL53L0X_GetPalStateString
C:\Users\Morroway\AppData\Local\Temp\ccih4NWY.s:538    .text.VL53L0X_GetPalState:0000000000000000 $t
C:\Users\Morroway\AppData\Local\Temp\ccih4NWY.s:544    .text.VL53L0X_GetPalState:0000000000000000 VL53L0X_GetPalState
C:\Users\Morroway\AppData\Local\Temp\ccih4NWY.s:586    .text.VL53L0X_SetPowerMode:0000000000000000 $t
C:\Users\Morroway\AppData\Local\Temp\ccih4NWY.s:592    .text.VL53L0X_SetPowerMode:0000000000000000 VL53L0X_SetPowerMode
C:\Users\Morroway\AppData\Local\Temp\ccih4NWY.s:1667   .text.VL53L0X_StaticInit:0000000000000000 VL53L0X_StaticInit
C:\Users\Morroway\AppData\Local\Temp\ccih4NWY.s:690    .text.VL53L0X_GetPowerMode:0000000000000000 $t
C:\Users\Morroway\AppData\Local\Temp\ccih4NWY.s:696    .text.VL53L0X_GetPowerMode:0000000000000000 VL53L0X_GetPowerMode
C:\Users\Morroway\AppData\Local\Temp\ccih4NWY.s:757    .text.VL53L0X_SetOffsetCalibrationDataMicroMeter:0000000000000000 $t
C:\Users\Morroway\AppData\Local\Temp\ccih4NWY.s:763    .text.VL53L0X_SetOffsetCalibrationDataMicroMeter:0000000000000000 VL53L0X_SetOffsetCalibrationDataMicroMeter
C:\Users\Morroway\AppData\Local\Temp\ccih4NWY.s:802    .text.VL53L0X_GetOffsetCalibrationDataMicroMeter:0000000000000000 $t
C:\Users\Morroway\AppData\Local\Temp\ccih4NWY.s:808    .text.VL53L0X_GetOffsetCalibrationDataMicroMeter:0000000000000000 VL53L0X_GetOffsetCalibrationDataMicroMeter
C:\Users\Morroway\AppData\Local\Temp\ccih4NWY.s:847    .text.VL53L0X_SetLinearityCorrectiveGain:0000000000000000 $t
C:\Users\Morroway\AppData\Local\Temp\ccih4NWY.s:853    .text.VL53L0X_SetLinearityCorrectiveGain:0000000000000000 VL53L0X_SetLinearityCorrectiveGain
C:\Users\Morroway\AppData\Local\Temp\ccih4NWY.s:917    .text.VL53L0X_GetLinearityCorrectiveGain:0000000000000000 $t
C:\Users\Morroway\AppData\Local\Temp\ccih4NWY.s:923    .text.VL53L0X_GetLinearityCorrectiveGain:0000000000000000 VL53L0X_GetLinearityCorrectiveGain
C:\Users\Morroway\AppData\Local\Temp\ccih4NWY.s:965    .text.VL53L0X_SetGroupParamHold:0000000000000000 $t
C:\Users\Morroway\AppData\Local\Temp\ccih4NWY.s:971    .text.VL53L0X_SetGroupParamHold:0000000000000000 VL53L0X_SetGroupParamHold
C:\Users\Morroway\AppData\Local\Temp\ccih4NWY.s:1008   .text.VL53L0X_GetUpperLimitMilliMeter:0000000000000000 $t
C:\Users\Morroway\AppData\Local\Temp\ccih4NWY.s:1014   .text.VL53L0X_GetUpperLimitMilliMeter:0000000000000000 VL53L0X_GetUpperLimitMilliMeter
C:\Users\Morroway\AppData\Local\Temp\ccih4NWY.s:1050   .text.VL53L0X_GetTotalSignalRate:0000000000000000 $t
C:\Users\Morroway\AppData\Local\Temp\ccih4NWY.s:1056   .text.VL53L0X_GetTotalSignalRate:0000000000000000 VL53L0X_GetTotalSignalRate
C:\Users\Morroway\AppData\Local\Temp\ccih4NWY.s:1107   .text.VL53L0X_SetDeviceAddress:0000000000000000 $t
C:\Users\Morroway\AppData\Local\Temp\ccih4NWY.s:1113   .text.VL53L0X_SetDeviceAddress:0000000000000000 VL53L0X_SetDeviceAddress
C:\Users\Morroway\AppData\Local\Temp\ccih4NWY.s:1157   .text.VL53L0X_DataInit:0000000000000000 $t
C:\Users\Morroway\AppData\Local\Temp\ccih4NWY.s:1163   .text.VL53L0X_DataInit:0000000000000000 VL53L0X_DataInit
C:\Users\Morroway\AppData\Local\Temp\ccih4NWY.s:2416   .text.VL53L0X_GetDeviceParameters:0000000000000000 VL53L0X_GetDeviceParameters
C:\Users\Morroway\AppData\Local\Temp\ccih4NWY.s:4679   .text.VL53L0X_SetLimitCheckEnable:0000000000000000 VL53L0X_SetLimitCheckEnable
C:\Users\Morroway\AppData\Local\Temp\ccih4NWY.s:4945   .text.VL53L0X_SetLimitCheckValue:0000000000000000 VL53L0X_SetLimitCheckValue
C:\Users\Morroway\AppData\Local\Temp\ccih4NWY.s:1526   .text.VL53L0X_DataInit:00000000000002c0 $d
C:\Users\Morroway\AppData\Local\Temp\ccih4NWY.s:1532   .text.VL53L0X_SetTuningSettingBuffer:0000000000000000 $t
C:\Users\Morroway\AppData\Local\Temp\ccih4NWY.s:1538   .text.VL53L0X_SetTuningSettingBuffer:0000000000000000 VL53L0X_SetTuningSettingBuffer
C:\Users\Morroway\AppData\Local\Temp\ccih4NWY.s:1606   .text.VL53L0X_GetTuningSettingBuffer:0000000000000000 $t
C:\Users\Morroway\AppData\Local\Temp\ccih4NWY.s:1612   .text.VL53L0X_GetTuningSettingBuffer:0000000000000000 VL53L0X_GetTuningSettingBuffer
ARM GAS  C:\Users\Morroway\AppData\Local\Temp\ccih4NWY.s 			page 211


C:\Users\Morroway\AppData\Local\Temp\ccih4NWY.s:1661   .text.VL53L0X_StaticInit:0000000000000000 $t
C:\Users\Morroway\AppData\Local\Temp\ccih4NWY.s:7359   .text.VL53L0X_SetGpioConfig:0000000000000000 VL53L0X_SetGpioConfig
C:\Users\Morroway\AppData\Local\Temp\ccih4NWY.s:2787   .text.VL53L0X_GetFractionEnable:0000000000000000 VL53L0X_GetFractionEnable
C:\Users\Morroway\AppData\Local\Temp\ccih4NWY.s:3121   .text.VL53L0X_SetSequenceStepEnable:0000000000000000 VL53L0X_SetSequenceStepEnable
C:\Users\Morroway\AppData\Local\Temp\ccih4NWY.s:3072   .text.VL53L0X_GetVcselPulsePeriod:0000000000000000 VL53L0X_GetVcselPulsePeriod
C:\Users\Morroway\AppData\Local\Temp\ccih4NWY.s:2072   .text.VL53L0X_StaticInit:0000000000000300 $d
C:\Users\Morroway\AppData\Local\Temp\ccih4NWY.s:2077   .text.VL53L0X_WaitDeviceBooted:0000000000000000 $t
C:\Users\Morroway\AppData\Local\Temp\ccih4NWY.s:2083   .text.VL53L0X_WaitDeviceBooted:0000000000000000 VL53L0X_WaitDeviceBooted
C:\Users\Morroway\AppData\Local\Temp\ccih4NWY.s:2118   .text.VL53L0X_ResetDevice:0000000000000000 $t
C:\Users\Morroway\AppData\Local\Temp\ccih4NWY.s:2124   .text.VL53L0X_ResetDevice:0000000000000000 VL53L0X_ResetDevice
C:\Users\Morroway\AppData\Local\Temp\ccih4NWY.s:2221   .text.VL53L0X_SetDeviceParameters:0000000000000000 $t
C:\Users\Morroway\AppData\Local\Temp\ccih4NWY.s:2227   .text.VL53L0X_SetDeviceParameters:0000000000000000 VL53L0X_SetDeviceParameters
C:\Users\Morroway\AppData\Local\Temp\ccih4NWY.s:2606   .text.VL53L0X_SetDeviceMode:0000000000000000 VL53L0X_SetDeviceMode
C:\Users\Morroway\AppData\Local\Temp\ccih4NWY.s:3935   .text.VL53L0X_SetInterMeasurementPeriodMilliSeconds:0000000000000000 VL53L0X_SetInterMeasurementPeriodMilliSeconds
C:\Users\Morroway\AppData\Local\Temp\ccih4NWY.s:4247   .text.VL53L0X_SetXTalkCompensationRateMegaCps:0000000000000000 VL53L0X_SetXTalkCompensationRateMegaCps
C:\Users\Morroway\AppData\Local\Temp\ccih4NWY.s:5446   .text.VL53L0X_SetWrapAroundCheckEnable:0000000000000000 VL53L0X_SetWrapAroundCheckEnable
C:\Users\Morroway\AppData\Local\Temp\ccih4NWY.s:2932   .text.VL53L0X_SetMeasurementTimingBudgetMicroSeconds:0000000000000000 VL53L0X_SetMeasurementTimingBudgetMicroSeconds
C:\Users\Morroway\AppData\Local\Temp\ccih4NWY.s:2410   .text.VL53L0X_GetDeviceParameters:0000000000000000 $t
C:\Users\Morroway\AppData\Local\Temp\ccih4NWY.s:2683   .text.VL53L0X_GetDeviceMode:0000000000000000 VL53L0X_GetDeviceMode
C:\Users\Morroway\AppData\Local\Temp\ccih4NWY.s:4021   .text.VL53L0X_GetInterMeasurementPeriodMilliSeconds:0000000000000000 VL53L0X_GetInterMeasurementPeriodMilliSeconds
C:\Users\Morroway\AppData\Local\Temp\ccih4NWY.s:4336   .text.VL53L0X_GetXTalkCompensationRateMegaCps:0000000000000000 VL53L0X_GetXTalkCompensationRateMegaCps
C:\Users\Morroway\AppData\Local\Temp\ccih4NWY.s:5088   .text.VL53L0X_GetLimitCheckValue:0000000000000000 VL53L0X_GetLimitCheckValue
C:\Users\Morroway\AppData\Local\Temp\ccih4NWY.s:4877   .text.VL53L0X_GetLimitCheckEnable:0000000000000000 VL53L0X_GetLimitCheckEnable
C:\Users\Morroway\AppData\Local\Temp\ccih4NWY.s:5539   .text.VL53L0X_GetWrapAroundCheckEnable:0000000000000000 VL53L0X_GetWrapAroundCheckEnable
C:\Users\Morroway\AppData\Local\Temp\ccih4NWY.s:2977   .text.VL53L0X_GetMeasurementTimingBudgetMicroSeconds:0000000000000000 VL53L0X_GetMeasurementTimingBudgetMicroSeconds
C:\Users\Morroway\AppData\Local\Temp\ccih4NWY.s:2600   .text.VL53L0X_SetDeviceMode:0000000000000000 $t
C:\Users\Morroway\AppData\Local\Temp\ccih4NWY.s:2672   .text.VL53L0X_SetDeviceMode:0000000000000054 $d
C:\Users\Morroway\AppData\Local\Temp\ccih4NWY.s:2677   .text.VL53L0X_GetDeviceMode:0000000000000000 $t
C:\Users\Morroway\AppData\Local\Temp\ccih4NWY.s:2724   .text.VL53L0X_SetRangeFractionEnable:0000000000000000 $t
C:\Users\Morroway\AppData\Local\Temp\ccih4NWY.s:2730   .text.VL53L0X_SetRangeFractionEnable:0000000000000000 VL53L0X_SetRangeFractionEnable
C:\Users\Morroway\AppData\Local\Temp\ccih4NWY.s:2781   .text.VL53L0X_GetFractionEnable:0000000000000000 $t
C:\Users\Morroway\AppData\Local\Temp\ccih4NWY.s:2841   .text.VL53L0X_SetHistogramMode:0000000000000000 $t
C:\Users\Morroway\AppData\Local\Temp\ccih4NWY.s:2847   .text.VL53L0X_SetHistogramMode:0000000000000000 VL53L0X_SetHistogramMode
C:\Users\Morroway\AppData\Local\Temp\ccih4NWY.s:2884   .text.VL53L0X_GetHistogramMode:0000000000000000 $t
C:\Users\Morroway\AppData\Local\Temp\ccih4NWY.s:2890   .text.VL53L0X_GetHistogramMode:0000000000000000 VL53L0X_GetHistogramMode
C:\Users\Morroway\AppData\Local\Temp\ccih4NWY.s:2926   .text.VL53L0X_SetMeasurementTimingBudgetMicroSeconds:0000000000000000 $t
C:\Users\Morroway\AppData\Local\Temp\ccih4NWY.s:2971   .text.VL53L0X_GetMeasurementTimingBudgetMicroSeconds:0000000000000000 $t
C:\Users\Morroway\AppData\Local\Temp\ccih4NWY.s:3016   .text.VL53L0X_SetVcselPulsePeriod:0000000000000000 $t
C:\Users\Morroway\AppData\Local\Temp\ccih4NWY.s:3022   .text.VL53L0X_SetVcselPulsePeriod:0000000000000000 VL53L0X_SetVcselPulsePeriod
C:\Users\Morroway\AppData\Local\Temp\ccih4NWY.s:3066   .text.VL53L0X_GetVcselPulsePeriod:0000000000000000 $t
C:\Users\Morroway\AppData\Local\Temp\ccih4NWY.s:3115   .text.VL53L0X_SetSequenceStepEnable:0000000000000000 $t
C:\Users\Morroway\AppData\Local\Temp\ccih4NWY.s:3176   .text.VL53L0X_SetSequenceStepEnable:000000000000004c $d
C:\Users\Morroway\AppData\Local\Temp\ccih4NWY.s:3181   .text.VL53L0X_SetSequenceStepEnable:0000000000000060 $t
C:\Users\Morroway\AppData\Local\Temp\ccih4NWY.s:3231   .text.VL53L0X_SetSequenceStepEnable:00000000000000a4 $d
C:\Users\Morroway\AppData\Local\Temp\ccih4NWY.s:3236   .text.VL53L0X_SetSequenceStepEnable:00000000000000b8 $t
C:\Users\Morroway\AppData\Local\Temp\ccih4NWY.s:3332   .text.sequence_step_enabled:0000000000000000 $t
C:\Users\Morroway\AppData\Local\Temp\ccih4NWY.s:3338   .text.sequence_step_enabled:0000000000000000 sequence_step_enabled
C:\Users\Morroway\AppData\Local\Temp\ccih4NWY.s:3373   .text.sequence_step_enabled:0000000000000028 $d
C:\Users\Morroway\AppData\Local\Temp\ccih4NWY.s:3378   .text.sequence_step_enabled:000000000000003c $t
C:\Users\Morroway\AppData\Local\Temp\ccih4NWY.s:3459   .text.VL53L0X_GetSequenceStepEnable:0000000000000000 $t
C:\Users\Morroway\AppData\Local\Temp\ccih4NWY.s:3465   .text.VL53L0X_GetSequenceStepEnable:0000000000000000 VL53L0X_GetSequenceStepEnable
C:\Users\Morroway\AppData\Local\Temp\ccih4NWY.s:3524   .text.VL53L0X_GetSequenceStepEnables:0000000000000000 $t
C:\Users\Morroway\AppData\Local\Temp\ccih4NWY.s:3530   .text.VL53L0X_GetSequenceStepEnables:0000000000000000 VL53L0X_GetSequenceStepEnables
C:\Users\Morroway\AppData\Local\Temp\ccih4NWY.s:3643   .text.VL53L0X_GetNumberOfSequenceSteps:0000000000000000 $t
C:\Users\Morroway\AppData\Local\Temp\ccih4NWY.s:3649   .text.VL53L0X_GetNumberOfSequenceSteps:0000000000000000 VL53L0X_GetNumberOfSequenceSteps
C:\Users\Morroway\AppData\Local\Temp\ccih4NWY.s:3689   .text.VL53L0X_GetSequenceStepsInfo:0000000000000000 $t
C:\Users\Morroway\AppData\Local\Temp\ccih4NWY.s:3695   .text.VL53L0X_GetSequenceStepsInfo:0000000000000000 VL53L0X_GetSequenceStepsInfo
ARM GAS  C:\Users\Morroway\AppData\Local\Temp\ccih4NWY.s 			page 212


C:\Users\Morroway\AppData\Local\Temp\ccih4NWY.s:3736   .text.VL53L0X_SetSequenceStepTimeout:0000000000000000 $t
C:\Users\Morroway\AppData\Local\Temp\ccih4NWY.s:3742   .text.VL53L0X_SetSequenceStepTimeout:0000000000000000 VL53L0X_SetSequenceStepTimeout
C:\Users\Morroway\AppData\Local\Temp\ccih4NWY.s:3851   .text.VL53L0X_GetSequenceStepTimeout:0000000000000000 $t
C:\Users\Morroway\AppData\Local\Temp\ccih4NWY.s:3857   .text.VL53L0X_GetSequenceStepTimeout:0000000000000000 VL53L0X_GetSequenceStepTimeout
C:\Users\Morroway\AppData\Local\Temp\ccih4NWY.s:3924   .text.VL53L0X_GetSequenceStepTimeout:000000000000005c $d
C:\Users\Morroway\AppData\Local\Temp\ccih4NWY.s:3929   .text.VL53L0X_SetInterMeasurementPeriodMilliSeconds:0000000000000000 $t
C:\Users\Morroway\AppData\Local\Temp\ccih4NWY.s:4015   .text.VL53L0X_GetInterMeasurementPeriodMilliSeconds:0000000000000000 $t
C:\Users\Morroway\AppData\Local\Temp\ccih4NWY.s:4098   .text.VL53L0X_SetXTalkCompensationEnable:0000000000000000 $t
C:\Users\Morroway\AppData\Local\Temp\ccih4NWY.s:4104   .text.VL53L0X_SetXTalkCompensationEnable:0000000000000000 VL53L0X_SetXTalkCompensationEnable
C:\Users\Morroway\AppData\Local\Temp\ccih4NWY.s:4191   .text.VL53L0X_GetXTalkCompensationEnable:0000000000000000 $t
C:\Users\Morroway\AppData\Local\Temp\ccih4NWY.s:4197   .text.VL53L0X_GetXTalkCompensationEnable:0000000000000000 VL53L0X_GetXTalkCompensationEnable
C:\Users\Morroway\AppData\Local\Temp\ccih4NWY.s:4241   .text.VL53L0X_SetXTalkCompensationRateMegaCps:0000000000000000 $t
C:\Users\Morroway\AppData\Local\Temp\ccih4NWY.s:4330   .text.VL53L0X_GetXTalkCompensationRateMegaCps:0000000000000000 $t
C:\Users\Morroway\AppData\Local\Temp\ccih4NWY.s:4418   .text.VL53L0X_SetRefCalibration:0000000000000000 $t
C:\Users\Morroway\AppData\Local\Temp\ccih4NWY.s:4424   .text.VL53L0X_SetRefCalibration:0000000000000000 VL53L0X_SetRefCalibration
C:\Users\Morroway\AppData\Local\Temp\ccih4NWY.s:4468   .text.VL53L0X_GetRefCalibration:0000000000000000 $t
C:\Users\Morroway\AppData\Local\Temp\ccih4NWY.s:4474   .text.VL53L0X_GetRefCalibration:0000000000000000 VL53L0X_GetRefCalibration
C:\Users\Morroway\AppData\Local\Temp\ccih4NWY.s:4515   .text.VL53L0X_GetNumberOfLimitCheck:0000000000000000 $t
C:\Users\Morroway\AppData\Local\Temp\ccih4NWY.s:4521   .text.VL53L0X_GetNumberOfLimitCheck:0000000000000000 VL53L0X_GetNumberOfLimitCheck
C:\Users\Morroway\AppData\Local\Temp\ccih4NWY.s:4560   .text.VL53L0X_GetLimitCheckInfo:0000000000000000 $t
C:\Users\Morroway\AppData\Local\Temp\ccih4NWY.s:4566   .text.VL53L0X_GetLimitCheckInfo:0000000000000000 VL53L0X_GetLimitCheckInfo
C:\Users\Morroway\AppData\Local\Temp\ccih4NWY.s:4609   .text.VL53L0X_GetLimitCheckStatus:0000000000000000 $t
C:\Users\Morroway\AppData\Local\Temp\ccih4NWY.s:4615   .text.VL53L0X_GetLimitCheckStatus:0000000000000000 VL53L0X_GetLimitCheckStatus
C:\Users\Morroway\AppData\Local\Temp\ccih4NWY.s:4673   .text.VL53L0X_SetLimitCheckEnable:0000000000000000 $t
C:\Users\Morroway\AppData\Local\Temp\ccih4NWY.s:4757   .text.VL53L0X_SetLimitCheckEnable:0000000000000064 $d
C:\Users\Morroway\AppData\Local\Temp\ccih4NWY.s:4763   .text.VL53L0X_SetLimitCheckEnable:000000000000007c $t
C:\Users\Morroway\AppData\Local\Temp\ccih4NWY.s:4871   .text.VL53L0X_GetLimitCheckEnable:0000000000000000 $t
C:\Users\Morroway\AppData\Local\Temp\ccih4NWY.s:4939   .text.VL53L0X_SetLimitCheckValue:0000000000000000 $t
C:\Users\Morroway\AppData\Local\Temp\ccih4NWY.s:4994   .text.VL53L0X_SetLimitCheckValue:0000000000000040 $d
C:\Users\Morroway\AppData\Local\Temp\ccih4NWY.s:5000   .text.VL53L0X_SetLimitCheckValue:0000000000000058 $t
C:\Users\Morroway\AppData\Local\Temp\ccih4NWY.s:5082   .text.VL53L0X_GetLimitCheckValue:0000000000000000 $t
C:\Users\Morroway\AppData\Local\Temp\ccih4NWY.s:5120   .text.VL53L0X_GetLimitCheckValue:0000000000000024 $d
C:\Users\Morroway\AppData\Local\Temp\ccih4NWY.s:5126   .text.VL53L0X_GetLimitCheckValue:000000000000003c $t
C:\Users\Morroway\AppData\Local\Temp\ccih4NWY.s:5281   .text.VL53L0X_GetLimitCheckCurrent:0000000000000000 $t
C:\Users\Morroway\AppData\Local\Temp\ccih4NWY.s:5287   .text.VL53L0X_GetLimitCheckCurrent:0000000000000000 VL53L0X_GetLimitCheckCurrent
C:\Users\Morroway\AppData\Local\Temp\ccih4NWY.s:5327   .text.VL53L0X_GetLimitCheckCurrent:0000000000000030 $d
C:\Users\Morroway\AppData\Local\Temp\ccih4NWY.s:5333   .text.VL53L0X_GetLimitCheckCurrent:0000000000000048 $t
C:\Users\Morroway\AppData\Local\Temp\ccih4NWY.s:5440   .text.VL53L0X_SetWrapAroundCheckEnable:0000000000000000 $t
C:\Users\Morroway\AppData\Local\Temp\ccih4NWY.s:5533   .text.VL53L0X_GetWrapAroundCheckEnable:0000000000000000 $t
C:\Users\Morroway\AppData\Local\Temp\ccih4NWY.s:5615   .text.VL53L0X_SetDmaxCalParameters:0000000000000000 $t
C:\Users\Morroway\AppData\Local\Temp\ccih4NWY.s:5621   .text.VL53L0X_SetDmaxCalParameters:0000000000000000 VL53L0X_SetDmaxCalParameters
C:\Users\Morroway\AppData\Local\Temp\ccih4NWY.s:5695   .text.VL53L0X_GetDmaxCalParameters:0000000000000000 $t
C:\Users\Morroway\AppData\Local\Temp\ccih4NWY.s:5701   .text.VL53L0X_GetDmaxCalParameters:0000000000000000 VL53L0X_GetDmaxCalParameters
C:\Users\Morroway\AppData\Local\Temp\ccih4NWY.s:5750   .text.VL53L0X_PerformSingleMeasurement:0000000000000000 $t
C:\Users\Morroway\AppData\Local\Temp\ccih4NWY.s:5756   .text.VL53L0X_PerformSingleMeasurement:0000000000000000 VL53L0X_PerformSingleMeasurement
C:\Users\Morroway\AppData\Local\Temp\ccih4NWY.s:6209   .text.VL53L0X_StartMeasurement:0000000000000000 VL53L0X_StartMeasurement
C:\Users\Morroway\AppData\Local\Temp\ccih4NWY.s:5834   .text.VL53L0X_PerformSingleHistogramMeasurement:0000000000000000 $t
C:\Users\Morroway\AppData\Local\Temp\ccih4NWY.s:5840   .text.VL53L0X_PerformSingleHistogramMeasurement:0000000000000000 VL53L0X_PerformSingleHistogramMeasurement
C:\Users\Morroway\AppData\Local\Temp\ccih4NWY.s:5876   .text.VL53L0X_PerformRefCalibration:0000000000000000 $t
C:\Users\Morroway\AppData\Local\Temp\ccih4NWY.s:5882   .text.VL53L0X_PerformRefCalibration:0000000000000000 VL53L0X_PerformRefCalibration
C:\Users\Morroway\AppData\Local\Temp\ccih4NWY.s:5924   .text.VL53L0X_PerformXTalkMeasurement:0000000000000000 $t
C:\Users\Morroway\AppData\Local\Temp\ccih4NWY.s:5930   .text.VL53L0X_PerformXTalkMeasurement:0000000000000000 VL53L0X_PerformXTalkMeasurement
C:\Users\Morroway\AppData\Local\Temp\ccih4NWY.s:5968   .text.VL53L0X_PerformXTalkCalibration:0000000000000000 $t
C:\Users\Morroway\AppData\Local\Temp\ccih4NWY.s:5974   .text.VL53L0X_PerformXTalkCalibration:0000000000000000 VL53L0X_PerformXTalkCalibration
C:\Users\Morroway\AppData\Local\Temp\ccih4NWY.s:6015   .text.VL53L0X_PerformOffsetCalibration:0000000000000000 $t
C:\Users\Morroway\AppData\Local\Temp\ccih4NWY.s:6021   .text.VL53L0X_PerformOffsetCalibration:0000000000000000 VL53L0X_PerformOffsetCalibration
C:\Users\Morroway\AppData\Local\Temp\ccih4NWY.s:6062   .text.VL53L0X_CheckAndLoadInterruptSettings:0000000000000000 $t
ARM GAS  C:\Users\Morroway\AppData\Local\Temp\ccih4NWY.s 			page 213


C:\Users\Morroway\AppData\Local\Temp\ccih4NWY.s:6068   .text.VL53L0X_CheckAndLoadInterruptSettings:0000000000000000 VL53L0X_CheckAndLoadInterruptSettings
C:\Users\Morroway\AppData\Local\Temp\ccih4NWY.s:7976   .text.VL53L0X_GetInterruptThresholds:0000000000000000 VL53L0X_GetInterruptThresholds
C:\Users\Morroway\AppData\Local\Temp\ccih4NWY.s:6198   .text.VL53L0X_CheckAndLoadInterruptSettings:00000000000000c8 $d
C:\Users\Morroway\AppData\Local\Temp\ccih4NWY.s:6203   .text.VL53L0X_StartMeasurement:0000000000000000 $t
C:\Users\Morroway\AppData\Local\Temp\ccih4NWY.s:6449   .text.VL53L0X_StopMeasurement:0000000000000000 $t
C:\Users\Morroway\AppData\Local\Temp\ccih4NWY.s:6455   .text.VL53L0X_StopMeasurement:0000000000000000 VL53L0X_StopMeasurement
C:\Users\Morroway\AppData\Local\Temp\ccih4NWY.s:6549   .text.VL53L0X_GetMeasurementDataReady:0000000000000000 $t
C:\Users\Morroway\AppData\Local\Temp\ccih4NWY.s:6555   .text.VL53L0X_GetMeasurementDataReady:0000000000000000 VL53L0X_GetMeasurementDataReady
C:\Users\Morroway\AppData\Local\Temp\ccih4NWY.s:8301   .text.VL53L0X_GetInterruptMaskStatus:0000000000000000 VL53L0X_GetInterruptMaskStatus
C:\Users\Morroway\AppData\Local\Temp\ccih4NWY.s:6649   .text.VL53L0X_WaitDeviceReadyForNewMeasurement:0000000000000000 $t
C:\Users\Morroway\AppData\Local\Temp\ccih4NWY.s:6655   .text.VL53L0X_WaitDeviceReadyForNewMeasurement:0000000000000000 VL53L0X_WaitDeviceReadyForNewMeasurement
C:\Users\Morroway\AppData\Local\Temp\ccih4NWY.s:6691   .text.VL53L0X_GetRangingMeasurementData:0000000000000000 $t
C:\Users\Morroway\AppData\Local\Temp\ccih4NWY.s:6697   .text.VL53L0X_GetRangingMeasurementData:0000000000000000 VL53L0X_GetRangingMeasurementData
C:\Users\Morroway\AppData\Local\Temp\ccih4NWY.s:7019   .text.VL53L0X_GetRangingMeasurementData:0000000000000244 $d
C:\Users\Morroway\AppData\Local\Temp\ccih4NWY.s:7024   .text.VL53L0X_GetMeasurementRefSignal:0000000000000000 $t
C:\Users\Morroway\AppData\Local\Temp\ccih4NWY.s:7030   .text.VL53L0X_GetMeasurementRefSignal:0000000000000000 VL53L0X_GetMeasurementRefSignal
C:\Users\Morroway\AppData\Local\Temp\ccih4NWY.s:7091   .text.VL53L0X_GetHistogramMeasurementData:0000000000000000 $t
C:\Users\Morroway\AppData\Local\Temp\ccih4NWY.s:7097   .text.VL53L0X_GetHistogramMeasurementData:0000000000000000 VL53L0X_GetHistogramMeasurementData
C:\Users\Morroway\AppData\Local\Temp\ccih4NWY.s:7133   .text.VL53L0X_PerformSingleRangingMeasurement:0000000000000000 $t
C:\Users\Morroway\AppData\Local\Temp\ccih4NWY.s:7139   .text.VL53L0X_PerformSingleRangingMeasurement:0000000000000000 VL53L0X_PerformSingleRangingMeasurement
C:\Users\Morroway\AppData\Local\Temp\ccih4NWY.s:8201   .text.VL53L0X_ClearInterruptMask:0000000000000000 VL53L0X_ClearInterruptMask
C:\Users\Morroway\AppData\Local\Temp\ccih4NWY.s:7210   .text.VL53L0X_SetNumberOfROIZones:0000000000000000 $t
C:\Users\Morroway\AppData\Local\Temp\ccih4NWY.s:7216   .text.VL53L0X_SetNumberOfROIZones:0000000000000000 VL53L0X_SetNumberOfROIZones
C:\Users\Morroway\AppData\Local\Temp\ccih4NWY.s:7261   .text.VL53L0X_GetNumberOfROIZones:0000000000000000 $t
C:\Users\Morroway\AppData\Local\Temp\ccih4NWY.s:7267   .text.VL53L0X_GetNumberOfROIZones:0000000000000000 VL53L0X_GetNumberOfROIZones
C:\Users\Morroway\AppData\Local\Temp\ccih4NWY.s:7307   .text.VL53L0X_GetMaxNumberOfROIZones:0000000000000000 $t
C:\Users\Morroway\AppData\Local\Temp\ccih4NWY.s:7313   .text.VL53L0X_GetMaxNumberOfROIZones:0000000000000000 VL53L0X_GetMaxNumberOfROIZones
C:\Users\Morroway\AppData\Local\Temp\ccih4NWY.s:7353   .text.VL53L0X_SetGpioConfig:0000000000000000 $t
C:\Users\Morroway\AppData\Local\Temp\ccih4NWY.s:7605   .text.VL53L0X_SetGpioConfig:000000000000019c $d
C:\Users\Morroway\AppData\Local\Temp\ccih4NWY.s:7610   .text.VL53L0X_SetGpioConfig:00000000000001b0 $t
C:\Users\Morroway\AppData\Local\Temp\ccih4NWY.s:7719   .text.VL53L0X_GetGpioConfig:0000000000000000 $t
C:\Users\Morroway\AppData\Local\Temp\ccih4NWY.s:7725   .text.VL53L0X_GetGpioConfig:0000000000000000 VL53L0X_GetGpioConfig
C:\Users\Morroway\AppData\Local\Temp\ccih4NWY.s:7789   .text.VL53L0X_GetGpioConfig:0000000000000060 $d
C:\Users\Morroway\AppData\Local\Temp\ccih4NWY.s:7794   .text.VL53L0X_GetGpioConfig:0000000000000074 $t
C:\Users\Morroway\AppData\Local\Temp\ccih4NWY.s:7891   .text.VL53L0X_SetInterruptThresholds:0000000000000000 $t
C:\Users\Morroway\AppData\Local\Temp\ccih4NWY.s:7897   .text.VL53L0X_SetInterruptThresholds:0000000000000000 VL53L0X_SetInterruptThresholds
C:\Users\Morroway\AppData\Local\Temp\ccih4NWY.s:7970   .text.VL53L0X_GetInterruptThresholds:0000000000000000 $t
C:\Users\Morroway\AppData\Local\Temp\ccih4NWY.s:8054   .text.VL53L0X_GetInterruptThresholds:0000000000000068 $d
C:\Users\Morroway\AppData\Local\Temp\ccih4NWY.s:8059   .text.VL53L0X_GetStopCompletedStatus:0000000000000000 $t
C:\Users\Morroway\AppData\Local\Temp\ccih4NWY.s:8065   .text.VL53L0X_GetStopCompletedStatus:0000000000000000 VL53L0X_GetStopCompletedStatus
C:\Users\Morroway\AppData\Local\Temp\ccih4NWY.s:8195   .text.VL53L0X_ClearInterruptMask:0000000000000000 $t
C:\Users\Morroway\AppData\Local\Temp\ccih4NWY.s:8295   .text.VL53L0X_GetInterruptMaskStatus:0000000000000000 $t
C:\Users\Morroway\AppData\Local\Temp\ccih4NWY.s:8358   .text.VL53L0X_EnableInterruptMask:0000000000000000 $t
C:\Users\Morroway\AppData\Local\Temp\ccih4NWY.s:8364   .text.VL53L0X_EnableInterruptMask:0000000000000000 VL53L0X_EnableInterruptMask
C:\Users\Morroway\AppData\Local\Temp\ccih4NWY.s:8400   .text.VL53L0X_SetSpadAmbientDamperThreshold:0000000000000000 $t
C:\Users\Morroway\AppData\Local\Temp\ccih4NWY.s:8406   .text.VL53L0X_SetSpadAmbientDamperThreshold:0000000000000000 VL53L0X_SetSpadAmbientDamperThreshold
C:\Users\Morroway\AppData\Local\Temp\ccih4NWY.s:8470   .text.VL53L0X_GetSpadAmbientDamperThreshold:0000000000000000 $t
C:\Users\Morroway\AppData\Local\Temp\ccih4NWY.s:8476   .text.VL53L0X_GetSpadAmbientDamperThreshold:0000000000000000 VL53L0X_GetSpadAmbientDamperThreshold
C:\Users\Morroway\AppData\Local\Temp\ccih4NWY.s:8538   .text.VL53L0X_SetSpadAmbientDamperFactor:0000000000000000 $t
C:\Users\Morroway\AppData\Local\Temp\ccih4NWY.s:8544   .text.VL53L0X_SetSpadAmbientDamperFactor:0000000000000000 VL53L0X_SetSpadAmbientDamperFactor
C:\Users\Morroway\AppData\Local\Temp\ccih4NWY.s:8611   .text.VL53L0X_GetSpadAmbientDamperFactor:0000000000000000 $t
C:\Users\Morroway\AppData\Local\Temp\ccih4NWY.s:8617   .text.VL53L0X_GetSpadAmbientDamperFactor:0000000000000000 VL53L0X_GetSpadAmbientDamperFactor
C:\Users\Morroway\AppData\Local\Temp\ccih4NWY.s:8686   .text.VL53L0X_SetReferenceSpads:0000000000000000 $t
C:\Users\Morroway\AppData\Local\Temp\ccih4NWY.s:8692   .text.VL53L0X_SetReferenceSpads:0000000000000000 VL53L0X_SetReferenceSpads
C:\Users\Morroway\AppData\Local\Temp\ccih4NWY.s:8735   .text.VL53L0X_GetReferenceSpads:0000000000000000 $t
C:\Users\Morroway\AppData\Local\Temp\ccih4NWY.s:8741   .text.VL53L0X_GetReferenceSpads:0000000000000000 VL53L0X_GetReferenceSpads
C:\Users\Morroway\AppData\Local\Temp\ccih4NWY.s:8782   .text.VL53L0X_PerformRefSpadManagement:0000000000000000 $t
ARM GAS  C:\Users\Morroway\AppData\Local\Temp\ccih4NWY.s 			page 214


C:\Users\Morroway\AppData\Local\Temp\ccih4NWY.s:8788   .text.VL53L0X_PerformRefSpadManagement:0000000000000000 VL53L0X_PerformRefSpadManagement

UNDEFINED SYMBOLS
VL53L0X_RdByte
VL53L0X_get_device_info
VL53L0X_get_device_error_string
VL53L0X_get_range_status_string
VL53L0X_get_pal_error_string
VL53L0X_get_pal_state_string
VL53L0X_WrByte
VL53L0X_set_offset_calibration_data_micro_meter
VL53L0X_get_offset_calibration_data_micro_meter
VL53L0X_WrWord
VL53L0X_get_total_signal_rate
memset
VL53L0X_get_info_from_device
VL53L0X_perform_ref_spad_management
VL53L0X_set_reference_spads
VL53L0X_load_tuning_settings
VL53L0X_RdWord
get_sequence_step_timeout
VL53L0X_PollingDelay
VL53L0X_set_measurement_timing_budget_micro_seconds
VL53L0X_get_measurement_timing_budget_micro_seconds
VL53L0X_set_vcsel_pulse_period
VL53L0X_get_vcsel_pulse_period
VL53L0X_get_sequence_steps_info
set_sequence_step_timeout
VL53L0X_WrDWord
VL53L0X_RdDWord
VL53L0X_set_ref_calibration
VL53L0X_get_ref_calibration
VL53L0X_get_limit_check_info
VL53L0X_UpdateByte
VL53L0X_measurement_poll_for_completion
VL53L0X_perform_ref_calibration
VL53L0X_perform_xtalk_calibration
VL53L0X_perform_offset_calibration
VL53L0X_ReadMulti
VL53L0X_get_pal_range_status
VL53L0X_get_reference_spads
