ARM GAS  C:\Users\Morroway\AppData\Local\Temp\ccKjJYc2.s 			page 1


   1              		.cpu cortex-m4
   2              		.arch armv7e-m
   3              		.fpu fpv4-sp-d16
   4              		.eabi_attribute 27, 1
   5              		.eabi_attribute 28, 1
   6              		.eabi_attribute 20, 1
   7              		.eabi_attribute 21, 1
   8              		.eabi_attribute 23, 3
   9              		.eabi_attribute 24, 1
  10              		.eabi_attribute 25, 1
  11              		.eabi_attribute 26, 1
  12              		.eabi_attribute 30, 6
  13              		.eabi_attribute 34, 1
  14              		.eabi_attribute 18, 4
  15              		.file	"vl53l0x_api_core.c"
  16              		.text
  17              	.Ltext0:
  18              		.cfi_sections	.debug_frame
  19              		.section	.text.VL53L0X_reverse_bytes,"ax",%progbits
  20              		.align	1
  21              		.global	VL53L0X_reverse_bytes
  22              		.syntax unified
  23              		.thumb
  24              		.thumb_func
  26              	VL53L0X_reverse_bytes:
  27              	.LFB324:
  28              		.file 1 "Drivers/VL53L0X/core/src/vl53l0x_api_core.c"
   1:Drivers/VL53L0X/core/src/vl53l0x_api_core.c **** /*******************************************************************************
   2:Drivers/VL53L0X/core/src/vl53l0x_api_core.c ****  Copyright © 2016, STMicroelectronics International N.V.
   3:Drivers/VL53L0X/core/src/vl53l0x_api_core.c ****  All rights reserved.
   4:Drivers/VL53L0X/core/src/vl53l0x_api_core.c **** 
   5:Drivers/VL53L0X/core/src/vl53l0x_api_core.c ****  Redistribution and use in source and binary forms, with or without
   6:Drivers/VL53L0X/core/src/vl53l0x_api_core.c ****  modification, are permitted provided that the following conditions are met:
   7:Drivers/VL53L0X/core/src/vl53l0x_api_core.c ****  * Redistributions of source code must retain the above copyright
   8:Drivers/VL53L0X/core/src/vl53l0x_api_core.c ****  notice, this list of conditions and the following disclaimer.
   9:Drivers/VL53L0X/core/src/vl53l0x_api_core.c ****  * Redistributions in binary form must reproduce the above copyright
  10:Drivers/VL53L0X/core/src/vl53l0x_api_core.c ****  notice, this list of conditions and the following disclaimer in the
  11:Drivers/VL53L0X/core/src/vl53l0x_api_core.c ****  documentation and/or other materials provided with the distribution.
  12:Drivers/VL53L0X/core/src/vl53l0x_api_core.c ****  * Neither the name of STMicroelectronics nor the
  13:Drivers/VL53L0X/core/src/vl53l0x_api_core.c ****  names of its contributors may be used to endorse or promote products
  14:Drivers/VL53L0X/core/src/vl53l0x_api_core.c ****  derived from this software without specific prior written permission.
  15:Drivers/VL53L0X/core/src/vl53l0x_api_core.c **** 
  16:Drivers/VL53L0X/core/src/vl53l0x_api_core.c ****  THIS SOFTWARE IS PROVIDED BY THE COPYRIGHT HOLDERS AND CONTRIBUTORS "AS IS" AND
  17:Drivers/VL53L0X/core/src/vl53l0x_api_core.c ****  ANY EXPRESS OR IMPLIED WARRANTIES, INCLUDING, BUT NOT LIMITED TO, THE IMPLIED
  18:Drivers/VL53L0X/core/src/vl53l0x_api_core.c ****  WARRANTIES OF MERCHANTABILITY, FITNESS FOR A PARTICULAR PURPOSE, AND
  19:Drivers/VL53L0X/core/src/vl53l0x_api_core.c ****  NON-INFRINGEMENT OF INTELLECTUAL PROPERTY RIGHTS ARE DISCLAIMED.
  20:Drivers/VL53L0X/core/src/vl53l0x_api_core.c ****  IN NO EVENT SHALL STMICROELECTRONICS INTERNATIONAL N.V. BE LIABLE FOR ANY
  21:Drivers/VL53L0X/core/src/vl53l0x_api_core.c ****  DIRECT, INDIRECT, INCIDENTAL, SPECIAL, EXEMPLARY, OR CONSEQUENTIAL DAMAGES
  22:Drivers/VL53L0X/core/src/vl53l0x_api_core.c ****  (INCLUDING, BUT NOT LIMITED TO, PROCUREMENT OF SUBSTITUTE GOODS OR SERVICES;
  23:Drivers/VL53L0X/core/src/vl53l0x_api_core.c ****  LOSS OF USE, DATA, OR PROFITS; OR BUSINESS INTERRUPTION) HOWEVER CAUSED AND
  24:Drivers/VL53L0X/core/src/vl53l0x_api_core.c ****  ON ANY THEORY OF LIABILITY, WHETHER IN CONTRACT, STRICT LIABILITY, OR TORT
  25:Drivers/VL53L0X/core/src/vl53l0x_api_core.c ****  (INCLUDING NEGLIGENCE OR OTHERWISE) ARISING IN ANY WAY OUT OF THE USE OF THIS
  26:Drivers/VL53L0X/core/src/vl53l0x_api_core.c ****  SOFTWARE, EVEN IF ADVISED OF THE POSSIBILITY OF SUCH DAMAGE.
  27:Drivers/VL53L0X/core/src/vl53l0x_api_core.c ****  ******************************************************************************/
  28:Drivers/VL53L0X/core/src/vl53l0x_api_core.c **** 
  29:Drivers/VL53L0X/core/src/vl53l0x_api_core.c **** #include "vl53l0x_api.h"
  30:Drivers/VL53L0X/core/src/vl53l0x_api_core.c **** #include "vl53l0x_api_core.h"
ARM GAS  C:\Users\Morroway\AppData\Local\Temp\ccKjJYc2.s 			page 2


  31:Drivers/VL53L0X/core/src/vl53l0x_api_core.c **** #include "vl53l0x_api_calibration.h"
  32:Drivers/VL53L0X/core/src/vl53l0x_api_core.c **** 
  33:Drivers/VL53L0X/core/src/vl53l0x_api_core.c **** 
  34:Drivers/VL53L0X/core/src/vl53l0x_api_core.c **** #ifndef __KERNEL__
  35:Drivers/VL53L0X/core/src/vl53l0x_api_core.c **** #include <stdlib.h>
  36:Drivers/VL53L0X/core/src/vl53l0x_api_core.c **** #endif
  37:Drivers/VL53L0X/core/src/vl53l0x_api_core.c **** #define LOG_FUNCTION_START(fmt, ...) \
  38:Drivers/VL53L0X/core/src/vl53l0x_api_core.c **** 	_LOG_FUNCTION_START(TRACE_MODULE_API, fmt, ##__VA_ARGS__)
  39:Drivers/VL53L0X/core/src/vl53l0x_api_core.c **** #define LOG_FUNCTION_END(status, ...) \
  40:Drivers/VL53L0X/core/src/vl53l0x_api_core.c **** 	_LOG_FUNCTION_END(TRACE_MODULE_API, status, ##__VA_ARGS__)
  41:Drivers/VL53L0X/core/src/vl53l0x_api_core.c **** #define LOG_FUNCTION_END_FMT(status, fmt, ...) \
  42:Drivers/VL53L0X/core/src/vl53l0x_api_core.c **** 	_LOG_FUNCTION_END_FMT(TRACE_MODULE_API, status, fmt, ##__VA_ARGS__)
  43:Drivers/VL53L0X/core/src/vl53l0x_api_core.c **** 
  44:Drivers/VL53L0X/core/src/vl53l0x_api_core.c **** VL53L0X_Error VL53L0X_reverse_bytes(uint8_t *data, uint32_t size)
  45:Drivers/VL53L0X/core/src/vl53l0x_api_core.c **** {
  29              		.loc 1 45 1
  30              		.cfi_startproc
  31              		@ args = 0, pretend = 0, frame = 32
  32              		@ frame_needed = 1, uses_anonymous_args = 0
  33              		@ link register save eliminated.
  34 0000 80B4     		push	{r7}
  35              		.cfi_def_cfa_offset 4
  36              		.cfi_offset 7, -4
  37 0002 89B0     		sub	sp, sp, #36
  38              		.cfi_def_cfa_offset 40
  39 0004 00AF     		add	r7, sp, #0
  40              		.cfi_def_cfa_register 7
  41 0006 7860     		str	r0, [r7, #4]
  42 0008 3960     		str	r1, [r7]
  46:Drivers/VL53L0X/core/src/vl53l0x_api_core.c **** 	VL53L0X_Error Status = VL53L0X_ERROR_NONE;
  43              		.loc 1 46 16
  44 000a 0023     		movs	r3, #0
  45 000c FB76     		strb	r3, [r7, #27]
  47:Drivers/VL53L0X/core/src/vl53l0x_api_core.c **** 	uint8_t tempData;
  48:Drivers/VL53L0X/core/src/vl53l0x_api_core.c **** 	uint32_t mirrorIndex;
  49:Drivers/VL53L0X/core/src/vl53l0x_api_core.c **** 	uint32_t middle = size/2;
  46              		.loc 1 49 11
  47 000e 3B68     		ldr	r3, [r7]
  48 0010 5B08     		lsrs	r3, r3, #1
  49 0012 7B61     		str	r3, [r7, #20]
  50:Drivers/VL53L0X/core/src/vl53l0x_api_core.c **** 	uint32_t index;
  51:Drivers/VL53L0X/core/src/vl53l0x_api_core.c **** 
  52:Drivers/VL53L0X/core/src/vl53l0x_api_core.c **** 	for (index = 0; index < middle; index++) {
  50              		.loc 1 52 13
  51 0014 0023     		movs	r3, #0
  52 0016 FB61     		str	r3, [r7, #28]
  53              		.loc 1 52 2
  54 0018 19E0     		b	.L2
  55              	.L3:
  53:Drivers/VL53L0X/core/src/vl53l0x_api_core.c **** 		mirrorIndex		 = size - index - 1;
  56              		.loc 1 53 24 discriminator 3
  57 001a 3A68     		ldr	r2, [r7]
  58 001c FB69     		ldr	r3, [r7, #28]
  59 001e D31A     		subs	r3, r2, r3
  60              		.loc 1 53 17 discriminator 3
  61 0020 013B     		subs	r3, r3, #1
  62 0022 3B61     		str	r3, [r7, #16]
ARM GAS  C:\Users\Morroway\AppData\Local\Temp\ccKjJYc2.s 			page 3


  54:Drivers/VL53L0X/core/src/vl53l0x_api_core.c **** 		tempData		 = data[index];
  63              		.loc 1 54 20 discriminator 3
  64 0024 7A68     		ldr	r2, [r7, #4]
  65 0026 FB69     		ldr	r3, [r7, #28]
  66 0028 1344     		add	r3, r3, r2
  67              		.loc 1 54 14 discriminator 3
  68 002a 1B78     		ldrb	r3, [r3]
  69 002c FB73     		strb	r3, [r7, #15]
  55:Drivers/VL53L0X/core/src/vl53l0x_api_core.c **** 		data[index]		 = data[mirrorIndex];
  70              		.loc 1 55 23 discriminator 3
  71 002e 7A68     		ldr	r2, [r7, #4]
  72 0030 3B69     		ldr	r3, [r7, #16]
  73 0032 1A44     		add	r2, r2, r3
  74              		.loc 1 55 7 discriminator 3
  75 0034 7968     		ldr	r1, [r7, #4]
  76 0036 FB69     		ldr	r3, [r7, #28]
  77 0038 0B44     		add	r3, r3, r1
  78              		.loc 1 55 23 discriminator 3
  79 003a 1278     		ldrb	r2, [r2]	@ zero_extendqisi2
  80              		.loc 1 55 17 discriminator 3
  81 003c 1A70     		strb	r2, [r3]
  56:Drivers/VL53L0X/core/src/vl53l0x_api_core.c **** 		data[mirrorIndex] = tempData;
  82              		.loc 1 56 7 discriminator 3
  83 003e 7A68     		ldr	r2, [r7, #4]
  84 0040 3B69     		ldr	r3, [r7, #16]
  85 0042 1344     		add	r3, r3, r2
  86              		.loc 1 56 21 discriminator 3
  87 0044 FA7B     		ldrb	r2, [r7, #15]
  88 0046 1A70     		strb	r2, [r3]
  52:Drivers/VL53L0X/core/src/vl53l0x_api_core.c **** 		mirrorIndex		 = size - index - 1;
  89              		.loc 1 52 39 discriminator 3
  90 0048 FB69     		ldr	r3, [r7, #28]
  91 004a 0133     		adds	r3, r3, #1
  92 004c FB61     		str	r3, [r7, #28]
  93              	.L2:
  52:Drivers/VL53L0X/core/src/vl53l0x_api_core.c **** 		mirrorIndex		 = size - index - 1;
  94              		.loc 1 52 24 discriminator 1
  95 004e FA69     		ldr	r2, [r7, #28]
  96 0050 7B69     		ldr	r3, [r7, #20]
  97 0052 9A42     		cmp	r2, r3
  98 0054 E1D3     		bcc	.L3
  57:Drivers/VL53L0X/core/src/vl53l0x_api_core.c **** 	}
  58:Drivers/VL53L0X/core/src/vl53l0x_api_core.c **** 	return Status;
  99              		.loc 1 58 9
 100 0056 97F91B30 		ldrsb	r3, [r7, #27]
  59:Drivers/VL53L0X/core/src/vl53l0x_api_core.c **** }
 101              		.loc 1 59 1
 102 005a 1846     		mov	r0, r3
 103 005c 2437     		adds	r7, r7, #36
 104              		.cfi_def_cfa_offset 4
 105 005e BD46     		mov	sp, r7
 106              		.cfi_def_cfa_register 13
 107              		@ sp needed
 108 0060 5DF8047B 		ldr	r7, [sp], #4
 109              		.cfi_restore 7
 110              		.cfi_def_cfa_offset 0
 111 0064 7047     		bx	lr
ARM GAS  C:\Users\Morroway\AppData\Local\Temp\ccKjJYc2.s 			page 4


 112              		.cfi_endproc
 113              	.LFE324:
 115              		.section	.text.VL53L0X_measurement_poll_for_completion,"ax",%progbits
 116              		.align	1
 117              		.global	VL53L0X_measurement_poll_for_completion
 118              		.syntax unified
 119              		.thumb
 120              		.thumb_func
 122              	VL53L0X_measurement_poll_for_completion:
 123              	.LFB325:
  60:Drivers/VL53L0X/core/src/vl53l0x_api_core.c **** 
  61:Drivers/VL53L0X/core/src/vl53l0x_api_core.c **** VL53L0X_Error VL53L0X_measurement_poll_for_completion(VL53L0X_DEV Dev)
  62:Drivers/VL53L0X/core/src/vl53l0x_api_core.c **** {
 124              		.loc 1 62 1
 125              		.cfi_startproc
 126              		@ args = 0, pretend = 0, frame = 24
 127              		@ frame_needed = 1, uses_anonymous_args = 0
 128 0000 80B5     		push	{r7, lr}
 129              		.cfi_def_cfa_offset 8
 130              		.cfi_offset 7, -8
 131              		.cfi_offset 14, -4
 132 0002 86B0     		sub	sp, sp, #24
 133              		.cfi_def_cfa_offset 32
 134 0004 00AF     		add	r7, sp, #0
 135              		.cfi_def_cfa_register 7
 136 0006 7860     		str	r0, [r7, #4]
  63:Drivers/VL53L0X/core/src/vl53l0x_api_core.c **** 	VL53L0X_Error Status = VL53L0X_ERROR_NONE;
 137              		.loc 1 63 16
 138 0008 0023     		movs	r3, #0
 139 000a FB75     		strb	r3, [r7, #23]
  64:Drivers/VL53L0X/core/src/vl53l0x_api_core.c **** 	uint8_t NewDataReady = 0;
 140              		.loc 1 64 10
 141 000c 0023     		movs	r3, #0
 142 000e FB73     		strb	r3, [r7, #15]
  65:Drivers/VL53L0X/core/src/vl53l0x_api_core.c **** 	uint32_t LoopNb;
  66:Drivers/VL53L0X/core/src/vl53l0x_api_core.c **** 
  67:Drivers/VL53L0X/core/src/vl53l0x_api_core.c **** 	LOG_FUNCTION_START("");
  68:Drivers/VL53L0X/core/src/vl53l0x_api_core.c **** 
  69:Drivers/VL53L0X/core/src/vl53l0x_api_core.c **** 	LoopNb = 0;
 143              		.loc 1 69 9
 144 0010 0023     		movs	r3, #0
 145 0012 3B61     		str	r3, [r7, #16]
 146              	.L10:
  70:Drivers/VL53L0X/core/src/vl53l0x_api_core.c **** 
  71:Drivers/VL53L0X/core/src/vl53l0x_api_core.c **** 	do {
  72:Drivers/VL53L0X/core/src/vl53l0x_api_core.c **** 		Status = VL53L0X_GetMeasurementDataReady(Dev, &NewDataReady);
 147              		.loc 1 72 12
 148 0014 07F10F03 		add	r3, r7, #15
 149 0018 1946     		mov	r1, r3
 150 001a 7868     		ldr	r0, [r7, #4]
 151 001c FFF7FEFF 		bl	VL53L0X_GetMeasurementDataReady
 152 0020 0346     		mov	r3, r0
 153 0022 FB75     		strb	r3, [r7, #23]
  73:Drivers/VL53L0X/core/src/vl53l0x_api_core.c **** 		if (Status != 0)
 154              		.loc 1 73 6
 155 0024 97F91730 		ldrsb	r3, [r7, #23]
 156 0028 002B     		cmp	r3, #0
ARM GAS  C:\Users\Morroway\AppData\Local\Temp\ccKjJYc2.s 			page 5


 157 002a 10D1     		bne	.L12
  74:Drivers/VL53L0X/core/src/vl53l0x_api_core.c **** 			break; /* the error is set */
  75:Drivers/VL53L0X/core/src/vl53l0x_api_core.c **** 
  76:Drivers/VL53L0X/core/src/vl53l0x_api_core.c **** 		if (NewDataReady == 1)
 158              		.loc 1 76 20
 159 002c FB7B     		ldrb	r3, [r7, #15]	@ zero_extendqisi2
 160              		.loc 1 76 6
 161 002e 012B     		cmp	r3, #1
 162 0030 0FD0     		beq	.L13
  77:Drivers/VL53L0X/core/src/vl53l0x_api_core.c **** 			break; /* done note that status == 0 */
  78:Drivers/VL53L0X/core/src/vl53l0x_api_core.c **** 
  79:Drivers/VL53L0X/core/src/vl53l0x_api_core.c **** 		LoopNb++;
 163              		.loc 1 79 9
 164 0032 3B69     		ldr	r3, [r7, #16]
 165 0034 0133     		adds	r3, r3, #1
 166 0036 3B61     		str	r3, [r7, #16]
  80:Drivers/VL53L0X/core/src/vl53l0x_api_core.c **** 		if (LoopNb >= VL53L0X_DEFAULT_MAX_LOOP) {
 167              		.loc 1 80 6
 168 0038 3B69     		ldr	r3, [r7, #16]
 169 003a B3F5FA6F 		cmp	r3, #2000
 170 003e 02D3     		bcc	.L9
  81:Drivers/VL53L0X/core/src/vl53l0x_api_core.c **** 			Status = VL53L0X_ERROR_TIME_OUT;
 171              		.loc 1 81 11
 172 0040 F923     		movs	r3, #249
 173 0042 FB75     		strb	r3, [r7, #23]
  82:Drivers/VL53L0X/core/src/vl53l0x_api_core.c **** 			break;
 174              		.loc 1 82 4
 175 0044 06E0     		b	.L7
 176              	.L9:
  83:Drivers/VL53L0X/core/src/vl53l0x_api_core.c **** 		}
  84:Drivers/VL53L0X/core/src/vl53l0x_api_core.c **** 
  85:Drivers/VL53L0X/core/src/vl53l0x_api_core.c **** 		VL53L0X_PollingDelay(Dev);
 177              		.loc 1 85 3
 178 0046 7868     		ldr	r0, [r7, #4]
 179 0048 FFF7FEFF 		bl	VL53L0X_PollingDelay
  72:Drivers/VL53L0X/core/src/vl53l0x_api_core.c **** 		if (Status != 0)
 180              		.loc 1 72 10
 181 004c E2E7     		b	.L10
 182              	.L12:
  74:Drivers/VL53L0X/core/src/vl53l0x_api_core.c **** 
 183              		.loc 1 74 4
 184 004e 00BF     		nop
 185 0050 00E0     		b	.L7
 186              	.L13:
  77:Drivers/VL53L0X/core/src/vl53l0x_api_core.c **** 
 187              		.loc 1 77 4
 188 0052 00BF     		nop
 189              	.L7:
  86:Drivers/VL53L0X/core/src/vl53l0x_api_core.c **** 	} while (1);
  87:Drivers/VL53L0X/core/src/vl53l0x_api_core.c **** 
  88:Drivers/VL53L0X/core/src/vl53l0x_api_core.c **** 	LOG_FUNCTION_END(Status);
  89:Drivers/VL53L0X/core/src/vl53l0x_api_core.c **** 
  90:Drivers/VL53L0X/core/src/vl53l0x_api_core.c **** 	return Status;
 190              		.loc 1 90 9
 191 0054 97F91730 		ldrsb	r3, [r7, #23]
  91:Drivers/VL53L0X/core/src/vl53l0x_api_core.c **** }
 192              		.loc 1 91 1
ARM GAS  C:\Users\Morroway\AppData\Local\Temp\ccKjJYc2.s 			page 6


 193 0058 1846     		mov	r0, r3
 194 005a 1837     		adds	r7, r7, #24
 195              		.cfi_def_cfa_offset 8
 196 005c BD46     		mov	sp, r7
 197              		.cfi_def_cfa_register 13
 198              		@ sp needed
 199 005e 80BD     		pop	{r7, pc}
 200              		.cfi_endproc
 201              	.LFE325:
 203              		.section	.text.VL53L0X_decode_vcsel_period,"ax",%progbits
 204              		.align	1
 205              		.global	VL53L0X_decode_vcsel_period
 206              		.syntax unified
 207              		.thumb
 208              		.thumb_func
 210              	VL53L0X_decode_vcsel_period:
 211              	.LFB326:
  92:Drivers/VL53L0X/core/src/vl53l0x_api_core.c **** 
  93:Drivers/VL53L0X/core/src/vl53l0x_api_core.c **** 
  94:Drivers/VL53L0X/core/src/vl53l0x_api_core.c **** uint8_t VL53L0X_decode_vcsel_period(uint8_t vcsel_period_reg)
  95:Drivers/VL53L0X/core/src/vl53l0x_api_core.c **** {
 212              		.loc 1 95 1
 213              		.cfi_startproc
 214              		@ args = 0, pretend = 0, frame = 16
 215              		@ frame_needed = 1, uses_anonymous_args = 0
 216              		@ link register save eliminated.
 217 0000 80B4     		push	{r7}
 218              		.cfi_def_cfa_offset 4
 219              		.cfi_offset 7, -4
 220 0002 85B0     		sub	sp, sp, #20
 221              		.cfi_def_cfa_offset 24
 222 0004 00AF     		add	r7, sp, #0
 223              		.cfi_def_cfa_register 7
 224 0006 0346     		mov	r3, r0
 225 0008 FB71     		strb	r3, [r7, #7]
  96:Drivers/VL53L0X/core/src/vl53l0x_api_core.c **** 	/*!
  97:Drivers/VL53L0X/core/src/vl53l0x_api_core.c **** 	 * Converts the encoded VCSEL period register value into the real
  98:Drivers/VL53L0X/core/src/vl53l0x_api_core.c **** 	 * period in PLL clocks
  99:Drivers/VL53L0X/core/src/vl53l0x_api_core.c **** 	 */
 100:Drivers/VL53L0X/core/src/vl53l0x_api_core.c **** 
 101:Drivers/VL53L0X/core/src/vl53l0x_api_core.c **** 	uint8_t vcsel_period_pclks = 0;
 226              		.loc 1 101 10
 227 000a 0023     		movs	r3, #0
 228 000c FB73     		strb	r3, [r7, #15]
 102:Drivers/VL53L0X/core/src/vl53l0x_api_core.c **** 
 103:Drivers/VL53L0X/core/src/vl53l0x_api_core.c **** 	vcsel_period_pclks = (vcsel_period_reg + 1) << 1;
 229              		.loc 1 103 41
 230 000e FB79     		ldrb	r3, [r7, #7]
 231 0010 0133     		adds	r3, r3, #1
 232 0012 DBB2     		uxtb	r3, r3
 233              		.loc 1 103 21
 234 0014 5B00     		lsls	r3, r3, #1
 235 0016 FB73     		strb	r3, [r7, #15]
 104:Drivers/VL53L0X/core/src/vl53l0x_api_core.c **** 
 105:Drivers/VL53L0X/core/src/vl53l0x_api_core.c **** 	return vcsel_period_pclks;
 236              		.loc 1 105 9
 237 0018 FB7B     		ldrb	r3, [r7, #15]	@ zero_extendqisi2
ARM GAS  C:\Users\Morroway\AppData\Local\Temp\ccKjJYc2.s 			page 7


 106:Drivers/VL53L0X/core/src/vl53l0x_api_core.c **** }
 238              		.loc 1 106 1
 239 001a 1846     		mov	r0, r3
 240 001c 1437     		adds	r7, r7, #20
 241              		.cfi_def_cfa_offset 4
 242 001e BD46     		mov	sp, r7
 243              		.cfi_def_cfa_register 13
 244              		@ sp needed
 245 0020 5DF8047B 		ldr	r7, [sp], #4
 246              		.cfi_restore 7
 247              		.cfi_def_cfa_offset 0
 248 0024 7047     		bx	lr
 249              		.cfi_endproc
 250              	.LFE326:
 252              		.section	.text.VL53L0X_encode_vcsel_period,"ax",%progbits
 253              		.align	1
 254              		.global	VL53L0X_encode_vcsel_period
 255              		.syntax unified
 256              		.thumb
 257              		.thumb_func
 259              	VL53L0X_encode_vcsel_period:
 260              	.LFB327:
 107:Drivers/VL53L0X/core/src/vl53l0x_api_core.c **** 
 108:Drivers/VL53L0X/core/src/vl53l0x_api_core.c **** uint8_t VL53L0X_encode_vcsel_period(uint8_t vcsel_period_pclks)
 109:Drivers/VL53L0X/core/src/vl53l0x_api_core.c **** {
 261              		.loc 1 109 1
 262              		.cfi_startproc
 263              		@ args = 0, pretend = 0, frame = 16
 264              		@ frame_needed = 1, uses_anonymous_args = 0
 265              		@ link register save eliminated.
 266 0000 80B4     		push	{r7}
 267              		.cfi_def_cfa_offset 4
 268              		.cfi_offset 7, -4
 269 0002 85B0     		sub	sp, sp, #20
 270              		.cfi_def_cfa_offset 24
 271 0004 00AF     		add	r7, sp, #0
 272              		.cfi_def_cfa_register 7
 273 0006 0346     		mov	r3, r0
 274 0008 FB71     		strb	r3, [r7, #7]
 110:Drivers/VL53L0X/core/src/vl53l0x_api_core.c **** 	/*!
 111:Drivers/VL53L0X/core/src/vl53l0x_api_core.c **** 	 * Converts the encoded VCSEL period register value into the real period
 112:Drivers/VL53L0X/core/src/vl53l0x_api_core.c **** 	 * in PLL clocks
 113:Drivers/VL53L0X/core/src/vl53l0x_api_core.c **** 	 */
 114:Drivers/VL53L0X/core/src/vl53l0x_api_core.c **** 
 115:Drivers/VL53L0X/core/src/vl53l0x_api_core.c **** 	uint8_t vcsel_period_reg = 0;
 275              		.loc 1 115 10
 276 000a 0023     		movs	r3, #0
 277 000c FB73     		strb	r3, [r7, #15]
 116:Drivers/VL53L0X/core/src/vl53l0x_api_core.c **** 
 117:Drivers/VL53L0X/core/src/vl53l0x_api_core.c **** 	vcsel_period_reg = (vcsel_period_pclks >> 1) - 1;
 278              		.loc 1 117 47
 279 000e FB79     		ldrb	r3, [r7, #7]	@ zero_extendqisi2
 280 0010 5B08     		lsrs	r3, r3, #1
 281 0012 DBB2     		uxtb	r3, r3
 282              		.loc 1 117 19
 283 0014 013B     		subs	r3, r3, #1
 284 0016 FB73     		strb	r3, [r7, #15]
ARM GAS  C:\Users\Morroway\AppData\Local\Temp\ccKjJYc2.s 			page 8


 118:Drivers/VL53L0X/core/src/vl53l0x_api_core.c **** 
 119:Drivers/VL53L0X/core/src/vl53l0x_api_core.c **** 	return vcsel_period_reg;
 285              		.loc 1 119 9
 286 0018 FB7B     		ldrb	r3, [r7, #15]	@ zero_extendqisi2
 120:Drivers/VL53L0X/core/src/vl53l0x_api_core.c **** }
 287              		.loc 1 120 1
 288 001a 1846     		mov	r0, r3
 289 001c 1437     		adds	r7, r7, #20
 290              		.cfi_def_cfa_offset 4
 291 001e BD46     		mov	sp, r7
 292              		.cfi_def_cfa_register 13
 293              		@ sp needed
 294 0020 5DF8047B 		ldr	r7, [sp], #4
 295              		.cfi_restore 7
 296              		.cfi_def_cfa_offset 0
 297 0024 7047     		bx	lr
 298              		.cfi_endproc
 299              	.LFE327:
 301              		.section	.text.VL53L0X_isqrt,"ax",%progbits
 302              		.align	1
 303              		.global	VL53L0X_isqrt
 304              		.syntax unified
 305              		.thumb
 306              		.thumb_func
 308              	VL53L0X_isqrt:
 309              	.LFB328:
 121:Drivers/VL53L0X/core/src/vl53l0x_api_core.c **** 
 122:Drivers/VL53L0X/core/src/vl53l0x_api_core.c **** 
 123:Drivers/VL53L0X/core/src/vl53l0x_api_core.c **** uint32_t VL53L0X_isqrt(uint32_t num)
 124:Drivers/VL53L0X/core/src/vl53l0x_api_core.c **** {
 310              		.loc 1 124 1
 311              		.cfi_startproc
 312              		@ args = 0, pretend = 0, frame = 16
 313              		@ frame_needed = 1, uses_anonymous_args = 0
 314              		@ link register save eliminated.
 315 0000 80B4     		push	{r7}
 316              		.cfi_def_cfa_offset 4
 317              		.cfi_offset 7, -4
 318 0002 85B0     		sub	sp, sp, #20
 319              		.cfi_def_cfa_offset 24
 320 0004 00AF     		add	r7, sp, #0
 321              		.cfi_def_cfa_register 7
 322 0006 7860     		str	r0, [r7, #4]
 125:Drivers/VL53L0X/core/src/vl53l0x_api_core.c **** 	/*
 126:Drivers/VL53L0X/core/src/vl53l0x_api_core.c **** 	 * Implements an integer square root
 127:Drivers/VL53L0X/core/src/vl53l0x_api_core.c **** 	 *
 128:Drivers/VL53L0X/core/src/vl53l0x_api_core.c **** 	 * From: http://en.wikipedia.org/wiki/Methods_of_computing_square_roots
 129:Drivers/VL53L0X/core/src/vl53l0x_api_core.c **** 	 */
 130:Drivers/VL53L0X/core/src/vl53l0x_api_core.c **** 
 131:Drivers/VL53L0X/core/src/vl53l0x_api_core.c **** 	uint32_t  res = 0;
 323              		.loc 1 131 12
 324 0008 0023     		movs	r3, #0
 325 000a FB60     		str	r3, [r7, #12]
 132:Drivers/VL53L0X/core/src/vl53l0x_api_core.c **** 	uint32_t  bit = 1 << 30;
 326              		.loc 1 132 12
 327 000c 4FF08043 		mov	r3, #1073741824
 328 0010 BB60     		str	r3, [r7, #8]
ARM GAS  C:\Users\Morroway\AppData\Local\Temp\ccKjJYc2.s 			page 9


 133:Drivers/VL53L0X/core/src/vl53l0x_api_core.c **** 	/* The second-to-top bit is set:
 134:Drivers/VL53L0X/core/src/vl53l0x_api_core.c **** 	 *	1 << 14 for 16-bits, 1 << 30 for 32 bits */
 135:Drivers/VL53L0X/core/src/vl53l0x_api_core.c **** 
 136:Drivers/VL53L0X/core/src/vl53l0x_api_core.c **** 	 /* "bit" starts at the highest power of four <= the argument. */
 137:Drivers/VL53L0X/core/src/vl53l0x_api_core.c **** 	while (bit > num)
 329              		.loc 1 137 8
 330 0012 02E0     		b	.L19
 331              	.L20:
 138:Drivers/VL53L0X/core/src/vl53l0x_api_core.c **** 		bit >>= 2;
 332              		.loc 1 138 7
 333 0014 BB68     		ldr	r3, [r7, #8]
 334 0016 9B08     		lsrs	r3, r3, #2
 335 0018 BB60     		str	r3, [r7, #8]
 336              	.L19:
 137:Drivers/VL53L0X/core/src/vl53l0x_api_core.c **** 		bit >>= 2;
 337              		.loc 1 137 13
 338 001a BA68     		ldr	r2, [r7, #8]
 339 001c 7B68     		ldr	r3, [r7, #4]
 340 001e 9A42     		cmp	r2, r3
 341 0020 F8D8     		bhi	.L20
 139:Drivers/VL53L0X/core/src/vl53l0x_api_core.c **** 
 140:Drivers/VL53L0X/core/src/vl53l0x_api_core.c **** 
 141:Drivers/VL53L0X/core/src/vl53l0x_api_core.c **** 	while (bit != 0) {
 342              		.loc 1 141 8
 343 0022 17E0     		b	.L21
 344              	.L24:
 142:Drivers/VL53L0X/core/src/vl53l0x_api_core.c **** 		if (num >= res + bit) {
 345              		.loc 1 142 18
 346 0024 FA68     		ldr	r2, [r7, #12]
 347 0026 BB68     		ldr	r3, [r7, #8]
 348 0028 1344     		add	r3, r3, r2
 349              		.loc 1 142 6
 350 002a 7A68     		ldr	r2, [r7, #4]
 351 002c 9A42     		cmp	r2, r3
 352 002e 0BD3     		bcc	.L22
 143:Drivers/VL53L0X/core/src/vl53l0x_api_core.c **** 			num -= res + bit;
 353              		.loc 1 143 15
 354 0030 FA68     		ldr	r2, [r7, #12]
 355 0032 BB68     		ldr	r3, [r7, #8]
 356 0034 1344     		add	r3, r3, r2
 357              		.loc 1 143 8
 358 0036 7A68     		ldr	r2, [r7, #4]
 359 0038 D31A     		subs	r3, r2, r3
 360 003a 7B60     		str	r3, [r7, #4]
 144:Drivers/VL53L0X/core/src/vl53l0x_api_core.c **** 			res = (res >> 1) + bit;
 361              		.loc 1 144 15
 362 003c FB68     		ldr	r3, [r7, #12]
 363 003e 5B08     		lsrs	r3, r3, #1
 364              		.loc 1 144 8
 365 0040 BA68     		ldr	r2, [r7, #8]
 366 0042 1344     		add	r3, r3, r2
 367 0044 FB60     		str	r3, [r7, #12]
 368 0046 02E0     		b	.L23
 369              	.L22:
 145:Drivers/VL53L0X/core/src/vl53l0x_api_core.c **** 		} else
 146:Drivers/VL53L0X/core/src/vl53l0x_api_core.c **** 			res >>= 1;
 370              		.loc 1 146 8
ARM GAS  C:\Users\Morroway\AppData\Local\Temp\ccKjJYc2.s 			page 10


 371 0048 FB68     		ldr	r3, [r7, #12]
 372 004a 5B08     		lsrs	r3, r3, #1
 373 004c FB60     		str	r3, [r7, #12]
 374              	.L23:
 147:Drivers/VL53L0X/core/src/vl53l0x_api_core.c **** 
 148:Drivers/VL53L0X/core/src/vl53l0x_api_core.c **** 		bit >>= 2;
 375              		.loc 1 148 7
 376 004e BB68     		ldr	r3, [r7, #8]
 377 0050 9B08     		lsrs	r3, r3, #2
 378 0052 BB60     		str	r3, [r7, #8]
 379              	.L21:
 141:Drivers/VL53L0X/core/src/vl53l0x_api_core.c **** 		if (num >= res + bit) {
 380              		.loc 1 141 13
 381 0054 BB68     		ldr	r3, [r7, #8]
 382 0056 002B     		cmp	r3, #0
 383 0058 E4D1     		bne	.L24
 149:Drivers/VL53L0X/core/src/vl53l0x_api_core.c **** 	}
 150:Drivers/VL53L0X/core/src/vl53l0x_api_core.c **** 
 151:Drivers/VL53L0X/core/src/vl53l0x_api_core.c **** 	return res;
 384              		.loc 1 151 9
 385 005a FB68     		ldr	r3, [r7, #12]
 152:Drivers/VL53L0X/core/src/vl53l0x_api_core.c **** }
 386              		.loc 1 152 1
 387 005c 1846     		mov	r0, r3
 388 005e 1437     		adds	r7, r7, #20
 389              		.cfi_def_cfa_offset 4
 390 0060 BD46     		mov	sp, r7
 391              		.cfi_def_cfa_register 13
 392              		@ sp needed
 393 0062 5DF8047B 		ldr	r7, [sp], #4
 394              		.cfi_restore 7
 395              		.cfi_def_cfa_offset 0
 396 0066 7047     		bx	lr
 397              		.cfi_endproc
 398              	.LFE328:
 400              		.section	.text.VL53L0X_quadrature_sum,"ax",%progbits
 401              		.align	1
 402              		.global	VL53L0X_quadrature_sum
 403              		.syntax unified
 404              		.thumb
 405              		.thumb_func
 407              	VL53L0X_quadrature_sum:
 408              	.LFB329:
 153:Drivers/VL53L0X/core/src/vl53l0x_api_core.c **** 
 154:Drivers/VL53L0X/core/src/vl53l0x_api_core.c **** 
 155:Drivers/VL53L0X/core/src/vl53l0x_api_core.c **** uint32_t VL53L0X_quadrature_sum(uint32_t a, uint32_t b)
 156:Drivers/VL53L0X/core/src/vl53l0x_api_core.c **** {
 409              		.loc 1 156 1
 410              		.cfi_startproc
 411              		@ args = 0, pretend = 0, frame = 16
 412              		@ frame_needed = 1, uses_anonymous_args = 0
 413 0000 80B5     		push	{r7, lr}
 414              		.cfi_def_cfa_offset 8
 415              		.cfi_offset 7, -8
 416              		.cfi_offset 14, -4
 417 0002 84B0     		sub	sp, sp, #16
 418              		.cfi_def_cfa_offset 24
ARM GAS  C:\Users\Morroway\AppData\Local\Temp\ccKjJYc2.s 			page 11


 419 0004 00AF     		add	r7, sp, #0
 420              		.cfi_def_cfa_register 7
 421 0006 7860     		str	r0, [r7, #4]
 422 0008 3960     		str	r1, [r7]
 157:Drivers/VL53L0X/core/src/vl53l0x_api_core.c **** 	/*
 158:Drivers/VL53L0X/core/src/vl53l0x_api_core.c **** 	 * Implements a quadrature sum
 159:Drivers/VL53L0X/core/src/vl53l0x_api_core.c **** 	 *
 160:Drivers/VL53L0X/core/src/vl53l0x_api_core.c **** 	 * rea = sqrt(a^2 + b^2)
 161:Drivers/VL53L0X/core/src/vl53l0x_api_core.c **** 	 *
 162:Drivers/VL53L0X/core/src/vl53l0x_api_core.c **** 	 * Trap overflow case max input value is 65535 (16-bit value)
 163:Drivers/VL53L0X/core/src/vl53l0x_api_core.c **** 	 * as internal calc are 32-bit wide
 164:Drivers/VL53L0X/core/src/vl53l0x_api_core.c **** 	 *
 165:Drivers/VL53L0X/core/src/vl53l0x_api_core.c **** 	 * If overflow then seta output to maximum
 166:Drivers/VL53L0X/core/src/vl53l0x_api_core.c **** 	 */
 167:Drivers/VL53L0X/core/src/vl53l0x_api_core.c **** 	uint32_t  res = 0;
 423              		.loc 1 167 12
 424 000a 0023     		movs	r3, #0
 425 000c FB60     		str	r3, [r7, #12]
 168:Drivers/VL53L0X/core/src/vl53l0x_api_core.c **** 
 169:Drivers/VL53L0X/core/src/vl53l0x_api_core.c **** 	if (a > 65535 || b > 65535)
 426              		.loc 1 169 5
 427 000e 7B68     		ldr	r3, [r7, #4]
 428 0010 B3F5803F 		cmp	r3, #65536
 429 0014 03D2     		bcs	.L27
 430              		.loc 1 169 16 discriminator 1
 431 0016 3B68     		ldr	r3, [r7]
 432 0018 B3F5803F 		cmp	r3, #65536
 433 001c 03D3     		bcc	.L28
 434              	.L27:
 170:Drivers/VL53L0X/core/src/vl53l0x_api_core.c **** 		res = 65535;
 435              		.loc 1 170 7
 436 001e 4FF6FF73 		movw	r3, #65535
 437 0022 FB60     		str	r3, [r7, #12]
 438 0024 0AE0     		b	.L29
 439              	.L28:
 171:Drivers/VL53L0X/core/src/vl53l0x_api_core.c **** 	else
 172:Drivers/VL53L0X/core/src/vl53l0x_api_core.c **** 		res = VL53L0X_isqrt(a * a + b * b);
 440              		.loc 1 172 25
 441 0026 7B68     		ldr	r3, [r7, #4]
 442 0028 03FB03F2 		mul	r2, r3, r3
 443              		.loc 1 172 33
 444 002c 3B68     		ldr	r3, [r7]
 445 002e 03FB03F3 		mul	r3, r3, r3
 446              		.loc 1 172 9
 447 0032 1344     		add	r3, r3, r2
 448 0034 1846     		mov	r0, r3
 449 0036 FFF7FEFF 		bl	VL53L0X_isqrt
 450 003a F860     		str	r0, [r7, #12]
 451              	.L29:
 173:Drivers/VL53L0X/core/src/vl53l0x_api_core.c **** 
 174:Drivers/VL53L0X/core/src/vl53l0x_api_core.c **** 	return res;
 452              		.loc 1 174 9
 453 003c FB68     		ldr	r3, [r7, #12]
 175:Drivers/VL53L0X/core/src/vl53l0x_api_core.c **** }
 454              		.loc 1 175 1
 455 003e 1846     		mov	r0, r3
 456 0040 1037     		adds	r7, r7, #16
ARM GAS  C:\Users\Morroway\AppData\Local\Temp\ccKjJYc2.s 			page 12


 457              		.cfi_def_cfa_offset 8
 458 0042 BD46     		mov	sp, r7
 459              		.cfi_def_cfa_register 13
 460              		@ sp needed
 461 0044 80BD     		pop	{r7, pc}
 462              		.cfi_endproc
 463              	.LFE329:
 465              		.section	.text.VL53L0X_device_read_strobe,"ax",%progbits
 466              		.align	1
 467              		.global	VL53L0X_device_read_strobe
 468              		.syntax unified
 469              		.thumb
 470              		.thumb_func
 472              	VL53L0X_device_read_strobe:
 473              	.LFB330:
 176:Drivers/VL53L0X/core/src/vl53l0x_api_core.c **** 
 177:Drivers/VL53L0X/core/src/vl53l0x_api_core.c **** 
 178:Drivers/VL53L0X/core/src/vl53l0x_api_core.c **** VL53L0X_Error VL53L0X_device_read_strobe(VL53L0X_DEV Dev)
 179:Drivers/VL53L0X/core/src/vl53l0x_api_core.c **** {
 474              		.loc 1 179 1
 475              		.cfi_startproc
 476              		@ args = 0, pretend = 0, frame = 24
 477              		@ frame_needed = 1, uses_anonymous_args = 0
 478 0000 80B5     		push	{r7, lr}
 479              		.cfi_def_cfa_offset 8
 480              		.cfi_offset 7, -8
 481              		.cfi_offset 14, -4
 482 0002 86B0     		sub	sp, sp, #24
 483              		.cfi_def_cfa_offset 32
 484 0004 00AF     		add	r7, sp, #0
 485              		.cfi_def_cfa_register 7
 486 0006 7860     		str	r0, [r7, #4]
 180:Drivers/VL53L0X/core/src/vl53l0x_api_core.c **** 	VL53L0X_Error Status = VL53L0X_ERROR_NONE;
 487              		.loc 1 180 16
 488 0008 0023     		movs	r3, #0
 489 000a FB75     		strb	r3, [r7, #23]
 181:Drivers/VL53L0X/core/src/vl53l0x_api_core.c **** 	uint8_t strobe;
 182:Drivers/VL53L0X/core/src/vl53l0x_api_core.c **** 	uint32_t LoopNb;
 183:Drivers/VL53L0X/core/src/vl53l0x_api_core.c **** 	LOG_FUNCTION_START("");
 184:Drivers/VL53L0X/core/src/vl53l0x_api_core.c **** 
 185:Drivers/VL53L0X/core/src/vl53l0x_api_core.c **** 	Status |= VL53L0X_WrByte(Dev, 0x83, 0x00);
 490              		.loc 1 185 12
 491 000c 0022     		movs	r2, #0
 492 000e 8321     		movs	r1, #131
 493 0010 7868     		ldr	r0, [r7, #4]
 494 0012 FFF7FEFF 		bl	VL53L0X_WrByte
 495 0016 0346     		mov	r3, r0
 496 0018 1A46     		mov	r2, r3
 497              		.loc 1 185 9
 498 001a FB7D     		ldrb	r3, [r7, #23]
 499 001c 1343     		orrs	r3, r3, r2
 500 001e FB75     		strb	r3, [r7, #23]
 186:Drivers/VL53L0X/core/src/vl53l0x_api_core.c **** 
 187:Drivers/VL53L0X/core/src/vl53l0x_api_core.c **** 	/* polling
 188:Drivers/VL53L0X/core/src/vl53l0x_api_core.c **** 	 * use timeout to avoid deadlock*/
 189:Drivers/VL53L0X/core/src/vl53l0x_api_core.c **** 	if (Status == VL53L0X_ERROR_NONE) {
 501              		.loc 1 189 5
ARM GAS  C:\Users\Morroway\AppData\Local\Temp\ccKjJYc2.s 			page 13


 502 0020 97F91730 		ldrsb	r3, [r7, #23]
 503 0024 002B     		cmp	r3, #0
 504 0026 1ED1     		bne	.L32
 190:Drivers/VL53L0X/core/src/vl53l0x_api_core.c **** 		LoopNb = 0;
 505              		.loc 1 190 10
 506 0028 0023     		movs	r3, #0
 507 002a 3B61     		str	r3, [r7, #16]
 508              	.L34:
 191:Drivers/VL53L0X/core/src/vl53l0x_api_core.c **** 		do {
 192:Drivers/VL53L0X/core/src/vl53l0x_api_core.c **** 			Status = VL53L0X_RdByte(Dev, 0x83, &strobe);
 509              		.loc 1 192 13
 510 002c 07F10F03 		add	r3, r7, #15
 511 0030 1A46     		mov	r2, r3
 512 0032 8321     		movs	r1, #131
 513 0034 7868     		ldr	r0, [r7, #4]
 514 0036 FFF7FEFF 		bl	VL53L0X_RdByte
 515 003a 0346     		mov	r3, r0
 516 003c FB75     		strb	r3, [r7, #23]
 193:Drivers/VL53L0X/core/src/vl53l0x_api_core.c **** 			if ((strobe != 0x00) || Status != VL53L0X_ERROR_NONE)
 517              		.loc 1 193 16
 518 003e FB7B     		ldrb	r3, [r7, #15]	@ zero_extendqisi2
 519              		.loc 1 193 7
 520 0040 002B     		cmp	r3, #0
 521 0042 0AD1     		bne	.L33
 522              		.loc 1 193 25 discriminator 1
 523 0044 97F91730 		ldrsb	r3, [r7, #23]
 524 0048 002B     		cmp	r3, #0
 525 004a 06D1     		bne	.L33
 194:Drivers/VL53L0X/core/src/vl53l0x_api_core.c **** 					break;
 195:Drivers/VL53L0X/core/src/vl53l0x_api_core.c **** 
 196:Drivers/VL53L0X/core/src/vl53l0x_api_core.c **** 			LoopNb = LoopNb + 1;
 526              		.loc 1 196 11
 527 004c 3B69     		ldr	r3, [r7, #16]
 528 004e 0133     		adds	r3, r3, #1
 529 0050 3B61     		str	r3, [r7, #16]
 197:Drivers/VL53L0X/core/src/vl53l0x_api_core.c **** 		} while (LoopNb < VL53L0X_DEFAULT_MAX_LOOP);
 530              		.loc 1 197 19
 531 0052 3B69     		ldr	r3, [r7, #16]
 532 0054 B3F5FA6F 		cmp	r3, #2000
 533 0058 E8D3     		bcc	.L34
 534              	.L33:
 198:Drivers/VL53L0X/core/src/vl53l0x_api_core.c **** 
 199:Drivers/VL53L0X/core/src/vl53l0x_api_core.c **** 		if (LoopNb >= VL53L0X_DEFAULT_MAX_LOOP)
 535              		.loc 1 199 6
 536 005a 3B69     		ldr	r3, [r7, #16]
 537 005c B3F5FA6F 		cmp	r3, #2000
 538 0060 01D3     		bcc	.L32
 200:Drivers/VL53L0X/core/src/vl53l0x_api_core.c **** 			Status = VL53L0X_ERROR_TIME_OUT;
 539              		.loc 1 200 11
 540 0062 F923     		movs	r3, #249
 541 0064 FB75     		strb	r3, [r7, #23]
 542              	.L32:
 201:Drivers/VL53L0X/core/src/vl53l0x_api_core.c **** 
 202:Drivers/VL53L0X/core/src/vl53l0x_api_core.c **** 	}
 203:Drivers/VL53L0X/core/src/vl53l0x_api_core.c **** 
 204:Drivers/VL53L0X/core/src/vl53l0x_api_core.c **** 	Status |= VL53L0X_WrByte(Dev, 0x83, 0x01);
 543              		.loc 1 204 12
ARM GAS  C:\Users\Morroway\AppData\Local\Temp\ccKjJYc2.s 			page 14


 544 0066 0122     		movs	r2, #1
 545 0068 8321     		movs	r1, #131
 546 006a 7868     		ldr	r0, [r7, #4]
 547 006c FFF7FEFF 		bl	VL53L0X_WrByte
 548 0070 0346     		mov	r3, r0
 549 0072 1A46     		mov	r2, r3
 550              		.loc 1 204 9
 551 0074 FB7D     		ldrb	r3, [r7, #23]
 552 0076 1343     		orrs	r3, r3, r2
 553 0078 FB75     		strb	r3, [r7, #23]
 205:Drivers/VL53L0X/core/src/vl53l0x_api_core.c **** 
 206:Drivers/VL53L0X/core/src/vl53l0x_api_core.c **** 	LOG_FUNCTION_END(Status);
 207:Drivers/VL53L0X/core/src/vl53l0x_api_core.c **** 	return Status;
 554              		.loc 1 207 9
 555 007a 97F91730 		ldrsb	r3, [r7, #23]
 208:Drivers/VL53L0X/core/src/vl53l0x_api_core.c **** 
 209:Drivers/VL53L0X/core/src/vl53l0x_api_core.c **** }
 556              		.loc 1 209 1
 557 007e 1846     		mov	r0, r3
 558 0080 1837     		adds	r7, r7, #24
 559              		.cfi_def_cfa_offset 8
 560 0082 BD46     		mov	sp, r7
 561              		.cfi_def_cfa_register 13
 562              		@ sp needed
 563 0084 80BD     		pop	{r7, pc}
 564              		.cfi_endproc
 565              	.LFE330:
 567              		.section	.text.VL53L0X_get_info_from_device,"ax",%progbits
 568              		.align	1
 569              		.global	VL53L0X_get_info_from_device
 570              		.syntax unified
 571              		.thumb
 572              		.thumb_func
 574              	VL53L0X_get_info_from_device:
 575              	.LFB331:
 210:Drivers/VL53L0X/core/src/vl53l0x_api_core.c **** 
 211:Drivers/VL53L0X/core/src/vl53l0x_api_core.c **** VL53L0X_Error VL53L0X_get_info_from_device(VL53L0X_DEV Dev, uint8_t option)
 212:Drivers/VL53L0X/core/src/vl53l0x_api_core.c **** {
 576              		.loc 1 212 1
 577              		.cfi_startproc
 578              		@ args = 0, pretend = 0, frame = 96
 579              		@ frame_needed = 1, uses_anonymous_args = 0
 580 0000 80B5     		push	{r7, lr}
 581              		.cfi_def_cfa_offset 8
 582              		.cfi_offset 7, -8
 583              		.cfi_offset 14, -4
 584 0002 98B0     		sub	sp, sp, #96
 585              		.cfi_def_cfa_offset 104
 586 0004 00AF     		add	r7, sp, #0
 587              		.cfi_def_cfa_register 7
 588 0006 7860     		str	r0, [r7, #4]
 589 0008 0B46     		mov	r3, r1
 590 000a FB70     		strb	r3, [r7, #3]
 213:Drivers/VL53L0X/core/src/vl53l0x_api_core.c **** 
 214:Drivers/VL53L0X/core/src/vl53l0x_api_core.c **** 	VL53L0X_Error Status = VL53L0X_ERROR_NONE;
 591              		.loc 1 214 16
 592 000c 0023     		movs	r3, #0
ARM GAS  C:\Users\Morroway\AppData\Local\Temp\ccKjJYc2.s 			page 15


 593 000e 87F85F30 		strb	r3, [r7, #95]
 215:Drivers/VL53L0X/core/src/vl53l0x_api_core.c **** 	uint8_t byte;
 216:Drivers/VL53L0X/core/src/vl53l0x_api_core.c **** 	uint32_t TmpDWord;
 217:Drivers/VL53L0X/core/src/vl53l0x_api_core.c **** 	uint8_t ModuleId;
 218:Drivers/VL53L0X/core/src/vl53l0x_api_core.c **** 	uint8_t Revision;
 219:Drivers/VL53L0X/core/src/vl53l0x_api_core.c **** 	uint8_t ReferenceSpadCount = 0;
 594              		.loc 1 219 10
 595 0012 0023     		movs	r3, #0
 596 0014 87F85E30 		strb	r3, [r7, #94]
 220:Drivers/VL53L0X/core/src/vl53l0x_api_core.c **** 	uint8_t ReferenceSpadType = 0;
 597              		.loc 1 220 10
 598 0018 0023     		movs	r3, #0
 599 001a 87F85D30 		strb	r3, [r7, #93]
 221:Drivers/VL53L0X/core/src/vl53l0x_api_core.c **** 	uint32_t PartUIDUpper = 0;
 600              		.loc 1 221 11
 601 001e 0023     		movs	r3, #0
 602 0020 BB62     		str	r3, [r7, #40]
 222:Drivers/VL53L0X/core/src/vl53l0x_api_core.c **** 	uint32_t PartUIDLower = 0;
 603              		.loc 1 222 11
 604 0022 0023     		movs	r3, #0
 605 0024 7B62     		str	r3, [r7, #36]
 223:Drivers/VL53L0X/core/src/vl53l0x_api_core.c **** 	uint32_t OffsetFixed1104_mm = 0;
 606              		.loc 1 223 11
 607 0026 0023     		movs	r3, #0
 608 0028 BB64     		str	r3, [r7, #72]
 224:Drivers/VL53L0X/core/src/vl53l0x_api_core.c **** 	int16_t OffsetMicroMeters = 0;
 609              		.loc 1 224 10
 610 002a 0023     		movs	r3, #0
 611 002c A7F85A30 		strh	r3, [r7, #90]	@ movhi
 225:Drivers/VL53L0X/core/src/vl53l0x_api_core.c **** 	uint32_t DistMeasTgtFixed1104_mm = 400 << 4;
 612              		.loc 1 225 11
 613 0030 4FF4C853 		mov	r3, #6400
 614 0034 7B64     		str	r3, [r7, #68]
 226:Drivers/VL53L0X/core/src/vl53l0x_api_core.c **** 	uint32_t DistMeasFixed1104_400_mm = 0;
 615              		.loc 1 226 11
 616 0036 0023     		movs	r3, #0
 617 0038 7B65     		str	r3, [r7, #84]
 227:Drivers/VL53L0X/core/src/vl53l0x_api_core.c **** 	uint32_t SignalRateMeasFixed1104_400_mm = 0;
 618              		.loc 1 227 11
 619 003a 0023     		movs	r3, #0
 620 003c 3B65     		str	r3, [r7, #80]
 228:Drivers/VL53L0X/core/src/vl53l0x_api_core.c **** 	char ProductId[19];
 229:Drivers/VL53L0X/core/src/vl53l0x_api_core.c **** 	char *ProductId_tmp;
 230:Drivers/VL53L0X/core/src/vl53l0x_api_core.c **** 	uint8_t ReadDataFromDeviceDone;
 231:Drivers/VL53L0X/core/src/vl53l0x_api_core.c **** 	FixPoint1616_t SignalRateMeasFixed400mmFix = 0;
 621              		.loc 1 231 17
 622 003e 0023     		movs	r3, #0
 623 0040 3B64     		str	r3, [r7, #64]
 232:Drivers/VL53L0X/core/src/vl53l0x_api_core.c **** 	uint8_t NvmRefGoodSpadMap[VL53L0X_REF_SPAD_BUFFER_SIZE];
 233:Drivers/VL53L0X/core/src/vl53l0x_api_core.c **** 	int i;
 234:Drivers/VL53L0X/core/src/vl53l0x_api_core.c **** 
 235:Drivers/VL53L0X/core/src/vl53l0x_api_core.c **** 
 236:Drivers/VL53L0X/core/src/vl53l0x_api_core.c **** 	LOG_FUNCTION_START("");
 237:Drivers/VL53L0X/core/src/vl53l0x_api_core.c **** 
 238:Drivers/VL53L0X/core/src/vl53l0x_api_core.c **** 	ReadDataFromDeviceDone = VL53L0X_GETDEVICESPECIFICPARAMETER(Dev,
 624              		.loc 1 238 25
 625 0042 7B68     		ldr	r3, [r7, #4]
ARM GAS  C:\Users\Morroway\AppData\Local\Temp\ccKjJYc2.s 			page 16


 626 0044 93F8F030 		ldrb	r3, [r3, #240]
 627 0048 87F83F30 		strb	r3, [r7, #63]
 239:Drivers/VL53L0X/core/src/vl53l0x_api_core.c **** 			ReadDataFromDeviceDone);
 240:Drivers/VL53L0X/core/src/vl53l0x_api_core.c **** 
 241:Drivers/VL53L0X/core/src/vl53l0x_api_core.c **** 	/* This access is done only once after that a GetDeviceInfo or
 242:Drivers/VL53L0X/core/src/vl53l0x_api_core.c **** 	 * datainit is done*/
 243:Drivers/VL53L0X/core/src/vl53l0x_api_core.c **** 	if (ReadDataFromDeviceDone != 7) {
 628              		.loc 1 243 5
 629 004c 97F83F30 		ldrb	r3, [r7, #63]	@ zero_extendqisi2
 630 0050 072B     		cmp	r3, #7
 631 0052 00F00884 		beq	.L37
 244:Drivers/VL53L0X/core/src/vl53l0x_api_core.c **** 
 245:Drivers/VL53L0X/core/src/vl53l0x_api_core.c **** 		Status |= VL53L0X_WrByte(Dev, 0x80, 0x01);
 632              		.loc 1 245 13
 633 0056 0122     		movs	r2, #1
 634 0058 8021     		movs	r1, #128
 635 005a 7868     		ldr	r0, [r7, #4]
 636 005c FFF7FEFF 		bl	VL53L0X_WrByte
 637 0060 0346     		mov	r3, r0
 638 0062 1A46     		mov	r2, r3
 639              		.loc 1 245 10
 640 0064 97F85F30 		ldrb	r3, [r7, #95]
 641 0068 1343     		orrs	r3, r3, r2
 642 006a 87F85F30 		strb	r3, [r7, #95]
 246:Drivers/VL53L0X/core/src/vl53l0x_api_core.c **** 		Status |= VL53L0X_WrByte(Dev, 0xFF, 0x01);
 643              		.loc 1 246 13
 644 006e 0122     		movs	r2, #1
 645 0070 FF21     		movs	r1, #255
 646 0072 7868     		ldr	r0, [r7, #4]
 647 0074 FFF7FEFF 		bl	VL53L0X_WrByte
 648 0078 0346     		mov	r3, r0
 649 007a 1A46     		mov	r2, r3
 650              		.loc 1 246 10
 651 007c 97F85F30 		ldrb	r3, [r7, #95]
 652 0080 1343     		orrs	r3, r3, r2
 653 0082 87F85F30 		strb	r3, [r7, #95]
 247:Drivers/VL53L0X/core/src/vl53l0x_api_core.c **** 		Status |= VL53L0X_WrByte(Dev, 0x00, 0x00);
 654              		.loc 1 247 13
 655 0086 0022     		movs	r2, #0
 656 0088 0021     		movs	r1, #0
 657 008a 7868     		ldr	r0, [r7, #4]
 658 008c FFF7FEFF 		bl	VL53L0X_WrByte
 659 0090 0346     		mov	r3, r0
 660 0092 1A46     		mov	r2, r3
 661              		.loc 1 247 10
 662 0094 97F85F30 		ldrb	r3, [r7, #95]
 663 0098 1343     		orrs	r3, r3, r2
 664 009a 87F85F30 		strb	r3, [r7, #95]
 248:Drivers/VL53L0X/core/src/vl53l0x_api_core.c **** 
 249:Drivers/VL53L0X/core/src/vl53l0x_api_core.c **** 		Status |= VL53L0X_WrByte(Dev, 0xFF, 0x06);
 665              		.loc 1 249 13
 666 009e 0622     		movs	r2, #6
 667 00a0 FF21     		movs	r1, #255
 668 00a2 7868     		ldr	r0, [r7, #4]
 669 00a4 FFF7FEFF 		bl	VL53L0X_WrByte
 670 00a8 0346     		mov	r3, r0
 671 00aa 1A46     		mov	r2, r3
ARM GAS  C:\Users\Morroway\AppData\Local\Temp\ccKjJYc2.s 			page 17


 672              		.loc 1 249 10
 673 00ac 97F85F30 		ldrb	r3, [r7, #95]
 674 00b0 1343     		orrs	r3, r3, r2
 675 00b2 87F85F30 		strb	r3, [r7, #95]
 250:Drivers/VL53L0X/core/src/vl53l0x_api_core.c **** 		Status |= VL53L0X_RdByte(Dev, 0x83, &byte);
 676              		.loc 1 250 13
 677 00b6 07F13703 		add	r3, r7, #55
 678 00ba 1A46     		mov	r2, r3
 679 00bc 8321     		movs	r1, #131
 680 00be 7868     		ldr	r0, [r7, #4]
 681 00c0 FFF7FEFF 		bl	VL53L0X_RdByte
 682 00c4 0346     		mov	r3, r0
 683 00c6 1A46     		mov	r2, r3
 684              		.loc 1 250 10
 685 00c8 97F85F30 		ldrb	r3, [r7, #95]
 686 00cc 1343     		orrs	r3, r3, r2
 687 00ce 87F85F30 		strb	r3, [r7, #95]
 251:Drivers/VL53L0X/core/src/vl53l0x_api_core.c **** 		Status |= VL53L0X_WrByte(Dev, 0x83, byte|4);
 688              		.loc 1 251 13
 689 00d2 97F83730 		ldrb	r3, [r7, #55]	@ zero_extendqisi2
 690 00d6 43F00403 		orr	r3, r3, #4
 691 00da DBB2     		uxtb	r3, r3
 692 00dc 1A46     		mov	r2, r3
 693 00de 8321     		movs	r1, #131
 694 00e0 7868     		ldr	r0, [r7, #4]
 695 00e2 FFF7FEFF 		bl	VL53L0X_WrByte
 696 00e6 0346     		mov	r3, r0
 697 00e8 1A46     		mov	r2, r3
 698              		.loc 1 251 10
 699 00ea 97F85F30 		ldrb	r3, [r7, #95]
 700 00ee 1343     		orrs	r3, r3, r2
 701 00f0 87F85F30 		strb	r3, [r7, #95]
 252:Drivers/VL53L0X/core/src/vl53l0x_api_core.c **** 		Status |= VL53L0X_WrByte(Dev, 0xFF, 0x07);
 702              		.loc 1 252 13
 703 00f4 0722     		movs	r2, #7
 704 00f6 FF21     		movs	r1, #255
 705 00f8 7868     		ldr	r0, [r7, #4]
 706 00fa FFF7FEFF 		bl	VL53L0X_WrByte
 707 00fe 0346     		mov	r3, r0
 708 0100 1A46     		mov	r2, r3
 709              		.loc 1 252 10
 710 0102 97F85F30 		ldrb	r3, [r7, #95]
 711 0106 1343     		orrs	r3, r3, r2
 712 0108 87F85F30 		strb	r3, [r7, #95]
 253:Drivers/VL53L0X/core/src/vl53l0x_api_core.c **** 		Status |= VL53L0X_WrByte(Dev, 0x81, 0x01);
 713              		.loc 1 253 13
 714 010c 0122     		movs	r2, #1
 715 010e 8121     		movs	r1, #129
 716 0110 7868     		ldr	r0, [r7, #4]
 717 0112 FFF7FEFF 		bl	VL53L0X_WrByte
 718 0116 0346     		mov	r3, r0
 719 0118 1A46     		mov	r2, r3
 720              		.loc 1 253 10
 721 011a 97F85F30 		ldrb	r3, [r7, #95]
 722 011e 1343     		orrs	r3, r3, r2
 723 0120 87F85F30 		strb	r3, [r7, #95]
 254:Drivers/VL53L0X/core/src/vl53l0x_api_core.c **** 
ARM GAS  C:\Users\Morroway\AppData\Local\Temp\ccKjJYc2.s 			page 18


 255:Drivers/VL53L0X/core/src/vl53l0x_api_core.c **** 		Status |= VL53L0X_PollingDelay(Dev);
 724              		.loc 1 255 13
 725 0124 7868     		ldr	r0, [r7, #4]
 726 0126 FFF7FEFF 		bl	VL53L0X_PollingDelay
 727 012a 0346     		mov	r3, r0
 728 012c 1A46     		mov	r2, r3
 729              		.loc 1 255 10
 730 012e 97F85F30 		ldrb	r3, [r7, #95]
 731 0132 1343     		orrs	r3, r3, r2
 732 0134 87F85F30 		strb	r3, [r7, #95]
 256:Drivers/VL53L0X/core/src/vl53l0x_api_core.c **** 
 257:Drivers/VL53L0X/core/src/vl53l0x_api_core.c **** 		Status |= VL53L0X_WrByte(Dev, 0x80, 0x01);
 733              		.loc 1 257 13
 734 0138 0122     		movs	r2, #1
 735 013a 8021     		movs	r1, #128
 736 013c 7868     		ldr	r0, [r7, #4]
 737 013e FFF7FEFF 		bl	VL53L0X_WrByte
 738 0142 0346     		mov	r3, r0
 739 0144 1A46     		mov	r2, r3
 740              		.loc 1 257 10
 741 0146 97F85F30 		ldrb	r3, [r7, #95]
 742 014a 1343     		orrs	r3, r3, r2
 743 014c 87F85F30 		strb	r3, [r7, #95]
 258:Drivers/VL53L0X/core/src/vl53l0x_api_core.c **** 
 259:Drivers/VL53L0X/core/src/vl53l0x_api_core.c **** 		if (((option & 1) == 1) &&
 744              		.loc 1 259 16
 745 0150 FB78     		ldrb	r3, [r7, #3]	@ zero_extendqisi2
 746 0152 03F00103 		and	r3, r3, #1
 747              		.loc 1 259 6
 748 0156 002B     		cmp	r3, #0
 749 0158 00F09880 		beq	.L38
 260:Drivers/VL53L0X/core/src/vl53l0x_api_core.c **** 			((ReadDataFromDeviceDone & 1) == 0)) {
 750              		.loc 1 260 29 discriminator 1
 751 015c 97F83F30 		ldrb	r3, [r7, #63]	@ zero_extendqisi2
 752 0160 03F00103 		and	r3, r3, #1
 259:Drivers/VL53L0X/core/src/vl53l0x_api_core.c **** 			((ReadDataFromDeviceDone & 1) == 0)) {
 753              		.loc 1 259 27 discriminator 1
 754 0164 002B     		cmp	r3, #0
 755 0166 40F09180 		bne	.L38
 261:Drivers/VL53L0X/core/src/vl53l0x_api_core.c **** 			Status |= VL53L0X_WrByte(Dev, 0x94, 0x6b);
 756              		.loc 1 261 14
 757 016a 6B22     		movs	r2, #107
 758 016c 9421     		movs	r1, #148
 759 016e 7868     		ldr	r0, [r7, #4]
 760 0170 FFF7FEFF 		bl	VL53L0X_WrByte
 761 0174 0346     		mov	r3, r0
 762 0176 1A46     		mov	r2, r3
 763              		.loc 1 261 11
 764 0178 97F85F30 		ldrb	r3, [r7, #95]
 765 017c 1343     		orrs	r3, r3, r2
 766 017e 87F85F30 		strb	r3, [r7, #95]
 262:Drivers/VL53L0X/core/src/vl53l0x_api_core.c **** 			Status |= VL53L0X_device_read_strobe(Dev);
 767              		.loc 1 262 14
 768 0182 7868     		ldr	r0, [r7, #4]
 769 0184 FFF7FEFF 		bl	VL53L0X_device_read_strobe
 770 0188 0346     		mov	r3, r0
 771 018a 1A46     		mov	r2, r3
ARM GAS  C:\Users\Morroway\AppData\Local\Temp\ccKjJYc2.s 			page 19


 772              		.loc 1 262 11
 773 018c 97F85F30 		ldrb	r3, [r7, #95]
 774 0190 1343     		orrs	r3, r3, r2
 775 0192 87F85F30 		strb	r3, [r7, #95]
 263:Drivers/VL53L0X/core/src/vl53l0x_api_core.c **** 			Status |= VL53L0X_RdDWord(Dev, 0x90, &TmpDWord);
 776              		.loc 1 263 14
 777 0196 07F13003 		add	r3, r7, #48
 778 019a 1A46     		mov	r2, r3
 779 019c 9021     		movs	r1, #144
 780 019e 7868     		ldr	r0, [r7, #4]
 781 01a0 FFF7FEFF 		bl	VL53L0X_RdDWord
 782 01a4 0346     		mov	r3, r0
 783 01a6 1A46     		mov	r2, r3
 784              		.loc 1 263 11
 785 01a8 97F85F30 		ldrb	r3, [r7, #95]
 786 01ac 1343     		orrs	r3, r3, r2
 787 01ae 87F85F30 		strb	r3, [r7, #95]
 264:Drivers/VL53L0X/core/src/vl53l0x_api_core.c **** 
 265:Drivers/VL53L0X/core/src/vl53l0x_api_core.c **** 			ReferenceSpadCount = (uint8_t)((TmpDWord >> 8) & 0x07f);
 788              		.loc 1 265 45
 789 01b2 3B6B     		ldr	r3, [r7, #48]
 790 01b4 1B0A     		lsrs	r3, r3, #8
 791              		.loc 1 265 25
 792 01b6 DBB2     		uxtb	r3, r3
 793              		.loc 1 265 23
 794 01b8 03F07F03 		and	r3, r3, #127
 795 01bc 87F85E30 		strb	r3, [r7, #94]
 266:Drivers/VL53L0X/core/src/vl53l0x_api_core.c **** 			ReferenceSpadType  = (uint8_t)((TmpDWord >> 15) & 0x01);
 796              		.loc 1 266 45
 797 01c0 3B6B     		ldr	r3, [r7, #48]
 798 01c2 DB0B     		lsrs	r3, r3, #15
 799              		.loc 1 266 25
 800 01c4 DBB2     		uxtb	r3, r3
 801              		.loc 1 266 23
 802 01c6 03F00103 		and	r3, r3, #1
 803 01ca 87F85D30 		strb	r3, [r7, #93]
 267:Drivers/VL53L0X/core/src/vl53l0x_api_core.c **** 
 268:Drivers/VL53L0X/core/src/vl53l0x_api_core.c **** 			Status |= VL53L0X_WrByte(Dev, 0x94, 0x24);
 804              		.loc 1 268 14
 805 01ce 2422     		movs	r2, #36
 806 01d0 9421     		movs	r1, #148
 807 01d2 7868     		ldr	r0, [r7, #4]
 808 01d4 FFF7FEFF 		bl	VL53L0X_WrByte
 809 01d8 0346     		mov	r3, r0
 810 01da 1A46     		mov	r2, r3
 811              		.loc 1 268 11
 812 01dc 97F85F30 		ldrb	r3, [r7, #95]
 813 01e0 1343     		orrs	r3, r3, r2
 814 01e2 87F85F30 		strb	r3, [r7, #95]
 269:Drivers/VL53L0X/core/src/vl53l0x_api_core.c **** 			Status |= VL53L0X_device_read_strobe(Dev);
 815              		.loc 1 269 14
 816 01e6 7868     		ldr	r0, [r7, #4]
 817 01e8 FFF7FEFF 		bl	VL53L0X_device_read_strobe
 818 01ec 0346     		mov	r3, r0
 819 01ee 1A46     		mov	r2, r3
 820              		.loc 1 269 11
 821 01f0 97F85F30 		ldrb	r3, [r7, #95]
ARM GAS  C:\Users\Morroway\AppData\Local\Temp\ccKjJYc2.s 			page 20


 822 01f4 1343     		orrs	r3, r3, r2
 823 01f6 87F85F30 		strb	r3, [r7, #95]
 270:Drivers/VL53L0X/core/src/vl53l0x_api_core.c **** 			Status |= VL53L0X_RdDWord(Dev, 0x90, &TmpDWord);
 824              		.loc 1 270 14
 825 01fa 07F13003 		add	r3, r7, #48
 826 01fe 1A46     		mov	r2, r3
 827 0200 9021     		movs	r1, #144
 828 0202 7868     		ldr	r0, [r7, #4]
 829 0204 FFF7FEFF 		bl	VL53L0X_RdDWord
 830 0208 0346     		mov	r3, r0
 831 020a 1A46     		mov	r2, r3
 832              		.loc 1 270 11
 833 020c 97F85F30 		ldrb	r3, [r7, #95]
 834 0210 1343     		orrs	r3, r3, r2
 835 0212 87F85F30 		strb	r3, [r7, #95]
 271:Drivers/VL53L0X/core/src/vl53l0x_api_core.c **** 
 272:Drivers/VL53L0X/core/src/vl53l0x_api_core.c **** 
 273:Drivers/VL53L0X/core/src/vl53l0x_api_core.c **** 			NvmRefGoodSpadMap[0] = (uint8_t)((TmpDWord >> 24)
 836              		.loc 1 273 47
 837 0216 3B6B     		ldr	r3, [r7, #48]
 838 0218 1B0E     		lsrs	r3, r3, #24
 839              		.loc 1 273 27
 840 021a DBB2     		uxtb	r3, r3
 841              		.loc 1 273 25
 842 021c 3B72     		strb	r3, [r7, #8]
 274:Drivers/VL53L0X/core/src/vl53l0x_api_core.c **** 				& 0xff);
 275:Drivers/VL53L0X/core/src/vl53l0x_api_core.c **** 			NvmRefGoodSpadMap[1] = (uint8_t)((TmpDWord >> 16)
 843              		.loc 1 275 47
 844 021e 3B6B     		ldr	r3, [r7, #48]
 845 0220 1B0C     		lsrs	r3, r3, #16
 846              		.loc 1 275 27
 847 0222 DBB2     		uxtb	r3, r3
 848              		.loc 1 275 25
 849 0224 7B72     		strb	r3, [r7, #9]
 276:Drivers/VL53L0X/core/src/vl53l0x_api_core.c **** 				& 0xff);
 277:Drivers/VL53L0X/core/src/vl53l0x_api_core.c **** 			NvmRefGoodSpadMap[2] = (uint8_t)((TmpDWord >> 8)
 850              		.loc 1 277 47
 851 0226 3B6B     		ldr	r3, [r7, #48]
 852 0228 1B0A     		lsrs	r3, r3, #8
 853              		.loc 1 277 27
 854 022a DBB2     		uxtb	r3, r3
 855              		.loc 1 277 25
 856 022c BB72     		strb	r3, [r7, #10]
 278:Drivers/VL53L0X/core/src/vl53l0x_api_core.c **** 				& 0xff);
 279:Drivers/VL53L0X/core/src/vl53l0x_api_core.c **** 			NvmRefGoodSpadMap[3] = (uint8_t)(TmpDWord & 0xff);
 857              		.loc 1 279 27
 858 022e 3B6B     		ldr	r3, [r7, #48]
 859 0230 DBB2     		uxtb	r3, r3
 860              		.loc 1 279 25
 861 0232 FB72     		strb	r3, [r7, #11]
 280:Drivers/VL53L0X/core/src/vl53l0x_api_core.c **** 
 281:Drivers/VL53L0X/core/src/vl53l0x_api_core.c **** 			Status |= VL53L0X_WrByte(Dev, 0x94, 0x25);
 862              		.loc 1 281 14
 863 0234 2522     		movs	r2, #37
 864 0236 9421     		movs	r1, #148
 865 0238 7868     		ldr	r0, [r7, #4]
 866 023a FFF7FEFF 		bl	VL53L0X_WrByte
ARM GAS  C:\Users\Morroway\AppData\Local\Temp\ccKjJYc2.s 			page 21


 867 023e 0346     		mov	r3, r0
 868 0240 1A46     		mov	r2, r3
 869              		.loc 1 281 11
 870 0242 97F85F30 		ldrb	r3, [r7, #95]
 871 0246 1343     		orrs	r3, r3, r2
 872 0248 87F85F30 		strb	r3, [r7, #95]
 282:Drivers/VL53L0X/core/src/vl53l0x_api_core.c **** 			Status |= VL53L0X_device_read_strobe(Dev);
 873              		.loc 1 282 14
 874 024c 7868     		ldr	r0, [r7, #4]
 875 024e FFF7FEFF 		bl	VL53L0X_device_read_strobe
 876 0252 0346     		mov	r3, r0
 877 0254 1A46     		mov	r2, r3
 878              		.loc 1 282 11
 879 0256 97F85F30 		ldrb	r3, [r7, #95]
 880 025a 1343     		orrs	r3, r3, r2
 881 025c 87F85F30 		strb	r3, [r7, #95]
 283:Drivers/VL53L0X/core/src/vl53l0x_api_core.c **** 			Status |= VL53L0X_RdDWord(Dev, 0x90, &TmpDWord);
 882              		.loc 1 283 14
 883 0260 07F13003 		add	r3, r7, #48
 884 0264 1A46     		mov	r2, r3
 885 0266 9021     		movs	r1, #144
 886 0268 7868     		ldr	r0, [r7, #4]
 887 026a FFF7FEFF 		bl	VL53L0X_RdDWord
 888 026e 0346     		mov	r3, r0
 889 0270 1A46     		mov	r2, r3
 890              		.loc 1 283 11
 891 0272 97F85F30 		ldrb	r3, [r7, #95]
 892 0276 1343     		orrs	r3, r3, r2
 893 0278 87F85F30 		strb	r3, [r7, #95]
 284:Drivers/VL53L0X/core/src/vl53l0x_api_core.c **** 
 285:Drivers/VL53L0X/core/src/vl53l0x_api_core.c **** 			NvmRefGoodSpadMap[4] = (uint8_t)((TmpDWord >> 24)
 894              		.loc 1 285 47
 895 027c 3B6B     		ldr	r3, [r7, #48]
 896 027e 1B0E     		lsrs	r3, r3, #24
 897              		.loc 1 285 27
 898 0280 DBB2     		uxtb	r3, r3
 899              		.loc 1 285 25
 900 0282 3B73     		strb	r3, [r7, #12]
 286:Drivers/VL53L0X/core/src/vl53l0x_api_core.c **** 				& 0xff);
 287:Drivers/VL53L0X/core/src/vl53l0x_api_core.c **** 			NvmRefGoodSpadMap[5] = (uint8_t)((TmpDWord >> 16)
 901              		.loc 1 287 47
 902 0284 3B6B     		ldr	r3, [r7, #48]
 903 0286 1B0C     		lsrs	r3, r3, #16
 904              		.loc 1 287 27
 905 0288 DBB2     		uxtb	r3, r3
 906              		.loc 1 287 25
 907 028a 7B73     		strb	r3, [r7, #13]
 908              	.L38:
 288:Drivers/VL53L0X/core/src/vl53l0x_api_core.c **** 				& 0xff);
 289:Drivers/VL53L0X/core/src/vl53l0x_api_core.c **** 		}
 290:Drivers/VL53L0X/core/src/vl53l0x_api_core.c **** 
 291:Drivers/VL53L0X/core/src/vl53l0x_api_core.c **** 		if (((option & 2) == 2) &&
 909              		.loc 1 291 16
 910 028c FB78     		ldrb	r3, [r7, #3]	@ zero_extendqisi2
 911 028e 03F00203 		and	r3, r3, #2
 912              		.loc 1 291 6
 913 0292 002B     		cmp	r3, #0
ARM GAS  C:\Users\Morroway\AppData\Local\Temp\ccKjJYc2.s 			page 22


 914 0294 00F08981 		beq	.L39
 292:Drivers/VL53L0X/core/src/vl53l0x_api_core.c **** 			((ReadDataFromDeviceDone & 2) == 0)) {
 915              		.loc 1 292 29 discriminator 1
 916 0298 97F83F30 		ldrb	r3, [r7, #63]	@ zero_extendqisi2
 917 029c 03F00203 		and	r3, r3, #2
 291:Drivers/VL53L0X/core/src/vl53l0x_api_core.c **** 			((ReadDataFromDeviceDone & 2) == 0)) {
 918              		.loc 1 291 27 discriminator 1
 919 02a0 002B     		cmp	r3, #0
 920 02a2 40F08281 		bne	.L39
 293:Drivers/VL53L0X/core/src/vl53l0x_api_core.c **** 
 294:Drivers/VL53L0X/core/src/vl53l0x_api_core.c **** 			Status |= VL53L0X_WrByte(Dev, 0x94, 0x02);
 921              		.loc 1 294 14
 922 02a6 0222     		movs	r2, #2
 923 02a8 9421     		movs	r1, #148
 924 02aa 7868     		ldr	r0, [r7, #4]
 925 02ac FFF7FEFF 		bl	VL53L0X_WrByte
 926 02b0 0346     		mov	r3, r0
 927 02b2 1A46     		mov	r2, r3
 928              		.loc 1 294 11
 929 02b4 97F85F30 		ldrb	r3, [r7, #95]
 930 02b8 1343     		orrs	r3, r3, r2
 931 02ba 87F85F30 		strb	r3, [r7, #95]
 295:Drivers/VL53L0X/core/src/vl53l0x_api_core.c **** 			Status |= VL53L0X_device_read_strobe(Dev);
 932              		.loc 1 295 14
 933 02be 7868     		ldr	r0, [r7, #4]
 934 02c0 FFF7FEFF 		bl	VL53L0X_device_read_strobe
 935 02c4 0346     		mov	r3, r0
 936 02c6 1A46     		mov	r2, r3
 937              		.loc 1 295 11
 938 02c8 97F85F30 		ldrb	r3, [r7, #95]
 939 02cc 1343     		orrs	r3, r3, r2
 940 02ce 87F85F30 		strb	r3, [r7, #95]
 296:Drivers/VL53L0X/core/src/vl53l0x_api_core.c **** 			Status |= VL53L0X_RdByte(Dev, 0x90, &ModuleId);
 941              		.loc 1 296 14
 942 02d2 07F12F03 		add	r3, r7, #47
 943 02d6 1A46     		mov	r2, r3
 944 02d8 9021     		movs	r1, #144
 945 02da 7868     		ldr	r0, [r7, #4]
 946 02dc FFF7FEFF 		bl	VL53L0X_RdByte
 947 02e0 0346     		mov	r3, r0
 948 02e2 1A46     		mov	r2, r3
 949              		.loc 1 296 11
 950 02e4 97F85F30 		ldrb	r3, [r7, #95]
 951 02e8 1343     		orrs	r3, r3, r2
 952 02ea 87F85F30 		strb	r3, [r7, #95]
 297:Drivers/VL53L0X/core/src/vl53l0x_api_core.c **** 
 298:Drivers/VL53L0X/core/src/vl53l0x_api_core.c **** 			Status |= VL53L0X_WrByte(Dev, 0x94, 0x7B);
 953              		.loc 1 298 14
 954 02ee 7B22     		movs	r2, #123
 955 02f0 9421     		movs	r1, #148
 956 02f2 7868     		ldr	r0, [r7, #4]
 957 02f4 FFF7FEFF 		bl	VL53L0X_WrByte
 958 02f8 0346     		mov	r3, r0
 959 02fa 1A46     		mov	r2, r3
 960              		.loc 1 298 11
 961 02fc 97F85F30 		ldrb	r3, [r7, #95]
 962 0300 1343     		orrs	r3, r3, r2
ARM GAS  C:\Users\Morroway\AppData\Local\Temp\ccKjJYc2.s 			page 23


 963 0302 87F85F30 		strb	r3, [r7, #95]
 299:Drivers/VL53L0X/core/src/vl53l0x_api_core.c **** 			Status |= VL53L0X_device_read_strobe(Dev);
 964              		.loc 1 299 14
 965 0306 7868     		ldr	r0, [r7, #4]
 966 0308 FFF7FEFF 		bl	VL53L0X_device_read_strobe
 967 030c 0346     		mov	r3, r0
 968 030e 1A46     		mov	r2, r3
 969              		.loc 1 299 11
 970 0310 97F85F30 		ldrb	r3, [r7, #95]
 971 0314 1343     		orrs	r3, r3, r2
 972 0316 87F85F30 		strb	r3, [r7, #95]
 300:Drivers/VL53L0X/core/src/vl53l0x_api_core.c **** 			Status |= VL53L0X_RdByte(Dev, 0x90, &Revision);
 973              		.loc 1 300 14
 974 031a 07F12E03 		add	r3, r7, #46
 975 031e 1A46     		mov	r2, r3
 976 0320 9021     		movs	r1, #144
 977 0322 7868     		ldr	r0, [r7, #4]
 978 0324 FFF7FEFF 		bl	VL53L0X_RdByte
 979 0328 0346     		mov	r3, r0
 980 032a 1A46     		mov	r2, r3
 981              		.loc 1 300 11
 982 032c 97F85F30 		ldrb	r3, [r7, #95]
 983 0330 1343     		orrs	r3, r3, r2
 984 0332 87F85F30 		strb	r3, [r7, #95]
 301:Drivers/VL53L0X/core/src/vl53l0x_api_core.c **** 
 302:Drivers/VL53L0X/core/src/vl53l0x_api_core.c **** 			Status |= VL53L0X_WrByte(Dev, 0x94, 0x77);
 985              		.loc 1 302 14
 986 0336 7722     		movs	r2, #119
 987 0338 9421     		movs	r1, #148
 988 033a 7868     		ldr	r0, [r7, #4]
 989 033c FFF7FEFF 		bl	VL53L0X_WrByte
 990 0340 0346     		mov	r3, r0
 991 0342 1A46     		mov	r2, r3
 992              		.loc 1 302 11
 993 0344 97F85F30 		ldrb	r3, [r7, #95]
 994 0348 1343     		orrs	r3, r3, r2
 995 034a 87F85F30 		strb	r3, [r7, #95]
 303:Drivers/VL53L0X/core/src/vl53l0x_api_core.c **** 			Status |= VL53L0X_device_read_strobe(Dev);
 996              		.loc 1 303 14
 997 034e 7868     		ldr	r0, [r7, #4]
 998 0350 FFF7FEFF 		bl	VL53L0X_device_read_strobe
 999 0354 0346     		mov	r3, r0
 1000 0356 1A46     		mov	r2, r3
 1001              		.loc 1 303 11
 1002 0358 97F85F30 		ldrb	r3, [r7, #95]
 1003 035c 1343     		orrs	r3, r3, r2
 1004 035e 87F85F30 		strb	r3, [r7, #95]
 304:Drivers/VL53L0X/core/src/vl53l0x_api_core.c **** 			Status |= VL53L0X_RdDWord(Dev, 0x90, &TmpDWord);
 1005              		.loc 1 304 14
 1006 0362 07F13003 		add	r3, r7, #48
 1007 0366 1A46     		mov	r2, r3
 1008 0368 9021     		movs	r1, #144
 1009 036a 7868     		ldr	r0, [r7, #4]
 1010 036c FFF7FEFF 		bl	VL53L0X_RdDWord
 1011 0370 0346     		mov	r3, r0
 1012 0372 1A46     		mov	r2, r3
 1013              		.loc 1 304 11
ARM GAS  C:\Users\Morroway\AppData\Local\Temp\ccKjJYc2.s 			page 24


 1014 0374 97F85F30 		ldrb	r3, [r7, #95]
 1015 0378 1343     		orrs	r3, r3, r2
 1016 037a 87F85F30 		strb	r3, [r7, #95]
 305:Drivers/VL53L0X/core/src/vl53l0x_api_core.c **** 
 306:Drivers/VL53L0X/core/src/vl53l0x_api_core.c **** 			ProductId[0] = (char)((TmpDWord >> 25) & 0x07f);
 1017              		.loc 1 306 36
 1018 037e 3B6B     		ldr	r3, [r7, #48]
 1019 0380 5B0E     		lsrs	r3, r3, #25
 1020              		.loc 1 306 19
 1021 0382 DBB2     		uxtb	r3, r3
 1022 0384 03F07F03 		and	r3, r3, #127
 1023 0388 DBB2     		uxtb	r3, r3
 1024              		.loc 1 306 17
 1025 038a 3B74     		strb	r3, [r7, #16]
 307:Drivers/VL53L0X/core/src/vl53l0x_api_core.c **** 			ProductId[1] = (char)((TmpDWord >> 18) & 0x07f);
 1026              		.loc 1 307 36
 1027 038c 3B6B     		ldr	r3, [r7, #48]
 1028 038e 9B0C     		lsrs	r3, r3, #18
 1029              		.loc 1 307 19
 1030 0390 DBB2     		uxtb	r3, r3
 1031 0392 03F07F03 		and	r3, r3, #127
 1032 0396 DBB2     		uxtb	r3, r3
 1033              		.loc 1 307 17
 1034 0398 7B74     		strb	r3, [r7, #17]
 308:Drivers/VL53L0X/core/src/vl53l0x_api_core.c **** 			ProductId[2] = (char)((TmpDWord >> 11) & 0x07f);
 1035              		.loc 1 308 36
 1036 039a 3B6B     		ldr	r3, [r7, #48]
 1037 039c DB0A     		lsrs	r3, r3, #11
 1038              		.loc 1 308 19
 1039 039e DBB2     		uxtb	r3, r3
 1040 03a0 03F07F03 		and	r3, r3, #127
 1041 03a4 DBB2     		uxtb	r3, r3
 1042              		.loc 1 308 17
 1043 03a6 BB74     		strb	r3, [r7, #18]
 309:Drivers/VL53L0X/core/src/vl53l0x_api_core.c **** 			ProductId[3] = (char)((TmpDWord >> 4) & 0x07f);
 1044              		.loc 1 309 36
 1045 03a8 3B6B     		ldr	r3, [r7, #48]
 1046 03aa 1B09     		lsrs	r3, r3, #4
 1047              		.loc 1 309 19
 1048 03ac DBB2     		uxtb	r3, r3
 1049 03ae 03F07F03 		and	r3, r3, #127
 1050 03b2 DBB2     		uxtb	r3, r3
 1051              		.loc 1 309 17
 1052 03b4 FB74     		strb	r3, [r7, #19]
 310:Drivers/VL53L0X/core/src/vl53l0x_api_core.c **** 
 311:Drivers/VL53L0X/core/src/vl53l0x_api_core.c **** 			byte = (uint8_t)((TmpDWord & 0x00f) << 3);
 1053              		.loc 1 311 40
 1054 03b6 3B6B     		ldr	r3, [r7, #48]
 1055 03b8 DBB2     		uxtb	r3, r3
 1056 03ba DB00     		lsls	r3, r3, #3
 1057 03bc DBB2     		uxtb	r3, r3
 1058              		.loc 1 311 11
 1059 03be 03F07803 		and	r3, r3, #120
 1060 03c2 DBB2     		uxtb	r3, r3
 1061              		.loc 1 311 9
 1062 03c4 87F83730 		strb	r3, [r7, #55]
 312:Drivers/VL53L0X/core/src/vl53l0x_api_core.c **** 
ARM GAS  C:\Users\Morroway\AppData\Local\Temp\ccKjJYc2.s 			page 25


 313:Drivers/VL53L0X/core/src/vl53l0x_api_core.c **** 			Status |= VL53L0X_WrByte(Dev, 0x94, 0x78);
 1063              		.loc 1 313 14
 1064 03c8 7822     		movs	r2, #120
 1065 03ca 9421     		movs	r1, #148
 1066 03cc 7868     		ldr	r0, [r7, #4]
 1067 03ce FFF7FEFF 		bl	VL53L0X_WrByte
 1068 03d2 0346     		mov	r3, r0
 1069 03d4 1A46     		mov	r2, r3
 1070              		.loc 1 313 11
 1071 03d6 97F85F30 		ldrb	r3, [r7, #95]
 1072 03da 1343     		orrs	r3, r3, r2
 1073 03dc 87F85F30 		strb	r3, [r7, #95]
 314:Drivers/VL53L0X/core/src/vl53l0x_api_core.c **** 			Status |= VL53L0X_device_read_strobe(Dev);
 1074              		.loc 1 314 14
 1075 03e0 7868     		ldr	r0, [r7, #4]
 1076 03e2 FFF7FEFF 		bl	VL53L0X_device_read_strobe
 1077 03e6 0346     		mov	r3, r0
 1078 03e8 1A46     		mov	r2, r3
 1079              		.loc 1 314 11
 1080 03ea 97F85F30 		ldrb	r3, [r7, #95]
 1081 03ee 1343     		orrs	r3, r3, r2
 1082 03f0 87F85F30 		strb	r3, [r7, #95]
 315:Drivers/VL53L0X/core/src/vl53l0x_api_core.c **** 			Status |= VL53L0X_RdDWord(Dev, 0x90, &TmpDWord);
 1083              		.loc 1 315 14
 1084 03f4 07F13003 		add	r3, r7, #48
 1085 03f8 1A46     		mov	r2, r3
 1086 03fa 9021     		movs	r1, #144
 1087 03fc 7868     		ldr	r0, [r7, #4]
 1088 03fe FFF7FEFF 		bl	VL53L0X_RdDWord
 1089 0402 0346     		mov	r3, r0
 1090 0404 1A46     		mov	r2, r3
 1091              		.loc 1 315 11
 1092 0406 97F85F30 		ldrb	r3, [r7, #95]
 1093 040a 1343     		orrs	r3, r3, r2
 1094 040c 87F85F30 		strb	r3, [r7, #95]
 316:Drivers/VL53L0X/core/src/vl53l0x_api_core.c **** 
 317:Drivers/VL53L0X/core/src/vl53l0x_api_core.c **** 			ProductId[4] = (char)(byte +
 318:Drivers/VL53L0X/core/src/vl53l0x_api_core.c **** 					((TmpDWord >> 29) & 0x07f));
 1095              		.loc 1 318 17
 1096 0410 3B6B     		ldr	r3, [r7, #48]
 1097 0412 5B0F     		lsrs	r3, r3, #29
 1098              		.loc 1 318 24
 1099 0414 DBB2     		uxtb	r3, r3
 1100 0416 03F07F03 		and	r3, r3, #127
 1101 041a DAB2     		uxtb	r2, r3
 317:Drivers/VL53L0X/core/src/vl53l0x_api_core.c **** 					((TmpDWord >> 29) & 0x07f));
 1102              		.loc 1 317 19
 1103 041c 97F83730 		ldrb	r3, [r7, #55]	@ zero_extendqisi2
 1104 0420 1344     		add	r3, r3, r2
 1105 0422 DBB2     		uxtb	r3, r3
 317:Drivers/VL53L0X/core/src/vl53l0x_api_core.c **** 					((TmpDWord >> 29) & 0x07f));
 1106              		.loc 1 317 17
 1107 0424 3B75     		strb	r3, [r7, #20]
 319:Drivers/VL53L0X/core/src/vl53l0x_api_core.c **** 			ProductId[5] = (char)((TmpDWord >> 22) & 0x07f);
 1108              		.loc 1 319 36
 1109 0426 3B6B     		ldr	r3, [r7, #48]
 1110 0428 9B0D     		lsrs	r3, r3, #22
ARM GAS  C:\Users\Morroway\AppData\Local\Temp\ccKjJYc2.s 			page 26


 1111              		.loc 1 319 19
 1112 042a DBB2     		uxtb	r3, r3
 1113 042c 03F07F03 		and	r3, r3, #127
 1114 0430 DBB2     		uxtb	r3, r3
 1115              		.loc 1 319 17
 1116 0432 7B75     		strb	r3, [r7, #21]
 320:Drivers/VL53L0X/core/src/vl53l0x_api_core.c **** 			ProductId[6] = (char)((TmpDWord >> 15) & 0x07f);
 1117              		.loc 1 320 36
 1118 0434 3B6B     		ldr	r3, [r7, #48]
 1119 0436 DB0B     		lsrs	r3, r3, #15
 1120              		.loc 1 320 19
 1121 0438 DBB2     		uxtb	r3, r3
 1122 043a 03F07F03 		and	r3, r3, #127
 1123 043e DBB2     		uxtb	r3, r3
 1124              		.loc 1 320 17
 1125 0440 BB75     		strb	r3, [r7, #22]
 321:Drivers/VL53L0X/core/src/vl53l0x_api_core.c **** 			ProductId[7] = (char)((TmpDWord >> 8) & 0x07f);
 1126              		.loc 1 321 36
 1127 0442 3B6B     		ldr	r3, [r7, #48]
 1128 0444 1B0A     		lsrs	r3, r3, #8
 1129              		.loc 1 321 19
 1130 0446 DBB2     		uxtb	r3, r3
 1131 0448 03F07F03 		and	r3, r3, #127
 1132 044c DBB2     		uxtb	r3, r3
 1133              		.loc 1 321 17
 1134 044e FB75     		strb	r3, [r7, #23]
 322:Drivers/VL53L0X/core/src/vl53l0x_api_core.c **** 			ProductId[8] = (char)((TmpDWord >> 1) & 0x07f);
 1135              		.loc 1 322 36
 1136 0450 3B6B     		ldr	r3, [r7, #48]
 1137 0452 5B08     		lsrs	r3, r3, #1
 1138              		.loc 1 322 19
 1139 0454 DBB2     		uxtb	r3, r3
 1140 0456 03F07F03 		and	r3, r3, #127
 1141 045a DBB2     		uxtb	r3, r3
 1142              		.loc 1 322 17
 1143 045c 3B76     		strb	r3, [r7, #24]
 323:Drivers/VL53L0X/core/src/vl53l0x_api_core.c **** 
 324:Drivers/VL53L0X/core/src/vl53l0x_api_core.c **** 			byte = (uint8_t)((TmpDWord & 0x001) << 6);
 1144              		.loc 1 324 40
 1145 045e 3B6B     		ldr	r3, [r7, #48]
 1146 0460 DBB2     		uxtb	r3, r3
 1147 0462 9B01     		lsls	r3, r3, #6
 1148 0464 DBB2     		uxtb	r3, r3
 1149              		.loc 1 324 11
 1150 0466 03F04003 		and	r3, r3, #64
 1151 046a DBB2     		uxtb	r3, r3
 1152              		.loc 1 324 9
 1153 046c 87F83730 		strb	r3, [r7, #55]
 325:Drivers/VL53L0X/core/src/vl53l0x_api_core.c **** 
 326:Drivers/VL53L0X/core/src/vl53l0x_api_core.c **** 			Status |= VL53L0X_WrByte(Dev, 0x94, 0x79);
 1154              		.loc 1 326 14
 1155 0470 7922     		movs	r2, #121
 1156 0472 9421     		movs	r1, #148
 1157 0474 7868     		ldr	r0, [r7, #4]
 1158 0476 FFF7FEFF 		bl	VL53L0X_WrByte
 1159 047a 0346     		mov	r3, r0
 1160 047c 1A46     		mov	r2, r3
ARM GAS  C:\Users\Morroway\AppData\Local\Temp\ccKjJYc2.s 			page 27


 1161              		.loc 1 326 11
 1162 047e 97F85F30 		ldrb	r3, [r7, #95]
 1163 0482 1343     		orrs	r3, r3, r2
 1164 0484 87F85F30 		strb	r3, [r7, #95]
 327:Drivers/VL53L0X/core/src/vl53l0x_api_core.c **** 
 328:Drivers/VL53L0X/core/src/vl53l0x_api_core.c **** 			Status |= VL53L0X_device_read_strobe(Dev);
 1165              		.loc 1 328 14
 1166 0488 7868     		ldr	r0, [r7, #4]
 1167 048a FFF7FEFF 		bl	VL53L0X_device_read_strobe
 1168 048e 0346     		mov	r3, r0
 1169 0490 1A46     		mov	r2, r3
 1170              		.loc 1 328 11
 1171 0492 97F85F30 		ldrb	r3, [r7, #95]
 1172 0496 1343     		orrs	r3, r3, r2
 1173 0498 87F85F30 		strb	r3, [r7, #95]
 329:Drivers/VL53L0X/core/src/vl53l0x_api_core.c **** 
 330:Drivers/VL53L0X/core/src/vl53l0x_api_core.c **** 			Status |= VL53L0X_RdDWord(Dev, 0x90, &TmpDWord);
 1174              		.loc 1 330 14
 1175 049c 07F13003 		add	r3, r7, #48
 1176 04a0 1A46     		mov	r2, r3
 1177 04a2 9021     		movs	r1, #144
 1178 04a4 7868     		ldr	r0, [r7, #4]
 1179 04a6 FFF7FEFF 		bl	VL53L0X_RdDWord
 1180 04aa 0346     		mov	r3, r0
 1181 04ac 1A46     		mov	r2, r3
 1182              		.loc 1 330 11
 1183 04ae 97F85F30 		ldrb	r3, [r7, #95]
 1184 04b2 1343     		orrs	r3, r3, r2
 1185 04b4 87F85F30 		strb	r3, [r7, #95]
 331:Drivers/VL53L0X/core/src/vl53l0x_api_core.c **** 
 332:Drivers/VL53L0X/core/src/vl53l0x_api_core.c **** 			ProductId[9] = (char)(byte +
 333:Drivers/VL53L0X/core/src/vl53l0x_api_core.c **** 					((TmpDWord >> 26) & 0x07f));
 1186              		.loc 1 333 17
 1187 04b8 3B6B     		ldr	r3, [r7, #48]
 1188 04ba 9B0E     		lsrs	r3, r3, #26
 1189              		.loc 1 333 24
 1190 04bc DBB2     		uxtb	r3, r3
 1191 04be 03F07F03 		and	r3, r3, #127
 1192 04c2 DAB2     		uxtb	r2, r3
 332:Drivers/VL53L0X/core/src/vl53l0x_api_core.c **** 					((TmpDWord >> 26) & 0x07f));
 1193              		.loc 1 332 19
 1194 04c4 97F83730 		ldrb	r3, [r7, #55]	@ zero_extendqisi2
 1195 04c8 1344     		add	r3, r3, r2
 1196 04ca DBB2     		uxtb	r3, r3
 332:Drivers/VL53L0X/core/src/vl53l0x_api_core.c **** 					((TmpDWord >> 26) & 0x07f));
 1197              		.loc 1 332 17
 1198 04cc 7B76     		strb	r3, [r7, #25]
 334:Drivers/VL53L0X/core/src/vl53l0x_api_core.c **** 			ProductId[10] = (char)((TmpDWord >> 19) & 0x07f);
 1199              		.loc 1 334 37
 1200 04ce 3B6B     		ldr	r3, [r7, #48]
 1201 04d0 DB0C     		lsrs	r3, r3, #19
 1202              		.loc 1 334 20
 1203 04d2 DBB2     		uxtb	r3, r3
 1204 04d4 03F07F03 		and	r3, r3, #127
 1205 04d8 DBB2     		uxtb	r3, r3
 1206              		.loc 1 334 18
 1207 04da BB76     		strb	r3, [r7, #26]
ARM GAS  C:\Users\Morroway\AppData\Local\Temp\ccKjJYc2.s 			page 28


 335:Drivers/VL53L0X/core/src/vl53l0x_api_core.c **** 			ProductId[11] = (char)((TmpDWord >> 12) & 0x07f);
 1208              		.loc 1 335 37
 1209 04dc 3B6B     		ldr	r3, [r7, #48]
 1210 04de 1B0B     		lsrs	r3, r3, #12
 1211              		.loc 1 335 20
 1212 04e0 DBB2     		uxtb	r3, r3
 1213 04e2 03F07F03 		and	r3, r3, #127
 1214 04e6 DBB2     		uxtb	r3, r3
 1215              		.loc 1 335 18
 1216 04e8 FB76     		strb	r3, [r7, #27]
 336:Drivers/VL53L0X/core/src/vl53l0x_api_core.c **** 			ProductId[12] = (char)((TmpDWord >> 5) & 0x07f);
 1217              		.loc 1 336 37
 1218 04ea 3B6B     		ldr	r3, [r7, #48]
 1219 04ec 5B09     		lsrs	r3, r3, #5
 1220              		.loc 1 336 20
 1221 04ee DBB2     		uxtb	r3, r3
 1222 04f0 03F07F03 		and	r3, r3, #127
 1223 04f4 DBB2     		uxtb	r3, r3
 1224              		.loc 1 336 18
 1225 04f6 3B77     		strb	r3, [r7, #28]
 337:Drivers/VL53L0X/core/src/vl53l0x_api_core.c **** 
 338:Drivers/VL53L0X/core/src/vl53l0x_api_core.c **** 			byte = (uint8_t)((TmpDWord & 0x01f) << 2);
 1226              		.loc 1 338 40
 1227 04f8 3B6B     		ldr	r3, [r7, #48]
 1228 04fa DBB2     		uxtb	r3, r3
 1229 04fc 9B00     		lsls	r3, r3, #2
 1230 04fe DBB2     		uxtb	r3, r3
 1231              		.loc 1 338 11
 1232 0500 03F07C03 		and	r3, r3, #124
 1233 0504 DBB2     		uxtb	r3, r3
 1234              		.loc 1 338 9
 1235 0506 87F83730 		strb	r3, [r7, #55]
 339:Drivers/VL53L0X/core/src/vl53l0x_api_core.c **** 
 340:Drivers/VL53L0X/core/src/vl53l0x_api_core.c **** 			Status |= VL53L0X_WrByte(Dev, 0x94, 0x7A);
 1236              		.loc 1 340 14
 1237 050a 7A22     		movs	r2, #122
 1238 050c 9421     		movs	r1, #148
 1239 050e 7868     		ldr	r0, [r7, #4]
 1240 0510 FFF7FEFF 		bl	VL53L0X_WrByte
 1241 0514 0346     		mov	r3, r0
 1242 0516 1A46     		mov	r2, r3
 1243              		.loc 1 340 11
 1244 0518 97F85F30 		ldrb	r3, [r7, #95]
 1245 051c 1343     		orrs	r3, r3, r2
 1246 051e 87F85F30 		strb	r3, [r7, #95]
 341:Drivers/VL53L0X/core/src/vl53l0x_api_core.c **** 
 342:Drivers/VL53L0X/core/src/vl53l0x_api_core.c **** 			Status |= VL53L0X_device_read_strobe(Dev);
 1247              		.loc 1 342 14
 1248 0522 7868     		ldr	r0, [r7, #4]
 1249 0524 FFF7FEFF 		bl	VL53L0X_device_read_strobe
 1250 0528 0346     		mov	r3, r0
 1251 052a 1A46     		mov	r2, r3
 1252              		.loc 1 342 11
 1253 052c 97F85F30 		ldrb	r3, [r7, #95]
 1254 0530 1343     		orrs	r3, r3, r2
 1255 0532 87F85F30 		strb	r3, [r7, #95]
 343:Drivers/VL53L0X/core/src/vl53l0x_api_core.c **** 
ARM GAS  C:\Users\Morroway\AppData\Local\Temp\ccKjJYc2.s 			page 29


 344:Drivers/VL53L0X/core/src/vl53l0x_api_core.c **** 			Status |= VL53L0X_RdDWord(Dev, 0x90, &TmpDWord);
 1256              		.loc 1 344 14
 1257 0536 07F13003 		add	r3, r7, #48
 1258 053a 1A46     		mov	r2, r3
 1259 053c 9021     		movs	r1, #144
 1260 053e 7868     		ldr	r0, [r7, #4]
 1261 0540 FFF7FEFF 		bl	VL53L0X_RdDWord
 1262 0544 0346     		mov	r3, r0
 1263 0546 1A46     		mov	r2, r3
 1264              		.loc 1 344 11
 1265 0548 97F85F30 		ldrb	r3, [r7, #95]
 1266 054c 1343     		orrs	r3, r3, r2
 1267 054e 87F85F30 		strb	r3, [r7, #95]
 345:Drivers/VL53L0X/core/src/vl53l0x_api_core.c **** 
 346:Drivers/VL53L0X/core/src/vl53l0x_api_core.c **** 			ProductId[13] = (char)(byte +
 347:Drivers/VL53L0X/core/src/vl53l0x_api_core.c **** 					((TmpDWord >> 30) & 0x07f));
 1268              		.loc 1 347 17
 1269 0552 3B6B     		ldr	r3, [r7, #48]
 1270 0554 9B0F     		lsrs	r3, r3, #30
 1271              		.loc 1 347 24
 1272 0556 DBB2     		uxtb	r3, r3
 1273 0558 03F07F03 		and	r3, r3, #127
 1274 055c DAB2     		uxtb	r2, r3
 346:Drivers/VL53L0X/core/src/vl53l0x_api_core.c **** 					((TmpDWord >> 30) & 0x07f));
 1275              		.loc 1 346 20
 1276 055e 97F83730 		ldrb	r3, [r7, #55]	@ zero_extendqisi2
 1277 0562 1344     		add	r3, r3, r2
 1278 0564 DBB2     		uxtb	r3, r3
 346:Drivers/VL53L0X/core/src/vl53l0x_api_core.c **** 					((TmpDWord >> 30) & 0x07f));
 1279              		.loc 1 346 18
 1280 0566 7B77     		strb	r3, [r7, #29]
 348:Drivers/VL53L0X/core/src/vl53l0x_api_core.c **** 			ProductId[14] = (char)((TmpDWord >> 23) & 0x07f);
 1281              		.loc 1 348 37
 1282 0568 3B6B     		ldr	r3, [r7, #48]
 1283 056a DB0D     		lsrs	r3, r3, #23
 1284              		.loc 1 348 20
 1285 056c DBB2     		uxtb	r3, r3
 1286 056e 03F07F03 		and	r3, r3, #127
 1287 0572 DBB2     		uxtb	r3, r3
 1288              		.loc 1 348 18
 1289 0574 BB77     		strb	r3, [r7, #30]
 349:Drivers/VL53L0X/core/src/vl53l0x_api_core.c **** 			ProductId[15] = (char)((TmpDWord >> 16) & 0x07f);
 1290              		.loc 1 349 37
 1291 0576 3B6B     		ldr	r3, [r7, #48]
 1292 0578 1B0C     		lsrs	r3, r3, #16
 1293              		.loc 1 349 20
 1294 057a DBB2     		uxtb	r3, r3
 1295 057c 03F07F03 		and	r3, r3, #127
 1296 0580 DBB2     		uxtb	r3, r3
 1297              		.loc 1 349 18
 1298 0582 FB77     		strb	r3, [r7, #31]
 350:Drivers/VL53L0X/core/src/vl53l0x_api_core.c **** 			ProductId[16] = (char)((TmpDWord >> 9) & 0x07f);
 1299              		.loc 1 350 37
 1300 0584 3B6B     		ldr	r3, [r7, #48]
 1301 0586 5B0A     		lsrs	r3, r3, #9
 1302              		.loc 1 350 20
 1303 0588 DBB2     		uxtb	r3, r3
ARM GAS  C:\Users\Morroway\AppData\Local\Temp\ccKjJYc2.s 			page 30


 1304 058a 03F07F03 		and	r3, r3, #127
 1305 058e DBB2     		uxtb	r3, r3
 1306              		.loc 1 350 18
 1307 0590 87F82030 		strb	r3, [r7, #32]
 351:Drivers/VL53L0X/core/src/vl53l0x_api_core.c **** 			ProductId[17] = (char)((TmpDWord >> 2) & 0x07f);
 1308              		.loc 1 351 37
 1309 0594 3B6B     		ldr	r3, [r7, #48]
 1310 0596 9B08     		lsrs	r3, r3, #2
 1311              		.loc 1 351 20
 1312 0598 DBB2     		uxtb	r3, r3
 1313 059a 03F07F03 		and	r3, r3, #127
 1314 059e DBB2     		uxtb	r3, r3
 1315              		.loc 1 351 18
 1316 05a0 87F82130 		strb	r3, [r7, #33]
 352:Drivers/VL53L0X/core/src/vl53l0x_api_core.c **** 			ProductId[18] = '\0';
 1317              		.loc 1 352 18
 1318 05a4 0023     		movs	r3, #0
 1319 05a6 87F82230 		strb	r3, [r7, #34]
 1320              	.L39:
 353:Drivers/VL53L0X/core/src/vl53l0x_api_core.c **** 
 354:Drivers/VL53L0X/core/src/vl53l0x_api_core.c **** 		}
 355:Drivers/VL53L0X/core/src/vl53l0x_api_core.c **** 
 356:Drivers/VL53L0X/core/src/vl53l0x_api_core.c **** 		if (((option & 4) == 4) &&
 1321              		.loc 1 356 16
 1322 05aa FB78     		ldrb	r3, [r7, #3]	@ zero_extendqisi2
 1323 05ac 03F00403 		and	r3, r3, #4
 1324              		.loc 1 356 6
 1325 05b0 002B     		cmp	r3, #0
 1326 05b2 00F0F180 		beq	.L40
 357:Drivers/VL53L0X/core/src/vl53l0x_api_core.c **** 			((ReadDataFromDeviceDone & 4) == 0)) {
 1327              		.loc 1 357 29 discriminator 1
 1328 05b6 97F83F30 		ldrb	r3, [r7, #63]	@ zero_extendqisi2
 1329 05ba 03F00403 		and	r3, r3, #4
 356:Drivers/VL53L0X/core/src/vl53l0x_api_core.c **** 			((ReadDataFromDeviceDone & 4) == 0)) {
 1330              		.loc 1 356 27 discriminator 1
 1331 05be 002B     		cmp	r3, #0
 1332 05c0 40F0EA80 		bne	.L40
 358:Drivers/VL53L0X/core/src/vl53l0x_api_core.c **** 
 359:Drivers/VL53L0X/core/src/vl53l0x_api_core.c **** 			Status |= VL53L0X_WrByte(Dev, 0x94, 0x7B);
 1333              		.loc 1 359 14
 1334 05c4 7B22     		movs	r2, #123
 1335 05c6 9421     		movs	r1, #148
 1336 05c8 7868     		ldr	r0, [r7, #4]
 1337 05ca FFF7FEFF 		bl	VL53L0X_WrByte
 1338 05ce 0346     		mov	r3, r0
 1339 05d0 1A46     		mov	r2, r3
 1340              		.loc 1 359 11
 1341 05d2 97F85F30 		ldrb	r3, [r7, #95]
 1342 05d6 1343     		orrs	r3, r3, r2
 1343 05d8 87F85F30 		strb	r3, [r7, #95]
 360:Drivers/VL53L0X/core/src/vl53l0x_api_core.c **** 			Status |= VL53L0X_device_read_strobe(Dev);
 1344              		.loc 1 360 14
 1345 05dc 7868     		ldr	r0, [r7, #4]
 1346 05de FFF7FEFF 		bl	VL53L0X_device_read_strobe
 1347 05e2 0346     		mov	r3, r0
 1348 05e4 1A46     		mov	r2, r3
 1349              		.loc 1 360 11
ARM GAS  C:\Users\Morroway\AppData\Local\Temp\ccKjJYc2.s 			page 31


 1350 05e6 97F85F30 		ldrb	r3, [r7, #95]
 1351 05ea 1343     		orrs	r3, r3, r2
 1352 05ec 87F85F30 		strb	r3, [r7, #95]
 361:Drivers/VL53L0X/core/src/vl53l0x_api_core.c **** 			Status |= VL53L0X_RdDWord(Dev, 0x90, &PartUIDUpper);
 1353              		.loc 1 361 14
 1354 05f0 07F12803 		add	r3, r7, #40
 1355 05f4 1A46     		mov	r2, r3
 1356 05f6 9021     		movs	r1, #144
 1357 05f8 7868     		ldr	r0, [r7, #4]
 1358 05fa FFF7FEFF 		bl	VL53L0X_RdDWord
 1359 05fe 0346     		mov	r3, r0
 1360 0600 1A46     		mov	r2, r3
 1361              		.loc 1 361 11
 1362 0602 97F85F30 		ldrb	r3, [r7, #95]
 1363 0606 1343     		orrs	r3, r3, r2
 1364 0608 87F85F30 		strb	r3, [r7, #95]
 362:Drivers/VL53L0X/core/src/vl53l0x_api_core.c **** 
 363:Drivers/VL53L0X/core/src/vl53l0x_api_core.c **** 			Status |= VL53L0X_WrByte(Dev, 0x94, 0x7C);
 1365              		.loc 1 363 14
 1366 060c 7C22     		movs	r2, #124
 1367 060e 9421     		movs	r1, #148
 1368 0610 7868     		ldr	r0, [r7, #4]
 1369 0612 FFF7FEFF 		bl	VL53L0X_WrByte
 1370 0616 0346     		mov	r3, r0
 1371 0618 1A46     		mov	r2, r3
 1372              		.loc 1 363 11
 1373 061a 97F85F30 		ldrb	r3, [r7, #95]
 1374 061e 1343     		orrs	r3, r3, r2
 1375 0620 87F85F30 		strb	r3, [r7, #95]
 364:Drivers/VL53L0X/core/src/vl53l0x_api_core.c **** 			Status |= VL53L0X_device_read_strobe(Dev);
 1376              		.loc 1 364 14
 1377 0624 7868     		ldr	r0, [r7, #4]
 1378 0626 FFF7FEFF 		bl	VL53L0X_device_read_strobe
 1379 062a 0346     		mov	r3, r0
 1380 062c 1A46     		mov	r2, r3
 1381              		.loc 1 364 11
 1382 062e 97F85F30 		ldrb	r3, [r7, #95]
 1383 0632 1343     		orrs	r3, r3, r2
 1384 0634 87F85F30 		strb	r3, [r7, #95]
 365:Drivers/VL53L0X/core/src/vl53l0x_api_core.c **** 			Status |= VL53L0X_RdDWord(Dev, 0x90, &PartUIDLower);
 1385              		.loc 1 365 14
 1386 0638 07F12403 		add	r3, r7, #36
 1387 063c 1A46     		mov	r2, r3
 1388 063e 9021     		movs	r1, #144
 1389 0640 7868     		ldr	r0, [r7, #4]
 1390 0642 FFF7FEFF 		bl	VL53L0X_RdDWord
 1391 0646 0346     		mov	r3, r0
 1392 0648 1A46     		mov	r2, r3
 1393              		.loc 1 365 11
 1394 064a 97F85F30 		ldrb	r3, [r7, #95]
 1395 064e 1343     		orrs	r3, r3, r2
 1396 0650 87F85F30 		strb	r3, [r7, #95]
 366:Drivers/VL53L0X/core/src/vl53l0x_api_core.c **** 
 367:Drivers/VL53L0X/core/src/vl53l0x_api_core.c **** 			Status |= VL53L0X_WrByte(Dev, 0x94, 0x73);
 1397              		.loc 1 367 14
 1398 0654 7322     		movs	r2, #115
 1399 0656 9421     		movs	r1, #148
ARM GAS  C:\Users\Morroway\AppData\Local\Temp\ccKjJYc2.s 			page 32


 1400 0658 7868     		ldr	r0, [r7, #4]
 1401 065a FFF7FEFF 		bl	VL53L0X_WrByte
 1402 065e 0346     		mov	r3, r0
 1403 0660 1A46     		mov	r2, r3
 1404              		.loc 1 367 11
 1405 0662 97F85F30 		ldrb	r3, [r7, #95]
 1406 0666 1343     		orrs	r3, r3, r2
 1407 0668 87F85F30 		strb	r3, [r7, #95]
 368:Drivers/VL53L0X/core/src/vl53l0x_api_core.c **** 			Status |= VL53L0X_device_read_strobe(Dev);
 1408              		.loc 1 368 14
 1409 066c 7868     		ldr	r0, [r7, #4]
 1410 066e FFF7FEFF 		bl	VL53L0X_device_read_strobe
 1411 0672 0346     		mov	r3, r0
 1412 0674 1A46     		mov	r2, r3
 1413              		.loc 1 368 11
 1414 0676 97F85F30 		ldrb	r3, [r7, #95]
 1415 067a 1343     		orrs	r3, r3, r2
 1416 067c 87F85F30 		strb	r3, [r7, #95]
 369:Drivers/VL53L0X/core/src/vl53l0x_api_core.c **** 			Status |= VL53L0X_RdDWord(Dev, 0x90, &TmpDWord);
 1417              		.loc 1 369 14
 1418 0680 07F13003 		add	r3, r7, #48
 1419 0684 1A46     		mov	r2, r3
 1420 0686 9021     		movs	r1, #144
 1421 0688 7868     		ldr	r0, [r7, #4]
 1422 068a FFF7FEFF 		bl	VL53L0X_RdDWord
 1423 068e 0346     		mov	r3, r0
 1424 0690 1A46     		mov	r2, r3
 1425              		.loc 1 369 11
 1426 0692 97F85F30 		ldrb	r3, [r7, #95]
 1427 0696 1343     		orrs	r3, r3, r2
 1428 0698 87F85F30 		strb	r3, [r7, #95]
 370:Drivers/VL53L0X/core/src/vl53l0x_api_core.c **** 
 371:Drivers/VL53L0X/core/src/vl53l0x_api_core.c **** 			SignalRateMeasFixed1104_400_mm = (TmpDWord &
 372:Drivers/VL53L0X/core/src/vl53l0x_api_core.c **** 				0x0000000ff) << 8;
 1429              		.loc 1 372 18
 1430 069c 3B6B     		ldr	r3, [r7, #48]
 1431 069e 1B02     		lsls	r3, r3, #8
 371:Drivers/VL53L0X/core/src/vl53l0x_api_core.c **** 				0x0000000ff) << 8;
 1432              		.loc 1 371 35
 1433 06a0 9BB2     		uxth	r3, r3
 1434 06a2 3B65     		str	r3, [r7, #80]
 373:Drivers/VL53L0X/core/src/vl53l0x_api_core.c **** 
 374:Drivers/VL53L0X/core/src/vl53l0x_api_core.c **** 			Status |= VL53L0X_WrByte(Dev, 0x94, 0x74);
 1435              		.loc 1 374 14
 1436 06a4 7422     		movs	r2, #116
 1437 06a6 9421     		movs	r1, #148
 1438 06a8 7868     		ldr	r0, [r7, #4]
 1439 06aa FFF7FEFF 		bl	VL53L0X_WrByte
 1440 06ae 0346     		mov	r3, r0
 1441 06b0 1A46     		mov	r2, r3
 1442              		.loc 1 374 11
 1443 06b2 97F85F30 		ldrb	r3, [r7, #95]
 1444 06b6 1343     		orrs	r3, r3, r2
 1445 06b8 87F85F30 		strb	r3, [r7, #95]
 375:Drivers/VL53L0X/core/src/vl53l0x_api_core.c **** 			Status |= VL53L0X_device_read_strobe(Dev);
 1446              		.loc 1 375 14
 1447 06bc 7868     		ldr	r0, [r7, #4]
ARM GAS  C:\Users\Morroway\AppData\Local\Temp\ccKjJYc2.s 			page 33


 1448 06be FFF7FEFF 		bl	VL53L0X_device_read_strobe
 1449 06c2 0346     		mov	r3, r0
 1450 06c4 1A46     		mov	r2, r3
 1451              		.loc 1 375 11
 1452 06c6 97F85F30 		ldrb	r3, [r7, #95]
 1453 06ca 1343     		orrs	r3, r3, r2
 1454 06cc 87F85F30 		strb	r3, [r7, #95]
 376:Drivers/VL53L0X/core/src/vl53l0x_api_core.c **** 			Status |= VL53L0X_RdDWord(Dev, 0x90, &TmpDWord);
 1455              		.loc 1 376 14
 1456 06d0 07F13003 		add	r3, r7, #48
 1457 06d4 1A46     		mov	r2, r3
 1458 06d6 9021     		movs	r1, #144
 1459 06d8 7868     		ldr	r0, [r7, #4]
 1460 06da FFF7FEFF 		bl	VL53L0X_RdDWord
 1461 06de 0346     		mov	r3, r0
 1462 06e0 1A46     		mov	r2, r3
 1463              		.loc 1 376 11
 1464 06e2 97F85F30 		ldrb	r3, [r7, #95]
 1465 06e6 1343     		orrs	r3, r3, r2
 1466 06e8 87F85F30 		strb	r3, [r7, #95]
 377:Drivers/VL53L0X/core/src/vl53l0x_api_core.c **** 
 378:Drivers/VL53L0X/core/src/vl53l0x_api_core.c **** 			SignalRateMeasFixed1104_400_mm |= ((TmpDWord &
 379:Drivers/VL53L0X/core/src/vl53l0x_api_core.c **** 				0xff000000) >> 24);
 1467              		.loc 1 379 17
 1468 06ec 3B6B     		ldr	r3, [r7, #48]
 1469 06ee 1B0E     		lsrs	r3, r3, #24
 378:Drivers/VL53L0X/core/src/vl53l0x_api_core.c **** 				0xff000000) >> 24);
 1470              		.loc 1 378 35
 1471 06f0 3A6D     		ldr	r2, [r7, #80]
 1472 06f2 1343     		orrs	r3, r3, r2
 1473 06f4 3B65     		str	r3, [r7, #80]
 380:Drivers/VL53L0X/core/src/vl53l0x_api_core.c **** 
 381:Drivers/VL53L0X/core/src/vl53l0x_api_core.c **** 			Status |= VL53L0X_WrByte(Dev, 0x94, 0x75);
 1474              		.loc 1 381 14
 1475 06f6 7522     		movs	r2, #117
 1476 06f8 9421     		movs	r1, #148
 1477 06fa 7868     		ldr	r0, [r7, #4]
 1478 06fc FFF7FEFF 		bl	VL53L0X_WrByte
 1479 0700 0346     		mov	r3, r0
 1480 0702 1A46     		mov	r2, r3
 1481              		.loc 1 381 11
 1482 0704 97F85F30 		ldrb	r3, [r7, #95]
 1483 0708 1343     		orrs	r3, r3, r2
 1484 070a 87F85F30 		strb	r3, [r7, #95]
 382:Drivers/VL53L0X/core/src/vl53l0x_api_core.c **** 			Status |= VL53L0X_device_read_strobe(Dev);
 1485              		.loc 1 382 14
 1486 070e 7868     		ldr	r0, [r7, #4]
 1487 0710 FFF7FEFF 		bl	VL53L0X_device_read_strobe
 1488 0714 0346     		mov	r3, r0
 1489 0716 1A46     		mov	r2, r3
 1490              		.loc 1 382 11
 1491 0718 97F85F30 		ldrb	r3, [r7, #95]
 1492 071c 1343     		orrs	r3, r3, r2
 1493 071e 87F85F30 		strb	r3, [r7, #95]
 383:Drivers/VL53L0X/core/src/vl53l0x_api_core.c **** 			Status |= VL53L0X_RdDWord(Dev, 0x90, &TmpDWord);
 1494              		.loc 1 383 14
 1495 0722 07F13003 		add	r3, r7, #48
ARM GAS  C:\Users\Morroway\AppData\Local\Temp\ccKjJYc2.s 			page 34


 1496 0726 1A46     		mov	r2, r3
 1497 0728 9021     		movs	r1, #144
 1498 072a 7868     		ldr	r0, [r7, #4]
 1499 072c FFF7FEFF 		bl	VL53L0X_RdDWord
 1500 0730 0346     		mov	r3, r0
 1501 0732 1A46     		mov	r2, r3
 1502              		.loc 1 383 11
 1503 0734 97F85F30 		ldrb	r3, [r7, #95]
 1504 0738 1343     		orrs	r3, r3, r2
 1505 073a 87F85F30 		strb	r3, [r7, #95]
 384:Drivers/VL53L0X/core/src/vl53l0x_api_core.c **** 
 385:Drivers/VL53L0X/core/src/vl53l0x_api_core.c **** 			DistMeasFixed1104_400_mm = (TmpDWord & 0x0000000ff)
 386:Drivers/VL53L0X/core/src/vl53l0x_api_core.c **** 							<< 8;
 1506              		.loc 1 386 8
 1507 073e 3B6B     		ldr	r3, [r7, #48]
 1508 0740 1B02     		lsls	r3, r3, #8
 385:Drivers/VL53L0X/core/src/vl53l0x_api_core.c **** 							<< 8;
 1509              		.loc 1 385 29
 1510 0742 9BB2     		uxth	r3, r3
 1511 0744 7B65     		str	r3, [r7, #84]
 387:Drivers/VL53L0X/core/src/vl53l0x_api_core.c **** 
 388:Drivers/VL53L0X/core/src/vl53l0x_api_core.c **** 			Status |= VL53L0X_WrByte(Dev, 0x94, 0x76);
 1512              		.loc 1 388 14
 1513 0746 7622     		movs	r2, #118
 1514 0748 9421     		movs	r1, #148
 1515 074a 7868     		ldr	r0, [r7, #4]
 1516 074c FFF7FEFF 		bl	VL53L0X_WrByte
 1517 0750 0346     		mov	r3, r0
 1518 0752 1A46     		mov	r2, r3
 1519              		.loc 1 388 11
 1520 0754 97F85F30 		ldrb	r3, [r7, #95]
 1521 0758 1343     		orrs	r3, r3, r2
 1522 075a 87F85F30 		strb	r3, [r7, #95]
 389:Drivers/VL53L0X/core/src/vl53l0x_api_core.c **** 			Status |= VL53L0X_device_read_strobe(Dev);
 1523              		.loc 1 389 14
 1524 075e 7868     		ldr	r0, [r7, #4]
 1525 0760 FFF7FEFF 		bl	VL53L0X_device_read_strobe
 1526 0764 0346     		mov	r3, r0
 1527 0766 1A46     		mov	r2, r3
 1528              		.loc 1 389 11
 1529 0768 97F85F30 		ldrb	r3, [r7, #95]
 1530 076c 1343     		orrs	r3, r3, r2
 1531 076e 87F85F30 		strb	r3, [r7, #95]
 390:Drivers/VL53L0X/core/src/vl53l0x_api_core.c **** 			Status |= VL53L0X_RdDWord(Dev, 0x90, &TmpDWord);
 1532              		.loc 1 390 14
 1533 0772 07F13003 		add	r3, r7, #48
 1534 0776 1A46     		mov	r2, r3
 1535 0778 9021     		movs	r1, #144
 1536 077a 7868     		ldr	r0, [r7, #4]
 1537 077c FFF7FEFF 		bl	VL53L0X_RdDWord
 1538 0780 0346     		mov	r3, r0
 1539 0782 1A46     		mov	r2, r3
 1540              		.loc 1 390 11
 1541 0784 97F85F30 		ldrb	r3, [r7, #95]
 1542 0788 1343     		orrs	r3, r3, r2
 1543 078a 87F85F30 		strb	r3, [r7, #95]
 391:Drivers/VL53L0X/core/src/vl53l0x_api_core.c **** 
ARM GAS  C:\Users\Morroway\AppData\Local\Temp\ccKjJYc2.s 			page 35


 392:Drivers/VL53L0X/core/src/vl53l0x_api_core.c **** 			DistMeasFixed1104_400_mm |= ((TmpDWord & 0xff000000)
 393:Drivers/VL53L0X/core/src/vl53l0x_api_core.c **** 							>> 24);
 1544              		.loc 1 393 8
 1545 078e 3B6B     		ldr	r3, [r7, #48]
 1546 0790 1B0E     		lsrs	r3, r3, #24
 392:Drivers/VL53L0X/core/src/vl53l0x_api_core.c **** 							>> 24);
 1547              		.loc 1 392 29
 1548 0792 7A6D     		ldr	r2, [r7, #84]
 1549 0794 1343     		orrs	r3, r3, r2
 1550 0796 7B65     		str	r3, [r7, #84]
 1551              	.L40:
 394:Drivers/VL53L0X/core/src/vl53l0x_api_core.c **** 		}
 395:Drivers/VL53L0X/core/src/vl53l0x_api_core.c **** 
 396:Drivers/VL53L0X/core/src/vl53l0x_api_core.c **** 		Status |= VL53L0X_WrByte(Dev, 0x81, 0x00);
 1552              		.loc 1 396 13
 1553 0798 0022     		movs	r2, #0
 1554 079a 8121     		movs	r1, #129
 1555 079c 7868     		ldr	r0, [r7, #4]
 1556 079e FFF7FEFF 		bl	VL53L0X_WrByte
 1557 07a2 0346     		mov	r3, r0
 1558 07a4 1A46     		mov	r2, r3
 1559              		.loc 1 396 10
 1560 07a6 97F85F30 		ldrb	r3, [r7, #95]
 1561 07aa 1343     		orrs	r3, r3, r2
 1562 07ac 87F85F30 		strb	r3, [r7, #95]
 397:Drivers/VL53L0X/core/src/vl53l0x_api_core.c **** 		Status |= VL53L0X_WrByte(Dev, 0xFF, 0x06);
 1563              		.loc 1 397 13
 1564 07b0 0622     		movs	r2, #6
 1565 07b2 FF21     		movs	r1, #255
 1566 07b4 7868     		ldr	r0, [r7, #4]
 1567 07b6 FFF7FEFF 		bl	VL53L0X_WrByte
 1568 07ba 0346     		mov	r3, r0
 1569 07bc 1A46     		mov	r2, r3
 1570              		.loc 1 397 10
 1571 07be 97F85F30 		ldrb	r3, [r7, #95]
 1572 07c2 1343     		orrs	r3, r3, r2
 1573 07c4 87F85F30 		strb	r3, [r7, #95]
 398:Drivers/VL53L0X/core/src/vl53l0x_api_core.c **** 		Status |= VL53L0X_RdByte(Dev, 0x83, &byte);
 1574              		.loc 1 398 13
 1575 07c8 07F13703 		add	r3, r7, #55
 1576 07cc 1A46     		mov	r2, r3
 1577 07ce 8321     		movs	r1, #131
 1578 07d0 7868     		ldr	r0, [r7, #4]
 1579 07d2 FFF7FEFF 		bl	VL53L0X_RdByte
 1580 07d6 0346     		mov	r3, r0
 1581 07d8 1A46     		mov	r2, r3
 1582              		.loc 1 398 10
 1583 07da 97F85F30 		ldrb	r3, [r7, #95]
 1584 07de 1343     		orrs	r3, r3, r2
 1585 07e0 87F85F30 		strb	r3, [r7, #95]
 399:Drivers/VL53L0X/core/src/vl53l0x_api_core.c **** 		Status |= VL53L0X_WrByte(Dev, 0x83, byte&0xfb);
 1586              		.loc 1 399 13
 1587 07e4 97F83730 		ldrb	r3, [r7, #55]	@ zero_extendqisi2
 1588 07e8 23F00403 		bic	r3, r3, #4
 1589 07ec DBB2     		uxtb	r3, r3
 1590 07ee 1A46     		mov	r2, r3
 1591 07f0 8321     		movs	r1, #131
ARM GAS  C:\Users\Morroway\AppData\Local\Temp\ccKjJYc2.s 			page 36


 1592 07f2 7868     		ldr	r0, [r7, #4]
 1593 07f4 FFF7FEFF 		bl	VL53L0X_WrByte
 1594 07f8 0346     		mov	r3, r0
 1595 07fa 1A46     		mov	r2, r3
 1596              		.loc 1 399 10
 1597 07fc 97F85F30 		ldrb	r3, [r7, #95]
 1598 0800 1343     		orrs	r3, r3, r2
 1599 0802 87F85F30 		strb	r3, [r7, #95]
 400:Drivers/VL53L0X/core/src/vl53l0x_api_core.c **** 		Status |= VL53L0X_WrByte(Dev, 0xFF, 0x01);
 1600              		.loc 1 400 13
 1601 0806 0122     		movs	r2, #1
 1602 0808 FF21     		movs	r1, #255
 1603 080a 7868     		ldr	r0, [r7, #4]
 1604 080c FFF7FEFF 		bl	VL53L0X_WrByte
 1605 0810 0346     		mov	r3, r0
 1606 0812 1A46     		mov	r2, r3
 1607              		.loc 1 400 10
 1608 0814 97F85F30 		ldrb	r3, [r7, #95]
 1609 0818 1343     		orrs	r3, r3, r2
 1610 081a 87F85F30 		strb	r3, [r7, #95]
 401:Drivers/VL53L0X/core/src/vl53l0x_api_core.c **** 		Status |= VL53L0X_WrByte(Dev, 0x00, 0x01);
 1611              		.loc 1 401 13
 1612 081e 0122     		movs	r2, #1
 1613 0820 0021     		movs	r1, #0
 1614 0822 7868     		ldr	r0, [r7, #4]
 1615 0824 FFF7FEFF 		bl	VL53L0X_WrByte
 1616 0828 0346     		mov	r3, r0
 1617 082a 1A46     		mov	r2, r3
 1618              		.loc 1 401 10
 1619 082c 97F85F30 		ldrb	r3, [r7, #95]
 1620 0830 1343     		orrs	r3, r3, r2
 1621 0832 87F85F30 		strb	r3, [r7, #95]
 402:Drivers/VL53L0X/core/src/vl53l0x_api_core.c **** 
 403:Drivers/VL53L0X/core/src/vl53l0x_api_core.c **** 		Status |= VL53L0X_WrByte(Dev, 0xFF, 0x00);
 1622              		.loc 1 403 13
 1623 0836 0022     		movs	r2, #0
 1624 0838 FF21     		movs	r1, #255
 1625 083a 7868     		ldr	r0, [r7, #4]
 1626 083c FFF7FEFF 		bl	VL53L0X_WrByte
 1627 0840 0346     		mov	r3, r0
 1628 0842 1A46     		mov	r2, r3
 1629              		.loc 1 403 10
 1630 0844 97F85F30 		ldrb	r3, [r7, #95]
 1631 0848 1343     		orrs	r3, r3, r2
 1632 084a 87F85F30 		strb	r3, [r7, #95]
 404:Drivers/VL53L0X/core/src/vl53l0x_api_core.c **** 		Status |= VL53L0X_WrByte(Dev, 0x80, 0x00);
 1633              		.loc 1 404 13
 1634 084e 0022     		movs	r2, #0
 1635 0850 8021     		movs	r1, #128
 1636 0852 7868     		ldr	r0, [r7, #4]
 1637 0854 FFF7FEFF 		bl	VL53L0X_WrByte
 1638 0858 0346     		mov	r3, r0
 1639 085a 1A46     		mov	r2, r3
 1640              		.loc 1 404 10
 1641 085c 97F85F30 		ldrb	r3, [r7, #95]
 1642 0860 1343     		orrs	r3, r3, r2
 1643 0862 87F85F30 		strb	r3, [r7, #95]
ARM GAS  C:\Users\Morroway\AppData\Local\Temp\ccKjJYc2.s 			page 37


 1644              	.L37:
 405:Drivers/VL53L0X/core/src/vl53l0x_api_core.c **** 	}
 406:Drivers/VL53L0X/core/src/vl53l0x_api_core.c **** 
 407:Drivers/VL53L0X/core/src/vl53l0x_api_core.c **** 	if ((Status == VL53L0X_ERROR_NONE) &&
 1645              		.loc 1 407 5
 1646 0866 97F95F30 		ldrsb	r3, [r7, #95]
 1647 086a 002B     		cmp	r3, #0
 1648 086c 40F08F80 		bne	.L41
 1649              		.loc 1 407 37 discriminator 1
 1650 0870 97F83F30 		ldrb	r3, [r7, #63]	@ zero_extendqisi2
 1651 0874 072B     		cmp	r3, #7
 1652 0876 00F08A80 		beq	.L41
 408:Drivers/VL53L0X/core/src/vl53l0x_api_core.c **** 		(ReadDataFromDeviceDone != 7)) {
 409:Drivers/VL53L0X/core/src/vl53l0x_api_core.c **** 		/* Assign to variable if status is ok */
 410:Drivers/VL53L0X/core/src/vl53l0x_api_core.c **** 		if (((option & 1) == 1) &&
 1653              		.loc 1 410 16
 1654 087a FB78     		ldrb	r3, [r7, #3]	@ zero_extendqisi2
 1655 087c 03F00103 		and	r3, r3, #1
 1656              		.loc 1 410 6
 1657 0880 002B     		cmp	r3, #0
 1658 0882 24D0     		beq	.L42
 411:Drivers/VL53L0X/core/src/vl53l0x_api_core.c **** 			((ReadDataFromDeviceDone & 1) == 0)) {
 1659              		.loc 1 411 29 discriminator 1
 1660 0884 97F83F30 		ldrb	r3, [r7, #63]	@ zero_extendqisi2
 1661 0888 03F00103 		and	r3, r3, #1
 410:Drivers/VL53L0X/core/src/vl53l0x_api_core.c **** 			((ReadDataFromDeviceDone & 1) == 0)) {
 1662              		.loc 1 410 27 discriminator 1
 1663 088c 002B     		cmp	r3, #0
 1664 088e 1ED1     		bne	.L42
 412:Drivers/VL53L0X/core/src/vl53l0x_api_core.c **** 			VL53L0X_SETDEVICESPECIFICPARAMETER(Dev,
 1665              		.loc 1 412 4
 1666 0890 7B68     		ldr	r3, [r7, #4]
 1667 0892 97F85E20 		ldrb	r2, [r7, #94]
 1668 0896 83F81321 		strb	r2, [r3, #275]
 413:Drivers/VL53L0X/core/src/vl53l0x_api_core.c **** 				ReferenceSpadCount, ReferenceSpadCount);
 414:Drivers/VL53L0X/core/src/vl53l0x_api_core.c **** 
 415:Drivers/VL53L0X/core/src/vl53l0x_api_core.c **** 			VL53L0X_SETDEVICESPECIFICPARAMETER(Dev,
 1669              		.loc 1 415 4
 1670 089a 7B68     		ldr	r3, [r7, #4]
 1671 089c 97F85D20 		ldrb	r2, [r7, #93]
 1672 08a0 83F81421 		strb	r2, [r3, #276]
 416:Drivers/VL53L0X/core/src/vl53l0x_api_core.c **** 				ReferenceSpadType, ReferenceSpadType);
 417:Drivers/VL53L0X/core/src/vl53l0x_api_core.c **** 
 418:Drivers/VL53L0X/core/src/vl53l0x_api_core.c **** 			for (i = 0; i < VL53L0X_REF_SPAD_BUFFER_SIZE; i++) {
 1673              		.loc 1 418 11
 1674 08a4 0023     		movs	r3, #0
 1675 08a6 FB64     		str	r3, [r7, #76]
 1676              		.loc 1 418 4
 1677 08a8 0EE0     		b	.L43
 1678              	.L44:
 419:Drivers/VL53L0X/core/src/vl53l0x_api_core.c **** 				Dev->Data.SpadData.RefGoodSpadMap[i] =
 420:Drivers/VL53L0X/core/src/vl53l0x_api_core.c **** 					NvmRefGoodSpadMap[i];
 1679              		.loc 1 420 23 discriminator 3
 1680 08aa 07F10802 		add	r2, r7, #8
 1681 08ae FB6C     		ldr	r3, [r7, #76]
 1682 08b0 1344     		add	r3, r3, r2
 1683 08b2 1978     		ldrb	r1, [r3]	@ zero_extendqisi2
ARM GAS  C:\Users\Morroway\AppData\Local\Temp\ccKjJYc2.s 			page 38


 419:Drivers/VL53L0X/core/src/vl53l0x_api_core.c **** 				Dev->Data.SpadData.RefGoodSpadMap[i] =
 1684              		.loc 1 419 42 discriminator 3
 1685 08b4 7A68     		ldr	r2, [r7, #4]
 1686 08b6 FB6C     		ldr	r3, [r7, #76]
 1687 08b8 1344     		add	r3, r3, r2
 1688 08ba 03F59573 		add	r3, r3, #298
 1689 08be 0A46     		mov	r2, r1
 1690 08c0 1A70     		strb	r2, [r3]
 418:Drivers/VL53L0X/core/src/vl53l0x_api_core.c **** 				Dev->Data.SpadData.RefGoodSpadMap[i] =
 1691              		.loc 1 418 51 discriminator 3
 1692 08c2 FB6C     		ldr	r3, [r7, #76]
 1693 08c4 0133     		adds	r3, r3, #1
 1694 08c6 FB64     		str	r3, [r7, #76]
 1695              	.L43:
 418:Drivers/VL53L0X/core/src/vl53l0x_api_core.c **** 				Dev->Data.SpadData.RefGoodSpadMap[i] =
 1696              		.loc 1 418 18 discriminator 1
 1697 08c8 FB6C     		ldr	r3, [r7, #76]
 1698 08ca 052B     		cmp	r3, #5
 1699 08cc EDDD     		ble	.L44
 1700              	.L42:
 421:Drivers/VL53L0X/core/src/vl53l0x_api_core.c **** 			}
 422:Drivers/VL53L0X/core/src/vl53l0x_api_core.c **** 		}
 423:Drivers/VL53L0X/core/src/vl53l0x_api_core.c **** 
 424:Drivers/VL53L0X/core/src/vl53l0x_api_core.c **** 		if (((option & 2) == 2) &&
 1701              		.loc 1 424 16
 1702 08ce FB78     		ldrb	r3, [r7, #3]	@ zero_extendqisi2
 1703 08d0 03F00203 		and	r3, r3, #2
 1704              		.loc 1 424 6
 1705 08d4 002B     		cmp	r3, #0
 1706 08d6 18D0     		beq	.L45
 425:Drivers/VL53L0X/core/src/vl53l0x_api_core.c **** 			((ReadDataFromDeviceDone & 2) == 0)) {
 1707              		.loc 1 425 29 discriminator 1
 1708 08d8 97F83F30 		ldrb	r3, [r7, #63]	@ zero_extendqisi2
 1709 08dc 03F00203 		and	r3, r3, #2
 424:Drivers/VL53L0X/core/src/vl53l0x_api_core.c **** 			((ReadDataFromDeviceDone & 2) == 0)) {
 1710              		.loc 1 424 27 discriminator 1
 1711 08e0 002B     		cmp	r3, #0
 1712 08e2 12D1     		bne	.L45
 426:Drivers/VL53L0X/core/src/vl53l0x_api_core.c **** 			VL53L0X_SETDEVICESPECIFICPARAMETER(Dev,
 1713              		.loc 1 426 4
 1714 08e4 97F82F20 		ldrb	r2, [r7, #47]	@ zero_extendqisi2
 1715 08e8 7B68     		ldr	r3, [r7, #4]
 1716 08ea 83F8F120 		strb	r2, [r3, #241]
 427:Drivers/VL53L0X/core/src/vl53l0x_api_core.c **** 					ModuleId, ModuleId);
 428:Drivers/VL53L0X/core/src/vl53l0x_api_core.c **** 
 429:Drivers/VL53L0X/core/src/vl53l0x_api_core.c **** 			VL53L0X_SETDEVICESPECIFICPARAMETER(Dev,
 1717              		.loc 1 429 4
 1718 08ee 97F82E20 		ldrb	r2, [r7, #46]	@ zero_extendqisi2
 1719 08f2 7B68     		ldr	r3, [r7, #4]
 1720 08f4 83F8F220 		strb	r2, [r3, #242]
 430:Drivers/VL53L0X/core/src/vl53l0x_api_core.c **** 					Revision, Revision);
 431:Drivers/VL53L0X/core/src/vl53l0x_api_core.c **** 
 432:Drivers/VL53L0X/core/src/vl53l0x_api_core.c **** 			ProductId_tmp = VL53L0X_GETDEVICESPECIFICPARAMETER(Dev,
 1721              		.loc 1 432 18
 1722 08f8 7B68     		ldr	r3, [r7, #4]
 1723 08fa F333     		adds	r3, r3, #243
 1724 08fc BB63     		str	r3, [r7, #56]
ARM GAS  C:\Users\Morroway\AppData\Local\Temp\ccKjJYc2.s 			page 39


 433:Drivers/VL53L0X/core/src/vl53l0x_api_core.c **** 					ProductId);
 434:Drivers/VL53L0X/core/src/vl53l0x_api_core.c **** 			VL53L0X_COPYSTRING(ProductId_tmp, ProductId);
 1725              		.loc 1 434 4
 1726 08fe 07F11003 		add	r3, r7, #16
 1727 0902 1946     		mov	r1, r3
 1728 0904 B86B     		ldr	r0, [r7, #56]
 1729 0906 FFF7FEFF 		bl	strcpy
 1730              	.L45:
 435:Drivers/VL53L0X/core/src/vl53l0x_api_core.c **** 
 436:Drivers/VL53L0X/core/src/vl53l0x_api_core.c **** 		}
 437:Drivers/VL53L0X/core/src/vl53l0x_api_core.c **** 
 438:Drivers/VL53L0X/core/src/vl53l0x_api_core.c **** 		if (((option & 4) == 4) &&
 1731              		.loc 1 438 16
 1732 090a FB78     		ldrb	r3, [r7, #3]	@ zero_extendqisi2
 1733 090c 03F00403 		and	r3, r3, #4
 1734              		.loc 1 438 6
 1735 0910 002B     		cmp	r3, #0
 1736 0912 30D0     		beq	.L46
 439:Drivers/VL53L0X/core/src/vl53l0x_api_core.c **** 			((ReadDataFromDeviceDone & 4) == 0)) {
 1737              		.loc 1 439 29 discriminator 1
 1738 0914 97F83F30 		ldrb	r3, [r7, #63]	@ zero_extendqisi2
 1739 0918 03F00403 		and	r3, r3, #4
 438:Drivers/VL53L0X/core/src/vl53l0x_api_core.c **** 			((ReadDataFromDeviceDone & 4) == 0)) {
 1740              		.loc 1 438 27 discriminator 1
 1741 091c 002B     		cmp	r3, #0
 1742 091e 2AD1     		bne	.L46
 440:Drivers/VL53L0X/core/src/vl53l0x_api_core.c **** 			VL53L0X_SETDEVICESPECIFICPARAMETER(Dev,
 1743              		.loc 1 440 4
 1744 0920 BA6A     		ldr	r2, [r7, #40]
 1745 0922 7B68     		ldr	r3, [r7, #4]
 1746 0924 C3F81821 		str	r2, [r3, #280]
 441:Drivers/VL53L0X/core/src/vl53l0x_api_core.c **** 						PartUIDUpper, PartUIDUpper);
 442:Drivers/VL53L0X/core/src/vl53l0x_api_core.c **** 
 443:Drivers/VL53L0X/core/src/vl53l0x_api_core.c **** 			VL53L0X_SETDEVICESPECIFICPARAMETER(Dev,
 1747              		.loc 1 443 4
 1748 0928 7A6A     		ldr	r2, [r7, #36]
 1749 092a 7B68     		ldr	r3, [r7, #4]
 1750 092c C3F81C21 		str	r2, [r3, #284]
 444:Drivers/VL53L0X/core/src/vl53l0x_api_core.c **** 						PartUIDLower, PartUIDLower);
 445:Drivers/VL53L0X/core/src/vl53l0x_api_core.c **** 
 446:Drivers/VL53L0X/core/src/vl53l0x_api_core.c **** 			SignalRateMeasFixed400mmFix =
 1751              		.loc 1 446 32
 1752 0930 3B6D     		ldr	r3, [r7, #80]
 1753 0932 5B02     		lsls	r3, r3, #9
 1754 0934 3B64     		str	r3, [r7, #64]
 447:Drivers/VL53L0X/core/src/vl53l0x_api_core.c **** 				VL53L0X_FIXPOINT97TOFIXPOINT1616(
 448:Drivers/VL53L0X/core/src/vl53l0x_api_core.c **** 					SignalRateMeasFixed1104_400_mm);
 449:Drivers/VL53L0X/core/src/vl53l0x_api_core.c **** 
 450:Drivers/VL53L0X/core/src/vl53l0x_api_core.c **** 			VL53L0X_SETDEVICESPECIFICPARAMETER(Dev,
 1755              		.loc 1 450 4
 1756 0936 7B68     		ldr	r3, [r7, #4]
 1757 0938 3A6C     		ldr	r2, [r7, #64]
 1758 093a C3F82021 		str	r2, [r3, #288]
 451:Drivers/VL53L0X/core/src/vl53l0x_api_core.c **** 				SignalRateMeasFixed400mm,
 452:Drivers/VL53L0X/core/src/vl53l0x_api_core.c **** 				SignalRateMeasFixed400mmFix);
 453:Drivers/VL53L0X/core/src/vl53l0x_api_core.c **** 
 454:Drivers/VL53L0X/core/src/vl53l0x_api_core.c **** 			OffsetMicroMeters = 0;
ARM GAS  C:\Users\Morroway\AppData\Local\Temp\ccKjJYc2.s 			page 40


 1759              		.loc 1 454 22
 1760 093e 0023     		movs	r3, #0
 1761 0940 A7F85A30 		strh	r3, [r7, #90]	@ movhi
 455:Drivers/VL53L0X/core/src/vl53l0x_api_core.c **** 			if (DistMeasFixed1104_400_mm != 0) {
 1762              		.loc 1 455 7
 1763 0944 7B6D     		ldr	r3, [r7, #84]
 1764 0946 002B     		cmp	r3, #0
 1765 0948 11D0     		beq	.L47
 456:Drivers/VL53L0X/core/src/vl53l0x_api_core.c **** 					OffsetFixed1104_mm =
 1766              		.loc 1 456 25
 1767 094a 7A6D     		ldr	r2, [r7, #84]
 1768 094c 7B6C     		ldr	r3, [r7, #68]
 1769 094e D31A     		subs	r3, r2, r3
 1770 0950 BB64     		str	r3, [r7, #72]
 457:Drivers/VL53L0X/core/src/vl53l0x_api_core.c **** 						DistMeasFixed1104_400_mm -
 458:Drivers/VL53L0X/core/src/vl53l0x_api_core.c **** 						DistMeasTgtFixed1104_mm;
 459:Drivers/VL53L0X/core/src/vl53l0x_api_core.c **** 					OffsetMicroMeters = (OffsetFixed1104_mm
 460:Drivers/VL53L0X/core/src/vl53l0x_api_core.c **** 						* 1000) >> 4;
 1771              		.loc 1 460 7
 1772 0952 BB6C     		ldr	r3, [r7, #72]
 1773 0954 4FF47A72 		mov	r2, #1000
 1774 0958 02FB03F3 		mul	r3, r2, r3
 1775              		.loc 1 460 15
 1776 095c 1B09     		lsrs	r3, r3, #4
 459:Drivers/VL53L0X/core/src/vl53l0x_api_core.c **** 						* 1000) >> 4;
 1777              		.loc 1 459 24
 1778 095e A7F85A30 		strh	r3, [r7, #90]	@ movhi
 461:Drivers/VL53L0X/core/src/vl53l0x_api_core.c **** 					OffsetMicroMeters *= -1;
 1779              		.loc 1 461 24
 1780 0962 B7F85A30 		ldrh	r3, [r7, #90]
 1781 0966 5B42     		rsbs	r3, r3, #0
 1782 0968 9BB2     		uxth	r3, r3
 1783 096a A7F85A30 		strh	r3, [r7, #90]	@ movhi
 1784              	.L47:
 462:Drivers/VL53L0X/core/src/vl53l0x_api_core.c **** 			}
 463:Drivers/VL53L0X/core/src/vl53l0x_api_core.c **** 
 464:Drivers/VL53L0X/core/src/vl53l0x_api_core.c **** 			PALDevDataSet(Dev,
 1785              		.loc 1 464 4
 1786 096e B7F95A20 		ldrsh	r2, [r7, #90]
 1787 0972 7B68     		ldr	r3, [r7, #4]
 1788 0974 DA60     		str	r2, [r3, #12]
 1789              	.L46:
 465:Drivers/VL53L0X/core/src/vl53l0x_api_core.c **** 				Part2PartOffsetAdjustmentNVMMicroMeter,
 466:Drivers/VL53L0X/core/src/vl53l0x_api_core.c **** 				OffsetMicroMeters);
 467:Drivers/VL53L0X/core/src/vl53l0x_api_core.c **** 		}
 468:Drivers/VL53L0X/core/src/vl53l0x_api_core.c **** 		byte = (uint8_t)(ReadDataFromDeviceDone|option);
 1790              		.loc 1 468 10
 1791 0976 97F83F20 		ldrb	r2, [r7, #63]
 1792 097a FB78     		ldrb	r3, [r7, #3]
 1793 097c 1343     		orrs	r3, r3, r2
 1794 097e DBB2     		uxtb	r3, r3
 1795              		.loc 1 468 8
 1796 0980 87F83730 		strb	r3, [r7, #55]
 469:Drivers/VL53L0X/core/src/vl53l0x_api_core.c **** 		VL53L0X_SETDEVICESPECIFICPARAMETER(Dev, ReadDataFromDeviceDone,
 1797              		.loc 1 469 3
 1798 0984 97F83720 		ldrb	r2, [r7, #55]	@ zero_extendqisi2
 1799 0988 7B68     		ldr	r3, [r7, #4]
ARM GAS  C:\Users\Morroway\AppData\Local\Temp\ccKjJYc2.s 			page 41


 1800 098a 83F8F020 		strb	r2, [r3, #240]
 1801              	.L41:
 470:Drivers/VL53L0X/core/src/vl53l0x_api_core.c **** 				byte);
 471:Drivers/VL53L0X/core/src/vl53l0x_api_core.c **** 	}
 472:Drivers/VL53L0X/core/src/vl53l0x_api_core.c **** 
 473:Drivers/VL53L0X/core/src/vl53l0x_api_core.c **** 	LOG_FUNCTION_END(Status);
 474:Drivers/VL53L0X/core/src/vl53l0x_api_core.c **** 	return Status;
 1802              		.loc 1 474 9
 1803 098e 97F95F30 		ldrsb	r3, [r7, #95]
 475:Drivers/VL53L0X/core/src/vl53l0x_api_core.c **** }
 1804              		.loc 1 475 1
 1805 0992 1846     		mov	r0, r3
 1806 0994 6037     		adds	r7, r7, #96
 1807              		.cfi_def_cfa_offset 8
 1808 0996 BD46     		mov	sp, r7
 1809              		.cfi_def_cfa_register 13
 1810              		@ sp needed
 1811 0998 80BD     		pop	{r7, pc}
 1812              		.cfi_endproc
 1813              	.LFE331:
 1815              		.section	.text.VL53L0X_calc_macro_period_ps,"ax",%progbits
 1816              		.align	1
 1817              		.global	VL53L0X_calc_macro_period_ps
 1818              		.syntax unified
 1819              		.thumb
 1820              		.thumb_func
 1822              	VL53L0X_calc_macro_period_ps:
 1823              	.LFB332:
 476:Drivers/VL53L0X/core/src/vl53l0x_api_core.c **** 
 477:Drivers/VL53L0X/core/src/vl53l0x_api_core.c **** 
 478:Drivers/VL53L0X/core/src/vl53l0x_api_core.c **** uint32_t VL53L0X_calc_macro_period_ps(VL53L0X_DEV Dev, uint8_t vcsel_period_pclks)
 479:Drivers/VL53L0X/core/src/vl53l0x_api_core.c **** {
 1824              		.loc 1 479 1
 1825              		.cfi_startproc
 1826              		@ args = 0, pretend = 0, frame = 24
 1827              		@ frame_needed = 1, uses_anonymous_args = 0
 1828              		@ link register save eliminated.
 1829 0000 80B4     		push	{r7}
 1830              		.cfi_def_cfa_offset 4
 1831              		.cfi_offset 7, -4
 1832 0002 87B0     		sub	sp, sp, #28
 1833              		.cfi_def_cfa_offset 32
 1834 0004 00AF     		add	r7, sp, #0
 1835              		.cfi_def_cfa_register 7
 1836 0006 7860     		str	r0, [r7, #4]
 1837 0008 0B46     		mov	r3, r1
 1838 000a FB70     		strb	r3, [r7, #3]
 480:Drivers/VL53L0X/core/src/vl53l0x_api_core.c **** 	uint64_t PLL_period_ps;
 481:Drivers/VL53L0X/core/src/vl53l0x_api_core.c **** 	uint32_t macro_period_vclks;
 482:Drivers/VL53L0X/core/src/vl53l0x_api_core.c **** 	uint32_t macro_period_ps;
 483:Drivers/VL53L0X/core/src/vl53l0x_api_core.c **** 
 484:Drivers/VL53L0X/core/src/vl53l0x_api_core.c **** 	LOG_FUNCTION_START("");
 485:Drivers/VL53L0X/core/src/vl53l0x_api_core.c **** 
 486:Drivers/VL53L0X/core/src/vl53l0x_api_core.c **** 	/* The above calculation will produce rounding errors,
 487:Drivers/VL53L0X/core/src/vl53l0x_api_core.c **** 	   therefore set fixed value
 488:Drivers/VL53L0X/core/src/vl53l0x_api_core.c **** 	*/
 489:Drivers/VL53L0X/core/src/vl53l0x_api_core.c **** 	PLL_period_ps = 1655;
ARM GAS  C:\Users\Morroway\AppData\Local\Temp\ccKjJYc2.s 			page 42


 1839              		.loc 1 489 16
 1840 000c 40F27762 		movw	r2, #1655
 1841 0010 4FF00003 		mov	r3, #0
 1842 0014 C7E90423 		strd	r2, [r7, #16]
 490:Drivers/VL53L0X/core/src/vl53l0x_api_core.c **** 
 491:Drivers/VL53L0X/core/src/vl53l0x_api_core.c **** 	macro_period_vclks = 2304;
 1843              		.loc 1 491 21
 1844 0018 4FF41063 		mov	r3, #2304
 1845 001c FB60     		str	r3, [r7, #12]
 492:Drivers/VL53L0X/core/src/vl53l0x_api_core.c **** 	macro_period_ps = (uint32_t)(macro_period_vclks
 493:Drivers/VL53L0X/core/src/vl53l0x_api_core.c **** 			* vcsel_period_pclks * PLL_period_ps);
 1846              		.loc 1 493 4
 1847 001e FB78     		ldrb	r3, [r7, #3]	@ zero_extendqisi2
 1848 0020 FA68     		ldr	r2, [r7, #12]
 1849 0022 02FB03F3 		mul	r3, r2, r3
 492:Drivers/VL53L0X/core/src/vl53l0x_api_core.c **** 	macro_period_ps = (uint32_t)(macro_period_vclks
 1850              		.loc 1 492 20
 1851 0026 3A69     		ldr	r2, [r7, #16]
 492:Drivers/VL53L0X/core/src/vl53l0x_api_core.c **** 	macro_period_ps = (uint32_t)(macro_period_vclks
 1852              		.loc 1 492 18
 1853 0028 02FB03F3 		mul	r3, r2, r3
 1854 002c BB60     		str	r3, [r7, #8]
 494:Drivers/VL53L0X/core/src/vl53l0x_api_core.c **** 
 495:Drivers/VL53L0X/core/src/vl53l0x_api_core.c **** 	LOG_FUNCTION_END("");
 496:Drivers/VL53L0X/core/src/vl53l0x_api_core.c **** 	return macro_period_ps;
 1855              		.loc 1 496 9
 1856 002e BB68     		ldr	r3, [r7, #8]
 497:Drivers/VL53L0X/core/src/vl53l0x_api_core.c **** }
 1857              		.loc 1 497 1
 1858 0030 1846     		mov	r0, r3
 1859 0032 1C37     		adds	r7, r7, #28
 1860              		.cfi_def_cfa_offset 4
 1861 0034 BD46     		mov	sp, r7
 1862              		.cfi_def_cfa_register 13
 1863              		@ sp needed
 1864 0036 5DF8047B 		ldr	r7, [sp], #4
 1865              		.cfi_restore 7
 1866              		.cfi_def_cfa_offset 0
 1867 003a 7047     		bx	lr
 1868              		.cfi_endproc
 1869              	.LFE332:
 1871              		.section	.text.VL53L0X_encode_timeout,"ax",%progbits
 1872              		.align	1
 1873              		.global	VL53L0X_encode_timeout
 1874              		.syntax unified
 1875              		.thumb
 1876              		.thumb_func
 1878              	VL53L0X_encode_timeout:
 1879              	.LFB333:
 498:Drivers/VL53L0X/core/src/vl53l0x_api_core.c **** 
 499:Drivers/VL53L0X/core/src/vl53l0x_api_core.c **** uint16_t VL53L0X_encode_timeout(uint32_t timeout_macro_clks)
 500:Drivers/VL53L0X/core/src/vl53l0x_api_core.c **** {
 1880              		.loc 1 500 1
 1881              		.cfi_startproc
 1882              		@ args = 0, pretend = 0, frame = 24
 1883              		@ frame_needed = 1, uses_anonymous_args = 0
 1884              		@ link register save eliminated.
ARM GAS  C:\Users\Morroway\AppData\Local\Temp\ccKjJYc2.s 			page 43


 1885 0000 80B4     		push	{r7}
 1886              		.cfi_def_cfa_offset 4
 1887              		.cfi_offset 7, -4
 1888 0002 87B0     		sub	sp, sp, #28
 1889              		.cfi_def_cfa_offset 32
 1890 0004 00AF     		add	r7, sp, #0
 1891              		.cfi_def_cfa_register 7
 1892 0006 7860     		str	r0, [r7, #4]
 501:Drivers/VL53L0X/core/src/vl53l0x_api_core.c **** 	/*!
 502:Drivers/VL53L0X/core/src/vl53l0x_api_core.c **** 	 * Encode timeout in macro periods in (LSByte * 2^MSByte) + 1 format
 503:Drivers/VL53L0X/core/src/vl53l0x_api_core.c **** 	 */
 504:Drivers/VL53L0X/core/src/vl53l0x_api_core.c **** 
 505:Drivers/VL53L0X/core/src/vl53l0x_api_core.c **** 	uint16_t encoded_timeout = 0;
 1893              		.loc 1 505 11
 1894 0008 0023     		movs	r3, #0
 1895 000a FB82     		strh	r3, [r7, #22]	@ movhi
 506:Drivers/VL53L0X/core/src/vl53l0x_api_core.c **** 	uint32_t ls_byte = 0;
 1896              		.loc 1 506 11
 1897 000c 0023     		movs	r3, #0
 1898 000e 3B61     		str	r3, [r7, #16]
 507:Drivers/VL53L0X/core/src/vl53l0x_api_core.c **** 	uint16_t ms_byte = 0;
 1899              		.loc 1 507 11
 1900 0010 0023     		movs	r3, #0
 1901 0012 FB81     		strh	r3, [r7, #14]	@ movhi
 508:Drivers/VL53L0X/core/src/vl53l0x_api_core.c **** 
 509:Drivers/VL53L0X/core/src/vl53l0x_api_core.c **** 	if (timeout_macro_clks > 0) {
 1902              		.loc 1 509 5
 1903 0014 7B68     		ldr	r3, [r7, #4]
 1904 0016 002B     		cmp	r3, #0
 1905 0018 17D0     		beq	.L52
 510:Drivers/VL53L0X/core/src/vl53l0x_api_core.c **** 		ls_byte = timeout_macro_clks - 1;
 1906              		.loc 1 510 11
 1907 001a 7B68     		ldr	r3, [r7, #4]
 1908 001c 013B     		subs	r3, r3, #1
 1909 001e 3B61     		str	r3, [r7, #16]
 511:Drivers/VL53L0X/core/src/vl53l0x_api_core.c **** 
 512:Drivers/VL53L0X/core/src/vl53l0x_api_core.c **** 		while ((ls_byte & 0xFFFFFF00) > 0) {
 1910              		.loc 1 512 9
 1911 0020 05E0     		b	.L53
 1912              	.L54:
 513:Drivers/VL53L0X/core/src/vl53l0x_api_core.c **** 			ls_byte = ls_byte >> 1;
 1913              		.loc 1 513 12
 1914 0022 3B69     		ldr	r3, [r7, #16]
 1915 0024 5B08     		lsrs	r3, r3, #1
 1916 0026 3B61     		str	r3, [r7, #16]
 514:Drivers/VL53L0X/core/src/vl53l0x_api_core.c **** 			ms_byte++;
 1917              		.loc 1 514 11
 1918 0028 FB89     		ldrh	r3, [r7, #14]
 1919 002a 0133     		adds	r3, r3, #1
 1920 002c FB81     		strh	r3, [r7, #14]	@ movhi
 1921              	.L53:
 512:Drivers/VL53L0X/core/src/vl53l0x_api_core.c **** 			ls_byte = ls_byte >> 1;
 1922              		.loc 1 512 19
 1923 002e 3B69     		ldr	r3, [r7, #16]
 1924 0030 23F0FF03 		bic	r3, r3, #255
 512:Drivers/VL53L0X/core/src/vl53l0x_api_core.c **** 			ls_byte = ls_byte >> 1;
 1925              		.loc 1 512 33
ARM GAS  C:\Users\Morroway\AppData\Local\Temp\ccKjJYc2.s 			page 44


 1926 0034 002B     		cmp	r3, #0
 1927 0036 F4D1     		bne	.L54
 515:Drivers/VL53L0X/core/src/vl53l0x_api_core.c **** 		}
 516:Drivers/VL53L0X/core/src/vl53l0x_api_core.c **** 
 517:Drivers/VL53L0X/core/src/vl53l0x_api_core.c **** 		encoded_timeout = (ms_byte << 8)
 1928              		.loc 1 517 30
 1929 0038 FB89     		ldrh	r3, [r7, #14]	@ movhi
 1930 003a 1B02     		lsls	r3, r3, #8
 1931 003c 9AB2     		uxth	r2, r3
 518:Drivers/VL53L0X/core/src/vl53l0x_api_core.c **** 				+ (uint16_t) (ls_byte & 0x000000FF);
 1932              		.loc 1 518 7
 1933 003e 3B69     		ldr	r3, [r7, #16]
 1934 0040 9BB2     		uxth	r3, r3
 1935 0042 DBB2     		uxtb	r3, r3
 1936 0044 9BB2     		uxth	r3, r3
 517:Drivers/VL53L0X/core/src/vl53l0x_api_core.c **** 				+ (uint16_t) (ls_byte & 0x000000FF);
 1937              		.loc 1 517 19
 1938 0046 1344     		add	r3, r3, r2
 1939 0048 FB82     		strh	r3, [r7, #22]	@ movhi
 1940              	.L52:
 519:Drivers/VL53L0X/core/src/vl53l0x_api_core.c **** 	}
 520:Drivers/VL53L0X/core/src/vl53l0x_api_core.c **** 
 521:Drivers/VL53L0X/core/src/vl53l0x_api_core.c **** 	return encoded_timeout;
 1941              		.loc 1 521 9
 1942 004a FB8A     		ldrh	r3, [r7, #22]
 522:Drivers/VL53L0X/core/src/vl53l0x_api_core.c **** 
 523:Drivers/VL53L0X/core/src/vl53l0x_api_core.c **** }
 1943              		.loc 1 523 1
 1944 004c 1846     		mov	r0, r3
 1945 004e 1C37     		adds	r7, r7, #28
 1946              		.cfi_def_cfa_offset 4
 1947 0050 BD46     		mov	sp, r7
 1948              		.cfi_def_cfa_register 13
 1949              		@ sp needed
 1950 0052 5DF8047B 		ldr	r7, [sp], #4
 1951              		.cfi_restore 7
 1952              		.cfi_def_cfa_offset 0
 1953 0056 7047     		bx	lr
 1954              		.cfi_endproc
 1955              	.LFE333:
 1957              		.section	.text.VL53L0X_decode_timeout,"ax",%progbits
 1958              		.align	1
 1959              		.global	VL53L0X_decode_timeout
 1960              		.syntax unified
 1961              		.thumb
 1962              		.thumb_func
 1964              	VL53L0X_decode_timeout:
 1965              	.LFB334:
 524:Drivers/VL53L0X/core/src/vl53l0x_api_core.c **** 
 525:Drivers/VL53L0X/core/src/vl53l0x_api_core.c **** uint32_t VL53L0X_decode_timeout(uint16_t encoded_timeout)
 526:Drivers/VL53L0X/core/src/vl53l0x_api_core.c **** {
 1966              		.loc 1 526 1
 1967              		.cfi_startproc
 1968              		@ args = 0, pretend = 0, frame = 16
 1969              		@ frame_needed = 1, uses_anonymous_args = 0
 1970              		@ link register save eliminated.
 1971 0000 80B4     		push	{r7}
ARM GAS  C:\Users\Morroway\AppData\Local\Temp\ccKjJYc2.s 			page 45


 1972              		.cfi_def_cfa_offset 4
 1973              		.cfi_offset 7, -4
 1974 0002 85B0     		sub	sp, sp, #20
 1975              		.cfi_def_cfa_offset 24
 1976 0004 00AF     		add	r7, sp, #0
 1977              		.cfi_def_cfa_register 7
 1978 0006 0346     		mov	r3, r0
 1979 0008 FB80     		strh	r3, [r7, #6]	@ movhi
 527:Drivers/VL53L0X/core/src/vl53l0x_api_core.c **** 	/*!
 528:Drivers/VL53L0X/core/src/vl53l0x_api_core.c **** 	 * Decode 16-bit timeout register value - format (LSByte * 2^MSByte) + 1
 529:Drivers/VL53L0X/core/src/vl53l0x_api_core.c **** 	 */
 530:Drivers/VL53L0X/core/src/vl53l0x_api_core.c **** 
 531:Drivers/VL53L0X/core/src/vl53l0x_api_core.c **** 	uint32_t timeout_macro_clks = 0;
 1980              		.loc 1 531 11
 1981 000a 0023     		movs	r3, #0
 1982 000c FB60     		str	r3, [r7, #12]
 532:Drivers/VL53L0X/core/src/vl53l0x_api_core.c **** 
 533:Drivers/VL53L0X/core/src/vl53l0x_api_core.c **** 	timeout_macro_clks = ((uint32_t) (encoded_timeout & 0x00FF)
 1983              		.loc 1 533 52
 1984 000e FB88     		ldrh	r3, [r7, #6]
 1985              		.loc 1 533 24
 1986 0010 DBB2     		uxtb	r3, r3
 534:Drivers/VL53L0X/core/src/vl53l0x_api_core.c **** 			<< (uint32_t) ((encoded_timeout & 0xFF00) >> 8)) + 1;
 1987              		.loc 1 534 46
 1988 0012 FA88     		ldrh	r2, [r7, #6]
 1989 0014 120A     		lsrs	r2, r2, #8
 1990 0016 92B2     		uxth	r2, r2
 1991              		.loc 1 534 4
 1992 0018 9340     		lsls	r3, r3, r2
 533:Drivers/VL53L0X/core/src/vl53l0x_api_core.c **** 			<< (uint32_t) ((encoded_timeout & 0xFF00) >> 8)) + 1;
 1993              		.loc 1 533 21
 1994 001a 0133     		adds	r3, r3, #1
 1995 001c FB60     		str	r3, [r7, #12]
 535:Drivers/VL53L0X/core/src/vl53l0x_api_core.c **** 
 536:Drivers/VL53L0X/core/src/vl53l0x_api_core.c **** 	return timeout_macro_clks;
 1996              		.loc 1 536 9
 1997 001e FB68     		ldr	r3, [r7, #12]
 537:Drivers/VL53L0X/core/src/vl53l0x_api_core.c **** }
 1998              		.loc 1 537 1
 1999 0020 1846     		mov	r0, r3
 2000 0022 1437     		adds	r7, r7, #20
 2001              		.cfi_def_cfa_offset 4
 2002 0024 BD46     		mov	sp, r7
 2003              		.cfi_def_cfa_register 13
 2004              		@ sp needed
 2005 0026 5DF8047B 		ldr	r7, [sp], #4
 2006              		.cfi_restore 7
 2007              		.cfi_def_cfa_offset 0
 2008 002a 7047     		bx	lr
 2009              		.cfi_endproc
 2010              	.LFE334:
 2012              		.section	.text.VL53L0X_calc_timeout_mclks,"ax",%progbits
 2013              		.align	1
 2014              		.global	VL53L0X_calc_timeout_mclks
 2015              		.syntax unified
 2016              		.thumb
 2017              		.thumb_func
ARM GAS  C:\Users\Morroway\AppData\Local\Temp\ccKjJYc2.s 			page 46


 2019              	VL53L0X_calc_timeout_mclks:
 2020              	.LFB335:
 538:Drivers/VL53L0X/core/src/vl53l0x_api_core.c **** 
 539:Drivers/VL53L0X/core/src/vl53l0x_api_core.c **** 
 540:Drivers/VL53L0X/core/src/vl53l0x_api_core.c **** /* To convert ms into register value */
 541:Drivers/VL53L0X/core/src/vl53l0x_api_core.c **** uint32_t VL53L0X_calc_timeout_mclks(VL53L0X_DEV Dev,
 542:Drivers/VL53L0X/core/src/vl53l0x_api_core.c **** 		uint32_t timeout_period_us,
 543:Drivers/VL53L0X/core/src/vl53l0x_api_core.c **** 		uint8_t vcsel_period_pclks)
 544:Drivers/VL53L0X/core/src/vl53l0x_api_core.c **** {
 2021              		.loc 1 544 1
 2022              		.cfi_startproc
 2023              		@ args = 0, pretend = 0, frame = 32
 2024              		@ frame_needed = 1, uses_anonymous_args = 0
 2025 0000 80B5     		push	{r7, lr}
 2026              		.cfi_def_cfa_offset 8
 2027              		.cfi_offset 7, -8
 2028              		.cfi_offset 14, -4
 2029 0002 88B0     		sub	sp, sp, #32
 2030              		.cfi_def_cfa_offset 40
 2031 0004 00AF     		add	r7, sp, #0
 2032              		.cfi_def_cfa_register 7
 2033 0006 F860     		str	r0, [r7, #12]
 2034 0008 B960     		str	r1, [r7, #8]
 2035 000a 1346     		mov	r3, r2
 2036 000c FB71     		strb	r3, [r7, #7]
 545:Drivers/VL53L0X/core/src/vl53l0x_api_core.c **** 	uint32_t macro_period_ps;
 546:Drivers/VL53L0X/core/src/vl53l0x_api_core.c **** 	uint32_t macro_period_ns;
 547:Drivers/VL53L0X/core/src/vl53l0x_api_core.c **** 	uint32_t timeout_period_mclks = 0;
 2037              		.loc 1 547 11
 2038 000e 0023     		movs	r3, #0
 2039 0010 FB61     		str	r3, [r7, #28]
 548:Drivers/VL53L0X/core/src/vl53l0x_api_core.c **** 
 549:Drivers/VL53L0X/core/src/vl53l0x_api_core.c **** 	macro_period_ps = VL53L0X_calc_macro_period_ps(Dev, vcsel_period_pclks);
 2040              		.loc 1 549 20
 2041 0012 FB79     		ldrb	r3, [r7, #7]	@ zero_extendqisi2
 2042 0014 1946     		mov	r1, r3
 2043 0016 F868     		ldr	r0, [r7, #12]
 2044 0018 FFF7FEFF 		bl	VL53L0X_calc_macro_period_ps
 2045 001c B861     		str	r0, [r7, #24]
 550:Drivers/VL53L0X/core/src/vl53l0x_api_core.c **** 	macro_period_ns = (macro_period_ps + 500) / 1000;
 2046              		.loc 1 550 37
 2047 001e BB69     		ldr	r3, [r7, #24]
 2048 0020 03F5FA73 		add	r3, r3, #500
 2049              		.loc 1 550 18
 2050 0024 0A4A     		ldr	r2, .L60
 2051 0026 A2FB0323 		umull	r2, r3, r2, r3
 2052 002a 9B09     		lsrs	r3, r3, #6
 2053 002c 7B61     		str	r3, [r7, #20]
 551:Drivers/VL53L0X/core/src/vl53l0x_api_core.c **** 
 552:Drivers/VL53L0X/core/src/vl53l0x_api_core.c **** 	timeout_period_mclks =
 553:Drivers/VL53L0X/core/src/vl53l0x_api_core.c **** 		(uint32_t) (((timeout_period_us * 1000)
 2054              		.loc 1 553 35
 2055 002e BB68     		ldr	r3, [r7, #8]
 2056 0030 4FF47A72 		mov	r2, #1000
 2057 0034 03FB02F2 		mul	r2, r3, r2
 554:Drivers/VL53L0X/core/src/vl53l0x_api_core.c **** 		+ (macro_period_ns / 2)) / macro_period_ns);
 2058              		.loc 1 554 22
ARM GAS  C:\Users\Morroway\AppData\Local\Temp\ccKjJYc2.s 			page 47


 2059 0038 7B69     		ldr	r3, [r7, #20]
 2060 003a 5B08     		lsrs	r3, r3, #1
 2061              		.loc 1 554 3
 2062 003c 1A44     		add	r2, r2, r3
 552:Drivers/VL53L0X/core/src/vl53l0x_api_core.c **** 		(uint32_t) (((timeout_period_us * 1000)
 2063              		.loc 1 552 23
 2064 003e 7B69     		ldr	r3, [r7, #20]
 2065 0040 B2FBF3F3 		udiv	r3, r2, r3
 2066 0044 FB61     		str	r3, [r7, #28]
 555:Drivers/VL53L0X/core/src/vl53l0x_api_core.c **** 
 556:Drivers/VL53L0X/core/src/vl53l0x_api_core.c ****     return timeout_period_mclks;
 2067              		.loc 1 556 12
 2068 0046 FB69     		ldr	r3, [r7, #28]
 557:Drivers/VL53L0X/core/src/vl53l0x_api_core.c **** }
 2069              		.loc 1 557 1
 2070 0048 1846     		mov	r0, r3
 2071 004a 2037     		adds	r7, r7, #32
 2072              		.cfi_def_cfa_offset 8
 2073 004c BD46     		mov	sp, r7
 2074              		.cfi_def_cfa_register 13
 2075              		@ sp needed
 2076 004e 80BD     		pop	{r7, pc}
 2077              	.L61:
 2078              		.align	2
 2079              	.L60:
 2080 0050 D34D6210 		.word	274877907
 2081              		.cfi_endproc
 2082              	.LFE335:
 2084              		.section	.text.VL53L0X_calc_timeout_us,"ax",%progbits
 2085              		.align	1
 2086              		.global	VL53L0X_calc_timeout_us
 2087              		.syntax unified
 2088              		.thumb
 2089              		.thumb_func
 2091              	VL53L0X_calc_timeout_us:
 2092              	.LFB336:
 558:Drivers/VL53L0X/core/src/vl53l0x_api_core.c **** 
 559:Drivers/VL53L0X/core/src/vl53l0x_api_core.c **** /* To convert register value into us */
 560:Drivers/VL53L0X/core/src/vl53l0x_api_core.c **** uint32_t VL53L0X_calc_timeout_us(VL53L0X_DEV Dev,
 561:Drivers/VL53L0X/core/src/vl53l0x_api_core.c **** 		uint16_t timeout_period_mclks,
 562:Drivers/VL53L0X/core/src/vl53l0x_api_core.c **** 		uint8_t vcsel_period_pclks)
 563:Drivers/VL53L0X/core/src/vl53l0x_api_core.c **** {
 2093              		.loc 1 563 1
 2094              		.cfi_startproc
 2095              		@ args = 0, pretend = 0, frame = 24
 2096              		@ frame_needed = 1, uses_anonymous_args = 0
 2097 0000 80B5     		push	{r7, lr}
 2098              		.cfi_def_cfa_offset 8
 2099              		.cfi_offset 7, -8
 2100              		.cfi_offset 14, -4
 2101 0002 86B0     		sub	sp, sp, #24
 2102              		.cfi_def_cfa_offset 32
 2103 0004 00AF     		add	r7, sp, #0
 2104              		.cfi_def_cfa_register 7
 2105 0006 7860     		str	r0, [r7, #4]
 2106 0008 0B46     		mov	r3, r1
 2107 000a 7B80     		strh	r3, [r7, #2]	@ movhi
ARM GAS  C:\Users\Morroway\AppData\Local\Temp\ccKjJYc2.s 			page 48


 2108 000c 1346     		mov	r3, r2
 2109 000e 7B70     		strb	r3, [r7, #1]
 564:Drivers/VL53L0X/core/src/vl53l0x_api_core.c **** 	uint32_t macro_period_ps;
 565:Drivers/VL53L0X/core/src/vl53l0x_api_core.c **** 	uint32_t macro_period_ns;
 566:Drivers/VL53L0X/core/src/vl53l0x_api_core.c **** 	uint32_t actual_timeout_period_us = 0;
 2110              		.loc 1 566 11
 2111 0010 0023     		movs	r3, #0
 2112 0012 7B61     		str	r3, [r7, #20]
 567:Drivers/VL53L0X/core/src/vl53l0x_api_core.c **** 
 568:Drivers/VL53L0X/core/src/vl53l0x_api_core.c **** 	macro_period_ps = VL53L0X_calc_macro_period_ps(Dev, vcsel_period_pclks);
 2113              		.loc 1 568 20
 2114 0014 7B78     		ldrb	r3, [r7, #1]	@ zero_extendqisi2
 2115 0016 1946     		mov	r1, r3
 2116 0018 7868     		ldr	r0, [r7, #4]
 2117 001a FFF7FEFF 		bl	VL53L0X_calc_macro_period_ps
 2118 001e 3861     		str	r0, [r7, #16]
 569:Drivers/VL53L0X/core/src/vl53l0x_api_core.c **** 	macro_period_ns = (macro_period_ps + 500) / 1000;
 2119              		.loc 1 569 37
 2120 0020 3B69     		ldr	r3, [r7, #16]
 2121 0022 03F5FA73 		add	r3, r3, #500
 2122              		.loc 1 569 18
 2123 0026 0A4A     		ldr	r2, .L64
 2124 0028 A2FB0323 		umull	r2, r3, r2, r3
 2125 002c 9B09     		lsrs	r3, r3, #6
 2126 002e FB60     		str	r3, [r7, #12]
 570:Drivers/VL53L0X/core/src/vl53l0x_api_core.c **** 
 571:Drivers/VL53L0X/core/src/vl53l0x_api_core.c **** 	actual_timeout_period_us =
 572:Drivers/VL53L0X/core/src/vl53l0x_api_core.c **** 		((timeout_period_mclks * macro_period_ns) + 500) / 1000;
 2127              		.loc 1 572 26
 2128 0030 7B88     		ldrh	r3, [r7, #2]
 2129 0032 FA68     		ldr	r2, [r7, #12]
 2130 0034 02FB03F3 		mul	r3, r2, r3
 2131              		.loc 1 572 45
 2132 0038 03F5FA73 		add	r3, r3, #500
 571:Drivers/VL53L0X/core/src/vl53l0x_api_core.c **** 		((timeout_period_mclks * macro_period_ns) + 500) / 1000;
 2133              		.loc 1 571 27
 2134 003c 044A     		ldr	r2, .L64
 2135 003e A2FB0323 		umull	r2, r3, r2, r3
 2136 0042 9B09     		lsrs	r3, r3, #6
 2137 0044 7B61     		str	r3, [r7, #20]
 573:Drivers/VL53L0X/core/src/vl53l0x_api_core.c **** 
 574:Drivers/VL53L0X/core/src/vl53l0x_api_core.c **** 	return actual_timeout_period_us;
 2138              		.loc 1 574 9
 2139 0046 7B69     		ldr	r3, [r7, #20]
 575:Drivers/VL53L0X/core/src/vl53l0x_api_core.c **** }
 2140              		.loc 1 575 1
 2141 0048 1846     		mov	r0, r3
 2142 004a 1837     		adds	r7, r7, #24
 2143              		.cfi_def_cfa_offset 8
 2144 004c BD46     		mov	sp, r7
 2145              		.cfi_def_cfa_register 13
 2146              		@ sp needed
 2147 004e 80BD     		pop	{r7, pc}
 2148              	.L65:
 2149              		.align	2
 2150              	.L64:
 2151 0050 D34D6210 		.word	274877907
ARM GAS  C:\Users\Morroway\AppData\Local\Temp\ccKjJYc2.s 			page 49


 2152              		.cfi_endproc
 2153              	.LFE336:
 2155              		.section	.text.get_sequence_step_timeout,"ax",%progbits
 2156              		.align	1
 2157              		.global	get_sequence_step_timeout
 2158              		.syntax unified
 2159              		.thumb
 2160              		.thumb_func
 2162              	get_sequence_step_timeout:
 2163              	.LFB337:
 576:Drivers/VL53L0X/core/src/vl53l0x_api_core.c **** 
 577:Drivers/VL53L0X/core/src/vl53l0x_api_core.c **** 
 578:Drivers/VL53L0X/core/src/vl53l0x_api_core.c **** VL53L0X_Error get_sequence_step_timeout(VL53L0X_DEV Dev,
 579:Drivers/VL53L0X/core/src/vl53l0x_api_core.c **** 				VL53L0X_SequenceStepId SequenceStepId,
 580:Drivers/VL53L0X/core/src/vl53l0x_api_core.c **** 				uint32_t *pTimeOutMicroSecs)
 581:Drivers/VL53L0X/core/src/vl53l0x_api_core.c **** {
 2164              		.loc 1 581 1
 2165              		.cfi_startproc
 2166              		@ args = 0, pretend = 0, frame = 48
 2167              		@ frame_needed = 1, uses_anonymous_args = 0
 2168 0000 80B5     		push	{r7, lr}
 2169              		.cfi_def_cfa_offset 8
 2170              		.cfi_offset 7, -8
 2171              		.cfi_offset 14, -4
 2172 0002 8CB0     		sub	sp, sp, #48
 2173              		.cfi_def_cfa_offset 56
 2174 0004 00AF     		add	r7, sp, #0
 2175              		.cfi_def_cfa_register 7
 2176 0006 F860     		str	r0, [r7, #12]
 2177 0008 0B46     		mov	r3, r1
 2178 000a 7A60     		str	r2, [r7, #4]
 2179 000c FB72     		strb	r3, [r7, #11]
 582:Drivers/VL53L0X/core/src/vl53l0x_api_core.c **** 	VL53L0X_Error Status = VL53L0X_ERROR_NONE;
 2180              		.loc 1 582 16
 2181 000e 0023     		movs	r3, #0
 2182 0010 87F82F30 		strb	r3, [r7, #47]
 583:Drivers/VL53L0X/core/src/vl53l0x_api_core.c **** 	uint8_t CurrentVCSELPulsePeriodPClk;
 584:Drivers/VL53L0X/core/src/vl53l0x_api_core.c **** 	uint8_t EncodedTimeOutByte = 0;
 2183              		.loc 1 584 10
 2184 0014 0023     		movs	r3, #0
 2185 0016 87F82030 		strb	r3, [r7, #32]
 585:Drivers/VL53L0X/core/src/vl53l0x_api_core.c **** 	uint32_t TimeoutMicroSeconds = 0;
 2186              		.loc 1 585 11
 2187 001a 0023     		movs	r3, #0
 2188 001c BB62     		str	r3, [r7, #40]
 586:Drivers/VL53L0X/core/src/vl53l0x_api_core.c **** 	uint16_t PreRangeEncodedTimeOut = 0;
 2189              		.loc 1 586 11
 2190 001e 0023     		movs	r3, #0
 2191 0020 FB83     		strh	r3, [r7, #30]	@ movhi
 587:Drivers/VL53L0X/core/src/vl53l0x_api_core.c **** 	uint16_t MsrcTimeOutMClks;
 588:Drivers/VL53L0X/core/src/vl53l0x_api_core.c **** 	uint16_t PreRangeTimeOutMClks;
 589:Drivers/VL53L0X/core/src/vl53l0x_api_core.c **** 	uint16_t FinalRangeTimeOutMClks = 0;
 2192              		.loc 1 589 11
 2193 0022 0023     		movs	r3, #0
 2194 0024 BB84     		strh	r3, [r7, #36]	@ movhi
 590:Drivers/VL53L0X/core/src/vl53l0x_api_core.c **** 	uint16_t FinalRangeEncodedTimeOut;
 591:Drivers/VL53L0X/core/src/vl53l0x_api_core.c **** 	VL53L0X_SchedulerSequenceSteps_t SchedulerSequenceSteps;
ARM GAS  C:\Users\Morroway\AppData\Local\Temp\ccKjJYc2.s 			page 50


 592:Drivers/VL53L0X/core/src/vl53l0x_api_core.c **** 
 593:Drivers/VL53L0X/core/src/vl53l0x_api_core.c **** 	if ((SequenceStepId == VL53L0X_SEQUENCESTEP_TCC)	 ||
 2195              		.loc 1 593 5
 2196 0026 FB7A     		ldrb	r3, [r7, #11]	@ zero_extendqisi2
 2197 0028 002B     		cmp	r3, #0
 2198 002a 05D0     		beq	.L67
 2199              		.loc 1 593 52 discriminator 1
 2200 002c FB7A     		ldrb	r3, [r7, #11]	@ zero_extendqisi2
 2201 002e 012B     		cmp	r3, #1
 2202 0030 02D0     		beq	.L67
 594:Drivers/VL53L0X/core/src/vl53l0x_api_core.c **** 		(SequenceStepId == VL53L0X_SEQUENCESTEP_DSS)	 ||
 2203              		.loc 1 594 49
 2204 0032 FB7A     		ldrb	r3, [r7, #11]	@ zero_extendqisi2
 2205 0034 022B     		cmp	r3, #2
 2206 0036 28D1     		bne	.L68
 2207              	.L67:
 595:Drivers/VL53L0X/core/src/vl53l0x_api_core.c **** 		(SequenceStepId == VL53L0X_SEQUENCESTEP_MSRC)) {
 596:Drivers/VL53L0X/core/src/vl53l0x_api_core.c **** 
 597:Drivers/VL53L0X/core/src/vl53l0x_api_core.c **** 		Status = VL53L0X_GetVcselPulsePeriod(Dev,
 2208              		.loc 1 597 12
 2209 0038 07F12103 		add	r3, r7, #33
 2210 003c 1A46     		mov	r2, r3
 2211 003e 0021     		movs	r1, #0
 2212 0040 F868     		ldr	r0, [r7, #12]
 2213 0042 FFF7FEFF 		bl	VL53L0X_GetVcselPulsePeriod
 2214 0046 0346     		mov	r3, r0
 2215 0048 87F82F30 		strb	r3, [r7, #47]
 598:Drivers/VL53L0X/core/src/vl53l0x_api_core.c **** 					VL53L0X_VCSEL_PERIOD_PRE_RANGE,
 599:Drivers/VL53L0X/core/src/vl53l0x_api_core.c **** 					&CurrentVCSELPulsePeriodPClk);
 600:Drivers/VL53L0X/core/src/vl53l0x_api_core.c **** 		if (Status == VL53L0X_ERROR_NONE) {
 2216              		.loc 1 600 6
 2217 004c 97F92F30 		ldrsb	r3, [r7, #47]
 2218 0050 002B     		cmp	r3, #0
 2219 0052 09D1     		bne	.L69
 601:Drivers/VL53L0X/core/src/vl53l0x_api_core.c **** 			Status = VL53L0X_RdByte(Dev,
 2220              		.loc 1 601 13
 2221 0054 07F12003 		add	r3, r7, #32
 2222 0058 1A46     		mov	r2, r3
 2223 005a 4621     		movs	r1, #70
 2224 005c F868     		ldr	r0, [r7, #12]
 2225 005e FFF7FEFF 		bl	VL53L0X_RdByte
 2226 0062 0346     		mov	r3, r0
 2227 0064 87F82F30 		strb	r3, [r7, #47]
 2228              	.L69:
 602:Drivers/VL53L0X/core/src/vl53l0x_api_core.c **** 					VL53L0X_REG_MSRC_CONFIG_TIMEOUT_MACROP,
 603:Drivers/VL53L0X/core/src/vl53l0x_api_core.c **** 					&EncodedTimeOutByte);
 604:Drivers/VL53L0X/core/src/vl53l0x_api_core.c **** 		}
 605:Drivers/VL53L0X/core/src/vl53l0x_api_core.c **** 		MsrcTimeOutMClks = VL53L0X_decode_timeout(EncodedTimeOutByte);
 2229              		.loc 1 605 22
 2230 0068 97F82030 		ldrb	r3, [r7, #32]	@ zero_extendqisi2
 2231 006c 9BB2     		uxth	r3, r3
 2232 006e 1846     		mov	r0, r3
 2233 0070 FFF7FEFF 		bl	VL53L0X_decode_timeout
 2234 0074 0346     		mov	r3, r0
 2235              		.loc 1 605 20
 2236 0076 7B84     		strh	r3, [r7, #34]	@ movhi
 606:Drivers/VL53L0X/core/src/vl53l0x_api_core.c **** 
ARM GAS  C:\Users\Morroway\AppData\Local\Temp\ccKjJYc2.s 			page 51


 607:Drivers/VL53L0X/core/src/vl53l0x_api_core.c **** 		TimeoutMicroSeconds = VL53L0X_calc_timeout_us(Dev,
 2237              		.loc 1 607 25
 2238 0078 97F82120 		ldrb	r2, [r7, #33]	@ zero_extendqisi2
 2239 007c 7B8C     		ldrh	r3, [r7, #34]
 2240 007e 1946     		mov	r1, r3
 2241 0080 F868     		ldr	r0, [r7, #12]
 2242 0082 FFF7FEFF 		bl	VL53L0X_calc_timeout_us
 2243 0086 B862     		str	r0, [r7, #40]
 2244              		.loc 1 607 23
 2245 0088 92E0     		b	.L70
 2246              	.L68:
 608:Drivers/VL53L0X/core/src/vl53l0x_api_core.c **** 						MsrcTimeOutMClks,
 609:Drivers/VL53L0X/core/src/vl53l0x_api_core.c **** 						CurrentVCSELPulsePeriodPClk);
 610:Drivers/VL53L0X/core/src/vl53l0x_api_core.c **** 	} else if (SequenceStepId == VL53L0X_SEQUENCESTEP_PRE_RANGE) {
 2247              		.loc 1 610 12
 2248 008a FB7A     		ldrb	r3, [r7, #11]	@ zero_extendqisi2
 2249 008c 032B     		cmp	r3, #3
 2250 008e 35D1     		bne	.L71
 611:Drivers/VL53L0X/core/src/vl53l0x_api_core.c **** 		/* Retrieve PRE-RANGE VCSEL Period */
 612:Drivers/VL53L0X/core/src/vl53l0x_api_core.c **** 		Status = VL53L0X_GetVcselPulsePeriod(Dev,
 2251              		.loc 1 612 12
 2252 0090 07F12103 		add	r3, r7, #33
 2253 0094 1A46     		mov	r2, r3
 2254 0096 0021     		movs	r1, #0
 2255 0098 F868     		ldr	r0, [r7, #12]
 2256 009a FFF7FEFF 		bl	VL53L0X_GetVcselPulsePeriod
 2257 009e 0346     		mov	r3, r0
 2258 00a0 87F82F30 		strb	r3, [r7, #47]
 613:Drivers/VL53L0X/core/src/vl53l0x_api_core.c **** 						VL53L0X_VCSEL_PERIOD_PRE_RANGE,
 614:Drivers/VL53L0X/core/src/vl53l0x_api_core.c **** 						&CurrentVCSELPulsePeriodPClk);
 615:Drivers/VL53L0X/core/src/vl53l0x_api_core.c **** 
 616:Drivers/VL53L0X/core/src/vl53l0x_api_core.c **** 		/* Retrieve PRE-RANGE Timeout in Macro periods (MCLKS) */
 617:Drivers/VL53L0X/core/src/vl53l0x_api_core.c **** 		if (Status == VL53L0X_ERROR_NONE) {
 2259              		.loc 1 617 6
 2260 00a4 97F92F30 		ldrsb	r3, [r7, #47]
 2261 00a8 002B     		cmp	r3, #0
 2262 00aa 40F08180 		bne	.L70
 618:Drivers/VL53L0X/core/src/vl53l0x_api_core.c **** 
 619:Drivers/VL53L0X/core/src/vl53l0x_api_core.c **** 			/* Retrieve PRE-RANGE VCSEL Period */
 620:Drivers/VL53L0X/core/src/vl53l0x_api_core.c **** 			Status = VL53L0X_GetVcselPulsePeriod(Dev,
 2263              		.loc 1 620 13
 2264 00ae 07F12103 		add	r3, r7, #33
 2265 00b2 1A46     		mov	r2, r3
 2266 00b4 0021     		movs	r1, #0
 2267 00b6 F868     		ldr	r0, [r7, #12]
 2268 00b8 FFF7FEFF 		bl	VL53L0X_GetVcselPulsePeriod
 2269 00bc 0346     		mov	r3, r0
 2270 00be 87F82F30 		strb	r3, [r7, #47]
 621:Drivers/VL53L0X/core/src/vl53l0x_api_core.c **** 					VL53L0X_VCSEL_PERIOD_PRE_RANGE,
 622:Drivers/VL53L0X/core/src/vl53l0x_api_core.c **** 					&CurrentVCSELPulsePeriodPClk);
 623:Drivers/VL53L0X/core/src/vl53l0x_api_core.c **** 
 624:Drivers/VL53L0X/core/src/vl53l0x_api_core.c **** 			if (Status == VL53L0X_ERROR_NONE) {
 2271              		.loc 1 624 7
 2272 00c2 97F92F30 		ldrsb	r3, [r7, #47]
 2273 00c6 002B     		cmp	r3, #0
 2274 00c8 09D1     		bne	.L72
 625:Drivers/VL53L0X/core/src/vl53l0x_api_core.c **** 				Status = VL53L0X_RdWord(Dev,
ARM GAS  C:\Users\Morroway\AppData\Local\Temp\ccKjJYc2.s 			page 52


 2275              		.loc 1 625 14
 2276 00ca 07F11E03 		add	r3, r7, #30
 2277 00ce 1A46     		mov	r2, r3
 2278 00d0 5121     		movs	r1, #81
 2279 00d2 F868     		ldr	r0, [r7, #12]
 2280 00d4 FFF7FEFF 		bl	VL53L0X_RdWord
 2281 00d8 0346     		mov	r3, r0
 2282 00da 87F82F30 		strb	r3, [r7, #47]
 2283              	.L72:
 626:Drivers/VL53L0X/core/src/vl53l0x_api_core.c **** 				VL53L0X_REG_PRE_RANGE_CONFIG_TIMEOUT_MACROP_HI,
 627:Drivers/VL53L0X/core/src/vl53l0x_api_core.c **** 				&PreRangeEncodedTimeOut);
 628:Drivers/VL53L0X/core/src/vl53l0x_api_core.c **** 			}
 629:Drivers/VL53L0X/core/src/vl53l0x_api_core.c **** 
 630:Drivers/VL53L0X/core/src/vl53l0x_api_core.c **** 			PreRangeTimeOutMClks = VL53L0X_decode_timeout(
 2284              		.loc 1 630 27
 2285 00de FB8B     		ldrh	r3, [r7, #30]
 2286 00e0 1846     		mov	r0, r3
 2287 00e2 FFF7FEFF 		bl	VL53L0X_decode_timeout
 2288 00e6 0346     		mov	r3, r0
 2289              		.loc 1 630 25
 2290 00e8 FB84     		strh	r3, [r7, #38]	@ movhi
 631:Drivers/VL53L0X/core/src/vl53l0x_api_core.c **** 					PreRangeEncodedTimeOut);
 632:Drivers/VL53L0X/core/src/vl53l0x_api_core.c **** 
 633:Drivers/VL53L0X/core/src/vl53l0x_api_core.c **** 			TimeoutMicroSeconds = VL53L0X_calc_timeout_us(Dev,
 2291              		.loc 1 633 26
 2292 00ea 97F82120 		ldrb	r2, [r7, #33]	@ zero_extendqisi2
 2293 00ee FB8C     		ldrh	r3, [r7, #38]
 2294 00f0 1946     		mov	r1, r3
 2295 00f2 F868     		ldr	r0, [r7, #12]
 2296 00f4 FFF7FEFF 		bl	VL53L0X_calc_timeout_us
 2297 00f8 B862     		str	r0, [r7, #40]
 2298 00fa 59E0     		b	.L70
 2299              	.L71:
 634:Drivers/VL53L0X/core/src/vl53l0x_api_core.c **** 					PreRangeTimeOutMClks,
 635:Drivers/VL53L0X/core/src/vl53l0x_api_core.c **** 					CurrentVCSELPulsePeriodPClk);
 636:Drivers/VL53L0X/core/src/vl53l0x_api_core.c **** 		}
 637:Drivers/VL53L0X/core/src/vl53l0x_api_core.c **** 	} else if (SequenceStepId == VL53L0X_SEQUENCESTEP_FINAL_RANGE) {
 2300              		.loc 1 637 12
 2301 00fc FB7A     		ldrb	r3, [r7, #11]	@ zero_extendqisi2
 2302 00fe 042B     		cmp	r3, #4
 2303 0100 56D1     		bne	.L70
 638:Drivers/VL53L0X/core/src/vl53l0x_api_core.c **** 
 639:Drivers/VL53L0X/core/src/vl53l0x_api_core.c **** 		VL53L0X_GetSequenceStepEnables(Dev, &SchedulerSequenceSteps);
 2304              		.loc 1 639 3
 2305 0102 07F11403 		add	r3, r7, #20
 2306 0106 1946     		mov	r1, r3
 2307 0108 F868     		ldr	r0, [r7, #12]
 2308 010a FFF7FEFF 		bl	VL53L0X_GetSequenceStepEnables
 640:Drivers/VL53L0X/core/src/vl53l0x_api_core.c **** 		PreRangeTimeOutMClks = 0;
 2309              		.loc 1 640 24
 2310 010e 0023     		movs	r3, #0
 2311 0110 FB84     		strh	r3, [r7, #38]	@ movhi
 641:Drivers/VL53L0X/core/src/vl53l0x_api_core.c **** 
 642:Drivers/VL53L0X/core/src/vl53l0x_api_core.c **** 		if (SchedulerSequenceSteps.PreRangeOn) {
 2312              		.loc 1 642 29
 2313 0112 FB7D     		ldrb	r3, [r7, #23]	@ zero_extendqisi2
 2314              		.loc 1 642 6
ARM GAS  C:\Users\Morroway\AppData\Local\Temp\ccKjJYc2.s 			page 53


 2315 0114 002B     		cmp	r3, #0
 2316 0116 1DD0     		beq	.L73
 643:Drivers/VL53L0X/core/src/vl53l0x_api_core.c **** 			/* Retrieve PRE-RANGE VCSEL Period */
 644:Drivers/VL53L0X/core/src/vl53l0x_api_core.c **** 			Status = VL53L0X_GetVcselPulsePeriod(Dev,
 2317              		.loc 1 644 13
 2318 0118 07F12103 		add	r3, r7, #33
 2319 011c 1A46     		mov	r2, r3
 2320 011e 0021     		movs	r1, #0
 2321 0120 F868     		ldr	r0, [r7, #12]
 2322 0122 FFF7FEFF 		bl	VL53L0X_GetVcselPulsePeriod
 2323 0126 0346     		mov	r3, r0
 2324 0128 87F82F30 		strb	r3, [r7, #47]
 645:Drivers/VL53L0X/core/src/vl53l0x_api_core.c **** 				VL53L0X_VCSEL_PERIOD_PRE_RANGE,
 646:Drivers/VL53L0X/core/src/vl53l0x_api_core.c **** 				&CurrentVCSELPulsePeriodPClk);
 647:Drivers/VL53L0X/core/src/vl53l0x_api_core.c **** 
 648:Drivers/VL53L0X/core/src/vl53l0x_api_core.c **** 			/* Retrieve PRE-RANGE Timeout in Macro periods
 649:Drivers/VL53L0X/core/src/vl53l0x_api_core.c **** 			 * (MCLKS) */
 650:Drivers/VL53L0X/core/src/vl53l0x_api_core.c **** 			if (Status == VL53L0X_ERROR_NONE) {
 2325              		.loc 1 650 7
 2326 012c 97F92F30 		ldrsb	r3, [r7, #47]
 2327 0130 002B     		cmp	r3, #0
 2328 0132 0FD1     		bne	.L73
 651:Drivers/VL53L0X/core/src/vl53l0x_api_core.c **** 				Status = VL53L0X_RdWord(Dev,
 2329              		.loc 1 651 14
 2330 0134 07F11E03 		add	r3, r7, #30
 2331 0138 1A46     		mov	r2, r3
 2332 013a 5121     		movs	r1, #81
 2333 013c F868     		ldr	r0, [r7, #12]
 2334 013e FFF7FEFF 		bl	VL53L0X_RdWord
 2335 0142 0346     		mov	r3, r0
 2336 0144 87F82F30 		strb	r3, [r7, #47]
 652:Drivers/VL53L0X/core/src/vl53l0x_api_core.c **** 				VL53L0X_REG_PRE_RANGE_CONFIG_TIMEOUT_MACROP_HI,
 653:Drivers/VL53L0X/core/src/vl53l0x_api_core.c **** 				&PreRangeEncodedTimeOut);
 654:Drivers/VL53L0X/core/src/vl53l0x_api_core.c **** 				PreRangeTimeOutMClks = VL53L0X_decode_timeout(
 2337              		.loc 1 654 28
 2338 0148 FB8B     		ldrh	r3, [r7, #30]
 2339 014a 1846     		mov	r0, r3
 2340 014c FFF7FEFF 		bl	VL53L0X_decode_timeout
 2341 0150 0346     		mov	r3, r0
 2342              		.loc 1 654 26
 2343 0152 FB84     		strh	r3, [r7, #38]	@ movhi
 2344              	.L73:
 655:Drivers/VL53L0X/core/src/vl53l0x_api_core.c **** 						PreRangeEncodedTimeOut);
 656:Drivers/VL53L0X/core/src/vl53l0x_api_core.c **** 			}
 657:Drivers/VL53L0X/core/src/vl53l0x_api_core.c **** 		}
 658:Drivers/VL53L0X/core/src/vl53l0x_api_core.c **** 
 659:Drivers/VL53L0X/core/src/vl53l0x_api_core.c **** 		if (Status == VL53L0X_ERROR_NONE) {
 2345              		.loc 1 659 6
 2346 0154 97F92F30 		ldrsb	r3, [r7, #47]
 2347 0158 002B     		cmp	r3, #0
 2348 015a 09D1     		bne	.L74
 660:Drivers/VL53L0X/core/src/vl53l0x_api_core.c **** 			/* Retrieve FINAL-RANGE VCSEL Period */
 661:Drivers/VL53L0X/core/src/vl53l0x_api_core.c **** 			Status = VL53L0X_GetVcselPulsePeriod(Dev,
 2349              		.loc 1 661 13
 2350 015c 07F12103 		add	r3, r7, #33
 2351 0160 1A46     		mov	r2, r3
 2352 0162 0121     		movs	r1, #1
ARM GAS  C:\Users\Morroway\AppData\Local\Temp\ccKjJYc2.s 			page 54


 2353 0164 F868     		ldr	r0, [r7, #12]
 2354 0166 FFF7FEFF 		bl	VL53L0X_GetVcselPulsePeriod
 2355 016a 0346     		mov	r3, r0
 2356 016c 87F82F30 		strb	r3, [r7, #47]
 2357              	.L74:
 662:Drivers/VL53L0X/core/src/vl53l0x_api_core.c **** 					VL53L0X_VCSEL_PERIOD_FINAL_RANGE,
 663:Drivers/VL53L0X/core/src/vl53l0x_api_core.c **** 					&CurrentVCSELPulsePeriodPClk);
 664:Drivers/VL53L0X/core/src/vl53l0x_api_core.c **** 		}
 665:Drivers/VL53L0X/core/src/vl53l0x_api_core.c **** 
 666:Drivers/VL53L0X/core/src/vl53l0x_api_core.c **** 		/* Retrieve FINAL-RANGE Timeout in Macro periods (MCLKS) */
 667:Drivers/VL53L0X/core/src/vl53l0x_api_core.c **** 		if (Status == VL53L0X_ERROR_NONE) {
 2358              		.loc 1 667 6
 2359 0170 97F92F30 		ldrsb	r3, [r7, #47]
 2360 0174 002B     		cmp	r3, #0
 2361 0176 0FD1     		bne	.L75
 668:Drivers/VL53L0X/core/src/vl53l0x_api_core.c **** 			Status = VL53L0X_RdWord(Dev,
 2362              		.loc 1 668 13
 2363 0178 07F11C03 		add	r3, r7, #28
 2364 017c 1A46     		mov	r2, r3
 2365 017e 7121     		movs	r1, #113
 2366 0180 F868     		ldr	r0, [r7, #12]
 2367 0182 FFF7FEFF 		bl	VL53L0X_RdWord
 2368 0186 0346     		mov	r3, r0
 2369 0188 87F82F30 		strb	r3, [r7, #47]
 669:Drivers/VL53L0X/core/src/vl53l0x_api_core.c **** 				VL53L0X_REG_FINAL_RANGE_CONFIG_TIMEOUT_MACROP_HI,
 670:Drivers/VL53L0X/core/src/vl53l0x_api_core.c **** 				&FinalRangeEncodedTimeOut);
 671:Drivers/VL53L0X/core/src/vl53l0x_api_core.c **** 			FinalRangeTimeOutMClks = VL53L0X_decode_timeout(
 2370              		.loc 1 671 29
 2371 018c BB8B     		ldrh	r3, [r7, #28]
 2372 018e 1846     		mov	r0, r3
 2373 0190 FFF7FEFF 		bl	VL53L0X_decode_timeout
 2374 0194 0346     		mov	r3, r0
 2375              		.loc 1 671 27
 2376 0196 BB84     		strh	r3, [r7, #36]	@ movhi
 2377              	.L75:
 672:Drivers/VL53L0X/core/src/vl53l0x_api_core.c **** 					FinalRangeEncodedTimeOut);
 673:Drivers/VL53L0X/core/src/vl53l0x_api_core.c **** 		}
 674:Drivers/VL53L0X/core/src/vl53l0x_api_core.c **** 
 675:Drivers/VL53L0X/core/src/vl53l0x_api_core.c **** 		FinalRangeTimeOutMClks -= PreRangeTimeOutMClks;
 2378              		.loc 1 675 26
 2379 0198 BA8C     		ldrh	r2, [r7, #36]	@ movhi
 2380 019a FB8C     		ldrh	r3, [r7, #38]	@ movhi
 2381 019c D31A     		subs	r3, r2, r3
 2382 019e BB84     		strh	r3, [r7, #36]	@ movhi
 676:Drivers/VL53L0X/core/src/vl53l0x_api_core.c **** 		TimeoutMicroSeconds = VL53L0X_calc_timeout_us(Dev,
 2383              		.loc 1 676 25
 2384 01a0 97F82120 		ldrb	r2, [r7, #33]	@ zero_extendqisi2
 2385 01a4 BB8C     		ldrh	r3, [r7, #36]
 2386 01a6 1946     		mov	r1, r3
 2387 01a8 F868     		ldr	r0, [r7, #12]
 2388 01aa FFF7FEFF 		bl	VL53L0X_calc_timeout_us
 2389 01ae B862     		str	r0, [r7, #40]
 2390              	.L70:
 677:Drivers/VL53L0X/core/src/vl53l0x_api_core.c **** 						FinalRangeTimeOutMClks,
 678:Drivers/VL53L0X/core/src/vl53l0x_api_core.c **** 						CurrentVCSELPulsePeriodPClk);
 679:Drivers/VL53L0X/core/src/vl53l0x_api_core.c **** 	}
 680:Drivers/VL53L0X/core/src/vl53l0x_api_core.c **** 
ARM GAS  C:\Users\Morroway\AppData\Local\Temp\ccKjJYc2.s 			page 55


 681:Drivers/VL53L0X/core/src/vl53l0x_api_core.c **** 	*pTimeOutMicroSecs = TimeoutMicroSeconds;
 2391              		.loc 1 681 21
 2392 01b0 7B68     		ldr	r3, [r7, #4]
 2393 01b2 BA6A     		ldr	r2, [r7, #40]
 2394 01b4 1A60     		str	r2, [r3]
 682:Drivers/VL53L0X/core/src/vl53l0x_api_core.c **** 
 683:Drivers/VL53L0X/core/src/vl53l0x_api_core.c **** 	return Status;
 2395              		.loc 1 683 9
 2396 01b6 97F92F30 		ldrsb	r3, [r7, #47]
 684:Drivers/VL53L0X/core/src/vl53l0x_api_core.c **** }
 2397              		.loc 1 684 1
 2398 01ba 1846     		mov	r0, r3
 2399 01bc 3037     		adds	r7, r7, #48
 2400              		.cfi_def_cfa_offset 8
 2401 01be BD46     		mov	sp, r7
 2402              		.cfi_def_cfa_register 13
 2403              		@ sp needed
 2404 01c0 80BD     		pop	{r7, pc}
 2405              		.cfi_endproc
 2406              	.LFE337:
 2408              		.section	.text.set_sequence_step_timeout,"ax",%progbits
 2409              		.align	1
 2410              		.global	set_sequence_step_timeout
 2411              		.syntax unified
 2412              		.thumb
 2413              		.thumb_func
 2415              	set_sequence_step_timeout:
 2416              	.LFB338:
 685:Drivers/VL53L0X/core/src/vl53l0x_api_core.c **** 
 686:Drivers/VL53L0X/core/src/vl53l0x_api_core.c **** 
 687:Drivers/VL53L0X/core/src/vl53l0x_api_core.c **** VL53L0X_Error set_sequence_step_timeout(VL53L0X_DEV Dev,
 688:Drivers/VL53L0X/core/src/vl53l0x_api_core.c **** 					VL53L0X_SequenceStepId SequenceStepId,
 689:Drivers/VL53L0X/core/src/vl53l0x_api_core.c **** 					uint32_t TimeOutMicroSecs)
 690:Drivers/VL53L0X/core/src/vl53l0x_api_core.c **** {
 2417              		.loc 1 690 1
 2418              		.cfi_startproc
 2419              		@ args = 0, pretend = 0, frame = 40
 2420              		@ frame_needed = 1, uses_anonymous_args = 0
 2421 0000 80B5     		push	{r7, lr}
 2422              		.cfi_def_cfa_offset 8
 2423              		.cfi_offset 7, -8
 2424              		.cfi_offset 14, -4
 2425 0002 8AB0     		sub	sp, sp, #40
 2426              		.cfi_def_cfa_offset 48
 2427 0004 00AF     		add	r7, sp, #0
 2428              		.cfi_def_cfa_register 7
 2429 0006 F860     		str	r0, [r7, #12]
 2430 0008 0B46     		mov	r3, r1
 2431 000a 7A60     		str	r2, [r7, #4]
 2432 000c FB72     		strb	r3, [r7, #11]
 691:Drivers/VL53L0X/core/src/vl53l0x_api_core.c **** 	VL53L0X_Error Status = VL53L0X_ERROR_NONE;
 2433              		.loc 1 691 16
 2434 000e 0023     		movs	r3, #0
 2435 0010 87F82730 		strb	r3, [r7, #39]
 692:Drivers/VL53L0X/core/src/vl53l0x_api_core.c **** 	uint8_t CurrentVCSELPulsePeriodPClk;
 693:Drivers/VL53L0X/core/src/vl53l0x_api_core.c **** 	uint8_t MsrcEncodedTimeOut;
 694:Drivers/VL53L0X/core/src/vl53l0x_api_core.c **** 	uint16_t PreRangeEncodedTimeOut;
ARM GAS  C:\Users\Morroway\AppData\Local\Temp\ccKjJYc2.s 			page 56


 695:Drivers/VL53L0X/core/src/vl53l0x_api_core.c **** 	uint16_t PreRangeTimeOutMClks;
 696:Drivers/VL53L0X/core/src/vl53l0x_api_core.c **** 	uint16_t MsrcRangeTimeOutMClks;
 697:Drivers/VL53L0X/core/src/vl53l0x_api_core.c **** 	uint32_t FinalRangeTimeOutMClks;
 698:Drivers/VL53L0X/core/src/vl53l0x_api_core.c **** 	uint16_t FinalRangeEncodedTimeOut;
 699:Drivers/VL53L0X/core/src/vl53l0x_api_core.c **** 	VL53L0X_SchedulerSequenceSteps_t SchedulerSequenceSteps;
 700:Drivers/VL53L0X/core/src/vl53l0x_api_core.c **** 
 701:Drivers/VL53L0X/core/src/vl53l0x_api_core.c **** 	if ((SequenceStepId == VL53L0X_SEQUENCESTEP_TCC)	 ||
 2436              		.loc 1 701 5
 2437 0014 FB7A     		ldrb	r3, [r7, #11]	@ zero_extendqisi2
 2438 0016 002B     		cmp	r3, #0
 2439 0018 05D0     		beq	.L78
 2440              		.loc 1 701 52 discriminator 1
 2441 001a FB7A     		ldrb	r3, [r7, #11]	@ zero_extendqisi2
 2442 001c 012B     		cmp	r3, #1
 2443 001e 02D0     		beq	.L78
 702:Drivers/VL53L0X/core/src/vl53l0x_api_core.c **** 		(SequenceStepId == VL53L0X_SEQUENCESTEP_DSS)	 ||
 2444              		.loc 1 702 49
 2445 0020 FB7A     		ldrb	r3, [r7, #11]	@ zero_extendqisi2
 2446 0022 022B     		cmp	r3, #2
 2447 0024 38D1     		bne	.L79
 2448              	.L78:
 703:Drivers/VL53L0X/core/src/vl53l0x_api_core.c **** 		(SequenceStepId == VL53L0X_SEQUENCESTEP_MSRC)) {
 704:Drivers/VL53L0X/core/src/vl53l0x_api_core.c **** 
 705:Drivers/VL53L0X/core/src/vl53l0x_api_core.c **** 		Status = VL53L0X_GetVcselPulsePeriod(Dev,
 2449              		.loc 1 705 12
 2450 0026 07F11B03 		add	r3, r7, #27
 2451 002a 1A46     		mov	r2, r3
 2452 002c 0021     		movs	r1, #0
 2453 002e F868     		ldr	r0, [r7, #12]
 2454 0030 FFF7FEFF 		bl	VL53L0X_GetVcselPulsePeriod
 2455 0034 0346     		mov	r3, r0
 2456 0036 87F82730 		strb	r3, [r7, #39]
 706:Drivers/VL53L0X/core/src/vl53l0x_api_core.c **** 					VL53L0X_VCSEL_PERIOD_PRE_RANGE,
 707:Drivers/VL53L0X/core/src/vl53l0x_api_core.c **** 					&CurrentVCSELPulsePeriodPClk);
 708:Drivers/VL53L0X/core/src/vl53l0x_api_core.c **** 
 709:Drivers/VL53L0X/core/src/vl53l0x_api_core.c **** 		if (Status == VL53L0X_ERROR_NONE) {
 2457              		.loc 1 709 6
 2458 003a 97F92730 		ldrsb	r3, [r7, #39]
 2459 003e 002B     		cmp	r3, #0
 2460 0040 1AD1     		bne	.L80
 710:Drivers/VL53L0X/core/src/vl53l0x_api_core.c **** 			MsrcRangeTimeOutMClks = VL53L0X_calc_timeout_mclks(Dev,
 2461              		.loc 1 710 28
 2462 0042 FB7E     		ldrb	r3, [r7, #27]	@ zero_extendqisi2
 2463 0044 1A46     		mov	r2, r3
 2464 0046 7968     		ldr	r1, [r7, #4]
 2465 0048 F868     		ldr	r0, [r7, #12]
 2466 004a FFF7FEFF 		bl	VL53L0X_calc_timeout_mclks
 2467 004e 0346     		mov	r3, r0
 2468              		.loc 1 710 26
 2469 0050 BB83     		strh	r3, [r7, #28]	@ movhi
 711:Drivers/VL53L0X/core/src/vl53l0x_api_core.c **** 					TimeOutMicroSecs,
 712:Drivers/VL53L0X/core/src/vl53l0x_api_core.c **** 					(uint8_t)CurrentVCSELPulsePeriodPClk);
 713:Drivers/VL53L0X/core/src/vl53l0x_api_core.c **** 
 714:Drivers/VL53L0X/core/src/vl53l0x_api_core.c **** 			if (MsrcRangeTimeOutMClks > 256)
 2470              		.loc 1 714 7
 2471 0052 BB8B     		ldrh	r3, [r7, #28]
 2472 0054 B3F5807F 		cmp	r3, #256
ARM GAS  C:\Users\Morroway\AppData\Local\Temp\ccKjJYc2.s 			page 57


 2473 0058 03D9     		bls	.L81
 715:Drivers/VL53L0X/core/src/vl53l0x_api_core.c **** 				MsrcEncodedTimeOut = 255;
 2474              		.loc 1 715 24
 2475 005a FF23     		movs	r3, #255
 2476 005c 87F82630 		strb	r3, [r7, #38]
 2477 0060 04E0     		b	.L82
 2478              	.L81:
 716:Drivers/VL53L0X/core/src/vl53l0x_api_core.c **** 			else
 717:Drivers/VL53L0X/core/src/vl53l0x_api_core.c **** 				MsrcEncodedTimeOut =
 718:Drivers/VL53L0X/core/src/vl53l0x_api_core.c **** 					(uint8_t)MsrcRangeTimeOutMClks - 1;
 2479              		.loc 1 718 6
 2480 0062 BB8B     		ldrh	r3, [r7, #28]	@ movhi
 2481 0064 DBB2     		uxtb	r3, r3
 717:Drivers/VL53L0X/core/src/vl53l0x_api_core.c **** 					(uint8_t)MsrcRangeTimeOutMClks - 1;
 2482              		.loc 1 717 24
 2483 0066 013B     		subs	r3, r3, #1
 2484 0068 87F82630 		strb	r3, [r7, #38]
 2485              	.L82:
 719:Drivers/VL53L0X/core/src/vl53l0x_api_core.c **** 
 720:Drivers/VL53L0X/core/src/vl53l0x_api_core.c **** 			VL53L0X_SETDEVICESPECIFICPARAMETER(Dev,
 2486              		.loc 1 720 4
 2487 006c 97F82630 		ldrb	r3, [r7, #38]	@ zero_extendqisi2
 2488 0070 9AB2     		uxth	r2, r3
 2489 0072 FB68     		ldr	r3, [r7, #12]
 2490 0074 A3F8D820 		strh	r2, [r3, #216]	@ movhi
 2491              	.L80:
 721:Drivers/VL53L0X/core/src/vl53l0x_api_core.c **** 				LastEncodedTimeout,
 722:Drivers/VL53L0X/core/src/vl53l0x_api_core.c **** 				MsrcEncodedTimeOut);
 723:Drivers/VL53L0X/core/src/vl53l0x_api_core.c **** 		}
 724:Drivers/VL53L0X/core/src/vl53l0x_api_core.c **** 
 725:Drivers/VL53L0X/core/src/vl53l0x_api_core.c **** 		if (Status == VL53L0X_ERROR_NONE) {
 2492              		.loc 1 725 6
 2493 0078 97F92730 		ldrsb	r3, [r7, #39]
 2494 007c 002B     		cmp	r3, #0
 2495 007e 40F0AB80 		bne	.L84
 726:Drivers/VL53L0X/core/src/vl53l0x_api_core.c **** 			Status = VL53L0X_WrByte(Dev,
 2496              		.loc 1 726 13
 2497 0082 97F82630 		ldrb	r3, [r7, #38]	@ zero_extendqisi2
 2498 0086 1A46     		mov	r2, r3
 2499 0088 4621     		movs	r1, #70
 2500 008a F868     		ldr	r0, [r7, #12]
 2501 008c FFF7FEFF 		bl	VL53L0X_WrByte
 2502 0090 0346     		mov	r3, r0
 2503 0092 87F82730 		strb	r3, [r7, #39]
 725:Drivers/VL53L0X/core/src/vl53l0x_api_core.c **** 			Status = VL53L0X_WrByte(Dev,
 2504              		.loc 1 725 6
 2505 0096 9FE0     		b	.L84
 2506              	.L79:
 727:Drivers/VL53L0X/core/src/vl53l0x_api_core.c **** 				VL53L0X_REG_MSRC_CONFIG_TIMEOUT_MACROP,
 728:Drivers/VL53L0X/core/src/vl53l0x_api_core.c **** 				MsrcEncodedTimeOut);
 729:Drivers/VL53L0X/core/src/vl53l0x_api_core.c **** 		}
 730:Drivers/VL53L0X/core/src/vl53l0x_api_core.c **** 	} else {
 731:Drivers/VL53L0X/core/src/vl53l0x_api_core.c **** 
 732:Drivers/VL53L0X/core/src/vl53l0x_api_core.c **** 		if (SequenceStepId == VL53L0X_SEQUENCESTEP_PRE_RANGE) {
 2507              		.loc 1 732 6
 2508 0098 FB7A     		ldrb	r3, [r7, #11]	@ zero_extendqisi2
 2509 009a 032B     		cmp	r3, #3
ARM GAS  C:\Users\Morroway\AppData\Local\Temp\ccKjJYc2.s 			page 58


 2510 009c 35D1     		bne	.L85
 733:Drivers/VL53L0X/core/src/vl53l0x_api_core.c **** 
 734:Drivers/VL53L0X/core/src/vl53l0x_api_core.c **** 			if (Status == VL53L0X_ERROR_NONE) {
 2511              		.loc 1 734 7
 2512 009e 97F92730 		ldrsb	r3, [r7, #39]
 2513 00a2 002B     		cmp	r3, #0
 2514 00a4 1BD1     		bne	.L86
 735:Drivers/VL53L0X/core/src/vl53l0x_api_core.c **** 				Status = VL53L0X_GetVcselPulsePeriod(Dev,
 2515              		.loc 1 735 14
 2516 00a6 07F11B03 		add	r3, r7, #27
 2517 00aa 1A46     		mov	r2, r3
 2518 00ac 0021     		movs	r1, #0
 2519 00ae F868     		ldr	r0, [r7, #12]
 2520 00b0 FFF7FEFF 		bl	VL53L0X_GetVcselPulsePeriod
 2521 00b4 0346     		mov	r3, r0
 2522 00b6 87F82730 		strb	r3, [r7, #39]
 736:Drivers/VL53L0X/core/src/vl53l0x_api_core.c **** 						VL53L0X_VCSEL_PERIOD_PRE_RANGE,
 737:Drivers/VL53L0X/core/src/vl53l0x_api_core.c **** 						&CurrentVCSELPulsePeriodPClk);
 738:Drivers/VL53L0X/core/src/vl53l0x_api_core.c **** 				PreRangeTimeOutMClks =
 739:Drivers/VL53L0X/core/src/vl53l0x_api_core.c **** 					VL53L0X_calc_timeout_mclks(Dev,
 2523              		.loc 1 739 6
 2524 00ba FB7E     		ldrb	r3, [r7, #27]	@ zero_extendqisi2
 2525 00bc 1A46     		mov	r2, r3
 2526 00be 7968     		ldr	r1, [r7, #4]
 2527 00c0 F868     		ldr	r0, [r7, #12]
 2528 00c2 FFF7FEFF 		bl	VL53L0X_calc_timeout_mclks
 2529 00c6 0346     		mov	r3, r0
 738:Drivers/VL53L0X/core/src/vl53l0x_api_core.c **** 					VL53L0X_calc_timeout_mclks(Dev,
 2530              		.loc 1 738 26
 2531 00c8 BB84     		strh	r3, [r7, #36]	@ movhi
 740:Drivers/VL53L0X/core/src/vl53l0x_api_core.c **** 					TimeOutMicroSecs,
 741:Drivers/VL53L0X/core/src/vl53l0x_api_core.c **** 					(uint8_t)CurrentVCSELPulsePeriodPClk);
 742:Drivers/VL53L0X/core/src/vl53l0x_api_core.c **** 				PreRangeEncodedTimeOut = VL53L0X_encode_timeout(
 2532              		.loc 1 742 30
 2533 00ca BB8C     		ldrh	r3, [r7, #36]
 2534 00cc 1846     		mov	r0, r3
 2535 00ce FFF7FEFF 		bl	VL53L0X_encode_timeout
 2536 00d2 0346     		mov	r3, r0
 2537              		.loc 1 742 28
 2538 00d4 3B83     		strh	r3, [r7, #24]	@ movhi
 743:Drivers/VL53L0X/core/src/vl53l0x_api_core.c **** 					PreRangeTimeOutMClks);
 744:Drivers/VL53L0X/core/src/vl53l0x_api_core.c **** 
 745:Drivers/VL53L0X/core/src/vl53l0x_api_core.c **** 				VL53L0X_SETDEVICESPECIFICPARAMETER(Dev,
 2539              		.loc 1 745 5
 2540 00d6 3A8B     		ldrh	r2, [r7, #24]
 2541 00d8 FB68     		ldr	r3, [r7, #12]
 2542 00da A3F8D820 		strh	r2, [r3, #216]	@ movhi
 2543              	.L86:
 746:Drivers/VL53L0X/core/src/vl53l0x_api_core.c **** 					LastEncodedTimeout,
 747:Drivers/VL53L0X/core/src/vl53l0x_api_core.c **** 					PreRangeEncodedTimeOut);
 748:Drivers/VL53L0X/core/src/vl53l0x_api_core.c **** 			}
 749:Drivers/VL53L0X/core/src/vl53l0x_api_core.c **** 
 750:Drivers/VL53L0X/core/src/vl53l0x_api_core.c **** 			if (Status == VL53L0X_ERROR_NONE) {
 2544              		.loc 1 750 7
 2545 00de 97F92730 		ldrsb	r3, [r7, #39]
 2546 00e2 002B     		cmp	r3, #0
 2547 00e4 08D1     		bne	.L87
ARM GAS  C:\Users\Morroway\AppData\Local\Temp\ccKjJYc2.s 			page 59


 751:Drivers/VL53L0X/core/src/vl53l0x_api_core.c **** 				Status = VL53L0X_WrWord(Dev,
 2548              		.loc 1 751 14
 2549 00e6 3B8B     		ldrh	r3, [r7, #24]
 2550 00e8 1A46     		mov	r2, r3
 2551 00ea 5121     		movs	r1, #81
 2552 00ec F868     		ldr	r0, [r7, #12]
 2553 00ee FFF7FEFF 		bl	VL53L0X_WrWord
 2554 00f2 0346     		mov	r3, r0
 2555 00f4 87F82730 		strb	r3, [r7, #39]
 2556              	.L87:
 752:Drivers/VL53L0X/core/src/vl53l0x_api_core.c **** 				VL53L0X_REG_PRE_RANGE_CONFIG_TIMEOUT_MACROP_HI,
 753:Drivers/VL53L0X/core/src/vl53l0x_api_core.c **** 				PreRangeEncodedTimeOut);
 754:Drivers/VL53L0X/core/src/vl53l0x_api_core.c **** 			}
 755:Drivers/VL53L0X/core/src/vl53l0x_api_core.c **** 
 756:Drivers/VL53L0X/core/src/vl53l0x_api_core.c **** 			if (Status == VL53L0X_ERROR_NONE) {
 2557              		.loc 1 756 7
 2558 00f8 97F92730 		ldrsb	r3, [r7, #39]
 2559 00fc 002B     		cmp	r3, #0
 2560 00fe 6BD1     		bne	.L84
 757:Drivers/VL53L0X/core/src/vl53l0x_api_core.c **** 				VL53L0X_SETDEVICESPECIFICPARAMETER(
 2561              		.loc 1 757 5
 2562 0100 FB68     		ldr	r3, [r7, #12]
 2563 0102 7A68     		ldr	r2, [r7, #4]
 2564 0104 C3F8E420 		str	r2, [r3, #228]
 2565 0108 66E0     		b	.L84
 2566              	.L85:
 758:Drivers/VL53L0X/core/src/vl53l0x_api_core.c **** 					Dev,
 759:Drivers/VL53L0X/core/src/vl53l0x_api_core.c **** 					PreRangeTimeoutMicroSecs,
 760:Drivers/VL53L0X/core/src/vl53l0x_api_core.c **** 					TimeOutMicroSecs);
 761:Drivers/VL53L0X/core/src/vl53l0x_api_core.c **** 			}
 762:Drivers/VL53L0X/core/src/vl53l0x_api_core.c **** 		} else if (SequenceStepId == VL53L0X_SEQUENCESTEP_FINAL_RANGE) {
 2567              		.loc 1 762 13
 2568 010a FB7A     		ldrb	r3, [r7, #11]	@ zero_extendqisi2
 2569 010c 042B     		cmp	r3, #4
 2570 010e 60D1     		bne	.L88
 763:Drivers/VL53L0X/core/src/vl53l0x_api_core.c **** 
 764:Drivers/VL53L0X/core/src/vl53l0x_api_core.c **** 			/* For the final range timeout, the pre-range timeout
 765:Drivers/VL53L0X/core/src/vl53l0x_api_core.c **** 			 * must be added. To do this both final and pre-range
 766:Drivers/VL53L0X/core/src/vl53l0x_api_core.c **** 			 * timeouts must be expressed in macro periods MClks
 767:Drivers/VL53L0X/core/src/vl53l0x_api_core.c **** 			 * because they have different vcsel periods.
 768:Drivers/VL53L0X/core/src/vl53l0x_api_core.c **** 			 */
 769:Drivers/VL53L0X/core/src/vl53l0x_api_core.c **** 
 770:Drivers/VL53L0X/core/src/vl53l0x_api_core.c **** 			VL53L0X_GetSequenceStepEnables(Dev,
 2571              		.loc 1 770 4
 2572 0110 07F11003 		add	r3, r7, #16
 2573 0114 1946     		mov	r1, r3
 2574 0116 F868     		ldr	r0, [r7, #12]
 2575 0118 FFF7FEFF 		bl	VL53L0X_GetSequenceStepEnables
 771:Drivers/VL53L0X/core/src/vl53l0x_api_core.c **** 					&SchedulerSequenceSteps);
 772:Drivers/VL53L0X/core/src/vl53l0x_api_core.c **** 			PreRangeTimeOutMClks = 0;
 2576              		.loc 1 772 25
 2577 011c 0023     		movs	r3, #0
 2578 011e BB84     		strh	r3, [r7, #36]	@ movhi
 773:Drivers/VL53L0X/core/src/vl53l0x_api_core.c **** 			if (SchedulerSequenceSteps.PreRangeOn) {
 2579              		.loc 1 773 30
 2580 0120 FB7C     		ldrb	r3, [r7, #19]	@ zero_extendqisi2
 2581              		.loc 1 773 7
ARM GAS  C:\Users\Morroway\AppData\Local\Temp\ccKjJYc2.s 			page 60


 2582 0122 002B     		cmp	r3, #0
 2583 0124 1DD0     		beq	.L89
 774:Drivers/VL53L0X/core/src/vl53l0x_api_core.c **** 
 775:Drivers/VL53L0X/core/src/vl53l0x_api_core.c **** 				/* Retrieve PRE-RANGE VCSEL Period */
 776:Drivers/VL53L0X/core/src/vl53l0x_api_core.c **** 				Status = VL53L0X_GetVcselPulsePeriod(Dev,
 2584              		.loc 1 776 14
 2585 0126 07F11B03 		add	r3, r7, #27
 2586 012a 1A46     		mov	r2, r3
 2587 012c 0021     		movs	r1, #0
 2588 012e F868     		ldr	r0, [r7, #12]
 2589 0130 FFF7FEFF 		bl	VL53L0X_GetVcselPulsePeriod
 2590 0134 0346     		mov	r3, r0
 2591 0136 87F82730 		strb	r3, [r7, #39]
 777:Drivers/VL53L0X/core/src/vl53l0x_api_core.c **** 					VL53L0X_VCSEL_PERIOD_PRE_RANGE,
 778:Drivers/VL53L0X/core/src/vl53l0x_api_core.c **** 					&CurrentVCSELPulsePeriodPClk);
 779:Drivers/VL53L0X/core/src/vl53l0x_api_core.c **** 
 780:Drivers/VL53L0X/core/src/vl53l0x_api_core.c **** 				/* Retrieve PRE-RANGE Timeout in Macro periods
 781:Drivers/VL53L0X/core/src/vl53l0x_api_core.c **** 				 * (MCLKS) */
 782:Drivers/VL53L0X/core/src/vl53l0x_api_core.c **** 				if (Status == VL53L0X_ERROR_NONE) {
 2592              		.loc 1 782 8
 2593 013a 97F92730 		ldrsb	r3, [r7, #39]
 2594 013e 002B     		cmp	r3, #0
 2595 0140 0FD1     		bne	.L89
 783:Drivers/VL53L0X/core/src/vl53l0x_api_core.c **** 					Status = VL53L0X_RdWord(Dev, 0x51,
 2596              		.loc 1 783 15
 2597 0142 07F11803 		add	r3, r7, #24
 2598 0146 1A46     		mov	r2, r3
 2599 0148 5121     		movs	r1, #81
 2600 014a F868     		ldr	r0, [r7, #12]
 2601 014c FFF7FEFF 		bl	VL53L0X_RdWord
 2602 0150 0346     		mov	r3, r0
 2603 0152 87F82730 		strb	r3, [r7, #39]
 784:Drivers/VL53L0X/core/src/vl53l0x_api_core.c **** 						&PreRangeEncodedTimeOut);
 785:Drivers/VL53L0X/core/src/vl53l0x_api_core.c **** 					PreRangeTimeOutMClks =
 786:Drivers/VL53L0X/core/src/vl53l0x_api_core.c **** 						VL53L0X_decode_timeout(
 2604              		.loc 1 786 7
 2605 0156 3B8B     		ldrh	r3, [r7, #24]
 2606 0158 1846     		mov	r0, r3
 2607 015a FFF7FEFF 		bl	VL53L0X_decode_timeout
 2608 015e 0346     		mov	r3, r0
 785:Drivers/VL53L0X/core/src/vl53l0x_api_core.c **** 						VL53L0X_decode_timeout(
 2609              		.loc 1 785 27
 2610 0160 BB84     		strh	r3, [r7, #36]	@ movhi
 2611              	.L89:
 787:Drivers/VL53L0X/core/src/vl53l0x_api_core.c **** 							PreRangeEncodedTimeOut);
 788:Drivers/VL53L0X/core/src/vl53l0x_api_core.c **** 				}
 789:Drivers/VL53L0X/core/src/vl53l0x_api_core.c **** 			}
 790:Drivers/VL53L0X/core/src/vl53l0x_api_core.c **** 
 791:Drivers/VL53L0X/core/src/vl53l0x_api_core.c **** 			/* Calculate FINAL RANGE Timeout in Macro Periods
 792:Drivers/VL53L0X/core/src/vl53l0x_api_core.c **** 			 * (MCLKS) and add PRE-RANGE value
 793:Drivers/VL53L0X/core/src/vl53l0x_api_core.c **** 			 */
 794:Drivers/VL53L0X/core/src/vl53l0x_api_core.c **** 			if (Status == VL53L0X_ERROR_NONE) {
 2612              		.loc 1 794 7
 2613 0162 97F92730 		ldrsb	r3, [r7, #39]
 2614 0166 002B     		cmp	r3, #0
 2615 0168 09D1     		bne	.L90
 795:Drivers/VL53L0X/core/src/vl53l0x_api_core.c **** 
ARM GAS  C:\Users\Morroway\AppData\Local\Temp\ccKjJYc2.s 			page 61


 796:Drivers/VL53L0X/core/src/vl53l0x_api_core.c **** 				Status = VL53L0X_GetVcselPulsePeriod(Dev,
 2616              		.loc 1 796 14
 2617 016a 07F11B03 		add	r3, r7, #27
 2618 016e 1A46     		mov	r2, r3
 2619 0170 0121     		movs	r1, #1
 2620 0172 F868     		ldr	r0, [r7, #12]
 2621 0174 FFF7FEFF 		bl	VL53L0X_GetVcselPulsePeriod
 2622 0178 0346     		mov	r3, r0
 2623 017a 87F82730 		strb	r3, [r7, #39]
 2624              	.L90:
 797:Drivers/VL53L0X/core/src/vl53l0x_api_core.c **** 						VL53L0X_VCSEL_PERIOD_FINAL_RANGE,
 798:Drivers/VL53L0X/core/src/vl53l0x_api_core.c **** 						&CurrentVCSELPulsePeriodPClk);
 799:Drivers/VL53L0X/core/src/vl53l0x_api_core.c **** 			}
 800:Drivers/VL53L0X/core/src/vl53l0x_api_core.c **** 			if (Status == VL53L0X_ERROR_NONE) {
 2625              		.loc 1 800 7
 2626 017e 97F92730 		ldrsb	r3, [r7, #39]
 2627 0182 002B     		cmp	r3, #0
 2628 0184 28D1     		bne	.L84
 801:Drivers/VL53L0X/core/src/vl53l0x_api_core.c **** 
 802:Drivers/VL53L0X/core/src/vl53l0x_api_core.c **** 				FinalRangeTimeOutMClks =
 803:Drivers/VL53L0X/core/src/vl53l0x_api_core.c **** 					VL53L0X_calc_timeout_mclks(Dev,
 2629              		.loc 1 803 6
 2630 0186 FB7E     		ldrb	r3, [r7, #27]	@ zero_extendqisi2
 2631 0188 1A46     		mov	r2, r3
 2632 018a 7968     		ldr	r1, [r7, #4]
 2633 018c F868     		ldr	r0, [r7, #12]
 2634 018e FFF7FEFF 		bl	VL53L0X_calc_timeout_mclks
 2635 0192 3862     		str	r0, [r7, #32]
 804:Drivers/VL53L0X/core/src/vl53l0x_api_core.c **** 					TimeOutMicroSecs,
 805:Drivers/VL53L0X/core/src/vl53l0x_api_core.c **** 					(uint8_t) CurrentVCSELPulsePeriodPClk);
 806:Drivers/VL53L0X/core/src/vl53l0x_api_core.c **** 
 807:Drivers/VL53L0X/core/src/vl53l0x_api_core.c **** 				FinalRangeTimeOutMClks += PreRangeTimeOutMClks;
 2636              		.loc 1 807 28
 2637 0194 BB8C     		ldrh	r3, [r7, #36]
 2638 0196 3A6A     		ldr	r2, [r7, #32]
 2639 0198 1344     		add	r3, r3, r2
 2640 019a 3B62     		str	r3, [r7, #32]
 808:Drivers/VL53L0X/core/src/vl53l0x_api_core.c **** 
 809:Drivers/VL53L0X/core/src/vl53l0x_api_core.c **** 				FinalRangeEncodedTimeOut =
 810:Drivers/VL53L0X/core/src/vl53l0x_api_core.c **** 				VL53L0X_encode_timeout(FinalRangeTimeOutMClks);
 2641              		.loc 1 810 5
 2642 019c 386A     		ldr	r0, [r7, #32]
 2643 019e FFF7FEFF 		bl	VL53L0X_encode_timeout
 2644 01a2 0346     		mov	r3, r0
 2645 01a4 FB83     		strh	r3, [r7, #30]	@ movhi
 811:Drivers/VL53L0X/core/src/vl53l0x_api_core.c **** 
 812:Drivers/VL53L0X/core/src/vl53l0x_api_core.c **** 				if (Status == VL53L0X_ERROR_NONE) {
 2646              		.loc 1 812 8
 2647 01a6 97F92730 		ldrsb	r3, [r7, #39]
 2648 01aa 002B     		cmp	r3, #0
 2649 01ac 08D1     		bne	.L91
 813:Drivers/VL53L0X/core/src/vl53l0x_api_core.c **** 					Status = VL53L0X_WrWord(Dev, 0x71,
 2650              		.loc 1 813 15
 2651 01ae FB8B     		ldrh	r3, [r7, #30]
 2652 01b0 1A46     		mov	r2, r3
 2653 01b2 7121     		movs	r1, #113
 2654 01b4 F868     		ldr	r0, [r7, #12]
ARM GAS  C:\Users\Morroway\AppData\Local\Temp\ccKjJYc2.s 			page 62


 2655 01b6 FFF7FEFF 		bl	VL53L0X_WrWord
 2656 01ba 0346     		mov	r3, r0
 2657 01bc 87F82730 		strb	r3, [r7, #39]
 2658              	.L91:
 814:Drivers/VL53L0X/core/src/vl53l0x_api_core.c **** 					FinalRangeEncodedTimeOut);
 815:Drivers/VL53L0X/core/src/vl53l0x_api_core.c **** 				}
 816:Drivers/VL53L0X/core/src/vl53l0x_api_core.c **** 
 817:Drivers/VL53L0X/core/src/vl53l0x_api_core.c **** 				if (Status == VL53L0X_ERROR_NONE) {
 2659              		.loc 1 817 8
 2660 01c0 97F92730 		ldrsb	r3, [r7, #39]
 2661 01c4 002B     		cmp	r3, #0
 2662 01c6 07D1     		bne	.L84
 818:Drivers/VL53L0X/core/src/vl53l0x_api_core.c **** 					VL53L0X_SETDEVICESPECIFICPARAMETER(
 2663              		.loc 1 818 6
 2664 01c8 FB68     		ldr	r3, [r7, #12]
 2665 01ca 7A68     		ldr	r2, [r7, #4]
 2666 01cc C3F8DC20 		str	r2, [r3, #220]
 2667 01d0 02E0     		b	.L84
 2668              	.L88:
 819:Drivers/VL53L0X/core/src/vl53l0x_api_core.c **** 						Dev,
 820:Drivers/VL53L0X/core/src/vl53l0x_api_core.c **** 						FinalRangeTimeoutMicroSecs,
 821:Drivers/VL53L0X/core/src/vl53l0x_api_core.c **** 						TimeOutMicroSecs);
 822:Drivers/VL53L0X/core/src/vl53l0x_api_core.c **** 				}
 823:Drivers/VL53L0X/core/src/vl53l0x_api_core.c **** 			}
 824:Drivers/VL53L0X/core/src/vl53l0x_api_core.c **** 		} else
 825:Drivers/VL53L0X/core/src/vl53l0x_api_core.c **** 			Status = VL53L0X_ERROR_INVALID_PARAMS;
 2669              		.loc 1 825 11
 2670 01d2 FC23     		movs	r3, #252
 2671 01d4 87F82730 		strb	r3, [r7, #39]
 2672              	.L84:
 826:Drivers/VL53L0X/core/src/vl53l0x_api_core.c **** 
 827:Drivers/VL53L0X/core/src/vl53l0x_api_core.c **** 	}
 828:Drivers/VL53L0X/core/src/vl53l0x_api_core.c **** 	return Status;
 2673              		.loc 1 828 9
 2674 01d8 97F92730 		ldrsb	r3, [r7, #39]
 829:Drivers/VL53L0X/core/src/vl53l0x_api_core.c **** }
 2675              		.loc 1 829 1
 2676 01dc 1846     		mov	r0, r3
 2677 01de 2837     		adds	r7, r7, #40
 2678              		.cfi_def_cfa_offset 8
 2679 01e0 BD46     		mov	sp, r7
 2680              		.cfi_def_cfa_register 13
 2681              		@ sp needed
 2682 01e2 80BD     		pop	{r7, pc}
 2683              		.cfi_endproc
 2684              	.LFE338:
 2686              		.section	.text.VL53L0X_set_vcsel_pulse_period,"ax",%progbits
 2687              		.align	1
 2688              		.global	VL53L0X_set_vcsel_pulse_period
 2689              		.syntax unified
 2690              		.thumb
 2691              		.thumb_func
 2693              	VL53L0X_set_vcsel_pulse_period:
 2694              	.LFB339:
 830:Drivers/VL53L0X/core/src/vl53l0x_api_core.c **** 
 831:Drivers/VL53L0X/core/src/vl53l0x_api_core.c **** VL53L0X_Error VL53L0X_set_vcsel_pulse_period(VL53L0X_DEV Dev,
 832:Drivers/VL53L0X/core/src/vl53l0x_api_core.c **** 	VL53L0X_VcselPeriod VcselPeriodType, uint8_t VCSELPulsePeriodPCLK)
ARM GAS  C:\Users\Morroway\AppData\Local\Temp\ccKjJYc2.s 			page 63


 833:Drivers/VL53L0X/core/src/vl53l0x_api_core.c **** {
 2695              		.loc 1 833 1
 2696              		.cfi_startproc
 2697              		@ args = 0, pretend = 0, frame = 40
 2698              		@ frame_needed = 1, uses_anonymous_args = 0
 2699 0000 80B5     		push	{r7, lr}
 2700              		.cfi_def_cfa_offset 8
 2701              		.cfi_offset 7, -8
 2702              		.cfi_offset 14, -4
 2703 0002 8AB0     		sub	sp, sp, #40
 2704              		.cfi_def_cfa_offset 48
 2705 0004 00AF     		add	r7, sp, #0
 2706              		.cfi_def_cfa_register 7
 2707 0006 7860     		str	r0, [r7, #4]
 2708 0008 0B46     		mov	r3, r1
 2709 000a FB70     		strb	r3, [r7, #3]
 2710 000c 1346     		mov	r3, r2
 2711 000e BB70     		strb	r3, [r7, #2]
 834:Drivers/VL53L0X/core/src/vl53l0x_api_core.c **** 	VL53L0X_Error Status = VL53L0X_ERROR_NONE;
 2712              		.loc 1 834 16
 2713 0010 0023     		movs	r3, #0
 2714 0012 87F82730 		strb	r3, [r7, #39]
 835:Drivers/VL53L0X/core/src/vl53l0x_api_core.c **** 	uint8_t vcsel_period_reg;
 836:Drivers/VL53L0X/core/src/vl53l0x_api_core.c **** 	uint8_t MinPreVcselPeriodPCLK = 12;
 2715              		.loc 1 836 10
 2716 0016 0C23     		movs	r3, #12
 2717 0018 87F82630 		strb	r3, [r7, #38]
 837:Drivers/VL53L0X/core/src/vl53l0x_api_core.c **** 	uint8_t MaxPreVcselPeriodPCLK = 18;
 2718              		.loc 1 837 10
 2719 001c 1223     		movs	r3, #18
 2720 001e 87F82530 		strb	r3, [r7, #37]
 838:Drivers/VL53L0X/core/src/vl53l0x_api_core.c **** 	uint8_t MinFinalVcselPeriodPCLK = 8;
 2721              		.loc 1 838 10
 2722 0022 0823     		movs	r3, #8
 2723 0024 87F82430 		strb	r3, [r7, #36]
 839:Drivers/VL53L0X/core/src/vl53l0x_api_core.c **** 	uint8_t MaxFinalVcselPeriodPCLK = 14;
 2724              		.loc 1 839 10
 2725 0028 0E23     		movs	r3, #14
 2726 002a 87F82330 		strb	r3, [r7, #35]
 840:Drivers/VL53L0X/core/src/vl53l0x_api_core.c **** 	uint32_t MeasurementTimingBudgetMicroSeconds;
 841:Drivers/VL53L0X/core/src/vl53l0x_api_core.c **** 	uint32_t FinalRangeTimeoutMicroSeconds;
 842:Drivers/VL53L0X/core/src/vl53l0x_api_core.c **** 	uint32_t PreRangeTimeoutMicroSeconds;
 843:Drivers/VL53L0X/core/src/vl53l0x_api_core.c **** 	uint32_t MsrcTimeoutMicroSeconds;
 844:Drivers/VL53L0X/core/src/vl53l0x_api_core.c **** 	uint8_t PhaseCalInt = 0;
 2727              		.loc 1 844 10
 2728 002e 0023     		movs	r3, #0
 2729 0030 FB73     		strb	r3, [r7, #15]
 845:Drivers/VL53L0X/core/src/vl53l0x_api_core.c **** 
 846:Drivers/VL53L0X/core/src/vl53l0x_api_core.c **** 	/* Check if valid clock period requested */
 847:Drivers/VL53L0X/core/src/vl53l0x_api_core.c **** 
 848:Drivers/VL53L0X/core/src/vl53l0x_api_core.c **** 	if ((VCSELPulsePeriodPCLK % 2) != 0) {
 2730              		.loc 1 848 33
 2731 0032 BB78     		ldrb	r3, [r7, #2]
 2732 0034 03F00103 		and	r3, r3, #1
 2733 0038 DBB2     		uxtb	r3, r3
 2734              		.loc 1 848 5
 2735 003a 002B     		cmp	r3, #0
ARM GAS  C:\Users\Morroway\AppData\Local\Temp\ccKjJYc2.s 			page 64


 2736 003c 03D0     		beq	.L94
 849:Drivers/VL53L0X/core/src/vl53l0x_api_core.c **** 		/* Value must be an even number */
 850:Drivers/VL53L0X/core/src/vl53l0x_api_core.c **** 		Status = VL53L0X_ERROR_INVALID_PARAMS;
 2737              		.loc 1 850 10
 2738 003e FC23     		movs	r3, #252
 2739 0040 87F82730 		strb	r3, [r7, #39]
 2740 0044 20E0     		b	.L95
 2741              	.L94:
 851:Drivers/VL53L0X/core/src/vl53l0x_api_core.c **** 	} else if (VcselPeriodType == VL53L0X_VCSEL_PERIOD_PRE_RANGE &&
 2742              		.loc 1 851 12
 2743 0046 FB78     		ldrb	r3, [r7, #3]	@ zero_extendqisi2
 2744 0048 002B     		cmp	r3, #0
 2745 004a 0DD1     		bne	.L96
 2746              		.loc 1 851 63 discriminator 1
 2747 004c BA78     		ldrb	r2, [r7, #2]	@ zero_extendqisi2
 2748 004e 97F82630 		ldrb	r3, [r7, #38]	@ zero_extendqisi2
 2749 0052 9A42     		cmp	r2, r3
 2750 0054 04D3     		bcc	.L97
 852:Drivers/VL53L0X/core/src/vl53l0x_api_core.c **** 		(VCSELPulsePeriodPCLK < MinPreVcselPeriodPCLK ||
 2751              		.loc 1 852 49
 2752 0056 BA78     		ldrb	r2, [r7, #2]	@ zero_extendqisi2
 2753 0058 97F82530 		ldrb	r3, [r7, #37]	@ zero_extendqisi2
 2754 005c 9A42     		cmp	r2, r3
 2755 005e 03D9     		bls	.L96
 2756              	.L97:
 853:Drivers/VL53L0X/core/src/vl53l0x_api_core.c **** 		VCSELPulsePeriodPCLK > MaxPreVcselPeriodPCLK)) {
 854:Drivers/VL53L0X/core/src/vl53l0x_api_core.c **** 		Status = VL53L0X_ERROR_INVALID_PARAMS;
 2757              		.loc 1 854 10
 2758 0060 FC23     		movs	r3, #252
 2759 0062 87F82730 		strb	r3, [r7, #39]
 2760 0066 0FE0     		b	.L95
 2761              	.L96:
 855:Drivers/VL53L0X/core/src/vl53l0x_api_core.c **** 	} else if (VcselPeriodType == VL53L0X_VCSEL_PERIOD_FINAL_RANGE &&
 2762              		.loc 1 855 12
 2763 0068 FB78     		ldrb	r3, [r7, #3]	@ zero_extendqisi2
 2764 006a 012B     		cmp	r3, #1
 2765 006c 0CD1     		bne	.L95
 2766              		.loc 1 855 65 discriminator 1
 2767 006e BA78     		ldrb	r2, [r7, #2]	@ zero_extendqisi2
 2768 0070 97F82430 		ldrb	r3, [r7, #36]	@ zero_extendqisi2
 2769 0074 9A42     		cmp	r2, r3
 2770 0076 04D3     		bcc	.L98
 856:Drivers/VL53L0X/core/src/vl53l0x_api_core.c **** 		(VCSELPulsePeriodPCLK < MinFinalVcselPeriodPCLK ||
 2771              		.loc 1 856 51
 2772 0078 BA78     		ldrb	r2, [r7, #2]	@ zero_extendqisi2
 2773 007a 97F82330 		ldrb	r3, [r7, #35]	@ zero_extendqisi2
 2774 007e 9A42     		cmp	r2, r3
 2775 0080 02D9     		bls	.L95
 2776              	.L98:
 857:Drivers/VL53L0X/core/src/vl53l0x_api_core.c **** 		 VCSELPulsePeriodPCLK > MaxFinalVcselPeriodPCLK)) {
 858:Drivers/VL53L0X/core/src/vl53l0x_api_core.c **** 
 859:Drivers/VL53L0X/core/src/vl53l0x_api_core.c **** 		Status = VL53L0X_ERROR_INVALID_PARAMS;
 2777              		.loc 1 859 10
 2778 0082 FC23     		movs	r3, #252
 2779 0084 87F82730 		strb	r3, [r7, #39]
 2780              	.L95:
 860:Drivers/VL53L0X/core/src/vl53l0x_api_core.c **** 	}
ARM GAS  C:\Users\Morroway\AppData\Local\Temp\ccKjJYc2.s 			page 65


 861:Drivers/VL53L0X/core/src/vl53l0x_api_core.c **** 
 862:Drivers/VL53L0X/core/src/vl53l0x_api_core.c **** 	/* Apply specific settings for the requested clock period */
 863:Drivers/VL53L0X/core/src/vl53l0x_api_core.c **** 
 864:Drivers/VL53L0X/core/src/vl53l0x_api_core.c **** 	if (Status != VL53L0X_ERROR_NONE)
 2781              		.loc 1 864 5
 2782 0088 97F92730 		ldrsb	r3, [r7, #39]
 2783 008c 002B     		cmp	r3, #0
 2784 008e 02D0     		beq	.L99
 865:Drivers/VL53L0X/core/src/vl53l0x_api_core.c **** 		return Status;
 2785              		.loc 1 865 10
 2786 0090 97F92730 		ldrsb	r3, [r7, #39]
 2787 0094 37E2     		b	.L121
 2788              	.L99:
 866:Drivers/VL53L0X/core/src/vl53l0x_api_core.c **** 
 867:Drivers/VL53L0X/core/src/vl53l0x_api_core.c **** 
 868:Drivers/VL53L0X/core/src/vl53l0x_api_core.c **** 	if (VcselPeriodType == VL53L0X_VCSEL_PERIOD_PRE_RANGE) {
 2789              		.loc 1 868 5
 2790 0096 FB78     		ldrb	r3, [r7, #3]	@ zero_extendqisi2
 2791 0098 002B     		cmp	r3, #0
 2792 009a 50D1     		bne	.L101
 869:Drivers/VL53L0X/core/src/vl53l0x_api_core.c **** 
 870:Drivers/VL53L0X/core/src/vl53l0x_api_core.c **** 		/* Set phase check limits */
 871:Drivers/VL53L0X/core/src/vl53l0x_api_core.c **** 		if (VCSELPulsePeriodPCLK == 12) {
 2793              		.loc 1 871 6
 2794 009c BB78     		ldrb	r3, [r7, #2]	@ zero_extendqisi2
 2795 009e 0C2B     		cmp	r3, #12
 2796 00a0 10D1     		bne	.L102
 872:Drivers/VL53L0X/core/src/vl53l0x_api_core.c **** 
 873:Drivers/VL53L0X/core/src/vl53l0x_api_core.c **** 			Status = VL53L0X_WrByte(Dev,
 2797              		.loc 1 873 13
 2798 00a2 1822     		movs	r2, #24
 2799 00a4 5721     		movs	r1, #87
 2800 00a6 7868     		ldr	r0, [r7, #4]
 2801 00a8 FFF7FEFF 		bl	VL53L0X_WrByte
 2802 00ac 0346     		mov	r3, r0
 2803 00ae 87F82730 		strb	r3, [r7, #39]
 874:Drivers/VL53L0X/core/src/vl53l0x_api_core.c **** 				VL53L0X_REG_PRE_RANGE_CONFIG_VALID_PHASE_HIGH,
 875:Drivers/VL53L0X/core/src/vl53l0x_api_core.c **** 				0x18);
 876:Drivers/VL53L0X/core/src/vl53l0x_api_core.c **** 			Status = VL53L0X_WrByte(Dev,
 2804              		.loc 1 876 13
 2805 00b2 0822     		movs	r2, #8
 2806 00b4 5621     		movs	r1, #86
 2807 00b6 7868     		ldr	r0, [r7, #4]
 2808 00b8 FFF7FEFF 		bl	VL53L0X_WrByte
 2809 00bc 0346     		mov	r3, r0
 2810 00be 87F82730 		strb	r3, [r7, #39]
 2811 00c2 7FE1     		b	.L103
 2812              	.L102:
 877:Drivers/VL53L0X/core/src/vl53l0x_api_core.c **** 				VL53L0X_REG_PRE_RANGE_CONFIG_VALID_PHASE_LOW,
 878:Drivers/VL53L0X/core/src/vl53l0x_api_core.c **** 				0x08);
 879:Drivers/VL53L0X/core/src/vl53l0x_api_core.c **** 		} else if (VCSELPulsePeriodPCLK == 14) {
 2813              		.loc 1 879 13
 2814 00c4 BB78     		ldrb	r3, [r7, #2]	@ zero_extendqisi2
 2815 00c6 0E2B     		cmp	r3, #14
 2816 00c8 10D1     		bne	.L104
 880:Drivers/VL53L0X/core/src/vl53l0x_api_core.c **** 
 881:Drivers/VL53L0X/core/src/vl53l0x_api_core.c **** 			Status = VL53L0X_WrByte(Dev,
ARM GAS  C:\Users\Morroway\AppData\Local\Temp\ccKjJYc2.s 			page 66


 2817              		.loc 1 881 13
 2818 00ca 3022     		movs	r2, #48
 2819 00cc 5721     		movs	r1, #87
 2820 00ce 7868     		ldr	r0, [r7, #4]
 2821 00d0 FFF7FEFF 		bl	VL53L0X_WrByte
 2822 00d4 0346     		mov	r3, r0
 2823 00d6 87F82730 		strb	r3, [r7, #39]
 882:Drivers/VL53L0X/core/src/vl53l0x_api_core.c **** 				VL53L0X_REG_PRE_RANGE_CONFIG_VALID_PHASE_HIGH,
 883:Drivers/VL53L0X/core/src/vl53l0x_api_core.c **** 				0x30);
 884:Drivers/VL53L0X/core/src/vl53l0x_api_core.c **** 			Status = VL53L0X_WrByte(Dev,
 2824              		.loc 1 884 13
 2825 00da 0822     		movs	r2, #8
 2826 00dc 5621     		movs	r1, #86
 2827 00de 7868     		ldr	r0, [r7, #4]
 2828 00e0 FFF7FEFF 		bl	VL53L0X_WrByte
 2829 00e4 0346     		mov	r3, r0
 2830 00e6 87F82730 		strb	r3, [r7, #39]
 2831 00ea 6BE1     		b	.L103
 2832              	.L104:
 885:Drivers/VL53L0X/core/src/vl53l0x_api_core.c **** 				VL53L0X_REG_PRE_RANGE_CONFIG_VALID_PHASE_LOW,
 886:Drivers/VL53L0X/core/src/vl53l0x_api_core.c **** 				0x08);
 887:Drivers/VL53L0X/core/src/vl53l0x_api_core.c **** 		} else if (VCSELPulsePeriodPCLK == 16) {
 2833              		.loc 1 887 13
 2834 00ec BB78     		ldrb	r3, [r7, #2]	@ zero_extendqisi2
 2835 00ee 102B     		cmp	r3, #16
 2836 00f0 10D1     		bne	.L105
 888:Drivers/VL53L0X/core/src/vl53l0x_api_core.c **** 
 889:Drivers/VL53L0X/core/src/vl53l0x_api_core.c **** 			Status = VL53L0X_WrByte(Dev,
 2837              		.loc 1 889 13
 2838 00f2 4022     		movs	r2, #64
 2839 00f4 5721     		movs	r1, #87
 2840 00f6 7868     		ldr	r0, [r7, #4]
 2841 00f8 FFF7FEFF 		bl	VL53L0X_WrByte
 2842 00fc 0346     		mov	r3, r0
 2843 00fe 87F82730 		strb	r3, [r7, #39]
 890:Drivers/VL53L0X/core/src/vl53l0x_api_core.c **** 				VL53L0X_REG_PRE_RANGE_CONFIG_VALID_PHASE_HIGH,
 891:Drivers/VL53L0X/core/src/vl53l0x_api_core.c **** 				0x40);
 892:Drivers/VL53L0X/core/src/vl53l0x_api_core.c **** 			Status = VL53L0X_WrByte(Dev,
 2844              		.loc 1 892 13
 2845 0102 0822     		movs	r2, #8
 2846 0104 5621     		movs	r1, #86
 2847 0106 7868     		ldr	r0, [r7, #4]
 2848 0108 FFF7FEFF 		bl	VL53L0X_WrByte
 2849 010c 0346     		mov	r3, r0
 2850 010e 87F82730 		strb	r3, [r7, #39]
 2851 0112 57E1     		b	.L103
 2852              	.L105:
 893:Drivers/VL53L0X/core/src/vl53l0x_api_core.c **** 				VL53L0X_REG_PRE_RANGE_CONFIG_VALID_PHASE_LOW,
 894:Drivers/VL53L0X/core/src/vl53l0x_api_core.c **** 				0x08);
 895:Drivers/VL53L0X/core/src/vl53l0x_api_core.c **** 		} else if (VCSELPulsePeriodPCLK == 18) {
 2853              		.loc 1 895 13
 2854 0114 BB78     		ldrb	r3, [r7, #2]	@ zero_extendqisi2
 2855 0116 122B     		cmp	r3, #18
 2856 0118 40F05481 		bne	.L103
 896:Drivers/VL53L0X/core/src/vl53l0x_api_core.c **** 
 897:Drivers/VL53L0X/core/src/vl53l0x_api_core.c **** 			Status = VL53L0X_WrByte(Dev,
 2857              		.loc 1 897 13
ARM GAS  C:\Users\Morroway\AppData\Local\Temp\ccKjJYc2.s 			page 67


 2858 011c 5022     		movs	r2, #80
 2859 011e 5721     		movs	r1, #87
 2860 0120 7868     		ldr	r0, [r7, #4]
 2861 0122 FFF7FEFF 		bl	VL53L0X_WrByte
 2862 0126 0346     		mov	r3, r0
 2863 0128 87F82730 		strb	r3, [r7, #39]
 898:Drivers/VL53L0X/core/src/vl53l0x_api_core.c **** 				VL53L0X_REG_PRE_RANGE_CONFIG_VALID_PHASE_HIGH,
 899:Drivers/VL53L0X/core/src/vl53l0x_api_core.c **** 				0x50);
 900:Drivers/VL53L0X/core/src/vl53l0x_api_core.c **** 			Status = VL53L0X_WrByte(Dev,
 2864              		.loc 1 900 13
 2865 012c 0822     		movs	r2, #8
 2866 012e 5621     		movs	r1, #86
 2867 0130 7868     		ldr	r0, [r7, #4]
 2868 0132 FFF7FEFF 		bl	VL53L0X_WrByte
 2869 0136 0346     		mov	r3, r0
 2870 0138 87F82730 		strb	r3, [r7, #39]
 2871 013c 42E1     		b	.L103
 2872              	.L101:
 901:Drivers/VL53L0X/core/src/vl53l0x_api_core.c **** 				VL53L0X_REG_PRE_RANGE_CONFIG_VALID_PHASE_LOW,
 902:Drivers/VL53L0X/core/src/vl53l0x_api_core.c **** 				0x08);
 903:Drivers/VL53L0X/core/src/vl53l0x_api_core.c **** 		}
 904:Drivers/VL53L0X/core/src/vl53l0x_api_core.c **** 	} else if (VcselPeriodType == VL53L0X_VCSEL_PERIOD_FINAL_RANGE) {
 2873              		.loc 1 904 12
 2874 013e FB78     		ldrb	r3, [r7, #3]	@ zero_extendqisi2
 2875 0140 012B     		cmp	r3, #1
 2876 0142 40F03F81 		bne	.L103
 905:Drivers/VL53L0X/core/src/vl53l0x_api_core.c **** 
 906:Drivers/VL53L0X/core/src/vl53l0x_api_core.c **** 		if (VCSELPulsePeriodPCLK == 8) {
 2877              		.loc 1 906 6
 2878 0146 BB78     		ldrb	r3, [r7, #2]	@ zero_extendqisi2
 2879 0148 082B     		cmp	r3, #8
 2880 014a 4CD1     		bne	.L106
 907:Drivers/VL53L0X/core/src/vl53l0x_api_core.c **** 
 908:Drivers/VL53L0X/core/src/vl53l0x_api_core.c **** 			Status = VL53L0X_WrByte(Dev,
 2881              		.loc 1 908 13
 2882 014c 1022     		movs	r2, #16
 2883 014e 4821     		movs	r1, #72
 2884 0150 7868     		ldr	r0, [r7, #4]
 2885 0152 FFF7FEFF 		bl	VL53L0X_WrByte
 2886 0156 0346     		mov	r3, r0
 2887 0158 87F82730 		strb	r3, [r7, #39]
 909:Drivers/VL53L0X/core/src/vl53l0x_api_core.c **** 				VL53L0X_REG_FINAL_RANGE_CONFIG_VALID_PHASE_HIGH,
 910:Drivers/VL53L0X/core/src/vl53l0x_api_core.c **** 				0x10);
 911:Drivers/VL53L0X/core/src/vl53l0x_api_core.c **** 			Status = VL53L0X_WrByte(Dev,
 2888              		.loc 1 911 13
 2889 015c 0822     		movs	r2, #8
 2890 015e 4721     		movs	r1, #71
 2891 0160 7868     		ldr	r0, [r7, #4]
 2892 0162 FFF7FEFF 		bl	VL53L0X_WrByte
 2893 0166 0346     		mov	r3, r0
 2894 0168 87F82730 		strb	r3, [r7, #39]
 912:Drivers/VL53L0X/core/src/vl53l0x_api_core.c **** 				VL53L0X_REG_FINAL_RANGE_CONFIG_VALID_PHASE_LOW,
 913:Drivers/VL53L0X/core/src/vl53l0x_api_core.c **** 				0x08);
 914:Drivers/VL53L0X/core/src/vl53l0x_api_core.c **** 
 915:Drivers/VL53L0X/core/src/vl53l0x_api_core.c **** 			Status |= VL53L0X_WrByte(Dev,
 2895              		.loc 1 915 14
 2896 016c 0222     		movs	r2, #2
ARM GAS  C:\Users\Morroway\AppData\Local\Temp\ccKjJYc2.s 			page 68


 2897 016e 3221     		movs	r1, #50
 2898 0170 7868     		ldr	r0, [r7, #4]
 2899 0172 FFF7FEFF 		bl	VL53L0X_WrByte
 2900 0176 0346     		mov	r3, r0
 2901 0178 1A46     		mov	r2, r3
 2902              		.loc 1 915 11
 2903 017a 97F82730 		ldrb	r3, [r7, #39]
 2904 017e 1343     		orrs	r3, r3, r2
 2905 0180 87F82730 		strb	r3, [r7, #39]
 916:Drivers/VL53L0X/core/src/vl53l0x_api_core.c **** 				VL53L0X_REG_GLOBAL_CONFIG_VCSEL_WIDTH, 0x02);
 917:Drivers/VL53L0X/core/src/vl53l0x_api_core.c **** 			Status |= VL53L0X_WrByte(Dev,
 2906              		.loc 1 917 14
 2907 0184 0C22     		movs	r2, #12
 2908 0186 3021     		movs	r1, #48
 2909 0188 7868     		ldr	r0, [r7, #4]
 2910 018a FFF7FEFF 		bl	VL53L0X_WrByte
 2911 018e 0346     		mov	r3, r0
 2912 0190 1A46     		mov	r2, r3
 2913              		.loc 1 917 11
 2914 0192 97F82730 		ldrb	r3, [r7, #39]
 2915 0196 1343     		orrs	r3, r3, r2
 2916 0198 87F82730 		strb	r3, [r7, #39]
 918:Drivers/VL53L0X/core/src/vl53l0x_api_core.c **** 				VL53L0X_REG_ALGO_PHASECAL_CONFIG_TIMEOUT, 0x0C);
 919:Drivers/VL53L0X/core/src/vl53l0x_api_core.c **** 
 920:Drivers/VL53L0X/core/src/vl53l0x_api_core.c **** 			Status |= VL53L0X_WrByte(Dev, 0xff, 0x01);
 2917              		.loc 1 920 14
 2918 019c 0122     		movs	r2, #1
 2919 019e FF21     		movs	r1, #255
 2920 01a0 7868     		ldr	r0, [r7, #4]
 2921 01a2 FFF7FEFF 		bl	VL53L0X_WrByte
 2922 01a6 0346     		mov	r3, r0
 2923 01a8 1A46     		mov	r2, r3
 2924              		.loc 1 920 11
 2925 01aa 97F82730 		ldrb	r3, [r7, #39]
 2926 01ae 1343     		orrs	r3, r3, r2
 2927 01b0 87F82730 		strb	r3, [r7, #39]
 921:Drivers/VL53L0X/core/src/vl53l0x_api_core.c **** 			Status |= VL53L0X_WrByte(Dev,
 2928              		.loc 1 921 14
 2929 01b4 3022     		movs	r2, #48
 2930 01b6 3021     		movs	r1, #48
 2931 01b8 7868     		ldr	r0, [r7, #4]
 2932 01ba FFF7FEFF 		bl	VL53L0X_WrByte
 2933 01be 0346     		mov	r3, r0
 2934 01c0 1A46     		mov	r2, r3
 2935              		.loc 1 921 11
 2936 01c2 97F82730 		ldrb	r3, [r7, #39]
 2937 01c6 1343     		orrs	r3, r3, r2
 2938 01c8 87F82730 		strb	r3, [r7, #39]
 922:Drivers/VL53L0X/core/src/vl53l0x_api_core.c **** 				VL53L0X_REG_ALGO_PHASECAL_LIM,
 923:Drivers/VL53L0X/core/src/vl53l0x_api_core.c **** 				0x30);
 924:Drivers/VL53L0X/core/src/vl53l0x_api_core.c **** 			Status |= VL53L0X_WrByte(Dev, 0xff, 0x00);
 2939              		.loc 1 924 14
 2940 01cc 0022     		movs	r2, #0
 2941 01ce FF21     		movs	r1, #255
 2942 01d0 7868     		ldr	r0, [r7, #4]
 2943 01d2 FFF7FEFF 		bl	VL53L0X_WrByte
 2944 01d6 0346     		mov	r3, r0
ARM GAS  C:\Users\Morroway\AppData\Local\Temp\ccKjJYc2.s 			page 69


 2945 01d8 1A46     		mov	r2, r3
 2946              		.loc 1 924 11
 2947 01da 97F82730 		ldrb	r3, [r7, #39]
 2948 01de 1343     		orrs	r3, r3, r2
 2949 01e0 87F82730 		strb	r3, [r7, #39]
 2950 01e4 EEE0     		b	.L103
 2951              	.L106:
 925:Drivers/VL53L0X/core/src/vl53l0x_api_core.c **** 		} else if (VCSELPulsePeriodPCLK == 10) {
 2952              		.loc 1 925 13
 2953 01e6 BB78     		ldrb	r3, [r7, #2]	@ zero_extendqisi2
 2954 01e8 0A2B     		cmp	r3, #10
 2955 01ea 4CD1     		bne	.L107
 926:Drivers/VL53L0X/core/src/vl53l0x_api_core.c **** 
 927:Drivers/VL53L0X/core/src/vl53l0x_api_core.c **** 			Status = VL53L0X_WrByte(Dev,
 2956              		.loc 1 927 13
 2957 01ec 2822     		movs	r2, #40
 2958 01ee 4821     		movs	r1, #72
 2959 01f0 7868     		ldr	r0, [r7, #4]
 2960 01f2 FFF7FEFF 		bl	VL53L0X_WrByte
 2961 01f6 0346     		mov	r3, r0
 2962 01f8 87F82730 		strb	r3, [r7, #39]
 928:Drivers/VL53L0X/core/src/vl53l0x_api_core.c **** 				VL53L0X_REG_FINAL_RANGE_CONFIG_VALID_PHASE_HIGH,
 929:Drivers/VL53L0X/core/src/vl53l0x_api_core.c **** 				0x28);
 930:Drivers/VL53L0X/core/src/vl53l0x_api_core.c **** 			Status = VL53L0X_WrByte(Dev,
 2963              		.loc 1 930 13
 2964 01fc 0822     		movs	r2, #8
 2965 01fe 4721     		movs	r1, #71
 2966 0200 7868     		ldr	r0, [r7, #4]
 2967 0202 FFF7FEFF 		bl	VL53L0X_WrByte
 2968 0206 0346     		mov	r3, r0
 2969 0208 87F82730 		strb	r3, [r7, #39]
 931:Drivers/VL53L0X/core/src/vl53l0x_api_core.c **** 				VL53L0X_REG_FINAL_RANGE_CONFIG_VALID_PHASE_LOW,
 932:Drivers/VL53L0X/core/src/vl53l0x_api_core.c **** 				0x08);
 933:Drivers/VL53L0X/core/src/vl53l0x_api_core.c **** 
 934:Drivers/VL53L0X/core/src/vl53l0x_api_core.c **** 			Status |= VL53L0X_WrByte(Dev,
 2970              		.loc 1 934 14
 2971 020c 0322     		movs	r2, #3
 2972 020e 3221     		movs	r1, #50
 2973 0210 7868     		ldr	r0, [r7, #4]
 2974 0212 FFF7FEFF 		bl	VL53L0X_WrByte
 2975 0216 0346     		mov	r3, r0
 2976 0218 1A46     		mov	r2, r3
 2977              		.loc 1 934 11
 2978 021a 97F82730 		ldrb	r3, [r7, #39]
 2979 021e 1343     		orrs	r3, r3, r2
 2980 0220 87F82730 		strb	r3, [r7, #39]
 935:Drivers/VL53L0X/core/src/vl53l0x_api_core.c **** 				VL53L0X_REG_GLOBAL_CONFIG_VCSEL_WIDTH, 0x03);
 936:Drivers/VL53L0X/core/src/vl53l0x_api_core.c **** 			Status |= VL53L0X_WrByte(Dev,
 2981              		.loc 1 936 14
 2982 0224 0922     		movs	r2, #9
 2983 0226 3021     		movs	r1, #48
 2984 0228 7868     		ldr	r0, [r7, #4]
 2985 022a FFF7FEFF 		bl	VL53L0X_WrByte
 2986 022e 0346     		mov	r3, r0
 2987 0230 1A46     		mov	r2, r3
 2988              		.loc 1 936 11
 2989 0232 97F82730 		ldrb	r3, [r7, #39]
ARM GAS  C:\Users\Morroway\AppData\Local\Temp\ccKjJYc2.s 			page 70


 2990 0236 1343     		orrs	r3, r3, r2
 2991 0238 87F82730 		strb	r3, [r7, #39]
 937:Drivers/VL53L0X/core/src/vl53l0x_api_core.c **** 				VL53L0X_REG_ALGO_PHASECAL_CONFIG_TIMEOUT, 0x09);
 938:Drivers/VL53L0X/core/src/vl53l0x_api_core.c **** 
 939:Drivers/VL53L0X/core/src/vl53l0x_api_core.c **** 			Status |= VL53L0X_WrByte(Dev, 0xff, 0x01);
 2992              		.loc 1 939 14
 2993 023c 0122     		movs	r2, #1
 2994 023e FF21     		movs	r1, #255
 2995 0240 7868     		ldr	r0, [r7, #4]
 2996 0242 FFF7FEFF 		bl	VL53L0X_WrByte
 2997 0246 0346     		mov	r3, r0
 2998 0248 1A46     		mov	r2, r3
 2999              		.loc 1 939 11
 3000 024a 97F82730 		ldrb	r3, [r7, #39]
 3001 024e 1343     		orrs	r3, r3, r2
 3002 0250 87F82730 		strb	r3, [r7, #39]
 940:Drivers/VL53L0X/core/src/vl53l0x_api_core.c **** 			Status |= VL53L0X_WrByte(Dev,
 3003              		.loc 1 940 14
 3004 0254 2022     		movs	r2, #32
 3005 0256 3021     		movs	r1, #48
 3006 0258 7868     		ldr	r0, [r7, #4]
 3007 025a FFF7FEFF 		bl	VL53L0X_WrByte
 3008 025e 0346     		mov	r3, r0
 3009 0260 1A46     		mov	r2, r3
 3010              		.loc 1 940 11
 3011 0262 97F82730 		ldrb	r3, [r7, #39]
 3012 0266 1343     		orrs	r3, r3, r2
 3013 0268 87F82730 		strb	r3, [r7, #39]
 941:Drivers/VL53L0X/core/src/vl53l0x_api_core.c **** 				VL53L0X_REG_ALGO_PHASECAL_LIM,
 942:Drivers/VL53L0X/core/src/vl53l0x_api_core.c **** 				0x20);
 943:Drivers/VL53L0X/core/src/vl53l0x_api_core.c **** 			Status |= VL53L0X_WrByte(Dev, 0xff, 0x00);
 3014              		.loc 1 943 14
 3015 026c 0022     		movs	r2, #0
 3016 026e FF21     		movs	r1, #255
 3017 0270 7868     		ldr	r0, [r7, #4]
 3018 0272 FFF7FEFF 		bl	VL53L0X_WrByte
 3019 0276 0346     		mov	r3, r0
 3020 0278 1A46     		mov	r2, r3
 3021              		.loc 1 943 11
 3022 027a 97F82730 		ldrb	r3, [r7, #39]
 3023 027e 1343     		orrs	r3, r3, r2
 3024 0280 87F82730 		strb	r3, [r7, #39]
 3025 0284 9EE0     		b	.L103
 3026              	.L107:
 944:Drivers/VL53L0X/core/src/vl53l0x_api_core.c **** 		} else if (VCSELPulsePeriodPCLK == 12) {
 3027              		.loc 1 944 13
 3028 0286 BB78     		ldrb	r3, [r7, #2]	@ zero_extendqisi2
 3029 0288 0C2B     		cmp	r3, #12
 3030 028a 4CD1     		bne	.L108
 945:Drivers/VL53L0X/core/src/vl53l0x_api_core.c **** 
 946:Drivers/VL53L0X/core/src/vl53l0x_api_core.c **** 			Status = VL53L0X_WrByte(Dev,
 3031              		.loc 1 946 13
 3032 028c 3822     		movs	r2, #56
 3033 028e 4821     		movs	r1, #72
 3034 0290 7868     		ldr	r0, [r7, #4]
 3035 0292 FFF7FEFF 		bl	VL53L0X_WrByte
 3036 0296 0346     		mov	r3, r0
ARM GAS  C:\Users\Morroway\AppData\Local\Temp\ccKjJYc2.s 			page 71


 3037 0298 87F82730 		strb	r3, [r7, #39]
 947:Drivers/VL53L0X/core/src/vl53l0x_api_core.c **** 				VL53L0X_REG_FINAL_RANGE_CONFIG_VALID_PHASE_HIGH,
 948:Drivers/VL53L0X/core/src/vl53l0x_api_core.c **** 				0x38);
 949:Drivers/VL53L0X/core/src/vl53l0x_api_core.c **** 			Status = VL53L0X_WrByte(Dev,
 3038              		.loc 1 949 13
 3039 029c 0822     		movs	r2, #8
 3040 029e 4721     		movs	r1, #71
 3041 02a0 7868     		ldr	r0, [r7, #4]
 3042 02a2 FFF7FEFF 		bl	VL53L0X_WrByte
 3043 02a6 0346     		mov	r3, r0
 3044 02a8 87F82730 		strb	r3, [r7, #39]
 950:Drivers/VL53L0X/core/src/vl53l0x_api_core.c **** 				VL53L0X_REG_FINAL_RANGE_CONFIG_VALID_PHASE_LOW,
 951:Drivers/VL53L0X/core/src/vl53l0x_api_core.c **** 				0x08);
 952:Drivers/VL53L0X/core/src/vl53l0x_api_core.c **** 
 953:Drivers/VL53L0X/core/src/vl53l0x_api_core.c **** 			Status |= VL53L0X_WrByte(Dev,
 3045              		.loc 1 953 14
 3046 02ac 0322     		movs	r2, #3
 3047 02ae 3221     		movs	r1, #50
 3048 02b0 7868     		ldr	r0, [r7, #4]
 3049 02b2 FFF7FEFF 		bl	VL53L0X_WrByte
 3050 02b6 0346     		mov	r3, r0
 3051 02b8 1A46     		mov	r2, r3
 3052              		.loc 1 953 11
 3053 02ba 97F82730 		ldrb	r3, [r7, #39]
 3054 02be 1343     		orrs	r3, r3, r2
 3055 02c0 87F82730 		strb	r3, [r7, #39]
 954:Drivers/VL53L0X/core/src/vl53l0x_api_core.c **** 				VL53L0X_REG_GLOBAL_CONFIG_VCSEL_WIDTH, 0x03);
 955:Drivers/VL53L0X/core/src/vl53l0x_api_core.c **** 			Status |= VL53L0X_WrByte(Dev,
 3056              		.loc 1 955 14
 3057 02c4 0822     		movs	r2, #8
 3058 02c6 3021     		movs	r1, #48
 3059 02c8 7868     		ldr	r0, [r7, #4]
 3060 02ca FFF7FEFF 		bl	VL53L0X_WrByte
 3061 02ce 0346     		mov	r3, r0
 3062 02d0 1A46     		mov	r2, r3
 3063              		.loc 1 955 11
 3064 02d2 97F82730 		ldrb	r3, [r7, #39]
 3065 02d6 1343     		orrs	r3, r3, r2
 3066 02d8 87F82730 		strb	r3, [r7, #39]
 956:Drivers/VL53L0X/core/src/vl53l0x_api_core.c **** 				VL53L0X_REG_ALGO_PHASECAL_CONFIG_TIMEOUT, 0x08);
 957:Drivers/VL53L0X/core/src/vl53l0x_api_core.c **** 
 958:Drivers/VL53L0X/core/src/vl53l0x_api_core.c **** 			Status |= VL53L0X_WrByte(Dev, 0xff, 0x01);
 3067              		.loc 1 958 14
 3068 02dc 0122     		movs	r2, #1
 3069 02de FF21     		movs	r1, #255
 3070 02e0 7868     		ldr	r0, [r7, #4]
 3071 02e2 FFF7FEFF 		bl	VL53L0X_WrByte
 3072 02e6 0346     		mov	r3, r0
 3073 02e8 1A46     		mov	r2, r3
 3074              		.loc 1 958 11
 3075 02ea 97F82730 		ldrb	r3, [r7, #39]
 3076 02ee 1343     		orrs	r3, r3, r2
 3077 02f0 87F82730 		strb	r3, [r7, #39]
 959:Drivers/VL53L0X/core/src/vl53l0x_api_core.c **** 			Status |= VL53L0X_WrByte(Dev,
 3078              		.loc 1 959 14
 3079 02f4 2022     		movs	r2, #32
 3080 02f6 3021     		movs	r1, #48
ARM GAS  C:\Users\Morroway\AppData\Local\Temp\ccKjJYc2.s 			page 72


 3081 02f8 7868     		ldr	r0, [r7, #4]
 3082 02fa FFF7FEFF 		bl	VL53L0X_WrByte
 3083 02fe 0346     		mov	r3, r0
 3084 0300 1A46     		mov	r2, r3
 3085              		.loc 1 959 11
 3086 0302 97F82730 		ldrb	r3, [r7, #39]
 3087 0306 1343     		orrs	r3, r3, r2
 3088 0308 87F82730 		strb	r3, [r7, #39]
 960:Drivers/VL53L0X/core/src/vl53l0x_api_core.c **** 				VL53L0X_REG_ALGO_PHASECAL_LIM,
 961:Drivers/VL53L0X/core/src/vl53l0x_api_core.c **** 				0x20);
 962:Drivers/VL53L0X/core/src/vl53l0x_api_core.c **** 			Status |= VL53L0X_WrByte(Dev, 0xff, 0x00);
 3089              		.loc 1 962 14
 3090 030c 0022     		movs	r2, #0
 3091 030e FF21     		movs	r1, #255
 3092 0310 7868     		ldr	r0, [r7, #4]
 3093 0312 FFF7FEFF 		bl	VL53L0X_WrByte
 3094 0316 0346     		mov	r3, r0
 3095 0318 1A46     		mov	r2, r3
 3096              		.loc 1 962 11
 3097 031a 97F82730 		ldrb	r3, [r7, #39]
 3098 031e 1343     		orrs	r3, r3, r2
 3099 0320 87F82730 		strb	r3, [r7, #39]
 3100 0324 4EE0     		b	.L103
 3101              	.L108:
 963:Drivers/VL53L0X/core/src/vl53l0x_api_core.c **** 		} else if (VCSELPulsePeriodPCLK == 14) {
 3102              		.loc 1 963 13
 3103 0326 BB78     		ldrb	r3, [r7, #2]	@ zero_extendqisi2
 3104 0328 0E2B     		cmp	r3, #14
 3105 032a 4BD1     		bne	.L103
 964:Drivers/VL53L0X/core/src/vl53l0x_api_core.c **** 
 965:Drivers/VL53L0X/core/src/vl53l0x_api_core.c **** 			Status = VL53L0X_WrByte(Dev,
 3106              		.loc 1 965 13
 3107 032c 4822     		movs	r2, #72
 3108 032e 4821     		movs	r1, #72
 3109 0330 7868     		ldr	r0, [r7, #4]
 3110 0332 FFF7FEFF 		bl	VL53L0X_WrByte
 3111 0336 0346     		mov	r3, r0
 3112 0338 87F82730 		strb	r3, [r7, #39]
 966:Drivers/VL53L0X/core/src/vl53l0x_api_core.c **** 				VL53L0X_REG_FINAL_RANGE_CONFIG_VALID_PHASE_HIGH,
 967:Drivers/VL53L0X/core/src/vl53l0x_api_core.c **** 				0x048);
 968:Drivers/VL53L0X/core/src/vl53l0x_api_core.c **** 			Status = VL53L0X_WrByte(Dev,
 3113              		.loc 1 968 13
 3114 033c 0822     		movs	r2, #8
 3115 033e 4721     		movs	r1, #71
 3116 0340 7868     		ldr	r0, [r7, #4]
 3117 0342 FFF7FEFF 		bl	VL53L0X_WrByte
 3118 0346 0346     		mov	r3, r0
 3119 0348 87F82730 		strb	r3, [r7, #39]
 969:Drivers/VL53L0X/core/src/vl53l0x_api_core.c **** 				VL53L0X_REG_FINAL_RANGE_CONFIG_VALID_PHASE_LOW,
 970:Drivers/VL53L0X/core/src/vl53l0x_api_core.c **** 				0x08);
 971:Drivers/VL53L0X/core/src/vl53l0x_api_core.c **** 
 972:Drivers/VL53L0X/core/src/vl53l0x_api_core.c **** 			Status |= VL53L0X_WrByte(Dev,
 3120              		.loc 1 972 14
 3121 034c 0322     		movs	r2, #3
 3122 034e 3221     		movs	r1, #50
 3123 0350 7868     		ldr	r0, [r7, #4]
 3124 0352 FFF7FEFF 		bl	VL53L0X_WrByte
ARM GAS  C:\Users\Morroway\AppData\Local\Temp\ccKjJYc2.s 			page 73


 3125 0356 0346     		mov	r3, r0
 3126 0358 1A46     		mov	r2, r3
 3127              		.loc 1 972 11
 3128 035a 97F82730 		ldrb	r3, [r7, #39]
 3129 035e 1343     		orrs	r3, r3, r2
 3130 0360 87F82730 		strb	r3, [r7, #39]
 973:Drivers/VL53L0X/core/src/vl53l0x_api_core.c **** 				VL53L0X_REG_GLOBAL_CONFIG_VCSEL_WIDTH, 0x03);
 974:Drivers/VL53L0X/core/src/vl53l0x_api_core.c **** 			Status |= VL53L0X_WrByte(Dev,
 3131              		.loc 1 974 14
 3132 0364 0722     		movs	r2, #7
 3133 0366 3021     		movs	r1, #48
 3134 0368 7868     		ldr	r0, [r7, #4]
 3135 036a FFF7FEFF 		bl	VL53L0X_WrByte
 3136 036e 0346     		mov	r3, r0
 3137 0370 1A46     		mov	r2, r3
 3138              		.loc 1 974 11
 3139 0372 97F82730 		ldrb	r3, [r7, #39]
 3140 0376 1343     		orrs	r3, r3, r2
 3141 0378 87F82730 		strb	r3, [r7, #39]
 975:Drivers/VL53L0X/core/src/vl53l0x_api_core.c **** 				VL53L0X_REG_ALGO_PHASECAL_CONFIG_TIMEOUT, 0x07);
 976:Drivers/VL53L0X/core/src/vl53l0x_api_core.c **** 
 977:Drivers/VL53L0X/core/src/vl53l0x_api_core.c **** 			Status |= VL53L0X_WrByte(Dev, 0xff, 0x01);
 3142              		.loc 1 977 14
 3143 037c 0122     		movs	r2, #1
 3144 037e FF21     		movs	r1, #255
 3145 0380 7868     		ldr	r0, [r7, #4]
 3146 0382 FFF7FEFF 		bl	VL53L0X_WrByte
 3147 0386 0346     		mov	r3, r0
 3148 0388 1A46     		mov	r2, r3
 3149              		.loc 1 977 11
 3150 038a 97F82730 		ldrb	r3, [r7, #39]
 3151 038e 1343     		orrs	r3, r3, r2
 3152 0390 87F82730 		strb	r3, [r7, #39]
 978:Drivers/VL53L0X/core/src/vl53l0x_api_core.c **** 			Status |= VL53L0X_WrByte(Dev,
 3153              		.loc 1 978 14
 3154 0394 2022     		movs	r2, #32
 3155 0396 3021     		movs	r1, #48
 3156 0398 7868     		ldr	r0, [r7, #4]
 3157 039a FFF7FEFF 		bl	VL53L0X_WrByte
 3158 039e 0346     		mov	r3, r0
 3159 03a0 1A46     		mov	r2, r3
 3160              		.loc 1 978 11
 3161 03a2 97F82730 		ldrb	r3, [r7, #39]
 3162 03a6 1343     		orrs	r3, r3, r2
 3163 03a8 87F82730 		strb	r3, [r7, #39]
 979:Drivers/VL53L0X/core/src/vl53l0x_api_core.c **** 				VL53L0X_REG_ALGO_PHASECAL_LIM,
 980:Drivers/VL53L0X/core/src/vl53l0x_api_core.c **** 				0x20);
 981:Drivers/VL53L0X/core/src/vl53l0x_api_core.c **** 			Status |= VL53L0X_WrByte(Dev, 0xff, 0x00);
 3164              		.loc 1 981 14
 3165 03ac 0022     		movs	r2, #0
 3166 03ae FF21     		movs	r1, #255
 3167 03b0 7868     		ldr	r0, [r7, #4]
 3168 03b2 FFF7FEFF 		bl	VL53L0X_WrByte
 3169 03b6 0346     		mov	r3, r0
 3170 03b8 1A46     		mov	r2, r3
 3171              		.loc 1 981 11
 3172 03ba 97F82730 		ldrb	r3, [r7, #39]
ARM GAS  C:\Users\Morroway\AppData\Local\Temp\ccKjJYc2.s 			page 74


 3173 03be 1343     		orrs	r3, r3, r2
 3174 03c0 87F82730 		strb	r3, [r7, #39]
 3175              	.L103:
 982:Drivers/VL53L0X/core/src/vl53l0x_api_core.c **** 		}
 983:Drivers/VL53L0X/core/src/vl53l0x_api_core.c **** 	}
 984:Drivers/VL53L0X/core/src/vl53l0x_api_core.c **** 
 985:Drivers/VL53L0X/core/src/vl53l0x_api_core.c **** 
 986:Drivers/VL53L0X/core/src/vl53l0x_api_core.c **** 	/* Re-calculate and apply timeouts, in macro periods */
 987:Drivers/VL53L0X/core/src/vl53l0x_api_core.c **** 
 988:Drivers/VL53L0X/core/src/vl53l0x_api_core.c **** 	if (Status == VL53L0X_ERROR_NONE) {
 3176              		.loc 1 988 5
 3177 03c4 97F92730 		ldrsb	r3, [r7, #39]
 3178 03c8 002B     		cmp	r3, #0
 3179 03ca 7ED1     		bne	.L109
 989:Drivers/VL53L0X/core/src/vl53l0x_api_core.c **** 		vcsel_period_reg = VL53L0X_encode_vcsel_period((uint8_t)
 3180              		.loc 1 989 22
 3181 03cc BB78     		ldrb	r3, [r7, #2]	@ zero_extendqisi2
 3182 03ce 1846     		mov	r0, r3
 3183 03d0 FFF7FEFF 		bl	VL53L0X_encode_vcsel_period
 3184 03d4 0346     		mov	r3, r0
 3185 03d6 87F82230 		strb	r3, [r7, #34]
 990:Drivers/VL53L0X/core/src/vl53l0x_api_core.c **** 			VCSELPulsePeriodPCLK);
 991:Drivers/VL53L0X/core/src/vl53l0x_api_core.c **** 
 992:Drivers/VL53L0X/core/src/vl53l0x_api_core.c **** 		/* When the VCSEL period for the pre or final range is changed,
 993:Drivers/VL53L0X/core/src/vl53l0x_api_core.c **** 		* the corresponding timeout must be read from the device using
 994:Drivers/VL53L0X/core/src/vl53l0x_api_core.c **** 		* the current VCSEL period, then the new VCSEL period can be
 995:Drivers/VL53L0X/core/src/vl53l0x_api_core.c **** 		* applied. The timeout then must be written back to the device
 996:Drivers/VL53L0X/core/src/vl53l0x_api_core.c **** 		* using the new VCSEL period.
 997:Drivers/VL53L0X/core/src/vl53l0x_api_core.c **** 		*
 998:Drivers/VL53L0X/core/src/vl53l0x_api_core.c **** 		* For the MSRC timeout, the same applies - this timeout being
 999:Drivers/VL53L0X/core/src/vl53l0x_api_core.c **** 		* dependant on the pre-range vcsel period.
1000:Drivers/VL53L0X/core/src/vl53l0x_api_core.c **** 		*/
1001:Drivers/VL53L0X/core/src/vl53l0x_api_core.c **** 		switch (VcselPeriodType) {
 3186              		.loc 1 1001 3
 3187 03da FB78     		ldrb	r3, [r7, #3]	@ zero_extendqisi2
 3188 03dc 002B     		cmp	r3, #0
 3189 03de 02D0     		beq	.L110
 3190 03e0 012B     		cmp	r3, #1
 3191 03e2 45D0     		beq	.L111
 3192 03e4 6EE0     		b	.L122
 3193              	.L110:
1002:Drivers/VL53L0X/core/src/vl53l0x_api_core.c **** 		case VL53L0X_VCSEL_PERIOD_PRE_RANGE:
1003:Drivers/VL53L0X/core/src/vl53l0x_api_core.c **** 			Status = get_sequence_step_timeout(Dev,
 3194              		.loc 1 1003 13
 3195 03e6 07F11403 		add	r3, r7, #20
 3196 03ea 1A46     		mov	r2, r3
 3197 03ec 0321     		movs	r1, #3
 3198 03ee 7868     		ldr	r0, [r7, #4]
 3199 03f0 FFF7FEFF 		bl	get_sequence_step_timeout
 3200 03f4 0346     		mov	r3, r0
 3201 03f6 87F82730 		strb	r3, [r7, #39]
1004:Drivers/VL53L0X/core/src/vl53l0x_api_core.c **** 				VL53L0X_SEQUENCESTEP_PRE_RANGE,
1005:Drivers/VL53L0X/core/src/vl53l0x_api_core.c **** 				&PreRangeTimeoutMicroSeconds);
1006:Drivers/VL53L0X/core/src/vl53l0x_api_core.c **** 
1007:Drivers/VL53L0X/core/src/vl53l0x_api_core.c **** 			if (Status == VL53L0X_ERROR_NONE)
 3202              		.loc 1 1007 7
 3203 03fa 97F92730 		ldrsb	r3, [r7, #39]
ARM GAS  C:\Users\Morroway\AppData\Local\Temp\ccKjJYc2.s 			page 75


 3204 03fe 002B     		cmp	r3, #0
 3205 0400 09D1     		bne	.L113
1008:Drivers/VL53L0X/core/src/vl53l0x_api_core.c **** 				Status = get_sequence_step_timeout(Dev,
 3206              		.loc 1 1008 14
 3207 0402 07F11003 		add	r3, r7, #16
 3208 0406 1A46     		mov	r2, r3
 3209 0408 0221     		movs	r1, #2
 3210 040a 7868     		ldr	r0, [r7, #4]
 3211 040c FFF7FEFF 		bl	get_sequence_step_timeout
 3212 0410 0346     		mov	r3, r0
 3213 0412 87F82730 		strb	r3, [r7, #39]
 3214              	.L113:
1009:Drivers/VL53L0X/core/src/vl53l0x_api_core.c **** 					VL53L0X_SEQUENCESTEP_MSRC,
1010:Drivers/VL53L0X/core/src/vl53l0x_api_core.c **** 					&MsrcTimeoutMicroSeconds);
1011:Drivers/VL53L0X/core/src/vl53l0x_api_core.c **** 
1012:Drivers/VL53L0X/core/src/vl53l0x_api_core.c **** 			if (Status == VL53L0X_ERROR_NONE)
 3215              		.loc 1 1012 7
 3216 0416 97F92730 		ldrsb	r3, [r7, #39]
 3217 041a 002B     		cmp	r3, #0
 3218 041c 09D1     		bne	.L114
1013:Drivers/VL53L0X/core/src/vl53l0x_api_core.c **** 				Status = VL53L0X_WrByte(Dev,
 3219              		.loc 1 1013 14
 3220 041e 97F82230 		ldrb	r3, [r7, #34]	@ zero_extendqisi2
 3221 0422 1A46     		mov	r2, r3
 3222 0424 5021     		movs	r1, #80
 3223 0426 7868     		ldr	r0, [r7, #4]
 3224 0428 FFF7FEFF 		bl	VL53L0X_WrByte
 3225 042c 0346     		mov	r3, r0
 3226 042e 87F82730 		strb	r3, [r7, #39]
 3227              	.L114:
1014:Drivers/VL53L0X/core/src/vl53l0x_api_core.c **** 				VL53L0X_REG_PRE_RANGE_CONFIG_VCSEL_PERIOD,
1015:Drivers/VL53L0X/core/src/vl53l0x_api_core.c **** 					vcsel_period_reg);
1016:Drivers/VL53L0X/core/src/vl53l0x_api_core.c **** 
1017:Drivers/VL53L0X/core/src/vl53l0x_api_core.c **** 
1018:Drivers/VL53L0X/core/src/vl53l0x_api_core.c **** 			if (Status == VL53L0X_ERROR_NONE)
 3228              		.loc 1 1018 7
 3229 0432 97F92730 		ldrsb	r3, [r7, #39]
 3230 0436 002B     		cmp	r3, #0
 3231 0438 08D1     		bne	.L115
1019:Drivers/VL53L0X/core/src/vl53l0x_api_core.c **** 				Status = set_sequence_step_timeout(Dev,
 3232              		.loc 1 1019 14
 3233 043a 7B69     		ldr	r3, [r7, #20]
 3234 043c 1A46     		mov	r2, r3
 3235 043e 0321     		movs	r1, #3
 3236 0440 7868     		ldr	r0, [r7, #4]
 3237 0442 FFF7FEFF 		bl	set_sequence_step_timeout
 3238 0446 0346     		mov	r3, r0
 3239 0448 87F82730 		strb	r3, [r7, #39]
 3240              	.L115:
1020:Drivers/VL53L0X/core/src/vl53l0x_api_core.c **** 					VL53L0X_SEQUENCESTEP_PRE_RANGE,
1021:Drivers/VL53L0X/core/src/vl53l0x_api_core.c **** 					PreRangeTimeoutMicroSeconds);
1022:Drivers/VL53L0X/core/src/vl53l0x_api_core.c **** 
1023:Drivers/VL53L0X/core/src/vl53l0x_api_core.c **** 
1024:Drivers/VL53L0X/core/src/vl53l0x_api_core.c **** 			if (Status == VL53L0X_ERROR_NONE)
 3241              		.loc 1 1024 7
 3242 044c 97F92730 		ldrsb	r3, [r7, #39]
 3243 0450 002B     		cmp	r3, #0
ARM GAS  C:\Users\Morroway\AppData\Local\Temp\ccKjJYc2.s 			page 76


 3244 0452 08D1     		bne	.L116
1025:Drivers/VL53L0X/core/src/vl53l0x_api_core.c **** 				Status = set_sequence_step_timeout(Dev,
 3245              		.loc 1 1025 14
 3246 0454 3B69     		ldr	r3, [r7, #16]
 3247 0456 1A46     		mov	r2, r3
 3248 0458 0221     		movs	r1, #2
 3249 045a 7868     		ldr	r0, [r7, #4]
 3250 045c FFF7FEFF 		bl	set_sequence_step_timeout
 3251 0460 0346     		mov	r3, r0
 3252 0462 87F82730 		strb	r3, [r7, #39]
 3253              	.L116:
1026:Drivers/VL53L0X/core/src/vl53l0x_api_core.c **** 					VL53L0X_SEQUENCESTEP_MSRC,
1027:Drivers/VL53L0X/core/src/vl53l0x_api_core.c **** 					MsrcTimeoutMicroSeconds);
1028:Drivers/VL53L0X/core/src/vl53l0x_api_core.c **** 
1029:Drivers/VL53L0X/core/src/vl53l0x_api_core.c **** 			VL53L0X_SETDEVICESPECIFICPARAMETER(
 3254              		.loc 1 1029 4
 3255 0466 7B68     		ldr	r3, [r7, #4]
 3256 0468 BA78     		ldrb	r2, [r7, #2]
 3257 046a 83F8E820 		strb	r2, [r3, #232]
1030:Drivers/VL53L0X/core/src/vl53l0x_api_core.c **** 				Dev,
1031:Drivers/VL53L0X/core/src/vl53l0x_api_core.c **** 				PreRangeVcselPulsePeriod,
1032:Drivers/VL53L0X/core/src/vl53l0x_api_core.c **** 				VCSELPulsePeriodPCLK);
1033:Drivers/VL53L0X/core/src/vl53l0x_api_core.c **** 			break;
 3258              		.loc 1 1033 4
 3259 046e 2CE0     		b	.L109
 3260              	.L111:
1034:Drivers/VL53L0X/core/src/vl53l0x_api_core.c **** 		case VL53L0X_VCSEL_PERIOD_FINAL_RANGE:
1035:Drivers/VL53L0X/core/src/vl53l0x_api_core.c **** 			Status = get_sequence_step_timeout(Dev,
 3261              		.loc 1 1035 13
 3262 0470 07F11803 		add	r3, r7, #24
 3263 0474 1A46     		mov	r2, r3
 3264 0476 0421     		movs	r1, #4
 3265 0478 7868     		ldr	r0, [r7, #4]
 3266 047a FFF7FEFF 		bl	get_sequence_step_timeout
 3267 047e 0346     		mov	r3, r0
 3268 0480 87F82730 		strb	r3, [r7, #39]
1036:Drivers/VL53L0X/core/src/vl53l0x_api_core.c **** 				VL53L0X_SEQUENCESTEP_FINAL_RANGE,
1037:Drivers/VL53L0X/core/src/vl53l0x_api_core.c **** 				&FinalRangeTimeoutMicroSeconds);
1038:Drivers/VL53L0X/core/src/vl53l0x_api_core.c **** 
1039:Drivers/VL53L0X/core/src/vl53l0x_api_core.c **** 			if (Status == VL53L0X_ERROR_NONE)
 3269              		.loc 1 1039 7
 3270 0484 97F92730 		ldrsb	r3, [r7, #39]
 3271 0488 002B     		cmp	r3, #0
 3272 048a 09D1     		bne	.L117
1040:Drivers/VL53L0X/core/src/vl53l0x_api_core.c **** 				Status = VL53L0X_WrByte(Dev,
 3273              		.loc 1 1040 14
 3274 048c 97F82230 		ldrb	r3, [r7, #34]	@ zero_extendqisi2
 3275 0490 1A46     		mov	r2, r3
 3276 0492 7021     		movs	r1, #112
 3277 0494 7868     		ldr	r0, [r7, #4]
 3278 0496 FFF7FEFF 		bl	VL53L0X_WrByte
 3279 049a 0346     		mov	r3, r0
 3280 049c 87F82730 		strb	r3, [r7, #39]
 3281              	.L117:
1041:Drivers/VL53L0X/core/src/vl53l0x_api_core.c **** 				VL53L0X_REG_FINAL_RANGE_CONFIG_VCSEL_PERIOD,
1042:Drivers/VL53L0X/core/src/vl53l0x_api_core.c **** 					vcsel_period_reg);
1043:Drivers/VL53L0X/core/src/vl53l0x_api_core.c **** 
ARM GAS  C:\Users\Morroway\AppData\Local\Temp\ccKjJYc2.s 			page 77


1044:Drivers/VL53L0X/core/src/vl53l0x_api_core.c **** 
1045:Drivers/VL53L0X/core/src/vl53l0x_api_core.c **** 			if (Status == VL53L0X_ERROR_NONE)
 3282              		.loc 1 1045 7
 3283 04a0 97F92730 		ldrsb	r3, [r7, #39]
 3284 04a4 002B     		cmp	r3, #0
 3285 04a6 08D1     		bne	.L118
1046:Drivers/VL53L0X/core/src/vl53l0x_api_core.c **** 				Status = set_sequence_step_timeout(Dev,
 3286              		.loc 1 1046 14
 3287 04a8 BB69     		ldr	r3, [r7, #24]
 3288 04aa 1A46     		mov	r2, r3
 3289 04ac 0421     		movs	r1, #4
 3290 04ae 7868     		ldr	r0, [r7, #4]
 3291 04b0 FFF7FEFF 		bl	set_sequence_step_timeout
 3292 04b4 0346     		mov	r3, r0
 3293 04b6 87F82730 		strb	r3, [r7, #39]
 3294              	.L118:
1047:Drivers/VL53L0X/core/src/vl53l0x_api_core.c **** 					VL53L0X_SEQUENCESTEP_FINAL_RANGE,
1048:Drivers/VL53L0X/core/src/vl53l0x_api_core.c **** 					FinalRangeTimeoutMicroSeconds);
1049:Drivers/VL53L0X/core/src/vl53l0x_api_core.c **** 
1050:Drivers/VL53L0X/core/src/vl53l0x_api_core.c **** 			VL53L0X_SETDEVICESPECIFICPARAMETER(
 3295              		.loc 1 1050 4
 3296 04ba 7B68     		ldr	r3, [r7, #4]
 3297 04bc BA78     		ldrb	r2, [r7, #2]
 3298 04be 83F8E020 		strb	r2, [r3, #224]
1051:Drivers/VL53L0X/core/src/vl53l0x_api_core.c **** 				Dev,
1052:Drivers/VL53L0X/core/src/vl53l0x_api_core.c **** 				FinalRangeVcselPulsePeriod,
1053:Drivers/VL53L0X/core/src/vl53l0x_api_core.c **** 				VCSELPulsePeriodPCLK);
1054:Drivers/VL53L0X/core/src/vl53l0x_api_core.c **** 			break;
 3299              		.loc 1 1054 4
 3300 04c2 02E0     		b	.L109
 3301              	.L122:
1055:Drivers/VL53L0X/core/src/vl53l0x_api_core.c **** 		default:
1056:Drivers/VL53L0X/core/src/vl53l0x_api_core.c **** 			Status = VL53L0X_ERROR_INVALID_PARAMS;
 3302              		.loc 1 1056 11
 3303 04c4 FC23     		movs	r3, #252
 3304 04c6 87F82730 		strb	r3, [r7, #39]
 3305              	.L109:
1057:Drivers/VL53L0X/core/src/vl53l0x_api_core.c **** 		}
1058:Drivers/VL53L0X/core/src/vl53l0x_api_core.c **** 	}
1059:Drivers/VL53L0X/core/src/vl53l0x_api_core.c **** 
1060:Drivers/VL53L0X/core/src/vl53l0x_api_core.c **** 	/* Finally, the timing budget must be re-applied */
1061:Drivers/VL53L0X/core/src/vl53l0x_api_core.c **** 	if (Status == VL53L0X_ERROR_NONE) {
 3306              		.loc 1 1061 5
 3307 04ca 97F92730 		ldrsb	r3, [r7, #39]
 3308 04ce 002B     		cmp	r3, #0
 3309 04d0 09D1     		bne	.L119
1062:Drivers/VL53L0X/core/src/vl53l0x_api_core.c **** 		VL53L0X_GETPARAMETERFIELD(Dev,
 3310              		.loc 1 1062 3
 3311 04d2 7B68     		ldr	r3, [r7, #4]
 3312 04d4 5B69     		ldr	r3, [r3, #20]
 3313 04d6 FB61     		str	r3, [r7, #28]
1063:Drivers/VL53L0X/core/src/vl53l0x_api_core.c **** 			MeasurementTimingBudgetMicroSeconds,
1064:Drivers/VL53L0X/core/src/vl53l0x_api_core.c **** 			MeasurementTimingBudgetMicroSeconds);
1065:Drivers/VL53L0X/core/src/vl53l0x_api_core.c **** 
1066:Drivers/VL53L0X/core/src/vl53l0x_api_core.c **** 		Status = VL53L0X_SetMeasurementTimingBudgetMicroSeconds(Dev,
 3314              		.loc 1 1066 12
 3315 04d8 F969     		ldr	r1, [r7, #28]
ARM GAS  C:\Users\Morroway\AppData\Local\Temp\ccKjJYc2.s 			page 78


 3316 04da 7868     		ldr	r0, [r7, #4]
 3317 04dc FFF7FEFF 		bl	VL53L0X_SetMeasurementTimingBudgetMicroSeconds
 3318 04e0 0346     		mov	r3, r0
 3319 04e2 87F82730 		strb	r3, [r7, #39]
 3320              	.L119:
1067:Drivers/VL53L0X/core/src/vl53l0x_api_core.c **** 				MeasurementTimingBudgetMicroSeconds);
1068:Drivers/VL53L0X/core/src/vl53l0x_api_core.c **** 	}
1069:Drivers/VL53L0X/core/src/vl53l0x_api_core.c **** 
1070:Drivers/VL53L0X/core/src/vl53l0x_api_core.c **** 	/* Perform the phase calibration. This is needed after changing on
1071:Drivers/VL53L0X/core/src/vl53l0x_api_core.c **** 	 * vcsel period.
1072:Drivers/VL53L0X/core/src/vl53l0x_api_core.c **** 	 * get_data_enable = 0, restore_config = 1 */
1073:Drivers/VL53L0X/core/src/vl53l0x_api_core.c **** 	if (Status == VL53L0X_ERROR_NONE)
 3321              		.loc 1 1073 5
 3322 04e6 97F92730 		ldrsb	r3, [r7, #39]
 3323 04ea 002B     		cmp	r3, #0
 3324 04ec 09D1     		bne	.L120
1074:Drivers/VL53L0X/core/src/vl53l0x_api_core.c **** 		Status = VL53L0X_perform_phase_calibration(
 3325              		.loc 1 1074 12
 3326 04ee 07F10F01 		add	r1, r7, #15
 3327 04f2 0123     		movs	r3, #1
 3328 04f4 0022     		movs	r2, #0
 3329 04f6 7868     		ldr	r0, [r7, #4]
 3330 04f8 FFF7FEFF 		bl	VL53L0X_perform_phase_calibration
 3331 04fc 0346     		mov	r3, r0
 3332 04fe 87F82730 		strb	r3, [r7, #39]
 3333              	.L120:
1075:Drivers/VL53L0X/core/src/vl53l0x_api_core.c **** 			Dev, &PhaseCalInt, 0, 1);
1076:Drivers/VL53L0X/core/src/vl53l0x_api_core.c **** 
1077:Drivers/VL53L0X/core/src/vl53l0x_api_core.c **** 	return Status;
 3334              		.loc 1 1077 9
 3335 0502 97F92730 		ldrsb	r3, [r7, #39]
 3336              	.L121:
1078:Drivers/VL53L0X/core/src/vl53l0x_api_core.c **** }
 3337              		.loc 1 1078 1 discriminator 1
 3338 0506 1846     		mov	r0, r3
 3339 0508 2837     		adds	r7, r7, #40
 3340              		.cfi_def_cfa_offset 8
 3341 050a BD46     		mov	sp, r7
 3342              		.cfi_def_cfa_register 13
 3343              		@ sp needed
 3344 050c 80BD     		pop	{r7, pc}
 3345              		.cfi_endproc
 3346              	.LFE339:
 3348              		.section	.text.VL53L0X_get_vcsel_pulse_period,"ax",%progbits
 3349              		.align	1
 3350              		.global	VL53L0X_get_vcsel_pulse_period
 3351              		.syntax unified
 3352              		.thumb
 3353              		.thumb_func
 3355              	VL53L0X_get_vcsel_pulse_period:
 3356              	.LFB340:
1079:Drivers/VL53L0X/core/src/vl53l0x_api_core.c **** 
1080:Drivers/VL53L0X/core/src/vl53l0x_api_core.c **** VL53L0X_Error VL53L0X_get_vcsel_pulse_period(VL53L0X_DEV Dev,
1081:Drivers/VL53L0X/core/src/vl53l0x_api_core.c **** 	VL53L0X_VcselPeriod VcselPeriodType, uint8_t *pVCSELPulsePeriodPCLK)
1082:Drivers/VL53L0X/core/src/vl53l0x_api_core.c **** {
 3357              		.loc 1 1082 1
 3358              		.cfi_startproc
ARM GAS  C:\Users\Morroway\AppData\Local\Temp\ccKjJYc2.s 			page 79


 3359              		@ args = 0, pretend = 0, frame = 24
 3360              		@ frame_needed = 1, uses_anonymous_args = 0
 3361 0000 80B5     		push	{r7, lr}
 3362              		.cfi_def_cfa_offset 8
 3363              		.cfi_offset 7, -8
 3364              		.cfi_offset 14, -4
 3365 0002 86B0     		sub	sp, sp, #24
 3366              		.cfi_def_cfa_offset 32
 3367 0004 00AF     		add	r7, sp, #0
 3368              		.cfi_def_cfa_register 7
 3369 0006 F860     		str	r0, [r7, #12]
 3370 0008 0B46     		mov	r3, r1
 3371 000a 7A60     		str	r2, [r7, #4]
 3372 000c FB72     		strb	r3, [r7, #11]
1083:Drivers/VL53L0X/core/src/vl53l0x_api_core.c **** 	VL53L0X_Error Status = VL53L0X_ERROR_NONE;
 3373              		.loc 1 1083 16
 3374 000e 0023     		movs	r3, #0
 3375 0010 FB75     		strb	r3, [r7, #23]
1084:Drivers/VL53L0X/core/src/vl53l0x_api_core.c **** 	uint8_t vcsel_period_reg;
1085:Drivers/VL53L0X/core/src/vl53l0x_api_core.c **** 
1086:Drivers/VL53L0X/core/src/vl53l0x_api_core.c **** 	switch (VcselPeriodType) {
 3376              		.loc 1 1086 2
 3377 0012 FB7A     		ldrb	r3, [r7, #11]	@ zero_extendqisi2
 3378 0014 002B     		cmp	r3, #0
 3379 0016 02D0     		beq	.L124
 3380 0018 012B     		cmp	r3, #1
 3381 001a 0AD0     		beq	.L125
 3382 001c 13E0     		b	.L130
 3383              	.L124:
1087:Drivers/VL53L0X/core/src/vl53l0x_api_core.c **** 	case VL53L0X_VCSEL_PERIOD_PRE_RANGE:
1088:Drivers/VL53L0X/core/src/vl53l0x_api_core.c **** 		Status = VL53L0X_RdByte(Dev,
 3384              		.loc 1 1088 12
 3385 001e 07F11603 		add	r3, r7, #22
 3386 0022 1A46     		mov	r2, r3
 3387 0024 5021     		movs	r1, #80
 3388 0026 F868     		ldr	r0, [r7, #12]
 3389 0028 FFF7FEFF 		bl	VL53L0X_RdByte
 3390 002c 0346     		mov	r3, r0
 3391 002e FB75     		strb	r3, [r7, #23]
1089:Drivers/VL53L0X/core/src/vl53l0x_api_core.c **** 			VL53L0X_REG_PRE_RANGE_CONFIG_VCSEL_PERIOD,
1090:Drivers/VL53L0X/core/src/vl53l0x_api_core.c **** 			&vcsel_period_reg);
1091:Drivers/VL53L0X/core/src/vl53l0x_api_core.c **** 	break;
 3392              		.loc 1 1091 2
 3393 0030 0BE0     		b	.L127
 3394              	.L125:
1092:Drivers/VL53L0X/core/src/vl53l0x_api_core.c **** 	case VL53L0X_VCSEL_PERIOD_FINAL_RANGE:
1093:Drivers/VL53L0X/core/src/vl53l0x_api_core.c **** 		Status = VL53L0X_RdByte(Dev,
 3395              		.loc 1 1093 12
 3396 0032 07F11603 		add	r3, r7, #22
 3397 0036 1A46     		mov	r2, r3
 3398 0038 7021     		movs	r1, #112
 3399 003a F868     		ldr	r0, [r7, #12]
 3400 003c FFF7FEFF 		bl	VL53L0X_RdByte
 3401 0040 0346     		mov	r3, r0
 3402 0042 FB75     		strb	r3, [r7, #23]
1094:Drivers/VL53L0X/core/src/vl53l0x_api_core.c **** 			VL53L0X_REG_FINAL_RANGE_CONFIG_VCSEL_PERIOD,
1095:Drivers/VL53L0X/core/src/vl53l0x_api_core.c **** 			&vcsel_period_reg);
ARM GAS  C:\Users\Morroway\AppData\Local\Temp\ccKjJYc2.s 			page 80


1096:Drivers/VL53L0X/core/src/vl53l0x_api_core.c **** 	break;
 3403              		.loc 1 1096 2
 3404 0044 01E0     		b	.L127
 3405              	.L130:
1097:Drivers/VL53L0X/core/src/vl53l0x_api_core.c **** 	default:
1098:Drivers/VL53L0X/core/src/vl53l0x_api_core.c **** 		Status = VL53L0X_ERROR_INVALID_PARAMS;
 3406              		.loc 1 1098 10
 3407 0046 FC23     		movs	r3, #252
 3408 0048 FB75     		strb	r3, [r7, #23]
 3409              	.L127:
1099:Drivers/VL53L0X/core/src/vl53l0x_api_core.c **** 	}
1100:Drivers/VL53L0X/core/src/vl53l0x_api_core.c **** 
1101:Drivers/VL53L0X/core/src/vl53l0x_api_core.c **** 	if (Status == VL53L0X_ERROR_NONE)
 3410              		.loc 1 1101 5
 3411 004a 97F91730 		ldrsb	r3, [r7, #23]
 3412 004e 002B     		cmp	r3, #0
 3413 0050 07D1     		bne	.L128
1102:Drivers/VL53L0X/core/src/vl53l0x_api_core.c **** 		*pVCSELPulsePeriodPCLK =
1103:Drivers/VL53L0X/core/src/vl53l0x_api_core.c **** 			VL53L0X_decode_vcsel_period(vcsel_period_reg);
 3414              		.loc 1 1103 4
 3415 0052 BB7D     		ldrb	r3, [r7, #22]	@ zero_extendqisi2
 3416 0054 1846     		mov	r0, r3
 3417 0056 FFF7FEFF 		bl	VL53L0X_decode_vcsel_period
 3418 005a 0346     		mov	r3, r0
 3419 005c 1A46     		mov	r2, r3
1102:Drivers/VL53L0X/core/src/vl53l0x_api_core.c **** 		*pVCSELPulsePeriodPCLK =
 3420              		.loc 1 1102 26
 3421 005e 7B68     		ldr	r3, [r7, #4]
 3422 0060 1A70     		strb	r2, [r3]
 3423              	.L128:
1104:Drivers/VL53L0X/core/src/vl53l0x_api_core.c **** 
1105:Drivers/VL53L0X/core/src/vl53l0x_api_core.c **** 	return Status;
 3424              		.loc 1 1105 9
 3425 0062 97F91730 		ldrsb	r3, [r7, #23]
1106:Drivers/VL53L0X/core/src/vl53l0x_api_core.c **** }
 3426              		.loc 1 1106 1
 3427 0066 1846     		mov	r0, r3
 3428 0068 1837     		adds	r7, r7, #24
 3429              		.cfi_def_cfa_offset 8
 3430 006a BD46     		mov	sp, r7
 3431              		.cfi_def_cfa_register 13
 3432              		@ sp needed
 3433 006c 80BD     		pop	{r7, pc}
 3434              		.cfi_endproc
 3435              	.LFE340:
 3437              		.section	.text.VL53L0X_set_measurement_timing_budget_micro_seconds,"ax",%progbits
 3438              		.align	1
 3439              		.global	VL53L0X_set_measurement_timing_budget_micro_seconds
 3440              		.syntax unified
 3441              		.thumb
 3442              		.thumb_func
 3444              	VL53L0X_set_measurement_timing_budget_micro_seconds:
 3445              	.LFB341:
1107:Drivers/VL53L0X/core/src/vl53l0x_api_core.c **** 
1108:Drivers/VL53L0X/core/src/vl53l0x_api_core.c **** 
1109:Drivers/VL53L0X/core/src/vl53l0x_api_core.c **** 
1110:Drivers/VL53L0X/core/src/vl53l0x_api_core.c **** VL53L0X_Error VL53L0X_set_measurement_timing_budget_micro_seconds(VL53L0X_DEV Dev,
ARM GAS  C:\Users\Morroway\AppData\Local\Temp\ccKjJYc2.s 			page 81


1111:Drivers/VL53L0X/core/src/vl53l0x_api_core.c **** 		uint32_t MeasurementTimingBudgetMicroSeconds)
1112:Drivers/VL53L0X/core/src/vl53l0x_api_core.c **** {
 3446              		.loc 1 1112 1
 3447              		.cfi_startproc
 3448              		@ args = 0, pretend = 0, frame = 72
 3449              		@ frame_needed = 1, uses_anonymous_args = 0
 3450 0000 80B5     		push	{r7, lr}
 3451              		.cfi_def_cfa_offset 8
 3452              		.cfi_offset 7, -8
 3453              		.cfi_offset 14, -4
 3454 0002 92B0     		sub	sp, sp, #72
 3455              		.cfi_def_cfa_offset 80
 3456 0004 00AF     		add	r7, sp, #0
 3457              		.cfi_def_cfa_register 7
 3458 0006 7860     		str	r0, [r7, #4]
 3459 0008 3960     		str	r1, [r7]
1113:Drivers/VL53L0X/core/src/vl53l0x_api_core.c **** 	VL53L0X_Error Status = VL53L0X_ERROR_NONE;
 3460              		.loc 1 1113 16
 3461 000a 0023     		movs	r3, #0
 3462 000c 87F84730 		strb	r3, [r7, #71]
1114:Drivers/VL53L0X/core/src/vl53l0x_api_core.c **** 	uint32_t FinalRangeTimingBudgetMicroSeconds;
1115:Drivers/VL53L0X/core/src/vl53l0x_api_core.c **** 	VL53L0X_SchedulerSequenceSteps_t SchedulerSequenceSteps;
1116:Drivers/VL53L0X/core/src/vl53l0x_api_core.c **** 	uint32_t MsrcDccTccTimeoutMicroSeconds	= 2000;
 3463              		.loc 1 1116 11
 3464 0010 4FF4FA63 		mov	r3, #2000
 3465 0014 3B61     		str	r3, [r7, #16]
1117:Drivers/VL53L0X/core/src/vl53l0x_api_core.c **** 	uint32_t StartOverheadMicroSeconds		= 1910;
 3466              		.loc 1 1117 11
 3467 0016 40F27673 		movw	r3, #1910
 3468 001a FB63     		str	r3, [r7, #60]
1118:Drivers/VL53L0X/core/src/vl53l0x_api_core.c **** 	uint32_t EndOverheadMicroSeconds		= 960;
 3469              		.loc 1 1118 11
 3470 001c 4FF47073 		mov	r3, #960
 3471 0020 BB63     		str	r3, [r7, #56]
1119:Drivers/VL53L0X/core/src/vl53l0x_api_core.c **** 	uint32_t MsrcOverheadMicroSeconds		= 660;
 3472              		.loc 1 1119 11
 3473 0022 4FF42573 		mov	r3, #660
 3474 0026 7B63     		str	r3, [r7, #52]
1120:Drivers/VL53L0X/core/src/vl53l0x_api_core.c **** 	uint32_t TccOverheadMicroSeconds		= 590;
 3475              		.loc 1 1120 11
 3476 0028 40F24E23 		movw	r3, #590
 3477 002c 3B63     		str	r3, [r7, #48]
1121:Drivers/VL53L0X/core/src/vl53l0x_api_core.c **** 	uint32_t DssOverheadMicroSeconds		= 690;
 3478              		.loc 1 1121 11
 3479 002e 40F2B223 		movw	r3, #690
 3480 0032 FB62     		str	r3, [r7, #44]
1122:Drivers/VL53L0X/core/src/vl53l0x_api_core.c **** 	uint32_t PreRangeOverheadMicroSeconds	= 660;
 3481              		.loc 1 1122 11
 3482 0034 4FF42573 		mov	r3, #660
 3483 0038 BB62     		str	r3, [r7, #40]
1123:Drivers/VL53L0X/core/src/vl53l0x_api_core.c **** 	uint32_t FinalRangeOverheadMicroSeconds = 550;
 3484              		.loc 1 1123 11
 3485 003a 40F22623 		movw	r3, #550
 3486 003e 7B62     		str	r3, [r7, #36]
1124:Drivers/VL53L0X/core/src/vl53l0x_api_core.c **** 	uint32_t PreRangeTimeoutMicroSeconds	= 0;
 3487              		.loc 1 1124 11
 3488 0040 0023     		movs	r3, #0
ARM GAS  C:\Users\Morroway\AppData\Local\Temp\ccKjJYc2.s 			page 82


 3489 0042 FB60     		str	r3, [r7, #12]
1125:Drivers/VL53L0X/core/src/vl53l0x_api_core.c **** 	uint32_t cMinTimingBudgetMicroSeconds	= 20000;
 3490              		.loc 1 1125 11
 3491 0044 44F62063 		movw	r3, #20000
 3492 0048 3B62     		str	r3, [r7, #32]
1126:Drivers/VL53L0X/core/src/vl53l0x_api_core.c **** 	uint32_t SubTimeout = 0;
 3493              		.loc 1 1126 11
 3494 004a 0023     		movs	r3, #0
 3495 004c FB61     		str	r3, [r7, #28]
1127:Drivers/VL53L0X/core/src/vl53l0x_api_core.c **** 
1128:Drivers/VL53L0X/core/src/vl53l0x_api_core.c **** 	LOG_FUNCTION_START("");
1129:Drivers/VL53L0X/core/src/vl53l0x_api_core.c **** 
1130:Drivers/VL53L0X/core/src/vl53l0x_api_core.c **** 	if (MeasurementTimingBudgetMicroSeconds
 3496              		.loc 1 1130 5
 3497 004e 3A68     		ldr	r2, [r7]
 3498 0050 3B6A     		ldr	r3, [r7, #32]
 3499 0052 9A42     		cmp	r2, r3
 3500 0054 05D2     		bcs	.L132
1131:Drivers/VL53L0X/core/src/vl53l0x_api_core.c **** 			< cMinTimingBudgetMicroSeconds) {
1132:Drivers/VL53L0X/core/src/vl53l0x_api_core.c **** 		Status = VL53L0X_ERROR_INVALID_PARAMS;
 3501              		.loc 1 1132 10
 3502 0056 FC23     		movs	r3, #252
 3503 0058 87F84730 		strb	r3, [r7, #71]
1133:Drivers/VL53L0X/core/src/vl53l0x_api_core.c **** 		return Status;
 3504              		.loc 1 1133 10
 3505 005c 97F94730 		ldrsb	r3, [r7, #71]
 3506 0060 AAE0     		b	.L147
 3507              	.L132:
1134:Drivers/VL53L0X/core/src/vl53l0x_api_core.c **** 	}
1135:Drivers/VL53L0X/core/src/vl53l0x_api_core.c **** 
1136:Drivers/VL53L0X/core/src/vl53l0x_api_core.c **** 	FinalRangeTimingBudgetMicroSeconds =
1137:Drivers/VL53L0X/core/src/vl53l0x_api_core.c **** 		MeasurementTimingBudgetMicroSeconds -
1138:Drivers/VL53L0X/core/src/vl53l0x_api_core.c **** 		(StartOverheadMicroSeconds + EndOverheadMicroSeconds);
 3508              		.loc 1 1138 30
 3509 0062 FA6B     		ldr	r2, [r7, #60]
 3510 0064 BB6B     		ldr	r3, [r7, #56]
 3511 0066 1344     		add	r3, r3, r2
1136:Drivers/VL53L0X/core/src/vl53l0x_api_core.c **** 		MeasurementTimingBudgetMicroSeconds -
 3512              		.loc 1 1136 37
 3513 0068 3A68     		ldr	r2, [r7]
 3514 006a D31A     		subs	r3, r2, r3
 3515 006c 3B64     		str	r3, [r7, #64]
1139:Drivers/VL53L0X/core/src/vl53l0x_api_core.c **** 
1140:Drivers/VL53L0X/core/src/vl53l0x_api_core.c **** 	Status = VL53L0X_GetSequenceStepEnables(Dev, &SchedulerSequenceSteps);
 3516              		.loc 1 1140 11
 3517 006e 07F11403 		add	r3, r7, #20
 3518 0072 1946     		mov	r1, r3
 3519 0074 7868     		ldr	r0, [r7, #4]
 3520 0076 FFF7FEFF 		bl	VL53L0X_GetSequenceStepEnables
 3521 007a 0346     		mov	r3, r0
 3522 007c 87F84730 		strb	r3, [r7, #71]
1141:Drivers/VL53L0X/core/src/vl53l0x_api_core.c **** 
1142:Drivers/VL53L0X/core/src/vl53l0x_api_core.c **** 	if (Status == VL53L0X_ERROR_NONE &&
 3523              		.loc 1 1142 5
 3524 0080 97F94730 		ldrsb	r3, [r7, #71]
 3525 0084 002B     		cmp	r3, #0
 3526 0086 5BD1     		bne	.L134
ARM GAS  C:\Users\Morroway\AppData\Local\Temp\ccKjJYc2.s 			page 83


1143:Drivers/VL53L0X/core/src/vl53l0x_api_core.c **** 		(SchedulerSequenceSteps.TccOn  ||
 3527              		.loc 1 1143 26 discriminator 1
 3528 0088 3B7D     		ldrb	r3, [r7, #20]	@ zero_extendqisi2
1142:Drivers/VL53L0X/core/src/vl53l0x_api_core.c **** 		(SchedulerSequenceSteps.TccOn  ||
 3529              		.loc 1 1142 35 discriminator 1
 3530 008a 002B     		cmp	r3, #0
 3531 008c 05D1     		bne	.L135
1144:Drivers/VL53L0X/core/src/vl53l0x_api_core.c **** 		SchedulerSequenceSteps.MsrcOn ||
 3532              		.loc 1 1144 25
 3533 008e 7B7D     		ldrb	r3, [r7, #21]	@ zero_extendqisi2
1143:Drivers/VL53L0X/core/src/vl53l0x_api_core.c **** 		(SchedulerSequenceSteps.TccOn  ||
 3534              		.loc 1 1143 34
 3535 0090 002B     		cmp	r3, #0
 3536 0092 02D1     		bne	.L135
1145:Drivers/VL53L0X/core/src/vl53l0x_api_core.c **** 		SchedulerSequenceSteps.DssOn)) {
 3537              		.loc 1 1145 25
 3538 0094 BB7D     		ldrb	r3, [r7, #22]	@ zero_extendqisi2
1144:Drivers/VL53L0X/core/src/vl53l0x_api_core.c **** 		SchedulerSequenceSteps.MsrcOn ||
 3539              		.loc 1 1144 33
 3540 0096 002B     		cmp	r3, #0
 3541 0098 52D0     		beq	.L134
 3542              	.L135:
1146:Drivers/VL53L0X/core/src/vl53l0x_api_core.c **** 
1147:Drivers/VL53L0X/core/src/vl53l0x_api_core.c **** 		/* TCC, MSRC and DSS all share the same timeout */
1148:Drivers/VL53L0X/core/src/vl53l0x_api_core.c **** 		Status = get_sequence_step_timeout(Dev,
 3543              		.loc 1 1148 12
 3544 009a 07F11003 		add	r3, r7, #16
 3545 009e 1A46     		mov	r2, r3
 3546 00a0 0221     		movs	r1, #2
 3547 00a2 7868     		ldr	r0, [r7, #4]
 3548 00a4 FFF7FEFF 		bl	get_sequence_step_timeout
 3549 00a8 0346     		mov	r3, r0
 3550 00aa 87F84730 		strb	r3, [r7, #71]
1149:Drivers/VL53L0X/core/src/vl53l0x_api_core.c **** 					VL53L0X_SEQUENCESTEP_MSRC,
1150:Drivers/VL53L0X/core/src/vl53l0x_api_core.c **** 					&MsrcDccTccTimeoutMicroSeconds);
1151:Drivers/VL53L0X/core/src/vl53l0x_api_core.c **** 
1152:Drivers/VL53L0X/core/src/vl53l0x_api_core.c **** 		/* Subtract the TCC, MSRC and DSS timeouts if they are
1153:Drivers/VL53L0X/core/src/vl53l0x_api_core.c **** 		 * enabled. */
1154:Drivers/VL53L0X/core/src/vl53l0x_api_core.c **** 
1155:Drivers/VL53L0X/core/src/vl53l0x_api_core.c **** 		if (Status != VL53L0X_ERROR_NONE)
 3551              		.loc 1 1155 6
 3552 00ae 97F94730 		ldrsb	r3, [r7, #71]
 3553 00b2 002B     		cmp	r3, #0
 3554 00b4 02D0     		beq	.L136
1156:Drivers/VL53L0X/core/src/vl53l0x_api_core.c **** 			return Status;
 3555              		.loc 1 1156 11
 3556 00b6 97F94730 		ldrsb	r3, [r7, #71]
 3557 00ba 7DE0     		b	.L147
 3558              	.L136:
1157:Drivers/VL53L0X/core/src/vl53l0x_api_core.c **** 
1158:Drivers/VL53L0X/core/src/vl53l0x_api_core.c **** 		/* TCC */
1159:Drivers/VL53L0X/core/src/vl53l0x_api_core.c **** 		if (SchedulerSequenceSteps.TccOn) {
 3559              		.loc 1 1159 29
 3560 00bc 3B7D     		ldrb	r3, [r7, #20]	@ zero_extendqisi2
 3561              		.loc 1 1159 6
 3562 00be 002B     		cmp	r3, #0
 3563 00c0 0FD0     		beq	.L137
ARM GAS  C:\Users\Morroway\AppData\Local\Temp\ccKjJYc2.s 			page 84


1160:Drivers/VL53L0X/core/src/vl53l0x_api_core.c **** 
1161:Drivers/VL53L0X/core/src/vl53l0x_api_core.c **** 			SubTimeout = MsrcDccTccTimeoutMicroSeconds
1162:Drivers/VL53L0X/core/src/vl53l0x_api_core.c **** 				+ TccOverheadMicroSeconds;
 3564              		.loc 1 1162 5
 3565 00c2 3B69     		ldr	r3, [r7, #16]
1161:Drivers/VL53L0X/core/src/vl53l0x_api_core.c **** 				+ TccOverheadMicroSeconds;
 3566              		.loc 1 1161 15
 3567 00c4 3A6B     		ldr	r2, [r7, #48]
 3568 00c6 1344     		add	r3, r3, r2
 3569 00c8 FB61     		str	r3, [r7, #28]
1163:Drivers/VL53L0X/core/src/vl53l0x_api_core.c **** 
1164:Drivers/VL53L0X/core/src/vl53l0x_api_core.c **** 			if (SubTimeout <
 3570              		.loc 1 1164 7
 3571 00ca FA69     		ldr	r2, [r7, #28]
 3572 00cc 3B6C     		ldr	r3, [r7, #64]
 3573 00ce 9A42     		cmp	r2, r3
 3574 00d0 04D2     		bcs	.L138
1165:Drivers/VL53L0X/core/src/vl53l0x_api_core.c **** 				FinalRangeTimingBudgetMicroSeconds) {
1166:Drivers/VL53L0X/core/src/vl53l0x_api_core.c **** 				FinalRangeTimingBudgetMicroSeconds -=
 3575              		.loc 1 1166 40
 3576 00d2 3A6C     		ldr	r2, [r7, #64]
 3577 00d4 FB69     		ldr	r3, [r7, #28]
 3578 00d6 D31A     		subs	r3, r2, r3
 3579 00d8 3B64     		str	r3, [r7, #64]
 3580 00da 02E0     		b	.L137
 3581              	.L138:
1167:Drivers/VL53L0X/core/src/vl53l0x_api_core.c **** 							SubTimeout;
1168:Drivers/VL53L0X/core/src/vl53l0x_api_core.c **** 			} else {
1169:Drivers/VL53L0X/core/src/vl53l0x_api_core.c **** 				/* Requested timeout too big. */
1170:Drivers/VL53L0X/core/src/vl53l0x_api_core.c **** 				Status = VL53L0X_ERROR_INVALID_PARAMS;
 3582              		.loc 1 1170 12
 3583 00dc FC23     		movs	r3, #252
 3584 00de 87F84730 		strb	r3, [r7, #71]
 3585              	.L137:
1171:Drivers/VL53L0X/core/src/vl53l0x_api_core.c **** 			}
1172:Drivers/VL53L0X/core/src/vl53l0x_api_core.c **** 		}
1173:Drivers/VL53L0X/core/src/vl53l0x_api_core.c **** 
1174:Drivers/VL53L0X/core/src/vl53l0x_api_core.c **** 		if (Status != VL53L0X_ERROR_NONE) {
 3586              		.loc 1 1174 6
 3587 00e2 97F94730 		ldrsb	r3, [r7, #71]
 3588 00e6 002B     		cmp	r3, #0
 3589 00e8 02D0     		beq	.L139
1175:Drivers/VL53L0X/core/src/vl53l0x_api_core.c **** 			LOG_FUNCTION_END(Status);
1176:Drivers/VL53L0X/core/src/vl53l0x_api_core.c **** 			return Status;
 3590              		.loc 1 1176 11
 3591 00ea 97F94730 		ldrsb	r3, [r7, #71]
 3592 00ee 63E0     		b	.L147
 3593              	.L139:
1177:Drivers/VL53L0X/core/src/vl53l0x_api_core.c **** 		}
1178:Drivers/VL53L0X/core/src/vl53l0x_api_core.c **** 
1179:Drivers/VL53L0X/core/src/vl53l0x_api_core.c **** 		/* DSS */
1180:Drivers/VL53L0X/core/src/vl53l0x_api_core.c **** 		if (SchedulerSequenceSteps.DssOn) {
 3594              		.loc 1 1180 29
 3595 00f0 BB7D     		ldrb	r3, [r7, #22]	@ zero_extendqisi2
 3596              		.loc 1 1180 6
 3597 00f2 002B     		cmp	r3, #0
 3598 00f4 11D0     		beq	.L140
ARM GAS  C:\Users\Morroway\AppData\Local\Temp\ccKjJYc2.s 			page 85


1181:Drivers/VL53L0X/core/src/vl53l0x_api_core.c **** 
1182:Drivers/VL53L0X/core/src/vl53l0x_api_core.c **** 			SubTimeout = 2 * (MsrcDccTccTimeoutMicroSeconds +
 3599              		.loc 1 1182 52
 3600 00f6 3A69     		ldr	r2, [r7, #16]
 3601 00f8 FB6A     		ldr	r3, [r7, #44]
 3602 00fa 1344     		add	r3, r3, r2
 3603              		.loc 1 1182 15
 3604 00fc 5B00     		lsls	r3, r3, #1
 3605 00fe FB61     		str	r3, [r7, #28]
1183:Drivers/VL53L0X/core/src/vl53l0x_api_core.c **** 				DssOverheadMicroSeconds);
1184:Drivers/VL53L0X/core/src/vl53l0x_api_core.c **** 
1185:Drivers/VL53L0X/core/src/vl53l0x_api_core.c **** 			if (SubTimeout < FinalRangeTimingBudgetMicroSeconds) {
 3606              		.loc 1 1185 7
 3607 0100 FA69     		ldr	r2, [r7, #28]
 3608 0102 3B6C     		ldr	r3, [r7, #64]
 3609 0104 9A42     		cmp	r2, r3
 3610 0106 04D2     		bcs	.L141
1186:Drivers/VL53L0X/core/src/vl53l0x_api_core.c **** 				FinalRangeTimingBudgetMicroSeconds
1187:Drivers/VL53L0X/core/src/vl53l0x_api_core.c **** 							-= SubTimeout;
 3611              		.loc 1 1187 8
 3612 0108 3A6C     		ldr	r2, [r7, #64]
 3613 010a FB69     		ldr	r3, [r7, #28]
 3614 010c D31A     		subs	r3, r2, r3
 3615 010e 3B64     		str	r3, [r7, #64]
 3616 0110 16E0     		b	.L134
 3617              	.L141:
1188:Drivers/VL53L0X/core/src/vl53l0x_api_core.c **** 			} else {
1189:Drivers/VL53L0X/core/src/vl53l0x_api_core.c **** 				/* Requested timeout too big. */
1190:Drivers/VL53L0X/core/src/vl53l0x_api_core.c **** 				Status = VL53L0X_ERROR_INVALID_PARAMS;
 3618              		.loc 1 1190 12
 3619 0112 FC23     		movs	r3, #252
 3620 0114 87F84730 		strb	r3, [r7, #71]
 3621 0118 12E0     		b	.L134
 3622              	.L140:
1191:Drivers/VL53L0X/core/src/vl53l0x_api_core.c **** 			}
1192:Drivers/VL53L0X/core/src/vl53l0x_api_core.c **** 		} else if (SchedulerSequenceSteps.MsrcOn) {
 3623              		.loc 1 1192 36
 3624 011a 7B7D     		ldrb	r3, [r7, #21]	@ zero_extendqisi2
 3625              		.loc 1 1192 13
 3626 011c 002B     		cmp	r3, #0
 3627 011e 0FD0     		beq	.L134
1193:Drivers/VL53L0X/core/src/vl53l0x_api_core.c **** 			/* MSRC */
1194:Drivers/VL53L0X/core/src/vl53l0x_api_core.c **** 			SubTimeout = MsrcDccTccTimeoutMicroSeconds +
 3628              		.loc 1 1194 47
 3629 0120 3B69     		ldr	r3, [r7, #16]
 3630              		.loc 1 1194 15
 3631 0122 7A6B     		ldr	r2, [r7, #52]
 3632 0124 1344     		add	r3, r3, r2
 3633 0126 FB61     		str	r3, [r7, #28]
1195:Drivers/VL53L0X/core/src/vl53l0x_api_core.c **** 						MsrcOverheadMicroSeconds;
1196:Drivers/VL53L0X/core/src/vl53l0x_api_core.c **** 
1197:Drivers/VL53L0X/core/src/vl53l0x_api_core.c **** 			if (SubTimeout < FinalRangeTimingBudgetMicroSeconds) {
 3634              		.loc 1 1197 7
 3635 0128 FA69     		ldr	r2, [r7, #28]
 3636 012a 3B6C     		ldr	r3, [r7, #64]
 3637 012c 9A42     		cmp	r2, r3
 3638 012e 04D2     		bcs	.L142
ARM GAS  C:\Users\Morroway\AppData\Local\Temp\ccKjJYc2.s 			page 86


1198:Drivers/VL53L0X/core/src/vl53l0x_api_core.c **** 				FinalRangeTimingBudgetMicroSeconds
1199:Drivers/VL53L0X/core/src/vl53l0x_api_core.c **** 							-= SubTimeout;
 3639              		.loc 1 1199 8
 3640 0130 3A6C     		ldr	r2, [r7, #64]
 3641 0132 FB69     		ldr	r3, [r7, #28]
 3642 0134 D31A     		subs	r3, r2, r3
 3643 0136 3B64     		str	r3, [r7, #64]
 3644 0138 02E0     		b	.L134
 3645              	.L142:
1200:Drivers/VL53L0X/core/src/vl53l0x_api_core.c **** 			} else {
1201:Drivers/VL53L0X/core/src/vl53l0x_api_core.c **** 				/* Requested timeout too big. */
1202:Drivers/VL53L0X/core/src/vl53l0x_api_core.c **** 				Status = VL53L0X_ERROR_INVALID_PARAMS;
 3646              		.loc 1 1202 12
 3647 013a FC23     		movs	r3, #252
 3648 013c 87F84730 		strb	r3, [r7, #71]
 3649              	.L134:
1203:Drivers/VL53L0X/core/src/vl53l0x_api_core.c **** 			}
1204:Drivers/VL53L0X/core/src/vl53l0x_api_core.c **** 		}
1205:Drivers/VL53L0X/core/src/vl53l0x_api_core.c **** 
1206:Drivers/VL53L0X/core/src/vl53l0x_api_core.c **** 	}
1207:Drivers/VL53L0X/core/src/vl53l0x_api_core.c **** 
1208:Drivers/VL53L0X/core/src/vl53l0x_api_core.c **** 	if (Status != VL53L0X_ERROR_NONE) {
 3650              		.loc 1 1208 5
 3651 0140 97F94730 		ldrsb	r3, [r7, #71]
 3652 0144 002B     		cmp	r3, #0
 3653 0146 02D0     		beq	.L143
1209:Drivers/VL53L0X/core/src/vl53l0x_api_core.c **** 		LOG_FUNCTION_END(Status);
1210:Drivers/VL53L0X/core/src/vl53l0x_api_core.c **** 		return Status;
 3654              		.loc 1 1210 10
 3655 0148 97F94730 		ldrsb	r3, [r7, #71]
 3656 014c 34E0     		b	.L147
 3657              	.L143:
1211:Drivers/VL53L0X/core/src/vl53l0x_api_core.c **** 	}
1212:Drivers/VL53L0X/core/src/vl53l0x_api_core.c **** 
1213:Drivers/VL53L0X/core/src/vl53l0x_api_core.c **** 	if (SchedulerSequenceSteps.PreRangeOn) {
 3658              		.loc 1 1213 28
 3659 014e FB7D     		ldrb	r3, [r7, #23]	@ zero_extendqisi2
 3660              		.loc 1 1213 5
 3661 0150 002B     		cmp	r3, #0
 3662 0152 19D0     		beq	.L144
1214:Drivers/VL53L0X/core/src/vl53l0x_api_core.c **** 
1215:Drivers/VL53L0X/core/src/vl53l0x_api_core.c **** 		/* Subtract the Pre-range timeout if enabled. */
1216:Drivers/VL53L0X/core/src/vl53l0x_api_core.c **** 
1217:Drivers/VL53L0X/core/src/vl53l0x_api_core.c **** 		Status = get_sequence_step_timeout(Dev,
 3663              		.loc 1 1217 12
 3664 0154 07F10C03 		add	r3, r7, #12
 3665 0158 1A46     		mov	r2, r3
 3666 015a 0321     		movs	r1, #3
 3667 015c 7868     		ldr	r0, [r7, #4]
 3668 015e FFF7FEFF 		bl	get_sequence_step_timeout
 3669 0162 0346     		mov	r3, r0
 3670 0164 87F84730 		strb	r3, [r7, #71]
1218:Drivers/VL53L0X/core/src/vl53l0x_api_core.c **** 				VL53L0X_SEQUENCESTEP_PRE_RANGE,
1219:Drivers/VL53L0X/core/src/vl53l0x_api_core.c **** 				&PreRangeTimeoutMicroSeconds);
1220:Drivers/VL53L0X/core/src/vl53l0x_api_core.c **** 
1221:Drivers/VL53L0X/core/src/vl53l0x_api_core.c **** 		SubTimeout = PreRangeTimeoutMicroSeconds +
 3671              		.loc 1 1221 44
ARM GAS  C:\Users\Morroway\AppData\Local\Temp\ccKjJYc2.s 			page 87


 3672 0168 FB68     		ldr	r3, [r7, #12]
 3673              		.loc 1 1221 14
 3674 016a BA6A     		ldr	r2, [r7, #40]
 3675 016c 1344     		add	r3, r3, r2
 3676 016e FB61     		str	r3, [r7, #28]
1222:Drivers/VL53L0X/core/src/vl53l0x_api_core.c **** 				PreRangeOverheadMicroSeconds;
1223:Drivers/VL53L0X/core/src/vl53l0x_api_core.c **** 
1224:Drivers/VL53L0X/core/src/vl53l0x_api_core.c **** 		if (SubTimeout < FinalRangeTimingBudgetMicroSeconds) {
 3677              		.loc 1 1224 6
 3678 0170 FA69     		ldr	r2, [r7, #28]
 3679 0172 3B6C     		ldr	r3, [r7, #64]
 3680 0174 9A42     		cmp	r2, r3
 3681 0176 04D2     		bcs	.L145
1225:Drivers/VL53L0X/core/src/vl53l0x_api_core.c **** 			FinalRangeTimingBudgetMicroSeconds -= SubTimeout;
 3682              		.loc 1 1225 39
 3683 0178 3A6C     		ldr	r2, [r7, #64]
 3684 017a FB69     		ldr	r3, [r7, #28]
 3685 017c D31A     		subs	r3, r2, r3
 3686 017e 3B64     		str	r3, [r7, #64]
 3687 0180 02E0     		b	.L144
 3688              	.L145:
1226:Drivers/VL53L0X/core/src/vl53l0x_api_core.c **** 		} else {
1227:Drivers/VL53L0X/core/src/vl53l0x_api_core.c **** 			/* Requested timeout too big. */
1228:Drivers/VL53L0X/core/src/vl53l0x_api_core.c **** 			Status = VL53L0X_ERROR_INVALID_PARAMS;
 3689              		.loc 1 1228 11
 3690 0182 FC23     		movs	r3, #252
 3691 0184 87F84730 		strb	r3, [r7, #71]
 3692              	.L144:
1229:Drivers/VL53L0X/core/src/vl53l0x_api_core.c **** 		}
1230:Drivers/VL53L0X/core/src/vl53l0x_api_core.c **** 	}
1231:Drivers/VL53L0X/core/src/vl53l0x_api_core.c **** 
1232:Drivers/VL53L0X/core/src/vl53l0x_api_core.c **** 
1233:Drivers/VL53L0X/core/src/vl53l0x_api_core.c **** 	if (Status == VL53L0X_ERROR_NONE &&
 3693              		.loc 1 1233 5
 3694 0188 97F94730 		ldrsb	r3, [r7, #71]
 3695 018c 002B     		cmp	r3, #0
 3696 018e 11D1     		bne	.L146
1234:Drivers/VL53L0X/core/src/vl53l0x_api_core.c **** 		SchedulerSequenceSteps.FinalRangeOn) {
 3697              		.loc 1 1234 25 discriminator 1
 3698 0190 3B7E     		ldrb	r3, [r7, #24]	@ zero_extendqisi2
1233:Drivers/VL53L0X/core/src/vl53l0x_api_core.c **** 		SchedulerSequenceSteps.FinalRangeOn) {
 3699              		.loc 1 1233 35 discriminator 1
 3700 0192 002B     		cmp	r3, #0
 3701 0194 0ED0     		beq	.L146
1235:Drivers/VL53L0X/core/src/vl53l0x_api_core.c **** 
1236:Drivers/VL53L0X/core/src/vl53l0x_api_core.c **** 		FinalRangeTimingBudgetMicroSeconds -=
 3702              		.loc 1 1236 38
 3703 0196 3A6C     		ldr	r2, [r7, #64]
 3704 0198 7B6A     		ldr	r3, [r7, #36]
 3705 019a D31A     		subs	r3, r2, r3
 3706 019c 3B64     		str	r3, [r7, #64]
1237:Drivers/VL53L0X/core/src/vl53l0x_api_core.c **** 				FinalRangeOverheadMicroSeconds;
1238:Drivers/VL53L0X/core/src/vl53l0x_api_core.c **** 
1239:Drivers/VL53L0X/core/src/vl53l0x_api_core.c **** 		/* Final Range Timeout
1240:Drivers/VL53L0X/core/src/vl53l0x_api_core.c **** 		 * Note that the final range timeout is determined by the timing
1241:Drivers/VL53L0X/core/src/vl53l0x_api_core.c **** 		 * budget and the sum of all other timeouts within the sequence.
1242:Drivers/VL53L0X/core/src/vl53l0x_api_core.c **** 		 * If there is no room for the final range timeout, then an error
